(dp1
S'PABPN1L'
p2
(lp3
I88862622
aI88870152
aS'-'
asS'C16orf13'
p4
(lp5
I634426
aI636366
aS'-'
asS'PMM2'
p6
(lp7
I8797812
aI8849337
aS'+'
asS'PPP4C'
p8
(lp9
I30075975
aI30085377
aS'+'
asS'SPN'
p10
(lp11
I29662949
aI29670507
aS'+'
asS'IRX5'
p12
(lp13
I54931198
aI54934485
aS'+'
asS'ZC3H18'
p14
(lp15
I88570380
aI88631964
aS'+'
asS'IRX6'
p16
(lp17
I55323961
aI55330760
aS'+'
asS'IRX3'
p18
(lp19
I54283303
aI54286772
aS'-'
asS'NUP93'
p20
(lp21
I56730104
aI56844950
aS'+'
asS'ZNF48'
p22
(lp23
I30378311
aI30400108
aS'+'
asS'LOC105376752'
p24
(lp25
I18359532
aI18372055
aS'-'
asS'LOC105376753'
p26
(lp27
I18313387
aI18331740
aS'+'
asS'LOC105376751'
p28
(lp29
I18238292
aI18256304
aS'-'
asS'RAB40C'
p30
(lp31
I589356
aI629273
aS'+'
asS'SNN'
p32
(lp33
I11668432
aI11679159
aS'+'
asS'MAZ'
p34
(lp35
I29806095
aI29811183
aS'+'
asS'ERI2'
p36
(lp37
I20780192
aI20806473
aS'-'
asS'EEF2KMT'
p38
(lp39
I5084299
aI5097820
aS'-'
asS'MAF'
p40
(lp41
I79202623
aI79600409
aS'-'
asS'NTHL1'
p42
(lp43
I2039814
aI2047872
aS'-'
asS'LOC100190986'
p44
(lp45
I21432002
aI21434455
aS'-'
asS'ATP2A1'
p46
(lp47
I28878487
aI28904509
aS'+'
asS'LOC100996345'
p48
(lp49
I54366006
aI54370699
aS'-'
asS'GTF3C1'
p50
(lp51
I27460612
aI27549930
aS'-'
asS'EDC4'
p52
(lp53
I67873022
aI67884514
aS'+'
asS'XPO6'
p54
(lp55
I28097975
aI28211918
aS'-'
asS'LOC100652777'
p56
(lp57
I14709054
aI14733781
aS'-'
asS'PAM16'
p58
(lp59
I4340250
aI4351372
aS'-'
asS'TMEM265'
p60
(lp61
I30740190
aI30745196
aS'+'
asS'ABCA17P'
p62
(lp63
I2340921
aI2426699
aS'+'
asS'FBXL16'
p64
(lp65
I692499
aI705825
aS'-'
asS'FBXL19'
p66
(lp67
I30923054
aI30948783
aS'+'
asS'RRN3P2'
p68
(lp69
I29074841
aI29116718
aS'+'
asS'RRN3P1'
p70
(lp71
I21796629
aI21819174
aS'-'
asS'LOC106660606'
p72
(lp73
I2268662
aI2273072
aS'+'
asS'PRSS54'
p74
(lp75
I58279996
aI58295047
aS'-'
asS'PRSS53'
p76
(lp77
I31083436
aI31090035
aS'-'
asS'DNASE1L2'
p78
(lp79
I2236251
aI2238711
aS'+'
asS'LOC101928392'
p80
(lp81
I82545095
aI82575461
aS'-'
asS'CHST5'
p82
(lp83
I75528529
aI75535170
aS'-'
asS'CHST4'
p84
(lp85
I71526119
aI71538590
aS'+'
asS'CHST6'
p86
(lp87
I75473123
aI75495028
aS'-'
asS'ITGAX'
p88
(lp89
I31355133
aI31382997
aS'+'
asS'MIR6863'
p90
(lp91
I56904263
aI56904353
aS'+'
asS'LOC102723708'
p92
(lp93
I29225593
aI29229561
aS'-'
asS'ITGAL'
p94
(lp95
I30472661
aI30523185
aS'+'
asS'ITGAM'
p96
(lp97
I31259966
aI31332892
aS'+'
asS'ITGAD'
p98
(lp99
I31393232
aI31426513
aS'+'
asS'FOXC2'
p100
(lp101
I86567250
aI86568933
aS'+'
asS'MIR4719'
p102
(lp103
I76868935
aI76869019
aS'+'
asS'TELO2'
p104
(lp105
I1493343
aI1510459
aS'+'
asS'MIR4717'
p106
(lp107
I2274619
aI2274691
aS'+'
asS'SNTB2'
p108
(lp109
I69186132
aI69309052
aS'+'
asS'FAHD1'
p110
(lp111
I1827223
aI1840207
aS'+'
asS'LOC400558'
p112
(lp113
I89166382
aI89169147
aS'+'
asS'LOC400553'
p114
(lp115
I88099408
aI88100985
aS'-'
asS'DBNDD1'
p116
(lp117
I90004864
aI90020131
aS'-'
asS'HERC2P4'
p118
(lp119
I32170042
aI32188113
aS'-'
asS'SULT1A4'
p120
(lp121
I29459885
aI29464980
aS'+'
asS'SULT1A1'
p122
(lp123
I28605586
aI28623586
aS'-'
asS'MYLK3'
p124
(lp125
I46702281
aI46763246
aS'-'
asS'SULT1A3'
p126
(lp127
I30199227
aI30204329
aS'+'
asS'SULT1A2'
p128
(lp129
I28591942
aI28597079
aS'-'
asS'FLJ30679'
p130
(lp131
I86555319
aI86557299
aS'+'
asS'COX4I1'
p132
(lp133
I85799566
aI85807003
aS'+'
asS'BFAR'
p134
(lp135
I14632810
aI14669236
aS'+'
asS'CHTF18'
p136
(lp137
I788621
aI798074
aS'+'
asS'SH2B1'
p138
(lp139
I28846599
aI28874213
aS'+'
asS'NOL3'
p140
(lp141
I67170496
aI67175737
aS'+'
asS'HCCAT5'
p142
(lp143
I73092348
aI73093774
aS'+'
asS'CCDC113'
p144
(lp145
I58196862
aI58283836
aS'+'
asS'METTL22'
p146
(lp147
I8621639
aI8673565
aS'+'
asS'MIR3935'
p148
(lp149
I56245519
aI56245623
aS'+'
asS'MGRN1'
p150
(lp151
I4616492
aI4690974
aS'+'
asS'NRN1L'
p152
(lp153
I67884877
aI67886368
aS'+'
asS'IRF8'
p154
(lp155
I85899167
aI85922606
aS'+'
asS'CHP2'
p156
(lp157
I23754626
aI23758951
aS'+'
asS'LOC105371191'
p158
(lp159
I32317045
aI32349365
aS'-'
asS'LOC105371195'
p160
(lp161
I35025591
aI35030234
aS'-'
asS'SYCE1L'
p162
(lp163
I77199451
aI77213079
aS'+'
asS'LOC105371197'
p164
(lp165
I35139496
aI35145951
aS'+'
asS'LOC105371199'
p166
(lp167
I35319030
aI35327711
aS'-'
asS'LOC105371198'
p168
(lp169
I35327466
aI35333893
aS'+'
asS'LINC00514'
p170
(lp171
I2989053
aI2994509
aS'+'
asS'LOC107984811'
p172
(lp173
I85935276
aI85936851
aS'-'
asS'LOC107984812'
p174
(lp175
I60745523
aI60759222
aS'-'
asS'LOC107984813'
p176
(lp177
I67560828
aI67566007
aS'-'
asS'LOC107984814'
p178
(lp179
I72664779
aI72752034
aS'+'
asS'LOC107984815'
p180
(lp181
I56037312
aI56040021
aS'-'
asS'LOC107984817'
p182
(lp183
I89831630
aI89835961
aS'+'
asS'LOC107984818'
p184
(lp185
I89836539
aI89838072
aS'-'
asS'LOC107984819'
p186
(lp187
I86769570
aI86771409
aS'+'
asS'LINC00273'
p188
(lp189
I34158584
aI34160036
aS'-'
asS'LOC106699570'
p190
(lp191
I66751751
aI66754743
aS'+'
asS'LOC101927863'
p192
(lp193
I89492402
aI89504467
aS'-'
asS'LOC105371289'
p194
(lp195
I57133494
aI57135459
aS'-'
asS'LOC390705'
p196
(lp197
I32289546
aI32289981
aS'-'
asS'LOC105371287'
p198
(lp199
I56708815
aI56724587
aS'+'
asS'LOC105371286'
p200
(lp201
I56708771
aI56730013
aS'-'
asS'LOC105371281'
p202
(lp203
I56062114
aI56076704
aS'-'
asS'TPSAB1'
p204
(lp205
I1240676
aI1242554
aS'+'
asS'LOC105371283'
p206
(lp207
I56524978
aI56528791
aS'-'
asS'LOC100129215'
p208
(lp209
I87693536
aI87696147
aS'-'
asS'RAB26'
p210
(lp211
I2148143
aI2154165
aS'+'
asS'GPT2'
p212
(lp213
I46884379
aI46931297
aS'+'
asS'CYB5B'
p214
(lp215
I69424594
aI69466264
aS'+'
asS'NTAN1'
p216
(lp217
I15037852
aI15056079
aS'-'
asS'LOC102723385'
p218
(lp219
I19062753
aI19067691
aS'-'
asS'NQO1'
p220
(lp221
I69709400
aI69726668
aS'-'
asS'ARL2BP'
p222
(lp223
I57245125
aI57253633
aS'+'
asS'LOC105371379'
p224
(lp225
I84927974
aI84943057
aS'+'
asS'LOC105371378'
p226
(lp227
I84784595
aI84800814
aS'+'
asS'LOC105371371'
p228
(lp229
I83931234
aI83951460
aS'+'
asS'LOC105371370'
p230
(lp231
I83816397
aI83832746
aS'+'
asS'LOC105371372'
p232
(lp233
I83929794
aI83931114
aS'-'
asS'LOC105371374'
p234
(lp235
I84459258
aI84468428
aS'-'
asS'LOC105371376'
p236
(lp237
I84642648
aI84650843
aS'-'
asS'C16orf92'
p238
(lp239
I30023333
aI30024702
aS'+'
asS'LOC102724163'
p240
(lp241
I83797235
aI83803976
aS'-'
asS'LOC105371177'
p242
(lp243
I32693683
aI32694570
aS'-'
asS'LOC105371174'
p244
(lp245
I32044692
aI32050933
aS'+'
asS'LOC105371173'
p246
(lp247
I31546697
aI31553569
aS'-'
asS'LINC00304'
p248
(lp249
I89159219
aI89163675
aS'+'
asS'CRISPLD2'
p250
(lp251
I84819980
aI84909510
aS'+'
asS'FAM92B'
p252
(lp253
I85098351
aI85112508
aS'-'
asS'TBL3'
p254
(lp255
I1972062
aI1978750
aS'+'
asS'THOC6'
p256
(lp257
I3024030
aI3027755
aS'+'
asS'LOC105371050'
p258
(lp259
I2456838
aI2460020
aS'-'
asS'LOC107984013'
p260
(lp261
I32627715
aI32636082
aS'+'
asS'ZNF843'
p262
(lp263
I31435563
aI31443027
aS'-'
asS'RHBDL1'
p264
(lp265
I675665
aI678268
aS'+'
asS'HSD3B7'
p266
(lp267
I30985188
aI30989152
aS'+'
asS'BEAN1-AS1'
p268
(lp269
I66469795
aI66476402
aS'-'
asS'OR2C1'
p270
(lp271
I3355888
aI3356924
aS'+'
asS'UQCRC2'
p272
(lp273
I21953063
aI21983660
aS'+'
asS'CLUAP1'
p274
(lp275
I3495561
aI3537236
aS'+'
asS'MIR940'
p276
(lp277
I2271746
aI2271840
aS'+'
asS'LOC105376749'
p278
(lp279
I14748176
aI14769985
aS'-'
asS'SMPD3'
p280
(lp281
I68358326
aI68448703
aS'-'
asS'LOC105376747'
p282
(lp283
I14734877
aI14743326
aS'-'
asS'KCNG4'
p284
(lp285
I84221134
aI84239750
aS'-'
asS'NPIPB15'
p286
(lp287
I74374985
aI74392115
aS'+'
asS'NPIPB11'
p288
(lp289
I29381317
aI29403802
aS'-'
asS'ZNF597'
p290
(lp291
I3432421
aI3443537
aS'-'
asS'ZNF598'
p292
(lp293
I1997651
aI2009821
aS'-'
asS'LOC105369266'
p294
(lp295
I33329443
aI33331176
aS'-'
asS'NUDT7'
p296
(lp297
I77722487
aI77742260
aS'+'
asS'TK2'
p298
(lp299
I66508002
aI66550412
aS'-'
asS'LOC102724940'
p300
(lp301
I50880027
aI50884316
aS'+'
asS'CKLF'
p302
(lp303
I66552562
aI66566287
aS'+'
asS'NPW'
p304
(lp305
I2019519
aI2020755
aS'+'
asS'NUBP2'
p306
(lp307
I1782922
aI1789191
aS'+'
asS'GAS8'
p308
(lp309
I90019628
aI90044971
aS'+'
asS'NUBP1'
p310
(lp311
I10743163
aI10769351
aS'+'
asS'TMEM219'
p312
(lp313
I29962029
aI29973052
aS'+'
asS'LOC283887'
p314
(lp315
I25066886
aI25068955
aS'+'
asS'SHISA9'
p316
(lp317
I12901618
aI13563427
aS'+'
asS'NUTF2'
p318
(lp319
I67846731
aI67872567
aS'+'
asS'TMC5'
p320
(lp321
I19410538
aI19499113
aS'+'
asS'TMC7'
p322
(lp323
I18983933
aI19063942
aS'+'
asS'PRSS30P'
p324
(lp325
I2839572
aI2842751
aS'-'
asS'NFATC2IP'
p326
(lp327
I28950987
aI28967097
aS'+'
asS'LOC100129697'
p328
(lp329
I88940038
aI88951524
aS'+'
asS'CFAP20'
p330
(lp331
I58113587
aI58129425
aS'-'
asS'QPRT'
p332
(lp333
I29670587
aI29698699
aS'+'
asS'IFT140'
p334
(lp335
I1510426
aI1612108
aS'-'
asS'FAM157C'
p336
(lp337
I90102263
aI90177606
aS'+'
asS'LOC729652'
p338
(lp339
I2464949
aI2468213
aS'-'
asS'LOC105371131'
p340
(lp341
I22513904
aI22538879
aS'-'
asS'TRADD'
p342
(lp343
I67154184
aI67159909
aS'-'
asS'LOC162137'
p344
(lp345
I35022006
aI35022933
aS'+'
asS'MIR8058'
p346
(lp347
I82688930
aI82689019
aS'+'
asS'SEPHS2'
p348
(lp349
I30443624
aI30445975
aS'-'
asS'FOXL1'
p350
(lp351
I86578508
aI86581698
aS'+'
asS'ATXN2L'
p352
(lp353
I28823047
aI28837237
aS'+'
asS'LOC101929031'
p354
(lp355
I33562874
aI33571648
aS'-'
asS'LRRC36'
p356
(lp357
I67326843
aI67385206
aS'+'
asS'LOC400548'
p358
(lp359
I85137149
aI85149443
aS'+'
asS'PKD1P1'
p360
(lp361
I16317608
aI16350608
aS'+'
asS'LOC101928035'
p362
(lp363
I74192391
aI74215521
aS'-'
asS'TCEB2'
p364
(lp365
I2771413
aI2777296
aS'-'
asS'AGRP'
p366
(lp367
I67482570
aI67483813
aS'-'
asS'AXIN1'
p368
(lp369
I287439
aI355226
aS'-'
asS'CES1P2'
p370
(lp371
I55724924
aI55750211
aS'+'
asS'CES1P1'
p372
(lp373
I55760598
aI55774926
aS'+'
asS'ZNF213-AS1'
p374
(lp375
I3125528
aI3134882
aS'-'
asS'CFDP1'
p376
(lp377
I75293709
aI75433512
aS'-'
asS'ST3GAL2'
p378
(lp379
I70379434
aI70439088
aS'-'
asS'VASN'
p380
(lp381
I4371847
aI4383528
aS'+'
asS'GALNS'
p382
(lp383
I88813733
aI88856970
aS'-'
asS'SPATA33'
p384
(lp385
I89657743
aI89670458
aS'+'
asS'LOC107984806'
p386
(lp387
I79089562
aI79102022
aS'+'
asS'KATNB1'
p388
(lp389
I57735716
aI57757250
aS'+'
asS'LOC101927250'
p390
(lp391
I50100477
aI50106654
aS'-'
asS'ZSCAN32'
p392
(lp393
I3382080
aI3401065
aS'-'
asS'TUFM'
p394
(lp395
I28842786
aI28859562
aS'-'
asS'LOC107983970'
p396
(lp397
I30370113
aI30373126
aS'+'
asS'POLR3E'
p398
(lp399
I22297374
aI22335103
aS'+'
asS'POLR3K'
p400
(lp401
I46978
aI53632
aS'-'
asS'CPPED1'
p402
(lp403
I12659798
aI12803887
aS'-'
asS'CACNA1H'
p404
(lp405
I1153240
aI1221772
aS'+'
asS'ACSM1'
p406
(lp407
I20623236
aI20697788
aS'-'
asS'ACSM3'
p408
(lp409
I20763989
aI20797157
aS'+'
asS'ACSM5'
p410
(lp411
I20409533
aI20441333
aS'+'
asS'ATP6V0D1'
p412
(lp413
I67438013
aI67481186
aS'-'
asS'CLCN7'
p414
(lp415
I1444932
aI1475084
aS'-'
asS'LOC102723396'
p416
(lp417
I20220805
aI20232517
aS'-'
asS'RRN3P3'
p418
(lp419
I22419545
aI22437715
aS'-'
asS'BRD7'
p420
(lp421
I50317562
aI50368969
aS'-'
asS'CARHSP1'
p422
(lp423
I8852941
aI8869012
aS'-'
asS'KAT8'
p424
(lp425
I31117663
aI31131393
aS'+'
asS'DNAJA3'
p426
(lp427
I4425804
aI4456775
aS'+'
asS'LOC105371380'
p428
(lp429
I85079344
aI85081306
aS'-'
asS'LOC105371381'
p430
(lp431
I85119942
aI85124164
aS'-'
asS'LOC105371382'
p432
(lp433
I85142691
aI85168989
aS'-'
asS'GLG1'
p434
(lp435
I74447426
aI74607144
aS'-'
asS'LOC105371388'
p436
(lp437
I85945378
aI85949635
aS'+'
asS'LOC105371074'
p438
(lp439
I8962138
aI8967367
aS'+'
asS'LOC105371149'
p440
(lp441
I26269107
aI26270862
aS'-'
asS'LOC105371142'
p442
(lp443
I24236052
aI24252860
aS'+'
asS'LOC105371143'
p444
(lp445
I24465525
aI24495406
aS'-'
asS'LOC105371141'
p446
(lp447
I24100770
aI24109460
aS'-'
asS'LOC105371146'
p448
(lp449
I25418282
aI25433785
aS'-'
asS'LOC105371147'
p450
(lp451
I25495807
aI25503832
aS'+'
asS'LOC105371145'
p452
(lp453
I25072192
aI25081113
aS'-'
asS'C16orf74'
p454
(lp455
I85707516
aI85751083
aS'-'
asS'C16orf70'
p456
(lp457
I67109883
aI67148544
aS'+'
asS'C16orf71'
p458
(lp459
I4734287
aI4749396
aS'+'
asS'C16orf72'
p460
(lp461
I9091679
aI9119698
aS'+'
asS'GNAO1'
p462
(lp463
I56191338
aI56357444
aS'+'
asS'C16orf78'
p464
(lp465
I49373807
aI49399431
aS'+'
asS'MRPL28'
p466
(lp467
I367383
aI370569
aS'-'
asS'ZFP90'
p468
(lp469
I68539212
aI68576072
aS'+'
asS'MIR6769A'
p470
(lp471
I4671317
aI4671390
aS'+'
asS'CMIP'
p472
(lp473
I81445169
aI81711762
aS'+'
asS'NDRG4'
p474
(lp475
I58464821
aI58515403
aS'+'
asS'CX3CL1'
p476
(lp477
I57372460
aI57385048
aS'+'
asS'LOC105371079'
p478
(lp479
I10691169
aI10692971
aS'+'
asS'LOC100506281'
p480
(lp481
I75226382
aI75228203
aS'+'
asS'RPUSD1'
p482
(lp483
I784973
aI788383
aS'-'
asS'LOC101928557'
p484
(lp485
I85792414
aI85792933
aS'+'
asS'LOC101928556'
p486
(lp487
I29469559
aI29505481
aS'+'
asS'GINS2'
p488
(lp489
I85677673
aI85688982
aS'-'
asS'GINS3'
p490
(lp491
I58392393
aI58406144
aS'+'
asS'TNP2'
p492
(lp493
I11267856
aI11269303
aS'-'
asS'VAT1L'
p494
(lp495
I77788563
aI77980107
aS'+'
asS'MIR6511B2'
p496
(lp497
I15134074
aI15134145
aS'-'
asS'MIR6511B1'
p498
(lp499
I2106668
aI2106753
aS'-'
asS'LINC00254'
p500
(lp501
I1878284
aI1884231
aS'-'
asS'MSRB1'
p502
(lp503
I1938232
aI1943293
aS'-'
asS'LOC101929732'
p504
(lp505
I3542738
aI3559589
aS'+'
asS'RPS2'
p506
(lp507
I1962060
aI1964826
aS'-'
asS'ADAMTS18'
p508
(lp509
I77282127
aI77435114
aS'-'
asS'ATXN1L'
p510
(lp511
I71845990
aI71857333
aS'+'
asS'DEF8'
p512
(lp513
I89948696
aI89968060
aS'+'
asS'CBLN1'
p514
(lp515
I49277916
aI49281831
aS'-'
asS'SLC7A6OS'
p516
(lp517
I68300614
aI68310965
aS'-'
asS'TMEM208'
p518
(lp519
I67227112
aI67229279
aS'+'
asS'FLYWCH2'
p520
(lp521
I2882890
aI2899365
aS'+'
asS'LCAT'
p522
(lp523
I67939883
aI67944112
aS'-'
asS'SRL'
p524
(lp525
I4189373
aI4242253
aS'-'
asS'ENKD1'
p526
(lp527
I67662946
aI67666725
aS'-'
asS'LOC102723728'
p528
(lp529
I18417324
aI18434790
aS'-'
asS'LOC101928737'
p530
(lp531
I87494186
aI87515630
aS'+'
asS'NIP7'
p532
(lp533
I69339511
aI69343111
aS'+'
asS'TMEM159'
p534
(lp535
I21158348
aI21180616
aS'+'
asS'LRRC29'
p536
(lp537
I67207138
aI67227062
aS'-'
asS'EMC8'
p538
(lp539
I85778623
aI85799542
aS'-'
asS'LPCAT2'
p540
(lp541
I55509000
aI55586670
aS'+'
asS'PYCARD-AS1'
p542
(lp543
I31201884
aI31203452
aS'+'
asS'LOC101929280'
p544
(lp545
I594996
aI597964
aS'+'
asS'FBXO31'
p546
(lp547
I87326986
aI87392107
aS'-'
asS'MIR548W'
p548
(lp549
I26025236
aI26025310
aS'+'
asS'HPR'
p550
(lp551
I72063225
aI72077246
aS'+'
asS'PIEZO1'
p552
(lp553
I88715337
aI88785220
aS'-'
asS'PIGQ'
p554
(lp555
I569967
aI584136
aS'+'
asS'LOC102725168'
p556
(lp557
I71326135
aI71328977
aS'+'
asS'SRRM2'
p558
(lp559
I2752328
aI2771412
aS'+'
asS'MIR8065'
p560
(lp561
I5632466
aI5632566
aS'+'
asS'MT1IP'
p562
(lp563
I56676115
aI56677877
aS'+'
asS'MIR193B'
p564
(lp565
I14303966
aI14304049
aS'+'
asS'LOC107984839'
p566
(lp567
I2251597
aI2253223
aS'+'
asS'LOC107984836'
p568
(lp569
I29926274
aI29928699
aS'+'
asS'LOC107984837'
p570
(lp571
I29799731
aI29802762
aS'-'
asS'LOC107984834'
p572
(lp573
I30183392
aI30185202
aS'-'
asS'LOC107984835'
p574
(lp575
I28612644
aI28615572
aS'+'
asS'LOC107984832'
p576
(lp577
I29154295
aI29220856
aS'+'
asS'LOC107984833'
p578
(lp579
I29289364
aI29290955
aS'+'
asS'LOC107984830'
p580
(lp581
I85300272
aI85309526
aS'+'
asS'LOC107984831'
p582
(lp583
I20610177
aI20618617
aS'+'
asS'MIR4517'
p584
(lp585
I28958582
aI28958661
aS'+'
asS'MIR4516'
p586
(lp587
I2133118
aI2133204
aS'+'
asS'MIR4519'
p588
(lp589
I30875265
aI30875323
aS'-'
asS'MIR4518'
p590
(lp591
I30503918
aI30504001
aS'+'
asS'CIAPIN1'
p592
(lp593
I57428168
aI57447528
aS'-'
asS'PLLP'
p594
(lp595
I57256096
aI57284672
aS'-'
asS'EIF3CL'
p596
(lp597
I28379580
aI28403885
aS'-'
asS'MIR3176'
p598
(lp599
I543276
aI543366
aS'+'
asS'MIR3177'
p600
(lp601
I1734984
aI1735066
aS'+'
asS'MIR3178'
p602
(lp603
I2531921
aI2532005
aS'-'
asS'HSDL1'
p604
(lp605
I84122138
aI84145195
aS'-'
asS'MLYCD'
p606
(lp607
I83899124
aI83916182
aS'+'
asS'SOCS1'
p608
(lp609
I11254416
aI11256182
aS'-'
asS'MBTPS1'
p610
(lp611
I84053760
aI84116943
aS'-'
asS'LOC107984902'
p612
(lp613
I35023257
aI35026752
aS'+'
asS'LOC107984903'
p614
(lp615
I51027283
aI51038084
aS'-'
asS'TAT-AS1'
p616
(lp617
I71565015
aI71572438
aS'+'
asS'LOC107984901'
p618
(lp619
I52297006
aI52383793
aS'-'
asS'LOC107984906'
p620
(lp621
I1111647
aI1113895
aS'+'
asS'WDR59'
p622
(lp623
I74873567
aI74985123
aS'-'
asS'LOC107984905'
p624
(lp625
I88539974
aI88548859
aS'+'
asS'TERF2'
p626
(lp627
I69355566
aI69386004
aS'-'
asS'CCNF'
p628
(lp629
I2425437
aI2458710
aS'+'
asS'CHTF8'
p630
(lp631
I69118008
aI69132590
aS'-'
asS'LOC101927605'
p632
(lp633
I60359781
aI60547255
aS'+'
asS'HP'
p634
(lp635
I72054591
aI72061056
aS'+'
asS'MIR4718'
p636
(lp637
I12720320
aI12720371
aS'+'
asS'LOC101927026'
p638
(lp639
I9286356
aI9657270
aS'+'
asS'KREMEN2'
p640
(lp641
I2964215
aI2968383
aS'+'
asS'THAP11'
p642
(lp643
I67842309
aI67844195
aS'+'
asS'LUC7L'
p644
(lp645
I188968
aI229482
aS'-'
asS'LOC105371397'
p646
(lp647
I87700831
aI87703017
aS'-'
asS'LOC105371394'
p648
(lp649
I87117515
aI87121020
aS'+'
asS'LOC105371393'
p650
(lp651
I86845345
aI87057730
aS'-'
asS'LOC105371392'
p652
(lp653
I86761532
aI86763965
aS'-'
asS'CHD9'
p654
(lp655
I53054990
aI53327502
aS'+'
asS'MIR140'
p656
(lp657
I69933080
aI69933180
aS'+'
asS'LOC105371399'
p658
(lp659
I87766255
aI87775389
aS'+'
asS'LOC105371155'
p660
(lp661
I27151309
aI27153864
aS'-'
asS'LOC105371154'
p662
(lp663
I27061983
aI27062737
aS'-'
asS'LOC105371157'
p664
(lp665
I27746071
aI27748279
aS'-'
asS'LOC105371156'
p666
(lp667
I27158450
aI27176587
aS'-'
asS'LOC105371150'
p668
(lp669
I26280442
aI26282895
aS'-'
asS'LOC105371153'
p670
(lp671
I27044074
aI27048445
aS'-'
asS'LOC105371152'
p672
(lp673
I26584754
aI26595452
aS'-'
asS'LOC107983964'
p674
(lp675
I50884441
aI50901061
aS'+'
asS'LOC105371159'
p676
(lp677
I29286211
aI29297545
aS'-'
asS'FLYWCH1'
p678
(lp679
I2911978
aI2951208
aS'+'
asS'IL4R'
p680
(lp681
I27313667
aI27364778
aS'+'
asS'LOC102724632'
p682
(lp683
I88903682
aI88908255
aS'+'
asS'LCMT1-AS2'
p684
(lp685
I25140570
aI25149032
aS'-'
asS'LCMT1-AS1'
p686
(lp687
I25100563
aI25111555
aS'-'
asS'RNF40'
p688
(lp689
I30762270
aI30800231
aS'+'
asS'MIR3179-2'
p690
(lp691
I16300158
aI16300242
aS'+'
asS'MIR3179-3'
p692
(lp693
I18411893
aI18411977
aS'-'
asS'ZNF821'
p694
(lp695
I71859679
aI71886224
aS'-'
asS'POLR2C'
p696
(lp697
I57462638
aI57472009
aS'+'
asS'SNORA78'
p698
(lp699
I1965183
aI1965310
aS'+'
asS'LOC101927334'
p700
(lp701
I51017757
aI51035777
aS'+'
asS'LINC00920'
p702
(lp703
I66408523
aI66410901
aS'+'
asS'LINC00921'
p704
(lp705
I3263767
aI3267567
aS'+'
asS'MPG'
p706
(lp707
I77018
aI85851
aS'+'
asS'SLC22A31'
p708
(lp709
I89195755
aI89201674
aS'-'
asS'CYBA'
p710
(lp711
I88643288
aI88651084
aS'-'
asS'CASKIN1'
p712
(lp713
I2177182
aI2196464
aS'-'
asS'LOC101930131'
p714
(lp715
I90138043
aI90139869
aS'+'
asS'MIR1273H'
p716
(lp717
I24203115
aI24203231
aS'+'
asS'SSTR5-AS1'
p718
(lp719
I1064080
aI1078731
aS'-'
asS'HBA2'
p720
(lp721
I172846
aI173710
aS'+'
asS'OGFOD1'
p722
(lp723
I56451479
aI56477495
aS'+'
asS'ZNF629'
p724
(lp725
I30778455
aI30787322
aS'-'
asS'MIR6511A3'
p726
(lp727
I16368875
aI16368942
aS'+'
asS'MIR6511A2'
p728
(lp729
I16324587
aI16324654
aS'+'
asS'MIR6511A1'
p730
(lp731
I14925936
aI14926003
aS'+'
asS'MIR6511A4'
p732
(lp733
I18344012
aI18344079
aS'-'
asS'SIAH1'
p734
(lp735
I48360530
aI48448440
aS'-'
asS'PDILT'
p736
(lp737
I20359169
aI20404711
aS'-'
asS'CTRB2'
p738
(lp739
I75204095
aI75207174
aS'-'
asS'AMFR'
p740
(lp741
I56361451
aI56425538
aS'-'
asS'CTRB1'
p742
(lp743
I75218985
aI75224924
aS'+'
asS'TSNAXIP1'
p744
(lp745
I67806572
aI67828068
aS'+'
asS'FHOD1'
p746
(lp747
I67229388
aI67247522
aS'-'
asS'ITFG1'
p748
(lp749
I47154386
aI47461274
aS'-'
asS'PKD1'
p750
(lp751
I2088709
aI2135898
aS'-'
asS'IGFALS'
p752
(lp753
I1790412
aI1794908
aS'-'
asS'PRM1'
p754
(lp755
I11280835
aI11281335
aS'-'
asS'PRM3'
p756
(lp757
I11273198
aI11273595
aS'-'
asS'PRM2'
p758
(lp759
I11275635
aI11276480
aS'-'
asS'DECR2'
p760
(lp761
I401857
aI412487
aS'+'
asS'TMEM231'
p762
(lp763
I75538116
aI75556286
aS'-'
asS'SPG7'
p764
(lp765
I89508378
aI89557762
aS'+'
asS'ZNF319'
p766
(lp767
I57994669
aI58000691
aS'-'
asS'RPL3L'
p768
(lp769
I1944570
aI1955123
aS'-'
asS'RMI2'
p770
(lp771
I11345437
aI11351763
aS'+'
asS'CORO7'
p772
(lp773
I4354541
aI4416961
aS'-'
asS'CTU2'
p774
(lp775
I88706462
aI88715386
aS'+'
asS'LOC101928230'
p776
(lp777
I79601251
aI79612513
aS'+'
asS'LOC101928582'
p778
(lp779
I86196418
aI86201825
aS'-'
asS'HSD11B2'
p780
(lp781
I67431132
aI67437553
aS'+'
asS'DKFZP434H168'
p782
(lp783
I56192616
aI56194525
aS'-'
asS'LOC107984137'
p784
(lp785
I13246237
aI13317389
aS'+'
asS'MIR4722'
p786
(lp787
I88716277
aI88716337
aS'-'
asS'MIR4720'
p788
(lp789
I81385017
aI81385093
aS'+'
asS'MIR4721'
p790
(lp791
I28843918
aI28844007
aS'-'
asS'CALB2'
p792
(lp793
I71358712
aI71390438
aS'+'
asS'CRYM'
p794
(lp795
I21258517
aI21303136
aS'-'
asS'TVP23A'
p796
(lp797
I10758033
aI10818902
aS'-'
asS'ABCC12'
p798
(lp799
I48082972
aI48146770
aS'-'
asS'ABCC11'
p800
(lp801
I48164841
aI48249973
aS'-'
asS'GRIN2A'
p802
(lp803
I9753419
aI10183364
aS'-'
asS'TBC1D10B'
p804
(lp805
I30357101
aI30370258
aS'-'
asS'ZCCHC14'
p806
(lp807
I87406247
aI87492045
aS'-'
asS'ANKS4B'
p808
(lp809
I21233694
aI21252429
aS'+'
asS'EEF2K'
p810
(lp811
I22206263
aI22288738
aS'+'
asS'SMG1'
p812
(lp813
I18804857
aI18926417
aS'-'
asS'RAB11FIP3'
p814
(lp815
I425632
aI522485
aS'+'
asS'SLC38A7'
p816
(lp817
I58665108
aI58684777
aS'-'
asS'SLC38A8'
p818
(lp819
I84009666
aI84043372
aS'-'
asS'LOC107984828'
p820
(lp821
I5115279
aI5118128
aS'+'
asS'TGFB1I1'
p822
(lp823
I31472154
aI31477960
aS'+'
asS'LOC107984821'
p824
(lp825
I66898721
aI66905842
aS'-'
asS'LOC107984820'
p826
(lp827
I66483054
aI66486282
aS'-'
asS'LOC107984823'
p828
(lp829
I65810039
aI65812778
aS'-'
asS'LOC107984822'
p830
(lp831
I64749790
aI64754593
aS'-'
asS'LOC107984825'
p832
(lp833
I24826729
aI24832735
aS'+'
asS'LOC107984824'
p834
(lp835
I59404809
aI59412443
aS'-'
asS'LOC107984827'
p836
(lp837
I74422119
aI74435426
aS'+'
asS'LOC107984826'
p838
(lp839
I24916478
aI24919493
aS'+'
asS'LINC01082'
p840
(lp841
I86196180
aI86199720
aS'+'
asS'LINC01081'
p842
(lp843
I86225579
aI86286247
aS'-'
asS'VPS9D1-AS1'
p844
(lp845
I89711855
aI89718165
aS'+'
asS'LOC107983961'
p846
(lp847
I52271429
aI52274151
aS'+'
asS'SNRNP25'
p848
(lp849
I53828
aI57669
aS'+'
asS'LOC101929989'
p850
(lp851
I8882316
aI8892284
aS'+'
asS'ZSCAN10'
p852
(lp853
I3088889
aI3099317
aS'-'
asS'GAS8-AS1'
p854
(lp855
I90028907
aI90029901
aS'-'
asS'LOC730183'
p856
(lp857
I30697703
aI30698489
aS'-'
asS'LINC00922'
p858
(lp859
I65284498
aI65576300
aS'-'
asS'TANGO6'
p860
(lp861
I68843605
aI69085182
aS'+'
asS'MIR3182'
p862
(lp863
I83508345
aI83508408
aS'+'
asS'MIR3181'
p864
(lp865
I50742304
aI50742377
aS'+'
asS'C16orf62'
p866
(lp867
I19555414
aI19701163
aS'+'
asS'LOC101927580'
p868
(lp869
I59855352
aI60053973
aS'+'
asS'ANKS3'
p870
(lp871
I4696509
aI4734377
aS'-'
asS'TBC1D24'
p872
(lp873
I2475103
aI2509669
aS'+'
asS'CCL22'
p874
(lp875
I57357908
aI57366190
aS'+'
asS'MT1JP'
p876
(lp877
I56635738
aI56637086
aS'+'
asS'NMRAL1'
p878
(lp879
I4461691
aI4476320
aS'-'
asS'CENPBD1'
p880
(lp881
I89969774
aI89972832
aS'-'
asS'LOC101929440'
p882
(lp883
I1408281
aI1412251
aS'+'
asS'LOC105371120'
p884
(lp885
I20578720
aI20583656
aS'+'
asS'LOC105371121'
p886
(lp887
I20830578
aI20839811
aS'-'
asS'LOC105371123'
p888
(lp889
I21227150
aI21233716
aS'-'
asS'LOC105371124'
p890
(lp891
I21252990
aI21277424
aS'+'
asS'LOC105371125'
p892
(lp893
I21290469
aI21294354
aS'+'
asS'LOC105371126'
p894
(lp895
I21762984
aI21793090
aS'-'
asS'LOC105371129'
p896
(lp897
I22085756
aI22092434
aS'-'
asS'CD19'
p898
(lp899
I28931734
aI28939347
aS'+'
asS'DYNC1LI2'
p900
(lp901
I66720892
aI66751828
aS'-'
asS'WFDC1'
p902
(lp903
I84294705
aI84329851
aS'+'
asS'LINC00919'
p904
(lp905
I52083064
aI52085109
aS'-'
asS'SNORA64'
p906
(lp907
I1962972
aI1963106
aS'-'
asS'CDIPT'
p908
(lp909
I29858355
aI29863288
aS'-'
asS'PTX4'
p910
(lp911
I1485938
aI1488467
aS'-'
asS'LOC105371238'
p912
(lp913
I47965650
aI47971687
aS'+'
asS'LOC105371236'
p914
(lp915
I47744169
aI47753898
aS'-'
asS'RNF151'
p916
(lp917
I1966638
aI1968963
aS'+'
asS'CTF1'
p918
(lp919
I30895823
aI30903551
aS'+'
asS'SPNS1'
p920
(lp921
I28974766
aI28984769
aS'+'
asS'IL21R'
p922
(lp923
I27402161
aI27452045
aS'+'
asS'UBFD1'
p924
(lp925
I23557534
aI23574393
aS'+'
asS'C16orf58'
p926
(lp927
I31489474
aI31508419
aS'-'
asS'C16orf59'
p928
(lp929
I2460110
aI2464963
aS'+'
asS'C16orf52'
p930
(lp931
I22008134
aI22084654
aS'+'
asS'CMTR2'
p932
(lp933
I71282299
aI71290178
aS'-'
asS'CDIP1'
p934
(lp935
I4510674
aI4538815
aS'-'
asS'FLJ42627'
p936
(lp937
I2638981
aI2646129
aS'+'
asS'WASIR2'
p938
(lp939
I22915
aI25114
aS'+'
asS'LOC105369213'
p940
(lp941
I81739026
aI81777351
aS'+'
asS'ABAT'
p942
(lp943
I8674586
aI8784575
aS'+'
asS'PLCG2'
p944
(lp945
I81779257
aI81962693
aS'+'
asS'MLKL'
p946
(lp947
I74671854
aI74701187
aS'-'
asS'MIR6859-4'
p948
(lp949
I17051
aI17119
aS'-'
asS'HERPUD1'
p950
(lp951
I56932089
aI56943881
aS'+'
asS'CDK10'
p952
(lp953
I89686611
aI89696354
aS'+'
asS'LOC283856'
p954
(lp955
I56092986
aI56191094
aS'-'
asS'N4BP1'
p956
(lp957
I48538725
aI48610214
aS'-'
asS'MTRNR2L4'
p958
(lp959
I3371052
aI3372283
aS'-'
asS'HEATR3'
p960
(lp961
I50065981
aI50107268
aS'+'
asS'MMP25'
p962
(lp963
I3046680
aI3060726
aS'+'
asS'TP53TG3'
p964
(lp965
I32673527
aI32678621
aS'-'
asS'LOC101928595'
p966
(lp967
I30096429
aI30105456
aS'+'
asS'MIR3179-1'
p968
(lp969
I14901507
aI14901591
aS'+'
asS'TPSD1'
p970
(lp971
I1256271
aI1258493
aS'+'
asS'LOC100288162'
p972
(lp973
I14925749
aI14927283
aS'-'
asS'DEXI'
p974
(lp975
I10928890
aI10943007
aS'-'
asS'LOC101928659'
p976
(lp977
I87317508
aI87318043
aS'+'
asS'DCTPP1'
p978
(lp979
I30423697
aI30430052
aS'-'
asS'SLX1A'
p980
(lp981
I30193842
aI30197566
aS'+'
asS'EIF3C'
p982
(lp983
I28688557
aI28735730
aS'+'
asS'B3GNT9'
p984
(lp985
I67148101
aI67150999
aS'-'
asS'LOC102723692'
p986
(lp987
I17134503
aI17138732
aS'+'
asS'NOMO2'
p988
(lp989
I18499923
aI18562112
aS'-'
asS'NOMO3'
p990
(lp991
I16232531
aI16294811
aS'+'
asS'NOMO1'
p992
(lp993
I14833785
aI14896157
aS'+'
asS'MIR3179-4'
p994
(lp995
I18494492
aI18494576
aS'-'
asS'FOXC2-AS1'
p996
(lp997
I86565144
aI86567761
aS'-'
asS'CCDC154'
p998
(lp999
I1434387
aI1444489
aS'-'
asS'SNAI3'
p1000
(lp1001
I88677681
aI88686474
aS'-'
asS'LOC146513'
p1002
(lp1003
I86286430
aI86293389
aS'+'
asS'FA2H'
p1004
(lp1005
I74712954
aI74774831
aS'-'
asS'CD2BP2'
p1006
(lp1007
I30350765
aI30355361
aS'-'
asS'NFATC3'
p1008
(lp1009
I68085365
aI68229259
aS'+'
asS'BBS2'
p1010
(lp1011
I56470402
aI56520095
aS'-'
asS'BCKDK'
p1012
(lp1013
I31108380
aI31117651
aS'+'
asS'EXOSC6'
p1014
(lp1015
I70250230
aI70251930
aS'-'
asS'HSBP1'
p1016
(lp1017
I83807902
aI83813002
aS'+'
asS'GFER'
p1018
(lp1019
I1984148
aI1987749
aS'+'
asS'LINC00235'
p1020
(lp1021
I526846
aI527407
aS'-'
asS'DRC7'
p1022
(lp1023
I57694800
aI57731455
aS'+'
asS'LOC101927132'
p1024
(lp1025
I47858580
aI47908431
aS'+'
asS'LOC101927131'
p1026
(lp1027
I11465259
aI11473175
aS'+'
asS'KIAA0895L'
p1028
(lp1029
I67175601
aI67183980
aS'-'
asS'MIR1910'
p1030
(lp1031
I85741620
aI85741700
aS'-'
asS'LOC102724344'
p1032
(lp1033
I86722090
aI86737826
aS'+'
asS'LOC105371389'
p1034
(lp1035
I86047827
aI86049340
aS'-'
asS'FBRS'
p1036
(lp1037
I30658141
aI30670810
aS'+'
asS'EME2'
p1038
(lp1039
I1773221
aI1776714
aS'+'
asS'CREBBP'
p1040
(lp1041
I3725065
aI3880727
aS'-'
asS'LOC101927629'
p1042
(lp1043
I63730219
aI63755921
aS'+'
asS'PSMB10'
p1044
(lp1045
I67934503
aI67936877
aS'-'
asS'LOC101927556'
p1046
(lp1047
I58129468
aI58163287
aS'+'
asS'TIGD7'
p1048
(lp1049
I3298807
aI3305439
aS'-'
asS'GSG1L'
p1050
(lp1051
I27787528
aI28063509
aS'-'
asS'VKORC1'
p1052
(lp1053
I31090841
aI31094999
aS'-'
asS'LOC105371280'
p1054
(lp1055
I55714265
aI55721836
aS'-'
asS'LOC105371132'
p1056
(lp1057
I22577446
aI22608063
aS'-'
asS'AMDHD2'
p1058
(lp1059
I2520350
aI2531414
aS'+'
asS'FANCA'
p1060
(lp1061
I89737550
aI89816657
aS'-'
asS'HAS3'
p1062
(lp1063
I69106225
aI69118719
aS'+'
asS'CA5A'
p1064
(lp1065
I87888018
aI87936506
aS'-'
asS'ATP2A1-AS1'
p1066
(lp1067
I28878956
aI28879921
aS'-'
asS'LOC81691'
p1068
(lp1069
I20806428
aI20849668
aS'+'
asS'PDF'
p1070
(lp1071
I69328620
aI69330595
aS'-'
asS'LOC101927311'
p1072
(lp1073
I14009275
aI14016018
aS'-'
asS'TAOK2'
p1074
(lp1075
I29973640
aI29992261
aS'+'
asS'FAM65A'
p1076
(lp1077
I67528813
aI67546788
aS'+'
asS'NSMCE1'
p1078
(lp1079
I27224993
aI27268810
aS'-'
asS'SF3B3'
p1080
(lp1081
I70523787
aI70577668
aS'+'
asS'AFG3L1P'
p1082
(lp1083
I89972579
aI90000787
aS'+'
asS'ARHGDIG'
p1084
(lp1085
I280605
aI283003
aS'+'
asS'NARFL'
p1086
(lp1087
I729752
aI741038
aS'-'
asS'C16orf45'
p1088
(lp1089
I15434488
aI15594521
aS'+'
asS'C16orf47'
p1090
(lp1091
I73125864
aI73812449
aS'-'
asS'C16orf46'
p1092
(lp1093
I81053496
aI81077267
aS'-'
asS'MIR6126'
p1094
(lp1095
I3485380
aI3485469
aS'-'
asS'PRKCB'
p1096
(lp1097
I23835978
aI24220611
aS'+'
asS'LOC102724907'
p1098
(lp1099
I50734301
aI50742869
aS'-'
asS'CES1'
p1100
(lp1101
I55802850
aI55833186
aS'-'
asS'CES3'
p1102
(lp1103
I66961228
aI66975149
aS'+'
asS'CES2'
p1104
(lp1105
I66934443
aI66945096
aS'+'
asS'HBA1'
p1106
(lp1107
I176650
aI177522
aS'+'
asS'MIR1225'
p1108
(lp1109
I2090194
aI2090284
aS'-'
asS'KDM8'
p1110
(lp1111
I27203476
aI27222305
aS'+'
asS'CKLF-CMTM1'
p1112
(lp1113
I66552562
aI66579135
aS'+'
asS'DDX28'
p1114
(lp1115
I68021273
aI68023867
aS'-'
asS'GGA2'
p1116
(lp1117
I23463541
aI23510494
aS'-'
asS'GPR139'
p1118
(lp1119
I20031484
aI20073778
aS'-'
asS'WWP2'
p1120
(lp1121
I69762283
aI69941741
aS'+'
asS'MIR5587'
p1122
(lp1123
I535315
aI535368
aS'+'
asS'PHLPP2'
p1124
(lp1125
I71644923
aI71724701
aS'-'
asS'CNGB1'
p1126
(lp1127
I57882339
aI57971116
aS'-'
asS'PARD6A'
p1128
(lp1129
I67660947
aI67662778
aS'+'
asS'TPSG1'
p1130
(lp1131
I1221661
aI1226454
aS'-'
asS'MARVELD3'
p1132
(lp1133
I71626152
aI71641965
aS'+'
asS'LOC101928215'
p1134
(lp1135
I29104509
aI29109211
aS'-'
asS'ZNF205'
p1136
(lp1137
I3112561
aI3120517
aS'+'
asS'ZNF200'
p1138
(lp1139
I3222324
aI3236235
aS'-'
asS'LOC440346'
p1140
(lp1141
I22374466
aI22376273
aS'+'
asS'CCDC78'
p1142
(lp1143
I722585
aI726880
aS'-'
asS'RPL13'
p1144
(lp1145
I89560656
aI89566829
aS'+'
asS'SETD6'
p1146
(lp1147
I58515487
aI58521961
aS'+'
asS'NME4'
p1148
(lp1149
I396754
aI400754
aS'+'
asS'NME3'
p1150
(lp1151
I1770319
aI1771750
aS'-'
asS'PRSS27'
p1152
(lp1153
I2712417
aI2720551
aS'-'
asS'PRSS21'
p1154
(lp1155
I2817162
aI2821722
aS'+'
asS'PRSS22'
p1156
(lp1157
I2852728
aI2858630
aS'-'
asS'MIR6770-2'
p1158
(lp1159
I16329304
aI16329364
aS'+'
asS'MIR6770-3'
p1160
(lp1161
I18379350
aI18379410
aS'-'
asS'MIR6770-1'
p1162
(lp1163
I14930819
aI14930879
aS'+'
asS'LOC107984138'
p1164
(lp1165
I70226338
aI70246610
aS'-'
asS'GLYR1'
p1166
(lp1167
I4803202
aI4847388
aS'-'
asS'SNORD111'
p1168
(lp1169
I70538004
aI70538098
aS'+'
asS'SMG1P6'
p1170
(lp1171
I29425410
aI29447026
aS'-'
asS'SMG1P7'
p1172
(lp1173
I70219580
aI70226033
aS'-'
asS'SMG1P5'
p1174
(lp1175
I30285017
aI30335374
aS'-'
asS'SMG1P2'
p1176
(lp1177
I29545010
aI29613717
aS'-'
asS'SMG1P3'
p1178
(lp1179
I21446682
aI21502281
aS'-'
asS'SMG1P1'
p1180
(lp1181
I22437007
aI22492220
aS'+'
asS'TEKT5'
p1182
(lp1183
I10624356
aI10742416
aS'-'
asS'PDPR'
p1184
(lp1185
I70113865
aI70163630
aS'+'
asS'LOC101929894'
p1186
(lp1187
I30209138
aI30245462
aS'+'
asS'GFOD2'
p1188
(lp1189
I67674532
aI67719370
aS'-'
asS'PDP2'
p1190
(lp1191
I66880396
aI66891101
aS'+'
asS'CCP110'
p1192
(lp1193
I19523856
aI19553408
aS'+'
asS'UBE2I'
p1194
(lp1195
I1309152
aI1327018
aS'+'
asS'PALB2'
p1196
(lp1197
I23603161
aI23641357
aS'-'
asS'LOC101927837'
p1198
(lp1199
I67481318
aI67505977
aS'+'
asS'STX1B'
p1200
(lp1201
I30989255
aI31010638
aS'-'
asS'RPS15A'
p1202
(lp1203
I18782954
aI18790334
aS'-'
asS'CLEC18A'
p1204
(lp1205
I69950232
aI69968478
aS'+'
asS'CLEC18C'
p1206
(lp1207
I70173321
aI70187147
aS'+'
asS'CLEC18B'
p1208
(lp1209
I74408630
aI74422248
aS'-'
asS'LOC105371036'
p1210
(lp1211
I383089
aI396820
aS'-'
asS'LOC105371271'
p1212
(lp1213
I54052917
aI54057437
aS'+'
asS'LOC105371038'
p1214
(lp1215
I648457
aI649313
aS'-'
asS'SDR42E2'
p1216
(lp1217
I22162530
aI22190444
aS'+'
asS'SDR42E1'
p1218
(lp1219
I81988854
aI82011465
aS'-'
asS'CBFB'
p1220
(lp1221
I67029146
aI67101058
aS'+'
asS'RABEP2'
p1222
(lp1223
I28904420
aI28925211
aS'-'
asS'MIR662'
p1224
(lp1225
I770182
aI770277
aS'+'
asS'CDH1'
p1226
(lp1227
I68737289
aI68835542
aS'+'
asS'SALL1'
p1228
(lp1229
I51135974
aI51152386
aS'-'
asS'VPS4A'
p1230
(lp1231
I69311383
aI69325043
aS'+'
asS'LOC102724485'
p1232
(lp1233
I34351498
aI34381482
aS'-'
asS'LOC105371108'
p1234
(lp1235
I18092585
aI18102496
aS'+'
asS'LOC105371106'
p1236
(lp1237
I17471006
aI17483897
aS'-'
asS'LOC105371105'
p1238
(lp1239
I16455616
aI16473680
aS'+'
asS'LOC105371102'
p1240
(lp1241
I15504719
aI15521030
aS'-'
asS'LOC105371103'
p1242
(lp1243
I15359068
aI15380936
aS'+'
asS'LOC105371100'
p1244
(lp1245
I16208596
aI16218398
aS'+'
asS'SNORA46'
p1246
(lp1247
I58548498
aI58548633
aS'-'
asS'LOC102724467'
p1248
(lp1249
I87766330
aI87779148
aS'-'
asS'ROGDI'
p1250
(lp1251
I4796961
aI4802950
aS'-'
asS'TXNL4B'
p1252
(lp1253
I72044260
aI72093656
aS'-'
asS'ANKRD11'
p1254
(lp1255
I89267620
aI89490561
aS'-'
asS'LOC102724062'
p1256
(lp1257
I32600366
aI32626108
aS'+'
asS'NPIPB5'
p1258
(lp1259
I22513522
aI22536521
aS'+'
asS'NPIPB4'
p1260
(lp1261
I21834567
aI21859614
aS'-'
asS'NPIPB6'
p1262
(lp1263
I28342521
aI28364971
aS'-'
asS'NPIPB9'
p1264
(lp1265
I28735499
aI28772818
aS'+'
asS'NPIPB8'
p1266
(lp1267
I28638064
aI28658693
aS'+'
asS'LOC105369183'
p1268
(lp1269
I33965064
aI33975499
aS'-'
asS'LOC105369182'
p1270
(lp1271
I28341323
aI28366318
aS'-'
asS'LOC102723373'
p1272
(lp1273
I53373492
aI53384259
aS'+'
asS'COQ9'
p1274
(lp1275
I57447424
aI57461275
aS'+'
asS'COQ7'
p1276
(lp1277
I19067594
aI19083097
aS'+'
asS'HBM'
p1278
(lp1279
I165973
aI166768
aS'+'
asS'CTRL'
p1280
(lp1281
I67929569
aI67931875
aS'-'
asS'PARN'
p1282
(lp1283
I14435699
aI14630271
aS'-'
asS'PKMYT1'
p1284
(lp1285
I2972790
aI2980539
aS'-'
asS'LOC101928682'
p1286
(lp1287
I87271905
aI87292452
aS'-'
asS'IL21R-AS1'
p1288
(lp1289
I27447668
aI27453393
aS'-'
asS'HBZ'
p1290
(lp1291
I142421
aI154511
aS'+'
asS'LOC101928446'
p1292
(lp1293
I82773318
aI82829638
aS'+'
asS'CCDC102A'
p1294
(lp1295
I57512177
aI57538305
aS'-'
asS'NHLRC4'
p1296
(lp1297
I566994
aI569495
aS'+'
asS'NDUFB10'
p1298
(lp1299
I1959515
aI1961975
aS'+'
asS'GSE1'
p1300
(lp1301
I85169676
aI85676200
aS'+'
asS'ZNF785'
p1302
(lp1303
I30573218
aI30586038
aS'-'
asS'GOT2'
p1304
(lp1305
I58707130
aI58734357
aS'-'
asS'BRICD5'
p1306
(lp1307
I2209252
aI2213037
aS'-'
asS'SEC14L5'
p1308
(lp1309
I4958316
aI5019155
aS'+'
asS'SMIM22'
p1310
(lp1311
I4788396
aI4796491
aS'+'
asS'FBXL8'
p1312
(lp1313
I67159987
aI67164174
aS'+'
asS'LOC102723560'
p1314
(lp1315
I62725617
aI62835702
aS'+'
asS'LOC101928203'
p1316
(lp1317
I76634997
aI76658478
aS'+'
asS'ZNF213'
p1318
(lp1319
I3135055
aI3142804
aS'+'
asS'HCFC1R1'
p1320
(lp1321
I3022619
aI3024286
aS'-'
asS'SLC7A6'
p1322
(lp1323
I68263829
aI68301819
aS'+'
asS'SLC7A5'
p1324
(lp1325
I87830022
aI87869494
aS'-'
asS'YBX3P1'
p1326
(lp1327
I31567766
aI31569524
aS'-'
asS'TMEM114'
p1328
(lp1329
I8526548
aI8589838
aS'-'
asS'DPEP1'
p1330
(lp1331
I89613307
aI89638431
aS'+'
asS'DPEP2'
p1332
(lp1333
I67987389
aI68000635
aS'-'
asS'DPEP3'
p1334
(lp1335
I67975662
aI67980549
aS'-'
asS'KIAA0556'
p1336
(lp1337
I27550127
aI27780371
aS'+'
asS'TRAF7'
p1338
(lp1339
I2155751
aI2178122
aS'+'
asS'PRSS33'
p1340
(lp1341
I2783952
aI2787759
aS'-'
asS'SLC5A11'
p1342
(lp1343
I24832783
aI24911628
aS'+'
asS'PRSS36'
p1344
(lp1345
I31138925
aI31150094
aS'-'
asS'ADGRG3'
p1346
(lp1347
I57668191
aI57689378
aS'+'
asS'C16orf90'
p1348
(lp1349
I3493483
aI3495521
aS'-'
asS'LOC100505915'
p1350
(lp1351
I15094410
aI15109197
aS'+'
asS'SBK1'
p1352
(lp1353
I28258686
aI28323849
aS'+'
asS'NETO2'
p1354
(lp1355
I47081519
aI47144025
aS'-'
asS'ECI1'
p1356
(lp1357
I2239871
aI2251601
aS'-'
asS'TOX3'
p1358
(lp1359
I52436415
aI52547802
aS'-'
asS'BAIAP3'
p1360
(lp1361
I1333604
aI1349441
aS'+'
asS'MFSD13B'
p1362
(lp1363
I22385768
aI22407598
aS'+'
asS'LOC102723786'
p1364
(lp1365
I71288865
aI71309963
aS'+'
asS'PDZD9'
p1366
(lp1367
I21957539
aI22001137
aS'-'
asS'HYDIN'
p1368
(lp1369
I70802083
aI71230722
aS'-'
asS'MAPK3'
p1370
(lp1371
I30114104
aI30123309
aS'-'
asS'CLUHP3'
p1372
(lp1373
I31700612
aI31707437
aS'+'
asS'BCO1'
p1374
(lp1375
I81238641
aI81291142
aS'+'
asS'LOC606724'
p1376
(lp1377
I29449344
aI29449915
aS'+'
asS'NKD1'
p1378
(lp1379
I50548395
aI50649249
aS'+'
asS'RBL2'
p1380
(lp1381
I53434419
aI53491648
aS'+'
asS'PKD1P6-NPIPP1'
p1382
(lp1383
I15104722
aI15131601
aS'-'
asS'PAQR4'
p1384
(lp1385
I2969244
aI2973489
aS'+'
asS'VWA3A'
p1386
(lp1387
I22091929
aI22156966
aS'+'
asS'METTL9'
p1388
(lp1389
I21597220
aI21657473
aS'+'
asS'VPS35'
p1390
(lp1391
I46657978
aI46689232
aS'-'
asS'CCL17'
p1392
(lp1393
I57396075
aI57416063
aS'+'
asS'SYNGR3'
p1394
(lp1395
I1989944
aI1994275
aS'+'
asS'WDR90'
p1396
(lp1397
I649362
aI667833
aS'+'
asS'CDIPT-AS1'
p1398
(lp1399
I29863682
aI29868053
aS'+'
asS'MIR1972-2'
p1400
(lp1401
I70030345
aI70030422
aS'+'
asS'MIR1972-1'
p1402
(lp1403
I15010320
aI15010397
aS'-'
asS'KCTD5'
p1404
(lp1405
I2682493
aI2709030
aS'+'
asS'LOC105379474'
p1406
(lp1407
I33484764
aI33486497
aS'-'
asS'LOC105371119'
p1408
(lp1409
I20441049
aI20447514
aS'-'
asS'LOC101927978'
p1410
(lp1411
I72759988
aI72821119
aS'+'
asS'HAGH'
p1412
(lp1413
I1809102
aI1827194
aS'-'
asS'CPNE2'
p1414
(lp1415
I57092542
aI57147966
aS'+'
asS'LOC105371113'
p1416
(lp1417
I19333891
aI19337799
aS'+'
asS'LOC105371115'
p1418
(lp1419
I19757622
aI19766864
aS'-'
asS'LOC105371114'
p1420
(lp1421
I19241214
aI19394476
aS'-'
asS'LOC388282'
p1422
(lp1423
I57809425
aI57817114
aS'+'
asS'LOC105371116'
p1424
(lp1425
I19923601
aI19929229
aS'+'
asS'DNASE1'
p1426
(lp1427
I3611704
aI3665472
aS'+'
asS'PYCARD'
p1428
(lp1429
I31201485
aI31202776
aS'-'
asS'SNORA30'
p1430
(lp1431
I30710536
aI30710665
aS'+'
asS'UMOD'
p1432
(lp1433
I20333050
aI20356301
aS'-'
asS'USP10'
p1434
(lp1435
I84699948
aI84779922
aS'+'
asS'GDE1'
p1436
(lp1437
I19501692
aI19522145
aS'-'
asS'MIR7854'
p1438
(lp1439
I81533901
aI81533966
aS'+'
asS'RNF166'
p1440
(lp1441
I88696494
aI88706421
aS'-'
asS'CLEC19A'
p1442
(lp1443
I19285782
aI19310947
aS'+'
asS'TXNDC11'
p1444
(lp1445
I11679079
aI11742878
aS'-'
asS'LOC105371204'
p1446
(lp1447
I35506610
aI35524633
aS'+'
asS'LOC105371201'
p1448
(lp1449
I35398492
aI35401780
aS'+'
asS'LOC105371200'
p1450
(lp1451
I35207868
aI35244709
aS'+'
asS'LOC105371203'
p1452
(lp1453
I35450770
aI35457956
aS'+'
asS'NPIPA5'
p1454
(lp1455
I15363893
aI15381461
aS'-'
asS'NPIPA7'
p1456
(lp1457
I16376939
aI16393972
aS'+'
asS'NPIPA1'
p1458
(lp1459
I14935257
aI14952060
aS'+'
asS'NPIPA2'
p1460
(lp1461
I14745594
aI14765443
aS'+'
asS'NPIPA3'
p1462
(lp1463
I14706472
aI14726319
aS'+'
asS'JPH3'
p1464
(lp1465
I87601834
aI87698156
aS'+'
asS'TAT'
p1466
(lp1467
I71566850
aI71577095
aS'-'
asS'FENDRR'
p1468
(lp1469
I86474524
aI86508860
aS'-'
asS'HBQ1'
p1470
(lp1471
I180333
aI181179
aS'+'
asS'LOC101927009'
p1472
(lp1473
I9355587
aI9408093
aS'+'
asS'ZNF688'
p1474
(lp1475
I30569685
aI30572407
aS'-'
asS'ZNF689'
p1476
(lp1477
I30602557
aI30610775
aS'-'
asS'LOC102724927'
p1478
(lp1479
I3947608
aI3950444
aS'-'
asS'LOC102724928'
p1480
(lp1481
I35030346
aI35060329
aS'+'
asS'FLJ26245'
p1482
(lp1483
I35746551
aI35756624
aS'+'
asS'MT1E'
p1484
(lp1485
I56625672
aI56627112
aS'+'
asS'IQCK'
p1486
(lp1487
I19716455
aI19858467
aS'+'
asS'LOC101928474'
p1488
(lp1489
I84911252
aI84925218
aS'-'
asS'ZNF174'
p1490
(lp1491
I3401189
aI3409364
aS'+'
asS'ZNF778'
p1492
(lp1493
I89202111
aI89232637
aS'+'
asS'LOC652276'
p1494
(lp1495
I2603383
aI2630494
aS'+'
asS'ATMIN'
p1496
(lp1497
I81035852
aI81047346
aS'+'
asS'PRCAT47'
p1498
(lp1499
I80828734
aI80892596
aS'-'
asS'CTCF'
p1500
(lp1501
I67562406
aI67639185
aS'+'
asS'ZNF771'
p1502
(lp1503
I30407413
aI30418595
aS'+'
asS'MMP15'
p1504
(lp1505
I58025565
aI58046901
aS'+'
asS'LOC339059'
p1506
(lp1507
I88742766
aI88745748
aS'+'
asS'SNORD60'
p1508
(lp1509
I2155022
aI2155105
aS'-'
asS'SNORD68'
p1510
(lp1511
I89561429
aI89561501
aS'+'
asS'MTHFSD'
p1512
(lp1513
I86530175
aI86555235
aS'-'
asS'LOC100287175'
p1514
(lp1515
I636441
aI638620
aS'+'
asS'SNORD71'
p1516
(lp1517
I71758401
aI71758487
aS'-'
asS'ZNF423'
p1518
(lp1519
I49487530
aI49857919
aS'-'
asS'MYH11'
p1520
(lp1521
I15703134
aI15857030
aS'-'
asS'LMF1'
p1522
(lp1523
I853633
aI981615
aS'-'
asS'CCDC189'
p1524
(lp1525
I30757225
aI30762277
aS'-'
asS'SPSB3'
p1526
(lp1527
I1776711
aI1782605
aS'-'
asS'TSC2'
p1528
(lp1529
I2047803
aI2088712
aS'+'
asS'GPRC5B'
p1530
(lp1531
I19858970
aI19886045
aS'-'
asS'LOC100129617'
p1532
(lp1533
I81665353
aI81667276
aS'+'
asS'TP53TG3F'
p1534
(lp1535
I33457154
aI33462249
aS'+'
asS'TP53TG3D'
p1536
(lp1537
I32251925
aI32255923
aS'+'
asS'TP53TG3E'
p1538
(lp1539
I33301848
aI33306938
aS'+'
asS'TP53TG3B'
p1540
(lp1541
I33358384
aI33363478
aS'+'
asS'TP53TG3C'
p1542
(lp1543
I33191769
aI33196858
aS'+'
asS'LOC102723796'
p1544
(lp1545
I71429996
aI71432903
aS'-'
asS'LOC400499'
p1546
(lp1547
I11372014
aI11523825
aS'-'
asS'KIAA0513'
p1548
(lp1549
I85027708
aI85094230
aS'+'
asS'LOC105371412'
p1550
(lp1551
I89071038
aI89073422
aS'+'
asS'PLA2G15'
p1552
(lp1553
I68245343
aI68261058
aS'+'
asS'LOC101927814'
p1554
(lp1555
I21589697
aI21599385
aS'-'
asS'LOC101927817'
p1556
(lp1557
I89430917
aI89454494
aS'+'
asS'NTN3'
p1558
(lp1559
I2471498
aI2474145
aS'+'
asS'LINC01195'
p1560
(lp1561
I9446012
aI9455505
aS'-'
asS'UNKL'
p1562
(lp1563
I1363204
aI1414749
aS'-'
asS'AHSP'
p1564
(lp1565
I31527851
aI31528804
aS'+'
asS'LOC105371058'
p1566
(lp1567
I3077271
aI3087993
aS'-'
asS'LOC105371059'
p1568
(lp1569
I3364628
aI3399669
aS'+'
asS'NDE1'
p1570
(lp1571
I15643266
aI15726353
aS'+'
asS'LOC100507534'
p1572
(lp1573
I47849313
aI47887130
aS'-'
asS'LOC105371055'
p1574
(lp1575
I2939510
aI2956151
aS'-'
asS'LOC105371056'
p1576
(lp1577
I3006566
aI3009108
aS'-'
asS'PGP'
p1578
(lp1579
I2211601
aI2214821
aS'-'
asS'VAC14-AS1'
p1580
(lp1581
I70755059
aI70773251
aS'+'
asS'TLDC1'
p1582
(lp1583
I84476354
aI84504752
aS'-'
asS'ADAT1'
p1584
(lp1585
I75596878
aI75623323
aS'-'
asS'LOC105447648'
p1586
(lp1587
I14363108
aI14370266
aS'-'
asS'E4F1'
p1588
(lp1589
I2223487
aI2235742
aS'+'
asS'IL34'
p1590
(lp1591
I70579894
aI70660682
aS'+'
asS'IL32'
p1592
(lp1593
I3065311
aI3069667
aS'+'
asS'MSLN'
p1594
(lp1595
I760745
aI768863
aS'+'
asS'E2F4'
p1596
(lp1597
I67192164
aI67198918
aS'+'
asS'MIR365A'
p1598
(lp1599
I14309284
aI14309371
aS'+'
asS'APRT'
p1600
(lp1601
I88809468
aI88811934
aS'-'
asS'SLX1A-SULT1A3'
p1602
(lp1603
I30194432
aI30204329
aS'+'
asS'CA7'
p1604
(lp1605
I66844378
aI66854147
aS'+'
asS'MIR762'
p1606
(lp1607
I30893902
aI30893985
aS'+'
asS'TNRC6A'
p1608
(lp1609
I24610259
aI24824770
aS'+'
asS'FAM234A'
p1610
(lp1611
I234545
aI269943
aS'+'
asS'VPS9D1'
p1612
(lp1613
I89707132
aI89721046
aS'-'
asS'LOC102724047'
p1614
(lp1615
I78230134
aI78241459
aS'-'
asS'FRG2KP'
p1616
(lp1617
I31563221
aI31567715
aS'-'
asS'NPIPB3'
p1618
(lp1619
I21402133
aI21425337
aS'-'
asS'COTL1'
p1620
(lp1621
I84565595
aI84618096
aS'-'
asS'GNG13'
p1622
(lp1623
I798040
aI800733
aS'-'
asS'CDH8'
p1624
(lp1625
I61640434
aI62036456
aS'-'
asS'LOC105371272'
p1626
(lp1627
I54370305
aI54374721
aS'+'
asS'LOC105371273'
p1628
(lp1629
I54544321
aI54559078
aS'-'
asS'LOC105371274'
p1630
(lp1631
I54634441
aI54652177
aS'+'
asS'LOC105371275'
p1632
(lp1633
I54853505
aI54893781
aS'-'
asS'LOC105371276'
p1634
(lp1635
I54847227
aI54854994
aS'+'
asS'LOC105371277'
p1636
(lp1637
I54951499
aI54954662
aS'+'
asS'LOC105371278'
p1638
(lp1639
I55042997
aI55049302
aS'-'
asS'LOC105371279'
p1640
(lp1641
I55366738
aI55369565
aS'-'
asS'CDH3'
p1642
(lp1643
I68644819
aI68727573
aS'+'
asS'CDH5'
p1644
(lp1645
I66366606
aI66404786
aS'+'
asS'CENPN'
p1646
(lp1647
I81006497
aI81033107
aS'+'
asS'ZG16'
p1648
(lp1649
I29760803
aI29780519
aS'+'
asS'HAGHL'
p1650
(lp1651
I726935
aI729715
aS'+'
asS'TERF2IP'
p1652
(lp1653
I75647703
aI75657432
aS'+'
asS'CENPT'
p1654
(lp1655
I67828156
aI67847458
aS'-'
asS'KIFC3'
p1656
(lp1657
I57758216
aI57863053
aS'-'
asS'PDXDC1'
p1658
(lp1659
I14974741
aI15139410
aS'+'
asS'C16orf96'
p1660
(lp1661
I4538708
aI4600317
aS'+'
asS'C16orf97'
p1662
(lp1663
I52026351
aI52078517
aS'-'
asS'ADGRG5'
p1664
(lp1665
I57529338
aI57578182
aS'+'
asS'C16orf95'
p1666
(lp1667
I87302797
aI87317420
aS'-'
asS'CYLD'
p1668
(lp1669
I50742025
aI50801935
aS'+'
asS'LOC105371309'
p1670
(lp1671
I63847044
aI63848547
aS'+'
asS'ADGRG1'
p1672
(lp1673
I57619534
aI57665032
aS'+'
asS'C16orf91'
p1674
(lp1675
I1419743
aI1420800
aS'-'
asS'LOC105371305'
p1676
(lp1677
I61918325
aI61941483
aS'+'
asS'LOC105371306'
p1678
(lp1679
I62679256
aI62682226
aS'+'
asS'LOC105371307'
p1680
(lp1681
I63058087
aI63098697
aS'-'
asS'LOC105371300'
p1682
(lp1683
I59916261
aI59942774
aS'-'
asS'LOC105371301'
p1684
(lp1685
I61229162
aI61234638
aS'-'
asS'LOC105371302'
p1686
(lp1687
I61365503
aI61447716
aS'+'
asS'MIR6775'
p1688
(lp1689
I87834591
aI87834660
aS'-'
asS'MIR6774'
p1690
(lp1691
I85918346
aI85918416
aS'+'
asS'MIR6773'
p1692
(lp1693
I68233425
aI68233499
aS'-'
asS'MIR6772'
p1694
(lp1695
I57772288
aI57772352
aS'-'
asS'MIR6771'
p1696
(lp1697
I50292615
aI50292675
aS'+'
asS'RRAD'
p1698
(lp1699
I66921678
aI66925536
aS'-'
asS'DHX38'
p1700
(lp1701
I72093664
aI72112912
aS'+'
asS'SRRM2-AS1'
p1702
(lp1703
I2737075
aI2752600
aS'-'
asS'MT1X'
p1704
(lp1705
I56682469
aI56684196
aS'+'
asS'ARHGAP17'
p1706
(lp1707
I24919383
aI25015601
aS'-'
asS'MPHOSPH6'
p1708
(lp1709
I82148161
aI82170224
aS'-'
asS'MT1L'
p1710
(lp1711
I56617460
aI56618818
aS'+'
asS'MT1M'
p1712
(lp1713
I56632621
aI56633986
aS'+'
asS'MT1H'
p1714
(lp1715
I56669813
aI56671129
aS'+'
asS'ZNF768'
p1716
(lp1717
I30524003
aI30532367
aS'-'
asS'ZNF764'
p1718
(lp1719
I30553763
aI30558321
aS'-'
asS'MT1F'
p1720
(lp1721
I56657942
aI56659303
aS'+'
asS'MT1G'
p1722
(lp1723
I56666734
aI56668065
aS'-'
asS'MT1A'
p1724
(lp1725
I56638665
aI56640087
aS'+'
asS'MT1B'
p1726
(lp1727
I56651898
aI56653204
aS'+'
asS'RNPS1'
p1728
(lp1729
I2253115
aI2268412
aS'-'
asS'NUPR1'
p1730
(lp1731
I28537340
aI28539174
aS'-'
asS'MIR3180-4'
p1732
(lp1733
I15154849
aI15155002
aS'-'
asS'MIR3180-5'
p1734
(lp1735
I2135976
aI2136129
aS'-'
asS'MIR3180-2'
p1736
(lp1737
I16309878
aI16309966
aS'+'
asS'MIR3180-3'
p1738
(lp1739
I18402177
aI18402271
aS'-'
asS'ZNF23'
p1740
(lp1741
I71447596
aI71462252
aS'-'
asS'MIR3180-1'
p1742
(lp1743
I14911219
aI14911313
aS'+'
asS'DNAH3'
p1744
(lp1745
I20933110
aI21159537
aS'-'
asS'PLA2G10'
p1746
(lp1747
I14672547
aI14694573
aS'-'
asS'LOC729159'
p1748
(lp1749
I60358454
aI60359763
aS'-'
asS'ZNF500'
p1750
(lp1751
I4745960
aI4767219
aS'-'
asS'LOC440390'
p1752
(lp1753
I87057783
aI87063991
aS'+'
asS'MAFTRR'
p1754
(lp1755
I79721311
aI79770532
aS'-'
asS'LOC100128882'
p1756
(lp1757
I88512836
aI88532015
aS'-'
asS'INO80E'
p1758
(lp1759
I29996208
aI30005794
aS'+'
asS'SLX4'
p1760
(lp1761
I3581180
aI3611598
aS'-'
asS'FBXL19-AS1'
p1762
(lp1763
I30919318
aI30923269
aS'-'
asS'NAE1'
p1764
(lp1765
I66802877
aI66830977
aS'-'
asS'KIAA0430'
p1766
(lp1767
I15594368
aI15643166
aS'-'
asS'HN1L'
p1768
(lp1769
I1678276
aI1702072
aS'+'
asS'LINC01569'
p1770
(lp1771
I4245824
aI4253789
aS'-'
asS'LINC01568'
p1772
(lp1773
I73386804
aI73421396
aS'+'
asS'LINC01567'
p1774
(lp1775
I24661421
aI24671062
aS'-'
asS'LINC01566'
p1776
(lp1777
I35363415
aI35391713
aS'+'
asS'LOC101928880'
p1778
(lp1779
I88194280
aI88195217
aS'+'
asS'STX4'
p1780
(lp1781
I31033094
aI31040168
aS'+'
asS'GDPD3'
p1782
(lp1783
I30104809
aI30113557
aS'-'
asS'LOC107984898'
p1784
(lp1785
I991057
aI997907
aS'-'
asS'LOC107984890'
p1786
(lp1787
I88510119
aI88512419
aS'-'
asS'LOC107984892'
p1788
(lp1789
I51619790
aI51634113
aS'-'
asS'LOC107984893'
p1790
(lp1791
I17861095
aI17972542
aS'-'
asS'LOC107984894'
p1792
(lp1793
I64737152
aI64745678
aS'-'
asS'LOC107984895'
p1794
(lp1795
I3004811
aI3007388
aS'+'
asS'LOC107984897'
p1796
(lp1797
I78051314
aI78066418
aS'+'
asS'SLC5A2'
p1798
(lp1799
I31482534
aI31490549
aS'+'
asS'PRSS8'
p1800
(lp1801
I31131432
aI31135762
aS'-'
asS'UBN1'
p1802
(lp1803
I4847445
aI4882362
aS'+'
asS'PMFBP1'
p1804
(lp1805
I72116695
aI72173908
aS'-'
asS'NOD2'
p1806
(lp1807
I50693580
aI50733077
aS'+'
asS'GNPTG'
p1808
(lp1809
I1351898
aI1363351
aS'+'
asS'LOC105371049'
p1810
(lp1811
I2091435
aI2095017
aS'+'
asS'LOC105371048'
p1812
(lp1813
I1888946
aI1890434
aS'+'
asS'LOC105371042'
p1814
(lp1815
I1126623
aI1134301
aS'-'
asS'LOC105371047'
p1816
(lp1817
I1530380
aI1533592
aS'-'
asS'LOC105371046'
p1818
(lp1819
I1580526
aI1610328
aS'+'
asS'LOC105371045'
p1820
(lp1821
I1428818
aI1434502
aS'+'
asS'LOC105371044'
p1822
(lp1823
I1425550
aI1428713
aS'-'
asS'WFIKKN1'
p1824
(lp1825
I631011
aI634116
aS'+'
asS'OR1F2P'
p1826
(lp1827
I3215561
aI3216546
aS'+'
asS'LOC440386'
p1828
(lp1829
I74367321
aI74369826
aS'+'
asS'BOLA2'
p1830
(lp1831
I29453587
aI29454964
aS'-'
asS'MMP2'
p1832
(lp1833
I55478829
aI55506691
aS'+'
asS'TRAPPC2L'
p1834
(lp1835
I88856219
aI88862686
aS'+'
asS'SLC6A2'
p1836
(lp1837
I55655603
aI55706192
aS'+'
asS'IL27'
p1838
(lp1839
I28499361
aI28526730
aS'-'
asS'LOC101927999'
p1840
(lp1841
I90165253
aI90167808
aS'+'
asS'CBFA2T3'
p1842
(lp1843
I88874859
aI88977149
aS'-'
asS'CLN3'
p1844
(lp1845
I28466652
aI28492082
aS'-'
asS'MC1R'
p1846
(lp1847
I89917878
aI89920977
aS'+'
asS'BICDL2'
p1848
(lp1849
I3027709
aI3036985
aS'-'
asS'SNORA10'
p1850
(lp1851
I1962333
aI1962466
aS'-'
asS'ACSM2B'
p1852
(lp1853
I20536260
aI20576379
aS'-'
asS'USP31'
p1854
(lp1855
I23061408
aI23149301
aS'-'
asS'ADCY7'
p1856
(lp1857
I50246157
aI50318135
aS'+'
asS'MPV17L'
p1858
(lp1859
I15395753
aI15409686
aS'+'
asS'RBBP6'
p1860
(lp1861
I24539586
aI24572863
aS'+'
asS'KIF22'
p1862
(lp1863
I29790061
aI29805385
aS'+'
asS'LOC105371262'
p1864
(lp1865
I52416789
aI52419866
aS'+'
asS'LOC105371261'
p1866
(lp1867
I52239679
aI52269440
aS'+'
asS'LOC105371267'
p1868
(lp1869
I53035689
aI53052873
aS'-'
asS'LOC105371265'
p1870
(lp1871
I52581247
aI52588579
aS'+'
asS'LOC105371264'
p1872
(lp1873
I52607053
aI52613908
aS'+'
asS'LOC105371269'
p1874
(lp1875
I53544345
aI53560426
aS'-'
asS'LOC105371268'
p1876
(lp1877
I53510283
aI53519555
aS'-'
asS'SNHG9'
p1878
(lp1879
I1964995
aI1965504
aS'+'
asS'ZNF75A'
p1880
(lp1881
I3305405
aI3322999
aS'+'
asS'LOC101927228'
p1882
(lp1883
I49466105
aI49469875
aS'+'
asS'CDYL2'
p1884
(lp1885
I80597898
aI80805043
aS'-'
asS'SEPT1'
p1886
(lp1887
I30378132
aI30382850
aS'-'
asS'LOC101927227'
p1888
(lp1889
I12366407
aI12372582
aS'-'
asS'C16orf89'
p1890
(lp1891
I5042771
aI5065971
aS'-'
asS'SLC9A5'
p1892
(lp1893
I67247548
aI67272191
aS'+'
asS'C16orf82'
p1894
(lp1895
I27066897
aI27069166
aS'+'
asS'C16orf87'
p1896
(lp1897
I46802046
aI46831162
aS'-'
asS'C16orf86'
p1898
(lp1899
I67666805
aI67670523
aS'+'
asS'SCNN1G'
p1900
(lp1901
I23182718
aI23216879
aS'+'
asS'SYT17'
p1902
(lp1903
I19167833
aI19268334
aS'+'
asS'LOC105371318'
p1904
(lp1905
I66364179
aI66375818
aS'-'
asS'LOC105371317'
p1906
(lp1907
I66238754
aI66267064
aS'-'
asS'LOC105371316'
p1908
(lp1909
I66134981
aI66146599
aS'+'
asS'LOC105371314'
p1910
(lp1911
I65123754
aI65141661
aS'+'
asS'LOC105371313'
p1912
(lp1913
I64904798
aI64916386
aS'+'
asS'LOC105371311'
p1914
(lp1915
I64345029
aI64346589
aS'+'
asS'LOC105371310'
p1916
(lp1917
I64344304
aI64479212
aS'+'
asS'GSPT1'
p1918
(lp1919
I11868127
aI11916662
aS'-'
asS'MIR6767'
p1920
(lp1921
I2445391
aI2445457
aS'+'
asS'MIR6768'
p1922
(lp1923
I2463966
aI2464038
aS'+'
asS'LOC102467079'
p1924
(lp1925
I52085280
aI52099067
aS'+'
asS'RSL1D1'
p1926
(lp1927
I11834195
aI11851585
aS'-'
asS'PAPD5'
p1928
(lp1929
I50152917
aI50235310
aS'+'
asS'LOC101928417'
p1930
(lp1931
I82953229
aI82990298
aS'-'
asS'UBE2MP1'
p1932
(lp1933
I35169430
aI35170391
aS'-'
asS'LOC105369155'
p1934
(lp1935
I67210349
aI67226998
aS'-'
asS'MIR328'
p1936
(lp1937
I67202320
aI67202395
aS'-'
asS'LOC400541'
p1938
(lp1939
I70156339
aI70173448
aS'-'
asS'LCMT1'
p1940
(lp1941
I25111708
aI25178231
aS'+'
asS'MEIOB'
p1942
(lp1943
I1833982
aI1872178
aS'-'
asS'EARS2'
p1944
(lp1945
I23522012
aI23557375
aS'-'
asS'TBX6'
p1946
(lp1947
I30085792
aI30091919
aS'-'
asS'JMJD8'
p1948
(lp1949
I681665
aI684446
aS'-'
asS'ERN2'
p1950
(lp1951
I23690303
aI23713500
aS'-'
asS'ITPRIPL2'
p1952
(lp1953
I19113931
aI19121630
aS'+'
asS'FRG2DP'
p1954
(lp1955
I35477413
aI35480596
aS'-'
asS'MTSS1L'
p1956
(lp1957
I70661203
aI70686207
aS'-'
asS'CHMP1A'
p1958
(lp1959
I89644430
aI89657785
aS'-'
asS'ZDHHC7'
p1960
(lp1961
I84974465
aI85011732
aS'-'
asS'CAPN15'
p1962
(lp1963
I527794
aI554636
aS'+'
asS'PRRT2'
p1964
(lp1965
I29811855
aI29815879
aS'+'
asS'MIR5093'
p1966
(lp1967
I85306225
aI85306325
aS'-'
asS'HS3ST6'
p1968
(lp1969
I1911474
aI1921428
aS'-'
asS'HS3ST4'
p1970
(lp1971
I25692025
aI26137688
aS'+'
asS'LOC100505942'
p1972
(lp1973
I67517705
aI67528745
aS'-'
asS'HS3ST2'
p1974
(lp1975
I22814538
aI22916338
aS'+'
asS'LOC100505948'
p1976
(lp1977
I34978721
aI34979937
aS'-'
asS'LOC107984083'
p1978
(lp1979
I33731715
aI33737188
aS'-'
asS'CORO1A'
p1980
(lp1981
I30183409
aI30189076
aS'+'
asS'MYLPF'
p1982
(lp1983
I30370933
aI30377991
aS'+'
asS'LINC01572'
p1984
(lp1985
I72283300
aI72665009
aS'-'
asS'LINC01570'
p1986
(lp1987
I5601168
aI5616250
aS'-'
asS'LINC01571'
p1988
(lp1989
I51762518
aI51772646
aS'+'
asS'THUMPD1'
p1990
(lp1991
I20730254
aI20741906
aS'-'
asS'MIR3670-4'
p1992
(lp1993
I18488300
aI18488365
aS'-'
asS'MIR3670-1'
p1994
(lp1995
I14907716
aI14907781
aS'+'
asS'MIR3670-2'
p1996
(lp1997
I16306369
aI16306434
aS'+'
asS'MIR3670-3'
p1998
(lp1999
I18405697
aI18405762
aS'-'
asS'PDXDC2P'
p2000
(lp2001
I69976296
aI70065948
aS'-'
asS'LOC107984889'
p2002
(lp2003
I57581236
aI57599218
aS'+'
asS'LOC107984888'
p2004
(lp2005
I21116498
aI21140528
aS'+'
asS'LOC101929613'
p2006
(lp2007
I2998954
aI3000813
aS'+'
asS'LOC107984882'
p2008
(lp2009
I89630810
aI89634055
aS'+'
asS'LOC107984881'
p2010
(lp2011
I66950322
aI66954565
aS'-'
asS'LOC107984880'
p2012
(lp2013
I11624123
aI11632090
aS'+'
asS'LOC107984887'
p2014
(lp2015
I51054963
aI51081439
aS'-'
asS'LOC107984886'
p2016
(lp2017
I51310738
aI51319058
aS'+'
asS'LOC107984884'
p2018
(lp2019
I55426792
aI55444804
aS'-'
asS'LOC105371087'
p2020
(lp2021
I12372679
aI12376026
aS'+'
asS'SNORA50A'
p2022
(lp2023
I58559795
aI58559931
aS'-'
asS'FLJ21408'
p2024
(lp2025
I27268204
aI27290468
aS'+'
asS'MIR6862-1'
p2026
(lp2027
I28390981
aI28391051
aS'-'
asS'MIR6862-2'
p2028
(lp2029
I28724251
aI28724321
aS'+'
asS'SLC7A5P2'
p2030
(lp2031
I21517892
aI21520444
aS'-'
asS'NAGPA-AS1'
p2032
(lp2033
I5033701
aI5042971
aS'+'
asS'LINC01177'
p2034
(lp2035
I9441293
aI9444985
aS'-'
asS'PLK1'
p2036
(lp2037
I23678771
aI23690367
aS'+'
asS'SETD1A'
p2038
(lp2039
I30956617
aI30984664
aS'+'
asS'LOC105371077'
p2040
(lp2041
I9789054
aI9809101
aS'+'
asS'LYRM1'
p2042
(lp2043
I20899625
aI20925006
aS'+'
asS'LOC105371075'
p2044
(lp2045
I9294811
aI9297974
aS'+'
asS'LOC105371072'
p2046
(lp2047
I8379166
aI8404151
aS'+'
asS'MIR3677'
p2048
(lp2049
I2270712
aI2270772
aS'+'
asS'LOC105371071'
p2050
(lp2051
I8296493
aI8299766
aS'+'
asS'LOC105371078'
p2052
(lp2053
I10225753
aI10252643
aS'-'
asS'ADAD2'
p2054
(lp2055
I84191116
aI84197166
aS'+'
asS'PKD1L2'
p2056
(lp2057
I81100878
aI81220370
aS'-'
asS'PKD1L3'
p2058
(lp2059
I71929537
aI71999978
aS'-'
asS'STUB1'
p2060
(lp2061
I680110
aI682768
aS'+'
asS'ZP2'
p2062
(lp2063
I21197451
aI21214510
aS'-'
asS'TPPP3'
p2064
(lp2065
I67389806
aI67393535
aS'-'
asS'CEMP1'
p2066
(lp2067
I2530034
aI2531408
aS'-'
asS'NECAB2'
p2068
(lp2069
I83968631
aI84002774
aS'+'
asS'SEPT12'
p2070
(lp2071
I4777601
aI4791610
aS'-'
asS'COG8'
p2072
(lp2073
I69328620
aI69339623
aS'-'
asS'COG7'
p2074
(lp2075
I23388492
aI23453191
aS'-'
asS'COG4'
p2076
(lp2077
I70480568
aI70523554
aS'-'
asS'NFAT5'
p2078
(lp2079
I69565965
aI69704666
aS'+'
asS'LOC613037'
p2080
(lp2081
I30222977
aI30251993
aS'-'
asS'LOC613038'
p2082
(lp2083
I30204315
aI30206927
aS'-'
asS'LOC102724207'
p2084
(lp2085
I33741789
aI33758001
aS'-'
asS'HIRIP3'
p2086
(lp2087
I29992320
aI29996096
aS'-'
asS'LOC101927348'
p2088
(lp2089
I14018879
aI14021077
aS'-'
asS'ASPHD1'
p2090
(lp2091
I29900391
aI29919860
aS'+'
asS'LOC107983990'
p2092
(lp2093
I31789596
aI31794641
aS'+'
asS'LINC00917'
p2094
(lp2095
I86331849
aI86345679
aS'-'
asS'LOC100131303'
p2096
(lp2097
I68013435
aI68015911
aS'-'
asS'KLHDC4'
p2098
(lp2099
I87693536
aI87765997
aS'-'
asS'URAHP'
p2100
(lp2101
I90039760
aI90047625
aS'-'
asS'NPRL3'
p2102
(lp2103
I85800
aI138698
aS'-'
asS'LOC105371259'
p2104
(lp2105
I51985398
aI51994590
aS'-'
asS'LOC105371256'
p2106
(lp2107
I51361991
aI51377963
aS'+'
asS'LOC105371257'
p2108
(lp2109
I51719078
aI51771780
aS'-'
asS'LOC105371252'
p2110
(lp2111
I50806667
aI50807629
aS'+'
asS'LOC105371253'
p2112
(lp2113
I51133301
aI51135891
aS'-'
asS'LOC105371251'
p2114
(lp2115
I50783858
aI50807069
aS'-'
asS'LOC105371098'
p2116
(lp2117
I16380166
aI16398504
aS'-'
asS'LOC105371099'
p2118
(lp2119
I16294962
aI16312096
aS'-'
asS'LOC105371094'
p2120
(lp2121
I14486311
aI14489038
aS'+'
asS'LOC105371095'
p2122
(lp2123
I14695759
aI14704205
aS'-'
asS'LOC105371096'
p2124
(lp2125
I15181224
aI15190966
aS'+'
asS'LOC105371097'
p2126
(lp2127
I15282378
aI15300457
aS'-'
asS'LOC105371090'
p2128
(lp2129
I12745643
aI12758900
aS'+'
asS'LOC105371091'
p2130
(lp2131
I13185439
aI13203387
aS'-'
asS'LOC105371092'
p2132
(lp2133
I12937514
aI12943309
aS'-'
asS'LOC105371093'
p2134
(lp2135
I13905766
aI13915112
aS'-'
asS'KLHL36'
p2136
(lp2137
I84648504
aI84667686
aS'+'
asS'TMEM170A'
p2138
(lp2139
I75443059
aI75464757
aS'-'
asS'GLIS2-AS1'
p2140
(lp2141
I4324647
aI4328340
aS'-'
asS'SEZ6L2'
p2142
(lp2143
I29871158
aI29899264
aS'-'
asS'FAM57B'
p2144
(lp2145
I30024429
aI30053026
aS'-'
asS'CARMIL2'
p2146
(lp2147
I67645003
aI67657569
aS'+'
asS'SLC6A10P'
p2148
(lp2149
I32877475
aI32885142
aS'-'
asS'LOC105371328'
p2150
(lp2151
I70188321
aI70189252
aS'+'
asS'DCUN1D3'
p2152
(lp2153
I20854924
aI20900358
aS'-'
asS'LOC105371321'
p2154
(lp2155
I68512108
aI68514925
aS'-'
asS'LOC105371325'
p2156
(lp2157
I69522636
aI69524557
aS'+'
asS'LOC100507221'
p2158
(lp2159
I32264028
aI32280475
aS'-'
asS'MIR193BHG'
p2160
(lp2161
I14302287
aI14326517
aS'+'
asS'RFWD3'
p2162
(lp2163
I74621395
aI74666892
aS'-'
asS'ACD'
p2164
(lp2165
I67657511
aI67660815
aS'-'
asS'LOC102723323'
p2166
(lp2167
I51387671
aI51525949
aS'-'
asS'ZNF747'
p2168
(lp2169
I30530366
aI30534970
aS'-'
asS'MRPS34'
p2170
(lp2171
I1771888
aI1773151
aS'-'
asS'CES5A'
p2172
(lp2173
I55846153
aI55956031
aS'-'
asS'LOC101927480'
p2174
(lp2175
I54847248
aI54848233
aS'-'
asS'BOLA2B'
p2176
(lp2177
I30192929
aI30194306
aS'-'
asS'LOC102724847'
p2178
(lp2179
I49162431
aI49170362
aS'+'
asS'LOC105371333'
p2180
(lp2181
I71410322
aI71426464
aS'-'
asS'TPSB2'
p2182
(lp2183
I1228335
aI1230184
aS'-'
asS'LOC105371237'
p2184
(lp2185
I47953038
aI47965551
aS'-'
asS'OSGIN1'
p2186
(lp2187
I83953221
aI83966332
aS'+'
asS'EMP2'
p2188
(lp2189
I10528421
aI10580716
aS'-'
asS'WWOX'
p2190
(lp2191
I78099412
aI79212667
aS'+'
asS'OR1F1'
p2192
(lp2193
I3188194
aI3206559
aS'+'
asS'CNTNAP4'
p2194
(lp2195
I76277482
aI76563610
aS'+'
asS'SLX1B-SULT1A4'
p2196
(lp2197
I29455090
aI29464980
aS'+'
asS'LOC107987235'
p2198
(lp2199
I34388894
aI34389821
aS'-'
asS'LOC107987234'
p2200
(lp2201
I17465538
aI17470427
aS'-'
asS'LOC107987237'
p2202
(lp2203
I87855870
aI87859509
aS'+'
asS'LOC107987236'
p2204
(lp2205
I34385074
aI34388570
aS'-'
asS'LOC107987231'
p2206
(lp2207
I29973621
aI29974648
aS'+'
asS'LOC107984900'
p2208
(lp2209
I10215429
aI10217267
aS'-'
asS'LOC107987233'
p2210
(lp2211
I566055
aI568024
aS'+'
asS'SLC9A3R2'
p2212
(lp2213
I2026867
aI2039026
aS'+'
asS'TSR3'
p2214
(lp2215
I1349239
aI1351872
aS'-'
asS'LOC100287036'
p2216
(lp2217
I89321132
aI89325110
aS'+'
asS'LOC107987239'
p2218
(lp2219
I90220196
aI90225200
aS'+'
asS'LOC107987238'
p2220
(lp2221
I88823265
aI88824779
aS'+'
asS'ACSM2A'
p2222
(lp2223
I20451460
aI20487669
aS'+'
asS'LOC105371411'
p2224
(lp2225
I89060270
aI89063869
aS'-'
asS'C1QTNF8'
p2226
(lp2227
I1088225
aI1096306
aS'-'
asS'LOC105371413'
p2228
(lp2229
I89254589
aI89258555
aS'-'
asS'LOC105371414'
p2230
(lp2231
I89296127
aI89298317
aS'+'
asS'LOC105371416'
p2232
(lp2233
I89682506
aI89686533
aS'-'
asS'LOC105371419'
p2234
(lp2235
I89846856
aI89854277
aS'-'
asS'MON1B'
p2236
(lp2237
I77190918
aI77199646
aS'+'
asS'ENPP7P13'
p2238
(lp2239
I33769376
aI33784275
aS'+'
asS'FTO-IT1'
p2240
(lp2241
I54039392
aI54040373
aS'+'
asS'NAA60'
p2242
(lp2243
I3443610
aI3486963
aS'+'
asS'NDUFAB1'
p2244
(lp2245
I23581011
aI23596329
aS'-'
asS'NOB1'
p2246
(lp2247
I69741853
aI69754968
aS'-'
asS'VAC14'
p2248
(lp2249
I70687438
aI70801169
aS'-'
asS'DUS2'
p2250
(lp2251
I68022943
aI68079323
aS'+'
asS'DOC2A'
p2252
(lp2253
I30005513
aI30023280
aS'-'
asS'CASC22'
p2254
(lp2255
I52258563
aI52280299
aS'+'
asS'LOC105371060'
p2256
(lp2257
I3577820
aI3581213
aS'+'
asS'LOC105371063'
p2258
(lp2259
I4254513
aI4255336
aS'+'
asS'LOC105371062'
p2260
(lp2261
I4180116
aI4184168
aS'-'
asS'LOC105371065'
p2262
(lp2263
I5132406
aI5143508
aS'+'
asS'LOC105371064'
p2264
(lp2265
I4895351
aI4926666
aS'+'
asS'LOC105371067'
p2266
(lp2267
I5204922
aI5235849
aS'+'
asS'LOC105371066'
p2268
(lp2269
I5213786
aI5220692
aS'-'
asS'LOC105371069'
p2270
(lp2271
I7855124
aI7894384
aS'-'
asS'LOC105371068'
p2272
(lp2273
I7042610
aI7056091
aS'-'
asS'COX6A2'
p2274
(lp2275
I31427730
aI31428428
aS'-'
asS'LITAF'
p2276
(lp2277
I11547986
aI11636377
aS'-'
asS'ATF7IP2'
p2278
(lp2279
I10386054
aI10483638
aS'+'
asS'LOC105379473'
p2280
(lp2281
I33385982
aI33387715
aS'-'
asS'PRR14'
p2282
(lp2283
I30650701
aI30656440
aS'+'
asS'LOC105379475'
p2284
(lp2285
I34381594
aI34386237
aS'+'
asS'LAT'
p2286
(lp2287
I28984825
aI28990783
aS'+'
asS'LOC388242'
p2288
(lp2289
I29464966
aI29467578
aS'-'
asS'ZG16B'
p2290
(lp2291
I2830171
aI2832284
aS'+'
asS'LOC107984858'
p2292
(lp2293
I81020282
aI81039489
aS'-'
asS'LOC107984859'
p2294
(lp2295
I11210934
aI11225441
aS'+'
asS'LOC107984855'
p2296
(lp2297
I33723350
aI33725309
aS'-'
asS'LOC107984856'
p2298
(lp2299
I73996617
aI74006772
aS'-'
asS'LOC107984851'
p2300
(lp2301
I22807495
aI22814782
aS'-'
asS'LOC107984852'
p2302
(lp2303
I57732811
aI57736524
aS'-'
asS'MAP1LC3B'
p2304
(lp2305
I87392194
aI87404774
aS'+'
asS'LOC107983982'
p2306
(lp2307
I160946
aI162921
aS'+'
asS'AKTIP'
p2308
(lp2309
I53491027
aI53504411
aS'-'
asS'UBALD1'
p2310
(lp2311
I4608882
aI4614926
aS'-'
asS'FTO'
p2312
(lp2313
I53703962
aI54114467
aS'+'
asS'ZDHHC1'
p2314
(lp2315
I67394418
aI67416494
aS'-'
asS'LOC105371248'
p2316
(lp2317
I50390915
aI50395699
aS'-'
asS'MMP25-AS1'
p2318
(lp2319
I3052124
aI3059370
aS'-'
asS'ZNRF1'
p2320
(lp2321
I74999016
aI75110994
aS'+'
asS'TFAP4'
p2322
(lp2323
I4257185
aI4273000
aS'-'
asS'LOC105371241'
p2324
(lp2325
I49071771
aI49122735
aS'-'
asS'LOC105371240'
p2326
(lp2327
I48623026
aI48748331
aS'+'
asS'LOC105371243'
p2328
(lp2329
I49312510
aI49318545
aS'-'
asS'LOC105371245'
p2330
(lp2331
I49454228
aI49460767
aS'+'
asS'LOC105371244'
p2332
(lp2333
I49374097
aI49454091
aS'-'
asS'PRDM7'
p2334
(lp2335
I90056565
aI90077339
aS'-'
asS'C16orf54'
p2336
(lp2337
I29742462
aI29746019
aS'-'
asS'LOC105371089'
p2338
(lp2339
I12759165
aI12760745
aS'+'
asS'LOC105371088'
p2340
(lp2341
I12651917
aI12653373
aS'-'
asS'LOC101927536'
p2342
(lp2343
I56662255
aI56666252
aS'+'
asS'LOC105371085'
p2344
(lp2345
I12552939
aI12561009
aS'-'
asS'LOC105371084'
p2346
(lp2347
I11851608
aI11904650
aS'+'
asS'LOC105371083'
p2348
(lp2349
I11341808
aI11345212
aS'-'
asS'LOC105371082'
p2350
(lp2351
I11249004
aI11381288
aS'+'
asS'LOC105371081'
p2352
(lp2353
I11129370
aI11135246
aS'-'
asS'LOC105371080'
p2354
(lp2355
I10861279
aI10918808
aS'-'
asS'CAPNS2'
p2356
(lp2357
I55566671
aI55567680
aS'+'
asS'NUDT16L1'
p2358
(lp2359
I4691339
aI4695856
aS'+'
asS'DCTN5'
p2360
(lp2361
I23641365
aI23676207
aS'+'
asS'CIITA'
p2362
(lp2363
I10866209
aI10941562
aS'+'
asS'LOC105371335'
p2364
(lp2365
I71513810
aI71517846
aS'+'
asS'LOC105371334'
p2366
(lp2367
I71583768
aI71621381
aS'-'
asS'LOC105371336'
p2368
(lp2369
I71629620
aI71631471
aS'-'
asS'APOOP5'
p2370
(lp2371
I59754131
aI59755191
aS'-'
asS'LOC105371332'
p2372
(lp2373
I71366613
aI71392129
aS'-'
asS'PSMD7'
p2374
(lp2375
I74296774
aI74306288
aS'+'
asS'MVP'
p2376
(lp2377
I29820393
aI29848039
aS'+'
asS'MIR1538'
p2378
(lp2379
I69565807
aI69565868
aS'-'
asS'IL17C'
p2380
(lp2381
I88638592
aI88640474
aS'+'
asS'FAM96B'
p2382
(lp2383
I66932054
aI66934423
aS'-'
asS'MVD'
p2384
(lp2385
I88651934
aI88663153
aS'-'
asS'CNEP1R1'
p2386
(lp2387
I50025205
aI50037088
aS'+'
asS'TAF1C'
p2388
(lp2389
I84177846
aI84187070
aS'-'
asS'SSTR5'
p2390
(lp2391
I1072755
aI1081454
aS'+'
asS'ABCA3'
p2392
(lp2393
I2275877
aI2340746
aS'-'
asS'TMEM8A'
p2394
(lp2395
I370775
aI381950
aS'-'
asS'MT2A'
p2396
(lp2397
I56608565
aI56609497
aS'+'
asS'LOC102724859'
p2398
(lp2399
I49282036
aI49290362
aS'+'
asS'IGSF6'
p2400
(lp2401
I21641283
aI21652666
aS'-'
asS'ZNF19'
p2402
(lp2403
I71474072
aI71489351
aS'-'
asS'LOC105376781'
p2404
(lp2405
I90144208
aI90163811
aS'+'
asS'LOC102723536'
p2406
(lp2407
I26318130
aI26364057
aS'+'
asS'LOC105376786'
p2408
(lp2409
I90101178
aI90101838
aS'-'
asS'LOC101928502'
p2410
(lp2411
I85307447
aI85312245
aS'-'
asS'APOBR'
p2412
(lp2413
I28494648
aI28498970
aS'+'
asS'ZNF646'
p2414
(lp2415
I31073772
aI31083512
aS'+'
asS'RPGRIP1L'
p2416
(lp2417
I53599238
aI53703934
aS'-'
asS'CNOT1'
p2418
(lp2419
I58519945
aI58629886
aS'-'
asS'MIR5189'
p2420
(lp2421
I88468917
aI88469031
aS'+'
asS'BANP'
p2422
(lp2423
I87949215
aI88077318
aS'+'
asS'SNORD111B'
p2424
(lp2425
I70529498
aI70529599
aS'+'
asS'PRMT7'
p2426
(lp2427
I68310973
aI68358830
aS'+'
asS'RRN3'
p2428
(lp2429
I15060021
aI15094335
aS'-'
asS'AQP8'
p2430
(lp2431
I25216916
aI25228932
aS'+'
asS'LOC107987240'
p2432
(lp2433
I90199812
aI90211886
aS'-'
asS'LOC107987241'
p2434
(lp2435
I15322660
aI15325880
aS'+'
asS'LOC107987242'
p2436
(lp2437
I29505636
aI29541430
aS'-'
asS'LOC101928614'
p2438
(lp2439
I86720683
aI86721959
aS'-'
asS'SPIRE2'
p2440
(lp2441
I89817476
aI89871319
aS'+'
asS'ZNF469'
p2442
(lp2443
I88424804
aI88440753
aS'+'
asS'LOC101928188'
p2444
(lp2445
I29210767
aI29221006
aS'-'
asS'CES4A'
p2446
(lp2447
I66988588
aI67009758
aS'+'
asS'CMTM2'
p2448
(lp2449
I66579447
aI66588275
aS'+'
asS'CMTM3'
p2450
(lp2451
I66604031
aI66613892
aS'+'
asS'CMTM1'
p2452
(lp2453
I66566390
aI66579135
aS'+'
asS'CMTM4'
p2454
(lp2455
I66598177
aI66696611
aS'-'
asS'ZFPM1'
p2456
(lp2457
I88451781
aI88535166
aS'+'
asS'NUDT21'
p2458
(lp2459
I56429135
aI56451349
aS'-'
asS'LOC105371401'
p2460
(lp2461
I88177297
aI88186920
aS'-'
asS'LOC105371400'
p2462
(lp2463
I87881548
aI87886140
aS'-'
asS'TEPP'
p2464
(lp2465
I57976434
aI57988116
aS'+'
asS'LOC105371409'
p2466
(lp2467
I88929149
aI88930663
aS'+'
asS'FAM173A'
p2468
(lp2469
I720580
aI722590
aS'+'
asS'SLC12A4'
p2470
(lp2471
I67943473
aI67968694
aS'-'
asS'ZNF267'
p2472
(lp2473
I31873767
aI31917951
aS'+'
asS'FOXF1'
p2474
(lp2475
I86510526
aI86514464
aS'+'
asS'SLC12A3'
p2476
(lp2477
I56865206
aI56915850
aS'+'
asS'ZNF263'
p2478
(lp2479
I3283379
aI3301401
aS'+'
asS'LOC101928762'
p2480
(lp2481
I31040960
aI31049858
aS'+'
asS'DNAJA2'
p2482
(lp2483
I46955361
aI46973714
aS'-'
asS'XYLT1'
p2484
(lp2485
I17102323
aI17470881
aS'-'
asS'DYNLRB2'
p2486
(lp2487
I80540258
aI80550811
aS'+'
asS'HSD17B2'
p2488
(lp2489
I82035236
aI82098534
aS'+'
asS'LOC101929566'
p2490
(lp2491
I2866324
aI2868783
aS'-'
asS'ELMO3'
p2492
(lp2493
I67199124
aI67204024
aS'+'
asS'FUS'
p2494
(lp2495
I31180109
aI31194871
aS'+'
asS'ALG1'
p2496
(lp2497
I5071808
aI5087379
aS'+'
asS'ADCY9'
p2498
(lp2499
I3953386
aI4116012
aS'-'
asS'LOC100507577'
p2500
(lp2501
I48355684
aI48362999
aS'+'
asS'MCRIP2'
p2502
(lp2503
I641848
aI648474
aS'+'
asS'FUK'
p2504
(lp2505
I70454420
aI70480274
aS'+'
asS'LOC102725116'
p2506
(lp2507
I56106047
aI56136743
aS'+'
asS'YPEL3'
p2508
(lp2509
I30092315
aI30096216
aS'-'
asS'LOC105379464'
p2510
(lp2511
I28748970
aI28774040
aS'+'
asS'LOC105379466'
p2512
(lp2513
I32235134
aI32235749
aS'+'
asS'LOC105379461'
p2514
(lp2515
I20674412
aI20679151
aS'+'
asS'LOC105379460'
p2516
(lp2517
I18490569
aI18499772
aS'+'
asS'MKL2'
p2518
(lp2519
I14071075
aI14266779
aS'+'
asS'CLDN9'
p2520
(lp2521
I3012455
aI3014505
aS'+'
asS'PRR25'
p2522
(lp2523
I805442
aI813861
aS'+'
asS'PHKG2'
p2524
(lp2525
I30748298
aI30761176
aS'+'
asS'CLDN6'
p2526
(lp2527
I3014711
aI3018187
aS'-'
asS'ORAI3'
p2528
(lp2529
I30949083
aI30954938
aS'+'
asS'SNORA70D'
p2530
(lp2531
I71698566
aI71698701
aS'-'
asS'BCAR4'
p2532
(lp2533
I11819829
aI11828832
aS'-'
asS'BCAR1'
p2534
(lp2535
I75229029
aI75268053
aS'-'
asS'ERVK13-1'
p2536
(lp2537
I2658388
aI2673439
aS'-'
asS'LOC107984846'
p2538
(lp2539
I22338363
aI22342915
aS'-'
asS'LOC107984844'
p2540
(lp2541
I18926186
aI18937762
aS'+'
asS'LOC107984843'
p2542
(lp2543
I17013757
aI17025795
aS'+'
asS'LOC107984842'
p2544
(lp2545
I88785754
aI88791529
aS'+'
asS'LOC107984840'
p2546
(lp2547
I8737428
aI8739995
aS'-'
asS'SNX29'
p2548
(lp2549
I11976733
aI12574289
aS'+'
asS'SNX20'
p2550
(lp2551
I50666299
aI50681353
aS'-'
asS'NOXO1'
p2552
(lp2553
I1978916
aI1982751
aS'-'
asS'BOLA2-SMG1P6'
p2554
(lp2555
I29442904
aI29454964
aS'-'
asS'ZFHX3'
p2556
(lp2557
I72782884
aI73058635
aS'-'
asS'LOC102724084'
p2558
(lp2559
I80155957
aI80563135
aS'-'
asS'CDT1'
p2560
(lp2561
I88803777
aI88809258
aS'+'
asS'WDR24'
p2562
(lp2563
I684621
aI690661
aS'-'
asS'DDX19A'
p2564
(lp2565
I70346828
aI70373383
aS'+'
asS'DDX19B'
p2566
(lp2567
I70289766
aI70333832
aS'+'
asS'ATP6V0C'
p2568
(lp2569
I2513725
aI2520223
aS'+'
asS'LOC642696'
p2570
(lp2571
I12087528
aI12090669
aS'-'
asS'ANKRD26P1'
p2572
(lp2573
I46469336
aI46569097
aS'-'
asS'TP53TG3HP'
p2574
(lp2575
I35505086
aI35507170
aS'-'
asS'TCF25'
p2576
(lp2577
I89873582
aI89911384
aS'+'
asS'CMC2'
p2578
(lp2579
I80975799
aI81007046
aS'-'
asS'LOC105371341'
p2580
(lp2581
I72202483
aI72211747
aS'+'
asS'LOC105371342'
p2582
(lp2583
I73815645
aI73816011
aS'+'
asS'LOC105371343'
p2584
(lp2585
I74843099
aI74845427
aS'+'
asS'LOC105371344'
p2586
(lp2587
I75256117
aI75262383
aS'+'
asS'LOC105371345'
p2588
(lp2589
I75282100
aI75293547
aS'+'
asS'LOC105371347'
p2590
(lp2591
I75837194
aI75852462
aS'-'
asS'LOC105371348'
p2592
(lp2593
I75760049
aI75917909
aS'+'
asS'LOC105371349'
p2594
(lp2595
I76064650
aI76121911
aS'-'
asS'SRCAP'
p2596
(lp2597
I30699140
aI30740129
aS'+'
asS'NAGPA'
p2598
(lp2599
I5024843
aI5033941
aS'-'
asS'CRNDE'
p2600
(lp2601
I54918862
aI54929189
aS'-'
asS'ERCC4'
p2602
(lp2603
I13920137
aI13952348
aS'+'
asS'USP7'
p2604
(lp2605
I8892093
aI8963484
aS'-'
asS'SOX8'
p2606
(lp2607
I981807
aI986979
aS'+'
asS'FAM192A'
p2608
(lp2609
I57152465
aI57186242
aS'-'
asS'ZNF720'
p2610
(lp2611
I31713228
aI31761565
aS'+'
asS'ITFG1-AS1'
p2612
(lp2613
I47144067
aI47162747
aS'+'
asS'GABARAPL2'
p2614
(lp2615
I75566350
aI75577881
aS'+'
asS'TNFRSF12A'
p2616
(lp2617
I3020311
aI3022383
aS'+'
asS'SNHG19'
p2618
(lp2619
I2154781
aI2155358
aS'-'
asS'PHKB'
p2620
(lp2621
I47461298
aI47701523
aS'+'
asS'ZC3H7A'
p2622
(lp2623
I11750585
aI11797258
aS'-'
asS'PYDC1'
p2624
(lp2625
I31215961
aI31217093
aS'-'
asS'LOC101927793'
p2626
(lp2627
I88883514
aI88887136
aS'+'
asS'LOC105376774'
p2628
(lp2629
I76770538
aI76772931
aS'+'
asS'LOC105376775'
p2630
(lp2631
I77462565
aI77516149
aS'-'
asS'LOC105376777'
p2632
(lp2633
I84286550
aI84294838
aS'+'
asS'LOC105376772'
p2634
(lp2635
I74406288
aI74407219
aS'-'
asS'LOC100128770'
p2636
(lp2637
I3032480
aI3039133
aS'+'
asS'LOC105376778'
p2638
(lp2639
I86049454
aI86060206
aS'+'
asS'LOC283922'
p2640
(lp2641
I74332405
aI74368255
aS'-'
asS'LOC643802'
p2642
(lp2643
I53365390
aI53371212
aS'-'
asS'PAGR1'
p2644
(lp2645
I29816206
aI29822495
aS'+'
asS'LOC105369297'
p2646
(lp2647
I25649435
aI25671222
aS'-'
asS'PSKH1'
p2648
(lp2649
I67893271
aI67929678
aS'+'
asS'CACNG3'
p2650
(lp2651
I24255552
aI24362416
aS'+'
asS'HSF4'
p2652
(lp2653
I67163384
aI67169945
aS'+'
asS'MIR138-2'
p2654
(lp2655
I56858517
aI56858601
aS'+'
asS'IST1'
p2656
(lp2657
I71894407
aI71930639
aS'+'
asS'ATP2C2'
p2658
(lp2659
I84368522
aI84464187
aS'+'
asS'RANBP10'
p2660
(lp2661
I67723065
aI67806652
aS'-'
asS'USB1'
p2662
(lp2663
I57999599
aI58021618
aS'+'
asS'GP2'
p2664
(lp2665
I20309573
aI20327620
aS'-'
asS'SCNN1B'
p2666
(lp2667
I23278230
aI23381295
aS'+'
asS'CETP'
p2668
(lp2669
I56961922
aI56983844
aS'+'
asS'LOC101929480'
p2670
(lp2671
I1713528
aI1715174
aS'-'
asS'DHODH'
p2672
(lp2673
I72008764
aI72027659
aS'+'
asS'LOC107984862'
p2674
(lp2675
I88260226
aI88264540
aS'-'
asS'ZNF276'
p2676
(lp2677
I89720984
aI89740925
aS'+'
asS'TNFRSF17'
p2678
(lp2679
I11965106
aI11968068
aS'+'
asS'EXOC3L1'
p2680
(lp2681
I67184378
aI67190204
aS'-'
asS'LOC102723876'
p2682
(lp2683
I73764194
aI73776957
aS'+'
asS'METRN'
p2684
(lp2685
I715172
aI719655
aS'+'
asS'ACSF3'
p2686
(lp2687
I89093808
aI89155846
aS'+'
asS'TUBB3'
p2688
(lp2689
I89922008
aI89936097
aS'+'
asS'RBFOX1'
p2690
(lp2691
I5239752
aI7713343
aS'+'
asS'OTOA'
p2692
(lp2693
I21664132
aI21771468
aS'+'
asS'LOC100289580'
p2694
(lp2695
I88731179
aI88741425
aS'+'
asS'KNOP1'
p2696
(lp2697
I19706346
aI19718240
aS'-'
asS'PRR35'
p2698
(lp2699
I559785
aI565529
aS'+'
asS'SLX1B'
p2700
(lp2701
I29454500
aI29458224
aS'+'
asS'LOC100134368'
p2702
(lp2703
I382240
aI392960
aS'+'
asS'TERB1'
p2704
(lp2705
I66754409
aI66802801
aS'-'
asS'RHOT2'
p2706
(lp2707
I668082
aI674174
aS'+'
asS'DNAAF1'
p2708
(lp2709
I84145259
aI84178761
aS'+'
asS'LOC107984878'
p2710
(lp2711
I77742618
aI77821317
aS'-'
asS'LOC107984871'
p2712
(lp2713
I88934915
aI88939651
aS'-'
asS'LOC107984876'
p2714
(lp2715
I900533
aI903740
aS'-'
asS'LOC107984877'
p2716
(lp2717
I10441788
aI10444765
aS'-'
asS'LOC107984874'
p2718
(lp2719
I27667350
aI27679220
aS'-'
asS'LOC107984875'
p2720
(lp2721
I30535069
aI30537140
aS'+'
asS'ABCC6P1'
p2722
(lp2723
I18571247
aI18598289
aS'+'
asS'ABCC6P2'
p2724
(lp2725
I14822431
aI14824702
aS'-'
asS'BEAN1'
p2726
(lp2727
I66427296
aI66495288
aS'+'
asS'BCL7C'
p2728
(lp2729
I30834040
aI30894302
aS'-'
asS'LOC101927469'
p2730
(lp2731
I14896998
aI14913440
aS'-'
asS'LOC105371070'
p2732
(lp2733
I7977828
aI8112634
aS'-'
asS'SHCBP1'
p2734
(lp2735
I46578590
aI46621402
aS'-'
asS'LOC102724523'
p2736
(lp2737
I34431898
aI34433114
aS'+'
asS'LOC101927080'
p2738
(lp2739
I47297674
aI47319723
aS'+'
asS'LOC554206'
p2740
(lp2741
I25031740
aI25032777
aS'+'
asS'CDH11'
p2742
(lp2743
I64946779
aI65126112
aS'-'
asS'CDH13'
p2744
(lp2745
I82626793
aI83796610
aS'+'
asS'CDH15'
p2746
(lp2747
I89171754
aI89195492
aS'+'
asS'TRIM72'
p2748
(lp2749
I31214020
aI31225189
aS'+'
asS'CDH16'
p2750
(lp2751
I66908121
aI66918984
aS'-'
asS'NLRC5'
p2752
(lp2753
I56989546
aI57083520
aS'+'
asS'NLRC3'
p2754
(lp2755
I3538271
aI3578373
aS'-'
asS'MIR6504'
p2756
(lp2757
I81611347
aI81611408
aS'+'
asS'MIR6506'
p2758
(lp2759
I15611029
aI15611095
aS'-'
asS'RHBDF1'
p2760
(lp2761
I58058
aI76355
aS'-'
asS'MT3'
p2762
(lp2763
I56589354
aI56591088
aS'+'
asS'CLEC3A'
p2764
(lp2765
I78022545
aI78032106
aS'+'
asS'MT4'
p2766
(lp2767
I56565048
aI56568957
aS'+'
asS'PPL'
p2768
(lp2769
I4882506
aI4937135
aS'-'
asS'GAN'
p2770
(lp2771
I81314965
aI81380198
aS'+'
asS'LOC105371351'
p2772
(lp2773
I77934490
aI77950134
aS'-'
asS'LOC105371350'
p2774
(lp2775
I77590775
aI77626301
aS'+'
asS'LOC105371357'
p2776
(lp2777
I80051350
aI80168480
aS'+'
asS'LOC105371356'
p2778
(lp2779
I79675960
aI79747104
aS'+'
asS'LOC105371354'
p2780
(lp2781
I78607222
aI78613931
aS'+'
asS'LOC105371358'
p2782
(lp2783
I80079859
aI80109575
aS'-'
asS'LOC101930112'
p2784
(lp2785
I89490732
aI89498516
aS'+'
asS'CRAMP1'
p2786
(lp2787
I1614639
aI1677908
aS'+'
asS'LOC100996338'
p2788
(lp2789
I54245543
aI54270879
aS'-'
asS'ALDOA'
p2790
(lp2791
I30053089
aI30070420
aS'+'
asS'CRYM-AS1'
p2792
(lp2793
I21300848
aI21318591
aS'+'
asS'MIR3680-1'
p2794
(lp2795
I21506048
aI21506135
aS'-'
asS'MIR3680-2'
p2796
(lp2797
I29599178
aI29599265
aS'-'
asS'SPATA2L'
p2798
(lp2799
I89696356
aI89701993
aS'-'
asS'ABCC6'
p2800
(lp2801
I16149564
aI16223615
aS'-'
asS'ABCC1'
p2802
(lp2803
I15949576
aI16143074
aS'+'
asS'CPNE7'
p2804
(lp2805
I89575767
aI89597246
aS'+'
asS'LOC105371117'
p2806
(lp2807
I19976375
aI19985078
aS'+'
asS'LOC105371076'
p2808
(lp2809
I10031636
aI10037297
aS'+'
asS'ZFP1'
p2810
(lp2811
I75126284
aI75172234
aS'+'
asS'ZNF668'
p2812
(lp2813
I31060842
aI31074320
aS'-'
asS'ZC3H18-AS1'
p2814
(lp2815
I88553980
aI88561976
aS'-'
asS'LOC105369246'
p2816
(lp2817
I88089514
aI88090793
aS'-'
asS'RSPRY1'
p2818
(lp2819
I57186283
aI57240475
aS'+'
asS'CSNK2A2'
p2820
(lp2821
I58157906
aI58198116
aS'-'
asS'KCTD13'
p2822
(lp2823
I29906334
aI29926247
aS'-'
asS'CASP16P'
p2824
(lp2825
I3144290
aI3149946
aS'+'
asS'KCTD19'
p2826
(lp2827
I67289489
aI67326758
aS'-'
asS'MIR548H2'
p2828
(lp2829
I11306439
aI11306527
aS'-'
asS'MEFV'
p2830
(lp2831
I3242027
aI3256627
aS'-'
asS'ZKSCAN2'
p2832
(lp2833
I25236020
aI25257943
aS'-'
asS'CORO7-PAM16'
p2834
(lp2835
I4340250
aI4416961
aS'-'
asS'PRSS41'
p2836
(lp2837
I2789524
aI2805287
aS'+'
asS'GLIS2'
p2838
(lp2839
I4314760
aI4339597
aS'+'
asS'LOC653786'
p2840
(lp2841
I22545697
aI22576865
aS'+'
asS'LOC105371423'
p2842
(lp2843
I90186141
aI90219472
aS'+'
asS'TRAP1'
p2844
(lp2845
I3658036
aI3717597
aS'-'
asS'TMEM186'
p2846
(lp2847
I8795179
aI8797648
aS'-'
asS'LOC101928707'
p2848
(lp2849
I30355370
aI30357108
aS'+'
asS'LOC101928708'
p2850
(lp2851
I87212114
aI87226430
aS'+'
asS'AP1G1'
p2852
(lp2853
I71728999
aI71809073
aS'-'
asS'HMOX2'
p2854
(lp2855
I4474696
aI4510345
aS'+'
asS'GCSH'
p2856
(lp2857
I81081946
aI81096375
aS'-'
asS'ZNF205-AS1'
p2858
(lp2859
I3110459
aI3115598
aS'-'
asS'DDX11L10'
p2860
(lp2861
I11554
aI14090
aS'+'
asS'SNX29P1'
p2862
(lp2863
I21349362
aI21385933
aS'+'
asS'TMED6'
p2864
(lp2865
I69343245
aI69351809
aS'-'
asS'SNX29P2'
p2866
(lp2867
I29302286
aI29365059
aS'+'
asS'LOC105371308'
p2868
(lp2869
I63106535
aI63619284
aS'-'
asS'LINC01227'
p2870
(lp2871
I80567102
aI80572808
aS'-'
asS'TMEM204'
p2872
(lp2873
I1528740
aI1555580
aS'+'
asS'LINC01229'
p2874
(lp2875
I79770470
aI79801343
aS'+'
asS'LOC101927650'
p2876
(lp2877
I65141755
aI65176573
aS'-'
asS'LMF1-AS1'
p2878
(lp2879
I921032
aI934524
aS'+'
asS'ARL6IP1'
p2880
(lp2881
I18791666
aI18801678
aS'-'
asS'LOC105371184'
p2882
(lp2883
I678517
aI679777
aS'-'
asS'MLST8'
p2884
(lp2885
I2205176
aI2209417
aS'+'
asS'MAPK8IP3'
p2886
(lp2887
I1706182
aI1770317
aS'+'
asS'LOC107984865'
p2888
(lp2889
I14528841
aI14531902
aS'-'
asS'MT1DP'
p2890
(lp2891
I56643686
aI56644941
aS'+'
asS'LOC107984867'
p2892
(lp2893
I58750075
aI58865038
aS'+'
asS'LOC107984861'
p2894
(lp2895
I658629
aI659612
aS'-'
asS'PLEKHG4'
p2896
(lp2897
I67277819
aI67289485
aS'+'
asS'RGS11'
p2898
(lp2899
I268300
aI275943
aS'-'
asS'LOC107984869'
p2900
(lp2901
I15902547
aI15949384
aS'-'
asS'CASC16'
p2902
(lp2903
I52552086
aI52606975
aS'-'
asS'KARS'
p2904
(lp2905
I75627723
aI75647687
aS'-'
asS'UTP4'
p2906
(lp2907
I69132595
aI69169034
aS'+'
asS'LOC107983950'
p2908
(lp2909
I88855127
aI88856581
aS'-'
asS'CLEC16A'
p2910
(lp2911
I10944493
aI11193272
aS'+'
asS'FOPNL'
p2912
(lp2913
I15865718
aI15888649
aS'-'
asS'LOC105371293'
p2914
(lp2915
I58238572
aI58249851
aS'-'
asS'LOC105371291'
p2916
(lp2917
I57567654
aI57607366
aS'-'
asS'LOC105371296'
p2918
(lp2919
I58847656
aI58883291
aS'-'
asS'LOC105371295'
p2920
(lp2921
I58421345
aI58462858
aS'+'
asS'CDR2'
p2922
(lp2923
I22345935
aI22374617
aS'-'
asS'LOC105371298'
p2924
(lp2925
I59412600
aI59442315
aS'-'
asS'LOC105371299'
p2926
(lp2927
I59944169
aI59971667
aS'-'
asS'LOC100506083'
p2928
(lp2929
I70315639
aI70346747
aS'-'
asS'DOK4'
p2930
(lp2931
I57471957
aI57486473
aS'-'
asS'LDHD'
p2932
(lp2933
I75111859
aI75116772
aS'-'
asS'NPIPA8'
p2934
(lp2935
I18317918
aI18334967
aS'-'
asS'LONP2'
p2936
(lp2937
I48244166
aI48353979
aS'+'
asS'ORC6'
p2938
(lp2939
I46689645
aI46698394
aS'+'
asS'LOC101927272'
p2940
(lp2941
I50668854
aI50671639
aS'+'
asS'PDIA2'
p2942
(lp2943
I283117
aI287209
aS'+'
asS'ESRP2'
p2944
(lp2945
I68228546
aI68236233
aS'-'
asS'MIR484'
p2946
(lp2947
I15643293
aI15643372
aS'+'
asS'PDPK1'
p2948
(lp2949
I2537963
aI2603190
aS'+'
asS'ARMC5'
p2950
(lp2951
I31458272
aI31467167
aS'+'
asS'MIR762HG'
p2952
(lp2953
I30875459
aI30895220
aS'+'
asS'LOC105371368'
p2954
(lp2955
I83381047
aI83400968
aS'-'
asS'SGF29'
p2956
(lp2957
I28553914
aI28591790
aS'+'
asS'LOC105371366'
p2958
(lp2959
I83664585
aI83723891
aS'-'
asS'AARS'
p2960
(lp2961
I70252294
aI70289552
aS'-'
asS'LOC105371362'
p2962
(lp2963
I81629893
aI81632822
aS'-'
asS'LOC105371363'
p2964
(lp2965
I82044332
aI82064456
aS'-'
asS'LOC105371360'
p2966
(lp2967
I80551848
aI80555068
aS'+'
asS'LOC105371361'
p2968
(lp2969
I81071675
aI81076598
aS'+'
asS'LOC105371168'
p2970
(lp2971
I29597787
aI29603662
aS'+'
asS'LINC00311'
p2972
(lp2973
I85282957
aI85288082
aS'+'
asS'LOC105371167'
p2974
(lp2975
I29787512
aI29788123
aS'+'
asS'LOC105371161'
p2976
(lp2977
I29140628
aI29154131
aS'-'
asS'SNAI3-AS1'
p2978
(lp2979
I88663372
aI88687186
aS'+'
as.