(dp1
S'HIF3A'
p2
(lp3
I46297045
aI46343433
aS'+'
asS'LOC100996349'
p4
(lp5
I22608015
aI22608501
aS'+'
asS'ELANE'
p6
(lp7
I850996
aI856250
aS'+'
asS'CCNE1'
p8
(lp9
I29811993
aI29824317
aS'+'
asS'MIR6088'
p10
(lp11
I45436653
aI45436704
aS'+'
asS'C19orf68'
p12
(lp13
I48170661
aI48197621
aS'+'
asS'CEACAM1'
p14
(lp15
I42507305
aI42528509
aS'-'
asS'ZNF709'
p16
(lp17
I12461183
aI12484818
aS'-'
asS'ZNF708'
p18
(lp19
I21290387
aI21329438
aS'-'
asS'ZNF878'
p20
(lp21
I12043804
aI12052967
aS'-'
asS'ZNF701'
p22
(lp23
I52570274
aI52627269
aS'+'
asS'ZNF700'
p24
(lp25
I11925067
aI11950773
aS'+'
asS'LOC105372282'
p26
(lp27
I13104204
aI13106059
aS'+'
asS'ZSWIM4'
p28
(lp29
I13795425
aI13832254
aS'+'
asS'LOC105372284'
p30
(lp31
I13684208
aI13724394
aS'-'
asS'VN1R2'
p32
(lp33
I53258291
aI53259602
aS'+'
asS'CBLC'
p34
(lp35
I44777868
aI44800646
aS'+'
asS'DNASE2'
p36
(lp37
I12875210
aI12881521
aS'-'
asS'ZNF45'
p38
(lp39
I43912628
aI43935278
aS'-'
asS'ZNF44'
p40
(lp41
I12224685
aI12294898
aS'-'
asS'ZNF43'
p42
(lp43
I21804945
aI21852095
aS'-'
asS'MIR6885'
p44
(lp45
I6389637
aI6389703
aS'-'
asS'MIR6887'
p46
(lp47
I35122699
aI35122764
aS'+'
asS'MIR6886'
p48
(lp49
I11113473
aI11113534
aS'+'
asS'CRB3'
p50
(lp51
I6463776
aI6467221
aS'+'
asS'CEP89'
p52
(lp53
I32875924
aI32972024
aS'-'
asS'OPA3'
p54
(lp55
I45527766
aI45584864
aS'-'
asS'LOC101928572'
p56
(lp57
I2302314
aI2304225
aS'+'
asS'ZNF677'
p58
(lp59
I53235380
aI53254903
aS'-'
asS'ZNF676'
p60
(lp61
I22179100
aI22196951
aS'-'
asS'ZNF675'
p62
(lp63
I23651078
aI23687220
aS'-'
asS'PRRG2'
p64
(lp65
I49580616
aI49591004
aS'+'
asS'TRAPPC5'
p66
(lp67
I7680820
aI7682862
aS'+'
asS'NRTN'
p68
(lp69
I5805386
aI5828324
aS'+'
asS'MAG'
p70
(lp71
I35292085
aI35313807
aS'+'
asS'SPPL2B'
p72
(lp73
I2328629
aI2355102
aS'+'
asS'MIR6719'
p74
(lp75
I39829715
aI39829802
aS'-'
asS'ZSCAN18'
p76
(lp77
I58083841
aI58118426
aS'-'
asS'LOC100505715'
p78
(lp79
I43891803
aI43901803
aS'-'
asS'MFSD12'
p80
(lp81
I3538269
aI3557591
aS'-'
asS'LOC107987271'
p82
(lp83
I55401939
aI55403245
aS'+'
asS'LOC107987270'
p84
(lp85
I53302022
aI53308578
aS'-'
asS'LOC107987272'
p86
(lp87
I58586266
aI58590946
aS'+'
asS'LOC102724958'
p88
(lp89
I28968467
aI28970672
aS'+'
asS'LILRB5'
p90
(lp91
I54250404
aI54257308
aS'-'
asS'LILRB4'
p92
(lp93
I54662818
aI54670359
aS'+'
asS'LILRB3'
p94
(lp95
I54216277
aI54223087
aS'-'
asS'LILRB2'
p96
(lp97
I54273820
aI54281178
aS'-'
asS'LILRB1'
p98
(lp99
I54616934
aI54637925
aS'+'
asS'KIR2DS4'
p100
(lp101
I54832675
aI54848569
aS'+'
asS'FBXL12'
p102
(lp103
I9810269
aI9820527
aS'-'
asS'LSR'
p104
(lp105
I35248655
aI35267964
aS'+'
asS'PRSS57'
p106
(lp107
I685520
aI695461
aS'-'
asS'CHST8'
p108
(lp109
I33621954
aI33773509
aS'+'
asS'EPS15L1'
p110
(lp111
I16355243
aI16472012
aS'-'
asS'VN1R4'
p112
(lp113
I53264417
aI53270939
aS'-'
asS'TMEM190'
p114
(lp115
I55376125
aI55378246
aS'+'
asS'ZNF296'
p116
(lp117
I45071499
aI45076430
aS'-'
asS'LEUTX'
p118
(lp119
I39776593
aI39786135
aS'+'
asS'SARS2'
p120
(lp121
I38915263
aI38930896
aS'-'
asS'LIN37'
p122
(lp123
I35748360
aI35754519
aS'+'
asS'MIR4324'
p124
(lp125
I49308796
aI49308868
aS'-'
asS'LOC102723811'
p126
(lp127
I1246276
aI1248509
aS'-'
asS'AP3D1'
p128
(lp129
I2100988
aI2151620
aS'-'
asS'ERICH4'
p130
(lp131
I41442425
aI41444765
aS'+'
asS'FAM71E1'
p132
(lp133
I50466784
aI50476746
aS'-'
asS'FAM71E2'
p134
(lp135
I55354907
aI55363252
aS'-'
asS'C19orf18'
p136
(lp137
I57958436
aI57974534
aS'-'
asS'C19orf12'
p138
(lp139
I29698885
aI29715789
aS'-'
asS'CCDC114'
p140
(lp141
I48296451
aI48322793
aS'-'
asS'ATP1A3'
p142
(lp143
I41966581
aI41994276
aS'-'
asS'CLPTM1'
p144
(lp145
I44954584
aI44993346
aS'+'
asS'WTIP'
p146
(lp147
I34481934
aI34509147
aS'+'
asS'SPHK2'
p148
(lp149
I48619290
aI48630406
aS'+'
asS'PGLYRP2'
p150
(lp151
I15468644
aI15479504
aS'-'
asS'PGLYRP1'
p152
(lp153
I46019152
aI46023298
aS'-'
asS'CHAF1A'
p154
(lp155
I4402595
aI4448322
aS'+'
asS'ZNF780A'
p156
(lp157
I40069151
aI40091706
aS'-'
asS'ZNF780B'
p158
(lp159
I40028259
aI40056208
aS'-'
asS'PIN1'
p160
(lp161
I9835206
aI9849689
aS'+'
asS'RDH8'
p162
(lp163
I10013248
aI10022278
aS'+'
asS'MIR4530'
p164
(lp165
I39409622
aI39409678
aS'-'
asS'LOC105372407'
p166
(lp167
I42522757
aI42525966
aS'+'
asS'LOC105372404'
p168
(lp169
I41598624
aI41605984
aS'+'
asS'LOC105372405'
p170
(lp171
I41641320
aI41663250
aS'-'
asS'HSPC102'
p172
(lp173
I11300776
aI11301535
aS'-'
asS'LOC105372401'
p174
(lp175
I41307075
aI41310412
aS'-'
asS'CLIP3'
p176
(lp177
I36014659
aI36032895
aS'-'
asS'ZNF682'
p178
(lp179
I20004417
aI20039468
aS'-'
asS'LOC101930593'
p180
(lp181
I55159338
aI55164288
aS'+'
asS'TIMM50'
p182
(lp183
I39480411
aI39493019
aS'+'
asS'KISS1R'
p184
(lp185
I916692
aI920551
aS'+'
asS'CA11'
p186
(lp187
I48637941
aI48646312
aS'-'
asS'ATG4D'
p188
(lp189
I10543893
aI10553423
aS'+'
asS'MIR769'
p190
(lp191
I46018931
aI46019049
aS'+'
asS'RPL28'
p192
(lp193
I55385931
aI55392085
aS'+'
asS'THAP8'
p194
(lp195
I36034983
aI36054785
aS'-'
asS'CFD'
p196
(lp197
I859658
aI863569
aS'+'
asS'MIR371B'
p198
(lp199
I53787676
aI53787742
aS'-'
asS'MIR371A'
p200
(lp201
I53787674
aI53787741
aS'+'
asS'ZNF724P'
p202
(lp203
I23223804
aI23250370
aS'-'
asS'HAMP'
p204
(lp205
I35282345
aI35285143
aS'+'
asS'SPRED3'
p206
(lp207
I38390199
aI38399884
aS'+'
asS'CYP4F8'
p208
(lp209
I15615217
aI15629638
aS'+'
asS'APOC4-APOC2'
p210
(lp211
I44942237
aI44949565
aS'+'
asS'LOC101927411'
p212
(lp213
I32102087
aI32105916
aS'-'
asS'CYP4F2'
p214
(lp215
I15878023
aI15898120
aS'-'
asS'CYP4F3'
p216
(lp217
I15640896
aI15660760
aS'+'
asS'SIX5'
p218
(lp219
I45764784
aI45769239
aS'-'
asS'ATP5SL'
p220
(lp221
I41431317
aI41447822
aS'-'
asS'FKBP1AP1'
p222
(lp223
I57825279
aI57827462
aS'-'
asS'ZNF587B'
p224
(lp225
I57830293
aI57846238
aS'+'
asS'RELB'
p226
(lp227
I45001448
aI45038198
aS'+'
asS'PRX'
p228
(lp229
I40393761
aI40414718
aS'-'
asS'HMG20B'
p230
(lp231
I3572937
aI3579083
aS'+'
asS'MRPL34'
p232
(lp233
I17302806
aI17306843
aS'+'
asS'CLEC17A'
p234
(lp235
I14580776
aI14612035
aS'+'
asS'LOC100996351'
p236
(lp237
I3141575
aI3155175
aS'-'
asS'ARRDC5'
p238
(lp239
I4867613
aI4903081
aS'-'
asS'KLK2'
p240
(lp241
I50873432
aI50880567
aS'+'
asS'KLK3'
p242
(lp243
I50854914
aI50860764
aS'+'
asS'KLK4'
p244
(lp245
I50906351
aI50910738
aS'-'
asS'KLK5'
p246
(lp247
I50943302
aI50953088
aS'-'
asS'DMRTC2'
p248
(lp249
I41844742
aI41852330
aS'+'
asS'ZFP82'
p250
(lp251
I36383101
aI36418674
aS'-'
asS'KLK8'
p252
(lp253
I50996007
aI51001702
aS'-'
asS'KLK9'
p254
(lp255
I51002512
aI51009634
aS'-'
asS'RFPL4AL1'
p256
(lp257
I55769117
aI55773423
aS'+'
asS'ZNF671'
p258
(lp259
I57719746
aI57727637
aS'-'
asS'ZNF841'
p260
(lp261
I52058099
aI52095757
aS'-'
asS'ZNF844'
p262
(lp263
I12064698
aI12077816
aS'+'
asS'ZNF845'
p264
(lp265
I53333718
aI53356119
aS'+'
asS'RFX2'
p266
(lp267
I5993163
aI6110653
aS'-'
asS'PAK4'
p268
(lp269
I39125779
aI39179406
aS'+'
asS'DBP'
p270
(lp271
I48630559
aI48637550
aS'-'
asS'UQCRFS1'
p272
(lp273
I29207259
aI29213229
aS'-'
asS'ZNF57'
p274
(lp275
I2900897
aI2918476
aS'+'
asS'LOC101928543'
p276
(lp277
I1764816
aI1781351
aS'-'
asS'ZNF599'
p278
(lp279
I34758073
aI34773229
aS'-'
asS'ZNF600'
p280
(lp281
I52764812
aI52786791
aS'-'
asS'ZNF606'
p282
(lp283
I57977071
aI58003346
aS'-'
asS'ZNF607'
p284
(lp285
I37696362
aI37719790
aS'-'
asS'ZFR2'
p286
(lp287
I3804023
aI3869029
aS'-'
asS'LOC100996288'
p288
(lp289
I9834078
aI9835103
aS'-'
asS'KXD1'
p290
(lp291
I18557761
aI18569387
aS'+'
asS'MIR525'
p292
(lp293
I53697532
aI53697617
aS'+'
asS'TCF3'
p294
(lp295
I1609291
aI1652590
aS'-'
asS'EPS8L1'
p296
(lp297
I55075852
aI55087923
aS'+'
asS'PHLDB3'
p298
(lp299
I43474340
aI43504916
aS'-'
asS'MIR524'
p300
(lp301
I53711001
aI53711088
aS'+'
asS'PPP5C'
p302
(lp303
I46346993
aI46390975
aS'+'
asS'MEF2B'
p304
(lp305
I19145566
aI19170289
aS'-'
asS'SHISA7'
p306
(lp307
I55428737
aI55442863
aS'-'
asS'ZNF114'
p308
(lp309
I48270098
aI48287608
aS'+'
asS'ZNF112'
p310
(lp311
I44326552
aI44356704
aS'-'
asS'TMC4'
p312
(lp313
I54160094
aI54173250
aS'-'
asS'MIR527'
p314
(lp315
I53754017
aI53754102
aS'+'
asS'LOC101060187'
p316
(lp317
I19745228
aI19753672
aS'-'
asS'EPHX3'
p318
(lp319
I15226921
aI15233047
aS'-'
asS'ZNF333'
p320
(lp321
I14690039
aI14733746
aS'+'
asS'ZNF331'
p322
(lp323
I53503818
aI53580260
aS'+'
asS'ZNF91'
p324
(lp325
I23305003
aI23395560
aS'-'
asS'NUP62'
p326
(lp327
I49906824
aI49929731
aS'-'
asS'LOC101929144'
p328
(lp329
I23054822
aI23061265
aS'-'
asS'TPM4'
p330
(lp331
I16067506
aI16103003
aS'+'
asS'CIB3'
p332
(lp333
I16161367
aI16173525
aS'-'
asS'KIAA1683'
p334
(lp335
I18257095
aI18274509
aS'-'
asS'MIDN'
p336
(lp337
I1248551
aI1259143
aS'+'
asS'PLPP2'
p338
(lp339
I281039
aI291435
aS'-'
asS'NTF4'
p340
(lp341
I49058283
aI49062671
aS'-'
asS'TPM3P9'
p342
(lp343
I53431973
aI53444672
aS'+'
asS'TMEM147'
p344
(lp345
I35545599
aI35547527
aS'+'
asS'LOC105372233'
p346
(lp347
I567432
aI572148
aS'-'
asS'LOC105372232'
p348
(lp349
I499575
aI507833
aS'-'
asS'LOC105372235'
p350
(lp351
I1007242
aI1008269
aS'-'
asS'LOC105372234'
p352
(lp353
I633859
aI634335
aS'+'
asS'LOC101928926'
p354
(lp355
I19786609
aI19816005
aS'+'
asS'LOC105372236'
p356
(lp357
I1262101
aI1265098
aS'-'
asS'LOC105372238'
p358
(lp359
I1940113
aI1941074
aS'-'
asS'TJP3'
p360
(lp361
I3708336
aI3750813
aS'+'
asS'SNORA104'
p362
(lp363
I14622212
aI14622351
aS'+'
asS'PPAN'
p364
(lp365
I10106222
aI10111299
aS'+'
asS'RHPN2'
p366
(lp367
I32978591
aI33064918
aS'-'
asS'OR7A5'
p368
(lp369
I14825742
aI14835197
aS'-'
asS'BABAM1'
p370
(lp371
I17267375
aI17279353
aS'+'
asS'F2RL3'
p372
(lp373
I16889014
aI16892019
aS'+'
asS'SNORD88A'
p374
(lp375
I50799438
aI50799535
aS'-'
asS'FAM32A'
p376
(lp377
I16185183
aI16192046
aS'+'
asS'SNORD88C'
p378
(lp379
I50802324
aI50802421
aS'-'
asS'XAB2'
p380
(lp381
I7619524
aI7629553
aS'-'
asS'LOC105372392'
p382
(lp383
I37328187
aI37330124
aS'+'
asS'PRDX2'
p384
(lp385
I12796819
aI12801910
aS'-'
asS'C19orf24'
p386
(lp387
I1275520
aI1279244
aS'+'
asS'C19orf25'
p388
(lp389
I1473200
aI1479552
aS'-'
asS'MIR181D'
p390
(lp391
I13874874
aI13875011
aS'+'
asS'MIR181C'
p392
(lp393
I13874698
aI13874808
aS'+'
asS'SYCN'
p394
(lp395
I39202921
aI39204266
aS'-'
asS'ZNF8'
p396
(lp397
I58278951
aI58295888
aS'+'
asS'MIR3940'
p398
(lp399
I6416409
aI6416511
aS'-'
asS'MIR8061'
p400
(lp401
I54645308
aI54645383
aS'+'
asS'ZNF559-ZNF177'
p402
(lp403
I9324225
aI9382617
aS'+'
asS'SULT2A1'
p404
(lp405
I47870465
aI47886397
aS'-'
asS'LOC107985288'
p406
(lp407
I13194662
aI13206545
aS'+'
asS'LOC107985289'
p408
(lp409
I40251361
aI40254327
aS'-'
asS'AP2A1'
p410
(lp411
I49766922
aI49807112
aS'+'
asS'LOC107985282'
p412
(lp413
I8239752
aI8240477
aS'-'
asS'LOC107985283'
p414
(lp415
I7224223
aI7226164
aS'-'
asS'PBX4'
p416
(lp417
I19561706
aI19618916
aS'-'
asS'CYTH2'
p418
(lp419
I48469207
aI48482314
aS'+'
asS'LOC107985286'
p420
(lp421
I13013887
aI13014331
aS'-'
asS'LOC107985287'
p422
(lp423
I13518974
aI13520591
aS'-'
asS'LOC107985284'
p424
(lp425
I7383202
aI7395060
aS'-'
asS'LOC107985285'
p426
(lp427
I23310547
aI23319352
aS'+'
asS'LOC105372419'
p428
(lp429
I45085328
aI45090391
aS'-'
asS'IGLON5'
p430
(lp431
I51311847
aI51330848
aS'+'
asS'LOC100128568'
p432
(lp433
I5978402
aI6020363
aS'+'
asS'LOC105372411'
p434
(lp435
I43619004
aI43632839
aS'+'
asS'LOC105372410'
p436
(lp437
I43636777
aI43638028
aS'+'
asS'LOC105372412'
p438
(lp439
I43687556
aI43700540
aS'+'
asS'LOC105372414'
p440
(lp441
I44022975
aI44025263
aS'-'
asS'ARHGAP33'
p442
(lp443
I35775514
aI35788822
aS'+'
asS'ARHGAP35'
p444
(lp445
I46861001
aI47005077
aS'+'
asS'BCKDHA'
p446
(lp447
I41397788
aI41425005
aS'+'
asS'ZNF808'
p448
(lp449
I52527656
aI52566018
aS'+'
asS'LOC107985339'
p450
(lp451
I6592415
aI6604085
aS'-'
asS'TIMM44'
p452
(lp453
I7926717
aI7943823
aS'-'
asS'CKM'
p454
(lp455
I45306412
aI45322977
aS'-'
asS'KMT5C'
p456
(lp457
I55339361
aI55348121
aS'+'
asS'CD33'
p458
(lp459
I51211053
aI51240016
aS'+'
asS'MAMSTR'
p460
(lp461
I48705717
aI48716953
aS'-'
asS'CD37'
p462
(lp463
I49335313
aI49340608
aS'+'
asS'ZNF321P'
p464
(lp465
I52927134
aI52942594
aS'-'
asS'NAT14'
p466
(lp467
I55485189
aI55487568
aS'+'
asS'CALM3'
p468
(lp469
I46601254
aI46610782
aS'+'
asS'CACNA1A'
p470
(lp471
I13206441
aI13506460
aS'-'
asS'DNMT1'
p472
(lp473
I10133343
aI10195135
aS'-'
asS'UPK1A'
p474
(lp475
I35666126
aI35678485
aS'+'
asS'WDR62'
p476
(lp477
I36054880
aI36111145
aS'+'
asS'A1BG'
p478
(lp479
I58346805
aI58353499
aS'-'
asS'FCAR'
p480
(lp481
I54874092
aI54891420
aS'+'
asS'TRIM28'
p482
(lp483
I58544468
aI58550715
aS'+'
asS'PNKP'
p484
(lp485
I49861202
aI49867565
aS'-'
asS'R3HDM4'
p486
(lp487
I896502
aI913225
aS'-'
asS'PRMT1'
p488
(lp489
I49676165
aI49688447
aS'+'
asS'BRD4'
p490
(lp491
I15236835
aI15332542
aS'-'
asS'RBM42'
p492
(lp493
I35629015
aI35637686
aS'+'
asS'FCER2'
p494
(lp495
I7688758
aI7702755
aS'-'
asS'MIR150'
p496
(lp497
I49500784
aI49500868
aS'-'
asS'AKT2'
p498
(lp499
I40230316
aI40285395
aS'-'
asS'PIH1D1'
p500
(lp501
I49446297
aI49452332
aS'-'
asS'AES'
p502
(lp503
I3052909
aI3063107
aS'-'
asS'CD209'
p504
(lp505
I7739992
aI7747609
aS'-'
asS'LAIR1'
p506
(lp507
I54353623
aI54370556
aS'-'
asS'OR10H4'
p508
(lp509
I15949007
aI15949958
aS'+'
asS'ZNF850'
p510
(lp511
I36743477
aI36772814
aS'-'
asS'TDRD12'
p512
(lp513
I32720012
aI32829580
aS'+'
asS'ZSCAN1'
p514
(lp515
I58034742
aI58058907
aS'+'
asS'PPM1N'
p516
(lp517
I45497963
aI45502694
aS'+'
asS'MADCAM1'
p518
(lp519
I496489
aI505343
aS'+'
asS'ZFP30'
p520
(lp521
I37632487
aI37656261
aS'-'
asS'TSHZ3'
p522
(lp523
I31274944
aI31349284
aS'-'
asS'ZNF581'
p524
(lp525
I55635027
aI55645623
aS'+'
asS'ZNF580'
p526
(lp527
I55641025
aI55643470
aS'+'
asS'MRPL4'
p528
(lp529
I10251963
aI10260060
aS'+'
asS'ZNF582'
p530
(lp531
I56382750
aI56393601
aS'-'
asS'ZNF584'
p532
(lp533
I58408170
aI58418327
aS'+'
asS'BORCS8-MEF2B'
p534
(lp535
I19145566
aI19192591
aS'-'
asS'ZNF586'
p536
(lp537
I57769651
aI57780616
aS'+'
asS'PTH2'
p538
(lp539
I49422413
aI49423441
aS'-'
asS'ZNF611'
p540
(lp541
I52702812
aI52735054
aS'-'
asS'ZNF610'
p542
(lp543
I52336244
aI52367123
aS'+'
asS'ZNF613'
p544
(lp545
I51927146
aI51946147
aS'+'
asS'ZNF615'
p546
(lp547
I51991333
aI52008230
aS'-'
asS'ZNF614'
p548
(lp549
I52013323
aI52028427
aS'-'
asS'ZNF616'
p550
(lp551
I52113090
aI52139938
aS'-'
asS'NANOS3'
p552
(lp553
I13876382
aI13880762
aS'+'
asS'NANOS2'
p554
(lp555
I45913213
aI45914778
aS'-'
asS'ZNF350-AS1'
p556
(lp557
I51949133
aI51981367
aS'+'
asS'MYDGF'
p558
(lp559
I4657544
aI4670403
aS'-'
asS'MBD3L1'
p560
(lp561
I8842592
aI8843340
aS'+'
asS'MBD3L2'
p562
(lp563
I7049339
aI7051735
aS'+'
asS'MBD3L3'
p564
(lp565
I7056204
aI7058634
aS'-'
asS'MBD3L4'
p566
(lp567
I7037743
aI7040173
aS'-'
asS'MBD3L5'
p568
(lp569
I7030582
aI7033011
aS'+'
asS'MYO1F'
p570
(lp571
I8520789
aI8577447
aS'-'
asS'EVI5L'
p572
(lp573
I7830274
aI7864976
aS'+'
asS'ADAMTS10'
p574
(lp575
I8580239
aI8610735
aS'-'
asS'RPS5'
p576
(lp577
I58387268
aI58394804
aS'+'
asS'DHDH'
p578
(lp579
I48932789
aI48944969
aS'+'
asS'CYP2S1'
p580
(lp581
I41193206
aI41207539
aS'+'
asS'MIR24-2'
p582
(lp583
I13836286
aI13836359
aS'-'
asS'RPS9'
p584
(lp585
I54200556
aI54207647
aS'+'
asS'CD79A'
p586
(lp587
I41877119
aI41881372
aS'+'
asS'CNTD2'
p588
(lp589
I40222207
aI40227111
aS'-'
asS'GMFG'
p590
(lp591
I39328356
aI39336086
aS'-'
asS'NAPA-AS1'
p592
(lp593
I47484281
aI47501597
aS'+'
asS'AKAP8L'
p594
(lp595
I15380047
aI15419121
aS'-'
asS'TMEM205'
p596
(lp597
I11342775
aI11346305
aS'-'
asS'ERCC1'
p598
(lp599
I45407333
aI45478862
aS'-'
asS'C3'
p600
(lp601
I6677834
aI6720682
aS'-'
asS'ZNF101'
p602
(lp603
I19668152
aI19683506
aS'+'
asS'ZNF100'
p604
(lp605
I21724040
aI21767628
aS'-'
asS'TTYH1'
p606
(lp607
I54415430
aI54436719
aS'+'
asS'TSSK6'
p608
(lp609
I19514218
aI19515660
aS'-'
asS'ZNF324'
p610
(lp611
I58467044
aI58473578
aS'+'
asS'FBXO46'
p612
(lp613
I45710628
aI45730893
aS'-'
asS'GALP'
p614
(lp615
I56176019
aI56185775
aS'+'
asS'ZNF320'
p616
(lp617
I52863789
aI52894151
aS'-'
asS'ZNF329'
p618
(lp619
I58126327
aI58155169
aS'-'
asS'IGSF23'
p620
(lp621
I44613629
aI44636781
aS'+'
asS'LGALS7'
p622
(lp623
I38770967
aI38773517
aS'-'
asS'LGALS4'
p624
(lp625
I38801670
aI38813544
aS'-'
asS'CYP4F22'
p626
(lp627
I15508486
aI15552317
aS'+'
asS'MIR526B'
p628
(lp629
I53694392
aI53694475
aS'+'
asS'RFPL4A'
p630
(lp631
I55757297
aI55763388
aS'+'
asS'PLAUR'
p632
(lp633
I43646094
aI43670346
aS'-'
asS'NLRP12'
p634
(lp635
I53793583
aI53824403
aS'-'
asS'LRRC25'
p636
(lp637
I18391136
aI18397642
aS'-'
asS'GCDH'
p638
(lp639
I12891159
aI12915345
aS'+'
asS'KIR2DL3'
p640
(lp641
I54738508
aI54753052
aS'+'
asS'LYPD4'
p642
(lp643
I41833685
aI41844673
aS'-'
asS'LYPD5'
p644
(lp645
I43794834
aI43827199
aS'-'
asS'LYPD3'
p646
(lp647
I43460793
aI43465679
aS'-'
asS'MPND'
p648
(lp649
I4343526
aI4360086
aS'+'
asS'USE1'
p650
(lp651
I17214527
aI17219831
aS'+'
asS'C19orf35'
p652
(lp653
I2274631
aI2282182
aS'-'
asS'HPN'
p654
(lp655
I35040505
aI35066573
aS'+'
asS'C19orf33'
p656
(lp657
I38304160
aI38305006
aS'+'
asS'CATSPERD'
p658
(lp659
I5720384
aI5778734
aS'+'
asS'CATSPERG'
p660
(lp661
I38335562
aI38370946
aS'+'
asS'C19orf38'
p662
(lp663
I10836571
aI10869791
aS'+'
asS'ANKLE1'
p664
(lp665
I17281644
aI17287646
aS'+'
asS'MZF1'
p666
(lp667
I58561920
aI58573760
aS'-'
asS'LOC105372399'
p668
(lp669
I39547456
aI39555835
aS'+'
asS'LOC105372396'
p670
(lp671
I38024950
aI38027091
aS'-'
asS'LOC105372397'
p672
(lp673
I38596346
aI38601694
aS'+'
asS'LOC105372394'
p674
(lp675
I37807811
aI37817611
aS'-'
asS'LOC105372395'
p676
(lp677
I37855763
aI37896673
aS'+'
asS'SRRM5'
p678
(lp679
I43612100
aI43614498
aS'+'
asS'LOC105372390'
p680
(lp681
I37076086
aI37078167
aS'-'
asS'OAZ1'
p682
(lp683
I2269485
aI2273488
aS'+'
asS'KLKP1'
p684
(lp685
I50882095
aI50896398
aS'-'
asS'KANK2'
p686
(lp687
I11164266
aI11197567
aS'-'
asS'KANK3'
p688
(lp689
I8322583
aI8343262
aS'-'
asS'RDH13'
p690
(lp691
I55044315
aI55069774
aS'-'
asS'DEDD2'
p692
(lp693
I42198592
aI42220152
aS'-'
asS'RGL3'
p694
(lp695
I11394055
aI11419342
aS'-'
asS'FXYD7'
p696
(lp697
I35143249
aI35154302
aS'+'
asS'FXYD5'
p698
(lp699
I35154721
aI35169885
aS'+'
asS'FXYD3'
p700
(lp701
I35115827
aI35124324
aS'+'
asS'FXYD1'
p702
(lp703
I35137206
aI35143052
aS'+'
asS'KLK12'
p704
(lp705
I51028953
aI51035648
aS'-'
asS'KLK13'
p706
(lp707
I51056205
aI51065110
aS'-'
asS'KLK10'
p708
(lp709
I51012743
aI51020175
aS'-'
asS'KLK11'
p710
(lp711
I51022230
aI51028034
aS'-'
asS'KLK14'
p712
(lp713
I51077494
aI51084210
aS'-'
asS'KLK15'
p714
(lp715
I50825288
aI50834337
aS'-'
asS'LOC107985295'
p716
(lp717
I242738
aI245020
aS'-'
asS'LOC107985297'
p718
(lp719
I4410486
aI4413716
aS'+'
asS'LOC107985291'
p720
(lp721
I38701923
aI38728309
aS'-'
asS'LOC107985290'
p722
(lp723
I38525612
aI38528555
aS'-'
asS'LOC107985293'
p724
(lp725
I48145177
aI48156715
aS'+'
asS'LOC107985292'
p726
(lp727
I52008284
aI52022987
aS'+'
asS'PLIN4'
p728
(lp729
I4502191
aI4520285
aS'-'
asS'PLIN5'
p730
(lp731
I4522530
aI4535196
aS'-'
asS'LOC107985299'
p732
(lp733
I40893530
aI40905615
aS'-'
asS'PLIN3'
p734
(lp735
I4838333
aI4867768
aS'-'
asS'PLVAP'
p736
(lp737
I17351447
aI17377349
aS'-'
asS'LOC100506114'
p738
(lp739
I50486559
aI50488277
aS'-'
asS'ZSCAN22'
p740
(lp741
I58326999
aI58342336
aS'+'
asS'LOC102724290'
p742
(lp743
I54671494
aI54672828
aS'+'
asS'CYP2A13'
p744
(lp745
I41088450
aI41096195
aS'+'
asS'CD22'
p746
(lp747
I35329165
aI35347358
aS'+'
asS'IFI30'
p748
(lp749
I18173779
aI18178124
aS'+'
asS'ABHD8'
p750
(lp751
I17292130
aI17303473
aS'-'
asS'NUCB1'
p752
(lp753
I48900049
aI48923283
aS'+'
asS'URI1'
p754
(lp755
I29923643
aI30016612
aS'+'
asS'GPR4'
p756
(lp757
I45589763
aI45602208
aS'-'
asS'PSG8'
p758
(lp759
I42752688
aI42765692
aS'-'
asS'LOC102724360'
p760
(lp761
I18940253
aI18946831
aS'+'
asS'PSG6'
p762
(lp763
I42902081
aI42917924
aS'-'
asS'PSG7'
p764
(lp765
I42924131
aI42937178
aS'-'
asS'PSG4'
p766
(lp767
I43192701
aI43205774
aS'-'
asS'PSG5'
p768
(lp769
I43167742
aI43186536
aS'-'
asS'PSG2'
p770
(lp771
I43064209
aI43082741
aS'-'
asS'PSG3'
p772
(lp773
I42721641
aI42740516
aS'-'
asS'PSG1'
p774
(lp775
I42866460
aI42879719
aS'-'
asS'PTOV1'
p776
(lp777
I49850725
aI49860742
aS'+'
asS'USHBP1'
p778
(lp779
I17250020
aI17264796
aS'-'
asS'HCST'
p780
(lp781
I35902364
aI35904271
aS'+'
asS'MIR639'
p782
(lp783
I14529542
aI14529640
aS'+'
asS'MIR638'
p784
(lp785
I10718403
aI10718503
aS'+'
asS'PLEKHJ1'
p786
(lp787
I2229951
aI2236353
aS'-'
asS'MIR637'
p788
(lp789
I3961413
aI3961512
aS'-'
asS'ZNF585A'
p790
(lp791
I37147437
aI37172741
aS'-'
asS'LSM4'
p792
(lp793
I18306229
aI18323191
aS'-'
asS'ZNF585B'
p794
(lp795
I37181578
aI37210549
aS'-'
asS'PEG3-AS1'
p796
(lp797
I56812479
aI56813793
aS'+'
asS'RCN3'
p798
(lp799
I49527578
aI49543638
aS'+'
asS'CENPBD1P1'
p800
(lp801
I58575398
aI58584395
aS'+'
asS'LOC93429'
p802
(lp803
I46210241
aI46214838
aS'+'
asS'PSG9'
p804
(lp805
I43253281
aI43269563
aS'-'
asS'CAPS'
p806
(lp807
I5913643
aI5916211
aS'+'
asS'POLR2E'
p808
(lp809
I1086578
aI1095392
aS'-'
asS'ZNF823'
p810
(lp811
I11721264
aI11739009
aS'-'
asS'ANKRD24'
p812
(lp813
I4182617
aI4224814
aS'+'
asS'ZNF829'
p814
(lp815
I36888123
aI36916387
aS'-'
asS'POLR2I'
p816
(lp817
I36113708
aI36115304
aS'-'
asS'LOC105372475'
p818
(lp819
I57074599
aI57078880
aS'+'
asS'ETHE1'
p820
(lp821
I43506718
aI43527256
aS'-'
asS'LOC105372474'
p822
(lp823
I56862412
aI56870571
aS'+'
asS'NUCB1-AS1'
p824
(lp825
I48910929
aI48918891
aS'-'
asS'LOC102725180'
p826
(lp827
I1168695
aI1174735
aS'+'
asS'POLRMT'
p828
(lp829
I617220
aI633592
aS'-'
asS'CEACAM19'
p830
(lp831
I44671451
aI44684355
aS'+'
asS'MIR523'
p832
(lp833
I53698384
aI53698471
aS'+'
asS'MIR522'
p834
(lp835
I53751210
aI53751297
aS'+'
asS'ZNF137P'
p836
(lp837
I52596683
aI52600152
aS'+'
asS'MATK'
p838
(lp839
I3777968
aI3801812
aS'-'
asS'DDA1'
p840
(lp841
I17309527
aI17323298
aS'+'
asS'LOC105376899'
p842
(lp843
I32072181
aI32074122
aS'+'
asS'GAMT'
p844
(lp845
I1397025
aI1401570
aS'-'
asS'TGFBR3L'
p846
(lp847
I7915210
aI7919097
aS'+'
asS'SHKBP1'
p848
(lp849
I40576850
aI40591399
aS'+'
asS'ZNF71'
p850
(lp851
I56595258
aI56624481
aS'+'
asS'FFAR1'
p852
(lp853
I35351541
aI35352464
aS'+'
asS'ZNF628'
p854
(lp855
I55476331
aI55484487
aS'+'
asS'ZNF625'
p856
(lp857
I12144889
aI12156731
aS'-'
asS'ZNF626'
p858
(lp859
I20619938
aI20661596
aS'-'
asS'ZNF627'
p860
(lp861
I11575254
aI11619135
aS'+'
asS'CYP2B6'
p862
(lp863
I40991205
aI41018402
aS'+'
asS'NECTIN2'
p864
(lp865
I44846135
aI44889228
aS'+'
asS'ZNF571-AS1'
p866
(lp867
I37548948
aI37587348
aS'+'
asS'MIR1283-1'
p868
(lp869
I53688480
aI53688567
aS'+'
asS'LOC105369202'
p870
(lp871
I15855339
aI15863863
aS'-'
asS'OR1M1'
p872
(lp873
I9093244
aI9094186
aS'+'
asS'CEACAM22P'
p874
(lp875
I44537057
aI44556917
aS'-'
asS'ATCAY'
p876
(lp877
I3880619
aI3928082
aS'+'
asS'ZNF480'
p878
(lp879
I52297168
aI52325927
aS'+'
asS'ZNF486'
p880
(lp881
I20167213
aI20200490
aS'+'
asS'PRKACA'
p882
(lp883
I14091687
aI14117747
aS'-'
asS'TMEM238'
p884
(lp885
I55379243
aI55384259
aS'-'
asS'PIAS4'
p886
(lp887
I4007597
aI4039386
aS'+'
asS'ZNF132'
p888
(lp889
I58432813
aI58440222
aS'-'
asS'ZNF134'
p890
(lp891
I57614218
aI57624717
aS'+'
asS'ZNF135'
p892
(lp893
I58059238
aI58069755
aS'+'
asS'ZNF136'
p894
(lp895
I12162671
aI12189880
aS'+'
asS'ZNF317'
p896
(lp897
I9140379
aI9163419
aS'+'
asS'JUNB'
p898
(lp899
I12791495
aI12793311
aS'+'
asS'JUND'
p900
(lp901
I18279693
aI18281656
aS'-'
asS'OVOL3'
p902
(lp903
I36111179
aI36113711
aS'+'
asS'LOC645553'
p904
(lp905
I46189028
aI46203062
aS'-'
asS'SWSAP1'
p906
(lp907
I11374706
aI11376951
aS'+'
asS'HSPBP1'
p908
(lp909
I55262222
aI55280383
aS'-'
asS'SNORD23'
p910
(lp911
I47755852
aI47755962
aS'+'
asS'BCL2L12'
p912
(lp913
I49665071
aI49673916
aS'+'
asS'TMIGD2'
p914
(lp915
I4292226
aI4302431
aS'-'
asS'KCNK6'
p916
(lp917
I38319843
aI38329014
aS'+'
asS'ZNF556'
p918
(lp919
I2867334
aI2878517
aS'+'
asS'ZNF557'
p920
(lp921
I7069459
aI7087968
aS'+'
asS'ZNF554'
p922
(lp923
I2819873
aI2836735
aS'+'
asS'ZNF555'
p924
(lp925
I2841434
aI2860474
aS'+'
asS'ZNF552'
p926
(lp927
I57807081
aI57814913
aS'-'
asS'ZNF550'
p928
(lp929
I57541835
aI57561512
aS'-'
asS'ZNF551'
p930
(lp931
I57681968
aI57689811
aS'+'
asS'ZNF790'
p932
(lp933
I36818321
aI36850787
aS'-'
asS'NACC1'
p934
(lp935
I13116847
aI13141147
aS'+'
asS'SIN3B'
p936
(lp937
I16829386
aI16880353
aS'+'
asS'ZNF558'
p938
(lp939
I8809575
aI8832304
aS'-'
asS'ZNF559'
p940
(lp941
I9323771
aI9343845
aS'+'
asS'TMPRSS9'
p942
(lp943
I2385253
aI2426261
aS'+'
asS'ISYNA1'
p944
(lp945
I18434387
aI18438301
aS'-'
asS'PPAN-P2RY11'
p946
(lp947
I10106222
aI10115389
aS'+'
asS'HOOK2'
p948
(lp949
I12763001
aI12778484
aS'-'
asS'ZNF93'
p950
(lp951
I19900912
aI19935573
aS'+'
asS'LOC107984139'
p952
(lp953
I12207628
aI12234791
aS'+'
asS'TMEM160'
p954
(lp955
I47045908
aI47048624
aS'-'
asS'ILF3-AS1'
p956
(lp957
I10651861
aI10653872
aS'-'
asS'RPL36'
p958
(lp959
I5690260
aI5691667
aS'+'
asS'ZNF799'
p960
(lp961
I12390013
aI12401274
aS'-'
asS'PRODH2'
p962
(lp963
I35799989
aI35813299
aS'-'
asS'GNA15'
p964
(lp965
I3136031
aI3163769
aS'+'
asS'ZNF653'
p966
(lp967
I11483426
aI11505923
aS'-'
asS'GRIN2D'
p968
(lp969
I48394874
aI48444931
aS'+'
asS'GNA11'
p970
(lp971
I3094409
aI3124002
aS'+'
asS'ATF5'
p972
(lp973
I49928701
aI49933936
aS'+'
asS'LOC107985350'
p974
(lp975
I41863949
aI41866857
aS'+'
asS'PSG11'
p976
(lp977
I43007656
aI43026479
aS'-'
asS'AP1M2'
p978
(lp979
I10572670
aI10587315
aS'-'
asS'AP1M1'
p980
(lp981
I16197853
aI16235345
aS'+'
asS'TARM1'
p982
(lp983
I54069946
aI54081365
aS'-'
asS'MIR519E'
p984
(lp985
I53679939
aI53680023
aS'+'
asS'ZIM2-AS1'
p986
(lp987
I56765321
aI56799646
aS'+'
asS'MIR519B'
p988
(lp989
I53695212
aI53695293
aS'+'
asS'SNORD135'
p990
(lp991
I12703596
aI12703671
aS'-'
asS'BLOC1S3'
p992
(lp993
I45178792
aI45202715
aS'+'
asS'SMIM17'
p994
(lp995
I56639250
aI56657247
aS'+'
asS'LOC105372380'
p996
(lp997
I35259070
aI35261404
aS'+'
asS'LOC105372383'
p998
(lp999
I35947114
aI35964070
aS'+'
asS'LOC105372385'
p1000
(lp1001
I36127948
aI36140021
aS'-'
asS'PTGER1'
p1002
(lp1003
I14472465
aI14475362
aS'-'
asS'GRWD1'
p1004
(lp1005
I48445772
aI48453907
aS'+'
asS'LOC113230'
p1006
(lp1007
I14073008
aI14075062
aS'+'
asS'MIR8077'
p1008
(lp1009
I42351130
aI42351205
aS'+'
asS'MIR8074'
p1010
(lp1011
I51206928
aI51207009
aS'-'
asS'MIR520E'
p1012
(lp1013
I53675710
aI53675797
aS'+'
asS'LHB'
p1014
(lp1015
I49015979
aI49017090
aS'-'
asS'BCAT2'
p1016
(lp1017
I48795061
aI48811063
aS'-'
asS'ZNF417'
p1018
(lp1019
I57905773
aI57916616
aS'-'
asS'GMIP'
p1020
(lp1021
I19629472
aI19643667
aS'-'
asS'CXCL17'
p1022
(lp1023
I42428537
aI42443048
aS'-'
asS'GTF2F1'
p1024
(lp1025
I6379568
aI6393280
aS'-'
asS'CD3EAP'
p1026
(lp1027
I45406128
aI45410737
aS'+'
asS'TUBB4A'
p1028
(lp1029
I6494318
aI6502848
aS'-'
asS'HCN2'
p1030
(lp1031
I589892
aI617159
aS'+'
asS'AKAP8'
p1032
(lp1033
I15353522
aI15379815
aS'-'
asS'ZNF416'
p1034
(lp1035
I57571014
aI57578938
aS'-'
asS'LOC284412'
p1036
(lp1037
I37265938
aI37269010
aS'-'
asS'CYP4F24P'
p1038
(lp1039
I15759333
aI15779988
aS'-'
asS'ANO8'
p1040
(lp1041
I17323222
aI17334834
aS'-'
asS'NOVA2'
p1042
(lp1043
I45933733
aI45973399
aS'-'
asS'CELF5'
p1044
(lp1045
I3224675
aI3297076
aS'+'
asS'APOC1'
p1046
(lp1047
I44914246
aI44919349
aS'+'
asS'MIR3189'
p1048
(lp1049
I18386561
aI18386634
aS'+'
asS'MIR3188'
p1050
(lp1051
I18282076
aI18282161
aS'+'
asS'MIR3187'
p1052
(lp1053
I813583
aI813653
aS'+'
asS'NKG7'
p1054
(lp1055
I51371619
aI51372706
aS'-'
asS'MIR1909'
p1056
(lp1057
I1816158
aI1816238
aS'-'
asS'PEPD'
p1058
(lp1059
I33386948
aI33521893
aS'-'
asS'SNAR-G1'
p1060
(lp1061
I49037019
aI49037147
aS'+'
asS'SNAR-G2'
p1062
(lp1063
I49031668
aI49031787
aS'-'
asS'JAK3'
p1064
(lp1065
I17824781
aI17848071
aS'-'
asS'MRI1'
p1066
(lp1067
I13764497
aI13774282
aS'+'
asS'CCL25'
p1068
(lp1069
I8052317
aI8062663
aS'+'
asS'NR1H2'
p1070
(lp1071
I50376422
aI50383028
aS'+'
asS'MAU2'
p1072
(lp1073
I19320820
aI19358754
aS'+'
asS'LOC100631378'
p1074
(lp1075
I37823721
aI37855196
aS'-'
asS'LINGO3'
p1076
(lp1077
I2289774
aI2308157
aS'-'
asS'ZNF382'
p1078
(lp1079
I36605304
aI36628597
aS'+'
asS'ANKRD27'
p1080
(lp1081
I32597004
aI32675215
aS'-'
asS'CAMSAP3'
p1082
(lp1083
I7595901
aI7618310
aS'+'
asS'CYP4F12'
p1084
(lp1085
I15673075
aI15698819
aS'+'
asS'LOC728485'
p1086
(lp1087
I36773117
aI36777078
aS'+'
asS'PRPF31'
p1088
(lp1089
I54115409
aI54131719
aS'+'
asS'WDR83OS'
p1090
(lp1091
I12668070
aI12671023
aS'-'
asS'ACP5'
p1092
(lp1093
I11574659
aI11579008
aS'-'
asS'CBARP'
p1094
(lp1095
I1228286
aI1238512
aS'-'
asS'SNORA68'
p1096
(lp1097
I17862587
aI17862720
aS'+'
asS'ZNF837'
p1098
(lp1099
I58367622
aI58381022
aS'-'
asS'ZNF836'
p1100
(lp1101
I52153863
aI52171664
aS'-'
asS'MIR516B2'
p1102
(lp1103
I53725441
aI53725526
aS'+'
asS'LOC105372484'
p1104
(lp1105
I58377582
aI58379025
aS'+'
asS'NR2F6'
p1106
(lp1107
I17231884
aI17245342
aS'-'
asS'CIRBP-AS1'
p1108
(lp1109
I1267470
aI1270260
aS'-'
asS'MIR516B1'
p1110
(lp1111
I53736844
aI53736934
aS'+'
asS'RAB11B-AS1'
p1112
(lp1113
I8374375
aI8390691
aS'-'
asS'MIR99B'
p1114
(lp1115
I51692611
aI51692681
aS'+'
asS'BSG'
p1116
(lp1117
I571276
aI583493
aS'+'
asS'OR4F17'
p1118
(lp1119
I107151
aI111690
aS'+'
asS'ZNF83'
p1120
(lp1121
I52612363
aI52690581
aS'-'
asS'ZNF85'
p1122
(lp1123
I20923226
aI20950697
aS'+'
asS'LDLR'
p1124
(lp1125
I11089361
aI11133830
aS'+'
asS'ZNF470'
p1126
(lp1127
I56567520
aI56582894
aS'+'
asS'SLC27A5'
p1128
(lp1129
I58498332
aI58512065
aS'-'
asS'JSRP1'
p1130
(lp1131
I2252252
aI2260813
aS'-'
asS'PRAM1'
p1132
(lp1133
I8490055
aI8502654
aS'-'
asS'GP6'
p1134
(lp1135
I55013704
aI55038264
aS'-'
asS'ACPT'
p1136
(lp1137
I50790414
aI50795224
aS'+'
asS'SLC17A7'
p1138
(lp1139
I49429397
aI49441551
aS'-'
asS'TBCB'
p1140
(lp1141
I36114948
aI36125948
aS'+'
asS'FIZ1'
p1142
(lp1143
I55591375
aI55599703
aS'-'
asS'EBI3'
p1144
(lp1145
I4229195
aI4237539
aS'+'
asS'PRKD2'
p1146
(lp1147
I46674315
aI46717127
aS'-'
asS'LOC723805'
p1148
(lp1149
I39439263
aI39442019
aS'+'
asS'BAX'
p1150
(lp1151
I48954824
aI48961798
aS'+'
asS'ZNF497'
p1152
(lp1153
I58354356
aI58362848
aS'-'
asS'ERF'
p1154
(lp1155
I42247560
aI42255164
aS'-'
asS'ZNF493'
p1156
(lp1157
I21397118
aI21427495
aS'+'
asS'ZNF492'
p1158
(lp1159
I22634323
aI22667670
aS'+'
asS'ZNF491'
p1160
(lp1161
I11798508
aI11809622
aS'+'
asS'MIR1238'
p1162
(lp1163
I10552121
aI10552204
aS'+'
asS'GIPR'
p1164
(lp1165
I45668186
aI45683722
aS'+'
asS'MZF1-AS1'
p1166
(lp1167
I58559185
aI58574797
aS'+'
asS'SHC2'
p1168
(lp1169
I416588
aI461011
aS'-'
asS'ZNF121'
p1170
(lp1171
I9565656
aI9584544
aS'-'
asS'ZNF793-AS1'
p1172
(lp1173
I37497158
aI37507087
aS'-'
asS'GRIN3B'
p1174
(lp1175
I1000418
aI1009732
aS'+'
asS'KLF2'
p1176
(lp1177
I16324825
aI16328662
aS'+'
asS'KLF1'
p1178
(lp1179
I12884421
aI12887203
aS'-'
asS'FPR1'
p1180
(lp1181
I51745769
aI51751897
aS'-'
asS'TMEM221'
p1182
(lp1183
I17435508
aI17448839
aS'-'
asS'PSMC4'
p1184
(lp1185
I39971004
aI39981764
aS'+'
asS'LOC105376914'
p1186
(lp1187
I9590468
aI9596343
aS'-'
asS'LOC105376917'
p1188
(lp1189
I22455375
aI22532492
aS'-'
asS'FBN3'
p1190
(lp1191
I8065401
aI8149846
aS'-'
asS'LOC105376912'
p1192
(lp1193
I71140
aI72759
aS'+'
asS'OR2Z1'
p1194
(lp1195
I8730953
aI8732009
aS'+'
asS'RNF126'
p1196
(lp1197
I647525
aI663313
aS'-'
asS'TRIP10'
p1198
(lp1199
I6739681
aI6751526
aS'+'
asS'MEX3D'
p1200
(lp1201
I1554668
aI1568058
aS'-'
asS'MIR4999'
p1202
(lp1203
I8389289
aI8389380
aS'-'
asS'MIR4531'
p1204
(lp1205
I44653685
aI44653732
aS'-'
asS'SNORD37'
p1206
(lp1207
I3982506
aI3982572
aS'-'
asS'SNORD34'
p1208
(lp1209
I49490906
aI49490972
aS'+'
asS'SNORD33'
p1210
(lp1211
I49490616
aI49490699
aS'+'
asS'NCLN'
p1212
(lp1213
I3185876
aI3209575
aS'+'
asS'MAP3K10'
p1214
(lp1215
I40191656
aI40215575
aS'+'
asS'ZNF544'
p1216
(lp1217
I58228680
aI58277495
aS'+'
asS'ZNF547'
p1218
(lp1219
I57363434
aI57379559
aS'+'
asS'ZNF546'
p1220
(lp1221
I39995608
aI40021035
aS'+'
asS'SCN1B'
p1222
(lp1223
I35030687
aI35040449
aS'+'
asS'ZNF540'
p1224
(lp1225
I37551370
aI37614179
aS'+'
asS'PET100'
p1226
(lp1227
I7629784
aI7631624
aS'+'
asS'SLC1A5'
p1228
(lp1229
I46759684
aI46788622
aS'-'
asS'SLC1A6'
p1230
(lp1231
I14950032
aI15010643
aS'-'
asS'ZNF549'
p1232
(lp1233
I57527320
aI57540876
aS'+'
asS'MIR516A2'
p1234
(lp1235
I53761132
aI53761222
aS'+'
asS'MIR516A1'
p1236
(lp1237
I53756740
aI53756830
aS'+'
asS'MIR4752'
p1238
(lp1239
I54282108
aI54282180
aS'+'
asS'MIR4751'
p1240
(lp1241
I49933063
aI49933137
aS'+'
asS'LIN7B'
p1242
(lp1243
I49114338
aI49118460
aS'+'
asS'MIR498'
p1244
(lp1245
I53674196
aI53674320
aS'+'
asS'MIR4754'
p1246
(lp1247
I58386769
aI58386858
aS'-'
asS'MARCH2'
p1248
(lp1249
I8413271
aI8439021
aS'+'
asS'ZNF702P'
p1250
(lp1251
I52968250
aI52993531
aS'-'
asS'EIF3K'
p1252
(lp1253
I38619071
aI38636959
aS'+'
asS'LOC101929060'
p1254
(lp1255
I300657
aI304361
aS'-'
asS'B3GNT3'
p1256
(lp1257
I17795109
aI17813576
aS'+'
asS'RPL18'
p1258
(lp1259
I48615326
aI48619418
aS'-'
asS'B3GNT8'
p1260
(lp1261
I41425358
aI41429024
aS'-'
asS'EIF3G'
p1262
(lp1263
I10115013
aI10119923
aS'-'
asS'ADGRE4P'
p1264
(lp1265
I6952499
aI6990846
aS'-'
asS'DYRK1B'
p1266
(lp1267
I39825346
aI39834233
aS'-'
asS'ELSPBP1'
p1268
(lp1269
I47994650
aI48025153
aS'+'
asS'LOC107985347'
p1270
(lp1271
I54555250
aI54572816
aS'-'
asS'LOC107985346'
p1272
(lp1273
I53700669
aI53708309
aS'+'
asS'LOC107985345'
p1274
(lp1275
I29724132
aI29736102
aS'+'
asS'LOC107985343'
p1276
(lp1277
I781844
aI785237
aS'+'
asS'LOC107985342'
p1278
(lp1279
I53648065
aI53670939
aS'+'
asS'CDKN2D'
p1280
(lp1281
I10566461
aI10568979
aS'-'
asS'LOC107985340'
p1282
(lp1283
I49221860
aI49269496
aS'+'
asS'LOC107985349'
p1284
(lp1285
I43160812
aI43170067
aS'+'
asS'CCDC151'
p1286
(lp1287
I11420604
aI11435782
aS'-'
asS'YIF1B'
p1288
(lp1289
I38303559
aI38315966
aS'-'
asS'CCDC155'
p1290
(lp1291
I49388217
aI49418002
aS'+'
asS'CCDC159'
p1292
(lp1293
I11346339
aI11354951
aS'+'
asS'HOMER3'
p1294
(lp1295
I18929202
aI18941258
aS'-'
asS'HRC'
p1296
(lp1297
I49151197
aI49155424
aS'-'
asS'LOC105372374'
p1298
(lp1299
I34555493
aI34559110
aS'+'
asS'LOC105372375'
p1300
(lp1301
I34772538
aI34774689
aS'+'
asS'LOC105372377'
p1302
(lp1303
I34898964
aI34905231
aS'-'
asS'LOC105372370'
p1304
(lp1305
I33521941
aI33525662
aS'+'
asS'LOC105372371'
p1306
(lp1307
I34000325
aI34005421
aS'-'
asS'LINC01529'
p1308
(lp1309
I35788875
aI35797909
aS'-'
asS'SYT3'
p1310
(lp1311
I50621978
aI50658127
aS'-'
asS'LOC105372379'
p1312
(lp1313
I35205057
aI35216008
aS'+'
asS'UBA52'
p1314
(lp1315
I18563765
aI18575241
aS'+'
asS'CNFN'
p1316
(lp1317
I42387018
aI42390317
aS'-'
asS'MIR8085'
p1318
(lp1319
I44758656
aI44758721
aS'+'
asS'TNFAIP8L1'
p1320
(lp1321
I4639514
aI4655568
aS'+'
asS'LOC644189'
p1322
(lp1323
I36421173
aI36422897
aS'+'
asS'MIR7-3HG'
p1324
(lp1325
I4769104
aI4772556
aS'+'
asS'IGFL3'
p1326
(lp1327
I46119777
aI46127101
aS'-'
asS'IGFL2'
p1328
(lp1329
I46078512
aI46195097
aS'+'
asS'IGFL1'
p1330
(lp1331
I46229751
aI46231243
aS'+'
asS'EXOSC5'
p1332
(lp1333
I41386369
aI41397351
aS'-'
asS'YJEFN3'
p1334
(lp1335
I19528860
aI19537584
aS'+'
asS'ADAMTSL5'
p1336
(lp1337
I1505017
aI1513189
aS'-'
asS'TULP2'
p1338
(lp1339
I48880816
aI48900177
aS'-'
asS'LOC100287477'
p1340
(lp1341
I50058262
aI50060497
aS'-'
asS'MIR512-2'
p1342
(lp1343
I53669156
aI53669254
aS'+'
asS'LOC105372280'
p1344
(lp1345
I12687997
aI12688420
aS'+'
asS'LOC105372281'
p1346
(lp1347
I12826784
aI12833089
aS'+'
asS'CEACAM3'
p1348
(lp1349
I41796589
aI41811553
aS'+'
asS'LOC105372283'
p1350
(lp1351
I13409225
aI13418854
aS'+'
asS'CEACAM5'
p1352
(lp1353
I41708584
aI41730433
aS'+'
asS'CEACAM4'
p1354
(lp1355
I41616985
aI41627087
aS'-'
asS'CEACAM7'
p1356
(lp1357
I41673306
aI41688277
aS'-'
asS'CEACAM6'
p1358
(lp1359
I41755420
aI41772211
aS'+'
asS'LOC105372288'
p1360
(lp1361
I14305457
aI14363990
aS'-'
asS'CEACAM8'
p1362
(lp1363
I42580242
aI42594930
aS'-'
asS'PPP1R14A'
p1364
(lp1365
I38251236
aI38256591
aS'-'
asS'PALM3'
p1366
(lp1367
I14053366
aI14062137
aS'-'
asS'SSC5D'
p1368
(lp1369
I55488502
aI55519099
aS'+'
asS'ZNF274'
p1370
(lp1371
I58182988
aI58213562
aS'+'
asS'ZNF582-AS1'
p1372
(lp1373
I56393675
aI56399175
aS'+'
asS'MIR3190'
p1374
(lp1375
I47226941
aI47227021
aS'+'
asS'MIR3191'
p1376
(lp1377
I47226943
aI47227019
aS'-'
asS'ALKBH6'
p1378
(lp1379
I36009115
aI36014243
aS'-'
asS'ALKBH7'
p1380
(lp1381
I6372432
aI6375250
aS'+'
asS'STXBP2'
p1382
(lp1383
I7637100
aI7647874
aS'+'
asS'LOC101928982'
p1384
(lp1385
I56536157
aI56538762
aS'-'
asS'PVR'
p1386
(lp1387
I44643797
aI44666161
aS'+'
asS'S1PR2'
p1388
(lp1389
I10221432
aI10231272
aS'-'
asS'DNAJB1'
p1390
(lp1391
I14514768
aI14529821
aS'-'
asS'S1PR5'
p1392
(lp1393
I10512741
aI10517992
aS'-'
asS'S1PR4'
p1394
(lp1395
I3178737
aI3180332
aS'+'
asS'ZNF528-AS1'
p1396
(lp1397
I52388838
aI52397757
aS'-'
asS'DOT1L'
p1398
(lp1399
I2163962
aI2232578
aS'+'
asS'SUGP2'
p1400
(lp1401
I18990886
aI19034052
aS'-'
asS'HAS1'
p1402
(lp1403
I51713111
aI51723992
aS'-'
asS'SUGP1'
p1404
(lp1405
I19276512
aI19320512
aS'-'
asS'CLC'
p1406
(lp1407
I39731252
aI39738029
aS'-'
asS'LINC00904'
p1408
(lp1409
I34892028
aI34898943
aS'-'
asS'LINC00905'
p1410
(lp1411
I16033712
aI16042135
aS'+'
asS'LINC00906'
p1412
(lp1413
I28965130
aI28969148
aS'+'
asS'ZNF805'
p1414
(lp1415
I57240684
aI57262738
aS'+'
asS'ZNF807'
p1416
(lp1417
I34541691
aI34545698
aS'-'
asS'MCEMP1'
p1418
(lp1419
I7677056
aI7679833
aS'+'
asS'BISPR'
p1420
(lp1421
I17405685
aI17415736
aS'+'
asS'GRIK5'
p1422
(lp1423
I41998315
aI42070138
aS'-'
asS'TRAPPC6A'
p1424
(lp1425
I45162932
aI45178302
aS'-'
asS'LPAR2'
p1426
(lp1427
I19623668
aI19628930
aS'-'
asS'HAPLN4'
p1428
(lp1429
I19255640
aI19262787
aS'-'
asS'CALR'
p1430
(lp1431
I12938599
aI12944490
aS'+'
asS'LOC105369197'
p1432
(lp1433
I51802924
aI51849337
aS'-'
asS'MIR1283-2'
p1434
(lp1435
I53758231
aI53758318
aS'+'
asS'SEMA6B'
p1436
(lp1437
I4542587
aI4581484
aS'-'
asS'CD320'
p1438
(lp1439
I8302126
aI8308356
aS'-'
asS'LOC100505585'
p1440
(lp1441
I41928819
aI41930136
aS'+'
asS'ADCK4'
p1442
(lp1443
I40691528
aI40716885
aS'-'
asS'CTXN1'
p1444
(lp1445
I7924495
aI7926166
aS'-'
asS'RTBDN'
p1446
(lp1447
I12825476
aI12835428
aS'-'
asS'ASF1B'
p1448
(lp1449
I14119508
aI14136628
aS'-'
asS'FEM1A'
p1450
(lp1451
I4791715
aI4795559
aS'+'
asS'LOC102724908'
p1452
(lp1453
I28606687
aI28615229
aS'+'
asS'COPE'
p1454
(lp1455
I18899513
aI18919464
aS'-'
asS'LINC01530'
p1456
(lp1457
I51591782
aI51594380
aS'-'
asS'PRKCG'
p1458
(lp1459
I53882183
aI53907647
aS'+'
asS'CGB1'
p1460
(lp1461
I49035568
aI49036934
aS'-'
asS'LOC105372364'
p1462
(lp1463
I31979912
aI31985978
aS'+'
asS'FFAR2'
p1464
(lp1465
I35447964
aI35451767
aS'+'
asS'FFAR3'
p1466
(lp1467
I35358105
aI35360491
aS'+'
asS'MIR1227'
p1468
(lp1469
I2234061
aI2234149
aS'-'
asS'LOC101928450'
p1470
(lp1471
I781001
aI782290
aS'-'
asS'LOC105372361'
p1472
(lp1473
I31711436
aI31718834
aS'+'
asS'ZNF154'
p1474
(lp1475
I57696274
aI57709211
aS'-'
asS'ZNF155'
p1476
(lp1477
I43967005
aI43998308
aS'+'
asS'LOC105372360'
p1478
(lp1479
I31520147
aI31554795
aS'+'
asS'SAE1'
p1480
(lp1481
I47130822
aI47210636
aS'+'
asS'ZNF90'
p1482
(lp1483
I20078004
aI20127032
aS'+'
asS'ZNF791'
p1484
(lp1485
I12612230
aI12631921
aS'+'
asS'ZNF792'
p1486
(lp1487
I34956353
aI34964049
aS'-'
asS'ZNF793'
p1488
(lp1489
I37506938
aI37543337
aS'+'
asS'ZNF98'
p1490
(lp1491
I22391010
aI22422357
aS'-'
asS'ZNF99'
p1492
(lp1493
I22752182
aI22784171
aS'-'
asS'MIR5589'
p1494
(lp1495
I10038353
aI10038413
aS'+'
asS'SNAR-F'
p1496
(lp1497
I50604962
aI50605085
aS'+'
asS'SNAR-E'
p1498
(lp1499
I46830584
aI46830704
aS'-'
asS'SNAR-D'
p1500
(lp1501
I50140201
aI50140320
aS'-'
asS'LOC105376906'
p1502
(lp1503
I27520103
aI27641535
aS'-'
asS'FBXO17'
p1504
(lp1505
I38941400
aI38975813
aS'-'
asS'LOC105376901'
p1506
(lp1507
I46144647
aI46158277
aS'-'
asS'PTOV1-AS1'
p1508
(lp1509
I49838644
aI49851676
aS'-'
asS'LOC729458'
p1510
(lp1511
I7019160
aI7020224
aS'-'
asS'CCDC94'
p1512
(lp1513
I4247113
aI4269088
aS'+'
asS'SNORD41'
p1514
(lp1515
I12706448
aI12706518
aS'-'
asS'CCDC97'
p1516
(lp1517
I41310188
aI41324883
aS'+'
asS'ZNF570'
p1518
(lp1519
I37467771
aI37488652
aS'+'
asS'ZNF571'
p1520
(lp1521
I37564252
aI37594830
aS'-'
asS'ZNF573'
p1522
(lp1523
I37738273
aI37779626
aS'-'
asS'ZNF574'
p1524
(lp1525
I42068476
aI42081557
aS'+'
asS'ZNF575'
p1526
(lp1527
I43531804
aI43536090
aS'+'
asS'ZNF576'
p1528
(lp1529
I43596391
aI43600435
aS'+'
asS'ZNF577'
p1530
(lp1531
I51855802
aI51887936
aS'-'
asS'ZNF578'
p1532
(lp1533
I52453575
aI52516878
aS'+'
asS'ZNF579'
p1534
(lp1535
I55577077
aI55580821
aS'-'
asS'TPGS1'
p1536
(lp1537
I507496
aI519654
aS'+'
asS'DPP9-AS1'
p1538
(lp1539
I4679281
aI4685948
aS'+'
asS'PRTN3'
p1540
(lp1541
I840984
aI848175
aS'+'
asS'BSPH1'
p1542
(lp1543
I47967257
aI47992170
aS'-'
asS'MIR4745'
p1544
(lp1545
I804939
aI805001
aS'+'
asS'MIR4746'
p1546
(lp1547
I4445977
aI4446048
aS'+'
asS'MIR4747'
p1548
(lp1549
I4932686
aI4932740
aS'+'
asS'MIR4748'
p1550
(lp1551
I10780253
aI10780335
aS'+'
asS'MIR4749'
p1552
(lp1553
I49854590
aI49854651
aS'+'
asS'FPR2'
p1554
(lp1555
I51752025
aI51770526
aS'+'
asS'FPR3'
p1556
(lp1557
I51795145
aI51826190
aS'+'
asS'ZNF208'
p1558
(lp1559
I21966094
aI22010943
aS'-'
asS'PPP1R37'
p1560
(lp1561
I45093172
aI45147286
aS'+'
asS'MIA-RAB4B'
p1562
(lp1563
I40775536
aI40796944
aS'+'
asS'CHERP'
p1564
(lp1565
I16517888
aI16542452
aS'-'
asS'MIR5695'
p1566
(lp1567
I12920319
aI12920404
aS'+'
asS'GPATCH1'
p1568
(lp1569
I33080879
aI33130412
aS'+'
asS'LGALS17A'
p1570
(lp1571
I39679373
aI39686373
aS'+'
asS'THEG5'
p1572
(lp1573
I31573342
aI31593550
aS'+'
asS'LOC101929097'
p1574
(lp1575
I2511218
aI2513571
aS'-'
asS'MYADM'
p1576
(lp1577
I53865583
aI53876435
aS'+'
asS'LOC100506634'
p1578
(lp1579
I58403222
aI58408466
aS'-'
asS'LINC01532'
p1580
(lp1581
I29002554
aI29013955
aS'+'
asS'LINC01533'
p1582
(lp1583
I32025861
aI32048899
aS'+'
asS'AP2S1'
p1584
(lp1585
I46838157
aI46850995
aS'-'
asS'LINC01531'
p1586
(lp1587
I35405606
aI35416840
aS'+'
asS'LOC105372363'
p1588
(lp1589
I31837379
aI32072099
aS'-'
asS'LOC105372362'
p1590
(lp1591
I31791074
aI31797987
aS'-'
asS'LINC01534'
p1592
(lp1593
I36685438
aI36687449
aS'-'
asS'LINC01535'
p1594
(lp1595
I37251884
aI37265535
aS'+'
asS'PTOV1-AS2'
p1596
(lp1597
I49856464
aI49859289
aS'-'
asS'LOC105372368'
p1598
(lp1599
I32718297
aI32719801
aS'-'
asS'ECH1'
p1600
(lp1601
I38815421
aI38831857
aS'-'
asS'CARD8'
p1602
(lp1603
I48203147
aI48256259
aS'-'
asS'PNPLA6'
p1604
(lp1605
I7534151
aI7561767
aS'+'
asS'ALDH16A1'
p1606
(lp1607
I49453215
aI49471048
aS'+'
asS'PINLYP'
p1608
(lp1609
I43575398
aI43582098
aS'+'
asS'TINCR'
p1610
(lp1611
I5558166
aI5568034
aS'-'
asS'PCAT19'
p1612
(lp1613
I41454168
aI41500649
aS'-'
asS'MAP1S'
p1614
(lp1615
I17719351
aI17734513
aS'+'
asS'UBA2'
p1616
(lp1617
I34428175
aI34469891
aS'+'
asS'UBE2M'
p1618
(lp1619
I58555711
aI58558976
aS'-'
asS'SAFB2'
p1620
(lp1621
I5586998
aI5622927
aS'-'
asS'LOC105372292'
p1622
(lp1623
I16065686
aI16066312
aS'+'
asS'LOC105372291'
p1624
(lp1625
I16014135
aI16015056
aS'-'
asS'LOC105372290'
p1626
(lp1627
I15827044
aI15835787
aS'-'
asS'LOC105372296'
p1628
(lp1629
I16628431
aI16629722
aS'+'
asS'LOC105372295'
p1630
(lp1631
I16572505
aI16578892
aS'+'
asS'LOC105372299'
p1632
(lp1633
I17733334
aI17750700
aS'-'
asS'LOC105372298'
p1634
(lp1635
I17378789
aI17379767
aS'-'
asS'DUXA'
p1636
(lp1637
I57151725
aI57167488
aS'-'
asS'DPF1'
p1638
(lp1639
I38211005
aI38229714
aS'-'
asS'MIR7-3'
p1640
(lp1641
I4770669
aI4770779
aS'+'
asS'VSTM2B'
p1642
(lp1643
I29525430
aI29564555
aS'+'
asS'RPL18A'
p1644
(lp1645
I17859877
aI17863324
aS'+'
asS'CD177'
p1646
(lp1647
I43353674
aI43366075
aS'+'
asS'UPF1'
p1648
(lp1649
I18831925
aI18868230
aS'+'
asS'DACT3'
p1650
(lp1651
I46647611
aI46661138
aS'-'
asS'BORCS8'
p1652
(lp1653
I19176903
aI19192591
aS'-'
asS'C19orf84'
p1654
(lp1655
I51388288
aI51390574
aS'-'
asS'SNAR-A9'
p1656
(lp1657
I50117719
aI50117840
aS'-'
asS'SNAR-A8'
p1658
(lp1659
I50112367
aI50112488
aS'-'
asS'C19orf81'
p1660
(lp1661
I50649444
aI50659310
aS'+'
asS'DUS3L'
p1662
(lp1663
I5785139
aI5791238
aS'-'
asS'SNAR-A2'
p1664
(lp1665
I47934180
aI47934302
aS'+'
asS'TPRX1'
p1666
(lp1667
I47801242
aI47803604
aS'-'
asS'SNAR-A7'
p1668
(lp1669
I50107013
aI50107134
aS'-'
asS'ZNF253'
p1670
(lp1671
I19865904
aI19893484
aS'+'
asS'SNAR-A5'
p1672
(lp1673
I50100890
aI50101011
aS'-'
asS'SNAR-A4'
p1674
(lp1675
I50092488
aI50092609
aS'-'
asS'NDUFA7'
p1676
(lp1677
I8308602
aI8321413
aS'-'
asS'NDUFA3'
p1678
(lp1679
I54102337
aI54106961
aS'+'
asS'COMP'
p1680
(lp1681
I18782772
aI18791305
aS'-'
asS'NCCRP1'
p1682
(lp1683
I39196963
aI39201882
aS'+'
asS'MAST1'
p1684
(lp1685
I12833930
aI12874953
aS'+'
asS'MAST3'
p1686
(lp1687
I18097763
aI18151692
aS'+'
asS'FLT3LG'
p1688
(lp1689
I49474538
aI49487038
aS'+'
asS'IL11'
p1690
(lp1691
I55364381
aI55370463
aS'-'
asS'PPP1R15A'
p1692
(lp1693
I48872391
aI48876062
aS'+'
asS'STX10'
p1694
(lp1695
I13144057
aI13150374
aS'-'
asS'FARSA'
p1696
(lp1697
I12922469
aI12933744
aS'-'
asS'COLGALT1'
p1698
(lp1699
I17555593
aI17583162
aS'+'
asS'BIRC8'
p1700
(lp1701
I53289600
aI53291622
aS'-'
asS'ADGRE5'
p1702
(lp1703
I14381143
aI14408725
aS'+'
asS'CGB7'
p1704
(lp1705
I49054273
aI49058346
aS'-'
asS'ADGRE1'
p1706
(lp1707
I6887548
aI6940453
aS'+'
asS'ADGRE3'
p1708
(lp1709
I14600174
aI14674849
aS'-'
asS'ADGRE2'
p1710
(lp1711
I14732696
aI14778541
aS'-'
asS'INSR'
p1712
(lp1713
I7112256
aI7294405
aS'-'
asS'ZNF813'
p1714
(lp1715
I53467734
aI53494292
aS'+'
asS'SPTBN4'
p1716
(lp1717
I40467218
aI40576459
aS'+'
asS'ZNF816'
p1718
(lp1719
I52949378
aI52962911
aS'-'
asS'FLJ26850'
p1720
(lp1721
I50050679
aI50066795
aS'+'
asS'KLF16'
p1722
(lp1723
I1852398
aI1863565
aS'-'
asS'GDF1'
p1724
(lp1725
I18868545
aI18896144
aS'-'
asS'LOC107985279'
p1726
(lp1727
I54230440
aI54234883
aS'-'
asS'KRTDAP'
p1728
(lp1729
I35487323
aI35490531
aS'-'
asS'DPP9'
p1730
(lp1731
I4675225
aI4723842
aS'-'
asS'SLC44A2'
p1732
(lp1733
I10602444
aI10644559
aS'+'
asS'ZBTB7A'
p1734
(lp1735
I4043303
aI4066945
aS'-'
asS'GLTSCR1'
p1736
(lp1737
I47608195
aI47703277
aS'+'
asS'GLTSCR2'
p1738
(lp1739
I47745535
aI47757066
aS'+'
asS'LOC107985273'
p1740
(lp1741
I46820090
aI46822466
aS'+'
asS'CYP2A7'
p1742
(lp1743
I40875677
aI40885952
aS'-'
asS'CYP2A6'
p1744
(lp1745
I40843537
aI40850447
aS'-'
asS'OR7E24'
p1746
(lp1747
I9251043
aI9252063
aS'+'
asS'UBE2S'
p1748
(lp1749
I55401281
aI55407957
aS'-'
asS'KLK1'
p1750
(lp1751
I50819145
aI50823787
aS'-'
asS'PCP2'
p1752
(lp1753
I7631613
aI7636967
aS'-'
asS'PRR36'
p1754
(lp1755
I7868718
aI7874441
aS'-'
asS'NDUFS7'
p1756
(lp1757
I1383883
aI1395589
aS'+'
asS'SIGLEC12'
p1758
(lp1759
I51491226
aI51501789
aS'-'
asS'ILF3'
p1760
(lp1761
I10654260
aI10692419
aS'+'
asS'ARRDC2'
p1762
(lp1763
I18001131
aI18014102
aS'+'
asS'ELOF1'
p1764
(lp1765
I11553042
aI11559236
aS'-'
asS'KLK7'
p1766
(lp1767
I50976478
aI50984064
aS'-'
asS'CHMP2A'
p1768
(lp1769
I58551565
aI58555624
aS'-'
asS'INAFM1'
p1770
(lp1771
I47274401
aI47275723
aS'+'
asS'ASNA1'
p1772
(lp1773
I12737491
aI12748323
aS'+'
asS'SCGB2B3P'
p1774
(lp1775
I34645872
aI34646052
aS'+'
asS'MUM1'
p1776
(lp1777
I1354976
aI1378431
aS'+'
asS'ZNF146'
p1778
(lp1779
I36214601
aI36238774
aS'+'
asS'RABAC1'
p1780
(lp1781
I41956680
aI41959376
aS'-'
asS'MKNK2'
p1782
(lp1783
I2037470
aI2051244
aS'-'
asS'ZNF781'
p1784
(lp1785
I37667748
aI37692315
aS'-'
asS'SYCE2'
p1786
(lp1787
I12898228
aI12919674
aS'-'
asS'ZNF787'
p1788
(lp1789
I56087362
aI56121373
aS'-'
asS'ZNF784'
p1790
(lp1791
I55620740
aI55624575
aS'-'
asS'GPR108'
p1792
(lp1793
I6729913
aI6737622
aS'-'
asS'ZNF788'
p1794
(lp1795
I12092262
aI12114678
aS'+'
asS'LOC374890'
p1796
(lp1797
I22615556
aI22623971
aS'-'
asS'SAFB'
p1798
(lp1799
I5623034
aI5668478
aS'+'
asS'FCGBP'
p1800
(lp1801
I39863322
aI39934626
aS'-'
asS'MIR6805'
p1802
(lp1803
I55388180
aI55388242
aS'+'
asS'MIR6804'
p1804
(lp1805
I55230884
aI55230952
aS'-'
asS'MIR6807'
p1806
(lp1807
I58550284
aI58550376
aS'+'
asS'KCNN4'
p1808
(lp1809
I43766532
aI43782139
aS'-'
asS'MIR6801'
p1810
(lp1811
I52222019
aI52222098
aS'+'
asS'MIR6800'
p1812
(lp1813
I49832017
aI49832099
aS'+'
asS'KCNN1'
p1814
(lp1815
I17951301
aI17999121
aS'+'
asS'QTRT1'
p1816
(lp1817
I10701435
aI10713367
aS'+'
asS'SMIM24'
p1818
(lp1819
I3474406
aI3480542
aS'-'
asS'BRSK1'
p1820
(lp1821
I55284100
aI55312562
aS'+'
asS'LOC101928238'
p1822
(lp1823
I9538665
aI9539730
aS'+'
asS'SIGLECL1'
p1824
(lp1825
I51251063
aI51269330
aS'+'
asS'ZNF569'
p1826
(lp1827
I37411145
aI37469268
aS'-'
asS'ZNF568'
p1828
(lp1829
I36916328
aI36997932
aS'+'
asS'ZNF567'
p1830
(lp1831
I36666960
aI36721336
aS'+'
asS'ZNF566'
p1832
(lp1833
I36445118
aI36489902
aS'-'
asS'ZNF565'
p1834
(lp1835
I36182059
aI36215084
aS'-'
asS'ZNF564'
p1836
(lp1837
I12525369
aI12551542
aS'-'
asS'ZNF563'
p1838
(lp1839
I12318500
aI12347390
aS'-'
asS'ZNF562'
p1840
(lp1841
I9648295
aI9675293
aS'-'
asS'ZNF561'
p1842
(lp1843
I9607325
aI9621249
aS'-'
asS'ZNF560'
p1844
(lp1845
I9445709
aI9506692
aS'-'
asS'MIR5684'
p1846
(lp1847
I12787127
aI12787192
aS'+'
asS'CCDC61'
p1848
(lp1849
I45995456
aI46018616
aS'+'
asS'SLC7A9'
p1850
(lp1851
I32830510
aI32870958
aS'-'
asS'NFKBIB'
p1852
(lp1853
I38899502
aI38908894
aS'+'
asS'NFKBID'
p1854
(lp1855
I35887951
aI35902301
aS'-'
asS'RFX1'
p1856
(lp1857
I13961529
aI14007514
aS'-'
asS'DPY19L3'
p1858
(lp1859
I32405748
aI32485893
aS'+'
asS'ZNF846'
p1860
(lp1861
I9752278
aI9786077
aS'-'
asS'TMEM59L'
p1862
(lp1863
I18612871
aI18621039
aS'+'
asS'MIR6792'
p1864
(lp1865
I7617438
aI7617505
aS'+'
asS'MIR518C'
p1866
(lp1867
I53708734
aI53708835
aS'+'
asS'HAUS8'
p1868
(lp1869
I17049760
aI17075533
aS'-'
asS'LOC101928063'
p1870
(lp1871
I43996895
aI44002870
aS'-'
asS'HAUS5'
p1872
(lp1873
I35612743
aI35625349
aS'+'
asS'UBXN6'
p1874
(lp1875
I4445005
aI4458759
aS'-'
asS'LOC101928845'
p1876
(lp1877
I14333742
aI14343913
aS'+'
asS'LOC101928844'
p1878
(lp1879
I5847466
aI5858239
aS'+'
asS'SNORD32A'
p1880
(lp1881
I49489965
aI49490047
aS'+'
asS'ZNF812P'
p1882
(lp1883
I9688854
aI9700817
aS'-'
asS'SNORD105'
p1884
(lp1885
I10107650
aI10107735
aS'+'
asS'SBK2'
p1886
(lp1887
I55529335
aI55537175
aS'-'
asS'SBK3'
p1888
(lp1889
I55540655
aI55545543
aS'-'
asS'HAVCR1P1'
p1890
(lp1891
I24162192
aI24163447
aS'-'
asS'MISP'
p1892
(lp1893
I748412
aI764318
aS'+'
asS'LOC105372352'
p1894
(lp1895
I29213344
aI29223137
aS'+'
asS'LOC105372353'
p1896
(lp1897
I29630263
aI29665258
aS'-'
asS'SLC25A42'
p1898
(lp1899
I19063960
aI19113030
aS'+'
asS'BCAM'
p1900
(lp1901
I44809058
aI44821421
aS'+'
asS'LOC105372356'
p1902
(lp1903
I31128241
aI31140129
aS'-'
asS'LOC105372354'
p1904
(lp1905
I30716104
aI30719694
aS'-'
asS'LOC105372355'
p1906
(lp1907
I31023356
aI31030274
aS'+'
asS'VAV1'
p1908
(lp1909
I6772667
aI6857366
aS'+'
asS'MIR517A'
p1910
(lp1911
I53712267
aI53712354
aS'+'
asS'LOC105372358'
p1912
(lp1913
I31117799
aI31147671
aS'+'
asS'MIR517C'
p1914
(lp1915
I53741312
aI53741407
aS'+'
asS'RNU6-9'
p1916
(lp1917
I893483
aI893590
aS'+'
asS'BEST2'
p1918
(lp1919
I12751690
aI12758458
aS'+'
asS'ZNF548'
p1920
(lp1921
I57389851
aI57403497
aS'+'
asS'RNU6-2'
p1922
(lp1923
I1021521
aI1021628
aS'+'
asS'LOC100505555'
p1924
(lp1925
I9787405
aI9793378
aS'-'
asS'DENND1C'
p1926
(lp1927
I6467203
aI6481808
aS'-'
asS'MIR1270'
p1928
(lp1929
I20399271
aI20399354
aS'-'
asS'TNPO2'
p1930
(lp1931
I12699193
aI12723996
aS'-'
asS'MARK4'
p1932
(lp1933
I45251257
aI45305283
aS'+'
asS'RAB8A'
p1934
(lp1935
I16111679
aI16133635
aS'+'
asS'RPL13A'
p1936
(lp1937
I49487553
aI49492308
aS'+'
asS'TECR'
p1938
(lp1939
I14527759
aI14565980
aS'+'
asS'PIK3R2'
p1940
(lp1941
I18153177
aI18170533
aS'+'
asS'PPP1R12C'
p1942
(lp1943
I55090912
aI55117600
aS'-'
asS'LOC105372424'
p1944
(lp1945
I46160875
aI46181210
aS'-'
asS'SNRNP70'
p1946
(lp1947
I49085139
aI49108613
aS'+'
asS'CACTIN-AS1'
p1948
(lp1949
I3607246
aI3613930
aS'+'
asS'LRRC8E'
p1950
(lp1951
I7888504
aI7902023
aS'+'
asS'LYL1'
p1952
(lp1953
I13099027
aI13103160
aS'-'
asS'ICAM1'
p1954
(lp1955
I10270840
aI10286615
aS'+'
asS'ELL'
p1956
(lp1957
I18442662
aI18522129
aS'-'
asS'SNAR-A3'
p1958
(lp1959
I47923778
aI47923899
aS'+'
asS'SNAR-A1'
p1960
(lp1961
I47918428
aI47918550
aS'+'
asS'MIR320E'
p1962
(lp1963
I46709292
aI46709345
aS'-'
asS'SYNGR4'
p1964
(lp1965
I48364280
aI48376377
aS'+'
asS'SNAR-A6'
p1966
(lp1967
I50103954
aI50104075
aS'-'
asS'MIR515-1'
p1968
(lp1969
I53679002
aI53679085
aS'+'
asS'MIR515-2'
p1970
(lp1971
I53685008
aI53685091
aS'+'
asS'FDX1L'
p1972
(lp1973
I10310210
aI10316015
aS'-'
asS'ZIM2'
p1974
(lp1975
I56774546
aI56840729
aS'-'
asS'ZIM3'
p1976
(lp1977
I57134095
aI57145202
aS'-'
asS'CARD8-AS1'
p1978
(lp1979
I48255674
aI48258194
aS'+'
asS'FBL'
p1980
(lp1981
I39834452
aI39846414
aS'-'
asS'LOC101927572'
p1982
(lp1983
I36014498
aI36045997
aS'+'
asS'MIR27A'
p1984
(lp1985
I13836439
aI13836517
aS'-'
asS'CACTIN'
p1986
(lp1987
I3610627
aI3626815
aS'-'
asS'FAM83E'
p1988
(lp1989
I48600809
aI48614841
aS'-'
asS'CEBPA-AS1'
p1990
(lp1991
I33302856
aI33305057
aS'+'
asS'RAB4B-EGLN2'
p1992
(lp1993
I40778218
aI40808441
aS'+'
asS'LOC101927151'
p1994
(lp1995
I27793466
aI27806782
aS'+'
asS'FAAP24'
p1996
(lp1997
I32972211
aI32977495
aS'+'
asS'PTGIR'
p1998
(lp1999
I46610039
aI46625118
aS'-'
asS'ZNF561-AS1'
p2000
(lp2001
I9621481
aI9634862
aS'+'
asS'U2AF1L4'
p2002
(lp2003
I35742526
aI35745442
aS'-'
asS'MIR7850'
p2004
(lp2005
I2630714
aI2630793
aS'+'
asS'SNRPA'
p2006
(lp2007
I40750853
aI40765392
aS'+'
asS'SSBP4'
p2008
(lp2009
I18418718
aI18434562
aS'+'
asS'SHANK1'
p2010
(lp2011
I50659256
aI50719779
aS'-'
asS'SBNO2'
p2012
(lp2013
I1107633
aI1174283
aS'-'
asS'IL27RA'
p2014
(lp2015
I14031739
aI14052919
aS'+'
asS'RGS9BP'
p2016
(lp2017
I32675406
aI32678300
aS'+'
asS'ZNF790-AS1'
p2018
(lp2019
I36797549
aI36828111
aS'+'
asS'ZBTB45'
p2020
(lp2021
I58513529
aI58541712
aS'-'
asS'U2AF2'
p2022
(lp2023
I55654049
aI55674716
aS'+'
asS'UCA1'
p2024
(lp2025
I15828946
aI15836321
aS'+'
asS'MYPOP'
p2026
(lp2027
I45890019
aI45902605
aS'-'
asS'DAND5'
p2028
(lp2029
I12969617
aI12974753
aS'+'
asS'PCSK4'
p2030
(lp2031
I1481427
aI1490874
aS'-'
asS'HIPK4'
p2032
(lp2033
I40379270
aI40390221
aS'-'
asS'TYK2'
p2034
(lp2035
I10350527
aI10380572
aS'-'
asS'MIR330'
p2036
(lp2037
I45638993
aI45639087
aS'-'
asS'BHMG1'
p2038
(lp2039
I45733250
aI45764539
aS'+'
asS'NCAN'
p2040
(lp2041
I19211972
aI19252252
aS'+'
asS'KIR3DX1'
p2042
(lp2043
I54532691
aI54545768
aS'+'
asS'SUPT5H'
p2044
(lp2045
I39445545
aI39476670
aS'+'
asS'RETN'
p2046
(lp2047
I7669085
aI7670454
aS'+'
asS'MRPL54'
p2048
(lp2049
I3762666
aI3767565
aS'+'
asS'NAPA'
p2050
(lp2051
I47487633
aI47515258
aS'-'
asS'FAM129C'
p2052
(lp2053
I17523300
aI17553839
aS'+'
asS'ARHGEF18'
p2054
(lp2055
I7348900
aI7472485
aS'+'
asS'ZNF681'
p2056
(lp2057
I23739194
aI23758891
aS'-'
asS'MUC16'
p2058
(lp2059
I8848839
aI9010390
aS'-'
asS'PLA2G4C-AS1'
p2060
(lp2061
I48061370
aI48064945
aS'+'
asS'DDX49'
p2062
(lp2063
I18919674
aI18928633
aS'+'
asS'ZNF175'
p2064
(lp2065
I51571236
aI51589738
aS'+'
asS'ZNF177'
p2066
(lp2067
I9363019
aI9382617
aS'+'
asS'ANGPTL6'
p2068
(lp2069
I10092337
aI10106194
aS'-'
asS'GADD45GIP1'
p2070
(lp2071
I12954155
aI12957254
aS'-'
asS'ANGPTL4'
p2072
(lp2073
I8364126
aI8374375
aS'+'
asS'POP4'
p2074
(lp2075
I29606262
aI29617255
aS'+'
asS'ZNF776'
p2076
(lp2077
I57746795
aI57758159
aS'+'
asS'KLC3'
p2078
(lp2079
I45340739
aI45351520
aS'+'
asS'ZNF772'
p2080
(lp2081
I57464197
aI57480950
aS'-'
asS'ZNF773'
p2082
(lp2083
I57499853
aI57516423
aS'+'
asS'ANGPTL8'
p2084
(lp2085
I11239618
aI11241943
aS'+'
asS'ELAVL1'
p2086
(lp2087
I7958572
aI8005645
aS'-'
asS'RASGRP4'
p2088
(lp2089
I38409057
aI38426305
aS'-'
asS'ELAVL3'
p2090
(lp2091
I11451327
aI11480988
aS'-'
asS'LSM14A'
p2092
(lp2093
I34172446
aI34229515
aS'+'
asS'SNORD35A'
p2094
(lp2095
I49491174
aI49491260
aS'+'
asS'SNORD35B'
p2096
(lp2097
I49497718
aI49497806
aS'+'
asS'PRG1'
p2098
(lp2099
I43349055
aI43349548
aS'+'
asS'APOE'
p2100
(lp2101
I44905748
aI44909395
aS'+'
asS'ZNF835'
p2102
(lp2103
I56662652
aI56671783
aS'-'
asS'NR2C2AP'
p2104
(lp2105
I19201408
aI19203453
aS'-'
asS'OR1I1'
p2106
(lp2107
I15087065
aI15088133
aS'+'
asS'GDF15'
p2108
(lp2109
I18386157
aI18389176
aS'+'
asS'ZNF221'
p2110
(lp2111
I43951195
aI43970207
aS'+'
asS'ZNF222'
p2112
(lp2113
I44025327
aI44033110
aS'+'
asS'ZNF223'
p2114
(lp2115
I44051371
aI44069902
aS'+'
asS'ZNF224'
p2116
(lp2117
I44094328
aI44109830
aS'+'
asS'ZNF225'
p2118
(lp2119
I44111425
aI44134816
aS'+'
asS'ZNF226'
p2120
(lp2121
I44165061
aI44177685
aS'+'
asS'ZNF227'
p2122
(lp2123
I44207526
aI44237268
aS'+'
asS'ZNF229'
p2124
(lp2125
I44426250
aI44448578
aS'-'
asS'SNAR-A14'
p2126
(lp2127
I50097825
aI50097946
aS'-'
asS'SNAR-A13'
p2128
(lp2129
I47944921
aI47945043
aS'+'
asS'SNAR-A12'
p2130
(lp2131
I47907677
aI47907799
aS'+'
asS'SNAR-A11'
p2132
(lp2133
I50128401
aI50128522
aS'-'
asS'SNAR-A10'
p2134
(lp2135
I50123073
aI50123194
aS'-'
asS'LOC390937'
p2136
(lp2137
I41907548
aI41928721
aS'-'
asS'NAPSA'
p2138
(lp2139
I50358471
aI50369331
aS'-'
asS'SLC39A3'
p2140
(lp2141
I2732523
aI2740076
aS'-'
asS'PDE4C'
p2142
(lp2143
I18207960
aI18248200
aS'-'
asS'LOC102725254'
p2144
(lp2145
I18204729
aI18205563
aS'+'
asS'GZMM'
p2146
(lp2147
I544033
aI549920
aS'+'
asS'CABP5'
p2148
(lp2149
I48029382
aI48048342
aS'-'
asS'ZNF426'
p2150
(lp2151
I9523223
aI9538645
aS'-'
asS'KIR2DL1'
p2152
(lp2153
I54769812
aI54784326
aS'+'
asS'ZNF350'
p2154
(lp2155
I51964339
aI51986876
aS'-'
asS'ZNF420'
p2156
(lp2157
I37007814
aI37130322
aS'+'
asS'KIR2DL4'
p2158
(lp2159
I54803611
aI54814517
aS'+'
asS'ZNF358'
p2160
(lp2161
I7513879
aI7521025
aS'+'
asS'ZNF428'
p2162
(lp2163
I43607223
aI43619862
aS'-'
asS'ZNF429'
p2164
(lp2165
I21505256
aI21541157
aS'+'
asS'MYH14'
p2166
(lp2167
I50188185
aI50310540
aS'+'
asS'KIAA0355'
p2168
(lp2169
I34254550
aI34355566
aS'+'
asS'SMG9'
p2170
(lp2171
I43727991
aI43754990
aS'-'
asS'LOC105372349'
p2172
(lp2173
I28444191
aI28448990
aS'+'
asS'LOC105372348'
p2174
(lp2175
I27847237
aI27862385
aS'-'
asS'BLVRB'
p2176
(lp2177
I40447783
aI40465818
aS'-'
asS'LOC105372345'
p2178
(lp2179
I27682421
aI27685253
aS'-'
asS'LOC105372347'
p2180
(lp2181
I27886265
aI27907612
aS'-'
asS'LOC105372346'
p2182
(lp2183
I27983488
aI28000379
aS'-'
asS'ZSCAN5A'
p2184
(lp2185
I56221302
aI56368383
aS'-'
asS'LOC105372343'
p2186
(lp2187
I17389068
aI17395964
aS'-'
asS'ZSCAN5B'
p2188
(lp2189
I56189688
aI56197890
aS'-'
asS'CDC34'
p2190
(lp2191
I531719
aI542088
aS'+'
asS'P2RY11'
p2192
(lp2193
I10111520
aI10115389
aS'+'
asS'CDC37'
p2194
(lp2195
I10391132
aI10403595
aS'-'
asS'LOC102723798'
p2196
(lp2197
I1162421
aI1168687
aS'+'
asS'DMPK'
p2198
(lp2199
I45769708
aI45782557
aS'-'
asS'SPIB'
p2200
(lp2201
I50418937
aI50431053
aS'+'
asS'SCAF1'
p2202
(lp2203
I49640482
aI49658642
aS'+'
asS'MIR520D'
p2204
(lp2205
I53720095
aI53720182
aS'+'
asS'APBA3'
p2206
(lp2207
I3750772
aI3761675
aS'-'
asS'PGLS'
p2208
(lp2209
I17511622
aI17521288
aS'+'
asS'NTN5'
p2210
(lp2211
I48661406
aI48673081
aS'-'
asS'LOC641367'
p2212
(lp2213
I21750744
aI21753438
aS'+'
asS'LOC107985310'
p2214
(lp2215
I46607816
aI46609246
aS'-'
asS'LOC107985311'
p2216
(lp2217
I31351478
aI31421466
aS'+'
asS'LOC107985312'
p2218
(lp2219
I31165162
aI31207649
aS'+'
asS'LOC107985314'
p2220
(lp2221
I45501541
aI45506756
aS'-'
asS'LOC107985315'
p2222
(lp2223
I45520949
aI45524313
aS'-'
asS'LOC107985317'
p2224
(lp2225
I35862914
aI35869287
aS'-'
asS'WDR87'
p2226
(lp2227
I37884576
aI37906617
aS'-'
asS'WDR83'
p2228
(lp2229
I12666803
aI12675832
aS'+'
asS'WDR88'
p2230
(lp2231
I33132091
aI33175799
aS'+'
asS'SNAR-C5'
p2232
(lp2233
I47913050
aI47913170
aS'+'
asS'SNAR-C4'
p2234
(lp2235
I47939540
aI47939660
aS'+'
asS'ACER1'
p2236
(lp2237
I6306141
aI6360359
aS'-'
asS'SNAR-C1'
p2238
(lp2239
I47955681
aI47955801
aS'+'
asS'SNAR-C3'
p2240
(lp2241
I47950295
aI47950414
aS'+'
asS'SNAR-C2'
p2242
(lp2243
I47928817
aI47928937
aS'+'
asS'ATP13A1'
p2244
(lp2245
I19645197
aI19663694
aS'-'
asS'LOC284344'
p2246
(lp2247
I43211790
aI43248646
aS'-'
asS'ZNF814'
p2248
(lp2249
I57869378
aI57889074
aS'-'
asS'NUMBL'
p2250
(lp2251
I40665904
aI40690658
aS'-'
asS'LOC105447645'
p2252
(lp2253
I48702449
aI48703848
aS'-'
asS'MIMT1'
p2254
(lp2255
I56840901
aI56848554
aS'+'
asS'ADAT3'
p2256
(lp2257
I1905371
aI1913447
aS'+'
asS'LOC100134317'
p2258
(lp2259
I36311342
aI36312668
aS'+'
asS'MIR640'
p2260
(lp2261
I19435062
aI19435158
aS'+'
asS'MIR641'
p2262
(lp2263
I40282542
aI40282641
aS'-'
asS'MIR643'
p2264
(lp2265
I52281796
aI52281893
aS'+'
asS'NKPD1'
p2266
(lp2267
I45150377
aI45162831
aS'-'
asS'FUT6'
p2268
(lp2269
I5830625
aI5839731
aS'-'
asS'FUT5'
p2270
(lp2271
I5865825
aI5870540
aS'-'
asS'FUT3'
p2272
(lp2273
I5842887
aI5851474
aS'-'
asS'FUT2'
p2274
(lp2275
I48695970
aI48705934
aS'+'
asS'FUT1'
p2276
(lp2277
I48748010
aI48755390
aS'-'
asS'PPP1R13L'
p2278
(lp2279
I45379633
aI45406349
aS'-'
asS'EEF2'
p2280
(lp2281
I3976055
aI3985463
aS'-'
asS'MIA'
p2282
(lp2283
I40775176
aI40777493
aS'+'
asS'C5AR2'
p2284
(lp2285
I47331613
aI47342080
aS'+'
asS'IZUMO1'
p2286
(lp2287
I48740892
aI48747499
aS'-'
asS'IZUMO2'
p2288
(lp2289
I50152547
aI50163281
aS'-'
asS'C5AR1'
p2290
(lp2291
I47309846
aI47322070
aS'+'
asS'IZUMO4'
p2292
(lp2293
I2096847
aI2099590
aS'+'
asS'USP29'
p2294
(lp2295
I57120140
aI57131926
aS'+'
asS'DDX39A'
p2296
(lp2297
I14408797
aI14419383
aS'-'
asS'ARHGEF1'
p2298
(lp2299
I41883199
aI41907452
aS'+'
asS'LIPE'
p2300
(lp2301
I42401506
aI42427426
aS'-'
asS'MIR1470'
p2302
(lp2303
I15449547
aI15449608
aS'+'
asS'DPRX'
p2304
(lp2305
I53601256
aI53637057
aS'+'
asS'SIGLEC16'
p2306
(lp2307
I49969599
aI49973531
aS'+'
asS'SIGLEC14'
p2308
(lp2309
I51639477
aI51646825
aS'-'
asS'PALM'
p2310
(lp2311
I708952
aI748330
aS'+'
asS'PEX11G'
p2312
(lp2313
I7476874
aI7494977
aS'-'
asS'SIGLEC11'
p2314
(lp2315
I49948992
aI49961172
aS'-'
asS'LMTK3'
p2316
(lp2317
I48485270
aI48513926
aS'-'
asS'PAFAH1B3'
p2318
(lp2319
I42297032
aI42302800
aS'-'
asS'KPTN'
p2320
(lp2321
I47475140
aI47486792
aS'-'
asS'MIR6799'
p2322
(lp2323
I49791865
aI49791934
aS'+'
asS'MIR6798'
p2324
(lp2325
I49009905
aI49009972
aS'+'
asS'MIR6795'
p2326
(lp2327
I15179282
aI15179350
aS'-'
asS'MIR6794'
p2328
(lp2329
I12852259
aI12852327
aS'+'
asS'MIR6797'
p2330
(lp2331
I41869626
aI41869698
aS'+'
asS'MIR6796'
p2332
(lp2333
I40369845
aI40369907
aS'+'
asS'MIR6791'
p2334
(lp2335
I6736711
aI6736778
aS'-'
asS'MIR6790'
p2336
(lp2337
I6392920
aI6392983
aS'-'
asS'MIR6793'
p2338
(lp2339
I10828972
aI10829035
aS'+'
asS'AZU1'
p2340
(lp2341
I827825
aI832018
aS'+'
asS'PLEKHA4'
p2342
(lp2343
I48837091
aI48868622
aS'-'
asS'EID2'
p2344
(lp2345
I39538805
aI39540198
aS'-'
asS'ZNF699'
p2346
(lp2347
I9291139
aI9309714
aS'-'
asS'ZNF833P'
p2348
(lp2349
I11673997
aI11686569
aS'+'
asS'NMRK2'
p2350
(lp2351
I3933102
aI3942416
aS'+'
asS'RRAS'
p2352
(lp2353
I49635291
aI49640143
aS'-'
asS'ZNF20'
p2354
(lp2355
I12131349
aI12140407
aS'-'
asS'LOC101928464'
p2356
(lp2357
I11987616
aI12046275
aS'+'
asS'DHX34'
p2358
(lp2359
I47349280
aI47382704
aS'+'
asS'RUVBL2'
p2360
(lp2361
I48993447
aI49015995
aS'+'
asS'OSCAR'
p2362
(lp2363
I54094667
aI54102686
aS'-'
asS'ZNF160'
p2364
(lp2365
I53066613
aI53103434
aS'-'
asS'VASP'
p2366
(lp2367
I45507429
aI45526983
aS'+'
asS'MCOLN1'
p2368
(lp2369
I7522609
aI7534009
aS'+'
asS'VN1R1'
p2370
(lp2371
I57455173
aI57456739
aS'-'
asS'SF3A2'
p2372
(lp2373
I2236816
aI2248679
aS'+'
asS'ZNF765'
p2374
(lp2375
I53395143
aI53412009
aS'+'
asS'ZNF766'
p2376
(lp2377
I52269250
aI52292726
aS'+'
asS'ZNF761'
p2378
(lp2379
I53431973
aI53458261
aS'+'
asS'ZNF763'
p2380
(lp2381
I11965053
aI11980399
aS'+'
asS'DHPS'
p2382
(lp2383
I12672163
aI12681887
aS'-'
asS'ZNF181'
p2384
(lp2385
I34734197
aI34746483
aS'+'
asS'ZNF180'
p2386
(lp2387
I44474440
aI44500539
aS'-'
asS'C3P1'
p2388
(lp2389
I10041355
aI10074138
aS'+'
asS'MIR935'
p2390
(lp2391
I53982306
aI53982397
aS'+'
asS'SHD'
p2392
(lp2393
I4278600
aI4290723
aS'+'
asS'ECSIT'
p2394
(lp2395
I11505915
aI11529172
aS'-'
asS'COX7A1'
p2396
(lp2397
I36150921
aI36152869
aS'-'
asS'CCDC8'
p2398
(lp2399
I46410328
aI46413662
aS'-'
asS'CCDC9'
p2400
(lp2401
I47256473
aI47271953
aS'+'
asS'ZNF28'
p2402
(lp2403
I52797407
aI52821686
aS'-'
asS'EPOR'
p2404
(lp2405
I11377204
aI11384342
aS'-'
asS'EGLN2'
p2406
(lp2407
I40799142
aI40808441
aS'+'
asS'LOC102723540'
p2408
(lp2409
I34850668
aI34860576
aS'-'
asS'CILP2'
p2410
(lp2411
I19538264
aI19546659
aS'+'
asS'MIR520H'
p2412
(lp2413
I53742511
aI53742599
aS'+'
asS'MYBPC2'
p2414
(lp2415
I50432902
aI50466326
aS'+'
asS'MGC45922'
p2416
(lp2417
I50817680
aI50818878
aS'+'
asS'MIR520B'
p2418
(lp2419
I53701226
aI53701287
aS'+'
asS'MIR520C'
p2420
(lp2421
I53707452
aI53707539
aS'+'
asS'MIR520A'
p2422
(lp2423
I53690880
aI53690965
aS'+'
asS'MIR520F'
p2424
(lp2425
I53682158
aI53682245
aS'+'
asS'MIR520G'
p2426
(lp2427
I53722165
aI53722255
aS'+'
asS'ZNF507'
p2428
(lp2429
I32345607
aI32387667
aS'+'
asS'ZNF506'
p2430
(lp2431
I19792710
aI19821751
aS'-'
asS'ZNF235'
p2432
(lp2433
I44286347
aI44309093
aS'-'
asS'ZNF234'
p2434
(lp2435
I44141556
aI44160309
aS'+'
asS'ZNF233'
p2436
(lp2437
I44259879
aI44275317
aS'+'
asS'ZNF230'
p2438
(lp2439
I44002924
aI44013920
aS'+'
asS'EID2B'
p2440
(lp2441
I39531532
aI39532867
aS'-'
asS'SAMD4B'
p2442
(lp2443
I39342472
aI39390748
aS'+'
asS'FBXW9'
p2444
(lp2445
I12688915
aI12696900
aS'-'
asS'USF2'
p2446
(lp2447
I35268977
aI35279821
aS'+'
asS'ZNF431'
p2448
(lp2449
I21142008
aI21191367
aS'+'
asS'ZNF430'
p2450
(lp2451
I21020619
aI21060046
aS'+'
asS'ZNF433'
p2452
(lp2453
I12014716
aI12035741
aS'-'
asS'ZNF432'
p2454
(lp2455
I52031378
aI52049124
aS'-'
asS'FBXO27'
p2456
(lp2457
I39007063
aI39032555
aS'-'
asS'CADM4'
p2458
(lp2459
I43622367
aI43641984
aS'-'
asS'ZNF439'
p2460
(lp2461
I11866028
aI11869491
aS'+'
asS'RANBP3'
p2462
(lp2463
I5916138
aI5978309
aS'-'
asS'CPT1C'
p2464
(lp2465
I49690671
aI49713731
aS'+'
asS'ZNF345'
p2466
(lp2467
I36850885
aI36893218
aS'+'
asS'LOC105372338'
p2468
(lp2469
I23549824
aI23558440
aS'+'
asS'LOC105372339'
p2470
(lp2471
I23565727
aI23569410
aS'+'
asS'TMEM147-AS1'
p2472
(lp2473
I35540737
aI35546029
aS'-'
asS'DLL3'
p2474
(lp2475
I39498916
aI39508481
aS'+'
asS'LOC105372330'
p2476
(lp2477
I22328650
aI22331600
aS'-'
asS'LOC105372331'
p2478
(lp2479
I22595381
aI22596049
aS'-'
asS'LOC105372332'
p2480
(lp2481
I22900593
aI22920493
aS'+'
asS'NUDT19'
p2482
(lp2483
I32691960
aI32713796
aS'+'
asS'LOC105372334'
p2484
(lp2485
I23479677
aI23489468
aS'-'
asS'UHRF1'
p2486
(lp2487
I4903079
aI4962154
aS'+'
asS'LOC105372337'
p2488
(lp2489
I23525773
aI23532678
aS'-'
asS'TM6SF2'
p2490
(lp2491
I19264364
aI19273265
aS'-'
asS'PIP5K1C'
p2492
(lp2493
I3630182
aI3700486
aS'-'
asS'ACTL9'
p2494
(lp2495
I8697396
aI8698830
aS'-'
asS'KEAP1'
p2496
(lp2497
I10486119
aI10503378
aS'-'
asS'MYO9B'
p2498
(lp2499
I17075780
aI17213295
aS'+'
asS'LOC107984140'
p2500
(lp2501
I48391674
aI48397023
aS'-'
asS'TGFB1'
p2502
(lp2503
I41330530
aI41353933
aS'-'
asS'LOC400682'
p2504
(lp2505
I21637370
aI21658948
aS'+'
asS'LOC400685'
p2506
(lp2507
I34816153
aI34832869
aS'-'
asS'LOC400684'
p2508
(lp2509
I32390049
aI32405539
aS'-'
asS'LOC100289650'
p2510
(lp2511
I42821862
aI42826878
aS'+'
asS'LGI4'
p2512
(lp2513
I35124512
aI35135274
aS'-'
asS'MEGF8'
p2514
(lp2515
I42325608
aI42378769
aS'+'
asS'ETFB'
p2516
(lp2517
I51345154
aI51366418
aS'-'
asS'LOC105372482'
p2518
(lp2519
I58257272
aI58278791
aS'-'
asS'SLC5A5'
p2520
(lp2521
I17871393
aI17895175
aS'+'
asS'LOC105372480'
p2522
(lp2523
I58314787
aI58327277
aS'-'
asS'LOC105372481'
p2524
(lp2525
I58305308
aI58315653
aS'+'
asS'LOC105372489'
p2526
(lp2527
I40443183
aI40445263
aS'+'
asS'LOC105372244'
p2528
(lp2529
I3296764
aI3306949
aS'-'
asS'LOC105372245'
p2530
(lp2531
I3496114
aI3501035
aS'+'
asS'LOC105372246'
p2532
(lp2533
I3481893
aI3490729
aS'+'
asS'LOC105372240'
p2534
(lp2535
I2268492
aI2269426
aS'-'
asS'RAVER1'
p2536
(lp2537
I10316211
aI10333638
aS'-'
asS'LOC105372242'
p2538
(lp2539
I3066524
aI3075474
aS'-'
asS'LOC105372243'
p2540
(lp2541
I3124311
aI3125016
aS'-'
asS'LOC105372248'
p2542
(lp2543
I3761753
aI3762640
aS'-'
asS'LOC105372249'
p2544
(lp2545
I4579928
aI4586031
aS'+'
asS'LOC107985309'
p2546
(lp2547
I13988356
aI13999659
aS'+'
asS'LOC107985308'
p2548
(lp2549
I14674994
aI14683549
aS'+'
asS'AURKC'
p2550
(lp2551
I57230316
aI57235550
aS'+'
asS'LOC107985303'
p2552
(lp2553
I1261192
aI1264418
aS'+'
asS'LOC107985302'
p2554
(lp2555
I6744994
aI6745691
aS'-'
asS'LOC107985301'
p2556
(lp2557
I37896827
aI37898293
aS'+'
asS'LOC107985306'
p2558
(lp2559
I44684912
aI44687310
aS'+'
asS'LOC107985305'
p2560
(lp2561
I44632230
aI44725208
aS'-'
asS'LOC107985304'
p2562
(lp2563
I36228225
aI36235752
aS'-'
asS'KRI1'
p2564
(lp2565
I10553084
aI10566031
aS'-'
asS'CDC42EP5'
p2566
(lp2567
I54465024
aI54473290
aS'-'
asS'SNAR-B2'
p2568
(lp2569
I50139117
aI50139237
aS'-'
asS'LOC284379'
p2570
(lp2571
I53599630
aI53603497
aS'-'
asS'SNAR-B1'
p2572
(lp2573
I50133744
aI50133864
aS'-'
asS'TMEM145'
p2574
(lp2575
I42313324
aI42325062
aS'+'
asS'TMEM143'
p2576
(lp2577
I48332355
aI48364237
aS'-'
asS'POU2F2'
p2578
(lp2579
I42086113
aI42197931
aS'-'
asS'UPK1A-AS1'
p2580
(lp2581
I35667947
aI35673291
aS'-'
asS'RAB4B'
p2582
(lp2583
I40778218
aI40796944
aS'+'
asS'NDUFB7'
p2584
(lp2585
I14566077
aI14572077
aS'-'
asS'SYMPK'
p2586
(lp2587
I45815441
aI45863290
aS'-'
asS'FCHO1'
p2588
(lp2589
I17747717
aI17788568
aS'+'
asS'LOC101928886'
p2590
(lp2591
I56066683
aI56078801
aS'+'
asS'GPR32'
p2592
(lp2593
I50770463
aI50771732
aS'+'
asS'AXL'
p2594
(lp2595
I41219198
aI41261767
aS'+'
asS'LOC102724279'
p2596
(lp2597
I15851992
aI15864904
aS'-'
asS'IL12RB1'
p2598
(lp2599
I18058993
aI18099027
aS'-'
asS'LOC102724273'
p2600
(lp2601
I54146670
aI54150774
aS'-'
asS'LOC105372335'
p2602
(lp2603
I23402521
aI23414409
aS'+'
asS'STAP2'
p2604
(lp2605
I4324042
aI4338877
aS'-'
asS'MIR6806'
p2606
(lp2607
I58334687
aI58334751
aS'+'
asS'IRF2BP1'
p2608
(lp2609
I45883606
aI45886170
aS'-'
asS'LOC105372468'
p2610
(lp2611
I56315424
aI56316029
aS'+'
asS'QPCTL'
p2612
(lp2613
I45692403
aI45703926
aS'+'
asS'MIR519A1'
p2614
(lp2615
I53752396
aI53752481
aS'+'
asS'MIR519A2'
p2616
(lp2617
I53762343
aI53762430
aS'+'
asS'LOC105372460'
p2618
(lp2619
I54514824
aI54527080
aS'-'
asS'CTU1'
p2620
(lp2621
I51097605
aI51108390
aS'-'
asS'LOC105372462'
p2622
(lp2623
I55407898
aI55428232
aS'+'
asS'VRK3'
p2624
(lp2625
I49976467
aI50025954
aS'-'
asS'PLD3'
p2626
(lp2627
I40348394
aI40378485
aS'+'
asS'MED29'
p2628
(lp2629
I39391302
aI39400637
aS'+'
asS'ERVV-1'
p2630
(lp2631
I53014090
aI53016580
aS'+'
asS'DOCK6'
p2632
(lp2633
I11199294
aI11262501
aS'-'
asS'FLJ25758'
p2634
(lp2635
I7004952
aI7006415
aS'-'
asS'MED26'
p2636
(lp2637
I16574906
aI16628204
aS'-'
asS'CC2D1A'
p2638
(lp2639
I13906142
aI13930880
aS'+'
asS'ACSBG2'
p2640
(lp2641
I6135632
aI6193103
aS'+'
asS'XRCC1'
p2642
(lp2643
I43543311
aI43575578
aS'-'
asS'MIR6789'
p2644
(lp2645
I2235828
aI2235926
aS'-'
asS'LIM2'
p2646
(lp2647
I51379908
aI51387956
aS'-'
asS'SEC1P'
p2648
(lp2649
I48638038
aI48682245
aS'+'
asS'MEIS3'
p2650
(lp2651
I47403123
aI47422315
aS'-'
asS'CLDND2'
p2652
(lp2653
I51366749
aI51369255
aS'-'
asS'LOC100996681'
p2654
(lp2655
I33553103
aI33557506
aS'+'
asS'CCER2'
p2656
(lp2657
I38908979
aI38914371
aS'-'
asS'LOC100288123'
p2658
(lp2659
I1822088
aI1824543
aS'+'
asS'FAM98C'
p2660
(lp2661
I38403123
aI38409084
aS'+'
asS'MIER2'
p2662
(lp2663
I305572
aI344793
aS'-'
asS'EPN1'
p2664
(lp2665
I55675194
aI55695767
aS'+'
asS'KIR3DL1'
p2666
(lp2667
I54816437
aI54830778
aS'+'
asS'KIR3DL2'
p2668
(lp2669
I54850318
aI54867209
aS'+'
asS'KIR3DL3'
p2670
(lp2671
I54724446
aI54736536
aS'+'
asS'DACT3-AS1'
p2672
(lp2673
I46660363
aI46677456
aS'+'
asS'SNORD88B'
p2674
(lp2675
I50799028
aI50799125
aS'-'
asS'LMNB2'
p2676
(lp2677
I2428164
aI2456968
aS'-'
asS'MBOAT7'
p2678
(lp2679
I54173413
aI54190050
aS'-'
asS'RPSAP58'
p2680
(lp2681
I23763013
aI23828135
aS'+'
asS'FGF22'
p2682
(lp2683
I639894
aI643703
aS'+'
asS'FGF21'
p2684
(lp2685
I48755558
aI48758330
aS'+'
asS'C2CD4C'
p2686
(lp2687
I405442
aI409170
aS'-'
asS'RASIP1'
p2688
(lp2689
I48720584
aI48740833
aS'-'
asS'MOB3A'
p2690
(lp2691
I2071035
aI2096502
aS'-'
asS'ZNF30'
p2692
(lp2693
I34923794
aI34945172
aS'+'
asS'KCNA7'
p2694
(lp2695
I49067417
aI49072941
aS'-'
asS'SH3GL1'
p2696
(lp2697
I4360366
aI4400568
aS'-'
asS'TMEM38A'
p2698
(lp2699
I16661126
aI16689020
aS'+'
asS'ZNF536'
p2700
(lp2701
I30224235
aI30713538
aS'+'
asS'CEACAM20'
p2702
(lp2703
I44503837
aI44530099
aS'-'
asS'CEACAM21'
p2704
(lp2705
I41549517
aI41586844
aS'+'
asS'RPS28'
p2706
(lp2707
I8321499
aI8322396
aS'+'
asS'MVB12A'
p2708
(lp2709
I17405685
aI17425339
aS'+'
asS'ZNF649-AS1'
p2710
(lp2711
I51888024
aI51900464
aS'+'
asS'LOC105372486'
p2712
(lp2713
I58514246
aI58516426
aS'+'
asS'HSD11B1L'
p2714
(lp2715
I5680764
aI5688523
aS'+'
asS'CAPN12'
p2716
(lp2717
I38730123
aI38744474
aS'-'
asS'LOC101928631'
p2718
(lp2719
I2908627
aI2926785
aS'-'
asS'LOC105372485'
p2720
(lp2721
I58499522
aI58511123
aS'+'
asS'ZNF404'
p2722
(lp2723
I43872362
aI43883964
aS'-'
asS'LENG1'
p2724
(lp2725
I54155638
aI54159743
aS'-'
asS'GATAD2A'
p2726
(lp2727
I19385832
aI19508932
aS'+'
asS'LOC105372483'
p2728
(lp2729
I58362625
aI58366578
aS'+'
asS'MIR4322'
p2730
(lp2731
I10230412
aI10230485
aS'+'
asS'MIR4323'
p2732
(lp2733
I42133444
aI42133513
aS'-'
asS'MIR4321'
p2734
(lp2735
I2250638
aI2250718
aS'+'
asS'LOC729966'
p2736
(lp2737
I18249949
aI18255419
aS'-'
asS'LOC105372328'
p2738
(lp2739
I22238865
aI22248018
aS'-'
asS'LOC105372323'
p2740
(lp2741
I21586809
aI21627976
aS'+'
asS'HSH2D'
p2742
(lp2743
I16134027
aI16158575
aS'+'
asS'LOC105372326'
p2744
(lp2745
I21878053
aI21917829
aS'+'
asS'LOC105372325'
p2746
(lp2747
I21922170
aI21937693
aS'+'
asS'LOC105372324'
p2748
(lp2749
I21858669
aI21874417
aS'-'
asS'SMARCA4'
p2750
(lp2751
I10960921
aI11062282
aS'+'
asS'MLLT1'
p2752
(lp2753
I6210380
aI6279948
aS'-'
asS'NPAS1'
p2754
(lp2755
I47019819
aI47045775
aS'+'
asS'LOC101929124'
p2756
(lp2757
I22520994
aI22527949
aS'-'
asS'FKRP'
p2758
(lp2759
I46746045
aI46758575
aS'+'
asS'HDGFRP2'
p2760
(lp2761
I4472195
aI4502220
aS'+'
asS'GTPBP3'
p2762
(lp2763
I17334981
aI17342731
aS'+'
asS'PPP6R1'
p2764
(lp2765
I55229778
aI55258670
aS'-'
asS'EMC10'
p2766
(lp2767
I50476482
aI50505905
aS'+'
asS'LOC105372257'
p2768
(lp2769
I6953210
aI6954912
aS'+'
asS'LOC105372256'
p2770
(lp2771
I6901991
aI6938791
aS'-'
asS'LOC105372255'
p2772
(lp2773
I6125425
aI6199571
aS'-'
asS'LOC105372253'
p2774
(lp2775
I5293400
aI5294681
aS'+'
asS'LOC105372252'
p2776
(lp2777
I5334000
aI5339074
aS'+'
asS'LOC105372250'
p2778
(lp2779
I4722941
aI4725174
aS'+'
asS'LOC107985336'
p2780
(lp2781
I28887862
aI28898049
aS'+'
asS'LOC107985337'
p2782
(lp2783
I1517476
aI1522391
aS'+'
asS'LOC107985334'
p2784
(lp2785
I13811184
aI13816542
aS'-'
asS'LOC107985335'
p2786
(lp2787
I28925394
aI28989321
aS'-'
asS'LOC107985332'
p2788
(lp2789
I53007285
aI53012259
aS'+'
asS'LOC107985331'
p2790
(lp2791
I52277313
aI52278005
aS'-'
asS'OR7G2'
p2792
(lp2793
I9102268
aI9103306
aS'-'
asS'OR7G3'
p2794
(lp2795
I9126011
aI9126950
aS'-'
asS'BCL3'
p2796
(lp2797
I44742620
aI44760044
aS'+'
asS'OR7G1'
p2798
(lp2799
I9114827
aI9115763
aS'-'
asS'MIR6803'
p2800
(lp2801
I55245185
aI55245250
aS'-'
asS'MAN2B1'
p2802
(lp2803
I12646507
aI12666777
aS'-'
asS'MIR6802'
p2804
(lp2805
I55239911
aI55239976
aS'-'
asS'PLK5'
p2806
(lp2807
I1524073
aI1535456
aS'+'
asS'LRFN3'
p2808
(lp2809
I35937119
aI35945195
aS'+'
asS'LRFN1'
p2810
(lp2811
I39306816
aI39320867
aS'-'
asS'ACP7'
p2812
(lp2813
I39083010
aI39111434
aS'+'
asS'CYP2B7P'
p2814
(lp2815
I40924264
aI40950660
aS'+'
asS'GIPC1'
p2816
(lp2817
I14477758
aI14496149
aS'-'
asS'TTC9B'
p2818
(lp2819
I40216057
aI40218694
aS'-'
asS'NOSIP'
p2820
(lp2821
I49555467
aI49580572
aS'-'
asS'C19orf43'
p2822
(lp2823
I12730639
aI12734715
aS'-'
asS'C19orf44'
p2824
(lp2825
I16496310
aI16521369
aS'+'
asS'C19orf45'
p2826
(lp2827
I7497558
aI7508457
aS'+'
asS'C19orf47'
p2828
(lp2829
I40292742
aI40348515
aS'-'
asS'C19orf48'
p2830
(lp2831
I50797692
aI50804853
aS'-'
asS'FSTL3'
p2832
(lp2833
I676388
aI683392
aS'+'
asS'IPO5P1'
p2834
(lp2835
I23255052
aI23274251
aS'-'
asS'LOC100652911'
p2836
(lp2837
I34905285
aI34908191
aS'+'
asS'CSNK1G2'
p2838
(lp2839
I1941148
aI1981338
aS'+'
asS'SNAPC2'
p2840
(lp2841
I7920308
aI7923251
aS'+'
asS'CSNK1G2-AS1'
p2842
(lp2843
I1952526
aI1954549
aS'-'
asS'LOC100506374'
p2844
(lp2845
I56284127
aI56291686
aS'+'
asS'ZNF442'
p2846
(lp2847
I12349374
aI12372636
aS'-'
asS'GSK3A'
p2848
(lp2849
I42230185
aI42243330
aS'-'
asS'ATP8B3'
p2850
(lp2851
I1782069
aI1812276
aS'-'
asS'CYP4F11'
p2852
(lp2853
I15912369
aI15934866
aS'-'
asS'HPN-AS1'
p2854
(lp2855
I35059058
aI35106304
aS'-'
asS'LOC105372479'
p2856
(lp2857
I58216033
aI58217941
aS'-'
asS'LOC105372478'
p2858
(lp2859
I58019301
aI58025664
aS'-'
asS'LINC01002'
p2860
(lp2861
I197015
aI202209
aS'-'
asS'LOC105372476'
p2862
(lp2863
I57267192
aI57280334
aS'-'
asS'LIPE-AS1'
p2864
(lp2865
I42397147
aI42652355
aS'+'
asS'KDELR1'
p2866
(lp2867
I48382569
aI48391553
aS'-'
asS'LOC105372473'
p2868
(lp2869
I56671942
aI56710775
aS'+'
asS'LOC105372472'
p2870
(lp2871
I56689281
aI56758298
aS'-'
asS'LOC105372471'
p2872
(lp2873
I56485910
aI56503750
aS'-'
asS'SPC24'
p2874
(lp2875
I11145493
aI11155812
aS'-'
asS'LOC102724427'
p2876
(lp2877
I20246905
aI20257291
aS'+'
asS'ZFP14'
p2878
(lp2879
I36334452
aI36379203
aS'-'
asS'LOC107983991'
p2880
(lp2881
I8655447
aI8677999
aS'+'
asS'LOC107983997'
p2882
(lp2883
I52614710
aI52690527
aS'-'
asS'LOC107983998'
p2884
(lp2885
I55634994
aI55640898
aS'+'
asS'AMH'
p2886
(lp2887
I2249113
aI2252073
aS'+'
asS'AKT1S1'
p2888
(lp2889
I49869032
aI49878356
aS'-'
asS'ZBTB32'
p2890
(lp2891
I35704480
aI35717048
aS'+'
asS'RNF225'
p2892
(lp2893
I58395080
aI58398954
aS'+'
asS'SIRT2'
p2894
(lp2895
I38878554
aI38899862
aS'-'
asS'SIRT6'
p2896
(lp2897
I4174108
aI4182604
aS'-'
asS'TMEM91'
p2898
(lp2899
I41363965
aI41384083
aS'+'
asS'SGTA'
p2900
(lp2901
I2754713
aI2783356
aS'-'
asS'FSD1'
p2902
(lp2903
I4304593
aI4323846
aS'+'
asS'NWD1'
p2904
(lp2905
I16719525
aI16817963
aS'+'
asS'KLK6'
p2906
(lp2907
I50958630
aI50969673
aS'-'
asS'HNRNPA1P10'
p2908
(lp2909
I11665735
aI11667089
aS'-'
asS'RINL'
p2910
(lp2911
I38867829
aI38878279
aS'-'
asS'ZNF211'
p2912
(lp2913
I57633166
aI57644046
aS'+'
asS'LOC107985280'
p2914
(lp2915
I30907198
aI30909155
aS'+'
asS'MIR512-1'
p2916
(lp2917
I53666678
aI53666762
aS'+'
asS'ATP5D'
p2918
(lp2919
I1241749
aI1244825
aS'+'
asS'ZNF749'
p2920
(lp2921
I57428564
aI57446654
aS'+'
asS'ODF3L2'
p2922
(lp2923
I463345
aI490287
aS'-'
asS'TRMT1'
p2924
(lp2925
I13104906
aI13117568
aS'-'
asS'LILRA5'
p2926
(lp2927
I54307069
aI54313139
aS'-'
asS'TBXA2R'
p2928
(lp2929
I3595589
aI3608749
aS'-'
asS'CGB8'
p2930
(lp2931
I49047637
aI49049111
aS'-'
asS'CGB5'
p2932
(lp2933
I49043844
aI49045311
aS'+'
asS'ZGLP1'
p2934
(lp2935
I10304802
aI10309557
aS'-'
asS'LOC100505622'
p2936
(lp2937
I42132628
aI42137099
aS'+'
asS'CGB2'
p2938
(lp2939
I49031872
aI49033238
aS'+'
asS'CGB3'
p2940
(lp2941
I49022868
aI49024375
aS'-'
asS'MPV17L2'
p2942
(lp2943
I18193229
aI18196742
aS'+'
asS'UNC13A'
p2944
(lp2945
I17601327
aI17688344
aS'-'
asS'MIR1323'
p2946
(lp2947
I53671967
aI53672040
aS'+'
asS'FAM187B'
p2948
(lp2949
I35224800
aI35228725
aS'-'
asS'SYNE4'
p2950
(lp2951
I36003298
aI36008793
aS'-'
asS'HNRNPUL1'
p2952
(lp2953
I41262475
aI41307783
aS'+'
asS'ZNF527'
p2954
(lp2955
I37371054
aI37393066
aS'+'
asS'ZNF526'
p2956
(lp2957
I42220270
aI42227053
aS'+'
asS'ZNF525'
p2958
(lp2959
I53365714
aI53386590
aS'+'
asS'ZNF524'
p2960
(lp2961
I55599771
aI55603138
aS'+'
asS'ZNF529'
p2962
(lp2963
I36543614
aI36605276
aS'-'
asS'ZNF528'
p2964
(lp2965
I52392770
aI52418408
aS'+'
asS'EMP3'
p2966
(lp2967
I48325371
aI48330553
aS'+'
asS'MIR125A'
p2968
(lp2969
I51693253
aI51693339
aS'+'
asS'RPS11'
p2970
(lp2971
I49496364
aI49499712
aS'+'
asS'RPS16'
p2972
(lp2973
I39433136
aI39436020
aS'-'
asS'RPS15'
p2974
(lp2975
I1438363
aI1440497
aS'+'
asS'LOC100129935'
p2976
(lp2977
I39638684
aI39642401
aS'+'
asS'CLPP'
p2978
(lp2979
I6361451
aI6368904
aS'+'
asS'RPS19'
p2980
(lp2981
I41859917
aI41871416
aS'+'
asS'ZNF254'
p2982
(lp2983
I24033404
aI24129968
aS'+'
asS'ZNF257'
p2984
(lp2985
I22052447
aI22091103
aS'+'
asS'ZNF256'
p2986
(lp2987
I57940832
aI57947733
aS'-'
asS'DCAF15'
p2988
(lp2989
I13952506
aI13961444
aS'+'
asS'ZNF818P'
p2990
(lp2991
I53212947
aI53216102
aS'+'
asS'SIGLEC10'
p2992
(lp2993
I51410020
aI51417803
aS'-'
asS'C19orf57'
p2994
(lp2995
I13882347
aI13906125
aS'-'
asS'ZNF419'
p2996
(lp2997
I57487710
aI57494680
aS'+'
asS'ZNF418'
p2998
(lp2999
I57921881
aI57935404
aS'-'
asS'MIR5088'
p3000
(lp3001
I49682116
aI49682195
aS'+'
asS'SLC35E1'
p3002
(lp3003
I16549836
aI16572382
aS'-'
asS'ZNF415'
p3004
(lp3005
I53107878
aI53133077
aS'-'
asS'ZNF414'
p3006
(lp3007
I8510577
aI8514164
aS'-'
asS'DAPK3'
p3008
(lp3009
I3958452
aI3971123
aS'-'
asS'RAX2'
p3010
(lp3011
I3769088
aI3772221
aS'-'
asS'RFXANK'
p3012
(lp3013
I19192198
aI19201869
aS'+'
asS'IGFLR1'
p3014
(lp3015
I35739249
aI35742450
aS'-'
asS'ZNF667-AS1'
p3016
(lp3017
I56477873
aI56495437
aS'+'
asS'KCNJ14'
p3018
(lp3019
I48455706
aI48466110
aS'+'
asS'LOC105372316'
p3020
(lp3021
I20473036
aI20571369
aS'+'
asS'LOC105372317'
p3022
(lp3023
I20431858
aI20454891
aS'+'
asS'LOC105372314'
p3024
(lp3025
I20276133
aI20285782
aS'+'
asS'LOC105372315'
p3026
(lp3027
I20358158
aI20371816
aS'+'
asS'ZNF30-AS1'
p3028
(lp3029
I34923014
aI34926826
aS'-'
asS'LOC105372310'
p3030
(lp3031
I20125695
aI20224233
aS'-'
asS'LOC105372311'
p3032
(lp3033
I20214522
aI20220307
aS'+'
asS'LOC390877'
p3034
(lp3035
I6396358
aI6412404
aS'+'
asS'LOC105372318'
p3036
(lp3037
I20610330
aI20617784
aS'+'
asS'LOC105372319'
p3038
(lp3039
I20662591
aI20692266
aS'+'
asS'DAZAP1'
p3040
(lp3041
I1407568
aI1435687
aS'+'
asS'PTPRS'
p3042
(lp3043
I5205507
aI5340803
aS'-'
asS'ACTN4'
p3044
(lp3045
I38647615
aI38730532
aS'+'
asS'FAM138F'
p3046
(lp3047
I76219
aI77690
aS'-'
asS'LILRP2'
p3048
(lp3049
I54707915
aI54713452
aS'+'
asS'CREB3L3'
p3050
(lp3051
I4153600
aI4173054
aS'+'
asS'PTPRH'
p3052
(lp3053
I55181246
aI55209506
aS'-'
asS'UBL5'
p3054
(lp3055
I9827879
aI9830121
aS'+'
asS'STK11'
p3056
(lp3057
I1205798
aI1228435
aS'+'
asS'GLTSCR2-AS1'
p3058
(lp3059
I47757035
aI47768840
aS'-'
asS'FKBP8'
p3060
(lp3061
I18531757
aI18544077
aS'-'
asS'LOC105372262'
p3062
(lp3063
I7703079
aI7707234
aS'-'
asS'LOC105372263'
p3064
(lp3065
I7770621
aI7785246
aS'+'
asS'LOC105372261'
p3066
(lp3067
I7514352
aI7524980
aS'-'
asS'LOC105372266'
p3068
(lp3069
I8008389
aI8015581
aS'+'
asS'LOC105372267'
p3070
(lp3071
I8630644
aI8638664
aS'+'
asS'NAPSB'
p3072
(lp3073
I50333799
aI50344748
aS'-'
asS'TYROBP'
p3074
(lp3075
I35904400
aI35908309
aS'-'
asS'SLC27A1'
p3076
(lp3077
I17468744
aI17506168
aS'+'
asS'LOC105372268'
p3078
(lp3079
I9507810
aI9520840
aS'-'
asS'LOC105372269'
p3080
(lp3081
I9435606
aI9462529
aS'+'
asS'LOC107985321'
p3082
(lp3083
I18791398
aI18798709
aS'+'
asS'LOC107985320'
p3084
(lp3085
I5672807
aI5678328
aS'+'
asS'LOC107985322'
p3086
(lp3087
I55610808
aI55612270
aS'-'
asS'LOC107985325'
p3088
(lp3089
I55006027
aI55042913
aS'+'
asS'LOC107985324'
p3090
(lp3091
I22248025
aI22260002
aS'-'
asS'LOC107985327'
p3092
(lp3093
I51240166
aI51271179
aS'-'
asS'LOC107985326'
p3094
(lp3095
I51281775
aI51283077
aS'+'
asS'LOC107985329'
p3096
(lp3097
I41448934
aI41450448
aS'-'
asS'OR7D2'
p3098
(lp3099
I9185593
aI9188817
aS'+'
asS'OR7D4'
p3100
(lp3101
I9213849
aI9214871
aS'-'
asS'TRAPPC2B'
p3102
(lp3103
I57363510
aI57365353
aS'+'
asS'C19orf53'
p3104
(lp3105
I13774442
aI13778773
aS'+'
asS'C19orf52'
p3106
(lp3107
I10928747
aI10930241
aS'+'
asS'LOC284395'
p3108
(lp3109
I29287010
aI29525752
aS'-'
asS'C19orf54'
p3110
(lp3111
I40740855
aI40750713
aS'-'
asS'PRR12'
p3112
(lp3113
I49591654
aI49626439
aS'+'
asS'PRR19'
p3114
(lp3115
I42302131
aI42310821
aS'+'
asS'DIRAS1'
p3116
(lp3117
I2714566
aI2721392
aS'-'
asS'HSD17B14'
p3118
(lp3119
I48813013
aI48836686
aS'-'
asS'TNFSF14'
p3120
(lp3121
I6658125
aI6670595
aS'-'
asS'LOC100128398'
p3122
(lp3123
I58002893
aI58007206
aS'+'
asS'GEMIN7'
p3124
(lp3125
I45075727
aI45090918
aS'+'
asS'MIR23A'
p3126
(lp3127
I13836586
aI13836659
aS'-'
asS'TNNT1'
p3128
(lp3129
I55132697
aI55149354
aS'-'
asS'IFNL1'
p3130
(lp3131
I39296324
aI39298672
aS'+'
asS'IFNL2'
p3132
(lp3133
I39268516
aI39270092
aS'+'
asS'IFNL3'
p3134
(lp3135
I39243535
aI39245481
aS'-'
asS'IFNL4'
p3136
(lp3137
I39246313
aI39248856
aS'-'
asS'LOC105372448'
p3138
(lp3139
I51779698
aI51783609
aS'-'
asS'LOC105372449'
p3140
(lp3141
I52230528
aI52264461
aS'+'
asS'TIMM13'
p3142
(lp3143
I2425623
aI2427916
aS'-'
asS'ZNF347'
p3144
(lp3145
I53134934
aI53159062
aS'-'
asS'LOC105372442'
p3146
(lp3147
I50958764
aI50974726
aS'+'
asS'LOC105372440'
p3148
(lp3149
I50776140
aI50786210
aS'-'
asS'LOC105372441'
p3150
(lp3151
I50830529
aI50851143
aS'+'
asS'LOC105372446'
p3152
(lp3153
I51386835
aI51414852
aS'+'
asS'LOC105372444'
p3154
(lp3155
I51271265
aI51281234
aS'+'
asS'IRGQ'
p3156
(lp3157
I43584366
aI43596135
aS'-'
asS'ERVV-2'
p3158
(lp3159
I53044737
aI53051127
aS'+'
asS'ZFP28'
p3160
(lp3161
I56536790
aI56559213
aS'+'
asS'IRGC'
p3162
(lp3163
I43716061
aI43720021
aS'+'
asS'FTL'
p3164
(lp3165
I48965308
aI48966879
aS'+'
asS'ZNRF4'
p3166
(lp3167
I5455414
aI5456856
aS'+'
asS'SBSN'
p3168
(lp3169
I35523366
aI35528371
aS'-'
asS'ZC3H4'
p3170
(lp3171
I47064186
aI47114436
aS'-'
asS'GPX4'
p3172
(lp3173
I1103925
aI1106789
aS'+'
asS'ABHD17A'
p3174
(lp3175
I1876975
aI1885519
aS'-'
asS'KLHL26'
p3176
(lp3177
I18637027
aI18670492
aS'+'
asS'CAPNS1'
p3178
(lp3179
I36139925
aI36150353
aS'+'
asS'TLE2'
p3180
(lp3181
I2997637
aI3047635
aS'-'
asS'TLE6'
p3182
(lp3183
I2977409
aI2995184
aS'+'
asS'PRKCSH'
p3184
(lp3185
I11435256
aI11450968
aS'+'
asS'ZNF816-ZNF321P'
p3186
(lp3187
I52927134
aI52962911
aS'-'
asS'LOC100128573'
p3188
(lp3189
I7472836
aI7473361
aS'-'
asS'LENG8-AS1'
p3190
(lp3191
I54444815
aI54449038
aS'-'
asS'A1BG-AS1'
p3192
(lp3193
I58351969
aI58355183
aS'+'
asS'TFPT'
p3194
(lp3195
I54107012
aI54115675
aS'-'
asS'GGN'
p3196
(lp3197
I38384346
aI38388603
aS'-'
asS'MIR199A1'
p3198
(lp3199
I10817425
aI10817496
aS'-'
asS'SLC25A41'
p3200
(lp3201
I6426036
aI6436267
aS'-'
asS'OR7C1'
p3202
(lp3203
I14797549
aI14835376
aS'-'
asS'ADGRL1'
p3204
(lp3205
I14147736
aI14206241
aS'-'
asS'GRAMD1A'
p3206
(lp3207
I34994783
aI35026471
aS'+'
asS'ZNF730'
p3208
(lp3209
I23075108
aI23147886
aS'+'
asS'ZNF880'
p3210
(lp3211
I52369899
aI52393740
aS'+'
asS'ZNF737'
p3212
(lp3213
I20531229
aI20565809
aS'-'
asS'ZNF738'
p3214
(lp3215
I21358932
aI21388582
aS'+'
asS'ZNF888'
p3216
(lp3217
I52904416
aI52929161
aS'-'
asS'LOC105372461'
p3218
(lp3219
I54561977
aI54571728
aS'+'
asS'ABCA7'
p3220
(lp3221
I1040102
aI1065572
aS'+'
asS'MIR517B'
p3222
(lp3223
I53721075
aI53721142
aS'+'
asS'SH2D3A'
p3224
(lp3225
I6752159
aI6767513
aS'-'
asS'PSMD8'
p3226
(lp3227
I38374549
aI38383824
aS'+'
asS'TMEM259'
p3228
(lp3229
I1009650
aI1021169
aS'-'
asS'KCNC3'
p3230
(lp3231
I50311941
aI50333515
aS'-'
asS'ZNF490'
p3232
(lp3233
I12576105
aI12610809
aS'-'
asS'ZNF14'
p3234
(lp3235
I19710471
aI19733112
aS'-'
asS'SCGB1B2P'
p3236
(lp3237
I34576732
aI34677031
aS'-'
asS'ZNF17'
p3238
(lp3239
I57409251
aI57421939
aS'+'
asS'PPFIA3'
p3240
(lp3241
I49119388
aI49151030
aS'+'
asS'SPACA6P-AS'
p3242
(lp3243
I51685362
aI51693456
aS'-'
asS'LOC101059948'
p3244
(lp3245
I49018247
aI49019484
aS'-'
asS'PPP5D1'
p3246
(lp3247
I46480787
aI46601200
aS'-'
asS'ZNF649'
p3248
(lp3249
I51889234
aI51905052
aS'-'
asS'ILVBL'
p3250
(lp3251
I15114973
aI15125799
aS'-'
asS'SIPA1L3'
p3252
(lp3253
I37906823
aI38208369
aS'+'
asS'MIR518B'
p3254
(lp3255
I53702736
aI53702819
aS'+'
asS'MIR518E'
p3256
(lp3257
I53729837
aI53729925
aS'+'
asS'MIR518D'
p3258
(lp3259
I53734876
aI53734963
aS'+'
asS'MIR518F'
p3260
(lp3261
I53700014
aI53700101
aS'+'
asS'LTBP4'
p3262
(lp3263
I40592887
aI40629818
aS'+'
asS'RTN2'
p3264
(lp3265
I45485287
aI45497055
aS'-'
asS'LOC101928295'
p3266
(lp3267
I49368704
aI49388081
aS'-'
asS'PLA2G4C'
p3268
(lp3269
I48047845
aI48111445
aS'-'
asS'ATP4A'
p3270
(lp3271
I35550192
aI35563658
aS'-'
asS'LOC101928344'
p3272
(lp3273
I204024
aI246516
aS'-'
asS'IER2'
p3274
(lp3275
I13150467
aI13154908
aS'+'
asS'ZNF468'
p3276
(lp3277
I52838531
aI52857649
aS'-'
asS'MBD3'
p3278
(lp3279
I1576670
aI1592761
aS'-'
asS'LILRA6'
p3280
(lp3281
I54236591
aI54242768
aS'-'
asS'LILRA4'
p3282
(lp3283
I54333184
aI54339169
aS'-'
asS'ZNF461'
p3284
(lp3285
I36636620
aI36666853
aS'-'
asS'LILRA2'
p3286
(lp3287
I54572996
aI54587560
aS'+'
asS'LILRA1'
p3288
(lp3289
I54593575
aI54602381
aS'+'
asS'RSPH6A'
p3290
(lp3291
I45795709
aI45815347
aS'-'
asS'TSPAN16'
p3292
(lp3293
I11296138
aI11326996
aS'+'
asS'REXO1'
p3294
(lp3295
I1815247
aI1848488
aS'-'
asS'LOC105372300'
p3296
(lp3297
I18319516
aI18321997
aS'+'
asS'PSG10P'
p3298
(lp3299
I42836996
aI42855718
aS'-'
asS'LOC105372309'
p3300
(lp3301
I20042287
aI20053287
aS'-'
asS'LOC105372308'
p3302
(lp3303
I20030716
aI20033058
aS'-'
asS'RASAL3'
p3304
(lp3305
I15451623
aI15464571
aS'-'
asS'ZNF264'
p3306
(lp3307
I57191499
aI57222846
aS'+'
asS'ZNF266'
p3308
(lp3309
I9412425
aI9435578
aS'-'
asS'ZNF260'
p3310
(lp3311
I36510686
aI36528488
aS'-'
asS'NDUFA11'
p3312
(lp3313
I5891275
aI5904013
aS'-'
asS'NDUFA13'
p3314
(lp3315
I19516209
aI19528204
aS'+'
asS'VSIG10L'
p3316
(lp3317
I51331540
aI51342124
aS'-'
asS'CNOT3'
p3318
(lp3319
I54137688
aI54155690
aS'+'
asS'LOC105372279'
p3320
(lp3321
I12634071
aI12640700
aS'-'
asS'LOC105372278'
p3322
(lp3323
I12551733
aI12553913
aS'+'
asS'LOC105372275'
p3324
(lp3325
I12116335
aI12149797
aS'+'
asS'PROSER3'
p3326
(lp3327
I35758152
aI35770115
aS'+'
asS'LOC105372270'
p3328
(lp3329
I9709633
aI9722410
aS'+'
asS'LOC105372273'
p3330
(lp3331
I11203627
aI11216168
aS'+'
asS'LOC105372272'
p3332
(lp3333
I10260143
aI10283474
aS'-'
asS'FCGRT'
p3334
(lp3335
I49512278
aI49526428
aS'+'
asS'GNG7'
p3336
(lp3337
I2511219
aI2702748
aS'-'
asS'LINC01480'
p3338
(lp3339
I41535497
aI41536904
aS'+'
asS'YIPF2'
p3340
(lp3341
I10922184
aI10928667
aS'-'
asS'GNG8'
p3342
(lp3343
I46633952
aI46639326
aS'-'
asS'FUZ'
p3344
(lp3345
I49806865
aI49817376
aS'-'
asS'COX6B1'
p3346
(lp3347
I35648222
aI35658784
aS'+'
asS'COX6B2'
p3348
(lp3349
I55349701
aI55354814
aS'-'
asS'C19orf66'
p3350
(lp3351
I10086118
aI10093252
aS'+'
asS'C19orf67'
p3352
(lp3353
I14080641
aI14086153
aS'-'
asS'CCDC124'
p3354
(lp3355
I17933014
aI17943985
aS'+'
asS'C19orf60'
p3356
(lp3357
I18588684
aI18592337
aS'+'
asS'KHSRP'
p3358
(lp3359
I6413103
aI6424811
aS'-'
asS'INSL3'
p3360
(lp3361
I17816512
aI17821574
aS'-'
asS'ZIK1'
p3362
(lp3363
I57583641
aI57593888
aS'+'
asS'LOC107985268'
p3364
(lp3365
I18951402
aI18956073
aS'+'
asS'LOC107985269'
p3366
(lp3367
I28312511
aI28317360
aS'-'
asS'ITPKC'
p3368
(lp3369
I40717102
aI40740860
aS'+'
asS'RAB11B'
p3370
(lp3371
I8390320
aI8404434
aS'+'
asS'TMEM86B'
p3372
(lp3373
I55226633
aI55229264
aS'-'
asS'PRR22'
p3374
(lp3375
I5782959
aI5784765
aS'-'
asS'LOC107985266'
p3376
(lp3377
I39235398
aI39237984
aS'-'
asS'ZNF304'
p3378
(lp3379
I57351252
aI57359898
aS'+'
asS'MIR518A1'
p3380
(lp3381
I53731005
aI53731090
aS'+'
asS'MIR518A2'
p3382
(lp3383
I53739332
aI53739419
aS'+'
asS'LGALS7B'
p3384
(lp3385
I38789209
aI38791754
aS'+'
asS'ZNF302'
p3386
(lp3387
I34677618
aI34686396
aS'+'
asS'NCR1'
p3388
(lp3389
I54906053
aI54938211
aS'+'
asS'SMIM7'
p3390
(lp3391
I16630740
aI16660177
aS'-'
asS'IRF3'
p3392
(lp3393
I49659568
aI49665875
aS'-'
asS'RNASEH2A'
p3394
(lp3395
I12802053
aI12813645
aS'+'
asS'CCDC106'
p3396
(lp3397
I55647587
aI55653161
aS'+'
asS'LOC105372454'
p3398
(lp3399
I53132893
aI53136184
aS'+'
asS'LOC105372457'
p3400
(lp3401
I53854248
aI53869683
aS'-'
asS'LOC105372451'
p3402
(lp3403
I52751655
aI52763187
aS'-'
asS'LOC105372453'
p3404
(lp3405
I52981523
aI52985003
aS'+'
asS'LOC105372452'
p3406
(lp3407
I52744585
aI52754098
aS'+'
asS'DMWD'
p3408
(lp3409
I45783005
aI45792802
aS'-'
asS'LOC105372458'
p3410
(lp3411
I54108401
aI54111355
aS'+'
asS'CD70'
p3412
(lp3413
I6581645
aI6591114
aS'-'
asS'ONECUT3'
p3414
(lp3415
I1753662
aI1775445
aS'+'
asS'CIRBP'
p3416
(lp3417
I1269265
aI1274810
aS'+'
asS'TMEM161A'
p3418
(lp3419
I19119615
aI19138501
aS'-'
asS'APC2'
p3420
(lp3421
I1446267
aI1473244
aS'+'
asS'LOC100129083'
p3422
(lp3423
I51415905
aI51417425
aS'+'
asS'LOC100289333'
p3424
(lp3425
I12195014
aI12207574
aS'+'
asS'NLRP5'
p3426
(lp3427
I55999725
aI56061810
aS'+'
asS'NLRP4'
p3428
(lp3429
I55836577
aI55881855
aS'+'
asS'NLRP7'
p3430
(lp3431
I54923513
aI54965184
aS'-'
asS'NLRP2'
p3432
(lp3433
I54965283
aI55001142
aS'+'
asS'NLRP9'
p3434
(lp3435
I55708431
aI55738402
aS'-'
asS'NLRP8'
p3436
(lp3437
I55947831
aI55988629
aS'+'
asS'TEX101'
p3438
(lp3439
I43388610
aI43418615
aS'+'
asS'TNFSF9'
p3440
(lp3441
I6530998
aI6535928
aS'+'
asS'TMEM150B'
p3442
(lp3443
I55308870
aI55334032
aS'-'
asS'LOC101927522'
p3444
(lp3445
I35415907
aI35434728
aS'-'
asS'CLASRP'
p3446
(lp3447
I45039039
aI45070956
aS'+'
asS'LINC01595'
p3448
(lp3449
I47863228
aI47869361
aS'-'
asS'MIR7974'
p3450
(lp3451
I11495543
aI11495622
aS'-'
asS'MIR7975'
p3452
(lp3453
I55123224
aI55123292
aS'-'
asS'SEPW1'
p3454
(lp3455
I47778584
aI47784682
aS'+'
asS'MED25'
p3456
(lp3457
I49818286
aI49840384
aS'+'
asS'PAF1'
p3458
(lp3459
I39385628
aI39391195
aS'-'
asS'COL5A3'
p3460
(lp3461
I9959560
aI10010532
aS'-'
asS'JOSD2'
p3462
(lp3463
I50505996
aI50511355
aS'-'
asS'MIR6515'
p3464
(lp3465
I12940483
aI12940540
aS'+'
asS'OR10H2'
p3466
(lp3467
I15728023
aI15729052
aS'+'
asS'OR10H3'
p3468
(lp3469
I15741392
aI15742343
aS'+'
asS'OR10H1'
p3470
(lp3471
I15806956
aI15808759
aS'-'
asS'LOC728752'
p3472
(lp3473
I36489626
aI36491040
aS'+'
asS'OR10H5'
p3474
(lp3475
I15794048
aI15794996
aS'+'
asS'ZFP36'
p3476
(lp3477
I39406846
aI39409412
aS'+'
asS'HKR1'
p3478
(lp3479
I37317899
aI37364454
aS'+'
asS'MIR373'
p3480
(lp3481
I53788704
aI53788773
aS'+'
asS'LENG9'
p3482
(lp3483
I54461795
aI54463711
aS'-'
asS'LENG8'
p3484
(lp3485
I54448718
aI54462022
aS'+'
asS'UQCR11'
p3486
(lp3487
I1597154
aI1605484
aS'-'
asS'ERCC2'
p3488
(lp3489
I45349836
aI45370647
aS'-'
asS'LAIR2'
p3490
(lp3491
I54502796
aI54510690
aS'+'
asS'ZNF529-AS1'
p3492
(lp3493
I36573069
aI36594716
aS'+'
asS'NLRP11'
p3494
(lp3495
I55785396
aI55836762
aS'-'
asS'MRPS12'
p3496
(lp3497
I38930707
aI38933020
aS'+'
asS'NLRP13'
p3498
(lp3499
I55891691
aI55932336
aS'-'
asS'ZSCAN4'
p3500
(lp3501
I57651496
aI57679152
aS'+'
asS'BBC3'
p3502
(lp3503
I47220821
aI47232998
aS'-'
asS'VSTM1'
p3504
(lp3505
I54040824
aI54063966
aS'-'
asS'SERTAD1'
p3506
(lp3507
I40422500
aI40426025
aS'-'
asS'CEBPA'
p3508
(lp3509
I33299933
aI33302564
aS'-'
asS'SERTAD3'
p3510
(lp3511
I40440840
aI40444375
aS'-'
asS'CEBPG'
p3512
(lp3513
I33373668
aI33382686
aS'+'
asS'MIR372'
p3514
(lp3515
I53787889
aI53787956
aS'+'
asS'ZNF726'
p3516
(lp3517
I23914881
aI23933967
aS'+'
asS'ZNF729'
p3518
(lp3519
I22286403
aI22317438
aS'+'
asS'ZNF728'
p3520
(lp3521
I22974882
aI23003208
aS'-'
asS'KDM4B'
p3522
(lp3523
I4969111
aI5153603
aS'+'
asS'TNNI3'
p3524
(lp3525
I55151766
aI55157732
aS'-'
asS'MED16'
p3526
(lp3527
I867960
aI893228
aS'-'
asS'ZNF541'
p3528
(lp3529
I47520684
aI47573248
aS'-'
asS'ZNF543'
p3530
(lp3531
I57320496
aI57330776
aS'+'
asS'LOC100507373'
p3532
(lp3533
I14137151
aI14171264
aS'+'
asS'LSM7'
p3534
(lp3535
I2321520
aI2328615
aS'-'
asS'MIR642B'
p3536
(lp3537
I45674931
aI45675008
aS'-'
asS'MIR642A'
p3538
(lp3539
I45674927
aI45675024
aS'+'
asS'THOP1'
p3540
(lp3541
I2785459
aI2813604
aS'+'
asS'ZNF69'
p3542
(lp3543
I11887772
aI11980222
aS'+'
asS'MIR1181'
p3544
(lp3545
I10403457
aI10403538
aS'-'
asS'CEACAM18'
p3546
(lp3547
I51478542
aI51491261
aS'+'
asS'HMHA1'
p3548
(lp3549
I1065922
aI1087831
aS'+'
asS'LOC101928517'
p3550
(lp3551
I51152922
aI51181966
aS'-'
asS'CEACAM16'
p3552
(lp3553
I44699150
aI44710714
aS'+'
asS'ZNF460'
p3554
(lp3555
I57279407
aI57298370
aS'+'
asS'SNORD105B'
p3556
(lp3557
I10109748
aI10109840
aS'+'
asS'CLEC4M'
p3558
(lp3559
I7763148
aI7770559
aS'+'
asS'GFY'
p3560
(lp3561
I49425398
aI49429064
aS'+'
asS'CLEC4G'
p3562
(lp3563
I7728956
aI7732171
aS'-'
asS'NOTCH3'
p3564
(lp3565
I15159632
aI15200981
aS'-'
asS'CACNG8'
p3566
(lp3567
I53963035
aI53990215
aS'+'
asS'CLEC4GP1'
p3568
(lp3569
I7787483
aI7791012
aS'+'
asS'CACNG6'
p3570
(lp3571
I53991148
aI54012666
aS'+'
asS'CACNG7'
p3572
(lp3573
I53909424
aI53943944
aS'+'
asS'MIR519D'
p3574
(lp3575
I53713346
aI53713434
aS'+'
asS'TOMM40'
p3576
(lp3577
I44891219
aI44903689
aS'+'
asS'APOC1P1'
p3578
(lp3579
I44926802
aI44931386
aS'+'
asS'MIR519C'
p3580
(lp3581
I53686468
aI53686555
aS'+'
asS'CRLF1'
p3582
(lp3583
I18593224
aI18606850
aS'-'
asS'APOC4'
p3584
(lp3585
I44942237
aI44945496
aS'+'
asS'MIR4750'
p3586
(lp3587
I49888174
aI49888230
aS'+'
asS'APOC2'
p3588
(lp3589
I44945981
aI44949565
aS'+'
asS'RLN3'
p3590
(lp3591
I14028147
aI14031558
aS'+'
asS'ASPDH'
p3592
(lp3593
I50511599
aI50514690
aS'-'
asS'CERS4'
p3594
(lp3595
I8209328
aI8262433
aS'+'
asS'ZNF383'
p3596
(lp3597
I37217925
aI37248740
aS'+'
asS'LOC102723617'
p3598
(lp3599
I35597894
aI35601501
aS'+'
asS'CERS1'
p3600
(lp3601
I18868545
aI18896144
aS'-'
asS'EML2'
p3602
(lp3603
I45609395
aI45645601
aS'-'
asS'GADD45B'
p3604
(lp3605
I2476124
aI2478259
aS'+'
asS'LOC101928602'
p3606
(lp3607
I2458936
aI2462185
aS'-'
asS'SCGB2B2'
p3608
(lp3609
I34590624
aI34594585
aS'-'
asS'ZNF471'
p3610
(lp3611
I56507842
aI56530214
aS'+'
asS'ADM5'
p3612
(lp3613
I49688684
aI49690990
aS'+'
asS'ZNF473'
p3614
(lp3615
I50025805
aI50048776
aS'+'
asS'ZNF542P'
p3616
(lp3617
I56368098
aI56379828
aS'+'
asS'GPI'
p3618
(lp3619
I34359591
aI34402413
aS'+'
asS'ZNF826P'
p3620
(lp3621
I20398657
aI20424965
aS'-'
asS'SLC25A23'
p3622
(lp3623
I6436080
aI6460221
aS'-'
asS'FAM90A27P'
p3624
(lp3625
I53282289
aI53284349
aS'+'
asS'CNN1'
p3626
(lp3627
I11538716
aI11550323
aS'+'
asS'SNRPD2'
p3628
(lp3629
I45687453
aI45692316
aS'-'
asS'CNN2'
p3630
(lp3631
I1026274
aI1039068
aS'+'
asS'MIR5196'
p3632
(lp3633
I35345512
aI35345627
aS'+'
asS'FOXA3'
p3634
(lp3635
I45864259
aI45873797
aS'+'
asS'BST2'
p3636
(lp3637
I17402938
aI17405648
aS'-'
asS'CRX'
p3638
(lp3639
I47821841
aI47843330
aS'+'
asS'CARM1'
p3640
(lp3641
I10871610
aI10923078
aS'+'
asS'CRTC1'
p3642
(lp3643
I18683614
aI18782333
aS'+'
asS'PNMAL2'
p3644
(lp3645
I46491190
aI46495912
aS'-'
asS'EXOC3L2'
p3646
(lp3647
I45212620
aI45234211
aS'-'
asS'PNMAL1'
p3648
(lp3649
I46466501
aI46471577
aS'-'
asS'B9D2'
p3650
(lp3651
I41354416
aI41364540
aS'-'
asS'SDHAF1'
p3652
(lp3653
I35995187
aI35996318
aS'+'
asS'LOC101929007'
p3654
(lp3655
I21569901
aI21594430
aS'-'
asS'TRPM4'
p3656
(lp3657
I49157740
aI49211841
aS'+'
asS'LOC105372435'
p3658
(lp3659
I49808831
aI49809821
aS'+'
asS'LOC100420587'
p3660
(lp3661
I28435387
aI28727694
aS'-'
asS'C19orf71'
p3662
(lp3663
I3539156
aI3544030
aS'+'
asS'C19orf70'
p3664
(lp3665
I5678413
aI5680896
aS'-'
asS'C19orf73'
p3666
(lp3667
I49118396
aI49119140
aS'-'
asS'SPACA4'
p3668
(lp3669
I48606742
aI48607714
aS'+'
asS'SPACA6'
p3670
(lp3671
I51691820
aI51712071
aS'+'
asS'CCDC130'
p3672
(lp3673
I13731759
aI13763298
aS'+'
asS'ZNF583'
p3674
(lp3675
I56404013
aI56425031
aS'+'
asS'TBC1D17'
p3676
(lp3677
I49877424
aI49888750
aS'+'
asS'LINC01233'
p3678
(lp3679
I22532625
aI22533494
aS'+'
asS'LOC107985278'
p3680
(lp3681
I2017076
aI2034891
aS'-'
asS'SULT2B1'
p3682
(lp3683
I48552171
aI48599427
aS'+'
asS'NXNL1'
p3684
(lp3685
I17455424
aI17460916
aS'-'
asS'LOC107985271'
p3686
(lp3687
I30078162
aI30086522
aS'+'
asS'LOC107985270'
p3688
(lp3689
I32206083
aI32216481
aS'+'
asS'LOC107985277'
p3690
(lp3691
I49884636
aI49887469
aS'-'
asS'LOC107985275'
p3692
(lp3693
I44180077
aI44199490
aS'+'
asS'VMAC'
p3694
(lp3695
I5904840
aI5910252
aS'+'
asS'ZNF587'
p3696
(lp3697
I57849812
aI57865123
aS'+'
asS'THEG'
p3698
(lp3699
I362056
aI376693
aS'-'
asS'DOHH'
p3700
(lp3701
I3490820
aI3500940
aS'-'
asS'OLFM2'
p3702
(lp3703
I9853717
aI9936552
aS'-'
asS'DNAAF3'
p3704
(lp3705
I55158660
aI55166722
aS'-'
asS'LOC105372420'
p3706
(lp3707
I45153502
aI45157364
aS'+'
asS'LOC105372421'
p3708
(lp3709
I46027647
aI46037241
aS'+'
asS'ICAM5'
p3710
(lp3711
I10289434
aI10296778
aS'+'
asS'ICAM4'
p3712
(lp3713
I10286966
aI10288584
aS'+'
asS'ICAM3'
p3714
(lp3715
I10333775
aI10339834
aS'-'
asS'LOC105372426'
p3716
(lp3717
I46390453
aI46405354
aS'-'
asS'LOC105372427'
p3718
(lp3719
I47280114
aI47292076
aS'+'
asS'LOC105372429'
p3720
(lp3721
I48262699
aI48271702
aS'-'
asS'SLC8A2'
p3722
(lp3723
I47428021
aI47472050
aS'-'
asS'EFNA2'
p3724
(lp3725
I1282816
aI1301431
aS'+'
asS'PODNL1'
p3726
(lp3727
I13931186
aI13953392
aS'-'
asS'LRP3'
p3728
(lp3729
I33194692
aI33208867
aS'+'
asS'ISOC2'
p3730
(lp3731
I55452977
aI55461682
aS'-'
asS'LYPLA2P2'
p3732
(lp3733
I7878618
aI7880232
aS'-'
asS'OR7A10'
p3734
(lp3735
I14840947
aI14841877
aS'-'
asS'OR7A17'
p3736
(lp3737
I14880425
aI14881355
aS'-'
asS'PDE4A'
p3738
(lp3739
I10416772
aI10469631
aS'+'
asS'WDR18'
p3740
(lp3741
I982979
aI994557
aS'+'
asS'CALR3'
p3742
(lp3743
I16479056
aI16496192
aS'-'
asS'PEG3'
p3744
(lp3745
I56810076
aI56840726
aS'-'
asS'MAP4K1'
p3746
(lp3747
I38587639
aI38618035
aS'-'
asS'PPP2R1A'
p3748
(lp3749
I52189801
aI52226425
aS'+'
asS'WASH5P'
p3750
(lp3751
I60950
aI70966
aS'-'
asS'MAP2K2'
p3752
(lp3753
I4090320
aI4124184
aS'-'
asS'MAP2K7'
p3754
(lp3755
I7903779
aI7914483
aS'+'
asS'OCEL1'
p3756
(lp3757
I17226203
aI17229219
aS'+'
asS'TEAD2'
p3758
(lp3759
I49340594
aI49362457
aS'-'
asS'LOC105372470'
p3760
(lp3761
I56280598
aI56284535
aS'-'
asS'PDCD2L'
p3762
(lp3763
I34404397
aI34426168
aS'+'
asS'PLEKHF1'
p3764
(lp3765
I29665419
aI29675477
aS'+'
asS'LOC107985341'
p3766
(lp3767
I51065650
aI51066881
aS'+'
asS'HSPB6'
p3768
(lp3769
I35754565
aI35757029
aS'-'
asS'KMT2B'
p3770
(lp3771
I35717817
aI35738878
aS'+'
asS'PKN1'
p3772
(lp3773
I14433353
aI14471867
aS'+'
asS'CLEC11A'
p3774
(lp3775
I50723347
aI50725724
aS'+'
asS'ZNF714'
p3776
(lp3777
I21082146
aI21125094
aS'+'
asS'MIR521-1'
p3778
(lp3779
I53748635
aI53748722
aS'+'
asS'ZNF865'
p3780
(lp3781
I55613592
aI55618545
aS'+'
asS'CYP2G1P'
p3782
(lp3783
I40890825
aI40900508
aS'+'
asS'MIR521-2'
p3784
(lp3785
I53716593
aI53716680
aS'+'
asS'ZNF625-ZNF20'
p3786
(lp3787
I12131349
aI12156731
aS'-'
asS'GOLGA2P9'
p3788
(lp3789
I22596256
aI22603550
aS'+'
asS'MIRLET7E'
p3790
(lp3791
I51692785
aI51692864
aS'+'
asS'LOC100379224'
p3792
(lp3793
I44105338
aI44113183
aS'-'
asS'KIRREL2'
p3794
(lp3795
I35851634
aI35867146
aS'+'
asS'CASP14'
p3796
(lp3797
I15049479
aI15058293
aS'+'
asS'APLP1'
p3798
(lp3799
I35868444
aI35879797
aS'+'
asS'MIR1199'
p3800
(lp3801
I14073360
aI14073479
aS'+'
asS'ZNF77'
p3802
(lp3803
I2933217
aI2944971
aS'-'
asS'SPINT2'
p3804
(lp3805
I38264457
aI38292614
aS'+'
asS'CYP2F1'
p3806
(lp3807
I41114431
aI41128381
aS'+'
asS'RYR1'
p3808
(lp3809
I38433699
aI38587564
aS'+'
asS'LIG1'
p3810
(lp3811
I48115444
aI48170603
aS'-'
asS'PTBP1'
p3812
(lp3813
I797391
aI812327
aS'+'
asS'ZNF665'
p3814
(lp3815
I53163298
aI53193366
aS'-'
asS'ZNF667'
p3816
(lp3817
I56439323
aI56477401
aS'-'
asS'SCAMP4'
p3818
(lp3819
I1905373
aI1926013
aS'+'
asS'LRRC4B'
p3820
(lp3821
I50516896
aI50568208
aS'-'
asS'LOC107987268'
p3822
(lp3823
I43784291
aI43785752
aS'-'
asS'LOC107987269'
p3824
(lp3825
I46716529
aI46719412
aS'-'
asS'LOC107987266'
p3826
(lp3827
I609939
aI613238
aS'-'
asS'LOC107987267'
p3828
(lp3829
I39940134
aI39953054
aS'-'
asS'GIPC3'
p3830
(lp3831
I3585530
aI3593541
aS'+'
asS'ZNF444'
p3832
(lp3833
I56140950
aI56160893
aS'+'
asS'ZNF446'
p3834
(lp3835
I58475854
aI58489533
aS'+'
asS'ZNF440'
p3836
(lp3837
I11814240
aI11835617
aS'+'
asS'ZNF441'
p3838
(lp3839
I11766999
aI11784078
aS'+'
asS'KCTD15'
p3840
(lp3841
I33796842
aI33815761
aS'+'
asS'ZNF443'
p3842
(lp3843
I12429705
aI12458699
aS'-'
asS'FZR1'
p3844
(lp3845
I3506114
aI3536750
aS'+'
asS'MIR1302-11'
p3846
(lp3847
I71972
aI72110
aS'+'
asS'DKKL1'
p3848
(lp3849
I49360519
aI49375119
aS'+'
asS'MIR526A2'
p3850
(lp3851
I53726921
aI53726986
aS'+'
asS'MIR526A1'
p3852
(lp3853
I53706251
aI53706336
aS'+'
asS'TSEN34'
p3854
(lp3855
I54190267
aI54194536
aS'+'
asS'SYT5'
p3856
(lp3857
I55173094
aI55180441
aS'-'
asS'DNM2'
p3858
(lp3859
I10718052
aI10831910
aS'+'
asS'PSENEN'
p3860
(lp3861
I35745576
aI35747155
aS'+'
asS'LOC101929164'
p3862
(lp3863
I23015074
aI23023697
aS'-'
asS'SAMD1'
p3864
(lp3865
I14088416
aI14090420
aS'-'
asS'ZNF284'
p3866
(lp3867
I44072136
aI44089613
aS'+'
asS'ZNF285'
p3868
(lp3869
I44385645
aI44401611
aS'-'
asS'ZNF283'
p3870
(lp3871
I43827291
aI43853286
aS'+'
asS'ZNF534'
p3872
(lp3873
I52431413
aI52451939
aS'+'
asS'PLPPR2'
p3874
(lp3875
I11355385
aI11365698
aS'+'
asS'PLPPR3'
p3876
(lp3877
I812487
aI824244
aS'-'
asS'STRN4'
p3878
(lp3879
I46719508
aI46746475
aS'-'
asS'GYS1'
p3880
(lp3881
I48968124
aI48993353
aS'-'
asS'LOC100505851'
p3882
(lp3883
I23949578
aI23957930
aS'-'
asS'NPHS1'
p3884
(lp3885
I35825371
aI35851993
aS'-'
asS'ZNF530'
p3886
(lp3887
I57599884
aI57612722
aS'+'
asS'OR7C2'
p3888
(lp3889
I14941488
aI14942448
aS'+'
asS'ZNF324B'
p3890
(lp3891
I58451603
aI58457832
aS'+'
asS'ETV2'
p3892
(lp3893
I35641174
aI35644871
aS'+'
asS'BTBD2'
p3894
(lp3895
I1985447
aI2015703
aS'-'
asS'EHD2'
p3896
(lp3897
I47713343
aI47743134
aS'+'
asS'RAD23A'
p3898
(lp3899
I12945813
aI12953643
aS'+'
asS'FOSB'
p3900
(lp3901
I45467994
aI45475179
aS'+'
asS'SIGLEC17P'
p3902
(lp3903
I51167327
aI51173524
aS'+'
asS'LOC400706'
p3904
(lp3905
I46057677
aI46077629
aS'-'
asS'LINC00665'
p3906
(lp3907
I36313060
aI36331718
aS'-'
asS'LINC00664'
p3908
(lp3909
I21483714
aI21503238
aS'+'
asS'LINC00661'
p3910
(lp3911
I16015633
aI16027462
aS'+'
asS'LINC00663'
p3912
(lp3913
I19756370
aI19776413
aS'-'
asS'LINC00662'
p3914
(lp3915
I27790492
aI27793940
aS'-'
asS'LGALS13'
p3916
(lp3917
I39602410
aI39607474
aS'+'
asS'TICAM1'
p3918
(lp3919
I4815923
aI4831742
aS'-'
asS'CCDC105'
p3920
(lp3921
I15010726
aI15023271
aS'+'
asS'LGALS16'
p3922
(lp3923
I39655893
aI39660647
aS'+'
asS'TMED1'
p3924
(lp3925
I10832066
aI10836307
aS'-'
asS'LGALS14'
p3926
(lp3927
I39704305
aI39709448
aS'+'
asS'MIR7108'
p3928
(lp3929
I2434913
aI2435000
aS'-'
asS'POLD1'
p3930
(lp3931
I50384290
aI50418016
aS'+'
asS'HNRNPL'
p3932
(lp3933
I38836387
aI38852339
aS'-'
asS'HNRNPM'
p3934
(lp3935
I8444574
aI8489114
aS'+'
asS'LINC01224'
p3936
(lp3937
I23399232
aI23416074
aS'-'
asS'IL4I1'
p3938
(lp3939
I49889653
aI49929539
aS'-'
asS'PDCD5'
p3940
(lp3941
I32581160
aI32587425
aS'+'
asS'REEP6'
p3942
(lp3943
I1491165
aI1497925
aS'+'
asS'NFIC'
p3944
(lp3945
I3359562
aI3469217
aS'+'
asS'TSKS'
p3946
(lp3947
I49739752
aI49763328
aS'-'
asS'EML2-AS1'
p3948
(lp3949
I45641493
aI45642840
aS'+'
asS'SYDE1'
p3950
(lp3951
I15107363
aI15114988
aS'+'
asS'LOC105372465'
p3952
(lp3953
I55753611
aI55755650
aS'+'
asS'PSPN'
p3954
(lp3955
I6375293
aI6375849
aS'-'
asS'PGPEP1'
p3956
(lp3957
I18340572
aI18369950
aS'+'
asS'SLC6A16'
p3958
(lp3959
I49289647
aI49332320
aS'-'
asS'LOC105372433'
p3960
(lp3961
I49412951
aI49416158
aS'-'
asS'LOC105372432'
p3962
(lp3963
I48807252
aI48810790
aS'+'
asS'LOC105372431'
p3964
(lp3965
I48673173
aI48677069
aS'-'
asS'LOC105372430'
p3966
(lp3967
I48465470
aI48469507
aS'-'
asS'LOC105372437'
p3968
(lp3969
I50337681
aI50372899
aS'+'
asS'LOC105372436'
p3970
(lp3971
I50137495
aI50148452
aS'-'
asS'LOC101930071'
p3972
(lp3973
I42397127
aI42408452
aS'+'
asS'LOC105372434'
p3974
(lp3975
I49748407
aI49757913
aS'+'
asS'LOC105372439'
p3976
(lp3977
I50788406
aI50793298
aS'-'
asS'LOC644554'
p3978
(lp3979
I37817410
aI37826638
aS'+'
asS'WIZ'
p3980
(lp3981
I15421506
aI15449951
aS'-'
asS'LOC284454'
p3982
(lp3983
I13834515
aI13836289
aS'-'
asS'CIC'
p3984
(lp3985
I42268536
aI42295796
aS'+'
asS'CPAMD8'
p3986
(lp3987
I16892950
aI17026818
aS'-'
asS'LOC101928804'
p3988
(lp3989
I54769421
aI54771064
aS'-'
asS'ARID3A'
p3990
(lp3991
I925732
aI975934
aS'+'
asS'IGFL4'
p3992
(lp3993
I46039747
aI46041016
aS'-'
asS'LOC105372321'
p3994
(lp3995
I21444103
aI21464314
aS'-'
asS'LONP1'
p3996
(lp3997
I5691833
aI5720452
aS'-'
asS'GAPDHS'
p3998
(lp3999
I35533411
aI35545319
aS'+'
asS'DMKN'
p4000
(lp4001
I35497219
aI35513678
aS'-'
asS'RAB3D'
p4002
(lp4003
I11322045
aI11339668
aS'-'
asS'RAB3A'
p4004
(lp4005
I18196800
aI18204064
aS'-'
asS'ARMC6'
p4006
(lp4007
I19033577
aI19058178
aS'+'
asS'LRG1'
p4008
(lp4009
I4537214
aI4540024
aS'-'
asS'SIGLEC6'
p4010
(lp4011
I51517724
aI51531856
aS'-'
asS'PLEKHG2'
p4012
(lp4013
I39412581
aI39428404
aS'+'
asS'SIGLEC7'
p4014
(lp4015
I51142260
aI51153526
aS'+'
asS'SLC7A10'
p4016
(lp4017
I33208663
aI33225850
aS'-'
asS'SIGLEC8'
p4018
(lp4019
I51450996
aI51458454
aS'-'
asS'SIGLEC9'
p4020
(lp4021
I51124907
aI51140480
aS'+'
asS'SIGLEC5'
p4022
(lp4023
I51610966
aI51630428
aS'-'
asS'SELV'
p4024
(lp4025
I39515112
aI39520686
aS'+'
asS'NFIX'
p4026
(lp4027
I12995511
aI13098796
aS'+'
as.