(dp1
S'RANGRF'
p2
(lp3
I8287149
aI8290087
aS'+'
asS'MIR6080'
p4
(lp5
I64780758
aI64780824
aS'+'
asS'KRTAP1-1'
p6
(lp7
I41040558
aI41041461
aS'-'
asS'NCBP3'
p8
(lp9
I3806747
aI3846251
aS'-'
asS'MTVR2'
p10
(lp11
I56884101
aI56884913
aS'-'
asS'PROCA1'
p12
(lp13
I28703196
aI28712065
aS'-'
asS'COPRS'
p14
(lp15
I31851864
aI31859307
aS'-'
asS'ZSWIM7'
p16
(lp17
I15976559
aI15999692
aS'-'
asS'RNF112'
p18
(lp19
I19407168
aI19417276
aS'+'
asS'MEIS3P1'
p20
(lp21
I15786849
aI15789705
aS'+'
asS'DHX8'
p22
(lp23
I43483864
aI43544787
aS'+'
asS'NSRP1'
p24
(lp25
I30115525
aI30186475
aS'+'
asS'LOC101928738'
p26
(lp27
I79919356
aI79924010
aS'+'
asS'LOC100130876'
p28
(lp29
I940339
aI943610
aS'-'
asS'SP2'
p30
(lp31
I47896031
aI47932271
aS'+'
asS'MIR6883'
p32
(lp33
I8144993
aI8145071
aS'-'
asS'RAB40B'
p34
(lp35
I82657066
aI82698722
aS'-'
asS'PTRH2'
p36
(lp37
I59697305
aI59707598
aS'-'
asS'TRAPPC1'
p38
(lp39
I7930344
aI7931999
aS'-'
asS'LOC100996291'
p40
(lp41
I78261348
aI78278492
aS'-'
asS'LOC100996294'
p42
(lp43
I20530041
aI20533255
aS'-'
asS'ACLY'
p44
(lp45
I41866915
aI41930542
aS'-'
asS'SPPL2C'
p46
(lp47
I45844889
aI45847072
aS'+'
asS'ATP2A3'
p48
(lp49
I3923868
aI3964464
aS'-'
asS'ALDH3A2'
p50
(lp51
I19648135
aI19677596
aS'+'
asS'ITGA3'
p52
(lp53
I50055967
aI50090485
aS'+'
asS'MFSD11'
p54
(lp55
I76738236
aI76803805
aS'+'
asS'LOC102724956'
p56
(lp57
I36264648
aI36265447
aS'+'
asS'LRRC37A8P'
p58
(lp59
I35904219
aI35911023
aS'-'
asS'LOC100287072'
p60
(lp61
I20716482
aI20737865
aS'+'
asS'WSB1'
p62
(lp63
I27294079
aI27313631
aS'+'
asS'KSR1'
p64
(lp65
I27456455
aI27626438
aS'+'
asS'GHDC'
p66
(lp67
I42189086
aI42194532
aS'-'
asS'SDK2'
p68
(lp69
I73334383
aI73644474
aS'-'
asS'ASB16-AS1'
p70
(lp71
I44175972
aI44186717
aS'-'
asS'GRAPL'
p72
(lp73
I19123191
aI19159187
aS'+'
asS'LOC100507131'
p74
(lp75
I17858226
aI17860803
aS'-'
asS'MIR6867'
p76
(lp77
I40193596
aI40193663
aS'+'
asS'MIR6866'
p78
(lp79
I40161932
aI40162001
aS'+'
asS'MIR6865'
p80
(lp81
I4970085
aI4970150
aS'-'
asS'MIR6864'
p82
(lp83
I4969701
aI4969771
aS'-'
asS'ATAD5'
p84
(lp85
I30831948
aI30896424
aS'+'
asS'TP53I13'
p86
(lp87
I29568066
aI29573157
aS'+'
asS'NOG'
p88
(lp89
I56593698
aI56595590
aS'+'
asS'PSMD11'
p90
(lp91
I32444462
aI32483319
aS'+'
asS'PSMD12'
p92
(lp93
I67337915
aI67366627
aS'-'
asS'LOC101928710'
p94
(lp95
I78617383
aI78632057
aS'-'
asS'GIT1'
p96
(lp97
I29573468
aI29589592
aS'-'
asS'HLF'
p98
(lp99
I55264959
aI55325065
aS'+'
asS'FAM134C'
p100
(lp101
I42579507
aI42609427
aS'-'
asS'ITGAE'
p102
(lp103
I3714627
aI3803766
aS'-'
asS'METTL2A'
p104
(lp105
I62423884
aI62450093
aS'+'
asS'MIR3065'
p106
(lp107
I81125876
aI81125955
aS'+'
asS'LOC105371560'
p108
(lp109
I15734844
aI15743791
aS'-'
asS'LOC105371562'
p110
(lp111
I16988116
aI16990848
aS'+'
asS'LOC105371566'
p112
(lp113
I18101980
aI18118047
aS'-'
asS'LOC105371567'
p114
(lp115
I18153200
aI18155340
aS'-'
asS'LOC105371568'
p116
(lp117
I18146964
aI18153138
aS'-'
asS'LOC105371569'
p118
(lp119
I18442883
aI18448741
aS'-'
asS'LOC102723819'
p120
(lp121
I38029294
aI38041724
aS'-'
asS'LOC101928000'
p122
(lp123
I5111934
aI5114382
aS'+'
asS'LOC284191'
p124
(lp125
I16975270
aI16981353
aS'-'
asS'MGC57346'
p126
(lp127
I45620328
aI45637963
aS'+'
asS'PRKAR1A'
p128
(lp129
I68413622
aI68533431
aS'+'
asS'LINC00674'
p130
(lp131
I68101554
aI68135929
aS'+'
asS'LINC00675'
p132
(lp133
I10794912
aI10804099
aS'-'
asS'LINC00672'
p134
(lp135
I38925167
aI38929384
aS'+'
asS'LINC00673'
p136
(lp137
I72403321
aI72592804
aS'-'
asS'LINC00670'
p138
(lp139
I12549967
aI12637187
aS'+'
asS'LINC00671'
p140
(lp141
I42874673
aI42898734
aS'-'
asS'MIR4739'
p142
(lp143
I79707175
aI79707249
aS'-'
asS'RAB11FIP4'
p144
(lp145
I31391623
aI31538217
aS'+'
asS'FAM20A'
p146
(lp147
I68534560
aI68600794
aS'-'
asS'DCAKD'
p148
(lp149
I45023337
aI45061129
aS'-'
asS'METTL23'
p150
(lp151
I76725873
aI76733880
aS'+'
asS'LOC107985039'
p152
(lp153
I34100201
aI34100957
aS'+'
asS'LOC107985038'
p154
(lp155
I33935441
aI33987548
aS'-'
asS'SPHK1'
p156
(lp157
I76382976
aI76387860
aS'+'
asS'LOC101927666'
p158
(lp159
I58076890
aI58083204
aS'-'
asS'CUEDC1'
p160
(lp161
I57861242
aI57955323
aS'-'
asS'LOC107985031'
p162
(lp163
I36595645
aI36597014
aS'+'
asS'LOC107985030'
p164
(lp165
I40120553
aI40121839
aS'-'
asS'LOC107985033'
p166
(lp167
I35552594
aI35555549
aS'+'
asS'LOC107985032'
p168
(lp169
I35537123
aI35552311
aS'+'
asS'LOC107985035'
p170
(lp171
I34072083
aI34082982
aS'-'
asS'LOC107985034'
p172
(lp173
I75130949
aI75149199
aS'+'
asS'LOC107985036'
p174
(lp175
I34089141
aI34111806
aS'-'
asS'LOC105371814'
p176
(lp177
I48874859
aI48908983
aS'-'
asS'SPNS3'
p178
(lp179
I4433923
aI4488204
aS'+'
asS'SPNS2'
p180
(lp181
I4498833
aI4539933
aS'+'
asS'LOC107985056'
p182
(lp183
I36146904
aI36156994
aS'+'
asS'MIR4730'
p184
(lp185
I80419417
aI80419493
aS'+'
asS'LOC100129503'
p186
(lp187
I81003412
aI81005072
aS'+'
asS'MIR4733'
p188
(lp189
I31094349
aI31094425
aS'-'
asS'MIR1203'
p190
(lp191
I48156426
aI48156511
aS'-'
asS'LOC105371757'
p192
(lp193
I37798005
aI37815711
aS'-'
asS'LOC105371756'
p194
(lp195
I37642314
aI37651481
aS'+'
asS'LOC105371755'
p196
(lp197
I37617424
aI37689527
aS'+'
asS'MIR4732'
p198
(lp199
I28861654
aI28861730
aS'-'
asS'LOC105371753'
p200
(lp201
I37042989
aI37054100
aS'-'
asS'LOC105371751'
p202
(lp203
I36671800
aI36676900
aS'-'
asS'LOC105371750'
p204
(lp205
I36722485
aI36773551
aS'+'
asS'UBTF'
p206
(lp207
I44205032
aI44221626
aS'-'
asS'MIR4734'
p208
(lp209
I38702261
aI38702331
aS'-'
asS'LOC101927864'
p210
(lp211
I2366588
aI2372192
aS'-'
asS'LOC105371933'
p212
(lp213
I35372832
aI35374859
aS'+'
asS'LOC105371812'
p214
(lp215
I48752905
aI48753609
aS'+'
asS'MIR6884'
p216
(lp217
I40026331
aI40026409
aS'-'
asS'LOC105371813'
p218
(lp219
I48812239
aI48816958
aS'+'
asS'GFAP'
p220
(lp221
I44905625
aI44915552
aS'-'
asS'HEXDC'
p222
(lp223
I82418375
aI82442640
aS'+'
asS'DHRS7B'
p224
(lp225
I21123368
aI21191436
aS'+'
asS'DHRS7C'
p226
(lp227
I9771433
aI9791297
aS'-'
asS'CA10'
p228
(lp229
I51630312
aI52160017
aS'-'
asS'SP6'
p230
(lp231
I47844907
aI47876312
aS'-'
asS'ANKFY1'
p232
(lp233
I4163370
aI4263979
aS'-'
asS'LOC100294362'
p234
(lp235
I80351829
aI80415168
aS'-'
asS'MAPT-AS1'
p236
(lp237
I45843355
aI45895513
aS'-'
asS'CALCOCO2'
p238
(lp239
I48830987
aI48865245
aS'+'
asS'CRAT40'
p240
(lp241
I65457540
aI65458408
aS'+'
asS'TRIM16'
p242
(lp243
I15627965
aI15682879
aS'-'
asS'PRPF8'
p244
(lp245
I1650628
aI1684882
aS'-'
asS'MIR497'
p246
(lp247
I7017910
aI7018022
aS'-'
asS'PLEKHH3'
p248
(lp249
I42667913
aI42677030
aS'-'
asS'SLC47A2'
p250
(lp251
I19678314
aI19718979
aS'-'
asS'SLC47A1'
p252
(lp253
I19533853
aI19579033
aS'+'
asS'LOC100506388'
p254
(lp255
I331204
aI333488
aS'+'
asS'PIP4K2B'
p256
(lp257
I38765690
aI38799965
aS'-'
asS'LOC101927557'
p258
(lp259
I57522247
aI57523597
aS'-'
asS'LOC107985050'
p260
(lp261
I78175130
aI78184999
aS'+'
asS'RFFL'
p262
(lp263
I35009111
aI35089329
aS'-'
asS'MRPL38'
p264
(lp265
I75898642
aI75905100
aS'-'
asS'SNORA90'
p266
(lp267
I37244800
aI37244975
aS'+'
asS'MIR1268B'
p268
(lp269
I80098827
aI80098877
aS'+'
asS'RHBDL3'
p270
(lp271
I32266166
aI32324654
aS'+'
asS'FAM106CP'
p272
(lp273
I16788742
aI16790501
aS'+'
asS'CD300C'
p274
(lp275
I74534358
aI74546166
aS'-'
asS'CD300A'
p276
(lp277
I74466319
aI74484796
aS'+'
asS'STRADA'
p278
(lp279
I63702831
aI63741970
aS'-'
asS'CD300E'
p280
(lp281
I74609882
aI74623758
aS'-'
asS'RECQL5'
p282
(lp283
I75626844
aI75667197
aS'-'
asS'TEN1-CDK3'
p284
(lp285
I75979216
aI76005999
aS'+'
asS'DDX42'
p286
(lp287
I63773855
aI63819317
aS'+'
asS'MSL1'
p288
(lp289
I40121408
aI40136789
aS'+'
asS'COPS3'
p290
(lp291
I17246623
aI17281303
aS'-'
asS'FAM215A'
p292
(lp293
I43917207
aI43917987
aS'+'
asS'NUP85'
p294
(lp295
I75205449
aI75235759
aS'+'
asS'MED1'
p296
(lp297
I39404284
aI39451281
aS'-'
asS'ZNF594'
p298
(lp299
I5174020
aI5191894
aS'-'
asS'C17orf64'
p300
(lp301
I60421090
aI60431426
aS'+'
asS'MED9'
p302
(lp303
I17476985
aI17493220
aS'+'
asS'GAST'
p304
(lp305
I41712325
aI41715969
aS'+'
asS'CEP95'
p306
(lp307
I64506735
aI64537951
aS'+'
asS'C17orf67'
p308
(lp309
I56791912
aI56833895
aS'-'
asS'CBX2'
p310
(lp311
I79776253
aI79787580
aS'+'
asS'CAMTA2'
p312
(lp313
I4967992
aI4988297
aS'-'
asS'VEZF1'
p314
(lp315
I57971548
aI57988254
aS'-'
asS'NLK'
p316
(lp317
I28042646
aI28205140
aS'+'
asS'PIRT'
p318
(lp319
I10822474
aI10838101
aS'-'
asS'TNS4'
p320
(lp321
I40475827
aI40501681
aS'-'
asS'LOC339166'
p322
(lp323
I5772233
aI5930696
aS'+'
asS'IGFBP4'
p324
(lp325
I40443423
aI40457730
aS'+'
asS'TK1'
p326
(lp327
I78174078
aI78187204
aS'-'
asS'LRRC37A11P'
p328
(lp329
I39029905
aI39053205
aS'+'
asS'DHX40'
p330
(lp331
I59565524
aI59608352
aS'+'
asS'PFN1'
p332
(lp333
I4945649
aI4949086
aS'-'
asS'SHISA6'
p334
(lp335
I11241422
aI11564063
aS'+'
asS'COX10'
p336
(lp337
I14069401
aI14208679
aS'+'
asS'COX11'
p338
(lp339
I54953655
aI54971024
aS'-'
asS'FBXL20'
p340
(lp341
I39252643
aI39402659
aS'-'
asS'ALOX15P1'
p342
(lp343
I6657718
aI6661382
aS'+'
asS'GAS7'
p344
(lp345
I9910608
aI10198551
aS'-'
asS'TMC6'
p346
(lp347
I78112917
aI78132427
aS'-'
asS'ARGFXP2'
p348
(lp349
I32150356
aI32151571
aS'-'
asS'ANKRD13B'
p350
(lp351
I29589768
aI29614761
aS'+'
asS'TEX14'
p352
(lp353
I58556676
aI58692055
aS'-'
asS'TMC8'
p354
(lp355
I78129297
aI78142968
aS'+'
asS'MIR6780A'
p356
(lp357
I42708083
aI42708151
aS'-'
asS'CD300LG'
p358
(lp359
I43846776
aI43863639
aS'+'
asS'CD300LF'
p360
(lp361
I74694307
aI74713059
aS'-'
asS'CD300LD'
p362
(lp363
I74579971
aI74592231
aS'-'
asS'CD300LB'
p364
(lp365
I74521173
aI74531474
aS'-'
asS'MIR5010'
p366
(lp367
I42514187
aI42514307
aS'+'
asS'LOC101929141'
p368
(lp369
I18835663
aI18842368
aS'+'
asS'LOC102724532'
p370
(lp371
I47891228
aI47895816
aS'-'
asS'CDRT15P1'
p372
(lp373
I14024497
aI14025598
aS'+'
asS'CDRT15P2'
p374
(lp375
I15764702
aI15765689
aS'+'
asS'ITGA2B'
p376
(lp377
I44372180
aI44389601
aS'-'
asS'RPS6KB1'
p378
(lp379
I59893045
aI59950426
aS'+'
asS'ADAP2'
p380
(lp381
I30921735
aI30959193
aS'+'
asS'UTP18'
p382
(lp383
I51260535
aI51297933
aS'+'
asS'MIR8059'
p384
(lp385
I50768649
aI50768730
aS'+'
asS'LOC653653'
p386
(lp387
I60101759
aI60102919
aS'-'
asS'ALDH3A1'
p388
(lp389
I19737983
aI19748433
aS'-'
asS'NLGN2'
p390
(lp391
I7405491
aI7419860
aS'+'
asS'KRTAP2-3'
p392
(lp393
I41059239
aI41060092
aS'-'
asS'KRTAP2-2'
p394
(lp395
I41054497
aI41055211
aS'-'
asS'KRTAP2-1'
p396
(lp397
I41046540
aI41047316
aS'-'
asS'KRTAP2-4'
p398
(lp399
I41065115
aI41065879
aS'-'
asS'ASGR1'
p400
(lp401
I7173430
aI7179564
aS'-'
asS'ASGR2'
p402
(lp403
I7101321
aI7115522
aS'-'
asS'TSEN54'
p404
(lp405
I75516527
aI75524739
aS'+'
asS'LOC105371573'
p406
(lp407
I19362771
aI19371290
aS'+'
asS'LOC105371570'
p408
(lp409
I18438451
aI18440057
aS'-'
asS'LOC105371574'
p410
(lp411
I19418869
aI19460967
aS'-'
asS'LOC105371579'
p412
(lp413
I20084461
aI20087049
aS'-'
asS'LOC105371578'
p414
(lp415
I19559805
aI19571057
aS'-'
asS'LOC102723806'
p416
(lp417
I82395799
aI82396443
aS'+'
asS'FAM117A'
p418
(lp419
I49710324
aI49764156
aS'-'
asS'ALOX12P2'
p420
(lp421
I6853575
aI6900349
aS'+'
asS'VMP1'
p422
(lp423
I59707501
aI59840593
aS'+'
asS'CRHR1-IT1'
p424
(lp425
I45638974
aI45646229
aS'+'
asS'DCXR'
p426
(lp427
I82035880
aI82037697
aS'-'
asS'EPN2-AS1'
p428
(lp429
I19296595
aI19306261
aS'-'
asS'NR1D1'
p430
(lp431
I40092783
aI40100725
aS'-'
asS'AXIN2'
p432
(lp433
I65528562
aI65561622
aS'-'
asS'LOC146880'
p434
(lp435
I64749661
aI64781999
aS'-'
asS'LOC102723933'
p436
(lp437
I38153224
aI38165697
aS'-'
asS'CCT6B'
p438
(lp439
I34927922
aI34981221
aS'-'
asS'RAC3'
p440
(lp441
I82031655
aI82034204
aS'+'
asS'LOC100134391'
p442
(lp443
I73737853
aI73756557
aS'+'
asS'NLE1'
p444
(lp445
I35128754
aI35142304
aS'-'
asS'DNAI2'
p446
(lp447
I74274214
aI74314884
aS'+'
asS'CYTH1'
p448
(lp449
I78674046
aI78782342
aS'-'
asS'GCGR'
p450
(lp451
I81804077
aI81814008
aS'+'
asS'LOC102724715'
p452
(lp453
I32877341
aI32906609
aS'+'
asS'LOC105371762'
p454
(lp455
I38719087
aI38720345
aS'-'
asS'DPH1'
p456
(lp457
I2030136
aI2043431
aS'+'
asS'LOC105371760'
p458
(lp459
I38266770
aI38295605
aS'-'
asS'LOC105371761'
p460
(lp461
I38564329
aI38565391
aS'+'
asS'LOC105371766'
p462
(lp463
I39026714
aI39027110
aS'-'
asS'MIR4521'
p464
(lp465
I8186944
aI8187004
aS'+'
asS'LOC105371764'
p466
(lp467
I38682079
aI38686828
aS'-'
asS'MIR4523'
p468
(lp469
I29390661
aI29390730
aS'+'
asS'LOC105371768'
p470
(lp471
I39165072
aI39184380
aS'+'
asS'CEP131'
p472
(lp473
I81189592
aI81222989
aS'-'
asS'SLC16A5'
p474
(lp475
I75087962
aI75106590
aS'+'
asS'SLC16A6'
p476
(lp477
I68267025
aI68291264
aS'-'
asS'TUBG1'
p478
(lp479
I42609339
aI42615238
aS'+'
asS'CDRT15L2'
p480
(lp481
I20579723
aI20580911
aS'+'
asS'DCAF7'
p482
(lp483
I63550434
aI63594279
aS'+'
asS'PRO1804'
p484
(lp485
I69232974
aI69235012
aS'-'
asS'CANT1'
p486
(lp487
I78991715
aI79009817
aS'-'
asS'WIPF2'
p488
(lp489
I40219303
aI40284136
aS'+'
asS'DYNLL2'
p490
(lp491
I58083418
aI58090257
aS'+'
asS'OR3A4P'
p492
(lp493
I3310244
aI3311446
aS'+'
asS'MIR4315-1'
p494
(lp495
I45475362
aI45475435
aS'-'
asS'C1QTNF1-AS1'
p496
(lp497
I79019208
aI79027655
aS'-'
asS'CDR2L'
p498
(lp499
I74987631
aI75005800
aS'+'
asS'GPS1'
p500
(lp501
I82051476
aI82057470
aS'+'
asS'GPS2'
p502
(lp503
I7312658
aI7315339
aS'-'
asS'GSDMA'
p504
(lp505
I39962972
aI39977880
aS'+'
asS'GSDMB'
p506
(lp507
I39904594
aI39919377
aS'-'
asS'CACNA1G'
p508
(lp509
I50560928
aI50629625
aS'+'
asS'LOC107546764'
p510
(lp511
I43938260
aI43938962
aS'+'
asS'LOC284080'
p512
(lp513
I50050348
aI50055739
aS'-'
asS'MIR196A1'
p514
(lp515
I48632489
aI48632559
aS'-'
asS'SEPT4-AS1'
p516
(lp517
I58519836
aI58556925
aS'+'
asS'FLCN'
p518
(lp519
I17206944
aI17237185
aS'-'
asS'LOC100505782'
p520
(lp521
I41402415
aI41412588
aS'+'
asS'TRIM25'
p522
(lp523
I56887908
aI56914048
aS'-'
asS'LOC102724596'
p524
(lp525
I49361369
aI49380094
aS'+'
asS'PER1'
p526
(lp527
I8140469
aI8156405
aS'-'
asS'C17orf112'
p528
(lp529
I52985516
aI52987658
aS'+'
asS'ORMDL3'
p530
(lp531
I39921040
aI39927804
aS'-'
asS'MIR152'
p532
(lp533
I48037160
aI48037247
aS'-'
asS'KAT7'
p534
(lp535
I49788618
aI49829096
aS'+'
asS'GALR2'
p536
(lp537
I76070821
aI76077537
aS'+'
asS'TTC19'
p538
(lp539
I15999466
aI16045428
aS'+'
asS'RNF157-AS1'
p540
(lp541
I76140555
aI76154648
aS'+'
asS'MRPL27'
p542
(lp543
I50367866
aI50373201
aS'-'
asS'LOC440434'
p544
(lp545
I38195739
aI38257249
aS'-'
asS'KAT2A'
p546
(lp547
I42113111
aI42121393
aS'-'
asS'LOC102724625'
p548
(lp549
I32087549
aI32091785
aS'-'
asS'LOC400627'
p550
(lp551
I80968620
aI80971862
aS'-'
asS'NPTX1'
p552
(lp553
I80466832
aI80476604
aS'-'
asS'KANSL1-AS1'
p554
(lp555
I46193572
aI46196723
aS'+'
asS'PPM1E'
p556
(lp557
I58755868
aI58985179
aS'+'
asS'PPM1D'
p558
(lp559
I60600182
aI60666280
aS'+'
asS'SRSF1'
p560
(lp561
I58000918
aI58007346
aS'-'
asS'SRSF2'
p562
(lp563
I76734114
aI76737431
aS'-'
asS'SNORD91A'
p564
(lp565
I2330278
aI2330370
aS'-'
asS'USP43'
p566
(lp567
I9643492
aI9729687
aS'+'
asS'LOC400622'
p568
(lp569
I77526570
aI77536598
aS'+'
asS'LOC105371595'
p570
(lp571
I22234555
aI22266369
aS'-'
asS'RNF135'
p572
(lp573
I30968641
aI30999911
aS'+'
asS'MILR1'
p574
(lp575
I64449021
aI64474009
aS'+'
asS'LOC400620'
p576
(lp577
I73786821
aI73800795
aS'+'
asS'GID4'
p578
(lp579
I18039296
aI18068404
aS'+'
asS'CISD3'
p580
(lp581
I38730256
aI38735605
aS'+'
asS'PRAC2'
p582
(lp583
I48720801
aI48724758
aS'+'
asS'PRAC1'
p584
(lp585
I48721718
aI48722520
aS'-'
asS'SCRN2'
p586
(lp587
I47837680
aI47841333
aS'-'
asS'CCDC144NL-AS1'
p588
(lp589
I20868432
aI20905230
aS'+'
asS'LOC105376791'
p590
(lp591
I82701886
aI82705465
aS'-'
asS'SUZ12P1'
p592
(lp593
I30709607
aI30770050
aS'+'
asS'CAMKK1'
p594
(lp595
I3860314
aI3894891
aS'-'
asS'SNORA38B'
p596
(lp597
I67740669
aI67740801
aS'+'
asS'MYO1D'
p598
(lp599
I32492521
aI32877173
aS'-'
asS'MYO1C'
p600
(lp601
I1464185
aI1492707
aS'-'
asS'GRN'
p602
(lp603
I44345085
aI44353106
aS'+'
asS'LRRC37A2'
p604
(lp605
I46512656
aI46556747
aS'+'
asS'LRRC37A3'
p606
(lp607
I64854146
aI64966228
aS'-'
asS'SNORD1B'
p608
(lp609
I76561107
aI76561193
aS'+'
asS'SNORD1C'
p610
(lp611
I76558791
aI76558869
aS'+'
asS'CD79B'
p612
(lp613
I63928737
aI63932344
aS'-'
asS'MEOX1'
p614
(lp615
I43640388
aI43661894
aS'-'
asS'ADPRM'
p616
(lp617
I10697609
aI10711558
aS'+'
asS'SLC52A1'
p618
(lp619
I5032601
aI5035458
aS'-'
asS'CNTD1'
p620
(lp621
I42798835
aI42811587
aS'+'
asS'METRNL'
p622
(lp623
I83079690
aI83095126
aS'+'
asS'DHX58'
p624
(lp625
I42101403
aI42112733
aS'-'
asS'ZNF385C'
p626
(lp627
I42025575
aI42065667
aS'-'
asS'KCNJ2-AS1'
p628
(lp629
I70166960
aI70169402
aS'-'
asS'FBXO47'
p630
(lp631
I38936277
aI38967475
aS'-'
asS'KCNH4'
p632
(lp633
I42156891
aI42181278
aS'-'
asS'LOC101928021'
p634
(lp635
I67244775
aI67262080
aS'+'
asS'SRR'
p636
(lp637
I2303370
aI2325267
aS'+'
asS'LGALS9'
p638
(lp639
I27631147
aI27649560
aS'+'
asS'KCNH6'
p640
(lp641
I63523333
aI63548977
aS'+'
asS'RAP1GAP2'
p642
(lp643
I2755697
aI3037741
aS'+'
asS'FSCN2'
p644
(lp645
I81513018
aI81537130
aS'+'
asS'TCAP'
p646
(lp647
I39665345
aI39666554
aS'+'
asS'KCNJ2'
p648
(lp649
I70169534
aI70180044
aS'+'
asS'SNORD10'
p650
(lp651
I7576810
aI7576958
aS'+'
asS'HN1'
p652
(lp653
I75135242
aI75154683
aS'-'
asS'SCARNA16'
p654
(lp655
I77089306
aI77089493
aS'+'
asS'MYO19'
p656
(lp657
I36495754
aI36535457
aS'-'
asS'COL1A1'
p658
(lp659
I50184095
aI50201648
aS'-'
asS'ALOX12'
p660
(lp661
I6993790
aI7010523
aS'+'
asS'LOC729683'
p662
(lp663
I63700337
aI63702685
aS'+'
asS'SNORA59B'
p664
(lp665
I19557559
aI19557711
aS'+'
asS'SMCR8'
p666
(lp667
I18315279
aI18328056
aS'+'
asS'MIR4738'
p668
(lp669
I75784520
aI75784607
aS'-'
asS'LOC105371818'
p670
(lp671
I50157836
aI50166722
aS'-'
asS'LOC105371819'
p672
(lp673
I50238848
aI50256593
aS'+'
asS'MPDU1'
p674
(lp675
I7583646
aI7588212
aS'+'
asS'MIR4731'
p676
(lp677
I15251626
aI15251696
aS'-'
asS'LOC105371547'
p678
(lp679
I15175086
aI15182015
aS'+'
asS'SMCR2'
p680
(lp681
I17674025
aI17677688
aS'-'
asS'PEX12'
p682
(lp683
I35574794
aI35578637
aS'-'
asS'SMCR5'
p684
(lp685
I17776685
aI17779529
aS'-'
asS'LOC105371540'
p686
(lp687
I12590696
aI12606135
aS'-'
asS'LOC105371541'
p688
(lp689
I13298857
aI13306791
aS'-'
asS'LINC01476'
p690
(lp691
I59430868
aI59526857
aS'-'
asS'RPL27'
p692
(lp693
I42998428
aI43002959
aS'+'
asS'RPL26'
p694
(lp695
I8377515
aI8383247
aS'-'
asS'TAC4'
p696
(lp697
I49838308
aI49848017
aS'-'
asS'RPL23'
p698
(lp699
I38850067
aI38853800
aS'-'
asS'LOC101929511'
p700
(lp701
I82290045
aI82292814
aS'-'
asS'LOC101060400'
p702
(lp703
I48634803
aI48639366
aS'-'
asS'SLC16A11'
p704
(lp705
I7041616
aI7044411
aS'-'
asS'SLC16A13'
p706
(lp707
I7036074
aI7040121
aS'+'
asS'SPAG7'
p708
(lp709
I4959225
aI4967837
aS'-'
asS'RGS9'
p710
(lp711
I65137337
aI65227703
aS'+'
asS'PIGL'
p712
(lp713
I16217208
aI16351800
aS'+'
asS'PIGS'
p714
(lp715
I28553387
aI28571869
aS'-'
asS'WRAP53'
p716
(lp717
I7686070
aI7703502
aS'+'
asS'PIGW'
p718
(lp719
I36534763
aI36539303
aS'+'
asS'TAX1BP3'
p720
(lp721
I3662892
aI3668679
aS'-'
asS'LRRC59'
p722
(lp723
I50381232
aI50397553
aS'-'
asS'FBXO39'
p724
(lp725
I6776183
aI6798929
aS'+'
asS'PDK2'
p726
(lp727
I50094736
aI50111369
aS'+'
asS'WBP2'
p728
(lp729
I75845698
aI75855420
aS'-'
asS'FLJ35934'
p730
(lp731
I18411158
aI18414388
aS'+'
asS'MIR193A'
p732
(lp733
I31559995
aI31560083
aS'+'
asS'MIR6868'
p734
(lp735
I76098018
aI76098076
aS'-'
asS'LOC105371778'
p736
(lp737
I41351496
aI41353798
aS'+'
asS'LOC100506371'
p738
(lp739
I183823
aI187251
aS'-'
asS'LOC105371775'
p740
(lp741
I40671604
aI40697840
aS'+'
asS'LOC105371777'
p742
(lp743
I40848852
aI40921603
aS'+'
asS'LOC105371776'
p744
(lp745
I40801333
aI40814128
aS'+'
asS'LOC105371771'
p746
(lp747
I39594730
aI39598774
aS'-'
asS'LOC105371770'
p748
(lp749
I39571409
aI39573140
aS'-'
asS'LOC105371773'
p750
(lp751
I40516927
aI40522565
aS'+'
asS'MAFG'
p752
(lp753
I81918268
aI81927711
aS'-'
asS'SLC39A11'
p754
(lp755
I72645945
aI73092714
aS'-'
asS'ARHGAP23'
p756
(lp757
I38419285
aI38512389
aS'+'
asS'ARHGAP27'
p758
(lp759
I45393907
aI45432867
aS'-'
asS'MRPS7'
p760
(lp761
I75261667
aI75266376
aS'+'
asS'CCR10'
p762
(lp763
I42679401
aI42681827
aS'-'
asS'IFI35'
p764
(lp765
I43006724
aI43014459
aS'+'
asS'MIR451A'
p766
(lp767
I28861368
aI28861440
aS'-'
asS'MIR451B'
p768
(lp769
I28861370
aI28861438
aS'+'
asS'LOC100128006'
p770
(lp771
I12760133
aI12790284
aS'-'
asS'TOB1-AS1'
p772
(lp773
I50866678
aI50868371
aS'+'
asS'NKIRAS2'
p774
(lp775
I42017575
aI42025641
aS'+'
asS'SOCS7'
p776
(lp777
I38351875
aI38405593
aS'+'
asS'SOCS3'
p778
(lp779
I78356776
aI78360079
aS'-'
asS'GRB2'
p780
(lp781
I75318075
aI75405709
aS'-'
asS'GRB7'
p782
(lp783
I39737908
aI39747285
aS'+'
asS'CCL3L3'
p784
(lp785
I36194868
aI36196748
aS'-'
asS'MARCH10'
p786
(lp787
I62701313
aI62808381
aS'-'
asS'MIR4525'
p788
(lp789
I82668232
aI82668307
aS'-'
asS'TRIM37'
p790
(lp791
I58968067
aI59106753
aS'-'
asS'G6PC3'
p792
(lp793
I44070699
aI44076341
aS'+'
asS'VMO1'
p794
(lp795
I4785284
aI4786434
aS'-'
asS'DBIL5P'
p796
(lp797
I752332
aI755336
aS'+'
asS'RSAD1'
p798
(lp799
I50478799
aI50485980
aS'+'
asS'CHD3'
p800
(lp801
I7884763
aI7912755
aS'+'
asS'CYGB'
p802
(lp803
I76528617
aI76557692
aS'-'
asS'LOC388406'
p804
(lp805
I60564545
aI60586620
aS'+'
asS'MIR635'
p806
(lp807
I68424450
aI68424548
aS'-'
asS'ABHD15'
p808
(lp809
I29560660
aI29567024
aS'-'
asS'MIR636'
p810
(lp811
I76736449
aI76736548
aS'-'
asS'MNT'
p812
(lp813
I2384059
aI2400964
aS'-'
asS'MIR633'
p814
(lp815
I62944214
aI62944312
aS'+'
asS'MIR144'
p816
(lp817
I28861532
aI28861618
aS'-'
asS'LINC00324'
p818
(lp819
I8220629
aI8224043
aS'-'
asS'FN3K'
p820
(lp821
I82735575
aI82751197
aS'+'
asS'MRPL10'
p822
(lp823
I47823271
aI47831541
aS'-'
asS'MRPL12'
p824
(lp825
I81703369
aI81707526
aS'+'
asS'UBB'
p826
(lp827
I16380792
aI16382745
aS'+'
asS'LOC101927166'
p828
(lp829
I48444832
aI48466040
aS'+'
asS'RNF43'
p830
(lp831
I58352499
aI58417582
aS'-'
asS'POLR2A'
p832
(lp833
I7484378
aI7514618
aS'+'
asS'PLSCR3'
p834
(lp835
I7389726
aI7394843
aS'-'
asS'TLK2'
p836
(lp837
I62477480
aI62615476
aS'+'
asS'MPO'
p838
(lp839
I58269855
aI58280935
aS'-'
asS'ITGB4'
p840
(lp841
I75721327
aI75757818
aS'+'
asS'CASKIN2'
p842
(lp843
I75500259
aI75515583
aS'-'
asS'SOST'
p844
(lp845
I43753730
aI43758788
aS'-'
asS'MIR1273E'
p846
(lp847
I64425068
aI64425170
aS'-'
asS'NCOR1'
p848
(lp849
I16030562
aI16216746
aS'-'
asS'FZD2'
p850
(lp851
I44557443
aI44561262
aS'+'
asS'OGFOD3'
p852
(lp853
I82389209
aI82418637
aS'-'
asS'ZNF624'
p854
(lp855
I16620734
aI16655210
aS'-'
asS'CACNB1'
p856
(lp857
I39173455
aI39197703
aS'-'
asS'MIR454'
p858
(lp859
I59137757
aI59137872
aS'-'
asS'NEURL4'
p860
(lp861
I7315631
aI7329319
aS'-'
asS'LOC105369205'
p862
(lp863
I20921015
aI20930041
aS'+'
asS'LOC101559451'
p864
(lp865
I4704229
aI4705529
aS'+'
asS'LYZL6'
p866
(lp867
I35934517
aI35943710
aS'-'
asS'PLCD3'
p868
(lp869
I45111639
aI45132533
aS'-'
asS'LOC101927539'
p870
(lp871
I57600863
aI57608412
aS'-'
asS'GJC1'
p872
(lp873
I44798447
aI44830811
aS'-'
asS'TMEM235'
p874
(lp875
I78232023
aI78242849
aS'+'
asS'PSMB6'
p876
(lp877
I4796143
aI4798503
aS'+'
asS'PSMB3'
p878
(lp879
I38752712
aI38764231
aS'+'
asS'LOC105371551'
p880
(lp881
I16832686
aI16835321
aS'+'
asS'P2RX1'
p882
(lp883
I3896590
aI3916666
aS'-'
asS'P2RX5'
p884
(lp885
I3673226
aI3696404
aS'-'
asS'CORO6'
p886
(lp887
I29614762
aI29622912
aS'-'
asS'FAM27E5'
p888
(lp889
I22298763
aI22299893
aS'+'
asS'TMIGD1'
p890
(lp891
I30316328
aI30334076
aS'-'
asS'HIGD1B'
p892
(lp893
I44844280
aI44850480
aS'+'
asS'SNORD7'
p894
(lp895
I35573656
aI35573753
aS'+'
asS'SCARNA20'
p896
(lp897
I60231515
aI60231645
aS'-'
asS'SCARNA21'
p898
(lp899
I7906122
aI7906260
aS'+'
asS'MIR4726'
p900
(lp901
I38719690
aI38719748
aS'+'
asS'MIR4727'
p902
(lp903
I38825837
aI38825892
aS'+'
asS'MIR4724'
p904
(lp905
I31534882
aI31534971
aS'+'
asS'MIR4725'
p906
(lp907
I31575268
aI31575358
aS'+'
asS'TRAF4'
p908
(lp909
I28744002
aI28750956
aS'+'
asS'MIR4723'
p910
(lp911
I28360653
aI28360734
aS'+'
asS'MIR4728'
p912
(lp913
I39726494
aI39726561
aS'+'
asS'MIR4729'
p914
(lp915
I59366082
aI59366154
aS'+'
asS'LOC105371559'
p916
(lp917
I15744632
aI15764577
aS'-'
asS'TVP23C'
p918
(lp919
I15502263
aI15563631
aS'-'
asS'TVP23B'
p920
(lp921
I18780994
aI18806713
aS'+'
asS'LOC105371809'
p922
(lp923
I48641947
aI48707346
aS'+'
asS'LOC105371808'
p924
(lp925
I48520387
aI48527507
aS'-'
asS'EVI2A'
p926
(lp927
I31316409
aI31321749
aS'-'
asS'SEBOX'
p928
(lp929
I28364267
aI28365151
aS'-'
asS'EVI2B'
p930
(lp931
I31303765
aI31314149
aS'-'
asS'FOXN1'
p932
(lp933
I28506210
aI28538900
aS'+'
asS'LOC105371557'
p934
(lp935
I15831277
aI15848378
aS'-'
asS'LOC105371800'
p936
(lp937
I45919879
aI45937317
aS'-'
asS'RUNDC3A-AS1'
p938
(lp939
I44299573
aI44308431
aS'-'
asS'RPL38'
p940
(lp941
I74203655
aI74209880
aS'+'
asS'MIR4740'
p942
(lp943
I81400715
aI81400778
aS'-'
asS'GRIN2C'
p944
(lp945
I74842022
aI74859884
aS'-'
asS'GNA13'
p946
(lp947
I65009288
aI65056802
aS'-'
asS'MIEF2'
p948
(lp949
I18260533
aI18265781
aS'+'
asS'MIR142'
p950
(lp951
I58331231
aI58331318
aS'-'
asS'ZNF286A'
p952
(lp953
I15699576
aI15720787
aS'+'
asS'ZNF286B'
p954
(lp955
I18658428
aI18682259
aS'-'
asS'TRIM16L'
p956
(lp957
I18697997
aI18736119
aS'+'
asS'SUMO2'
p958
(lp959
I75167729
aI75183003
aS'-'
asS'CDRT4'
p960
(lp961
I15436014
aI15467611
aS'-'
asS'CDRT7'
p962
(lp963
I15030974
aI15031957
aS'+'
asS'CDRT1'
p964
(lp965
I15565481
aI15619704
aS'-'
asS'MIR632'
p966
(lp967
I32350108
aI32350202
aS'+'
asS'CDRT8'
p968
(lp969
I15104984
aI15106187
aS'-'
asS'LHX1'
p970
(lp971
I36937474
aI36944615
aS'+'
asS'SAMD14'
p972
(lp973
I50111308
aI50129882
aS'-'
asS'SMG6'
p974
(lp975
I2059844
aI2303820
aS'-'
asS'DLG4'
p976
(lp977
I7189889
aI7220050
aS'-'
asS'SMG8'
p978
(lp979
I59210009
aI59215250
aS'+'
asS'TBX21'
p980
(lp981
I47733239
aI47746122
aS'+'
asS'PCTP'
p982
(lp983
I55750978
aI55845001
aS'+'
asS'METTL16'
p984
(lp985
I2416048
aI2511906
aS'-'
asS'TACO1'
p986
(lp987
I63600871
aI63608365
aS'+'
asS'LOC105371708'
p988
(lp989
I27928923
aI27991731
aS'-'
asS'LOC105371709'
p990
(lp991
I28034138
aI28042135
aS'-'
asS'CEP112'
p992
(lp993
I65635539
aI66192131
aS'-'
asS'LOC105371703'
p994
(lp995
I27072387
aI27089241
aS'-'
asS'LOC105371704'
p996
(lp997
I27230183
aI27231798
aS'-'
asS'LOC105371705'
p998
(lp999
I27404425
aI27414099
aS'-'
asS'CXCL16'
p1000
(lp1001
I4733528
aI4739928
aS'-'
asS'AKAP1'
p1002
(lp1003
I57085191
aI57121349
aS'+'
asS'LOC101927855'
p1004
(lp1005
I61361667
aI61367704
aS'-'
asS'PIPOX'
p1006
(lp1007
I29042899
aI29057218
aS'+'
asS'TEX2'
p1008
(lp1009
I64147432
aI64263323
aS'-'
asS'STARD3'
p1010
(lp1011
I39637079
aI39664201
aS'+'
asS'YBX2'
p1012
(lp1013
I7288253
aI7294602
aS'-'
asS'LOC105377822'
p1014
(lp1015
I22388743
aI22389971
aS'+'
asS'TMEM132E'
p1016
(lp1017
I34580748
aI34639318
aS'+'
asS'FAM64A'
p1018
(lp1019
I6444414
aI6451065
aS'+'
asS'MIR3185'
p1020
(lp1021
I48724407
aI48724475
aS'-'
asS'MIR3184'
p1022
(lp1023
I30117085
aI30117160
aS'-'
asS'MIR3183'
p1024
(lp1025
I1022475
aI1022559
aS'-'
asS'KRT17P5'
p1026
(lp1027
I18422180
aI18425333
aS'+'
asS'DUS1L'
p1028
(lp1029
I82057871
aI82065821
aS'-'
asS'ODF4'
p1030
(lp1031
I8339841
aI8346048
aS'+'
asS'LOC147004'
p1032
(lp1033
I33559006
aI33589621
aS'+'
asS'LOC101930496'
p1034
(lp1035
I83110250
aI83119423
aS'+'
asS'TBC1D27'
p1036
(lp1037
I16922771
aI16926973
aS'-'
asS'TBC1D26'
p1038
(lp1039
I15732276
aI15744784
aS'+'
asS'TBC1D29'
p1040
(lp1041
I30559639
aI30565667
aS'+'
asS'TBC1D28'
p1042
(lp1043
I18634433
aI18644431
aS'-'
asS'HOXB8'
p1044
(lp1045
I48612345
aI48622853
aS'-'
asS'MED31'
p1046
(lp1047
I6643312
aI6651634
aS'-'
asS'GUCY2D'
p1048
(lp1049
I8002669
aI8020340
aS'+'
asS'SLC35G3'
p1050
(lp1051
I35192519
aI35194393
aS'-'
asS'HOXB2'
p1052
(lp1053
I48542654
aI48545031
aS'-'
asS'HOXB3'
p1054
(lp1055
I48548869
aI48590369
aS'-'
asS'HOXB1'
p1056
(lp1057
I48529444
aI48530910
aS'-'
asS'SENP3'
p1058
(lp1059
I7561991
aI7571969
aS'+'
asS'HOXB7'
p1060
(lp1061
I48607231
aI48611021
aS'-'
asS'HOXB4'
p1062
(lp1063
I48575506
aI48578381
aS'-'
asS'TMEM97'
p1064
(lp1065
I28319040
aI28328677
aS'+'
asS'HID1'
p1066
(lp1067
I74950741
aI74972803
aS'-'
asS'CTB-41I6.1'
p1068
(lp1069
I8965769
aI8977601
aS'+'
asS'LOC102724732'
p1070
(lp1071
I55580549
aI55589803
aS'-'
asS'LOC388436'
p1072
(lp1073
I19219381
aI19223730
aS'+'
asS'NOTUM'
p1074
(lp1075
I81952506
aI81961181
aS'-'
asS'DNAJC7'
p1076
(lp1077
I41976421
aI42021371
aS'-'
asS'HS3ST3B1'
p1078
(lp1079
I14301049
aI14349404
aS'+'
asS'MPP2'
p1080
(lp1081
I43875358
aI43909711
aS'-'
asS'GOSR2'
p1082
(lp1083
I46923107
aI46975519
aS'+'
asS'P2RX5-TAX1BP3'
p1084
(lp1085
I3662892
aI3696404
aS'-'
asS'GOSR1'
p1086
(lp1087
I30477401
aI30528313
aS'+'
asS'MIR195'
p1088
(lp1089
I7017614
aI7017701
aS'-'
asS'ZNF830'
p1090
(lp1091
I34961529
aI34963186
aS'+'
asS'TNRC6C-AS1'
p1092
(lp1093
I78107400
aI78111799
aS'-'
asS'SNORA67'
p1094
(lp1095
I7577954
aI7578091
aS'+'
asS'LINC00910'
p1096
(lp1097
I43369844
aI43388898
aS'-'
asS'TMEM11'
p1098
(lp1099
I21197949
aI21214595
aS'-'
asS'RPL23A'
p1100
(lp1101
I28719981
aI28724356
aS'+'
asS'NT5C3B'
p1102
(lp1103
I41825081
aI41836271
aS'-'
asS'LOC102724009'
p1104
(lp1105
I5019213
aI5020093
aS'-'
asS'TBX2-AS1'
p1106
(lp1107
I61393455
aI61399606
aS'-'
asS'SEZ6'
p1108
(lp1109
I28954904
aI29006440
aS'-'
asS'LIMD2'
p1110
(lp1111
I63695888
aI63700159
aS'-'
asS'RNF157'
p1112
(lp1113
I76142455
aI76240368
aS'-'
asS'GSG2'
p1114
(lp1115
I3723902
aI3726699
aS'+'
asS'HCRT'
p1116
(lp1117
I42184059
aI42185452
aS'-'
asS'MIR301A'
p1118
(lp1119
I59151135
aI59151221
aS'-'
asS'SCARF1'
p1120
(lp1121
I1633857
aI1645789
aS'-'
asS'TBCD'
p1122
(lp1123
I82752063
aI82943186
aS'+'
asS'GEMIN4'
p1124
(lp1125
I744561
aI752868
aS'-'
asS'SLFN12L'
p1126
(lp1127
I35474905
aI35537861
aS'-'
asS'TRPV3'
p1128
(lp1129
I3510501
aI3557995
aS'-'
asS'CDK5RAP3'
p1130
(lp1131
I47967903
aI47981781
aS'+'
asS'ATPAF2'
p1132
(lp1133
I18015058
aI18039169
aS'-'
asS'THCAT158'
p1134
(lp1135
I47303442
aI47323901
aS'-'
asS'LOC105369210'
p1136
(lp1137
I16929733
aI16936522
aS'-'
asS'KRBA2'
p1138
(lp1139
I8368046
aI8376902
aS'-'
asS'CCDC144B'
p1140
(lp1141
I18537799
aI18625617
aS'-'
asS'CCDC144A'
p1142
(lp1143
I16666767
aI16765952
aS'+'
asS'KRT16P3'
p1144
(lp1145
I20501512
aI20504498
aS'-'
asS'KRT16P2'
p1146
(lp1147
I16830482
aI16832833
aS'-'
asS'KRT16P1'
p1148
(lp1149
I18439907
aI18442895
aS'+'
asS'SNORD42A'
p1150
(lp1151
I28723429
aI28723491
aS'+'
asS'LOC105371944'
p1152
(lp1153
I82941489
aI82942176
aS'+'
asS'LRRC37A4P'
p1154
(lp1155
I45505882
aI45520523
aS'-'
asS'SNORD3D'
p1156
(lp1157
I19112419
aI19112636
aS'-'
asS'PRR15L'
p1158
(lp1159
I47951966
aI47957905
aS'-'
asS'SNORD3C'
p1160
(lp1161
I19190028
aI19190245
aS'-'
asS'ERAL1'
p1162
(lp1163
I28854956
aI28861067
aS'+'
asS'SNORD3A'
p1164
(lp1165
I19188015
aI19188232
aS'+'
asS'MIR2909'
p1166
(lp1167
I37033744
aI37033813
aS'+'
asS'TOB1'
p1168
(lp1169
I50862222
aI50867978
aS'-'
asS'CDK12'
p1170
(lp1171
I39461485
aI39567560
aS'+'
asS'MIR548AT'
p1172
(lp1173
I42494772
aI42494830
aS'+'
asS'TMEM220'
p1174
(lp1175
I10711083
aI10730295
aS'-'
asS'PSMC5'
p1176
(lp1177
I63827409
aI63832027
aS'+'
asS'LOC105371498'
p1178
(lp1179
I4616999
aI4629907
aS'-'
asS'LOC105371499'
p1180
(lp1181
I4645330
aI4666820
aS'+'
asS'LOC105371490'
p1182
(lp1183
I2688229
aI2689458
aS'+'
asS'LOC105371492'
p1184
(lp1185
I3652549
aI3658015
aS'-'
asS'LOC105371493'
p1186
(lp1187
I3638496
aI3652513
aS'-'
asS'STH'
p1188
(lp1189
I45999249
aI45999694
aS'+'
asS'LOC105371496'
p1190
(lp1191
I3977052
aI3983086
aS'+'
asS'KIF18B'
p1192
(lp1193
I44924710
aI44947746
aS'-'
asS'LOC105371754'
p1194
(lp1195
I37714140
aI37726096
aS'+'
asS'MMP28'
p1196
(lp1197
I35756248
aI35795707
aS'-'
asS'WDR45B'
p1198
(lp1199
I82614561
aI82648535
aS'-'
asS'FLJ40194'
p1200
(lp1201
I49248242
aI49258665
aS'+'
asS'HOXB13'
p1202
(lp1203
I48724762
aI48728749
aS'-'
asS'FN3KRP'
p1204
(lp1205
I82716705
aI82728017
aS'+'
asS'RND2'
p1206
(lp1207
I43025240
aI43032041
aS'+'
asS'MAP3K14'
p1208
(lp1209
I45263118
aI45317064
aS'-'
asS'FLJ36000'
p1210
(lp1211
I22406018
aI22413741
aS'+'
asS'LOC105371839'
p1212
(lp1213
I57771781
aI57837772
aS'-'
asS'LRRC45'
p1214
(lp1215
I82023251
aI82031151
aS'+'
asS'SNORD4B'
p1216
(lp1217
I28723680
aI28723754
aS'+'
asS'LOC105371833'
p1218
(lp1219
I55510835
aI55561032
aS'-'
asS'LOC105371830'
p1220
(lp1221
I52532501
aI52535998
aS'+'
asS'LOC105371831'
p1222
(lp1223
I52862363
aI52899583
aS'+'
asS'LOC105371836'
p1224
(lp1225
I56961200
aI56975937
aS'+'
asS'TMEM101'
p1226
(lp1227
I44011187
aI44024260
aS'-'
asS'RARA'
p1228
(lp1229
I40309170
aI40357643
aS'+'
asS'FNDC8'
p1230
(lp1231
I35121611
aI35130732
aS'+'
asS'LOC105371829'
p1232
(lp1233
I52231569
aI52236498
aS'+'
asS'LOC105371828'
p1234
(lp1235
I51435502
aI51444272
aS'+'
asS'HP09025'
p1236
(lp1237
I79707265
aI79712317
aS'+'
asS'LOC101928045'
p1238
(lp1239
I67657205
aI67690871
aS'-'
asS'MTMR4'
p1240
(lp1241
I58489532
aI58518109
aS'-'
asS'NOL11'
p1242
(lp1243
I67717832
aI67744208
aS'+'
asS'LRRC75A-AS1'
p1244
(lp1245
I16438986
aI16470648
aS'+'
asS'LOC105371544'
p1246
(lp1247
I13619752
aI13627647
aS'+'
asS'PCYT2'
p1248
(lp1249
I81900964
aI81911402
aS'-'
asS'LOC102725238'
p1250
(lp1251
I42423186
aI42440922
aS'+'
asS'NMT1'
p1252
(lp1253
I45061298
aI45109016
aS'+'
asS'LOC105371545'
p1254
(lp1255
I14800599
aI14802273
aS'-'
asS'SNORD124'
p1256
(lp1257
I40027541
aI40027645
aS'-'
asS'TMEM256-PLSCR3'
p1258
(lp1259
I7389726
aI7404131
aS'-'
asS'COG1'
p1260
(lp1261
I73193033
aI73208507
aS'+'
asS'SLC2A4'
p1262
(lp1263
I7281734
aI7288048
aS'+'
asS'LOC101926967'
p1264
(lp1265
I44198850
aI44223703
aS'+'
asS'LOC102723961'
p1266
(lp1267
I79815942
aI79823284
aS'+'
asS'LOC101929650'
p1268
(lp1269
I83143437
aI83215416
aS'+'
asS'CCL2'
p1270
(lp1271
I34255276
aI34257203
aS'+'
asS'CCL3'
p1272
(lp1273
I36088255
aI36090160
aS'-'
asS'TBC1D3B'
p1274
(lp1275
I36165680
aI36176624
aS'-'
asS'INPP5K'
p1276
(lp1277
I1494576
aI1516888
aS'-'
asS'CCL7'
p1278
(lp1279
I34270215
aI34272242
aS'+'
asS'TBC1D3F'
p1280
(lp1281
I36428611
aI36439523
aS'-'
asS'TBC1D3G'
p1282
(lp1283
I36322241
aI36334759
aS'+'
asS'TBC1D3H'
p1284
(lp1285
I36377474
aI36388437
aS'-'
asS'TBC1D3I'
p1286
(lp1287
I36253638
aI36264601
aS'-'
asS'CCL8'
p1288
(lp1289
I34319046
aI34321402
aS'+'
asS'TBC1D3K'
p1290
(lp1291
I37923804
aI37935371
aS'+'
asS'TBC1D3L'
p1292
(lp1293
I37978155
aI37990691
aS'-'
asS'RNASEK-C17orf49'
p1294
(lp1295
I7012416
aI7017524
aS'+'
asS'SNORD134'
p1296
(lp1297
I82089959
aI82090140
aS'-'
asS'TBC1D3P1-DHX40P1'
p1298
(lp1299
I59962362
aI60019052
aS'-'
asS'MYCBPAP'
p1300
(lp1301
I50507777
aI50531502
aS'+'
asS'LOC105371543'
p1302
(lp1303
I13353147
aI13387066
aS'-'
asS'LOC105371712'
p1304
(lp1305
I28246453
aI28250825
aS'-'
asS'LOC105371711'
p1306
(lp1307
I28132681
aI28144415
aS'+'
asS'LOC105371710'
p1308
(lp1309
I28204998
aI28210272
aS'-'
asS'AP2B1'
p1310
(lp1311
I35586898
aI35726413
aS'+'
asS'CYB561'
p1312
(lp1313
I63432303
aI63446361
aS'-'
asS'CNTROB'
p1314
(lp1315
I7932123
aI7949919
aS'+'
asS'TUBD1'
p1316
(lp1317
I59859466
aI59892948
aS'-'
asS'DRC3'
p1318
(lp1319
I17972766
aI18016872
aS'+'
asS'SLC46A1'
p1320
(lp1321
I28394644
aI28406630
aS'-'
asS'KRT18P55'
p1322
(lp1323
I28275985
aI28307382
aS'-'
asS'CEP295NL'
p1324
(lp1325
I78890579
aI78903217
aS'-'
asS'LOC107984968'
p1326
(lp1327
I20496420
aI20502135
aS'+'
asS'LOC107984969'
p1328
(lp1329
I21214357
aI21220468
aS'+'
asS'ATP6V0A1'
p1330
(lp1331
I42458843
aI42522579
aS'+'
asS'VPS53'
p1332
(lp1333
I508667
aI714856
aS'-'
asS'ALKBH5'
p1334
(lp1335
I18183552
aI18209954
aS'+'
asS'C17orf107'
p1336
(lp1337
I4899652
aI4902932
aS'+'
asS'C17orf105'
p1338
(lp1339
I43778390
aI43784842
aS'+'
asS'C17orf102'
p1340
(lp1341
I34574122
aI34579369
aS'-'
asS'C17orf100'
p1342
(lp1343
I6651738
aI6653298
aS'+'
asS'PRKCA-AS1'
p1344
(lp1345
I66398068
aI66416854
aS'-'
asS'STXBP4'
p1346
(lp1347
I54968727
aI55164285
aS'+'
asS'DBF4B'
p1348
(lp1349
I44708634
aI44752732
aS'+'
asS'BRIP1'
p1350
(lp1351
I61679185
aI61863559
aS'-'
asS'OR4D1'
p1352
(lp1353
I58155153
aI58156086
aS'+'
asS'ZNF18'
p1354
(lp1355
I11957432
aI11997510
aS'-'
asS'TTC25'
p1356
(lp1357
I41930604
aI41966517
aS'+'
asS'OR4D2'
p1358
(lp1359
I58169655
aI58170579
aS'+'
asS'ENO3'
p1360
(lp1361
I4949181
aI4957131
aS'+'
asS'ABCA9-AS1'
p1362
(lp1363
I69004713
aI69018323
aS'+'
asS'TAOK1'
p1364
(lp1365
I29390924
aI29551903
aS'+'
asS'EXOC7'
p1366
(lp1367
I76081010
aI76104221
aS'-'
asS'LLGL2'
p1368
(lp1369
I75525079
aI75575209
aS'+'
asS'LLGL1'
p1370
(lp1371
I18225592
aI18244875
aS'+'
asS'ACOX1'
p1372
(lp1373
I75941506
aI75979434
aS'-'
asS'CDK3'
p1374
(lp1375
I76000905
aI76005999
aS'+'
asS'MIR2117'
p1376
(lp1377
I43444805
aI43444885
aS'+'
asS'SGSH'
p1378
(lp1379
I80200667
aI80220333
aS'-'
asS'OXLD1'
p1380
(lp1381
I81665035
aI81666637
aS'-'
asS'SYNRG'
p1382
(lp1383
I37514806
aI37613637
aS'-'
asS'SPECC1'
p1384
(lp1385
I20009300
aI20319026
aS'+'
asS'ALOX15'
p1386
(lp1387
I4630918
aI4641665
aS'-'
asS'MYOCD'
p1388
(lp1389
I12665889
aI12768949
aS'+'
asS'ELAC2'
p1390
(lp1391
I12991611
aI13018064
aS'-'
asS'ARHGDIA'
p1392
(lp1393
I81867718
aI81871406
aS'-'
asS'USH1G'
p1394
(lp1395
I74916083
aI74923263
aS'-'
asS'MIR6129'
p1396
(lp1397
I49288345
aI49288454
aS'-'
asS'PRKCA'
p1398
(lp1399
I66302807
aI66810744
aS'+'
asS'ACBD4'
p1400
(lp1401
I45132599
aI45144181
aS'+'
asS'TANC2'
p1402
(lp1403
I62966522
aI63427706
aS'+'
asS'UBALD2'
p1404
(lp1405
I76265204
aI76271298
aS'+'
asS'LOC105371867'
p1406
(lp1407
I65878592
aI65926228
aS'+'
asS'SGSM2'
p1408
(lp1409
I2337511
aI2381054
aS'+'
asS'MLX'
p1410
(lp1411
I42567059
aI42573203
aS'+'
asS'ENDOV'
p1412
(lp1413
I80415116
aI80438086
aS'+'
asS'CCL15-CCL14'
p1414
(lp1415
I35983655
aI36002038
aS'-'
asS'GGA3'
p1416
(lp1417
I75225463
aI75261635
aS'-'
asS'TEKT1'
p1418
(lp1419
I6799980
aI6831741
aS'-'
asS'HID1-AS1'
p1420
(lp1421
I74970688
aI74975728
aS'+'
asS'TEKT3'
p1422
(lp1423
I15303810
aI15343682
aS'-'
asS'ACTG1'
p1424
(lp1425
I81509970
aI81512866
aS'-'
asS'FKBP10'
p1426
(lp1427
I41812261
aI41823215
aS'+'
asS'SNORA21'
p1428
(lp1429
I38852862
aI38852995
aS'-'
asS'LOC105371483'
p1430
(lp1431
I1492818
aI1494694
aS'+'
asS'LOC105371481'
p1432
(lp1433
I1013146
aI1014084
aS'+'
asS'LOC105371480'
p1434
(lp1435
I1148234
aI1151894
aS'-'
asS'LOC105371486'
p1436
(lp1437
I2003194
aI2023682
aS'-'
asS'LOC105371485'
p1438
(lp1439
I2017715
aI2020706
aS'+'
asS'AOC4P'
p1440
(lp1441
I42867144
aI42869217
aS'+'
asS'CWC25'
p1442
(lp1443
I38800433
aI38825350
aS'-'
asS'NACA2'
p1444
(lp1445
I61590432
aI61591202
aS'-'
asS'MAP3K3'
p1446
(lp1447
I63622440
aI63696310
aS'+'
asS'LOC105369225'
p1448
(lp1449
I45502891
aI45558649
aS'+'
asS'TRPV1'
p1450
(lp1451
I3565445
aI3609411
aS'-'
asS'LUC7L3'
p1452
(lp1453
I50719596
aI50754269
aS'+'
asS'TRPV2'
p1454
(lp1455
I16415541
aI16437003
aS'+'
asS'ERBB2'
p1456
(lp1457
I39688083
aI39728662
aS'+'
asS'ZNF207'
p1458
(lp1459
I32350116
aI32381885
aS'+'
asS'KRTAP1-3'
p1460
(lp1461
I41033883
aI41034855
aS'-'
asS'KRTAP1-4'
p1462
(lp1463
I41029676
aI41030125
aS'-'
asS'KRTAP1-5'
p1464
(lp1465
I41026025
aI41027202
aS'-'
asS'KCNAB3'
p1466
(lp1467
I7921858
aI7929435
aS'-'
asS'LOC105371825'
p1468
(lp1469
I50886261
aI50894071
aS'-'
asS'LOC105371824'
p1470
(lp1471
I50537293
aI50538754
aS'-'
asS'LOC105371820'
p1472
(lp1473
I50213631
aI50216750
aS'-'
asS'GPATCH8'
p1474
(lp1475
I44395276
aI44503602
aS'-'
asS'LOC105371822'
p1476
(lp1477
I50256612
aI50271399
aS'+'
asS'TMEM102'
p1478
(lp1479
I7435442
aI7437679
aS'+'
asS'SNORD4A'
p1480
(lp1481
I28722581
aI28722653
aS'+'
asS'TMEM100'
p1482
(lp1483
I55719626
aI55732121
aS'-'
asS'TMEM107'
p1484
(lp1485
I8172977
aI8176396
aS'-'
asS'RPL19'
p1486
(lp1487
I39200282
aI39204727
aS'+'
asS'TMEM105'
p1488
(lp1489
I81311269
aI81330674
aS'-'
asS'TMEM104'
p1490
(lp1491
I74776482
aI74839783
aS'+'
asS'XAF1'
p1492
(lp1493
I6755410
aI6775647
aS'+'
asS'NME1'
p1494
(lp1495
I51153558
aI51162089
aS'+'
asS'NME2'
p1496
(lp1497
I51165434
aI51171744
aS'+'
asS'INCA1'
p1498
(lp1499
I4988129
aI4997933
aS'-'
asS'CSHL1'
p1500
(lp1501
I63909596
aI63911328
aS'-'
asS'LOC101928674'
p1502
(lp1503
I78360447
aI78373909
aS'+'
asS'LOC101927367'
p1504
(lp1505
I55449862
aI55458506
aS'-'
asS'EME1'
p1506
(lp1507
I50373219
aI50381459
aS'+'
asS'LOC101928855'
p1508
(lp1509
I80801639
aI80805632
aS'-'
asS'HELZ'
p1510
(lp1511
I67070443
aI67245989
aS'-'
asS'SNORD118'
p1512
(lp1513
I8173452
aI8173588
aS'-'
asS'LOC100505909'
p1514
(lp1515
I83218399
aI83227956
aS'-'
asS'PYCR1'
p1516
(lp1517
I81932383
aI81937328
aS'-'
asS'KRTAP4-9'
p1518
(lp1519
I41105388
aI41106488
aS'+'
asS'KRTAP4-8'
p1520
(lp1521
I41096980
aI41098123
aS'-'
asS'NT5M'
p1522
(lp1523
I17303365
aI17347663
aS'+'
asS'KRTAP4-1'
p1524
(lp1525
I41184099
aI41184895
aS'-'
asS'KRTAP4-3'
p1526
(lp1527
I41167230
aI41168172
aS'-'
asS'KRTAP4-2'
p1528
(lp1529
I41177445
aI41178208
aS'-'
asS'KRTAP4-5'
p1530
(lp1531
I41148923
aI41149802
aS'-'
asS'KRTAP4-4'
p1532
(lp1533
I41159652
aI41160731
aS'-'
asS'KRTAP4-7'
p1534
(lp1535
I41084206
aI41085144
aS'+'
asS'KRTAP4-6'
p1536
(lp1537
I41139432
aI41140487
aS'-'
asS'LGALS9C'
p1538
(lp1539
I18476784
aI18494945
aS'+'
asS'LGALS9B'
p1540
(lp1541
I20449862
aI20467535
aS'-'
asS'CLUH'
p1542
(lp1543
I2689385
aI2711633
aS'-'
asS'LOC105371727'
p1544
(lp1545
I32003003
aI32007726
aS'-'
asS'LOC105371725'
p1546
(lp1547
I31425075
aI31428643
aS'-'
asS'LOC100287808'
p1548
(lp1549
I38748914
aI38751457
aS'+'
asS'LOC105371723'
p1550
(lp1551
I30647043
aI30706542
aS'+'
asS'LOC105371720'
p1552
(lp1553
I30236790
aI30238403
aS'+'
asS'LOC105371721'
p1554
(lp1555
I30310988
aI30314370
aS'-'
asS'KIAA0753'
p1556
(lp1557
I6578150
aI6640927
aS'-'
asS'PHF23'
p1558
(lp1559
I7235027
aI7239506
aS'-'
asS'ABCA10'
p1560
(lp1561
I69148006
aI69244815
aS'-'
asS'LOC101927839'
p1562
(lp1563
I2232677
aI2233610
aS'+'
asS'TP53'
p1564
(lp1565
I7668401
aI7687550
aS'-'
asS'UBE2O'
p1566
(lp1567
I76389531
aI76453206
aS'-'
asS'UBE2Z'
p1568
(lp1569
I48908368
aI48929060
aS'+'
asS'LOC105371722'
p1570
(lp1571
I31090895
aI31093414
aS'-'
asS'RPAIN'
p1572
(lp1573
I5419184
aI5432879
aS'+'
asS'TOP3A'
p1574
(lp1575
I18269957
aI18315007
aS'-'
asS'PPP1R9B'
p1576
(lp1577
I50133734
aI50150517
aS'-'
asS'SEC14L1'
p1578
(lp1579
I77088642
aI77217101
aS'+'
asS'RPRML'
p1580
(lp1581
I46978155
aI46979248
aS'-'
asS'KRT9'
p1582
(lp1583
I41565840
aI41572058
aS'-'
asS'LOC105371891'
p1584
(lp1585
I74312099
aI74317244
aS'-'
asS'LOC107984973'
p1586
(lp1587
I4801158
aI4807644
aS'-'
asS'BORCS6'
p1588
(lp1589
I8188332
aI8190246
aS'-'
asS'LOC107984977'
p1590
(lp1591
I14834626
aI14900599
aS'+'
asS'LOC107984976'
p1592
(lp1593
I15142134
aI15153353
aS'-'
asS'CTDNEP1'
p1594
(lp1595
I7243586
aI7251940
aS'-'
asS'MIR497HG'
p1596
(lp1597
I7015817
aI7019654
aS'-'
asS'LOC107984979'
p1598
(lp1599
I43833415
aI43846505
aS'+'
asS'LOC107984978'
p1600
(lp1601
I42287172
aI42287961
aS'-'
asS'LOC107985089'
p1602
(lp1603
I76822939
aI76835336
aS'+'
asS'RABEP1'
p1604
(lp1605
I5282262
aI5386340
aS'+'
asS'LOC107985080'
p1606
(lp1607
I14377382
aI14421657
aS'+'
asS'LOC107985081'
p1608
(lp1609
I73912123
aI73933646
aS'+'
asS'LOC107985082'
p1610
(lp1611
I32047947
aI32049046
aS'+'
asS'LOC107985083'
p1612
(lp1613
I31942078
aI31947316
aS'+'
asS'ALOX12B'
p1614
(lp1615
I8072635
aI8087703
aS'-'
asS'LOC107985085'
p1616
(lp1617
I43674728
aI43690906
aS'-'
asS'LOC107985086'
p1618
(lp1619
I43918842
aI43921042
aS'+'
asS'LOC107985087'
p1620
(lp1621
I77888578
aI77893843
aS'-'
asS'LOC101927018'
p1622
(lp1623
I28926274
aI28944749
aS'+'
asS'PLEKHM1'
p1624
(lp1625
I45434261
aI45490751
aS'-'
asS'FAM171A2'
p1626
(lp1627
I44353732
aI44363867
aS'-'
asS'SLC43A2'
p1628
(lp1629
I1569253
aI1628886
aS'-'
asS'WNT3'
p1630
(lp1631
I46762505
aI46818760
aS'-'
asS'LOC101927911'
p1632
(lp1633
I2962246
aI2965895
aS'-'
asS'SPAG5-AS1'
p1634
(lp1635
I28599132
aI28617377
aS'+'
asS'ZPBP2'
p1636
(lp1637
I39868201
aI39877896
aS'+'
asS'SAT2'
p1638
(lp1639
I7626233
aI7627878
aS'-'
asS'SPDYE4'
p1640
(lp1641
I8746867
aI8759428
aS'-'
asS'BIRC5'
p1642
(lp1643
I78214195
aI78225635
aS'+'
asS'SNORA48'
p1644
(lp1645
I7574712
aI7574847
aS'+'
asS'LINC00974'
p1646
(lp1647
I41549605
aI41554495
aS'-'
asS'EVPLL'
p1648
(lp1649
I18377672
aI18389652
aS'+'
asS'RAD51L3-RFFL'
p1650
(lp1651
I35009111
aI35121522
aS'-'
asS'MIR1269B'
p1652
(lp1653
I12917267
aI12917342
aS'-'
asS'TNFSF12-TNFSF13'
p1654
(lp1655
I7549057
aI7561608
aS'+'
asS'NSF'
p1656
(lp1657
I46590668
aI46757464
aS'+'
asS'OTOP3'
p1658
(lp1659
I74935801
aI74949992
aS'+'
asS'OTOP2'
p1660
(lp1661
I74922962
aI74933913
aS'+'
asS'LOC105376844'
p1662
(lp1663
I64836196
aI64905593
aS'+'
asS'MSI2'
p1664
(lp1665
I57255850
aI57684689
aS'+'
asS'KRTAP4-11'
p1666
(lp1667
I41117180
aI41118354
aS'-'
asS'DUSP14'
p1668
(lp1669
I37488560
aI37513501
aS'+'
asS'RAMP2'
p1670
(lp1671
I42761193
aI42763041
aS'+'
asS'ENGASE'
p1672
(lp1673
I79074811
aI79088599
aS'+'
asS'CSH2'
p1674
(lp1675
I63872011
aI63873729
aS'-'
asS'CSH1'
p1676
(lp1677
I63894907
aI63896661
aS'-'
asS'RPA1'
p1678
(lp1679
I1829978
aI1899554
aS'+'
asS'RNFT1'
p1680
(lp1681
I59952361
aI59964756
aS'-'
asS'ANKFN1'
p1682
(lp1683
I56110934
aI56517016
aS'+'
asS'WNT9B'
p1684
(lp1685
I46833200
aI46880560
aS'+'
asS'LOC105371929'
p1686
(lp1687
I81733568
aI81739548
aS'+'
asS'AOC3'
p1688
(lp1689
I42851122
aI42858130
aS'+'
asS'AOC2'
p1690
(lp1691
I42844591
aI42850707
aS'+'
asS'TIMP2'
p1692
(lp1693
I78852976
aI78925390
aS'-'
asS'EPX'
p1694
(lp1695
I58192723
aI58205174
aS'+'
asS'LOC105371921'
p1696
(lp1697
I80885775
aI80891713
aS'-'
asS'LOC105371922'
p1698
(lp1699
I80565039
aI80587441
aS'-'
asS'LOC105371925'
p1700
(lp1701
I81228706
aI81232209
aS'+'
asS'LOC105371926'
p1702
(lp1703
I81452857
aI81455259
aS'-'
asS'LOC105371927'
p1704
(lp1705
I81480522
aI81481564
aS'-'
asS'LOC101928447'
p1706
(lp1707
I76120335
aI76132525
aS'-'
asS'LOC105371873'
p1708
(lp1709
I68558498
aI68581292
aS'+'
asS'MAP3K14-AS1'
p1710
(lp1711
I45247924
aI45268630
aS'+'
asS'RNASEK'
p1712
(lp1713
I7012416
aI7014533
aS'+'
asS'SLC26A11'
p1714
(lp1715
I80220286
aI80253502
aS'+'
asS'PFAS'
p1716
(lp1717
I8249277
aI8270491
aS'+'
asS'RARA-AS1'
p1718
(lp1719
I40340866
aI40343136
aS'-'
asS'KRTAP17-1'
p1720
(lp1721
I41314916
aI41315695
aS'-'
asS'LOC100507191'
p1722
(lp1723
I75821142
aI75821990
aS'-'
asS'LOC105371871'
p1724
(lp1725
I68157926
aI68161227
aS'+'
asS'LOC102723567'
p1726
(lp1727
I74056962
aI74112880
aS'-'
asS'LOC101928205'
p1728
(lp1729
I72072332
aI72093481
aS'+'
asS'MIF4GD'
p1730
(lp1731
I75266227
aI75271292
aS'-'
asS'LOC107985011'
p1732
(lp1733
I9646145
aI9647789
aS'-'
asS'DDX5'
p1734
(lp1735
I64498253
aI64507038
aS'-'
asS'CD7'
p1736
(lp1737
I82314864
aI82320829
aS'-'
asS'MYO15B'
p1738
(lp1739
I75587808
aI75626850
aS'+'
asS'MYO15A'
p1740
(lp1741
I18108705
aI18179802
aS'+'
asS'LOC101929185'
p1742
(lp1743
I57988109
aI57990122
aS'+'
asS'FOXK2'
p1744
(lp1745
I82519717
aI82604607
aS'+'
asS'CCR7'
p1746
(lp1747
I40553768
aI40565484
aS'-'
asS'LOC105371582'
p1748
(lp1749
I20609076
aI20633230
aS'-'
asS'RNU2-1'
p1750
(lp1751
I43233789
aI43233977
aS'-'
asS'LOC105371580'
p1752
(lp1753
I20574078
aI20579608
aS'-'
asS'LOC105371853'
p1754
(lp1755
I62275687
aI62276578
aS'+'
asS'LOC105371854'
p1756
(lp1757
I62375074
aI62380502
aS'-'
asS'CLTC'
p1758
(lp1759
I59619688
aI59696956
aS'+'
asS'PGS1'
p1760
(lp1761
I78378617
aI78424659
aS'+'
asS'LOC105371858'
p1762
(lp1763
I63959446
aI63967204
aS'+'
asS'MIS12'
p1764
(lp1765
I5486373
aI5490811
aS'+'
asS'LOC105371589'
p1766
(lp1767
I21491598
aI21521462
aS'+'
asS'BTBD17'
p1768
(lp1769
I74356415
aI74363655
aS'-'
asS'NATD1'
p1770
(lp1771
I21238869
aI21253266
aS'-'
asS'KCNJ16'
p1772
(lp1773
I70075224
aI70135608
aS'+'
asS'SLC5A10'
p1774
(lp1775
I18950675
aI19020691
aS'+'
asS'DLX4'
p1776
(lp1777
I49968969
aI49974959
aS'+'
asS'TOP2A'
p1778
(lp1779
I40388520
aI40417950
aS'-'
asS'THRA1/BTR'
p1780
(lp1781
I48294346
aI48307829
aS'+'
asS'ASIC2'
p1782
(lp1783
I33013086
aI34156806
aS'-'
asS'SNORD104'
p1784
(lp1785
I64146077
aI64146157
aS'+'
asS'MIR4316'
p1786
(lp1787
I77396983
aI77397054
aS'-'
asS'MIR4314'
p1788
(lp1789
I8088055
aI8088147
aS'+'
asS'PMP22'
p1790
(lp1791
I15229776
aI15265357
aS'-'
asS'CDC27'
p1792
(lp1793
I47117696
aI47189312
aS'-'
asS'GLOD4'
p1794
(lp1795
I759308
aI782331
aS'-'
asS'LOC107984974'
p1796
(lp1797
I31005121
aI31034513
aS'+'
asS'TNFAIP1'
p1798
(lp1799
I28335521
aI28347009
aS'+'
asS'SHBG'
p1800
(lp1801
I7614063
aI7633383
aS'+'
asS'BAIAP2'
p1802
(lp1803
I81035146
aI81117432
aS'+'
asS'BAIAP2-AS1'
p1804
(lp1805
I81029132
aI81034719
aS'-'
asS'EPN2-IT1'
p1806
(lp1807
I19271392
aI19274388
aS'+'
asS'NUP88'
p1808
(lp1809
I5384832
aI5419739
aS'-'
asS'LOC105371907'
p1810
(lp1811
I77273783
aI77281897
aS'-'
asS'LOC105371731'
p1812
(lp1813
I32258033
aI32265451
aS'-'
asS'LOC105371730'
p1814
(lp1815
I32141225
aI32143135
aS'-'
asS'LOC105371732'
p1816
(lp1817
I32280386
aI32281335
aS'-'
asS'LOC105371735'
p1818
(lp1819
I34159040
aI34164238
aS'+'
asS'LOC105371734'
p1820
(lp1821
I32509953
aI32523680
aS'-'
asS'LOC105371737'
p1822
(lp1823
I33111857
aI33155550
aS'+'
asS'LOC105371739'
p1824
(lp1825
I34479268
aI34483012
aS'+'
asS'LOC105371738'
p1826
(lp1827
I34473796
aI34478657
aS'+'
asS'LOC105371553'
p1828
(lp1829
I16816366
aI16819007
aS'+'
asS'LOC105371552'
p1830
(lp1831
I16822426
aI16829837
aS'+'
asS'POLDIP2'
p1832
(lp1833
I28346627
aI28357589
aS'-'
asS'LOC105371901'
p1834
(lp1835
I77125293
aI77141439
aS'-'
asS'GP1BA'
p1836
(lp1837
I4932274
aI4935030
aS'+'
asS'SGCA'
p1838
(lp1839
I50165516
aI50175928
aS'+'
asS'LOC105371554'
p1840
(lp1841
I16536657
aI16556907
aS'+'
asS'SCPEP1'
p1842
(lp1843
I56978106
aI57006768
aS'+'
asS'RAPGEFL1'
p1844
(lp1845
I40177009
aI40195656
aS'+'
asS'MAPK7'
p1846
(lp1847
I19377720
aI19383544
aS'+'
asS'LINC01180'
p1848
(lp1849
I44646363
aI44650349
aS'-'
asS'ARL17B'
p1850
(lp1851
I46274183
aI46361872
aS'-'
asS'DUSP3'
p1852
(lp1853
I43766120
aI43779000
aS'-'
asS'SHPK'
p1854
(lp1855
I3608261
aI3636322
aS'-'
asS'LOC105371908'
p1856
(lp1857
I77797655
aI77840638
aS'-'
asS'LOC105371909'
p1858
(lp1859
I77926095
aI77935348
aS'+'
asS'FADS6'
p1860
(lp1861
I74874792
aI74893805
aS'-'
asS'CCL11'
p1862
(lp1863
I34285667
aI34288180
aS'+'
asS'CCL13'
p1864
(lp1865
I34356451
aI34358610
aS'+'
asS'CCL14'
p1866
(lp1867
I35983655
aI35986728
aS'-'
asS'CCL15'
p1868
(lp1869
I35997581
aI36002038
aS'-'
asS'CCL16'
p1870
(lp1871
I35976492
aI35983620
aS'-'
asS'CCL18'
p1872
(lp1873
I36064271
aI36071481
aS'+'
asS'SYNGR2'
p1874
(lp1875
I78168544
aI78172928
aS'+'
asS'STAT5B'
p1876
(lp1877
I42199176
aI42276406
aS'-'
asS'STAT5A'
p1878
(lp1879
I42287546
aI42311943
aS'+'
asS'PITPNM3'
p1880
(lp1881
I6451262
aI6556557
aS'-'
asS'LOC107985091'
p1882
(lp1883
I73714698
aI73722407
aS'-'
asS'LOC107985090'
p1884
(lp1885
I40532244
aI40535025
aS'-'
asS'TBC1D16'
p1886
(lp1887
I79932342
aI80035875
aS'-'
asS'KCTD2'
p1888
(lp1889
I75032566
aI75065889
aS'+'
asS'ADAM11'
p1890
(lp1891
I44759036
aI44781846
aS'+'
asS'AMZ2P1'
p1892
(lp1893
I64966549
aI64975585
aS'-'
asS'FAM83G'
p1894
(lp1895
I18968788
aI19006144
aS'-'
asS'LOC101927979'
p1896
(lp1897
I4986990
aI4990556
aS'+'
asS'HS3ST3A1'
p1898
(lp1899
I13494031
aI13601942
aS'-'
asS'SLC38A10'
p1900
(lp1901
I81244810
aI81295339
aS'-'
asS'PRR29-AS1'
p1902
(lp1903
I63996070
aI63999899
aS'-'
asS'LOC105274304'
p1904
(lp1905
I76671927
aI76673658
aS'+'
asS'DGKE'
p1906
(lp1907
I56834103
aI56869564
aS'+'
asS'CNP'
p1908
(lp1909
I41966740
aI41977736
aS'+'
asS'TMEM106A'
p1910
(lp1911
I43211826
aI43220041
aS'+'
asS'COPZ2'
p1912
(lp1913
I48026166
aI48048091
aS'-'
asS'NDEL1'
p1914
(lp1915
I8435921
aI8472744
aS'+'
asS'RNF167'
p1916
(lp1917
I4940007
aI4945223
aS'+'
asS'PEMT'
p1918
(lp1919
I17505562
aI17591703
aS'-'
asS'LOC400568'
p1920
(lp1921
I4610448
aI4617647
aS'+'
asS'TXNDC17'
p1922
(lp1923
I6640901
aI6644541
aS'+'
asS'UNC45B'
p1924
(lp1925
I35147816
aI35189345
aS'+'
asS'BHLHA9'
p1926
(lp1927
I1270563
aI1271271
aS'+'
asS'ALOX15B'
p1928
(lp1929
I8039039
aI8049134
aS'+'
asS'CTC1'
p1930
(lp1931
I8224820
aI8248095
aS'-'
asS'FAM222B'
p1932
(lp1933
I28755978
aI28855036
aS'-'
asS'CPSF4L'
p1934
(lp1935
I73242342
aI73263778
aS'-'
asS'KRT222'
p1936
(lp1937
I40655619
aI40665164
aS'-'
asS'FDXR'
p1938
(lp1939
I74862496
aI74873031
aS'-'
asS'C17orf77'
p1940
(lp1941
I74584678
aI74594209
aS'+'
asS'LOC101927207'
p1942
(lp1943
I49457860
aI49461749
aS'-'
asS'AMZ2'
p1944
(lp1945
I68205485
aI68257157
aS'+'
asS'LOC100130370'
p1946
(lp1947
I81375496
aI81392947
aS'-'
asS'SCN4A'
p1948
(lp1949
I63938553
aI63972918
aS'-'
asS'RAI1-AS1'
p1950
(lp1951
I17759153
aI17766302
aS'-'
asS'LOC105371939'
p1952
(lp1953
I81975634
aI81977408
aS'-'
asS'C17orf78'
p1954
(lp1955
I37375709
aI37392708
aS'+'
asS'ARHGEF15'
p1956
(lp1957
I8310237
aI8322516
aS'+'
asS'GIP'
p1958
(lp1959
I48958555
aI48968593
aS'-'
asS'ALOXE3'
p1960
(lp1961
I8095899
aI8118916
aS'-'
asS'LOC105371932'
p1962
(lp1963
I35240042
aI35247472
aS'-'
asS'LOC105371930'
p1964
(lp1965
I28222782
aI28228461
aS'-'
asS'LOC105371936'
p1966
(lp1967
I62344039
aI62353998
aS'+'
asS'LOC105371934'
p1968
(lp1969
I40315192
aI40322894
aS'-'
asS'FXR2'
p1970
(lp1971
I7591229
aI7614897
aS'-'
asS'SH3GL1P2'
p1972
(lp1973
I30624317
aI30626823
aS'+'
asS'SH3GL1P1'
p1974
(lp1975
I32040335
aI32042832
aS'+'
asS'LOC101928475'
p1976
(lp1977
I15051354
aI15052276
aS'+'
asS'LOC102723414'
p1978
(lp1979
I36349102
aI36361566
aS'-'
asS'MBTD1'
p1980
(lp1981
I51177418
aI51260511
aS'-'
asS'NPB'
p1982
(lp1983
I81902108
aI81902905
aS'+'
asS'MGC16275'
p1984
(lp1985
I74209979
aI74213321
aS'-'
asS'MIR744'
p1986
(lp1987
I12081898
aI12081996
aS'+'
asS'FBXW10'
p1988
(lp1989
I18744012
aI18779349
aS'+'
asS'SNORD65'
p1990
(lp1991
I16441225
aI16441298
aS'+'
asS'MYO18A'
p1992
(lp1993
I29073509
aI29180389
aS'-'
asS'MGC12916'
p1994
(lp1995
I14303739
aI14305745
aS'+'
asS'PPP1R1B'
p1996
(lp1997
I39626207
aI39636625
aS'+'
asS'TADA2A'
p1998
(lp1999
I37406876
aI37479725
aS'+'
asS'APOH'
p2000
(lp2001
I66212028
aI66229438
aS'-'
asS'OVCA2'
p2002
(lp2003
I2041982
aI2043431
aS'+'
asS'FAM104A'
p2004
(lp2005
I73207352
aI73232394
aS'-'
asS'NF1'
p2006
(lp2007
I31094926
aI31377677
aS'+'
asS'BLMH'
p2008
(lp2009
I30248194
aI30292166
aS'-'
asS'FOXJ1'
p2010
(lp2011
I76136332
aI76141299
aS'-'
asS'SNORD91B'
p2012
(lp2013
I2329124
aI2329210
aS'-'
asS'CCDC57'
p2014
(lp2015
I82101457
aI82212888
aS'-'
asS'RPH3AL'
p2016
(lp2017
I212470
aI386254
aS'-'
asS'LOC105371597'
p2018
(lp2019
I22266468
aI22297344
aS'+'
asS'LOC105371591'
p2020
(lp2021
I2706476
aI2708492
aS'-'
asS'LOC105371592'
p2022
(lp2023
I2712308
aI2712833
aS'+'
asS'LOC105371843'
p2024
(lp2025
I58724108
aI58756105
aS'-'
asS'LOC105371842'
p2026
(lp2027
I58632796
aI58651594
aS'+'
asS'LOC105371841'
p2028
(lp2029
I58219308
aI58233553
aS'+'
asS'LOC105371840'
p2030
(lp2031
I58050354
aI58059944
aS'-'
asS'LOC105371847'
p2032
(lp2033
I59529790
aI59550534
aS'+'
asS'LOC105371845'
p2034
(lp2035
I59500391
aI59507791
aS'+'
asS'LOC105371844'
p2036
(lp2037
I59181240
aI59183326
aS'-'
asS'LOC101929831'
p2038
(lp2039
I79632712
aI79659866
aS'-'
asS'LOC105371849'
p2040
(lp2041
I60079308
aI60088695
aS'+'
asS'LOC105371848'
p2042
(lp2043
I60019073
aI60020011
aS'+'
asS'NUFIP2'
p2044
(lp2045
I29255835
aI29294148
aS'-'
asS'SDF2'
p2046
(lp2047
I28648355
aI28662189
aS'-'
asS'SLC35B1'
p2048
(lp2049
I49700942
aI49708173
aS'-'
asS'FLOT2'
p2050
(lp2051
I28879338
aI28897728
aS'-'
asS'EMC6'
p2052
(lp2053
I3668722
aI3669669
aS'+'
asS'MYH10'
p2054
(lp2055
I8474211
aI8631369
aS'-'
asS'MYH13'
p2056
(lp2057
I10300865
aI10373005
aS'-'
asS'PELP1'
p2058
(lp2059
I4671383
aI4704337
aS'-'
asS'SPEM1'
p2060
(lp2061
I7420359
aI7421632
aS'+'
asS'AKAP10'
p2062
(lp2063
I19904451
aI19977856
aS'-'
asS'CCDC182'
p2064
(lp2065
I57744480
aI57745329
aS'-'
asS'GPRC5C'
p2066
(lp2067
I74431340
aI74451658
aS'+'
asS'TVP23C-CDRT4'
p2068
(lp2069
I15436014
aI15563631
aS'-'
asS'MIR378J'
p2070
(lp2071
I37614930
aI37615039
aS'-'
asS'EIF1'
p2072
(lp2073
I41688874
aI41691646
aS'+'
asS'C17orf89'
p2074
(lp2075
I81239310
aI81241298
aS'+'
asS'C17orf82'
p2076
(lp2077
I61411750
aI61413280
aS'+'
asS'C17orf80'
p2078
(lp2079
I73232232
aI73248959
aS'+'
asS'LASP1'
p2080
(lp2081
I38869858
aI38921770
aS'+'
asS'NAA38'
p2082
(lp2083
I7856684
aI7885465
aS'-'
asS'NTN1'
p2084
(lp2085
I9021541
aI9244000
aS'+'
asS'MYHAS'
p2086
(lp2087
I10383131
aI10625540
aS'+'
asS'B4GALNT2'
p2088
(lp2089
I49120346
aI49170722
aS'+'
asS'LOC105379599'
p2090
(lp2091
I1095406
aI1097379
aS'-'
asS'RCVRN'
p2092
(lp2093
I9897709
aI9905367
aS'-'
asS'WDR81'
p2094
(lp2095
I1716522
aI1738599
aS'+'
asS'LINC00483'
p2096
(lp2097
I50761033
aI50767515
aS'-'
asS'LINC00482'
p2098
(lp2099
I81302823
aI81309248
aS'-'
asS'VPS25'
p2100
(lp2101
I42773435
aI42779600
aS'+'
asS'AARSD1'
p2102
(lp2103
I42950525
aI42964498
aS'-'
asS'HNF1B'
p2104
(lp2105
I37686430
aI37745078
aS'-'
asS'RAI1'
p2106
(lp2107
I17681472
aI17811453
aS'+'
asS'SKA2'
p2108
(lp2109
I59109946
aI59155439
aS'-'
asS'SCIMP'
p2110
(lp2111
I5208919
aI5234860
aS'-'
asS'LOC100131347'
p2112
(lp2113
I39057018
aI39081451
aS'+'
asS'APPBP2'
p2114
(lp2115
I60443148
aI60526240
aS'-'
asS'QRICH2'
p2116
(lp2117
I76271295
aI76308690
aS'-'
asS'KRT40'
p2118
(lp2119
I40977715
aI40987135
aS'-'
asS'COA3'
p2120
(lp2121
I42797617
aI42798725
aS'-'
asS'LGALS3BP'
p2122
(lp2123
I78971252
aI78979979
aS'-'
asS'NXPH3'
p2124
(lp2125
I49575935
aI49583810
aS'+'
asS'LOC107985048'
p2126
(lp2127
I58574202
aI58579655
aS'+'
asS'LOC107985044'
p2128
(lp2129
I44734092
aI44740907
aS'-'
asS'LOC107985045'
p2130
(lp2131
I44689780
aI44690310
aS'+'
asS'LOC107985047'
p2132
(lp2133
I78445690
aI78448911
aS'+'
asS'LOC107985040'
p2134
(lp2135
I45238015
aI45241382
aS'-'
asS'ARSG'
p2136
(lp2137
I68259088
aI68450769
aS'+'
asS'HAP1'
p2138
(lp2139
I41722638
aI41734646
aS'-'
asS'MIR365B'
p2140
(lp2141
I31575410
aI31575521
aS'+'
asS'CA4'
p2142
(lp2143
I60149940
aI60178118
aS'+'
asS'LOC102724262'
p2144
(lp2145
I8506774
aI8513819
aS'+'
asS'PNMT'
p2146
(lp2147
I39667980
aI39670475
aS'+'
asS'CHRNE'
p2148
(lp2149
I4898056
aI4905019
aS'-'
asS'SMARCD2'
p2150
(lp2151
I63832080
aI63842991
aS'-'
asS'TUSC5'
p2152
(lp2153
I1279662
aI1300987
aS'+'
asS'TNRC6C'
p2154
(lp2155
I77974983
aI78108822
aS'+'
asS'TEX19'
p2156
(lp2157
I82359246
aI82363776
aS'+'
asS'LOC101927369'
p2158
(lp2159
I36097885
aI36150681
aS'-'
asS'USP22'
p2160
(lp2161
I20999595
aI21043409
aS'-'
asS'OSBPL7'
p2162
(lp2163
I47807366
aI47821822
aS'-'
asS'RAB5C'
p2164
(lp2165
I42124975
aI42155044
aS'-'
asS'SENP3-EIF4A1'
p2166
(lp2167
I7561991
aI7579006
aS'+'
asS'ZNF232'
p2168
(lp2169
I5105733
aI5123116
aS'-'
asS'SSH2'
p2170
(lp2171
I29625937
aI29930239
aS'-'
asS'CENPV'
p2172
(lp2173
I16342533
aI16353498
aS'-'
asS'MGC57346-CRHR1'
p2174
(lp2175
I45620328
aI45835828
aS'+'
asS'PAFAH1B1'
p2176
(lp2177
I2593209
aI2685615
aS'+'
asS'PYY'
p2178
(lp2179
I43952732
aI44024260
aS'-'
asS'GH1'
p2180
(lp2181
I63917192
aI63918852
aS'-'
asS'GH2'
p2182
(lp2183
I63880211
aI63881942
aS'-'
asS'MIR423'
p2184
(lp2185
I30117078
aI30117172
aS'+'
asS'CSF3'
p2186
(lp2187
I40015360
aI40017813
aS'+'
asS'MRPL45'
p2188
(lp2189
I38297022
aI38323218
aS'+'
asS'MIR6777'
p2190
(lp2191
I17813479
aI17813545
aS'-'
asS'MIR6776'
p2192
(lp2193
I2692860
aI2692919
aS'-'
asS'LOC105371903'
p2194
(lp2195
I77457631
aI77461075
aS'-'
asS'LOC105371900'
p2196
(lp2197
I77107079
aI77119043
aS'-'
asS'RILP'
p2198
(lp2199
I1646149
aI1650098
aS'-'
asS'MIR6779'
p2200
(lp2201
I38914978
aI38915042
aS'+'
asS'MIR6778'
p2202
(lp2203
I18340813
aI18340886
aS'-'
asS'SP2-AS1'
p2204
(lp2205
I47898385
aI47941404
aS'-'
asS'DHX33'
p2206
(lp2207
I5440911
aI5469060
aS'-'
asS'LRRC3C'
p2208
(lp2209
I39927752
aI39944999
aS'+'
asS'DDX52'
p2210
(lp2211
I37609738
aI37643464
aS'-'
asS'B3GNTL1'
p2212
(lp2213
I82942148
aI83051844
aS'-'
asS'NEK8'
p2214
(lp2215
I28727898
aI28743455
aS'+'
asS'MIR4737'
p2216
(lp2217
I60043024
aI60043105
aS'-'
asS'MIR338'
p2218
(lp2219
I81125882
aI81125949
aS'-'
asS'MIR33B'
p2220
(lp2221
I17813835
aI17813931
aS'-'
asS'ALYREF'
p2222
(lp2223
I81887834
aI81891622
aS'-'
asS'MIR4736'
p2224
(lp2225
I58335975
aI58336022
aS'-'
asS'GLTPD2'
p2226
(lp2227
I4788915
aI4790589
aS'+'
asS'DNAH2'
p2228
(lp2229
I7717353
aI7833744
aS'+'
asS'SUPT6H'
p2230
(lp2231
I28662197
aI28702684
aS'+'
asS'LOC105371941'
p2232
(lp2233
I82454373
aI82458179
aS'-'
asS'DNAH9'
p2234
(lp2235
I11598466
aI11970168
aS'+'
asS'LOC101928266'
p2236
(lp2237
I9171067
aI9179118
aS'-'
asS'PITPNA-AS1'
p2238
(lp2239
I1516918
aI1518096
aS'+'
asS'LOC440461'
p2240
(lp2241
I68198659
aI68200302
aS'+'
asS'LOC105371878'
p2242
(lp2243
I69331843
aI69358961
aS'+'
asS'LOC105371879'
p2244
(lp2245
I69357335
aI69362929
aS'-'
asS'CCDC47'
p2246
(lp2247
I63745249
aI63773728
aS'-'
asS'LOC105371877'
p2248
(lp2249
I68714563
aI68734056
aS'-'
asS'LOC105371874'
p2250
(lp2251
I68822790
aI68875259
aS'+'
asS'CCDC43'
p2252
(lp2253
I44677436
aI44689797
aS'-'
asS'CCDC42'
p2254
(lp2255
I8729927
aI8744836
aS'-'
asS'LOC105371870'
p2256
(lp2257
I68180615
aI68189296
aS'+'
asS'CCDC40'
p2258
(lp2259
I80036631
aI80100613
aS'+'
asS'OR1D5'
p2260
(lp2261
I3062668
aI3063607
aS'-'
asS'OR1D4'
p2262
(lp2263
I3240675
aI3241265
aS'+'
asS'OR1D2'
p2264
(lp2265
I3092057
aI3092996
aS'-'
asS'MYH2'
p2266
(lp2267
I10521147
aI10549700
aS'-'
asS'MYH3'
p2268
(lp2269
I10628526
aI10679657
aS'-'
asS'COASY'
p2270
(lp2271
I42562073
aI42566281
aS'+'
asS'MYH1'
p2272
(lp2273
I10492306
aI10518719
aS'-'
asS'MYH4'
p2274
(lp2275
I10443289
aI10469559
aS'-'
asS'GAS2L2'
p2276
(lp2277
I35744510
aI35752878
aS'-'
asS'MYH8'
p2278
(lp2279
I10390324
aI10421950
aS'-'
asS'MIR4524A'
p2280
(lp2281
I69099563
aI69099632
aS'-'
asS'MIR4524B'
p2282
(lp2283
I69099541
aI69099656
aS'+'
asS'VTN'
p2284
(lp2285
I28367276
aI28370352
aS'-'
asS'LOC100996842'
p2286
(lp2287
I7581966
aI7584079
aS'-'
asS'LOC105371850'
p2288
(lp2289
I60402536
aI60417405
aS'-'
asS'LINC01563'
p2290
(lp2291
I21075555
aI21090613
aS'+'
asS'STX8'
p2292
(lp2293
I9250470
aI9575958
aS'-'
asS'LOC105371479'
p2294
(lp2295
I1180342
aI1190373
aS'+'
asS'CCL4L2'
p2296
(lp2297
I36211062
aI36212878
aS'+'
asS'GDPD1'
p2298
(lp2299
I59220466
aI59275970
aS'+'
asS'CRHR1'
p2300
(lp2301
I45784279
aI45835828
aS'+'
asS'C17orf99'
p2302
(lp2303
I78146037
aI78166177
aS'+'
asS'C17orf98'
p2304
(lp2305
I38835087
aI38841389
aS'-'
asS'PHF12'
p2306
(lp2307
I28905252
aI28951490
aS'-'
asS'LOC100507351'
p2308
(lp2309
I77546940
aI77565024
aS'+'
asS'C17orf97'
p2310
(lp2311
I410326
aI414666
aS'+'
asS'LOC107985072'
p2312
(lp2313
I40928599
aI40982405
aS'+'
asS'LOC101926984'
p2314
(lp2315
I28263633
aI28272468
aS'-'
asS'EZH1'
p2316
(lp2317
I42700274
aI42745096
aS'-'
asS'MIR3186'
p2318
(lp2319
I81451103
aI81451188
aS'-'
asS'TEN1'
p2320
(lp2321
I75979216
aI76000586
aS'+'
asS'DRG2'
p2322
(lp2323
I18087866
aI18107985
aS'+'
asS'AURKB'
p2324
(lp2325
I8204737
aI8210768
aS'-'
asS'TBC1D3P5'
p2326
(lp2327
I27418004
aI27431623
aS'+'
asS'YWHAE'
p2328
(lp2329
I1344489
aI1400375
aS'-'
asS'TOM1L1'
p2330
(lp2331
I54900690
aI54961967
aS'+'
asS'ZBTB4'
p2332
(lp2333
I7459365
aI7484249
aS'-'
asS'NBR2'
p2334
(lp2335
I43125582
aI43145113
aS'+'
asS'NBR1'
p2336
(lp2337
I43170470
aI43211689
aS'+'
asS'CDC42EP4'
p2338
(lp2339
I73283623
aI73312004
aS'-'
asS'CASC3'
p2340
(lp2341
I40140253
aI40172178
aS'+'
asS'MIR22HG'
p2342
(lp2343
I1711503
aI1716272
aS'-'
asS'TBKBP1'
p2344
(lp2345
I47694064
aI47712058
aS'+'
asS'VAMP2'
p2346
(lp2347
I8159146
aI8162975
aS'-'
asS'WFIKKN2'
p2348
(lp2349
I50834649
aI50842353
aS'+'
asS'ABI3'
p2350
(lp2351
I49210226
aI49223225
aS'+'
asS'ABCC3'
p2352
(lp2353
I50634842
aI50691704
aS'+'
asS'PITPNC1'
p2354
(lp2355
I67377280
aI67697263
aS'+'
asS'KRT39'
p2356
(lp2357
I40958416
aI40966892
aS'-'
asS'KRT38'
p2358
(lp2359
I41436368
aI41441344
aS'-'
asS'ACADVL'
p2360
(lp2361
I7217124
aI7225267
aS'+'
asS'SLC6A4'
p2362
(lp2363
I30194318
aI30235968
aS'-'
asS'KRT31'
p2364
(lp2365
I41393723
aI41397592
aS'-'
asS'KRT32'
p2366
(lp2367
I41459512
aI41467386
aS'-'
asS'KRT35'
p2368
(lp2369
I41476709
aI41482743
aS'-'
asS'KRT34'
p2370
(lp2371
I41377649
aI41383816
aS'-'
asS'KRT37'
p2372
(lp2373
I41420556
aI41424570
aS'-'
asS'KRT36'
p2374
(lp2375
I41486135
aI41489864
aS'-'
asS'FLJ45079'
p2376
(lp2377
I77879000
aI77884087
aS'-'
asS'LOC107985059'
p2378
(lp2379
I82308624
aI82311482
aS'-'
asS'MAGOH2P'
p2380
(lp2381
I10715942
aI10716582
aS'-'
asS'LOC107985055'
p2382
(lp2383
I36116176
aI36137858
aS'+'
asS'LOC107985053'
p2384
(lp2385
I4489872
aI4498716
aS'-'
asS'LOC107985051'
p2386
(lp2387
I18609561
aI18611671
aS'+'
asS'KIF2B'
p2388
(lp2389
I53822877
aI53825212
aS'+'
asS'PECAM1'
p2390
(lp2391
I64322502
aI64413844
aS'-'
asS'FMNL1'
p2392
(lp2393
I45221727
aI45247322
aS'+'
asS'H3F3B'
p2394
(lp2395
I75776433
aI75779935
aS'-'
asS'BRCA1'
p2396
(lp2397
I43044294
aI43125483
aS'-'
asS'ANKRD40'
p2398
(lp2399
I50693189
aI50707909
aS'-'
asS'WNK4'
p2400
(lp2401
I42779700
aI42797063
aS'+'
asS'LOC101927198'
p2402
(lp2403
I32827578
aI32843922
aS'+'
asS'NT5C'
p2404
(lp2405
I75130224
aI75131795
aS'-'
asS'RFNG'
p2406
(lp2407
I82047901
aI82051774
aS'-'
asS'USP32'
p2408
(lp2409
I60177230
aI60422470
aS'-'
asS'CCL23'
p2410
(lp2411
I36013055
aI36018179
aS'-'
asS'SHMT1'
p2412
(lp2413
I18327859
aI18363563
aS'-'
asS'PLD6'
p2414
(lp2415
I17200989
aI17206332
aS'-'
asS'P4HB'
p2416
(lp2417
I81843157
aI81860668
aS'-'
asS'PLD2'
p2418
(lp2419
I4807100
aI4823432
aS'+'
asS'PHB'
p2420
(lp2421
I49404047
aI49414905
aS'-'
asS'MCRIP1'
p2422
(lp2423
I81822360
aI81833294
aS'-'
asS'SECTM1'
p2424
(lp2425
I82321023
aI82334045
aS'-'
asS'PNPO'
p2426
(lp2427
I47941522
aI47949308
aS'+'
asS'RNF213'
p2428
(lp2429
I80260860
aI80398786
aS'+'
asS'ZACN'
p2430
(lp2431
I76079181
aI76082804
aS'+'
asS'LOC102723517'
p2432
(lp2433
I72034106
aI72057734
aS'-'
asS'SKAP1'
p2434
(lp2435
I48133437
aI48430291
aS'-'
asS'MED24'
p2436
(lp2437
I40019096
aI40054636
aS'-'
asS'HOXB9'
p2438
(lp2439
I48621155
aI48626473
aS'-'
asS'SEPT9'
p2440
(lp2441
I77281409
aI77500596
aS'+'
asS'HOXB-AS3'
p2442
(lp2443
I48590419
aI48606414
aS'+'
asS'HOXB-AS1'
p2444
(lp2445
I48544350
aI48551241
aS'+'
asS'PITPNA'
p2446
(lp2447
I1517988
aI1562816
aS'-'
asS'KRTAP9-8'
p2448
(lp2449
I41238017
aI41239004
aS'+'
asS'KRTAP9-9'
p2450
(lp2451
I41255383
aI41256364
aS'+'
asS'KANSL1'
p2452
(lp2453
I46029915
aI46225374
aS'-'
asS'SMURF2'
p2454
(lp2455
I64542281
aI64661907
aS'-'
asS'MIR6782'
p2456
(lp2457
I44207770
aI44207839
aS'-'
asS'MIR6783'
p2458
(lp2459
I44934617
aI44934681
aS'-'
asS'KRTAP9-2'
p2460
(lp2461
I41226647
aI41227652
aS'+'
asS'KRTAP9-3'
p2462
(lp2463
I41232462
aI41233454
aS'+'
asS'KRTAP9-4'
p2464
(lp2465
I41249686
aI41250653
aS'+'
asS'MIR6787'
p2466
(lp2467
I82236667
aI82236728
aS'+'
asS'MIR6784'
p2468
(lp2469
I45114366
aI45114433
aS'-'
asS'KRTAP9-7'
p2470
(lp2471
I41275697
aI41276207
aS'+'
asS'JUP'
p2472
(lp2473
I41754607
aI41786853
aS'-'
asS'CDK5R1'
p2474
(lp2475
I32485280
aI32491256
aS'+'
asS'NARF'
p2476
(lp2477
I82458198
aI82490537
aS'+'
asS'LOC105371910'
p2478
(lp2479
I78248315
aI78252491
aS'+'
asS'LOC105371912'
p2480
(lp2481
I78342083
aI78346380
aS'+'
asS'ARL16'
p2482
(lp2483
I81681193
aI81683924
aS'-'
asS'LOC105371919'
p2484
(lp2485
I79823794
aI79827704
aS'+'
asS'HOXB6'
p2486
(lp2487
I48595735
aI48604992
aS'-'
asS'BAHCC1'
p2488
(lp2489
I81395430
aI81466326
aS'+'
asS'EPN3'
p2490
(lp2491
I50532686
aI50543750
aS'+'
asS'EPN2'
p2492
(lp2493
I19237376
aI19336715
aS'+'
asS'LOC101928418'
p2494
(lp2495
I12671861
aI12706135
aS'-'
asS'USP32P1'
p2496
(lp2497
I16786891
aI16804505
aS'+'
asS'USP32P2'
p2498
(lp2499
I18511261
aI18521252
aS'-'
asS'HOXB5'
p2500
(lp2501
I48591256
aI48593741
aS'-'
asS'LOC100996660'
p2502
(lp2503
I60126534
aI60135748
aS'-'
asS'MRPS23'
p2504
(lp2505
I57838925
aI57850072
aS'-'
asS'GPR179'
p2506
(lp2507
I38325609
aI38343810
aS'-'
asS'LOC105376839'
p2508
(lp2509
I45588255
aI45598611
aS'-'
asS'ZNF750'
p2510
(lp2511
I82829433
aI82840055
aS'-'
asS'LOC100130950'
p2512
(lp2513
I5192083
aI5235636
aS'+'
asS'MIR324'
p2514
(lp2515
I7223296
aI7223379
aS'-'
asS'MEIOC'
p2516
(lp2517
I44656416
aI44677086
aS'+'
asS'COX10-AS1'
p2518
(lp2519
I14029291
aI14069458
aS'-'
asS'TBX2'
p2520
(lp2521
I61399895
aI61409466
aS'+'
asS'TBX4'
p2522
(lp2523
I61452417
aI61485110
aS'+'
asS'JMJD6'
p2524
(lp2525
I76712831
aI76726799
aS'-'
asS'LOC101928251'
p2526
(lp2527
I73513682
aI73518770
aS'+'
asS'RPL29P2'
p2528
(lp2529
I7754319
aI7754976
aS'+'
asS'MIR6785'
p2530
(lp2531
I75498547
aI75498628
aS'+'
asS'MIR548AA2'
p2532
(lp2533
I67471488
aI67471585
aS'+'
asS'MIR6165'
p2534
(lp2535
I49510816
aI49510900
aS'+'
asS'FAM106B'
p2536
(lp2537
I20417291
aI20419050
aS'+'
asS'ERN1'
p2538
(lp2539
I64039141
aI64130819
aS'-'
asS'FAM106A'
p2540
(lp2541
I18524565
aI18526846
aS'-'
asS'C17orf96'
p2542
(lp2543
I38671702
aI38674934
aS'-'
asS'ACACA'
p2544
(lp2545
I37084991
aI37406822
aS'-'
asS'SLFN14'
p2546
(lp2547
I35545731
aI35560841
aS'-'
asS'LOC105371860'
p2548
(lp2549
I64844395
aI64847994
aS'-'
asS'YWHAEP7'
p2550
(lp2551
I37842948
aI37884743
aS'-'
asS'SSTR2'
p2552
(lp2553
I73165020
aI73171955
aS'+'
asS'SLFN11'
p2554
(lp2555
I35350315
aI35373914
aS'-'
asS'SLFN12'
p2556
(lp2557
I35406683
aI35433065
aS'-'
asS'SLFN13'
p2558
(lp2559
I35435095
aI35448837
aS'-'
asS'OR1E2'
p2560
(lp2561
I3432869
aI3433841
aS'-'
asS'OR1E1'
p2562
(lp2563
I3397465
aI3398410
aS'-'
asS'RAD51D'
p2564
(lp2565
I35099791
aI35119869
aS'-'
asS'RAD51C'
p2566
(lp2567
I58692537
aI58734331
aS'+'
asS'PYY2'
p2568
(lp2569
I28226562
aI28228060
aS'+'
asS'KRTAP16-1'
p2570
(lp2571
I41307699
aI41309253
aS'-'
asS'RNF126P1'
p2572
(lp2573
I57045477
aI57046795
aS'+'
asS'MIR548D2'
p2574
(lp2575
I67471488
aI67471585
aS'-'
asS'AATK-AS1'
p2576
(lp2577
I81165506
aI81183164
aS'+'
asS'MPRIP'
p2578
(lp2579
I17042437
aI17192647
aS'+'
asS'MIEN1'
p2580
(lp2581
I39728499
aI39730563
aS'-'
asS'KRTAP29-1'
p2582
(lp2583
I41301825
aI41302851
aS'-'
asS'MLLT6'
p2584
(lp2585
I38705619
aI38729803
aS'+'
asS'CCL1'
p2586
(lp2587
I34360327
aI34363233
aS'-'
asS'PHOSPHO1'
p2588
(lp2589
I49223369
aI49230766
aS'-'
asS'KRT12'
p2590
(lp2591
I40861177
aI40867210
aS'-'
asS'ZNHIT3'
p2592
(lp2593
I36486626
aI36499310
aS'+'
asS'C17orf62'
p2594
(lp2595
I82442585
aI82450831
aS'-'
asS'STAC2'
p2596
(lp2597
I39210535
aI39225787
aS'-'
asS'ARHGAP44'
p2598
(lp2599
I12789511
aI12991644
aS'+'
asS'SPOP'
p2600
(lp2601
I49598883
aI49678163
aS'-'
asS'MYBBP1A'
p2602
(lp2603
I4538895
aI4555386
aS'-'
asS'PLEKHM1P1'
p2604
(lp2605
I64784840
aI64837184
aS'-'
asS'SNORA50C'
p2606
(lp2607
I64146338
aI64146471
aS'+'
asS'RAMP2-AS1'
p2608
(lp2609
I42753913
aI42761257
aS'-'
asS'KRT19'
p2610
(lp2611
I41523616
aI41528389
aS'-'
asS'TMEM92-AS1'
p2612
(lp2613
I50281578
aI50287855
aS'-'
asS'HES7'
p2614
(lp2615
I8120589
aI8126032
aS'-'
asS'MIR3678'
p2616
(lp2617
I75406068
aI75406162
aS'+'
asS'LYRM9'
p2618
(lp2619
I27878313
aI27893383
aS'-'
asS'MRC2'
p2620
(lp2621
I62627400
aI62693601
aS'+'
asS'NXN'
p2622
(lp2623
I799312
aI979758
aS'-'
asS'PPY2P'
p2624
(lp2625
I28247443
aI28248289
aS'+'
asS'ANAPC11'
p2626
(lp2627
I81890789
aI81900533
aS'+'
asS'FLII'
p2628
(lp2629
I18244814
aI18258916
aS'-'
asS'TTYH2'
p2630
(lp2631
I74213556
aI74262020
aS'+'
asS'LRRC37A'
p2632
(lp2633
I46248043
aI46339295
aS'+'
asS'LRRC37B'
p2634
(lp2635
I32007871
aI32053500
aS'+'
asS'KRT28'
p2636
(lp2637
I40792195
aI40799959
aS'-'
asS'SPAG9'
p2638
(lp2639
I50962173
aI51120865
aS'-'
asS'KRT23'
p2640
(lp2641
I40922695
aI40937643
aS'-'
asS'KRT20'
p2642
(lp2643
I40875888
aI40885243
aS'-'
asS'SPAG5'
p2644
(lp2645
I28577564
aI28599038
aS'-'
asS'KRT26'
p2646
(lp2647
I40766237
aI40772159
aS'-'
asS'KRT27'
p2648
(lp2649
I40776807
aI40782534
aS'-'
asS'KRT24'
p2650
(lp2651
I40694245
aI40703735
aS'-'
asS'KRT25'
p2652
(lp2653
I40748022
aI40755542
aS'-'
asS'LOC107985068'
p2654
(lp2655
I36001528
aI36049332
aS'+'
asS'LOC107985069'
p2656
(lp2657
I74624918
aI74625830
aS'-'
asS'ALOX12-AS1'
p2658
(lp2659
I6985122
aI7012334
aS'-'
asS'LOC107985063'
p2660
(lp2661
I8877371
aI8879009
aS'+'
asS'LOC107985066'
p2662
(lp2663
I44325282
aI44327543
aS'+'
asS'LOC107985067'
p2664
(lp2665
I35757197
aI35765799
aS'-'
asS'LOC107985064'
p2666
(lp2667
I40458409
aI40470726
aS'-'
asS'LOC107985065'
p2668
(lp2669
I57912311
aI57917124
aS'+'
asS'PCGF2'
p2670
(lp2671
I38733897
aI38749817
aS'-'
asS'LOC105371781'
p2672
(lp2673
I42154104
aI42157648
aS'+'
asS'LOC105371785'
p2674
(lp2675
I43368633
aI43373809
aS'+'
asS'LOC105371786'
p2676
(lp2677
I43669587
aI43707480
aS'+'
asS'LOC105371787'
p2678
(lp2679
I43914431
aI43917307
aS'-'
asS'LOC105371789'
p2680
(lp2681
I44115911
aI44120595
aS'+'
asS'ELP5'
p2682
(lp2683
I7252052
aI7259940
aS'+'
asS'TBC1D3P2'
p2684
(lp2685
I62264704
aI62275655
aS'-'
asS'PTGES3L'
p2686
(lp2687
I42968087
aI42980528
aS'-'
asS'WFDC21P'
p2688
(lp2689
I60083565
aI60088467
aS'-'
asS'LOC107983996'
p2690
(lp2691
I63406274
aI63415011
aS'-'
asS'DPRXP4'
p2692
(lp2693
I30975334
aI30976004
aS'+'
asS'AANAT'
p2694
(lp2695
I76453350
aI76470117
aS'+'
asS'LOC100506974'
p2696
(lp2697
I13790326
aI13893011
aS'-'
asS'LOC728392'
p2698
(lp2699
I5499426
aI5500999
aS'-'
asS'LOC102724517'
p2700
(lp2701
I28045747
aI28048926
aS'+'
asS'CDC6'
p2702
(lp2703
I40287893
aI40303161
aS'+'
asS'RNF222'
p2704
(lp2705
I8390703
aI8397826
aS'-'
asS'NPEPPS'
p2706
(lp2707
I47522949
aI47623276
aS'+'
asS'C1QL1'
p2708
(lp2709
I44959692
aI44968276
aS'-'
asS'TMEM98'
p2710
(lp2711
I32927909
aI32941649
aS'+'
asS'TMEM99'
p2712
(lp2713
I40819091
aI40836274
aS'+'
asS'SIRT7'
p2714
(lp2715
I81911938
aI81918182
aS'-'
asS'LOC105377826'
p2716
(lp2717
I68097
aI97400
aS'-'
asS'GSG1L2'
p2718
(lp2719
I9802385
aI9822071
aS'-'
asS'LOC105377824'
p2720
(lp2721
I22377193
aI22378151
aS'+'
asS'TMEM92'
p2722
(lp2723
I50271405
aI50281485
aS'+'
asS'KRT42P'
p2724
(lp2725
I41626326
aI41640199
aS'-'
asS'LOC102724731'
p2726
(lp2727
I32944647
aI32950511
aS'+'
asS'TMEM94'
p2728
(lp2729
I75441158
aI75500088
aS'+'
asS'TMEM95'
p2730
(lp2731
I7354967
aI7357218
aS'+'
asS'LOC101927230'
p2732
(lp2733
I50214693
aI50215420
aS'+'
asS'TRIM47'
p2734
(lp2735
I75874163
aI75878599
aS'-'
asS'CARD14'
p2736
(lp2737
I80169991
aI80209331
aS'+'
asS'LOC101927239'
p2738
(lp2739
I34169375
aI34183632
aS'-'
asS'ASPA'
p2740
(lp2741
I3474105
aI3502534
aS'+'
asS'FAM57A'
p2742
(lp2743
I732545
aI742968
aS'+'
asS'MIR132'
p2744
(lp2745
I2049907
aI2050008
aS'-'
asS'ACE'
p2746
(lp2747
I63477060
aI63498380
aS'+'
asS'MSX2P1'
p2748
(lp2749
I58156958
aI58159120
aS'+'
asS'MIR1250'
p2750
(lp2751
I81133195
aI81133308
aS'-'
asS'MIR1253'
p2752
(lp2753
I2748077
aI2748182
aS'-'
asS'ATP5H'
p2754
(lp2755
I75038859
aI75046979
aS'-'
asS'RASD1'
p2756
(lp2757
I17494436
aI17496395
aS'-'
asS'GPR142'
p2758
(lp2759
I74367196
aI74373008
aS'+'
asS'TBC1D3'
p2760
(lp2761
I38181475
aI38192555
aS'-'
asS'AFMID'
p2762
(lp2763
I78185101
aI78207702
aS'+'
asS'KDM6B'
p2764
(lp2765
I7834209
aI7854796
aS'+'
asS'FGF11'
p2766
(lp2767
I7438272
aI7444932
aS'+'
asS'LOC100131943'
p2768
(lp2769
I20055297
aI20057162
aS'+'
asS'LOC105371763'
p2770
(lp2771
I38691492
aI38704741
aS'+'
asS'UNC13D'
p2772
(lp2773
I75827224
aI75844717
aS'-'
asS'LOC105376799'
p2774
(lp2775
I8128337
aI8139209
aS'+'
asS'TNFRSF13B'
p2776
(lp2777
I16939083
aI16972088
aS'-'
asS'LOC105371767'
p2778
(lp2779
I39008088
aI39027957
aS'-'
asS'WSCD1'
p2780
(lp2781
I6069105
aI6124427
aS'+'
asS'MIR4522'
p2782
(lp2783
I27293909
aI27293996
aS'-'
asS'LOC105371583'
p2784
(lp2785
I20649194
aI20665630
aS'-'
asS'LOC105371793'
p2786
(lp2787
I44919427
aI44924797
aS'+'
asS'PPP1R27'
p2788
(lp2789
I81833491
aI81835050
aS'-'
asS'LOC101059954'
p2790
(lp2791
I40523195
aI40527002
aS'+'
asS'SLC16A3'
p2792
(lp2793
I82228405
aI82239499
aS'+'
asS'GLP2R'
p2794
(lp2795
I9825507
aI9894163
aS'+'
asS'LOC105371894'
p2796
(lp2797
I74670091
aI74677132
aS'-'
asS'LOC105371896'
p2798
(lp2799
I76243187
aI76259888
aS'-'
asS'LOC105371856'
p2800
(lp2801
I63380378
aI63403550
aS'-'
asS'LOC105371893'
p2802
(lp2803
I74747016
aI74748912
aS'-'
asS'LOC105371857'
p2804
(lp2805
I63333214
aI63354185
aS'-'
asS'LOC105371899'
p2806
(lp2807
I76950473
aI76969199
aS'-'
asS'RUNDC3A'
p2808
(lp2809
I44308558
aI44318670
aS'+'
asS'CNTNAP1'
p2810
(lp2811
I42679962
aI42699993
aS'+'
asS'LOC100507002'
p2812
(lp2813
I65100811
aI65111095
aS'+'
asS'SRCIN1'
p2814
(lp2815
I38530014
aI38607166
aS'-'
asS'LOC101927877'
p2816
(lp2817
I62808501
aI62836371
aS'+'
asS'TSR1'
p2818
(lp2819
I2322677
aI2337384
aS'-'
asS'SLC25A39'
p2820
(lp2821
I44319624
aI44324870
aS'-'
asS'SLC9A3R1'
p2822
(lp2823
I74748611
aI74769360
aS'+'
asS'LSM12'
p2824
(lp2825
I44034634
aI44067619
aS'-'
asS'TUBG2'
p2826
(lp2827
I42659247
aI42667006
aS'+'
asS'UBE2G1'
p2828
(lp2829
I4269216
aI4366674
aS'-'
asS'MIR5089'
p2830
(lp2831
I46973016
aI46973100
aS'+'
asS'HILS1'
p2832
(lp2833
I50171427
aI50172476
aS'-'
asS'ULK2'
p2834
(lp2835
I19770829
aI19867926
aS'-'
asS'KCNJ12'
p2836
(lp2837
I21376386
aI21419867
aS'+'
asS'NAGS'
p2838
(lp2839
I44004545
aI44009068
aS'+'
asS'KCNJ18'
p2840
(lp2841
I21692522
aI21704612
aS'+'
asS'GGT6'
p2842
(lp2843
I4556926
aI4560596
aS'-'
asS'FBF1'
p2844
(lp2845
I75909573
aI75938232
aS'-'
asS'MIR22'
p2846
(lp2847
I1713902
aI1713987
aS'-'
asS'MIR21'
p2848
(lp2849
I59841265
aI59841337
aS'+'
asS'TIAF1'
p2850
(lp2851
I29073520
aI29075609
aS'-'
asS'CCDC144NL'
p2852
(lp2853
I20847347
aI20896558
aS'-'
asS'SNORD49B'
p2854
(lp2855
I16439508
aI16439556
aS'+'
asS'SNORD49A'
p2856
(lp2857
I16440035
aI16440106
aS'+'
asS'SNORD42B'
p2858
(lp2859
I28720549
aI28720616
aS'+'
asS'C1QTNF1'
p2860
(lp2861
I79022933
aI79049788
aS'+'
asS'CFAP52'
p2862
(lp2863
I9576626
aI9643459
aS'+'
asS'MIR4520-1'
p2864
(lp2865
I6655439
aI6655509
aS'-'
asS'MIR4520-2'
p2866
(lp2867
I6655448
aI6655502
aS'+'
asS'FAM101B'
p2868
(lp2869
I439977
aI445940
aS'-'
asS'LOC440446'
p2870
(lp2871
I51336714
aI51342571
aS'+'
asS'TLCD2'
p2872
(lp2873
I1702789
aI1710368
aS'-'
asS'BPTF'
p2874
(lp2875
I67825516
aI67984376
aS'+'
asS'PGAP3'
p2876
(lp2877
I39671121
aI39688070
aS'-'
asS'TLCD1'
p2878
(lp2879
I28724347
aI28727930
aS'-'
asS'IFT20'
p2880
(lp2881
I28328324
aI28335489
aS'-'
asS'C17orf75'
p2882
(lp2883
I32328440
aI32350047
aS'-'
asS'C17orf74'
p2884
(lp2885
I7424873
aI7427564
aS'+'
asS'MIR634'
p2886
(lp2887
I66787071
aI66787168
aS'+'
asS'POLG2'
p2888
(lp2889
I64477784
aI64497066
aS'-'
asS'CPD'
p2890
(lp2891
I30378923
aI30469657
aS'+'
asS'MFAP4'
p2892
(lp2893
I19383441
aI19387219
aS'-'
asS'LOC105371529'
p2894
(lp2895
I8744955
aI8795038
aS'+'
asS'LOC105371525'
p2896
(lp2897
I8670581
aI8721456
aS'+'
asS'LOC105371526'
p2898
(lp2899
I8714546
aI8717467
aS'+'
asS'LOC105371520'
p2900
(lp2901
I8174622
aI8182812
aS'+'
asS'LOC101929240'
p2902
(lp2903
I64750401
aI64751508
aS'+'
asS'GABARAP'
p2904
(lp2905
I7240418
aI7242434
aS'-'
asS'LINC01497'
p2906
(lp2907
I69961706
aI69983544
aS'+'
asS'LOC101929578'
p2908
(lp2909
I39237757
aI39245804
aS'+'
asS'MIR4315-2'
p2910
(lp2911
I64822029
aI64822102
aS'-'
asS'DOC2B'
p2912
(lp2913
I146804
aI181630
aS'-'
asS'LOC101927755'
p2914
(lp2915
I59965095
aI59996972
aS'+'
asS'SNORD3B-1'
p2916
(lp2917
I19061911
aI19062128
aS'+'
asS'WIPI1'
p2918
(lp2919
I68421280
aI68457524
aS'-'
asS'LOC107984982'
p2920
(lp2921
I53746971
aI53748876
aS'-'
asS'LOC107984983'
p2922
(lp2923
I52917866
aI52926925
aS'+'
asS'LOC107984980'
p2924
(lp2925
I1230732
aI1231766
aS'-'
asS'LOC107984981'
p2926
(lp2927
I68166436
aI68174699
aS'+'
asS'LOC107984986'
p2928
(lp2929
I63827848
aI63829491
aS'-'
asS'LOC107984987'
p2930
(lp2931
I2153229
aI2156186
aS'-'
asS'LOC107984984'
p2932
(lp2933
I63672261
aI63681131
aS'+'
asS'LOC107984988'
p2934
(lp2935
I2070742
aI2072959
aS'+'
asS'LOC107984989'
p2936
(lp2937
I17977555
aI17990735
aS'-'
asS'PRR11'
p2938
(lp2939
I59155498
aI59206709
aS'+'
asS'LOC284009'
p2940
(lp2941
I2406980
aI2415436
aS'-'
asS'DLX3'
p2942
(lp2943
I49990004
aI49995224
aS'-'
asS'TNFSF13'
p2944
(lp2945
I7558291
aI7561608
aS'+'
asS'TNFSF12'
p2946
(lp2947
I7549057
aI7557890
aS'+'
asS'RASL10B'
p2948
(lp2949
I35731659
aI35743521
aS'+'
asS'MAPT-IT1'
p2950
(lp2951
I45895782
aI45898798
aS'+'
asS'LOC107985075'
p2952
(lp2953
I8079491
aI8081561
aS'+'
asS'LOC107985074'
p2954
(lp2955
I74531567
aI74544630
aS'+'
asS'LOC107985077'
p2956
(lp2957
I43849749
aI43855253
aS'-'
asS'LOC107985071'
p2958
(lp2959
I8867697
aI8869033
aS'+'
asS'LOC107985070'
p2960
(lp2961
I35898454
aI35961801
aS'+'
asS'LOC107985073'
p2962
(lp2963
I69572641
aI69582123
aS'-'
asS'TSPOAP1'
p2964
(lp2965
I58301226
aI58329030
aS'-'
asS'LOC102724183'
p2966
(lp2967
I43927594
aI43934517
aS'+'
asS'CRYBA1'
p2968
(lp2969
I29246856
aI29254494
aS'+'
asS'LOC107985079'
p2970
(lp2971
I77666975
aI77680754
aS'+'
asS'LOC107985078'
p2972
(lp2973
I74337374
aI74341222
aS'+'
asS'MIR657'
p2974
(lp2975
I81125275
aI81125373
aS'-'
asS'MIR3064'
p2976
(lp2977
I64500773
aI64500839
aS'-'
asS'SOX15'
p2978
(lp2979
I7588179
aI7590170
aS'-'
asS'EFTUD2'
p2980
(lp2981
I44850286
aI44899625
aS'-'
asS'LOC105371792'
p2982
(lp2983
I44678961
aI44688218
aS'+'
asS'LOC105371791'
p2984
(lp2985
I44536239
aI44537857
aS'+'
asS'LOC105371790'
p2986
(lp2987
I44274018
aI44275680
aS'-'
asS'LOC105371796'
p2988
(lp2989
I45363254
aI45366522
aS'-'
asS'LOC105371795'
p2990
(lp2991
I45168804
aI45171485
aS'-'
asS'LOC105371798'
p2992
(lp2993
I46909741
aI46912800
aS'-'
asS'CACNA1G-AS1'
p2994
(lp2995
I50556206
aI50562108
aS'-'
asS'MMD'
p2996
(lp2997
I55392616
aI55421993
aS'-'
asS'LOC107983988'
p2998
(lp2999
I7428815
aI7432821
aS'+'
asS'ARL5C'
p3000
(lp3001
I39156893
aI39166161
aS'-'
asS'TNK1'
p3002
(lp3003
I7380558
aI7389766
aS'+'
asS'RPL23AP87'
p3004
(lp3005
I83226896
aI83240804
aS'+'
asS'KRT17'
p3006
(lp3007
I41619439
aI41624630
aS'-'
asS'KRT16'
p3008
(lp3009
I41609777
aI41612827
aS'-'
asS'KRT15'
p3010
(lp3011
I41513746
aI41522413
aS'-'
asS'KRT14'
p3012
(lp3013
I41582278
aI41586895
aS'-'
asS'KRT13'
p3014
(lp3015
I41500980
aI41505613
aS'-'
asS'PDE6G'
p3016
(lp3017
I81650458
aI81663418
aS'-'
asS'KRT10'
p3018
(lp3019
I40818116
aI40822621
aS'-'
asS'EFCAB5'
p3020
(lp3021
I29941604
aI30108452
aS'+'
asS'EIF4A1'
p3022
(lp3023
I7572705
aI7579006
aS'+'
asS'EFCAB3'
p3024
(lp3025
I62370217
aI62416479
aS'+'
asS'LOC101930665'
p3026
(lp3027
I21612896
aI21644189
aS'+'
asS'TMEM88'
p3028
(lp3029
I7854885
aI7856099
aS'+'
asS'LINC00854'
p3030
(lp3031
I43221416
aI43231269
aS'-'
asS'SLC4A1'
p3032
(lp3033
I44248389
aI44268161
aS'-'
asS'TAF15'
p3034
(lp3035
I35809454
aI35847242
aS'+'
asS'THRA'
p3036
(lp3037
I40062192
aI40093867
aS'+'
asS'KRTAP4-12'
p3038
(lp3039
I41123090
aI41124167
aS'-'
asS'HIC1'
p3040
(lp3041
I2055098
aI2059687
aS'+'
asS'SAP30BP'
p3042
(lp3043
I75667115
aI75708062
aS'+'
asS'MRPL45P2'
p3044
(lp3045
I47450226
aI47492620
aS'-'
asS'LOC107985000'
p3046
(lp3047
I64943354
aI64958845
aS'-'
asS'NAT9'
p3048
(lp3049
I74770528
aI74776425
aS'-'
asS'MXRA7'
p3050
(lp3051
I76673649
aI76711005
aS'-'
asS'LOC105371942'
p3052
(lp3053
I82577960
aI82588854
aS'-'
asS'ABCA6'
p3054
(lp3055
I69062043
aI69142186
aS'-'
asS'ABCA5'
p3056
(lp3057
I69244434
aI69327182
aS'-'
asS'LOC100996792'
p3058
(lp3059
I21772911
aI21783444
aS'-'
asS'ABCA8'
p3060
(lp3061
I68867284
aI68955426
aS'-'
asS'ABCA9'
p3062
(lp3063
I68975266
aI69078978
aS'-'
asS'LOC102724850'
p3064
(lp3065
I36073305
aI36089856
aS'+'
asS'TMEM256'
p3066
(lp3067
I7402973
aI7404131
aS'-'
asS'PSMD3'
p3068
(lp3069
I39980767
aI39997960
aS'+'
asS'LOC105376789'
p3070
(lp3071
I81799841
aI81805083
aS'-'
asS'SOX9-AS1'
p3072
(lp3073
I72071041
aI72116016
aS'-'
asS'MFSD6L'
p3074
(lp3075
I8797109
aI8799349
aS'-'
asS'NGFR'
p3076
(lp3077
I49495292
aI49515020
aS'+'
asS'LOC105371948'
p3078
(lp3079
I83193570
aI83199881
aS'+'
asS'RPTOR'
p3080
(lp3081
I80544824
aI80966373
aS'+'
asS'LOC101927510'
p3082
(lp3083
I57251077
aI57256230
aS'-'
asS'TM4SF5'
p3084
(lp3085
I4771891
aI4783211
aS'+'
asS'OR3A1'
p3086
(lp3087
I3288317
aI3336087
aS'-'
asS'OR3A2'
p3088
(lp3089
I3276112
aI3386311
aS'-'
asS'OR3A3'
p3090
(lp3091
I3420423
aI3421805
aS'+'
asS'HSD17B1'
p3092
(lp3093
I42551965
aI42555214
aS'+'
asS'LOC105371887'
p3094
(lp3095
I72640674
aI72646967
aS'+'
asS'NOS2'
p3096
(lp3097
I27756765
aI27804339
aS'-'
asS'TTLL6'
p3098
(lp3099
I48762233
aI48817253
aS'-'
asS'LOC105371882'
p3100
(lp3101
I70138240
aI70158245
aS'-'
asS'LOC105371881'
p3102
(lp3103
I70014288
aI70037793
aS'-'
asS'LOC105371880'
p3104
(lp3105
I69476146
aI69488034
aS'-'
asS'KPNB1'
p3106
(lp3107
I47649837
aI47683638
aS'+'
asS'HGS'
p3108
(lp3109
I81683931
aI81702121
aS'+'
asS'LOC105371888'
p3110
(lp3111
I73925555
aI73950860
aS'-'
asS'ABR'
p3112
(lp3113
I1003518
aI1229712
aS'-'
asS'OR1G1'
p3114
(lp3115
I3126609
aI3127551
aS'-'
asS'ST6GALNAC1'
p3116
(lp3117
I76617768
aI76643758
aS'-'
asS'LOC107987243'
p3118
(lp3119
I44987588
aI45013375
aS'-'
asS'LOC107987244'
p3120
(lp3121
I7850457
aI7851522
aS'-'
asS'LOC107987245'
p3122
(lp3123
I8481388
aI8486358
aS'+'
asS'LOC107987246'
p3124
(lp3125
I22384021
aI22387957
aS'+'
asS'LOC107987247'
p3126
(lp3127
I34049287
aI34071810
aS'-'
asS'LOC107987248'
p3128
(lp3129
I63885850
aI63886703
aS'+'
asS'LOC107987249'
p3130
(lp3131
I72115974
aI72118971
aS'+'
asS'LOC100287042'
p3132
(lp3133
I75271298
aI75273895
aS'+'
asS'LOC101928343'
p3134
(lp3135
I74599839
aI74625612
aS'+'
asS'LOC101927057'
p3136
(lp3137
I31272010
aI31273648
aS'-'
asS'PRCD'
p3138
(lp3139
I76527585
aI76545376
aS'+'
asS'TSPAN10'
p3140
(lp3141
I81637170
aI81648755
aS'+'
asS'SLC25A19'
p3142
(lp3143
I75272979
aI75289957
aS'-'
asS'COIL'
p3144
(lp3145
I56938198
aI56961050
aS'-'
asS'SLC25A11'
p3146
(lp3147
I4937129
aI4940167
aS'-'
asS'SLC25A10'
p3148
(lp3149
I81712235
aI81721016
aS'+'
asS'LACAT1'
p3150
(lp3151
I77253773
aI77276504
aS'+'
asS'NFE2L1'
p3152
(lp3153
I48048323
aI48061545
aS'+'
asS'LOC101060389'
p3154
(lp3155
I38004032
aI38014908
aS'+'
asS'P3H4'
p3156
(lp3157
I41801951
aI41812617
aS'-'
asS'USP36'
p3158
(lp3159
I78787380
aI78840887
aS'-'
asS'LOC101928766'
p3160
(lp3161
I79915251
aI79926725
aS'-'
asS'C17orf47'
p3162
(lp3163
I58541586
aI58544372
aS'-'
asS'TMUB2'
p3164
(lp3165
I44186955
aI44191731
aS'+'
asS'ATP1B2'
p3166
(lp3167
I7646626
aI7657771
aS'+'
asS'C17orf49'
p3168
(lp3169
I7014736
aI7017524
aS'+'
asS'LPO'
p3170
(lp3171
I58238425
aI58268518
aS'+'
asS'SCGB1C2'
p3172
(lp3173
I132345
aI139067
aS'+'
asS'MTRNR2L1'
p3174
(lp3175
I22523110
aI22524665
aS'+'
asS'LOC105371539'
p3176
(lp3177
I12002356
aI12021738
aS'-'
asS'SNORD3B-2'
p3178
(lp3179
I19063919
aI19064136
aS'-'
asS'LOC105371536'
p3180
(lp3181
I10905364
aI10922935
aS'-'
asS'LINC01152'
p3182
(lp3183
I72030653
aI72041297
aS'+'
asS'LOC105371533'
p3184
(lp3185
I9235966
aI9238984
aS'+'
asS'LOC105371532'
p3186
(lp3187
I9237154
aI9239707
aS'-'
asS'LOC105371531'
p3188
(lp3189
I9243886
aI9250161
aS'-'
asS'LOC105371530'
p3190
(lp3191
I8765747
aI8768280
aS'-'
asS'LINC01482'
p3192
(lp3193
I68628153
aI68679606
aS'+'
asS'LINC01483'
p3194
(lp3195
I69593986
aI69903000
aS'+'
asS'LOC100288866'
p3196
(lp3197
I49505656
aI49574064
aS'-'
asS'HEATR6'
p3198
(lp3199
I60041363
aI60078926
aS'-'
asS'LOC107984999'
p3200
(lp3201
I49613251
aI49618974
aS'-'
asS'LOC107984995'
p3202
(lp3203
I19418875
aI19424357
aS'+'
asS'LOC107984996'
p3204
(lp3205
I14616120
aI14619340
aS'+'
asS'ITGB3'
p3206
(lp3207
I47253841
aI47312711
aS'+'
asS'TEFM'
p3208
(lp3209
I30898982
aI30906775
aS'-'
asS'LOC107984992'
p3210
(lp3211
I61129453
aI61136598
aS'-'
asS'EIF4A3'
p3212
(lp3213
I80135213
aI80147183
aS'-'
asS'LOC105371884'
p3214
(lp3215
I70811470
aI70835327
aS'-'
asS'SMARCE1'
p3216
(lp3217
I40627719
aI40647851
aS'-'
asS'ARL4D'
p3218
(lp3219
I43398984
aI43401136
aS'+'
asS'LRRC75A'
p3220
(lp3221
I16442004
aI16492191
aS'-'
asS'MIR3615'
p3222
(lp3223
I74748612
aI74748699
aS'+'
asS'MIR3614'
p3224
(lp3225
I56891269
aI56891355
aS'-'
asS'ADORA2B'
p3226
(lp3227
I15927780
aI15975746
aS'+'
asS'YPEL2'
p3228
(lp3229
I59331691
aI59401734
aS'+'
asS'FTSJ3'
p3230
(lp3231
I63819432
aI63827671
aS'-'
asS'DERL2'
p3232
(lp3233
I5471250
aI5486230
aS'-'
asS'PRR29'
p3234
(lp3235
I63998356
aI64004305
aS'+'
asS'ENTHD2'
p3236
(lp3237
I81228276
aI81239092
aS'-'
asS'PLXDC1'
p3238
(lp3239
I39063302
aI39151649
aS'-'
asS'CLDN7'
p3240
(lp3241
I7259902
aI7263193
aS'-'
asS'SMYD4'
p3242
(lp3243
I1779534
aI1829881
aS'-'
asS'LOC107985001'
p3244
(lp3245
I53970974
aI53973279
aS'-'
asS'LOC107985002'
p3246
(lp3247
I55088621
aI55097369
aS'+'
asS'LOC107985003'
p3248
(lp3249
I43166244
aI43171067
aS'-'
asS'LOC107985004'
p3250
(lp3251
I10316448
aI10324967
aS'+'
asS'LOC107985005'
p3252
(lp3253
I72629745
aI72635736
aS'+'
asS'LOC107985006'
p3254
(lp3255
I72618396
aI72623888
aS'+'
asS'LOC107985007'
p3256
(lp3257
I42824328
aI42829627
aS'+'
asS'LOC107985009'
p3258
(lp3259
I37703346
aI37707180
aS'+'
asS'HEATR9'
p3260
(lp3261
I35854945
aI35868891
aS'-'
asS'SARM1'
p3262
(lp3263
I28371661
aI28401045
aS'+'
asS'SMIM6'
p3264
(lp3265
I75644804
aI75647973
aS'+'
asS'RDM1'
p3266
(lp3267
I35918079
aI35930776
aS'-'
asS'LINC00511'
p3268
(lp3269
I72598040
aI72640472
aS'-'
asS'LOC79999'
p3270
(lp3271
I19154645
aI19162620
aS'-'
asS'LINC01028'
p3272
(lp3273
I70051270
aI70068095
aS'+'
asS'CLEC10A'
p3274
(lp3275
I7074536
aI7080635
aS'-'
asS'EFNB3'
p3276
(lp3277
I7705201
aI7711375
aS'+'
asS'HDAC5'
p3278
(lp3279
I44076752
aI44123646
aS'-'
asS'CHAD'
p3280
(lp3281
I50464491
aI50469881
aS'-'
asS'RUNDC1'
p3282
(lp3283
I42980509
aI42993692
aS'+'
asS'CBX8'
p3284
(lp3285
I79794376
aI79797116
aS'-'
asS'CBX4'
p3286
(lp3287
I79833155
aI79839414
aS'-'
asS'ATXN7L3'
p3288
(lp3289
I44191804
aI44199976
aS'-'
asS'KIF19'
p3290
(lp3291
I74326211
aI74355820
aS'+'
asS'CBX1'
p3292
(lp3293
I48070051
aI48101521
aS'-'
asS'NLRP1'
p3294
(lp3295
I5501398
aI5584512
aS'-'
asS'LOC100130520'
p3296
(lp3297
I74557228
aI74567512
aS'-'
asS'C1QBP'
p3298
(lp3299
I5432778
aI5439151
aS'-'
asS'ST6GALNAC2'
p3300
(lp3301
I76565378
aI76586066
aS'-'
asS'CYB5D1'
p3302
(lp3303
I7857966
aI7864417
aS'+'
asS'CYB5D2'
p3304
(lp3305
I4143116
aI4157697
aS'+'
asS'LINC00469'
p3306
(lp3307
I73749269
aI73828537
aS'-'
asS'MGAT5B'
p3308
(lp3309
I76868497
aI76950384
aS'+'
asS'LOC107133515'
p3310
(lp3311
I30576464
aI30637466
aS'+'
asS'KLHL10'
p3312
(lp3313
I41835684
aI41848344
aS'+'
asS'KLHL11'
p3314
(lp3315
I41848517
aI41865431
aS'-'
asS'LINC00868'
p3316
(lp3317
I76856165
aI76861836
aS'+'
asS'NAGLU'
p3318
(lp3319
I42535932
aI42544449
aS'+'
asS'SPATA32'
p3320
(lp3321
I45254392
aI45262112
aS'-'
asS'LOC101927253'
p3322
(lp3323
I50627029
aI50631940
aS'-'
asS'LOC102724624'
p3324
(lp3325
I19089454
aI19097563
aS'+'
asS'IGF2BP1'
p3326
(lp3327
I48997411
aI49056145
aS'+'
asS'UNK'
p3328
(lp3329
I75784770
aI75825799
aS'+'
asS'TRIM65'
p3330
(lp3331
I75880378
aI75897008
aS'-'
asS'MIR6510'
p3332
(lp3333
I41517163
aI41517217
aS'-'
asS'OMG'
p3334
(lp3335
I31294649
aI31297362
aS'-'
asS'MIR6516'
p3336
(lp3337
I77089416
aI77089497
aS'+'
asS'KIF1C'
p3338
(lp3339
I4997947
aI5028399
aS'+'
asS'AATF'
p3340
(lp3341
I36948874
aI37056871
aS'+'
asS'ARL17A'
p3342
(lp3343
I46500212
aI46579775
aS'-'
asS'AATK'
p3344
(lp3345
I81117294
aI81166072
aS'-'
asS'USP6'
p3346
(lp3347
I5116437
aI5175032
aS'+'
asS'LOC339260'
p3348
(lp3349
I20938519
aI20982357
aS'+'
asS'SOX9'
p3350
(lp3351
I72121019
aI72126420
aS'+'
asS'SEPT4'
p3352
(lp3353
I58520249
aI58540818
aS'-'
asS'SNHG16'
p3354
(lp3355
I76557763
aI76565348
aS'+'
asS'UNC119'
p3356
(lp3357
I28546706
aI28552628
aS'-'
asS'DVL2'
p3358
(lp3359
I7225341
aI7234548
aS'-'
asS'MED11'
p3360
(lp3361
I4731407
aI4733610
aS'+'
asS'MED13'
p3362
(lp3363
I61942604
aI62065983
aS'-'
asS'SUZ12'
p3364
(lp3365
I31937009
aI32001045
aS'+'
asS'LOC107985024'
p3366
(lp3367
I81860727
aI81865083
aS'+'
asS'INTS2'
p3368
(lp3369
I61865366
aI61928016
aS'-'
asS'PSME3'
p3370
(lp3371
I42833141
aI42843760
aS'+'
asS'LOC107985023'
p3372
(lp3373
I75523155
aI75524398
aS'-'
asS'LOC102723505'
p3374
(lp3375
I72021850
aI72025979
aS'-'
asS'MIR1180'
p3376
(lp3377
I19344505
aI19344574
aS'-'
asS'LOC101928514'
p3378
(lp3379
I76799043
aI76807102
aS'+'
asS'LOC107985021'
p3380
(lp3381
I80720258
aI80730101
aS'+'
asS'CTNS'
p3382
(lp3383
I3636467
aI3663103
aS'+'
asS'KRTAP9-1'
p3384
(lp3385
I41189886
aI41190639
aS'+'
asS'CACNG1'
p3386
(lp3387
I67044535
aI67056797
aS'+'
asS'CACNG4'
p3388
(lp3389
I66964863
aI67033402
aS'+'
asS'CACNG5'
p3390
(lp3391
I66877272
aI66885278
aS'+'
asS'ZNF652'
p3392
(lp3393
I49289205
aI49362473
aS'-'
asS'MIR6781'
p3394
(lp3395
I42823879
aI42823943
aS'-'
asS'HSF5'
p3396
(lp3397
I58420166
aI58488401
aS'-'
asS'CRLF3'
p3398
(lp3399
I30782683
aI30824760
aS'-'
asS'MIR6786'
p3400
(lp3401
I81693756
aI81693869
aS'+'
asS'MYL4'
p3402
(lp3403
I47209296
aI47227650
aS'+'
asS'KRTAP9-6'
p3404
(lp3405
I41265377
aI41265860
aS'+'
asS'TCAM1P'
p3406
(lp3407
I63857015
aI63864379
aS'+'
asS'NARR'
p3408
(lp3409
I28715992
aI28717890
aS'-'
asS'LOC107987253'
p3410
(lp3411
I46559525
aI46560032
aS'-'
asS'LOC107987252'
p3412
(lp3413
I20433144
aI20434286
aS'+'
asS'LOC107987251'
p3414
(lp3415
I83100814
aI83106910
aS'+'
asS'LOC107987250'
p3416
(lp3417
I81110475
aI81113849
aS'-'
asS'SLC35G6'
p3418
(lp3419
I7481401
aI7483064
aS'+'
asS'LOC101929777'
p3420
(lp3421
I46830594
aI46833033
aS'-'
asS'LOC107987254'
p3422
(lp3423
I46341588
aI46342095
aS'-'
asS'MPP3'
p3424
(lp3425
I43800798
aI43833179
aS'-'
asS'LOC100132174'
p3426
(lp3427
I77722871
aI77728559
aS'-'
asS'LOC101928350'
p3428
(lp3429
I11857056
aI11881269
aS'-'
asS'TMEM199'
p3430
(lp3431
I28357580
aI28363683
aS'+'
asS'GJD3'
p3432
(lp3433
I40360651
aI40364693
aS'-'
asS'PRPSAP1'
p3434
(lp3435
I76310786
aI76354149
aS'-'
asS'PRPSAP2'
p3436
(lp3437
I18856298
aI18931287
aS'+'
asS'KRTAP3-2'
p3438
(lp3439
I40999192
aI40999886
aS'-'
asS'KRTAP3-3'
p3440
(lp3441
I40993429
aI40994133
aS'-'
asS'KRTAP3-1'
p3442
(lp3443
I41008520
aI41009114
aS'-'
asS'MIR5047'
p3444
(lp3445
I64501213
aI64501313
aS'-'
asS'LOC105371430'
p3446
(lp3447
I404534
aI414023
aS'-'
asS'KPNA2'
p3448
(lp3449
I68035601
aI68046859
aS'+'
asS'LRRC46'
p3450
(lp3451
I47831626
aI47837713
aS'+'
asS'CRK'
p3452
(lp3453
I1421352
aI1456267
aS'-'
asS'B9D1'
p3454
(lp3455
I19335371
aI19378193
aS'-'
asS'EIF5A'
p3456
(lp3457
I7306998
aI7312463
aS'+'
asS'LOC105371508'
p3458
(lp3459
I6149994
aI6190547
aS'-'
asS'LOC105371509'
p3460
(lp3461
I6342518
aI6375047
aS'-'
asS'LOC105371502'
p3462
(lp3463
I5025608
aI5031614
aS'-'
asS'LOC105371501'
p3464
(lp3465
I5030805
aI5053398
aS'+'
asS'LOC105371506'
p3466
(lp3467
I5469091
aI5470360
aS'+'
asS'LOC105371507'
p3468
(lp3469
I5543096
aI5554789
aS'+'
asS'LOC105371505'
p3470
(lp3471
I5360960
aI5362749
aS'-'
asS'MKS1'
p3472
(lp3473
I58205435
aI58219605
aS'-'
asS'LOC101929552'
p3474
(lp3475
I82713907
aI82716253
aS'-'
asS'BECN1'
p3476
(lp3477
I42810131
aI42824316
aS'-'
asS'DHRS11'
p3478
(lp3479
I36591790
aI36600804
aS'+'
asS'ACSF2'
p3480
(lp3481
I50426157
aI50474845
aS'+'
asS'DHRS13'
p3482
(lp3483
I28897780
aI28903071
aS'-'
asS'LOC101929950'
p3484
(lp3485
I38078158
aI38118364
aS'+'
asS'SMTNL2'
p3486
(lp3487
I4583980
aI4608319
aS'+'
asS'ASPSCR1'
p3488
(lp3489
I81977549
aI82018929
aS'+'
asS'CCDC137'
p3490
(lp3491
I81666730
aI81673907
aS'+'
asS'RBFOX3'
p3492
(lp3493
I79089346
aI79611101
aS'-'
asS'GALK1'
p3494
(lp3495
I75757936
aI75765199
aS'-'
asS'SPACA3'
p3496
(lp3497
I32991863
aI32997877
aS'+'
asS'C17orf58'
p3498
(lp3499
I67991098
aI67993649
aS'-'
asS'LOC284023'
p3500
(lp3501
I7913321
aI7915947
aS'-'
asS'C17orf51'
p3502
(lp3503
I21524605
aI21551671
aS'-'
asS'C17orf50'
p3504
(lp3505
I35760896
aI35765079
aS'+'
asS'C17orf53'
p3506
(lp3507
I44141901
aI44162476
aS'+'
asS'GGNBP2'
p3508
(lp3509
I36544887
aI36589848
aS'+'
asS'FAAP100'
p3510
(lp3511
I81539884
aI81552403
aS'-'
asS'LOC107985013'
p3512
(lp3513
I75650635
aI75658858
aS'+'
asS'LOC107985012'
p3514
(lp3515
I32515466
aI32519526
aS'-'
asS'LOC101929828'
p3516
(lp3517
I110295
aI111566
aS'-'
asS'LOC107985010'
p3518
(lp3519
I78009655
aI78012512
aS'+'
asS'LOC107985017'
p3520
(lp3521
I6437297
aI6450455
aS'-'
asS'RHOT1'
p3522
(lp3523
I32142657
aI32253374
aS'+'
asS'LOC107985015'
p3524
(lp3525
I71870566
aI71871746
aS'-'
asS'LOC107985014'
p3526
(lp3527
I13776631
aI13781074
aS'-'
asS'LOC101929823'
p3528
(lp3529
I97710
aI133841
aS'-'
asS'LOC107985019'
p3530
(lp3531
I76260708
aI76265112
aS'-'
asS'KIAA0100'
p3532
(lp3533
I28614439
aI28645159
aS'-'
asS'BCAS3'
p3534
(lp3535
I60677810
aI61392838
aS'+'
asS'STAT3'
p3536
(lp3537
I42313323
aI42388505
aS'-'
asS'SNX11'
p3538
(lp3539
I48107532
aI48123064
aS'+'
asS'CHRNB1'
p3540
(lp3541
I7445086
aI7457613
aS'+'
asS'ICAM2'
p3542
(lp3543
I64002594
aI64020634
aS'-'
asS'LOC100128288'
p3544
(lp3545
I8358412
aI8360541
aS'-'
asS'CD68'
p3546
(lp3547
I7579486
aI7582111
aS'+'
asS'AA06'
p3548
(lp3549
I33529786
aI33533760
aS'-'
asS'EFCAB13'
p3550
(lp3551
I47323960
aI47441312
aS'+'
asS'NEUROD2'
p3552
(lp3553
I39603767
aI39607922
aS'-'
asS'MIR212'
p3554
(lp3555
I2050270
aI2050380
aS'-'
asS'SRP68'
p3556
(lp3557
I76038774
aI76072526
aS'-'
asS'SPATA22'
p3558
(lp3559
I3440010
aI3513852
aS'-'
asS'SPATA20'
p3560
(lp3561
I50547088
aI50555852
aS'+'
asS'MAP2K3'
p3562
(lp3563
I21284655
aI21315240
aS'+'
asS'ZMYND15'
p3564
(lp3565
I4740014
aI4746119
aS'+'
asS'MAP2K6'
p3566
(lp3567
I69414696
aI69542329
aS'+'
asS'MAP2K4'
p3568
(lp3569
I12020817
aI12143831
aS'+'
asS'LOC101927060'
p3570
(lp3571
I46983684
aI47100283
aS'-'
asS'MINK1'
p3572
(lp3573
I4833339
aI4898061
aS'+'
asS'KRT33B'
p3574
(lp3575
I41363493
aI41369800
aS'-'
asS'KRT33A'
p3576
(lp3577
I41346091
aI41350812
aS'-'
asS'RHBDF2'
p3578
(lp3579
I76470892
aI76501440
aS'-'
asS'PPY'
p3580
(lp3581
I43940801
aI43944211
aS'-'
asS'ATP5G1'
p3582
(lp3583
I48892785
aI48895871
aS'+'
asS'GAA'
p3584
(lp3585
I80101525
aI80119882
aS'+'
asS'TMEM220-AS1'
p3586
(lp3587
I10729776
aI10815164
aS'+'
asS'XYLT2'
p3588
(lp3589
I50346031
aI50361185
aS'+'
asS'PSMC3IP'
p3590
(lp3591
I42572309
aI42577831
aS'-'
asS'HSPB9'
p3592
(lp3593
I42122737
aI42123353
aS'+'
asS'MIR10A'
p3594
(lp3595
I48579837
aI48579947
aS'-'
asS'ALDOC'
p3596
(lp3597
I28573114
aI28576963
aS'-'
asS'MYADML2'
p3598
(lp3599
I81939644
aI81947233
aS'-'
asS'MAFG-AS1'
p3600
(lp3601
I81927828
aI81930753
aS'+'
asS'LOC102723471'
p3602
(lp3603
I36861673
aI36936661
aS'-'
asS'SNHG20'
p3604
(lp3605
I77088642
aI77094986
aS'+'
asS'SNHG25'
p3606
(lp3607
I64145969
aI64146309
aS'+'
asS'TOM1L2'
p3608
(lp3609
I17843507
aI17972470
aS'-'
asS'MAPT'
p3610
(lp3611
I45894381
aI46028334
aS'+'
asS'FLJ45513'
p3612
(lp3613
I49845909
aI49848837
aS'+'
asS'SLFN5'
p3614
(lp3615
I35243025
aI35273650
aS'+'
asS'DNAH17'
p3616
(lp3617
I78423699
aI78577430
aS'-'
asS'SGK494'
p3618
(lp3619
I28607963
aI28614193
aS'-'
asS'ASB16'
p3620
(lp3621
I44170705
aI44179083
aS'+'
asS'NME1-NME2'
p3622
(lp3623
I51153535
aI51171744
aS'+'
asS'SCO1'
p3624
(lp3625
I10679769
aI10697532
aS'-'
asS'UTS2R'
p3626
(lp3627
I82374276
aI82375586
aS'+'
asS'LOC101928567'
p3628
(lp3629
I15806241
aI15817742
aS'-'
asS'ZFP3'
p3630
(lp3631
I5078458
aI5096374
aS'+'
asS'NSFP1'
p3632
(lp3633
I46372812
aI46423097
aS'+'
asS'CSNK1D'
p3634
(lp3635
I82239316
aI82273711
aS'-'
asS'LIG3'
p3636
(lp3637
I34980504
aI35009169
aS'+'
asS'CCDC92B'
p3638
(lp3639
I2720800
aI2748500
aS'-'
asS'LOC105371816'
p3640
(lp3641
I49224728
aI49229717
aS'+'
asS'ENPP7'
p3642
(lp3643
I79730918
aI79742926
aS'+'
asS'VAT1'
p3644
(lp3645
I43014604
aI43022442
aS'-'
asS'LOC102723608'
p3646
(lp3647
I37949728
aI37962200
aS'-'
asS'OR1A2'
p3648
(lp3649
I3197516
aI3198448
aS'+'
asS'LOC101929767'
p3650
(lp3651
I43148365
aI43170403
aS'-'
asS'OR1A1'
p3652
(lp3653
I3215620
aI3216550
aS'+'
asS'LOC105371817'
p3654
(lp3655
I49895671
aI49901971
aS'+'
asS'KCTD11'
p3656
(lp3657
I7351888
aI7354944
aS'+'
asS'MIR1288'
p3658
(lp3659
I16282013
aI16282088
aS'+'
asS'MIR548H3'
p3660
(lp3661
I13543528
aI13543646
aS'-'
asS'SUPT4H1'
p3662
(lp3663
I58345174
aI58352238
aS'-'
asS'ZZEF1'
p3664
(lp3665
I4004444
aI4143020
aS'-'
asS'PTGES3L-AARSD1'
p3666
(lp3667
I42950525
aI42980528
aS'-'
asS'ARRB2'
p3668
(lp3669
I4710493
aI4721500
aS'+'
asS'SNORD1A'
p3670
(lp3671
I76561632
aI76561706
aS'+'
asS'AIPL1'
p3672
(lp3673
I6423736
aI6435199
aS'-'
asS'SLC25A35'
p3674
(lp3675
I8287762
aI8295343
aS'-'
asS'LOC105371811'
p3676
(lp3677
I48732983
aI48743465
aS'+'
asS'CCDC144CP'
p3678
(lp3679
I20321173
aI20402191
aS'+'
asS'LOC105371425'
p3680
(lp3681
I338938
aI342069
aS'+'
asS'LOC101929494'
p3682
(lp3683
I38450678
aI38452413
aS'-'
asS'ICT1'
p3684
(lp3685
I75012663
aI75021261
aS'+'
asS'CHMP6'
p3686
(lp3687
I80991840
aI81000133
aS'+'
asS'PIK3R6'
p3688
(lp3689
I8802736
aI8870003
aS'-'
asS'PIK3R5'
p3690
(lp3691
I8878915
aI8965712
aS'-'
asS'ZNF287'
p3692
(lp3693
I16546688
aI16569211
aS'-'
asS'LOC101927274'
p3694
(lp3695
I51312608
aI51335162
aS'-'
asS'HEXIM1'
p3696
(lp3697
I45147316
aI45152101
aS'+'
asS'HEXIM2'
p3698
(lp3699
I45160173
aI45170040
aS'+'
asS'EVPL'
p3700
(lp3701
I76006844
aI76027452
aS'-'
asS'LOC105371517'
p3702
(lp3703
I7951345
aI7961872
aS'+'
asS'LOC105371516'
p3704
(lp3705
I7832890
aI7834128
aS'-'
asS'ETV4'
p3706
(lp3707
I43527842
aI43546432
aS'-'
asS'LOC105371512'
p3708
(lp3709
I7131216
aI7140890
aS'+'
asS'G6PC'
p3710
(lp3711
I42900796
aI42914433
aS'+'
asS'RTN4RL1'
p3712
(lp3713
I1934676
aI2025345
aS'-'
asS'CDRT15'
p3714
(lp3715
I14235855
aI14236833
aS'-'
asS'LOC146795'
p3716
(lp3717
I72342810
aI72355136
aS'+'
asS'TBC1D3C'
p3718
(lp3719
I38057692
aI38068634
aS'-'
asS'NPLOC4'
p3720
(lp3721
I81556884
aI81637153
aS'-'
asS'IKZF3'
p3722
(lp3723
I39757714
aI39864188
aS'-'
asS'TBC1D3E'
p3724
(lp3725
I38119292
aI38138868
aS'+'
asS'CCDC103'
p3726
(lp3727
I44899711
aI44903679
aS'+'
asS'CCL4'
p3728
(lp3729
I36103826
aI36105621
aS'+'
asS'SMIM5'
p3730
(lp3731
I75633433
aI75641406
aS'+'
asS'GRAP'
p3732
(lp3733
I19020655
aI19051352
aS'-'
asS'CCL5'
p3734
(lp3735
I35871490
aI35880373
aS'-'
asS'LOC644172'
p3736
(lp3737
I45600100
aI45601862
aS'-'
asS'FASN'
p3738
(lp3739
I82078337
aI82098303
aS'-'
asS'TBC1D3J'
p3740
(lp3741
I36450648
aI36458000
aS'-'
asS'MRM3'
p3742
(lp3743
I782328
aI792509
aS'+'
asS'MRM1'
p3744
(lp3745
I36601580
aI36634698
aS'+'
asS'LOC107985028'
p3746
(lp3747
I45731655
aI45734982
aS'-'
asS'LOC107985029'
p3748
(lp3749
I47279620
aI47280400
aS'-'
asS'LOC107985027'
p3750
(lp3751
I46150927
aI46162470
aS'-'
asS'SLC13A2'
p3752
(lp3753
I28473371
aI28497781
aS'+'
asS'LOC107985022'
p3754
(lp3755
I80960213
aI80961386
aS'-'
asS'SLC13A5'
p3756
(lp3757
I6684712
aI6713421
aS'-'
asS'LOC107985020'
p3758
(lp3759
I62626367
aI62627932
aS'-'
asS'LOC107984990'
p3760
(lp3761
I29639485
aI29640972
aS'+'
asS'SERPINF1'
p3762
(lp3763
I1761964
aI1777565
aS'+'
asS'LOC107984993'
p3764
(lp3765
I57559011
aI57574828
aS'+'
asS'SERPINF2'
p3766
(lp3767
I1742807
aI1755265
aS'+'
asS'LOC105371744'
p3768
(lp3769
I35869028
aI35884725
aS'+'
asS'LOC105371745'
p3770
(lp3771
I35884736
aI35885860
aS'+'
asS'LOC105371746'
p3772
(lp3773
I36037598
aI36059131
aS'-'
asS'LOC105371747'
p3774
(lp3775
I36225282
aI36237900
aS'-'
asS'LOC105371740'
p3776
(lp3777
I34725508
aI34727066
aS'-'
asS'LOC105371741'
p3778
(lp3779
I34851196
aI34854073
aS'+'
asS'LOC105371742'
p3780
(lp3781
I34760587
aI34923397
aS'-'
asS'LOC105371743'
p3782
(lp3783
I35568113
aI35574313
aS'+'
asS'LOC105371748'
p3784
(lp3785
I36483241
aI36486392
aS'+'
asS'LOC105371749'
p3786
(lp3787
I36475946
aI36486655
aS'-'
asS'LOC101927898'
p3788
(lp3789
I63682335
aI63691001
aS'-'
asS'SREBF1'
p3790
(lp3791
I17811348
aI17837011
aS'-'
asS'CASC17'
p3792
(lp3793
I71097773
aI71202179
aS'-'
asS'LOC101927727'
p3794
(lp3795
I909631
aI911212
aS'+'
asS'TIMM22'
p3796
(lp3797
I997116
aI1002167
aS'+'
asS'UTP6'
p3798
(lp3799
I31862378
aI31901681
aS'-'
asS'LOC107983956'
p3800
(lp3801
I69995960
aI70075123
aS'-'
asS'STRA13'
p3802
(lp3803
I82018702
aI82022930
aS'-'
asS'RAB37'
p3804
(lp3805
I74671116
aI74747335
aS'+'
asS'RAB34'
p3806
(lp3807
I28714280
aI28718268
aS'-'
asS'LOC105371716'
p3808
(lp3809
I28952659
aI29016512
aS'+'
asS'LOC101927093'
p3810
(lp3811
I30573470
aI30576481
aS'-'
asS'FOXO3B'
p3812
(lp3813
I18665922
aI18673181
aS'-'
asS'DNAH17-AS1'
p3814
(lp3815
I78484909
aI78503056
aS'+'
asS'ACAP1'
p3816
(lp3817
I7336505
aI7354944
aS'+'
asS'LOC105371864'
p3818
(lp3819
I65077920
aI65100731
aS'-'
asS'SNF8'
p3820
(lp3821
I48930095
aI48944842
aS'-'
asS'ARMC7'
p3822
(lp3823
I75109951
aI75130265
aS'+'
asS'BZRAP1-AS1'
p3824
(lp3825
I58325449
aI58353727
aS'+'
asS'LOC101927389'
p3826
(lp3827
I55612963
aI55650247
aS'+'
asS'GNGT2'
p3828
(lp3829
I49206233
aI49210574
aS'-'
asS'PTRF'
p3830
(lp3831
I42402448
aI42423320
aS'-'
asS'BCL6B'
p3832
(lp3833
I7023049
aI7029642
aS'+'
as.