(dp1
S'FAM83C-AS1'
p2
(lp3
I35285250
aI35285772
aS'+'
asS'PCSK2'
p4
(lp5
I17226106
aI17484578
aS'+'
asS'REM1'
p6
(lp7
I31475272
aI31484895
aS'+'
asS'LOC101927512'
p8
(lp9
I50162411
aI50166248
aS'-'
asS'JPH2'
p10
(lp11
I44111696
aI44187578
aS'-'
asS'AP5S1'
p12
(lp13
I3820523
aI3825307
aS'+'
asS'BPIFB1'
p14
(lp15
I33283134
aI33309878
aS'+'
asS'LOC105372548'
p16
(lp17
I17872669
aI17887150
aS'+'
asS'DEFB118'
p18
(lp19
I31368617
aI31373923
aS'+'
asS'BPIFB4'
p20
(lp21
I33081511
aI33111751
aS'+'
asS'LOC105372543'
p22
(lp23
I16965437
aI16968001
aS'-'
asS'LOC105372542'
p24
(lp25
I16610525
aI16639971
aS'+'
asS'LOC105372541'
p26
(lp27
I16589896
aI16605504
aS'-'
asS'LOC101927200'
p28
(lp29
I43727387
aI43820895
aS'+'
asS'LOC105372546'
p30
(lp31
I17227508
aI17327633
aS'-'
asS'LOC105372545'
p32
(lp33
I17216782
aI17218256
aS'-'
asS'LOC105372544'
p34
(lp35
I17122177
aI17196938
aS'+'
asS'LOC388780'
p36
(lp37
I2206436
aI2236654
aS'+'
asS'RBBP9'
p38
(lp39
I18486539
aI18497250
aS'-'
asS'SAMD10'
p40
(lp41
I63974114
aI63980788
aS'-'
asS'CASS4'
p42
(lp43
I56411549
aI56460240
aS'+'
asS'PRNT'
p44
(lp45
I4731281
aI4740668
aS'-'
asS'PRNP'
p46
(lp47
I4686150
aI4701588
aS'+'
asS'COMMD7'
p48
(lp49
I32702690
aI32744008
aS'-'
asS'LINC01260'
p50
(lp51
I44656450
aI44671739
aS'-'
asS'LOC101929371'
p52
(lp53
I9986332
aI10007116
aS'+'
asS'SEMG1'
p54
(lp55
I45206963
aI45209773
aS'+'
asS'RNF114'
p56
(lp57
I49936376
aI49953885
aS'+'
asS'SEMG2'
p58
(lp59
I45221368
aI45224458
aS'+'
asS'SPTLC3'
p60
(lp61
I13008978
aI13166764
aS'+'
asS'ZSWIM3'
p62
(lp63
I45857580
aI45879131
aS'+'
asS'PRND'
p64
(lp65
I4721853
aI4728462
aS'+'
asS'LOC101929575'
p66
(lp67
I20254829
aI20267834
aS'-'
asS'LOC102606466'
p68
(lp69
I12934876
aI12936963
aS'-'
asS'WI2-87327B8.2'
p70
(lp71
I62601376
aI62603809
aS'-'
asS'SIRPG'
p72
(lp73
I1629151
aI1686516
aS'-'
asS'SIRPD'
p74
(lp75
I1534250
aI1557697
aS'-'
asS'SIRPA'
p76
(lp77
I1894116
aI1939895
aS'+'
asS'LOC100505664'
p78
(lp79
I23159639
aI23190307
aS'+'
asS'LOC100131496'
p80
(lp81
I47318501
aI47320754
aS'+'
asS'ISM1'
p82
(lp83
I13221770
aI13326734
aS'+'
asS'ERGIC3'
p84
(lp85
I35542028
aI35557634
aS'+'
asS'MACROD2-AS1'
p86
(lp87
I14884252
aI14929518
aS'-'
asS'STK4'
p88
(lp89
I44966473
aI45079977
aS'+'
asS'MACROD2'
p90
(lp91
I13995475
aI16053197
aS'+'
asS'MIR103B2'
p92
(lp93
I3917501
aI3917563
aS'-'
asS'OSBPL2'
p94
(lp95
I62238484
aI62296213
aS'+'
asS'GATA5'
p96
(lp97
I62463496
aI62475970
aS'-'
asS'OCSTAMP'
p98
(lp99
I46541030
aI46550574
aS'-'
asS'TMEM189'
p100
(lp101
I50123736
aI50153798
aS'-'
asS'SLC17A9'
p102
(lp103
I62952646
aI62968597
aS'+'
asS'SNAP25'
p104
(lp105
I10218797
aI10307420
aS'+'
asS'ADRA1D'
p106
(lp107
I4220630
aI4249012
aS'-'
asS'TTI1'
p108
(lp109
I37983006
aI38033468
aS'-'
asS'HM13-AS1'
p110
(lp111
I31567586
aI31573263
aS'-'
asS'ARFRP1'
p112
(lp113
I63698641
aI63708013
aS'-'
asS'KIZ-AS1'
p114
(lp115
I21194403
aI21218289
aS'-'
asS'TCF15'
p116
(lp117
I603992
aI610266
aS'-'
asS'LOC63930'
p118
(lp119
I63009382
aI63085071
aS'+'
asS'LOC105379476'
p120
(lp121
I29401761
aI29406731
aS'-'
asS'LOC101929312'
p122
(lp123
I7347432
aI7368501
aS'+'
asS'ABALON'
p124
(lp125
I31721506
aI31723409
aS'+'
asS'LOC101929608'
p126
(lp127
I21610786
aI21703585
aS'-'
asS'BPIFB6'
p128
(lp129
I33031647
aI33044108
aS'+'
asS'MAVS'
p130
(lp131
I3846798
aI3876123
aS'+'
asS'LSM14B'
p132
(lp133
I62122455
aI62135378
aS'+'
asS'NRSN2'
p134
(lp135
I348418
aI359705
aS'+'
asS'EPPIN'
p136
(lp137
I45540625
aI45547426
aS'-'
asS'LOC107987279'
p138
(lp139
I29295765
aI29299691
aS'-'
asS'MIR6813'
p140
(lp141
I64076954
aI64077010
aS'-'
asS'LOC100128988'
p142
(lp143
I40980760
aI41025375
aS'+'
asS'LOC102724950'
p144
(lp145
I39655322
aI39661027
aS'-'
asS'MOCS3'
p146
(lp147
I50958813
aI50961863
aS'+'
asS'LOC100291105'
p148
(lp149
I57383382
aI57393080
aS'-'
asS'MIR1257'
p150
(lp151
I61953545
aI61953662
aS'-'
asS'LOC107987276'
p152
(lp153
I19756383
aI19771606
aS'-'
asS'SOX18'
p154
(lp155
I64047725
aI64049626
aS'-'
asS'LOC105372685'
p156
(lp157
I57117188
aI57135946
aS'-'
asS'LOC105372686'
p158
(lp159
I57158788
aI57162508
aS'-'
asS'PANK2'
p160
(lp161
I3888838
aI3929882
aS'+'
asS'LOC105372680'
p162
(lp163
I56142414
aI56169781
aS'-'
asS'LOC105372681'
p164
(lp165
I56497537
aI56499022
aS'+'
asS'LOC105372682'
p166
(lp167
I56577562
aI56596126
aS'+'
asS'LOC105372683'
p168
(lp169
I56975124
aI56986202
aS'+'
asS'DLGAP4-AS1'
p170
(lp171
I36507701
aI36573275
aS'-'
asS'LOC105372547'
p172
(lp173
I17697615
aI17699583
aS'-'
asS'SOX12'
p174
(lp175
I325570
aI330228
aS'+'
asS'PFDN4'
p176
(lp177
I54207962
aI54219953
aS'+'
asS'LOC105372688'
p178
(lp179
I57460259
aI57463596
aS'+'
asS'MIR548O2'
p180
(lp181
I38516562
aI38516632
aS'+'
asS'TBC1D20'
p182
(lp183
I435476
aI462553
aS'-'
asS'VSX1'
p184
(lp185
I25069939
aI25082096
aS'-'
asS'HRH3'
p186
(lp187
I62213844
aI62219970
aS'-'
asS'LINC00687'
p188
(lp189
I11809986
aI11870715
aS'-'
asS'MIR941-4'
p190
(lp191
I63919755
aI63919827
aS'+'
asS'LOC105372630'
p192
(lp193
I45230820
aI45290352
aS'+'
asS'GGTLC1'
p194
(lp195
I23985052
aI23989134
aS'-'
asS'LOC105372625'
p196
(lp197
I43820699
aI43824925
aS'-'
asS'HMGB3P1'
p198
(lp199
I34833574
aI34834462
aS'-'
asS'MLLT10P1'
p200
(lp201
I30402907
aI30403462
aS'-'
asS'KCNK15'
p202
(lp203
I44745846
aI44752313
aS'+'
asS'KCNQ2'
p204
(lp205
I63400213
aI63472677
aS'-'
asS'SNPH'
p206
(lp207
I1266290
aI1309327
aS'+'
asS'STK4-AS1'
p208
(lp209
I44963793
aI44966458
aS'-'
asS'HCK'
p210
(lp211
I32052187
aI32101856
aS'+'
asS'THBD'
p212
(lp213
I23045632
aI23049664
aS'-'
asS'LINC01428'
p214
(lp215
I7146466
aI7254202
aS'-'
asS'LINC01429'
p216
(lp217
I51831796
aI51862913
aS'-'
asS'TGIF2-C20orf24'
p218
(lp219
I36574553
aI36612557
aS'+'
asS'LOC101929625'
p220
(lp221
I21570023
aI21615722
aS'+'
asS'SNRPB2'
p222
(lp223
I16729963
aI16741772
aS'+'
asS'WFDC8'
p224
(lp225
I45551151
aI45579326
aS'-'
asS'DNAJC5'
p226
(lp227
I63895101
aI63936031
aS'+'
asS'TMEM74B'
p228
(lp229
I1180568
aI1188138
aS'-'
asS'DZANK1'
p230
(lp231
I18383366
aI18467185
aS'-'
asS'MIR6869'
p232
(lp233
I1392899
aI1392961
aS'-'
asS'PDRG1'
p234
(lp235
I31944954
aI31952080
aS'-'
asS'SIRPB2'
p236
(lp237
I1474590
aI1491587
aS'-'
asS'EFCAB8'
p238
(lp239
I32860994
aI32961845
aS'+'
asS'SIRPB1'
p240
(lp241
I1564192
aI1620457
aS'-'
asS'LOC105372617'
p242
(lp243
I40298739
aI40312797
aS'-'
asS'LOC105372616'
p244
(lp245
I40116420
aI40121077
aS'+'
asS'RTFDC1'
p246
(lp247
I56468584
aI56518886
aS'+'
asS'LOC105372614'
p248
(lp249
I39757255
aI39814298
aS'+'
asS'LOC105372613'
p250
(lp251
I39782859
aI39788988
aS'-'
asS'MIR4755'
p252
(lp253
I34049118
aI34049190
aS'+'
asS'GHRH'
p254
(lp255
I37251085
aI37261817
aS'-'
asS'SYS1'
p256
(lp257
I45363099
aI45376802
aS'+'
asS'VAPB'
p258
(lp259
I58389118
aI58451101
aS'+'
asS'LOC105376996'
p260
(lp261
I63125279
aI63130276
aS'-'
asS'SLC2A10'
p262
(lp263
I46708358
aI46736326
aS'+'
asS'ZNF831'
p264
(lp265
I59146074
aI59259113
aS'+'
asS'FRG1BP'
p266
(lp267
I30377202
aI30399331
aS'+'
asS'LINC00851'
p268
(lp269
I18379048
aI18381484
aS'+'
asS'LOC105372661'
p270
(lp271
I51129365
aI51143044
aS'+'
asS'SNORA60'
p272
(lp273
I38449368
aI38449504
aS'+'
asS'OSER1-AS1'
p274
(lp275
I44210959
aI44226027
aS'+'
asS'NCOA3'
p276
(lp277
I47501856
aI47656877
aS'+'
asS'NCOA6'
p278
(lp279
I34714773
aI34825649
aS'-'
asS'GNAS-AS1'
p280
(lp281
I58818917
aI58850903
aS'-'
asS'NCOA5'
p282
(lp283
I46060984
aI46089962
aS'-'
asS'RAD21L1'
p284
(lp285
I1226042
aI1255876
aS'+'
asS'WFDC5'
p286
(lp287
I45109458
aI45116321
aS'-'
asS'LOC100270804'
p288
(lp289
I18794048
aI18796065
aS'+'
asS'LOC105372707'
p290
(lp291
I62305431
aI62308079
aS'-'
asS'SDC4'
p292
(lp293
I45325287
aI45348424
aS'-'
asS'WFDC10B'
p294
(lp295
I45684652
aI45708899
aS'-'
asS'TM9SF4'
p296
(lp297
I32109505
aI32167258
aS'+'
asS'WFDC10A'
p298
(lp299
I45629745
aI45631192
aS'+'
asS'LOC102723814'
p300
(lp301
I63517261
aI63520200
aS'-'
asS'NCOR1P1'
p302
(lp303
I26103415
aI26114041
aS'-'
asS'RIMS4'
p304
(lp305
I44751803
aI44810338
aS'-'
asS'SLCO4A1'
p306
(lp307
I62642447
aI62690700
aS'+'
asS'LOC105369219'
p308
(lp309
I1692887
aI1727569
aS'-'
asS'NAPB'
p310
(lp311
I23374518
aI23421519
aS'-'
asS'DBNDD2'
p312
(lp313
I45405992
aI45410610
aS'+'
asS'LOC101928048'
p314
(lp315
I60469608
aI60472976
aS'-'
asS'LOC105376992'
p316
(lp317
I58003846
aI58004580
aS'+'
asS'LOC105372696'
p318
(lp319
I59470082
aI59471988
aS'+'
asS'ADRM1'
p320
(lp321
I62302055
aI62308862
aS'+'
asS'MYLK2'
p322
(lp323
I31819374
aI31834697
aS'+'
asS'LOC100130264'
p324
(lp325
I19242301
aI19284596
aS'-'
asS'LOC107985383'
p326
(lp327
I23661137
aI23667045
aS'+'
asS'COX4I2'
p328
(lp329
I31637855
aI31645009
aS'+'
asS'LOC107985381'
p330
(lp331
I34363270
aI34368043
aS'-'
asS'LOC107985387'
p332
(lp333
I640003
aI641581
aS'-'
asS'LOC107985386'
p334
(lp335
I50238453
aI50247492
aS'-'
asS'LOC107985385'
p336
(lp337
I54228904
aI54232879
aS'+'
asS'LOC107985384'
p338
(lp339
I11686317
aI11687366
aS'-'
asS'RNF24'
p340
(lp341
I3927308
aI4015591
aS'-'
asS'LOC107985389'
p342
(lp343
I59273913
aI59280194
aS'+'
asS'LOC107985388'
p344
(lp345
I45933510
aI45935946
aS'-'
asS'MIR644A'
p346
(lp347
I34466324
aI34466418
aS'+'
asS'LOC105372532'
p348
(lp349
I12651033
aI12673203
aS'-'
asS'LOC100134868'
p350
(lp351
I26009798
aI26023272
aS'+'
asS'LOC105372530'
p352
(lp353
I11712505
aI11728909
aS'-'
asS'LOC105372531'
p354
(lp355
I11953018
aI11958943
aS'-'
asS'C20orf203'
p356
(lp357
I32631624
aI32651981
aS'-'
asS'C20orf202'
p358
(lp359
I1203453
aI1208274
aS'+'
asS'LOC105372535'
p360
(lp361
I12935810
aI12940821
aS'+'
asS'BPIFA2'
p362
(lp363
I33161847
aI33181417
aS'+'
asS'BPIFA3'
p364
(lp365
I33217309
aI33227806
aS'+'
asS'LOC105372624'
p366
(lp367
I42627505
aI42648800
aS'+'
asS'LOC105372539'
p368
(lp369
I13237164
aI13244415
aS'+'
asS'LOC105372708'
p370
(lp371
I62373816
aI62378984
aS'-'
asS'FITM2'
p372
(lp373
I44306556
aI44311249
aS'-'
asS'BANF2'
p374
(lp375
I17693674
aI17735872
aS'+'
asS'LINC00266-1'
p376
(lp377
I64290384
aI64303354
aS'+'
asS'LKAAEAR1'
p378
(lp379
I64083374
aI64084956
aS'-'
asS'SSTR4'
p380
(lp381
I23035419
aI23036677
aS'+'
asS'CDK5RAP1'
p382
(lp383
I33358838
aI33402768
aS'-'
asS'LOC149684'
p384
(lp385
I38260174
aI38288947
aS'+'
asS'TRPC4AP'
p386
(lp387
I35002403
aI35092837
aS'-'
asS'ITCH'
p388
(lp389
I34363234
aI34511773
aS'+'
asS'HNF4A'
p390
(lp391
I44355800
aI44432845
aS'+'
asS'CHMP4B'
p392
(lp393
I33811303
aI33854367
aS'+'
asS'LOC107985423'
p394
(lp395
I653261
aI658840
aS'+'
asS'PLCG1'
p396
(lp397
I41137518
aI41175721
aS'+'
asS'LINC00489'
p398
(lp399
I37619297
aI37623119
aS'-'
asS'LOC101926935'
p400
(lp401
I25844666
aI25854021
aS'-'
asS'LOC107985424'
p402
(lp403
I45245376
aI45246770
aS'-'
asS'LOC107985425'
p404
(lp405
I63244470
aI63247569
aS'+'
asS'LOC107985428'
p406
(lp407
I62773516
aI62776957
aS'+'
asS'DDX27'
p408
(lp409
I49219294
aI49244077
aS'+'
asS'MIR499A'
p410
(lp411
I34990375
aI34990497
aS'+'
asS'LOC643406'
p412
(lp413
I5471195
aI5477134
aS'+'
asS'EIF2S2'
p414
(lp415
I34088297
aI34112356
aS'-'
asS'SCP2D1'
p416
(lp417
I18813725
aI18814392
aS'+'
asS'MIR4533'
p418
(lp419
I60478110
aI60478181
aS'+'
asS'LPIN3'
p420
(lp421
I41340778
aI41360582
aS'+'
asS'NPBWR2'
p422
(lp423
I64105829
aI64106831
aS'-'
asS'LINC00176'
p424
(lp425
I64034343
aI64039962
aS'+'
asS'SULF2'
p426
(lp427
I47654583
aI47785487
aS'-'
asS'GZF1'
p428
(lp429
I23361584
aI23373043
aS'+'
asS'LBP'
p430
(lp431
I38346410
aI38377011
aS'+'
asS'MTRNR2L3'
p432
(lp433
I57358439
aI57359822
aS'-'
asS'JAG1'
p434
(lp435
I10637683
aI10674046
aS'-'
asS'CASC20'
p436
(lp437
I6426731
aI6528459
aS'+'
asS'ASIP'
p438
(lp439
I34186492
aI34269344
aS'+'
asS'TLDC2'
p440
(lp441
I36876120
aI36894235
aS'+'
asS'TTLL9'
p442
(lp443
I31870701
aI31944959
aS'+'
asS'SLC24A3'
p444
(lp445
I19212645
aI19722897
aS'+'
asS'BFSP1'
p446
(lp447
I17493904
aI17569220
aS'-'
asS'ANKEF1'
p448
(lp449
I10034998
aI10056762
aS'+'
asS'TP53TG5'
p450
(lp451
I45373879
aI45378550
aS'-'
asS'LOC105372710'
p452
(lp453
I62427843
aI62450660
aS'+'
asS'ZSWIM1'
p454
(lp455
I45881208
aI45885266
aS'+'
asS'MMP24'
p456
(lp457
I35226735
aI35277001
aS'+'
asS'MIR646'
p458
(lp459
I60308473
aI60308567
aS'+'
asS'MIR647'
p460
(lp461
I63942630
aI63942726
aS'-'
asS'MIR4532'
p462
(lp463
I57895393
aI57895444
aS'+'
asS'E2F1'
p464
(lp465
I33675485
aI33686404
aS'-'
asS'RNU105B'
p466
(lp467
I8831184
aI8831393
aS'+'
asS'ZNFX1'
p468
(lp469
I49245896
aI49278244
aS'-'
asS'FLRT3'
p470
(lp471
I14322984
aI14337847
aS'-'
asS'LOC102724545'
p472
(lp473
I1890071
aI1894374
aS'-'
asS'LOC105372653'
p474
(lp475
I49915821
aI49928821
aS'+'
asS'LOC105372652'
p476
(lp477
I49764893
aI49775439
aS'-'
asS'LOC105372651'
p478
(lp479
I49594317
aI49603662
aS'+'
asS'LOC105372719'
p480
(lp481
I63116221
aI63122922
aS'+'
asS'LOC105372657'
p482
(lp483
I50350300
aI50369266
aS'+'
asS'LOC105372656'
p484
(lp485
I50252672
aI50264246
aS'+'
asS'LOC105372655'
p486
(lp487
I50053014
aI50057564
aS'-'
asS'LOC105372654'
p488
(lp489
I50029090
aI50030477
aS'-'
asS'LOC105372659'
p490
(lp491
I50666778
aI50674634
aS'+'
asS'LOC105372593'
p492
(lp493
I33242547
aI33257496
aS'-'
asS'LOC105372716'
p494
(lp495
I62783185
aI62794281
aS'-'
asS'LOC105372717'
p496
(lp497
I62861425
aI62877875
aS'+'
asS'LOC105372714'
p498
(lp499
I33140336
aI33160623
aS'+'
asS'RPN2'
p500
(lp501
I37179045
aI37241623
aS'+'
asS'TGM3'
p502
(lp503
I2295966
aI2341079
aS'+'
asS'MIR4756'
p504
(lp505
I54068407
aI54068485
aS'-'
asS'LOC107984104'
p506
(lp507
I1787868
aI1844038
aS'-'
asS'MIR4758'
p508
(lp509
I62332486
aI62332557
aS'-'
asS'BMP7'
p510
(lp511
I57168752
aI57266651
aS'-'
asS'SS18L1'
p512
(lp513
I62143719
aI62182510
aS'+'
asS'LOC105372676'
p514
(lp515
I55577459
aI55637463
aS'-'
asS'TNNC2'
p516
(lp517
I45823213
aI45833329
aS'-'
asS'FKBP1A-SDCBP2'
p518
(lp519
I1309908
aI1393172
aS'-'
asS'MKRN7P'
p520
(lp521
I46463659
aI46465292
aS'-'
asS'R3HDML'
p522
(lp523
I44337157
aI44350792
aS'+'
asS'PRPF6'
p524
(lp525
I63981068
aI64033100
aS'+'
asS'C20orf96'
p526
(lp527
I270862
aI290778
aS'-'
asS'FAM182B'
p528
(lp529
I25763465
aI25796242
aS'-'
asS'CFAP61'
p530
(lp531
I20052513
aI20360714
aS'+'
asS'FAM182A'
p532
(lp533
I26054613
aI26086917
aS'+'
asS'LOC102725201'
p534
(lp535
I35476373
aI35490982
aS'-'
asS'SLC12A5'
p536
(lp537
I46021689
aI46060150
aS'+'
asS'LOC100506384'
p538
(lp539
I59626463
aI59628289
aS'-'
asS'PROKR2'
p540
(lp541
I5298851
aI5317542
aS'-'
asS'GTSF1L'
p542
(lp543
I43726160
aI43727135
aS'-'
asS'MKKS'
p544
(lp545
I10404779
aI10434239
aS'-'
asS'ZFP64'
p546
(lp547
I52084010
aI52191985
aS'-'
asS'MIR1302-5'
p548
(lp549
I50614635
aI50614785
aS'-'
asS'CDH4'
p550
(lp551
I61252425
aI61940617
aS'+'
asS'UBE2V1'
p552
(lp553
I50081123
aI50115959
aS'-'
asS'MYT1'
p554
(lp555
I64164473
aI64242253
aS'+'
asS'IFT52'
p556
(lp557
I43590612
aI43647296
aS'+'
asS'PLCB1-IT1'
p558
(lp559
I8248208
aI8252457
aS'+'
asS'UCKL1-AS1'
p560
(lp561
I63953383
aI63956985
aS'+'
asS'ARFGAP1'
p562
(lp563
I63272784
aI63289790
aS'+'
asS'CENPB'
p564
(lp565
I3783850
aI3786690
aS'-'
asS'LOC105372576'
p566
(lp567
I24091534
aI24112234
aS'-'
asS'LOC105372577'
p568
(lp569
I24309216
aI24351429
aS'-'
asS'LOC105372574'
p570
(lp571
I23722546
aI23729631
aS'+'
asS'LOC105372575'
p572
(lp573
I23810636
aI23821235
aS'+'
asS'LOC105372572'
p574
(lp575
I23309455
aI23351410
aS'-'
asS'LOC105372573'
p576
(lp577
I23667179
aI23674842
aS'+'
asS'APCDD1L'
p578
(lp579
I58459100
aI58514938
aS'-'
asS'LOC105372571'
p580
(lp581
I23320991
aI23333628
aS'-'
asS'BPIFB3'
p582
(lp583
I33055330
aI33073637
aS'+'
asS'SNAI1'
p584
(lp585
I49982975
aI49988886
aS'+'
asS'LOC105372578'
p586
(lp587
I24919978
aI24932985
aS'+'
asS'LOC105372579'
p588
(lp589
I25229227
aI25237428
aS'-'
asS'LINC01523'
p590
(lp591
I47983225
aI47984313
aS'+'
asS'DYNLRB1'
p592
(lp593
I34516383
aI34540958
aS'+'
asS'LINC01524'
p594
(lp595
I52620837
aI52650426
aS'+'
asS'SLX4IP'
p596
(lp597
I10434452
aI10628138
aS'+'
asS'LOC79160'
p598
(lp599
I58634771
aI58635738
aS'+'
asS'UCKL1'
p600
(lp601
I63939828
aI63959435
aS'-'
asS'SYS1-DBNDD2'
p602
(lp603
I45363168
aI45410610
aS'+'
asS'TSPY26P'
p604
(lp605
I32189145
aI32190360
aS'-'
asS'PLAGL2'
p606
(lp607
I32192503
aI32207743
aS'-'
asS'PAK7'
p608
(lp609
I9537389
aI9839042
aS'-'
asS'LOC284798'
p610
(lp611
I25140797
aI25148790
aS'-'
asS'ELMO2'
p612
(lp613
I46366044
aI46407051
aS'-'
asS'TASP1'
p614
(lp615
I13104759
aI13638932
aS'-'
asS'PPP1R3D'
p616
(lp617
I59936831
aI59940297
aS'-'
asS'NFATC2'
p618
(lp619
I51386956
aI51562831
aS'-'
asS'PCED1A'
p620
(lp621
I2835313
aI2841243
aS'-'
asS'ADNP'
p622
(lp623
I50889047
aI50934984
aS'-'
asS'SNX5'
p624
(lp625
I17941595
aI17968991
aS'-'
asS'LOC105372520'
p626
(lp627
I8018869
aI8028623
aS'+'
asS'KCNG1'
p628
(lp629
I51003655
aI51023176
aS'-'
asS'FAM217B'
p630
(lp631
I59933768
aI59948680
aS'+'
asS'SERINC3'
p632
(lp633
I44496220
aI44522116
aS'-'
asS'YTHDF1'
p634
(lp635
I63195428
aI63216186
aS'-'
asS'MIR1825'
p636
(lp637
I32237794
aI32237847
aS'+'
asS'TRIB3'
p638
(lp639
I380628
aI397559
aS'+'
asS'LOC101928465'
p640
(lp641
I62648960
aI62653390
aS'-'
asS'FRG1CP'
p642
(lp643
I28580632
aI28602665
aS'-'
asS'MIR3617'
p644
(lp645
I45705101
aI45705180
aS'-'
asS'DHX35'
p646
(lp647
I38962337
aI39039723
aS'+'
asS'DEFB116'
p648
(lp649
I31303211
aI31308585
aS'-'
asS'DEFB115'
p650
(lp651
I31257663
aI31259632
aS'+'
asS'ZGPAT'
p652
(lp653
I63707441
aI63736142
aS'+'
asS'HAR1B'
p654
(lp655
I63095492
aI63102319
aS'-'
asS'HAR1A'
p656
(lp657
I63101291
aI63104385
aS'+'
asS'LOC105372709'
p658
(lp659
I62402230
aI62406314
aS'-'
asS'FRG1DP'
p660
(lp661
I29080389
aI29096832
aS'+'
asS'DEFB119'
p662
(lp663
I31377162
aI31390649
aS'-'
asS'LOC105372705'
p664
(lp665
I62066434
aI62068437
aS'+'
asS'SRMS'
p666
(lp667
I63539923
aI63547504
aS'-'
asS'KAT14'
p668
(lp669
I18142223
aI18188387
aS'+'
asS'LOC149950'
p670
(lp671
I32587478
aI32608893
aS'+'
asS'RRBP1'
p672
(lp673
I17613677
aI17682283
aS'-'
asS'LINC01441'
p674
(lp675
I55420335
aI55427197
aS'-'
asS'ANGPT4'
p676
(lp677
I869898
aI916334
aS'-'
asS'LOC105379477'
p678
(lp679
I29448516
aI29458181
aS'+'
asS'LOC100129869'
p680
(lp681
I57958595
aI57959617
aS'-'
asS'LOC339568'
p682
(lp683
I39213780
aI39224748
aS'-'
asS'OXT'
p684
(lp685
I3068870
aI3072517
aS'+'
asS'LOC101927138'
p686
(lp687
I42967989
aI42971492
aS'+'
asS'MIR298'
p688
(lp689
I58818225
aI58818313
aS'-'
asS'PMEPA1'
p690
(lp691
I57648391
aI57711536
aS'-'
asS'CD40'
p692
(lp693
I46118253
aI46129745
aS'+'
asS'LOC107987284'
p694
(lp695
I58127718
aI58132753
aS'+'
asS'LOC107987285'
p696
(lp697
I62714045
aI62718207
aS'-'
asS'NAA20'
p698
(lp699
I20017289
aI20033629
aS'+'
asS'LOC107987280'
p700
(lp701
I30549373
aI30580097
aS'-'
asS'LOC107987281'
p702
(lp703
I38162781
aI38165178
aS'-'
asS'LOC107987282'
p704
(lp705
I45487627
aI45539310
aS'+'
asS'LOC107987283'
p706
(lp707
I53736737
aI53741800
aS'+'
asS'MIR3194'
p708
(lp709
I51452904
aI51452977
aS'-'
asS'MIR3195'
p710
(lp711
I62064801
aI62064885
aS'+'
asS'MIR3196'
p712
(lp713
I63238778
aI63238842
aS'+'
asS'LOC101929707'
p714
(lp715
I22995689
aI23030789
aS'-'
asS'MIR3192'
p716
(lp717
I18470614
aI18470691
aS'+'
asS'MIR3193'
p718
(lp719
I31607185
aI31607240
aS'+'
asS'LOC105372697'
p720
(lp721
I60332373
aI60335815
aS'-'
asS'LOC105372491'
p722
(lp723
I660703
aI696189
aS'+'
asS'LOC105372695'
p724
(lp725
I58773424
aI58774811
aS'+'
asS'LOC105372694'
p726
(lp727
I58163384
aI58179679
aS'-'
asS'LOC105372693'
p728
(lp729
I57985898
aI57999562
aS'-'
asS'LOC105372692'
p730
(lp731
I57720480
aI57726375
aS'+'
asS'RALY'
p732
(lp733
I33993653
aI34084884
aS'+'
asS'LOC105372690'
p734
(lp735
I57580424
aI57582926
aS'+'
asS'CD93'
p736
(lp737
I23076553
aI23086324
aS'-'
asS'LOC105372699'
p738
(lp739
I60748289
aI60777609
aS'+'
asS'LOC105372698'
p740
(lp741
I60255793
aI60287444
aS'+'
asS'C20orf141'
p742
(lp743
I2814986
aI2815830
aS'+'
asS'LOC100287792'
p744
(lp745
I37676909
aI37683234
aS'+'
asS'LOC105372492'
p746
(lp747
I912938
aI938216
aS'+'
asS'C20orf144'
p748
(lp749
I33662285
aI33663915
aS'+'
asS'LOC105372599'
p750
(lp751
I34703659
aI34704182
aS'-'
asS'DDRGK1'
p752
(lp753
I3190349
aI3204697
aS'-'
asS'LOC105372594'
p754
(lp755
I33298756
aI33299853
aS'+'
asS'SNX21'
p756
(lp757
I45833830
aI45843275
aS'+'
asS'APCDD1L-AS1'
p758
(lp759
I58515378
aI58619892
aS'+'
asS'STX16-NPEPL1'
p760
(lp761
I58651252
aI58715844
aS'+'
asS'LOC105372592'
p762
(lp763
I32537047
aI32541950
aS'+'
asS'LOC105372513'
p764
(lp765
I5480785
aI5490117
aS'-'
asS'ZNF337'
p766
(lp767
I25673194
aI25696904
aS'-'
asS'ZNF334'
p768
(lp769
I46463659
aI46505997
aS'-'
asS'ZNF335'
p770
(lp771
I45948652
aI45972910
aS'-'
asS'KCNK15-AS1'
p772
(lp773
I44711861
aI44746227
aS'-'
asS'LINC00652'
p774
(lp775
I18787970
aI18794584
aS'-'
asS'TMC2'
p776
(lp777
I2536606
aI2641784
aS'+'
asS'SIRPG-AS1'
p778
(lp779
I1633507
aI1648473
aS'+'
asS'FRG2EP'
p780
(lp781
I29414074
aI29416961
aS'-'
asS'DUSP15'
p782
(lp783
I31845577
aI31870602
aS'-'
asS'ADAM33'
p784
(lp785
I3667972
aI3682131
aS'-'
asS'LOC105372551'
p786
(lp787
I18270623
aI18271122
aS'-'
asS'PPDPF'
p788
(lp789
I63520779
aI63522171
aS'+'
asS'TRMT6'
p790
(lp791
I5937832
aI5950558
aS'-'
asS'TTPAL'
p792
(lp793
I44475885
aI44494603
aS'+'
asS'FASTKD5'
p794
(lp795
I3146518
aI3159886
aS'-'
asS'MIR6870'
p796
(lp797
I10649635
aI10649695
aS'-'
asS'MIR6871'
p798
(lp799
I41169022
aI41169078
aS'+'
asS'LOC105372554'
p800
(lp801
I20231945
aI20232873
aS'+'
asS'PIGU'
p802
(lp803
I34560541
aI34677285
aS'-'
asS'SNORA71D'
p804
(lp805
I38433861
aI38433999
aS'-'
asS'ZNF341'
p806
(lp807
I33731759
aI33792269
aS'+'
asS'RTEL1'
p808
(lp809
I63657809
aI63696253
aS'+'
asS'LINC00659'
p810
(lp811
I62774120
aI62776856
aS'-'
asS'ZNF343'
p812
(lp813
I2481816
aI2524522
aS'-'
asS'CST8'
p814
(lp815
I23491076
aI23507124
aS'+'
asS'CST9'
p816
(lp817
I23602409
aI23605973
aS'-'
asS'LOC101927486'
p818
(lp819
I49568115
aI49571934
aS'+'
asS'CST2'
p820
(lp821
I23823766
aI23826675
aS'-'
asS'CST3'
p822
(lp823
I23627896
aI23638048
aS'-'
asS'LOC105372620'
p824
(lp825
I40677231
aI40678675
aS'-'
asS'CST1'
p826
(lp827
I23747552
aI23750937
aS'-'
asS'LOC105372626'
p828
(lp829
I43894717
aI43895468
aS'+'
asS'CST7'
p830
(lp831
I24949229
aI24959928
aS'+'
asS'DIDO1'
p832
(lp833
I62877737
aI62937952
aS'-'
asS'GPCPD1'
p834
(lp835
I5544433
aI5611026
aS'-'
asS'PHACTR3'
p836
(lp837
I59577496
aI59849829
aS'+'
asS'CEP250'
p838
(lp839
I35455139
aI35517531
aS'+'
asS'LAMP5-AS1'
p840
(lp841
I9505179
aI9514998
aS'-'
asS'LOC105372622'
p842
(lp843
I42014540
aI42024332
aS'-'
asS'LAMP5'
p844
(lp845
I9514357
aI9530524
aS'+'
asS'SUMO1P1'
p846
(lp847
I53874497
aI53875709
aS'-'
asS'PCIF1'
p848
(lp849
I45934677
aI45948023
aS'+'
asS'LOC105372623'
p850
(lp851
I42948565
aI42955794
aS'+'
asS'SNORA51'
p852
(lp853
I2655066
aI2655198
aS'+'
asS'LINC01370'
p854
(lp855
I40004460
aI40008529
aS'+'
asS'SYCP2'
p856
(lp857
I59863276
aI59933700
aS'-'
asS'MIR6812'
p858
(lp859
I45425509
aI45425573
aS'+'
asS'LINC01440'
p860
(lp861
I55423042
aI55426791
aS'+'
asS'LOC105372621'
p862
(lp863
I40995613
aI41007028
aS'-'
asS'FAM65C'
p864
(lp865
I50586107
aI50692004
aS'-'
asS'LIME1'
p866
(lp867
I63735700
aI63739107
aS'+'
asS'NELFCD'
p868
(lp869
I58981207
aI58995133
aS'+'
asS'LOC105372560'
p870
(lp871
I22217053
aI22223574
aS'+'
asS'MIR548AG2'
p872
(lp873
I60564561
aI60564625
aS'+'
asS'SLC35C2'
p874
(lp875
I46349527
aI46364458
aS'-'
asS'STX16'
p876
(lp877
I58651252
aI58679526
aS'+'
asS'TNFRSF6B'
p878
(lp879
I63696650
aI63698698
aS'+'
asS'SLC23A2'
p880
(lp881
I4852355
aI5010293
aS'-'
asS'CNBD2'
p882
(lp883
I35954560
aI36030700
aS'+'
asS'LOC101929526'
p884
(lp885
I18674394
aI18698708
aS'-'
asS'SRXN1'
p886
(lp887
I646614
aI653370
aS'-'
asS'MIR133A2'
p888
(lp889
I62564911
aI62565013
aS'+'
asS'SLC4A11'
p890
(lp891
I3227421
aI3241483
aS'-'
asS'FER1L4'
p892
(lp893
I35558736
aI35607562
aS'-'
asS'MIR663A'
p894
(lp895
I26208185
aI26208278
aS'-'
asS'NKX2-2'
p896
(lp897
I21511016
aI21514026
aS'-'
asS'PTK6'
p898
(lp899
I63528412
aI63537370
aS'-'
asS'BPI'
p900
(lp901
I38304149
aI38337503
aS'+'
asS'LOC105372566'
p902
(lp903
I22667292
aI22685328
aS'-'
asS'LOC107985431'
p904
(lp905
I60656968
aI60659404
aS'-'
asS'DPH3P1'
p906
(lp907
I62844565
aI62846191
aS'+'
asS'NKILA'
p908
(lp909
I57710182
aI57712780
aS'+'
asS'RPRD1B'
p910
(lp911
I38033461
aI38092366
aS'+'
asS'LOC105372529'
p912
(lp913
I11309807
aI11427294
aS'-'
asS'C20orf196'
p914
(lp915
I5750386
aI5864407
aS'+'
asS'C20orf195'
p916
(lp917
I63553019
aI63556708
aS'+'
asS'C20orf194'
p918
(lp919
I3249301
aI3407662
aS'-'
asS'LOC105372525'
p920
(lp921
I10844722
aI10853291
aS'+'
asS'LOC105372524'
p922
(lp923
I10172425
aI10198744
aS'+'
asS'LOC105372527'
p924
(lp925
I11156838
aI11159220
aS'+'
asS'MYBL2'
p926
(lp927
I43667018
aI43716496
aS'+'
asS'LOC105372521'
p928
(lp929
I8630242
aI8657177
aS'-'
asS'MCM8-AS1'
p930
(lp931
I5990794
aI6005821
aS'-'
asS'LOC105372523'
p932
(lp933
I9563014
aI9617508
aS'+'
asS'RBL1'
p934
(lp935
I36996348
aI37096215
aS'-'
asS'ZNF663P'
p936
(lp937
I46456492
aI46457643
aS'-'
asS'LOC102723442'
p938
(lp939
I47382765
aI47412258
aS'-'
asS'SNHG17'
p940
(lp941
I38420591
aI38435375
aS'-'
asS'SNHG11'
p942
(lp943
I38446653
aI38450921
aS'+'
asS'ARHGAP40'
p944
(lp945
I38601933
aI38650652
aS'+'
asS'CTCFL'
p946
(lp947
I57495964
aI57525127
aS'-'
asS'RALGAPB'
p948
(lp949
I38472805
aI38578861
aS'+'
asS'SDCBP2'
p950
(lp951
I1309908
aI1329235
aS'-'
asS'NOP56'
p952
(lp953
I2652531
aI2658393
aS'+'
asS'LOC105372718'
p954
(lp955
I63025415
aI63028012
aS'-'
asS'SUN5'
p956
(lp957
I32983772
aI33004448
aS'-'
asS'LOC105372726'
p958
(lp959
I63653129
aI63655003
aS'+'
asS'AURKA'
p960
(lp961
I56369388
aI56392337
aS'-'
asS'LOC105369209'
p962
(lp963
I62227875
aI62235050
aS'+'
asS'YWHAB'
p964
(lp965
I44885598
aI44908532
aS'+'
asS'NANP'
p966
(lp967
I25612934
aI25624012
aS'-'
asS'SYNDIG1'
p968
(lp969
I24469198
aI24666617
aS'+'
asS'OGFR'
p970
(lp971
I62804824
aI62814000
aS'+'
asS'LOC100289473'
p972
(lp973
I1773364
aI1779746
aS'-'
asS'LOC107985439'
p974
(lp975
I48475950
aI48482965
aS'-'
asS'LOC107985438'
p976
(lp977
I23994107
aI23996544
aS'+'
asS'LOC107985435'
p978
(lp979
I40579341
aI40597385
aS'+'
asS'LOC107985434'
p980
(lp981
I58131360
aI58159431
aS'-'
asS'LOC107985437'
p982
(lp983
I48014235
aI48024198
aS'-'
asS'LOC107985436'
p984
(lp985
I48011109
aI48021040
aS'+'
asS'LOC100506175'
p986
(lp987
I50645470
aI50660291
aS'+'
asS'LINC01384'
p988
(lp989
I22587521
aI22607517
aS'-'
asS'LOC107985433'
p990
(lp991
I30287027
aI30290585
aS'-'
asS'LOC107985432'
p992
(lp993
I23803791
aI23805971
aS'+'
asS'LINC00656'
p994
(lp995
I23125067
aI23132636
aS'-'
asS'MIR3646'
p996
(lp997
I44408119
aI44408203
aS'+'
asS'LOC105372687'
p998
(lp999
I57274074
aI57329664
aS'-'
asS'HAO1'
p1000
(lp1001
I7882983
aI7940446
aS'-'
asS'LINC00494'
p1002
(lp1003
I48359910
aI48370638
aS'+'
asS'PXMP4'
p1004
(lp1005
I33702743
aI33720330
aS'-'
asS'LINC00493'
p1006
(lp1007
I18567428
aI18569560
aS'+'
asS'AHCY'
p1008
(lp1009
I34235011
aI34301885
aS'-'
asS'MYH7B'
p1010
(lp1011
I34955834
aI35002437
aS'+'
asS'VPS16'
p1012
(lp1013
I2840696
aI2866732
aS'+'
asS'CSTF1'
p1014
(lp1015
I56392370
aI56404526
aS'+'
asS'LOC105372724'
p1016
(lp1017
I63411264
aI63413397
aS'+'
asS'DNTTIP1'
p1018
(lp1019
I45791936
aI45811427
aS'+'
asS'ITPA'
p1020
(lp1021
I3209359
aI3227449
aS'+'
asS'LOC107985414'
p1022
(lp1023
I3173739
aI3179063
aS'+'
asS'MIR499B'
p1024
(lp1025
I34990399
aI34990472
aS'-'
asS'SLMO2-ATP5E'
p1026
(lp1027
I59028677
aI59042846
aS'-'
asS'DEFB129'
p1028
(lp1029
I227257
aI229886
aS'+'
asS'DEFB128'
p1030
(lp1031
I187852
aI189681
aS'-'
asS'DEFB127'
p1032
(lp1033
I157469
aI159163
aS'+'
asS'DEFB126'
p1034
(lp1035
I142552
aI145751
aS'+'
asS'DEFB125'
p1036
(lp1037
I87671
aI96573
aS'+'
asS'DEFB124'
p1038
(lp1039
I31465460
aI31475218
aS'-'
asS'LOC100505515'
p1040
(lp1041
I12950339
aI12951627
aS'+'
asS'DEFB122'
p1042
(lp1043
I31421438
aI31429180
aS'-'
asS'DEFB121'
p1044
(lp1045
I31404844
aI31418522
aS'-'
asS'LOC107985448'
p1046
(lp1047
I39130031
aI39220038
aS'+'
asS'MIR663AHG'
p1048
(lp1049
I26187018
aI26209233
aS'-'
asS'ARFGEF2'
p1050
(lp1051
I48921737
aI49036693
aS'+'
asS'POFUT1'
p1052
(lp1053
I32207821
aI32238657
aS'+'
asS'LOC107985410'
p1054
(lp1055
I58636304
aI58649666
aS'-'
asS'TGM2'
p1056
(lp1057
I38127386
aI38166578
aS'-'
asS'POLR3F'
p1058
(lp1059
I18467388
aI18484648
aS'+'
asS'PCK1'
p1060
(lp1061
I57561080
aI57566457
aS'+'
asS'BLCAP'
p1062
(lp1063
I37517416
aI37527931
aS'-'
asS'MIR941-3'
p1064
(lp1065
I63919560
aI63919632
aS'+'
asS'MIR941-2'
p1066
(lp1067
I63919504
aI63919576
aS'+'
asS'MIR941-1'
p1068
(lp1069
I63919448
aI63919520
aS'+'
asS'MIR941-5'
p1070
(lp1071
I63919867
aI63919939
aS'+'
asS'MYL9'
p1072
(lp1073
I36541483
aI36549823
aS'+'
asS'CTSZ'
p1074
(lp1075
I58995186
aI59007254
aS'-'
asS'MIR1292'
p1076
(lp1077
I2652776
aI2652842
aS'+'
asS'TGM6'
p1078
(lp1079
I2380907
aI2432753
aS'+'
asS'LOC105372668'
p1080
(lp1081
I52839041
aI52895425
aS'-'
asS'LOC105372669'
p1082
(lp1083
I53446559
aI53473109
aS'-'
asS'LOC105372666'
p1084
(lp1085
I52210633
aI52690580
aS'+'
asS'LOC105372667'
p1086
(lp1087
I52469240
aI52471838
aS'-'
asS'LOC105372664'
p1088
(lp1089
I52083501
aI52096481
aS'+'
asS'LOC105372665'
p1090
(lp1091
I52609528
aI52619168
aS'-'
asS'LOC105372662'
p1092
(lp1093
I51117787
aI51124876
aS'-'
asS'LOC105372663'
p1094
(lp1095
I51366176
aI51396996
aS'+'
asS'CBFA2T2'
p1096
(lp1097
I33490067
aI33650031
aS'+'
asS'FAM110A'
p1098
(lp1099
I833696
aI846279
aS'+'
asS'LOC101929866'
p1100
(lp1101
I45178476
aI45191638
aS'+'
asS'PET117'
p1102
(lp1103
I18137854
aI18143169
aS'+'
asS'LOC105372706'
p1104
(lp1105
I62101142
aI62124048
aS'-'
asS'LOC105372701'
p1106
(lp1107
I61179143
aI61185188
aS'+'
asS'NSFL1C'
p1108
(lp1109
I1442165
aI1467720
aS'-'
asS'DLGAP4'
p1110
(lp1111
I36306322
aI36528637
aS'+'
asS'C20orf173'
p1112
(lp1113
I35520740
aI35529652
aS'-'
asS'MAPRE1'
p1114
(lp1115
I32819779
aI32850403
aS'+'
asS'LOC107985442'
p1116
(lp1117
I19048033
aI19053867
aS'-'
asS'TRERNA1'
p1118
(lp1119
I50040706
aI50041629
aS'-'
asS'SPEF1'
p1120
(lp1121
I3777503
aI3781466
aS'-'
asS'FLJ33581'
p1122
(lp1123
I24199766
aI24224588
aS'+'
asS'ZMYND8'
p1124
(lp1125
I47209348
aI47357780
aS'-'
asS'FAM210B'
p1126
(lp1127
I56358926
aI56368663
aS'+'
asS'CTSA'
p1128
(lp1129
I45890143
aI45898820
aS'+'
asS'CDH22'
p1130
(lp1131
I46173732
aI46308498
aS'-'
asS'LOC101927355'
p1132
(lp1133
I46900385
aI46902954
aS'-'
asS'CDH26'
p1134
(lp1135
I59957763
aI60035629
aS'+'
asS'LOC107985445'
p1136
(lp1137
I63376202
aI63381890
aS'-'
asS'MAP1LC3A'
p1138
(lp1139
I34546822
aI34560345
aS'+'
asS'TOMM34'
p1140
(lp1141
I44942133
aI44960520
aS'-'
asS'CYP24A1'
p1142
(lp1143
I54145730
aI54173985
aS'-'
asS'ACTL10'
p1144
(lp1145
I33666497
aI33668525
aS'+'
asS'ACOT8'
p1146
(lp1147
I45841720
aI45857409
aS'-'
asS'LOC101929486'
p1148
(lp1149
I12865203
aI12952519
aS'-'
asS'KIZ'
p1150
(lp1151
I21125980
aI21246628
aS'+'
asS'LOC105372549'
p1152
(lp1153
I17912578
aI17925248
aS'-'
asS'LOC105372720'
p1154
(lp1155
I63447023
aI63450898
aS'+'
asS'RSPO4'
p1156
(lp1157
I958451
aI1002264
aS'-'
asS'ZFAS1'
p1158
(lp1159
I49278177
aI49289260
aS'+'
asS'RBM38'
p1160
(lp1161
I57391397
aI57409333
aS'+'
asS'ZBTB46-AS1'
p1162
(lp1163
I63808075
aI63823015
aS'+'
asS'FOXA2'
p1164
(lp1165
I22581003
aI22585463
aS'-'
asS'LOC105372711'
p1166
(lp1167
I62480221
aI62490856
aS'+'
asS'FKBP1A'
p1168
(lp1169
I1368976
aI1393172
aS'-'
asS'SLCO4A1-AS1'
p1170
(lp1171
I62663026
aI62666621
aS'-'
asS'SNORA71C'
p1172
(lp1173
I38429666
aI38429804
aS'-'
asS'SNORA71B'
p1174
(lp1175
I38425194
aI38425330
aS'-'
asS'SNORA71A'
p1176
(lp1177
I38427305
aI38427443
aS'-'
asS'SNORA71E'
p1178
(lp1179
I38448082
aI38448218
aS'+'
asS'LOC101929098'
p1180
(lp1181
I3068638
aI3072294
aS'-'
asS'SCRT2'
p1182
(lp1183
I661595
aI676179
aS'-'
asS'NTSR1'
p1184
(lp1185
I62708836
aI62762771
aS'+'
asS'LOC105372561'
p1186
(lp1187
I22260585
aI22274548
aS'-'
asS'DTD1'
p1188
(lp1189
I18587892
aI18763917
aS'+'
asS'LOC105372563'
p1190
(lp1191
I22468026
aI22471538
aS'-'
asS'LOC105372562'
p1192
(lp1193
I22448552
aI22467245
aS'-'
asS'LOC105372564'
p1194
(lp1195
I22510158
aI22524213
aS'-'
asS'LOC105372567'
p1196
(lp1197
I22772812
aI22774216
aS'+'
asS'SNORD119'
p1198
(lp1199
I2462951
aI2463047
aS'-'
asS'LOC105372569'
p1200
(lp1201
I23030888
aI23039235
aS'+'
asS'LOC105372568'
p1202
(lp1203
I22805771
aI22824382
aS'+'
asS'NDRG3'
p1204
(lp1205
I36651765
aI36746138
aS'-'
asS'SNORD110'
p1206
(lp1207
I2654211
aI2654286
aS'+'
asS'LOC101929395'
p1208
(lp1209
I10753089
aI10754027
aS'+'
asS'SRSF6'
p1210
(lp1211
I43457863
aI43463605
aS'+'
asS'ZBP1'
p1212
(lp1213
I57603845
aI57620576
aS'-'
asS'PPP4R1L'
p1214
(lp1215
I58232776
aI58309439
aS'-'
asS'SLC9A8'
p1216
(lp1217
I49812712
aI49892242
aS'+'
asS'RGS19'
p1218
(lp1219
I64073180
aI64080004
aS'-'
asS'LOC101929413'
p1220
(lp1221
I10875332
aI10909272
aS'-'
asS'ISM1-AS1'
p1222
(lp1223
I13237419
aI13239687
aS'-'
asS'NKAIN4'
p1224
(lp1225
I63240783
aI63254904
aS'-'
asS'B4GALT5'
p1226
(lp1227
I49632944
aI49713884
aS'-'
asS'NINL'
p1228
(lp1229
I25452696
aI25585531
aS'-'
asS'LOC284788'
p1230
(lp1231
I22400332
aI22420643
aS'-'
asS'MIR296'
p1232
(lp1233
I58817614
aI58817694
aS'-'
asS'LOC105379483'
p1234
(lp1235
I30610097
aI30617040
aS'-'
asS'PLCB1'
p1236
(lp1237
I8132264
aI8884900
aS'+'
asS'LOC105379481'
p1238
(lp1239
I30514054
aI30531183
aS'+'
asS'ROMO1'
p1240
(lp1241
I35699309
aI35700982
aS'+'
asS'PLCB4'
p1242
(lp1243
I9068709
aI9480808
aS'+'
asS'LOC339593'
p1244
(lp1245
I11266658
aI11273383
aS'-'
asS'TSHZ2'
p1246
(lp1247
I52972308
aI53495330
aS'+'
asS'GID8'
p1248
(lp1249
I62938088
aI62948475
aS'+'
asS'FOXS1'
p1250
(lp1251
I31844299
aI31845617
aS'-'
asS'TUBB1'
p1252
(lp1253
I59016025
aI59026602
aS'+'
asS'PAX1'
p1254
(lp1255
I21705658
aI21718486
aS'+'
asS'TP53INP2'
p1256
(lp1257
I34704302
aI34713439
aS'+'
asS'TMEM239'
p1258
(lp1259
I2816301
aI2820284
aS'+'
asS'PTPN1'
p1260
(lp1261
I50510320
aI50584762
aS'+'
asS'PHF20'
p1262
(lp1263
I35771998
aI35950377
aS'+'
asS'LOC105372514'
p1264
(lp1265
I5703631
aI5708551
aS'-'
asS'LOC105372516'
p1266
(lp1267
I6730746
aI6736277
aS'-'
asS'GINS1'
p1268
(lp1269
I25407682
aI25448555
aS'+'
asS'LOC105372510'
p1270
(lp1271
I4564268
aI4572072
aS'-'
asS'LOC105372511'
p1272
(lp1273
I4777718
aI4779351
aS'-'
asS'LAMA5'
p1274
(lp1275
I62309059
aI62367315
aS'-'
asS'GNAS'
p1276
(lp1277
I58839717
aI58911196
aS'+'
asS'MRPS26'
p1278
(lp1279
I3046028
aI3048250
aS'+'
asS'UBE2C'
p1280
(lp1281
I45812575
aI45816957
aS'+'
asS'LOC105372518'
p1282
(lp1283
I7698352
aI7724996
aS'+'
asS'INSM1'
p1284
(lp1285
I20368120
aI20370949
aS'+'
asS'SNORD12C'
p1286
(lp1287
I49278944
aI49279023
aS'+'
asS'LINC01427'
p1288
(lp1289
I22280227
aI22282801
aS'-'
asS'CSE1L-AS1'
p1290
(lp1291
I49040462
aI49046056
aS'-'
asS'STK35'
p1292
(lp1293
I2098034
aI2148555
aS'+'
asS'RBCK1'
p1294
(lp1295
I408049
aI432139
aS'+'
asS'SNORD12B'
p1296
(lp1297
I49280312
aI49280415
aS'+'
asS'OTOR'
p1298
(lp1299
I16748352
aI16752164
aS'+'
asS'SOGA1'
p1300
(lp1301
I36777441
aI36863684
aS'-'
asS'ID1'
p1302
(lp1303
I31605282
aI31606515
aS'+'
asS'ZNF337-AS1'
p1304
(lp1305
I25624044
aI25678074
aS'+'
asS'VSTM2L'
p1306
(lp1307
I37903096
aI37945350
aS'+'
asS'DSN1'
p1308
(lp1309
I36751790
aI36773827
aS'-'
asS'LOC107985404'
p1310
(lp1311
I45393252
aI45407838
aS'-'
asS'LOC107985405'
p1312
(lp1313
I45415623
aI45418383
aS'-'
asS'LOC107985406'
p1314
(lp1315
I12245679
aI12247614
aS'-'
asS'LOC107985407'
p1316
(lp1317
I12505321
aI12515277
aS'+'
asS'LOC107985400'
p1318
(lp1319
I25696891
aI25738240
aS'+'
asS'LOC107985401'
p1320
(lp1321
I47792231
aI47799468
aS'+'
asS'LOC107985402'
p1322
(lp1323
I24818739
aI24823611
aS'-'
asS'LOC107985403'
p1324
(lp1325
I32157390
aI32159082
aS'-'
asS'SNORD86'
p1326
(lp1327
I2656096
aI2656182
aS'+'
asS'BCAS4'
p1328
(lp1329
I50794970
aI50877736
aS'+'
asS'TP53RK'
p1330
(lp1331
I46684364
aI46689637
aS'-'
asS'LOC107985409'
p1332
(lp1333
I1557750
aI1561718
aS'+'
asS'NOL4L'
p1334
(lp1335
I32443058
aI32585073
aS'-'
asS'BCAS1'
p1336
(lp1337
I53943537
aI54070765
aS'-'
asS'SLC52A3'
p1338
(lp1339
I760079
aI775985
aS'-'
asS'CST4'
p1340
(lp1341
I23685639
aI23689025
aS'-'
asS'BMP7-AS1'
p1342
(lp1343
I57213695
aI57215866
aS'+'
asS'PABPC1L'
p1344
(lp1345
I44910059
aI44939317
aS'+'
asS'CPXM1'
p1346
(lp1347
I2794068
aI2800646
aS'-'
asS'ZHX3'
p1348
(lp1349
I41178449
aI41317241
aS'-'
asS'CBLN4'
p1350
(lp1351
I55997356
aI56005472
aS'-'
asS'CST9L'
p1352
(lp1353
I23564731
aI23568749
aS'-'
asS'AAR2'
p1354
(lp1355
I36236135
aI36256934
aS'+'
asS'LOC613266'
p1356
(lp1357
I15892332
aI15985882
aS'-'
asS'RAB22A'
p1358
(lp1359
I58309714
aI58367507
aS'+'
asS'LINC01056'
p1360
(lp1361
I63038010
aI63053863
aS'+'
asS'PSMA7'
p1362
(lp1363
I62136726
aI62143458
aS'-'
asS'LOC105372589'
p1364
(lp1365
I31677981
aI31716844
aS'+'
asS'LOC105372588'
p1366
(lp1367
I31604690
aI31605195
aS'-'
asS'LOC105372587'
p1368
(lp1369
I30350381
aI30362503
aS'-'
asS'LOC105372586'
p1370
(lp1371
I30292607
aI30300255
aS'-'
asS'LOC105372585'
p1372
(lp1373
I24468225
aI24470506
aS'-'
asS'CST13P'
p1374
(lp1375
I23519145
aI23542018
aS'+'
asS'LOC105372582'
p1376
(lp1377
I25751207
aI25756050
aS'+'
asS'LOC105372581'
p1378
(lp1379
I25393516
aI25408336
aS'-'
asS'LOC105372580'
p1380
(lp1381
I25238998
aI25247970
aS'-'
asS'EPB41L1'
p1382
(lp1383
I36064890
aI36232799
aS'+'
asS'KIF16B'
p1384
(lp1385
I16272103
aI16573457
aS'-'
asS'BPIFB2'
p1386
(lp1387
I33007577
aI33023709
aS'+'
asS'PDYN'
p1388
(lp1389
I1978755
aI1994285
aS'-'
asS'RPS21'
p1390
(lp1391
I62387064
aI62388520
aS'+'
asS'ACSS2'
p1392
(lp1393
I34874941
aI34927962
aS'+'
asS'ACSS1'
p1394
(lp1395
I25006229
aI25058182
aS'-'
asS'KIAA1755'
p1396
(lp1397
I38210504
aI38260772
aS'-'
asS'ATRN'
p1398
(lp1399
I3471017
aI3651122
aS'+'
asS'MIR645'
p1400
(lp1401
I50585785
aI50585879
aS'+'
asS'SALL4'
p1402
(lp1403
I51782716
aI51802523
aS'-'
asS'LOC105372517'
p1404
(lp1405
I6765589
aI6767484
aS'-'
asS'TPD52L2'
p1406
(lp1407
I63865227
aI63891545
aS'+'
asS'ADIG'
p1408
(lp1409
I38581194
aI38588463
aS'+'
asS'GMEB2'
p1410
(lp1411
I63587593
aI63627101
aS'-'
asS'EDN3'
p1412
(lp1413
I59300414
aI59325992
aS'+'
asS'SLPI'
p1414
(lp1415
I45252238
aI45254564
aS'-'
asS'SNORD17'
p1416
(lp1417
I17962709
aI17962946
aS'-'
asS'CST5'
p1418
(lp1419
I23875934
aI23879743
aS'-'
asS'SGK2'
p1420
(lp1421
I43558994
aI43585633
aS'+'
asS'SNORD12'
p1422
(lp1423
I49280682
aI49280772
aS'+'
asS'CDS2'
p1424
(lp1425
I5126760
aI5197887
aS'+'
asS'LRRN4'
p1426
(lp1427
I6040545
aI6054080
aS'-'
asS'LOC105372637'
p1428
(lp1429
I47950809
aI47959050
aS'+'
asS'LOC105372636'
p1430
(lp1431
I47840994
aI47843269
aS'-'
asS'LOC105372631'
p1432
(lp1433
I45427300
aI45457215
aS'+'
asS'DEFB132'
p1434
(lp1435
I257735
aI261096
aS'+'
asS'LOC105372633'
p1436
(lp1437
I46406778
aI46444971
aS'+'
asS'LOC105372632'
p1438
(lp1439
I46022979
aI46023581
aS'+'
asS'C20orf197'
p1440
(lp1441
I60047073
aI60072987
aS'+'
asS'LAMA5-AS1'
p1442
(lp1443
I62353009
aI62356480
aS'+'
asS'LOC105372639'
p1444
(lp1445
I48024854
aI48067686
aS'+'
asS'LOC105372528'
p1446
(lp1447
I11171602
aI11178453
aS'-'
asS'MIR4326'
p1448
(lp1449
I63286807
aI63286866
aS'+'
asS'MIR4325'
p1450
(lp1451
I57321501
aI57321591
aS'-'
asS'BIRC7'
p1452
(lp1453
I63235882
aI63240507
aS'+'
asS'LOC728283'
p1454
(lp1455
I5315581
aI5317977
aS'+'
asS'EIF6'
p1456
(lp1457
I35278905
aI35284816
aS'-'
asS'SPATA25'
p1458
(lp1459
I45886490
aI45887599
aS'-'
asS'RBPJL'
p1460
(lp1461
I45306835
aI45319677
aS'+'
asS'C20orf181'
p1462
(lp1463
I63843261
aI63848312
aS'-'
asS'TOP1'
p1464
(lp1465
I41028821
aI41124487
aS'+'
asS'LOC101926889'
p1466
(lp1467
I25184671
aI25196892
aS'-'
asS'LOC107984088'
p1468
(lp1469
I1863902
aI1889958
aS'-'
asS'SEL1L2'
p1470
(lp1471
I13849187
aI13995288
aS'-'
asS'GCNT7'
p1472
(lp1473
I56491491
aI56525925
aS'-'
asS'MANBAL'
p1474
(lp1475
I37289647
aI37317260
aS'+'
asS'SMOX'
p1476
(lp1477
I4148778
aI4187747
aS'+'
asS'TFAP2C'
p1478
(lp1479
I56629301
aI56639283
aS'+'
asS'PARD6B'
p1480
(lp1481
I50731543
aI50753741
aS'+'
asS'GDF5'
p1482
(lp1483
I35433346
aI35454746
aS'-'
asS'OPRL1'
p1484
(lp1485
I64080081
aI64100643
aS'+'
asS'LOC101929125'
p1486
(lp1487
I3808493
aI3812434
aS'+'
asS'RBM39'
p1488
(lp1489
I35703608
aI35742336
aS'-'
asS'KCNS1'
p1490
(lp1491
I45091213
aI45101112
aS'-'
asS'LOC101929288'
p1492
(lp1493
I7302088
aI7307432
aS'-'
asS'ZCCHC3'
p1494
(lp1495
I297562
aI300321
aS'+'
asS'LOC100130587'
p1496
(lp1497
I63359987
aI63371177
aS'+'
asS'LOC105372522'
p1498
(lp1499
I8962198
aI8968990
aS'+'
asS'LOC101929698'
p1500
(lp1501
I32509958
aI32520285
aS'+'
asS'EYA2'
p1502
(lp1503
I46894623
aI47188844
aS'+'
asS'PCNA'
p1504
(lp1505
I5114952
aI5126622
aS'-'
asS'APMAP'
p1506
(lp1507
I24962924
aI24992974
aS'-'
asS'LINC01620'
p1508
(lp1509
I44451983
aI44465344
aS'-'
asS'CEBPB'
p1510
(lp1511
I50190582
aI50192690
aS'+'
asS'LOC105372618'
p1512
(lp1513
I40457357
aI40468895
aS'-'
asS'LINC00654'
p1514
(lp1515
I5496066
aI5504596
aS'-'
asS'LOC105372493'
p1516
(lp1517
I1117851
aI1118448
aS'-'
asS'C20orf187'
p1518
(lp1519
I10860917
aI11029746
aS'+'
asS'PIGT'
p1520
(lp1521
I45416066
aI45426245
aS'+'
asS'LOC105372494'
p1522
(lp1523
I1018854
aI1024883
aS'-'
asS'LOC105372497'
p1524
(lp1525
I1405144
aI1411146
aS'-'
asS'LOC105372496'
p1526
(lp1527
I1185476
aI1191895
aS'+'
asS'LOC105372499'
p1528
(lp1529
I1512560
aI1551684
aS'+'
asS'LOC105372498'
p1530
(lp1531
I1514877
aI1522599
aS'-'
asS'MIR646HG'
p1532
(lp1533
I60138491
aI60322256
aS'+'
asS'LINC00658'
p1534
(lp1535
I5431956
aI5445748
aS'-'
asS'LOC105372555'
p1536
(lp1537
I20729259
aI20749627
aS'+'
asS'LOC105372556'
p1538
(lp1539
I21087628
aI21106341
aS'-'
asS'MCM8'
p1540
(lp1541
I5950676
aI6000941
aS'+'
asS'WFDC11'
p1542
(lp1543
I45648562
aI45670239
aS'-'
asS'SCAND1'
p1544
(lp1545
I35953616
aI35955359
aS'-'
asS'WFDC13'
p1546
(lp1547
I45702015
aI45708817
aS'+'
asS'WFDC12'
p1548
(lp1549
I45123425
aI45124465
aS'-'
asS'SAMHD1'
p1550
(lp1551
I36890881
aI36951816
aS'-'
asS'LOC105372704'
p1552
(lp1553
I62000727
aI62002317
aS'-'
asS'LINC01271'
p1554
(lp1555
I50310710
aI50321342
aS'-'
asS'LINC01270'
p1556
(lp1557
I50292719
aI50314919
aS'+'
asS'MACROD2-IT1'
p1558
(lp1559
I14554383
aI14628908
aS'+'
asS'LINC01272'
p1560
(lp1561
I50267467
aI50279788
aS'+'
asS'SLC2A4RG'
p1562
(lp1563
I63739857
aI63744050
aS'+'
asS'MIR8062'
p1564
(lp1565
I7371607
aI7371692
aS'+'
asS'EDEM2'
p1566
(lp1567
I35115356
aI35147358
aS'-'
asS'LOC101929348'
p1568
(lp1569
I9619154
aI9626898
aS'+'
asS'COL20A1'
p1570
(lp1571
I63293168
aI63334847
aS'+'
asS'MIR1914'
p1572
(lp1573
I63941464
aI63941544
aS'-'
asS'ZNF512B'
p1574
(lp1575
I63956703
aI63969870
aS'-'
asS'BCL2L1'
p1576
(lp1577
I31664451
aI31723999
aS'-'
asS'LOC107985449'
p1578
(lp1579
I22916535
aI22974194
aS'+'
asS'GSS'
p1580
(lp1581
I34928432
aI34956027
aS'-'
asS'LOC107985440'
p1582
(lp1583
I17815660
aI17850458
aS'-'
asS'LOC107985441'
p1584
(lp1585
I43730333
aI43733570
aS'-'
asS'PSMF1'
p1586
(lp1587
I1113228
aI1172246
aS'+'
asS'MRGBP'
p1588
(lp1589
I62796404
aI62801738
aS'+'
asS'LOC101929863'
p1590
(lp1591
I45136767
aI45139102
aS'-'
asS'LOC107985446'
p1592
(lp1593
I40504195
aI40512158
aS'+'
asS'MROH8'
p1594
(lp1595
I37101225
aI37179588
aS'-'
asS'ATP9A'
p1596
(lp1597
I51596774
aI51768411
aS'-'
asS'GDAP1L1'
p1598
(lp1599
I44247098
aI44280917
aS'+'
asS'LOC727993'
p1600
(lp1601
I1947209
aI2007517
aS'+'
asS'LINC01273'
p1602
(lp1603
I50172569
aI50176671
aS'+'
asS'MAFB'
p1604
(lp1605
I40685847
aI40689240
aS'-'
asS'ADNP-AS1'
p1606
(lp1607
I50930983
aI50945134
aS'+'
asS'NKX2-4'
p1608
(lp1609
I21395366
aI21397409
aS'-'
asS'SPINT3'
p1610
(lp1611
I45512460
aI45515624
aS'-'
asS'TPX2'
p1612
(lp1613
I31739100
aI31801800
aS'+'
asS'LOC729296'
p1614
(lp1615
I60087685
aI60101387
aS'+'
asS'MIR1-1'
p1616
(lp1617
I62554305
aI62554376
aS'+'
asS'SPINT4'
p1618
(lp1619
I45722348
aI45725696
aS'+'
asS'LOC105372641'
p1620
(lp1621
I48192339
aI48202756
aS'+'
asS'MIR1-1HG'
p1622
(lp1623
I62550452
aI62570764
aS'+'
asS'PYGB'
p1624
(lp1625
I25248069
aI25298012
aS'+'
asS'HNF4A-AS1'
p1626
(lp1627
I44377742
aI44395706
aS'-'
asS'PPP1R16B'
p1628
(lp1629
I38805692
aI38923024
aS'+'
asS'NECAB3'
p1630
(lp1631
I33657086
aI33674458
aS'-'
asS'RALGAPA2'
p1632
(lp1633
I20389557
aI20712638
aS'-'
asS'ENTPD6'
p1634
(lp1635
I25195669
aI25228075
aS'+'
asS'C20orf27'
p1636
(lp1637
I3753498
aI3768388
aS'-'
asS'C20orf24'
p1638
(lp1639
I36605733
aI36612557
aS'+'
asS'LOC105372678'
p1640
(lp1641
I55852507
aI55858371
aS'+'
asS'SPAG4'
p1642
(lp1643
I35615883
aI35621094
aS'+'
asS'LOC105372647'
p1644
(lp1645
I48499159
aI48507281
aS'+'
asS'LOC105372727'
p1646
(lp1647
I64139444
aI64143682
aS'-'
asS'LINC01522'
p1648
(lp1649
I47980092
aI47990117
aS'-'
asS'RAE1'
p1650
(lp1651
I57350968
aI57378384
aS'+'
asS'HELZ2'
p1652
(lp1653
I63558085
aI63574239
aS'-'
asS'LOC101927098'
p1654
(lp1655
I40696498
aI40717432
aS'-'
asS'PI3'
p1656
(lp1657
I45174898
aI45176544
aS'+'
asS'LOC105372700'
p1658
(lp1659
I60804696
aI60808910
aS'+'
asS'CSNK2A1'
p1660
(lp1661
I482693
aI543838
aS'-'
asS'MIR1289-1'
p1662
(lp1663
I35453953
aI35454097
aS'-'
asS'LOC105372679'
p1664
(lp1665
I56036766
aI56040487
aS'+'
asS'NDUFAF5'
p1666
(lp1667
I13785025
aI13821580
aS'+'
asS'SNAP25-AS1'
p1668
(lp1669
I10023811
aI10219506
aS'-'
asS'BMP2'
p1670
(lp1671
I6767699
aI6780266
aS'+'
asS'PCNA-AS1'
p1672
(lp1673
I5119585
aI5119969
aS'+'
asS'LOC105372671'
p1674
(lp1675
I53516917
aI53525742
aS'-'
asS'LOC105372670'
p1676
(lp1677
I53399261
aI53401380
aS'-'
asS'UBOX5-AS1'
p1678
(lp1679
I3106910
aI3150867
aS'+'
asS'LOC105372672'
p1680
(lp1681
I53608353
aI53634590
aS'+'
asS'LOC105372675'
p1682
(lp1683
I54178178
aI54189948
aS'+'
asS'SNORD56'
p1684
(lp1685
I2656623
aI2656694
aS'+'
asS'SNORD57'
p1686
(lp1687
I2656938
aI2657010
aS'+'
asS'L3MBTL1'
p1688
(lp1689
I43507679
aI43541895
aS'+'
asS'GFRA4'
p1690
(lp1691
I3659291
aI3663399
aS'-'
asS'CSTL1'
p1692
(lp1693
I23439684
aI23444930
aS'+'
asS'TMEM189-UBE2V1'
p1694
(lp1695
I50081123
aI50153798
aS'-'
asS'XRN2'
p1696
(lp1697
I21303283
aI21389825
aS'+'
asS'LOC105376980'
p1698
(lp1699
I47894799
aI47899523
aS'-'
asS'LOC100505771'
p1700
(lp1701
I63627234
aI63628824
aS'+'
asS'LOC105372703'
p1702
(lp1703
I61432867
aI61439047
aS'-'
asS'UQCC1'
p1704
(lp1705
I35302565
aI35412142
aS'-'
asS'MC3R'
p1706
(lp1707
I56248731
aI56249815
aS'+'
asS'LOC105376989'
p1708
(lp1709
I56101773
aI56103602
aS'+'
asS'LINC00028'
p1710
(lp1711
I31485777
aI31487574
aS'+'
asS'PCMTD2'
p1712
(lp1713
I64255694
aI64276226
aS'+'
asS'ZNF217'
p1714
(lp1715
I53567064
aI53608969
aS'-'
asS'PKIG'
p1716
(lp1717
I44531780
aI44619037
aS'+'
asS'STMN3'
p1718
(lp1719
I63639704
aI63653610
aS'-'
asS'RASSF2'
p1720
(lp1721
I4780022
aI4823668
aS'-'
asS'LINC01433'
p1722
(lp1723
I4193089
aI4195953
aS'+'
asS'LINC01432'
p1724
(lp1725
I22054089
aI22074654
aS'+'
asS'LINC01431'
p1726
(lp1727
I23356593
aI23358127
aS'-'
asS'LINC01430'
p1728
(lp1729
I44448776
aI44450557
aS'-'
asS'LOC105372558'
p1730
(lp1731
I21397933
aI21441456
aS'+'
asS'LOC105372677'
p1732
(lp1733
I55803899
aI55829691
aS'+'
asS'OGFR-AS1'
p1734
(lp1735
I62800626
aI62805587
aS'-'
asS'LOC101927770'
p1736
(lp1737
I53552769
aI53575308
aS'+'
asS'BPIFA4P'
p1738
(lp1739
I33193604
aI33210462
aS'+'
asS'LOC101927182'
p1740
(lp1741
I41903833
aI42108504
aS'+'
asS'MATN4'
p1742
(lp1743
I45293445
aI45308566
aS'-'
asS'NFS1'
p1744
(lp1745
I35668687
aI35699365
aS'-'
asS'NORAD'
p1746
(lp1747
I36045617
aI36050960
aS'-'
asS'CHD6'
p1748
(lp1749
I41402100
aI41618494
aS'-'
asS'ASXL1'
p1750
(lp1751
I32358061
aI32439319
aS'+'
asS'PLTP'
p1752
(lp1753
I45898619
aI45912364
aS'-'
asS'LOC105376985'
p1754
(lp1755
I52660096
aI52661792
aS'+'
asS'ABHD12'
p1756
(lp1757
I25294742
aI25390982
aS'-'
asS'SPO11'
p1758
(lp1759
I57329756
aI57343983
aS'+'
asS'LOC105372608'
p1760
(lp1761
I37571116
aI37583924
aS'+'
asS'LOC105372609'
p1762
(lp1763
I37686041
aI37691276
aS'-'
asS'CTNNBL1'
p1764
(lp1765
I37693954
aI37872129
aS'+'
asS'LOC101927932'
p1766
(lp1767
I58863755
aI58888810
aS'-'
asS'PRELID3B'
p1768
(lp1769
I59033144
aI59042846
aS'-'
asS'LOC105372606'
p1770
(lp1771
I37337439
aI37344595
aS'-'
asS'LOC102723552'
p1772
(lp1773
I30652372
aI30723916
aS'-'
asS'LZTS3'
p1774
(lp1775
I3162616
aI3173597
aS'-'
asS'LOC105372602'
p1776
(lp1777
I36213336
aI36236466
aS'-'
asS'PROCR'
p1778
(lp1779
I35172093
aI35215989
aS'+'
asS'NPEPL1'
p1780
(lp1781
I58689130
aI58715844
aS'+'
asS'MIR124-3'
p1782
(lp1783
I63178499
aI63178586
aS'+'
asS'LOC102724734'
p1784
(lp1785
I19044765
aI19050458
aS'+'
asS'CDC25B'
p1786
(lp1787
I3786771
aI3806121
aS'+'
asS'SDCBP2-AS1'
p1788
(lp1789
I1325342
aI1378735
aS'+'
asS'LOC107985430'
p1790
(lp1791
I59613096
aI59623001
aS'+'
asS'WFDC9'
p1792
(lp1793
I45607938
aI45631268
aS'-'
asS'DSTN'
p1794
(lp1795
I17569172
aI17608242
aS'+'
asS'WFDC3'
p1796
(lp1797
I45708859
aI45791799
aS'-'
asS'WFDC2'
p1798
(lp1799
I45469753
aI45481532
aS'+'
asS'KIF3B'
p1800
(lp1801
I32277639
aI32335011
aS'+'
asS'WFDC6'
p1802
(lp1803
I45534196
aI45539495
aS'-'
asS'RALY-AS1'
p1804
(lp1805
I33992487
aI33994367
aS'-'
asS'RTEL1-TNFRSF6B'
p1806
(lp1807
I63657809
aI63698698
aS'+'
asS'TAF4'
p1808
(lp1809
I61974797
aI62065810
aS'-'
asS'SEC23B'
p1810
(lp1811
I18507543
aI18561406
aS'+'
asS'AVP'
p1812
(lp1813
I3082554
aI3093521
aS'-'
asS'LOC101929547'
p1814
(lp1815
I19208993
aI19210481
aS'-'
asS'EBF4'
p1816
(lp1817
I2692877
aI2760108
aS'+'
asS'TOX2'
p1818
(lp1819
I43914851
aI44069616
aS'+'
asS'CRLS1'
p1820
(lp1821
I6005937
aI6040053
aS'+'
asS'OSER1'
p1822
(lp1823
I44196495
aI44217229
aS'-'
asS'ACTR5'
p1824
(lp1825
I38748453
aI38772446
aS'+'
asS'BTBD3'
p1826
(lp1827
I11890722
aI11926595
aS'+'
asS'LOC107985427'
p1828
(lp1829
I52441112
aI52444695
aS'-'
asS'MTG2'
p1830
(lp1831
I62183032
aI62203568
aS'+'
asS'SLC32A1'
p1832
(lp1833
I38724461
aI38729372
aS'+'
asS'MIR103A2'
p1834
(lp1835
I3917493
aI3917571
aS'+'
asS'LOC107985392'
p1836
(lp1837
I4812081
aI4816054
aS'+'
asS'LOC107985393'
p1838
(lp1839
I34989031
aI34991013
aS'-'
asS'LOC107985394'
p1840
(lp1841
I15626823
aI15632208
aS'+'
asS'LOC107985395'
p1842
(lp1843
I3884982
aI3889185
aS'-'
asS'LOC107985397'
p1844
(lp1845
I36601505
aI36605636
aS'-'
asS'LOC107985398'
p1846
(lp1847
I10791901
aI10806879
aS'+'
asS'LOC107985399'
p1848
(lp1849
I18768731
aI18780668
aS'+'
asS'ATP5E'
p1850
(lp1851
I59028677
aI59032367
aS'-'
asS'LOC105372507'
p1852
(lp1853
I2667712
aI2692607
aS'-'
asS'LOC105372506'
p1854
(lp1855
I2703711
aI2709578
aS'-'
asS'LOC105372505'
p1856
(lp1857
I2614018
aI2652520
aS'-'
asS'LOC105372504'
p1858
(lp1859
I2534527
aI2543597
aS'-'
asS'LOC105372503'
p1860
(lp1861
I2296077
aI2301684
aS'-'
asS'LOC105372502'
p1862
(lp1863
I2193638
aI2201397
aS'+'
asS'LOC105372501'
p1864
(lp1865
I1817573
aI1838364
aS'+'
asS'RBM12'
p1866
(lp1867
I35648924
aI35664956
aS'-'
asS'EPPIN-WFDC6'
p1868
(lp1869
I45536279
aI45547426
aS'-'
asS'SLA2'
p1870
(lp1871
I36612518
aI36646216
aS'-'
asS'LOC105372509'
p1872
(lp1873
I3418394
aI3420788
aS'+'
asS'LOC105372508'
p1874
(lp1875
I3417030
aI3430861
aS'-'
asS'HSPA12B'
p1876
(lp1877
I3732669
aI3753111
aS'+'
asS'NEURL2'
p1878
(lp1879
I45888471
aI45891287
aS'-'
asS'LINC01598'
p1880
(lp1881
I29548718
aI29560475
aS'+'
asS'EEF1A2'
p1882
(lp1883
I63488011
aI63499315
aS'-'
asS'FAM209B'
p1884
(lp1885
I56527123
aI56555626
aS'+'
asS'ABHD16B'
p1886
(lp1887
I63861212
aI63862988
aS'+'
asS'FAM209A'
p1888
(lp1889
I56524763
aI56533590
aS'+'
asS'LOC102724968'
p1890
(lp1891
I40570342
aI40641178
aS'-'
asS'CST11'
p1892
(lp1893
I23450403
aI23452845
aS'-'
asS'SLC13A3'
p1894
(lp1895
I46557822
aI46684485
aS'-'
asS'COL9A3'
p1896
(lp1897
I62817061
aI62841159
aS'+'
asS'CHRNA4'
p1898
(lp1899
I63344070
aI63375392
aS'-'
asS'LOC107985416'
p1900
(lp1901
I31572918
aI31577965
aS'+'
asS'FERMT1'
p1902
(lp1903
I6074844
aI6123544
aS'-'
asS'LOC107985413'
p1904
(lp1905
I20253801
aI20254829
aS'+'
asS'LOC107985411'
p1906
(lp1907
I5463745
aI5480267
aS'-'
asS'ADA'
p1908
(lp1909
I44619518
aI44651758
aS'-'
asS'LOC105372629'
p1910
(lp1911
I44347448
aI44355432
aS'-'
asS'KCNB1'
p1912
(lp1913
I49363879
aI49484033
aS'-'
asS'LOC101929937'
p1914
(lp1915
I346265
aI353538
aS'-'
asS'CRNKL1'
p1916
(lp1917
I20034360
aI20056046
aS'-'
asS'LOC107985418'
p1918
(lp1919
I18359306
aI18362899
aS'+'
asS'STAU1'
p1920
(lp1921
I49113338
aI49219295
aS'-'
asS'XKR7'
p1922
(lp1923
I31968001
aI31998453
aS'+'
asS'EMILIN3'
p1924
(lp1925
I41359965
aI41366858
aS'-'
asS'CCM2L'
p1926
(lp1927
I32010378
aI32032182
aS'+'
asS'RIN2'
p1928
(lp1929
I19757609
aI20002456
aS'+'
asS'LINC00261'
p1930
(lp1931
I22560552
aI22578642
aS'-'
asS'MGME1'
p1932
(lp1933
I17968593
aI17991122
aS'+'
asS'NXT1'
p1934
(lp1935
I23350735
aI23354771
aS'+'
asS'GNRH2'
p1936
(lp1937
I3039060
aI3045896
aS'+'
asS'DPM1'
p1938
(lp1939
I50934854
aI50958564
aS'-'
asS'CSE1L'
p1940
(lp1941
I49046245
aI49096960
aS'+'
asS'LOC101926955'
p1942
(lp1943
I25955811
aI25969288
aS'+'
asS'ZNF133'
p1944
(lp1945
I18288227
aI18316996
aS'+'
asS'TMEM230'
p1946
(lp1947
I5068482
aI5113087
aS'-'
asS'MMP24-AS1'
p1948
(lp1949
I35276332
aI35278157
aS'-'
asS'C20orf78'
p1950
(lp1951
I18809350
aI18830203
aS'-'
asS'LOC105372550'
p1952
(lp1953
I18313724
aI18359309
aS'-'
asS'SRC'
p1954
(lp1955
I37344684
aI37405432
aS'+'
asS'NRSN2-AS1'
p1956
(lp1957
I319686
aI325252
aS'-'
asS'CHGB'
p1958
(lp1959
I5911327
aI5925361
aS'+'
asS'LOC100506470'
p1960
(lp1961
I61079063
aI61080179
aS'+'
asS'LINC00029'
p1962
(lp1963
I63034216
aI63037028
aS'-'
asS'PLCG1-AS1'
p1964
(lp1965
I41097993
aI41138000
aS'-'
asS'OVOL2'
p1966
(lp1967
I18024151
aI18059188
aS'-'
asS'NNAT'
p1968
(lp1969
I37521205
aI37523690
aS'+'
asS'FAM83C'
p1970
(lp1971
I35285730
aI35292422
aS'-'
asS'BPIFA1'
p1972
(lp1973
I33235995
aI33243309
aS'+'
asS'FAM83D'
p1974
(lp1975
I38926311
aI38953060
aS'+'
asS'UBOX5'
p1976
(lp1977
I3107572
aI3159910
aS'-'
asS'LOC101929207'
p1978
(lp1979
I5507874
aI5510002
aS'-'
asS'IDH3B'
p1980
(lp1981
I2658389
aI2664223
aS'-'
asS'LOC105376995'
p1982
(lp1983
I62533992
aI62536728
aS'+'
asS'FLJ16779'
p1984
(lp1985
I63253977
aI63261615
aS'+'
asS'CPNE1'
p1986
(lp1987
I35626030
aI35664956
aS'-'
asS'TCFL5'
p1988
(lp1989
I62841013
aI62861763
aS'-'
asS'BHLHE23'
p1990
(lp1991
I63005978
aI63007035
aS'-'
asS'MIR3616'
p1992
(lp1993
I47166966
aI47167058
aS'+'
asS'LOC105372640'
p1994
(lp1995
I48119767
aI48126814
aS'+'
asS'LOC101927159'
p1996
(lp1997
I42685482
aI42688562
aS'+'
asS'LOC105372643'
p1998
(lp1999
I48394180
aI48399490
aS'+'
asS'LOC105372644'
p2000
(lp2001
I48409269
aI48410716
aS'+'
asS'LOC105372645'
p2002
(lp2003
I48471319
aI48477557
aS'+'
asS'LOC105372646'
p2004
(lp2005
I48526377
aI48563408
aS'-'
asS'DOK5'
p2006
(lp2007
I54475471
aI54651171
aS'+'
asS'LOC105372648'
p2008
(lp2009
I48835553
aI48888173
aS'-'
asS'LOC105372649'
p2010
(lp2011
I49331378
aI49439127
aS'+'
asS'LOC105372725'
p2012
(lp2013
I63502057
aI63508772
aS'+'
asS'CABLES2'
p2014
(lp2015
I62388629
aI62407283
aS'-'
asS'LOC107985429'
p2016
(lp2017
I60079787
aI60087069
aS'-'
asS'LOC105372721'
p2018
(lp2019
I63435345
aI63436091
aS'+'
asS'RBBP8NL'
p2020
(lp2021
I62410236
aI62427573
aS'-'
asS'DNMT3B'
p2022
(lp2023
I32762384
aI32809356
aS'+'
asS'SNTA1'
p2024
(lp2025
I33407956
aI33443892
aS'-'
asS'ESF1'
p2026
(lp2027
I13714321
aI13784933
aS'-'
asS'PTPRA'
p2028
(lp2029
I2864194
aI3038669
aS'+'
asS'CEBPB-AS1'
p2030
(lp2031
I50184602
aI50192069
aS'-'
asS'TCEA2'
p2032
(lp2033
I64042349
aI64072347
aS'+'
asS'MMP9'
p2034
(lp2035
I46008907
aI46016561
aS'+'
asS'PTGIS'
p2036
(lp2037
I49503873
aI49568170
aS'-'
asS'TMX4'
p2038
(lp2039
I7977352
aI8019829
aS'-'
asS'ZNF341-AS1'
p2040
(lp2041
I33787372
aI33811099
aS'-'
asS'GGT7'
p2042
(lp2043
I34844719
aI34872858
aS'-'
asS'LOC101927377'
p2044
(lp2045
I47352560
aI47354633
aS'+'
asS'SNRPB'
p2046
(lp2047
I2461634
aI2470853
aS'-'
asS'ANKRD60'
p2048
(lp2049
I58216125
aI58228653
aS'-'
asS'HM13'
p2050
(lp2051
I31514409
aI31569567
aS'+'
asS'LOC105372553'
p2052
(lp2053
I20022504
aI20024978
aS'+'
asS'C20orf85'
p2054
(lp2055
I58150926
aI58161130
aS'+'
asS'PTPRT'
p2056
(lp2057
I42072751
aI43189917
aS'-'
asS'LOC107985382'
p2058
(lp2059
I58944932
aI58967854
aS'-'
asS'DEFB123'
p2060
(lp2061
I31440518
aI31450257
aS'+'
asS'PREX1'
p2062
(lp2063
I48624254
aI48827883
aS'-'
asS'TGIF2'
p2064
(lp2065
I36573472
aI36593952
aS'+'
asS'WISP2'
p2066
(lp2067
I44714843
aI44727812
aS'+'
asS'C20orf166-AS1'
p2068
(lp2069
I62543069
aI62551561
aS'-'
asS'ZBTB46'
p2070
(lp2071
I63743669
aI63832332
aS'-'
asS'SPATA2'
p2072
(lp2073
I49903390
aI49915543
aS'-'
asS'LOC107984001'
p2074
(lp2075
I55664776
aI55745007
aS'-'
asS'SIGLEC1'
p2076
(lp2077
I3686969
aI3712558
aS'-'
as.