(dp1
S'IFT27'
p2
(lp3
I36758201
aI36776133
aS'-'
asS'LOC102724608'
p4
(lp5
I50541382
aI50543005
aS'+'
asS'DRICH1'
p6
(lp7
I23582290
aI23637732
aS'-'
asS'CRKL'
p8
(lp9
I20917397
aI20953748
aS'+'
asS'LOC100996342'
p10
(lp11
I17121594
aI17132104
aS'+'
asS'MIR130B'
p12
(lp13
I21653303
aI21653385
aS'+'
asS'SBF1'
p14
(lp15
I50444999
aI50475071
aS'-'
asS'SNORD139'
p16
(lp17
I39316841
aI39316896
aS'-'
asS'LOC105372981'
p18
(lp19
I27504918
aI27561490
aS'-'
asS'LOC105372980'
p20
(lp21
I27436331
aI27441934
aS'+'
asS'LOC105373100'
p22
(lp23
I50735828
aI50738169
aS'-'
asS'LOC105372985'
p24
(lp25
I29223407
aI29223835
aS'-'
asS'LOC102725072'
p26
(lp27
I18850117
aI18861064
aS'+'
asS'LOC105372988'
p28
(lp29
I30182928
aI30207134
aS'-'
asS'LOC100996598'
p30
(lp31
I41369081
aI41370396
aS'+'
asS'LOC101927202'
p32
(lp33
I39090689
aI39092851
aS'+'
asS'MIF-AS1'
p34
(lp35
I23893709
aI23898930
aS'-'
asS'LOC102723305'
p36
(lp37
I29409569
aI29415438
aS'-'
asS'MIAT'
p38
(lp39
I26657481
aI26676478
aS'+'
asS'LOC101929374'
p40
(lp41
I23433563
aI23435071
aS'+'
asS'LOC100128531'
p42
(lp43
I25102416
aI25112692
aS'-'
asS'LOC101929372'
p44
(lp45
I17580156
aI17589192
aS'-'
asS'LOC102724679'
p46
(lp47
I23326122
aI23342585
aS'+'
asS'LOC105372850'
p48
(lp49
I17563721
aI17570558
aS'-'
asS'LOC105372853'
p50
(lp51
I18055830
aI18073137
aS'+'
asS'RTN4R'
p52
(lp53
I20241414
aI20268293
aS'-'
asS'ISX-AS1'
p54
(lp55
I34902459
aI35023068
aS'-'
asS'LOC105372859'
p56
(lp57
I19291795
aI19351456
aS'+'
asS'LOC105372858'
p58
(lp59
I18209154
aI18211924
aS'+'
asS'PISD'
p60
(lp61
I31618490
aI31630824
aS'-'
asS'MIR6889'
p62
(lp63
I41252991
aI41253050
aS'-'
asS'GSC2'
p64
(lp65
I19148990
aI19150283
aS'-'
asS'LOC105373077'
p66
(lp67
I46734611
aI46736851
aS'-'
asS'IL2RB'
p68
(lp69
I37125837
aI37149922
aS'-'
asS'LOC400927'
p70
(lp71
I38344664
aI38398926
aS'-'
asS'MIR3667'
p72
(lp73
I49543392
aI49543466
aS'-'
asS'TMEM184B'
p74
(lp75
I38216044
aI38273013
aS'-'
asS'PIK3IP1-AS1'
p76
(lp77
I31335348
aI31338021
aS'+'
asS'APOBEC3H'
p78
(lp79
I39097203
aI39104067
aS'+'
asS'LOC105377182'
p80
(lp81
I18758534
aI18769783
aS'-'
asS'LOC101927859'
p82
(lp83
I20340996
aI20352494
aS'+'
asS'LOC105379430'
p84
(lp85
I10846770
aI10848407
aS'+'
asS'LINC00634'
p86
(lp87
I41952186
aI41958942
aS'+'
asS'IGLL3P'
p88
(lp89
I25318256
aI25320227
aS'+'
asS'SNAP29'
p90
(lp91
I20859003
aI20891214
aS'+'
asS'MIRLET7B'
p92
(lp93
I46113685
aI46113768
aS'+'
asS'MICALL1'
p94
(lp95
I37906147
aI37942458
aS'+'
asS'LINC01310'
p96
(lp97
I48866769
aI48898386
aS'+'
asS'LINC01311'
p98
(lp99
I19171705
aI19172832
aS'+'
asS'RHBDD3'
p100
(lp101
I29259865
aI29268196
aS'-'
asS'LOC100652901'
p102
(lp103
I25343581
aI25345261
aS'-'
asS'C22orf23'
p104
(lp105
I37943049
aI37953669
aS'-'
asS'LOC105373091'
p106
(lp107
I49849502
aI49851083
aS'+'
asS'MMP11'
p108
(lp109
I23772818
aI23784316
aS'+'
asS'PRR34-AS1'
p110
(lp111
I46053845
aI46058522
aS'+'
asS'MIR3928'
p112
(lp113
I31160061
aI31160119
aS'-'
asS'APOBEC3A'
p114
(lp115
I38957521
aI38963183
aS'+'
asS'LOC284898'
p116
(lp117
I27048143
aI27060518
aS'-'
asS'MYO18B'
p118
(lp119
I25742133
aI26063847
aS'+'
asS'LOC105372957'
p120
(lp121
I23566969
aI23573098
aS'+'
asS'MIR6816'
p122
(lp123
I20114685
aI20114751
aS'-'
asS'TANGO2'
p124
(lp125
I20016999
aI20067164
aS'+'
asS'MIR6818'
p126
(lp127
I30007048
aI30007113
aS'+'
asS'MIR6819'
p128
(lp129
I36286846
aI36286907
aS'-'
asS'VPREB1'
p130
(lp131
I22244779
aI22245515
aS'+'
asS'LOC105372989'
p132
(lp133
I30420757
aI30432758
aS'-'
asS'VPREB3'
p134
(lp135
I23752742
aI23754443
aS'-'
asS'CRYBA4'
p136
(lp137
I26607981
aI26630672
aS'+'
asS'HSCB'
p138
(lp139
I28742031
aI28757518
aS'+'
asS'LOC107985584'
p140
(lp141
I20696565
aI20698250
aS'+'
asS'LOC107985587'
p142
(lp143
I20592958
aI20603267
aS'-'
asS'MIR650'
p144
(lp145
I22822775
aI22822871
aS'+'
asS'LOC107985581'
p146
(lp147
I48167174
aI48188804
aS'-'
asS'LOC107985580'
p148
(lp149
I23527439
aI23530007
aS'-'
asS'LOC107985582'
p150
(lp151
I26998127
aI27002746
aS'+'
asS'SOX10'
p152
(lp153
I37972311
aI37984532
aS'-'
asS'LOC107985588'
p154
(lp155
I20437969
aI20443203
aS'+'
asS'GRAP2'
p156
(lp157
I39901072
aI39973343
aS'+'
asS'DGCR6L'
p158
(lp159
I20314237
aI20320105
aS'-'
asS'NF2'
p160
(lp161
I29603555
aI29698600
aS'+'
asS'LINC00528'
p162
(lp163
I17777289
aI17779481
aS'+'
asS'GGTLC2'
p164
(lp165
I22644619
aI22647898
aS'+'
asS'TBC1D22A-AS1'
p166
(lp167
I46914091
aI46916042
aS'-'
asS'MIR4762'
p168
(lp169
I45760523
aI45760598
aS'+'
asS'MIR4763'
p170
(lp171
I46113565
aI46113657
aS'+'
asS'MIR4761'
p172
(lp173
I19963752
aI19963834
aS'+'
asS'MIR4766'
p174
(lp175
I40813882
aI40813958
aS'-'
asS'MIR4764'
p176
(lp177
I33436581
aI33436669
aS'-'
asS'LOC105372959'
p178
(lp179
I24005550
aI24008867
aS'+'
asS'LOC105372860'
p180
(lp181
I19447567
aI19454605
aS'+'
asS'LINC01422'
p182
(lp183
I26903291
aI26920611
aS'+'
asS'PPARA'
p184
(lp185
I46150543
aI46243756
aS'+'
asS'CBY1'
p186
(lp187
I38656652
aI38673850
aS'+'
asS'LRRC74B'
p188
(lp189
I21045959
aI21064168
aS'+'
asS'KIAA1656'
p190
(lp191
I30368810
aI30377905
aS'-'
asS'RPL23AP82'
p192
(lp193
I50757085
aI50799637
aS'+'
asS'SULT4A1'
p194
(lp195
I43824506
aI43862498
aS'-'
asS'ZNRF3'
p196
(lp197
I28800656
aI29057488
aS'+'
asS'MB'
p198
(lp199
I35606763
aI35623354
aS'-'
asS'LOC101929255'
p200
(lp201
I22402795
aI22409381
aS'-'
asS'ZDHHC8'
p202
(lp203
I20131840
aI20148007
aS'+'
asS'TCN2'
p204
(lp205
I30607082
aI30627060
aS'+'
asS'C22orf29'
p206
(lp207
I19846137
aI19854848
aS'-'
asS'LOC105373037'
p208
(lp209
I40555176
aI40562196
aS'+'
asS'TUBA3FP'
p210
(lp211
I21008202
aI21014287
aS'-'
asS'LL22NC03-104C7.1'
p212
(lp213
I32578528
aI32587011
aS'+'
asS'EFCAB6'
p214
(lp215
I43528548
aI43812269
aS'-'
asS'C22orf24'
p216
(lp217
I31933520
aI31945362
aS'-'
asS'RFPL1S'
p218
(lp219
I29437014
aI29442129
aS'-'
asS'GUSBP11'
p220
(lp221
I23638486
aI23717423
aS'-'
asS'MIR7109'
p222
(lp223
I31621466
aI31621531
aS'-'
asS'LOC105372944'
p224
(lp225
I21354241
aI21357968
aS'+'
asS'LOC105372942'
p226
(lp227
I18349937
aI18361189
aS'+'
asS'KLHL22'
p228
(lp229
I20441518
aI20496249
aS'-'
asS'LOC105373033'
p230
(lp231
I38963269
aI38969367
aS'-'
asS'SLC2A11'
p232
(lp233
I23856702
aI23886112
aS'+'
asS'LOC105372948'
p234
(lp235
I22820980
aI22884599
aS'-'
asS'LOC105373027'
p236
(lp237
I38078640
aI38080793
aS'+'
asS'CCDC188'
p238
(lp239
I20148112
aI20151828
aS'-'
asS'SERHL2'
p240
(lp241
I42553861
aI42574382
aS'+'
asS'LOC105373024'
p242
(lp243
I37290732
aI37332126
aS'-'
asS'FAM230B'
p244
(lp245
I21166902
aI21192156
aS'+'
asS'LOC105373022'
p246
(lp247
I36888029
aI36889304
aS'-'
asS'LOC105373021'
p248
(lp249
I36703875
aI36767089
aS'+'
asS'FAM230A'
p250
(lp251
I18487126
aI18500594
aS'+'
asS'P2RX6P'
p252
(lp253
I21042391
aI21044249
aS'-'
asS'LOC102723706'
p254
(lp255
I41986085
aI41998662
aS'-'
asS'LOC101928891'
p256
(lp257
I20957091
aI20964680
aS'+'
asS'LOC105373029'
p258
(lp259
I38434023
aI38436696
aS'+'
asS'HIC2'
p260
(lp261
I21417401
aI21451463
aS'+'
asS'PRAME'
p262
(lp263
I22547700
aI22559765
aS'-'
asS'DDTL'
p264
(lp265
I23966837
aI23972559
aS'+'
asS'MIR378I'
p266
(lp267
I41923221
aI41923297
aS'-'
asS'CHKB-CPT1B'
p268
(lp269
I50568860
aI50582999
aS'-'
asS'RSPH14'
p270
(lp271
I23059407
aI23180048
aS'-'
asS'PARVG'
p272
(lp273
I44170227
aI44206655
aS'+'
asS'LOC107985556'
p274
(lp275
I50432335
aI50434959
aS'-'
asS'TUG1'
p276
(lp277
I30969210
aI30979395
aS'+'
asS'LOC107985554'
p278
(lp279
I23285207
aI23290332
aS'-'
asS'LOC107985555'
p280
(lp281
I23392981
aI23394813
aS'+'
asS'MAPK8IP2'
p282
(lp283
I50600795
aI50613978
aS'+'
asS'LOC107985553'
p284
(lp285
I49927427
aI49929306
aS'-'
asS'LOC107985550'
p286
(lp287
I42895526
aI42896869
aS'+'
asS'ARVCF'
p288
(lp289
I19966490
aI20016802
aS'-'
asS'LOC107985558'
p290
(lp291
I23909455
aI23926486
aS'-'
asS'LOC107985559'
p292
(lp293
I23961348
aI23965575
aS'+'
asS'MEI1'
p294
(lp295
I41699502
aI41799456
aS'+'
asS'LOC400927-CSNK1E'
p296
(lp297
I38290690
aI38398522
aS'-'
asS'MCAT'
p298
(lp299
I43132205
aI43143397
aS'-'
asS'ALG12'
p300
(lp301
I49860162
aI49918469
aS'-'
asS'NIPSNAP1'
p302
(lp303
I29554807
aI29581337
aS'-'
asS'SCARF2'
p304
(lp305
I20424583
aI20437859
aS'-'
asS'TRIOBP'
p306
(lp307
I37696987
aI37776556
aS'+'
asS'CCDC116'
p308
(lp309
I21632120
aI21637327
aS'+'
asS'CCDC117'
p310
(lp311
I28772673
aI28789301
aS'+'
asS'APOBEC3G'
p312
(lp313
I39077004
aI39087743
aS'+'
asS'APOBEC3F'
p314
(lp315
I39020453
aI39044423
aS'+'
asS'ATP6V1E1'
p316
(lp317
I17592135
aI17628822
aS'-'
asS'APOBEC3C'
p318
(lp319
I39014259
aI39018838
aS'+'
asS'APOBEC3B'
p320
(lp321
I38982398
aI38992779
aS'+'
asS'SSTR3'
p322
(lp323
I37204236
aI37220451
aS'-'
asS'BPIFC'
p324
(lp325
I32413844
aI32464465
aS'-'
asS'CDC45'
p326
(lp327
I19479277
aI19520608
aS'+'
asS'LOC105372861'
p328
(lp329
I19727720
aI19738960
aS'+'
asS'LOC105372862'
p330
(lp331
I20206036
aI20213800
aS'-'
asS'LOC105372863'
p332
(lp333
I20226944
aI20235971
aS'+'
asS'LOC105372864'
p334
(lp335
I20244792
aI20253854
aS'+'
asS'TUBGCP6'
p336
(lp337
I50217693
aI50245024
aS'-'
asS'CES5AP1'
p338
(lp339
I23359605
aI23382126
aS'-'
asS'MORC2'
p340
(lp341
I30925137
aI30968497
aS'-'
asS'GSTT2'
p342
(lp343
I23980027
aI23983915
aS'+'
asS'TOM1'
p344
(lp345
I35299274
aI35347994
aS'+'
asS'LOC105373089'
p346
(lp347
I49538001
aI49541592
aS'-'
asS'SAMM50'
p348
(lp349
I43955380
aI43996532
aS'+'
asS'EMID1'
p350
(lp351
I29205911
aI29259597
aS'+'
asS'FAM109B'
p352
(lp353
I42074243
aI42079438
aS'+'
asS'MIR301B'
p354
(lp355
I21652980
aI21653058
aS'+'
asS'MIR3653'
p356
(lp357
I29333157
aI29333267
aS'-'
asS'APOBEC3D'
p358
(lp359
I39021112
aI39034328
aS'+'
asS'DDX17'
p360
(lp361
I38483437
aI38506340
aS'-'
asS'MIR4535'
p362
(lp363
I48780294
aI48780353
aS'+'
asS'MIR4534'
p364
(lp365
I37988793
aI37988853
aS'+'
asS'LOC105373064'
p366
(lp367
I45169355
aI45174133
aS'-'
asS'TOB2'
p368
(lp369
I41433491
aI41448230
aS'-'
asS'LL22NC03-86D4.1'
p370
(lp371
I34017450
aI34218732
aS'+'
asS'POTEH'
p372
(lp373
I15690025
aI15721631
aS'+'
asS'APOL6'
p374
(lp375
I35648316
aI35668406
aS'+'
asS'APOL5'
p376
(lp377
I35708423
aI35730279
aS'+'
asS'APOL4'
p378
(lp379
I36189127
aI36204833
aS'-'
asS'APOL3'
p380
(lp381
I36140322
aI36166177
aS'-'
asS'APOL2'
p382
(lp383
I36226208
aI36239954
aS'-'
asS'APOL1'
p384
(lp385
I36253070
aI36267531
aS'+'
asS'TTLL1'
p386
(lp387
I43039515
aI43089428
aS'-'
asS'EP300-AS1'
p388
(lp389
I41185213
aI41197501
aS'-'
asS'FBXW4P1'
p390
(lp391
I23262766
aI23265005
aS'+'
asS'TTLL8'
p392
(lp393
I50018574
aI50058227
aS'-'
asS'LOC284865'
p394
(lp395
I20198729
aI20204918
aS'-'
asS'CRYBB2'
p396
(lp397
I25211659
aI25231869
aS'+'
asS'CRYBB3'
p398
(lp399
I25199311
aI25207617
aS'+'
asS'CRYBB1'
p400
(lp401
I26599277
aI26618103
aS'-'
asS'MIR648'
p402
(lp403
I17980867
aI17980961
aS'-'
asS'MIR649'
p404
(lp405
I21034175
aI21034272
aS'-'
asS'ASCC2'
p406
(lp407
I29788607
aI29838304
aS'-'
asS'KLHDC7B'
p408
(lp409
I50548032
aI50551023
aS'+'
asS'RNU12'
p410
(lp411
I42615244
aI42615393
aS'+'
asS'ARSA'
p412
(lp413
I50622753
aI50628173
aS'-'
asS'THAP7'
p414
(lp415
I20999771
aI21002115
aS'-'
asS'LOC107987326'
p416
(lp417
I44016893
aI44024179
aS'-'
asS'LOC107987325'
p418
(lp419
I18412707
aI18415486
aS'-'
asS'LOC107987324'
p420
(lp421
I15765559
aI15774705
aS'+'
asS'LOC107987323'
p422
(lp423
I12097954
aI12115357
aS'+'
asS'CERK'
p424
(lp425
I46684409
aI46738255
aS'-'
asS'DNAL4'
p426
(lp427
I38778507
aI38794156
aS'-'
asS'EWSR1'
p428
(lp429
I29268008
aI29300525
aS'+'
asS'GTSE1'
p430
(lp431
I46295878
aI46333699
aS'+'
asS'LIF'
p432
(lp433
I30240446
aI30246851
aS'-'
asS'LOC105373068'
p434
(lp435
I45647367
aI45656679
aS'-'
asS'LINC00896'
p436
(lp437
I20206331
aI20208537
aS'+'
asS'LINC00895'
p438
(lp439
I19566129
aI19566839
aS'-'
asS'LOC105373063'
p440
(lp441
I44949300
aI44974199
aS'-'
asS'LOC105373062'
p442
(lp443
I44859323
aI44864239
aS'-'
asS'LINC00898'
p444
(lp445
I47621042
aI47631569
aS'-'
asS'LOC105373060'
p446
(lp447
I44624077
aI44624792
aS'+'
asS'LOC105373067'
p448
(lp449
I45636132
aI45641970
aS'-'
asS'RIBC2'
p450
(lp451
I45413690
aI45432422
aS'+'
asS'MIF'
p452
(lp453
I23894377
aI23895222
aS'+'
asS'HPS4'
p454
(lp455
I26443612
aI26483854
aS'-'
asS'LOC107985568'
p456
(lp457
I50562860
aI50569143
aS'+'
asS'TNRC6B'
p458
(lp459
I40044816
aI40335808
aS'+'
asS'MIRLET7A3'
p460
(lp461
I46112748
aI46112822
aS'+'
asS'SLC25A18'
p462
(lp463
I17562469
aI17590885
aS'+'
asS'SLC25A17'
p464
(lp465
I40769629
aI40819399
aS'-'
asS'MFNG'
p466
(lp467
I37469062
aI37486440
aS'-'
asS'FBLN1'
p468
(lp469
I45502838
aI45601134
aS'+'
asS'ENTHD1'
p470
(lp471
I39743043
aI39893884
aS'-'
asS'BCRP2'
p472
(lp473
I21103015
aI21122286
aS'+'
asS'BCRP3'
p474
(lp475
I24632914
aI24653360
aS'+'
asS'EIF3L'
p476
(lp477
I37848773
aI37888631
aS'+'
asS'EIF3D'
p478
(lp479
I36510849
aI36529230
aS'-'
asS'LOC107984037'
p480
(lp481
I11825456
aI11834829
aS'+'
asS'LOC101928824'
p482
(lp483
I20495947
aI20500878
aS'+'
asS'LOC101928049'
p484
(lp485
I25326878
aI25340153
aS'+'
asS'MTMR3'
p486
(lp487
I29883168
aI30030868
aS'+'
asS'NOL12'
p488
(lp489
I37686336
aI37693478
aS'+'
asS'CENPM'
p490
(lp491
I41927746
aI41947151
aS'-'
asS'RIMBP3B'
p492
(lp493
I21383750
aI21389169
aS'+'
asS'RIMBP3C'
p494
(lp495
I21545665
aI21551461
aS'-'
asS'CCDC157'
p496
(lp497
I30356634
aI30378655
aS'+'
asS'KIAA1644'
p498
(lp499
I44243664
aI44331693
aS'-'
asS'SNU13'
p500
(lp501
I41673932
aI41688909
aS'-'
asS'SNORA92'
p502
(lp503
I38224478
aI38224720
aS'-'
asS'LINC00229'
p504
(lp505
I44606327
aI44625419
aS'-'
asS'SNORD125'
p506
(lp507
I29333162
aI29333258
aS'-'
asS'LINC01521'
p508
(lp509
I31346758
aI31351155
aS'+'
asS'KIAA0930'
p510
(lp511
I45192241
aI45240769
aS'-'
asS'POM121L9P'
p512
(lp513
I24251620
aI24265524
aS'+'
asS'ZNF280B'
p514
(lp515
I22484420
aI22509187
aS'-'
asS'ZNF280A'
p516
(lp517
I22513735
aI22520281
aS'-'
asS'YDJC'
p518
(lp519
I21628088
aI21630326
aS'-'
asS'MRPL40'
p520
(lp521
I19431901
aI19436078
aS'+'
asS'XPNPEP3'
p522
(lp523
I40857080
aI40932819
aS'+'
asS'SDC4P'
p524
(lp525
I30481289
aI30481756
aS'-'
asS'CYB5R3'
p526
(lp527
I42617839
aI42649399
aS'-'
asS'CRELD2'
p528
(lp529
I49918629
aI49927540
aS'+'
asS'LOC105377203'
p530
(lp531
I42145451
aI42149500
aS'-'
asS'MIR3619'
p532
(lp533
I46091043
aI46091126
aS'+'
asS'MIR3618'
p534
(lp535
I20085745
aI20085833
aS'+'
asS'ARFGAP3'
p536
(lp537
I42796525
aI42857402
aS'-'
asS'LOC105377205'
p538
(lp539
I49832695
aI49853528
aS'-'
asS'CBX6'
p540
(lp541
I38861426
aI38872334
aS'-'
asS'LRRC75B'
p542
(lp543
I24585619
aI24593079
aS'-'
asS'TPST2'
p544
(lp545
I26524081
aI26590125
aS'-'
asS'LOC284933'
p546
(lp547
I48538899
aI48547387
aS'-'
asS'ADORA2A'
p548
(lp549
I24423596
aI24442360
aS'+'
asS'LOC105377191'
p550
(lp551
I21419760
aI21422416
aS'-'
asS'LOC105377190'
p552
(lp553
I21359595
aI21360702
aS'-'
asS'YPEL1'
p554
(lp555
I21697535
aI21735834
aS'-'
asS'CABIN1'
p556
(lp557
I24011191
aI24178628
aS'+'
asS'CYP2D7'
p558
(lp559
I42140202
aI42144575
aS'-'
asS'LOC105373096'
p560
(lp561
I50318027
aI50321420
aS'+'
asS'LOC105377199'
p562
(lp563
I36388054
aI36411040
aS'+'
asS'MKL1'
p564
(lp565
I40410280
aI40636719
aS'-'
asS'MIR3201'
p566
(lp567
I48274363
aI48274415
aS'+'
asS'DERL3'
p568
(lp569
I23834502
aI23839120
aS'-'
asS'SF3A1'
p570
(lp571
I30331987
aI30356947
aS'-'
asS'SDF2L1'
p572
(lp573
I21642252
aI21644299
aS'+'
asS'TXNRD2'
p574
(lp575
I19875517
aI19941992
aS'-'
asS'CLDN5'
p576
(lp577
I19523026
aI19527545
aS'-'
asS'MIR33A'
p578
(lp579
I41900943
aI41901012
aS'+'
asS'LINC01315'
p580
(lp581
I42364399
aI42369208
aS'-'
asS'LOC105373098'
p582
(lp583
I50542302
aI50544778
aS'-'
asS'HDAC10'
p584
(lp585
I50245182
aI50251405
aS'-'
asS'MIR1306'
p586
(lp587
I20086057
aI20086142
aS'+'
asS'SERPIND1'
p588
(lp589
I20774094
aI20787720
aS'+'
asS'WBP2NL'
p590
(lp591
I41998724
aI42058456
aS'+'
asS'TMEM211'
p592
(lp593
I24934772
aI24939177
aS'-'
asS'DEPDC5'
p594
(lp595
I31753950
aI31907034
aS'+'
asS'SRRD'
p596
(lp597
I26483866
aI26494620
aS'+'
asS'SHISA8'
p598
(lp599
I41907179
aI41915093
aS'-'
asS'SEZ6L'
p600
(lp601
I26169473
aI26383597
aS'+'
asS'LOC105372995'
p602
(lp603
I31108053
aI31122938
aS'-'
asS'EFCAB6-AS1'
p604
(lp605
I43516253
aI43536605
aS'+'
asS'ISX'
p606
(lp607
I35066135
aI35087387
aS'+'
asS'PIWIL3'
p608
(lp609
I24719033
aI24774720
aS'-'
asS'PI4KA'
p610
(lp611
I20707690
aI20858812
aS'-'
asS'MIRLET7BHG'
p612
(lp613
I46085996
aI46113928
aS'+'
asS'RFPL1'
p614
(lp615
I29403030
aI29442491
aS'+'
asS'RFPL3'
p616
(lp617
I32354884
aI32361161
aS'+'
asS'RFPL2'
p618
(lp619
I32190437
aI32204844
aS'-'
asS'SH3BP1'
p620
(lp621
I37639676
aI37656043
aS'+'
asS'CBX7'
p622
(lp623
I39130771
aI39152661
aS'-'
asS'LOC284930'
p624
(lp625
I47631673
aI47855600
aS'+'
asS'ADSL'
p626
(lp627
I40346499
aI40387408
aS'+'
asS'RASL10A'
p628
(lp629
I29312932
aI29319618
aS'-'
asS'GAS2L1'
p630
(lp631
I29306617
aI29312787
aS'+'
asS'MYH9'
p632
(lp633
I36281276
aI36388067
aS'-'
asS'DNAJB7'
p634
(lp635
I40859548
aI40862126
aS'-'
asS'NUP50-AS1'
p636
(lp637
I45133757
aI45163781
aS'-'
asS'LOC101929638'
p638
(lp639
I29180622
aI29205834
aS'-'
asS'C22orf39'
p640
(lp641
I19440885
aI19448232
aS'-'
asS'TTC28'
p642
(lp643
I27978013
aI28679865
aS'-'
asS'LOC100507599'
p644
(lp645
I26512509
aI26514568
aS'+'
asS'PVALB'
p646
(lp647
I36800700
aI36819473
aS'-'
asS'C22orf31'
p648
(lp649
I29058671
aI29073974
aS'-'
asS'TBC1D22A'
p650
(lp651
I46762620
aI47224975
aS'+'
asS'RANBP1'
p652
(lp653
I20115937
aI20127357
aS'+'
asS'C22orf34'
p654
(lp655
I49414523
aI49657542
aS'-'
asS'LOC102724653'
p656
(lp657
I22087766
aI22098619
aS'-'
asS'LOC105372971'
p658
(lp659
I26161909
aI26169296
aS'-'
asS'LOC105372976'
p660
(lp661
I26794347
aI26803028
aS'+'
asS'LOC105372977'
p662
(lp663
I27187515
aI27189215
aS'+'
asS'LOC105372974'
p664
(lp665
I26240049
aI26254348
aS'-'
asS'PRR5-ARHGAP8'
p666
(lp667
I44702197
aI44862784
aS'+'
asS'MIR185'
p668
(lp669
I20033138
aI20033220
aS'+'
asS'LOC105372979'
p670
(lp671
I27320540
aI27322221
aS'-'
asS'CELSR1'
p672
(lp673
I46360833
aI46537170
aS'-'
asS'RABL2B'
p674
(lp675
I50767499
aI50783705
aS'-'
asS'LOC105373012'
p676
(lp677
I34349676
aI34362313
aS'-'
asS'LOC105373013'
p678
(lp679
I34638064
aI34665898
aS'+'
asS'LOC105373016'
p680
(lp681
I34946389
aI34968171
aS'+'
asS'LOC105373017'
p682
(lp683
I35232661
aI35258804
aS'-'
asS'LOC105373014'
p684
(lp685
I34764127
aI34767748
aS'+'
asS'LOC105373015'
p686
(lp687
I34947085
aI34952782
aS'-'
asS'JOSD1'
p688
(lp689
I38685553
aI38701418
aS'-'
asS'LOC105373018'
p690
(lp691
I36461082
aI36462804
aS'-'
asS'EP300'
p692
(lp693
I41092609
aI41180077
aS'+'
asS'TSPO'
p694
(lp695
I43151513
aI43163242
aS'+'
asS'PPP6R2'
p696
(lp697
I50343316
aI50445090
aS'+'
asS'LOC100507657'
p698
(lp699
I27310650
aI27317840
aS'+'
asS'RTCB'
p700
(lp701
I32387574
aI32412287
aS'-'
asS'ANKRD62P1-PARP4P3'
p702
(lp703
I16653707
aI16675540
aS'-'
asS'TFIP11'
p704
(lp705
I26491926
aI26512496
aS'-'
asS'IGLL1'
p706
(lp707
I23573128
aI23580548
aS'-'
asS'CECR5-AS1'
p708
(lp709
I17159388
aI17165445
aS'+'
asS'IGLL5'
p710
(lp711
I22887779
aI22895834
aS'+'
asS'LOC100996415'
p712
(lp713
I18178025
aI18205863
aS'-'
asS'MIR6817'
p714
(lp715
I25455645
aI25455711
aS'+'
asS'LOC107985541'
p716
(lp717
I29470875
aI29478070
aS'-'
asS'LOC105372972'
p718
(lp719
I26152150
aI26164287
aS'+'
asS'LOC107985543'
p720
(lp721
I22790673
aI22819303
aS'-'
asS'LOC107985542'
p722
(lp723
I22757216
aI22760551
aS'-'
asS'LOC107985545'
p724
(lp725
I32619341
aI32628543
aS'+'
asS'LOC107985544'
p726
(lp727
I30881811
aI30887426
aS'-'
asS'LOC107985546'
p728
(lp729
I25327559
aI25336163
aS'-'
asS'LOC107985549'
p730
(lp731
I28840005
aI28848840
aS'+'
asS'SLC5A1'
p732
(lp733
I32043031
aI32113029
aS'+'
asS'H1F0'
p734
(lp735
I37805106
aI37807436
aS'+'
asS'TRMT2A'
p736
(lp737
I20111867
aI20117305
aS'-'
asS'GAL3ST1'
p738
(lp739
I30554634
aI30574588
aS'-'
asS'LARGE-AS1'
p740
(lp741
I33724985
aI33750817
aS'+'
asS'LOC105373085'
p742
(lp743
I49047479
aI49052405
aS'-'
asS'DRG1'
p744
(lp745
I31399552
aI31434186
aS'+'
asS'LOC105373086'
p746
(lp747
I49095655
aI49098633
aS'+'
asS'LOC105373081'
p748
(lp749
I48351339
aI48360755
aS'+'
asS'BIK'
p750
(lp751
I43110747
aI43129712
aS'+'
asS'LOC105373083'
p752
(lp753
I48554617
aI48557260
aS'-'
asS'SUN2'
p754
(lp755
I38734713
aI38756019
aS'-'
asS'LOC105379428'
p756
(lp757
I12809947
aI12815310
aS'-'
asS'BID'
p758
(lp759
I17734139
aI17774665
aS'-'
asS'LOC100506679'
p760
(lp761
I43038584
aI43052366
aS'+'
asS'PRR5'
p762
(lp763
I44668546
aI44737681
aS'+'
asS'PNPLA5'
p764
(lp765
I43879677
aI43892013
aS'-'
asS'LOC101929350'
p766
(lp767
I16746868
aI16748438
aS'-'
asS'YWHAH'
p768
(lp769
I31944492
aI31957603
aS'+'
asS'MED15'
p770
(lp771
I20507541
aI20587632
aS'+'
asS'LOC105372871'
p772
(lp773
I18634540
aI18635687
aS'+'
asS'XRCC6'
p774
(lp775
I41621162
aI41664048
aS'+'
asS'LOC105372978'
p776
(lp777
I27221294
aI27224727
aS'-'
asS'PACSIN2'
p778
(lp779
I42869772
aI43015690
aS'-'
asS'SPECC1L-ADORA2A'
p780
(lp781
I24270816
aI24442360
aS'+'
asS'RAC2'
p782
(lp783
I37225260
aI37244299
aS'-'
asS'ZC3H7B'
p784
(lp785
I41301502
aI41360147
aS'+'
asS'CDC42EP1'
p786
(lp787
I37559777
aI37569405
aS'+'
asS'LOC102724900'
p788
(lp789
I27331339
aI27357546
aS'+'
asS'LOC107985534'
p790
(lp791
I27138351
aI27149137
aS'+'
asS'LOC102723507'
p792
(lp793
I36121180
aI36136398
aS'-'
asS'LOC107985536'
p794
(lp795
I48098801
aI48100205
aS'+'
asS'MGAT3'
p796
(lp797
I39447165
aI39492194
aS'+'
asS'SGSM3'
p798
(lp799
I40370529
aI40410289
aS'+'
asS'SGSM1'
p800
(lp801
I24806220
aI24926846
aS'+'
asS'A4GALT'
p802
(lp803
I42692114
aI42721301
aS'-'
asS'FAM227A'
p804
(lp805
I38578119
aI38656629
aS'-'
asS'LOC107985538'
p806
(lp807
I40372682
aI40389336
aS'-'
asS'CYTH4'
p808
(lp809
I37282382
aI37315348
aS'+'
asS'MIR6820'
p810
(lp811
I37967562
aI37967624
aS'+'
asS'BMS1P20'
p812
(lp813
I22298097
aI22322968
aS'+'
asS'TXN2'
p814
(lp815
I36467035
aI36482025
aS'-'
asS'BMS1P22'
p816
(lp817
I15805697
aI15820884
aS'-'
asS'LOC105379518'
p818
(lp819
I18233148
aI18235228
aS'+'
asS'LOC730668'
p820
(lp821
I46006615
aI46010777
aS'+'
asS'POM121L4P'
p822
(lp823
I20689554
aI20691721
aS'+'
asS'LOC105372960'
p824
(lp825
I24394213
aI24402613
aS'-'
asS'TYMP'
p826
(lp827
I50525751
aI50530085
aS'-'
asS'LOC101927257'
p828
(lp829
I40521799
aI40526707
aS'+'
asS'CACNG2'
p830
(lp831
I36560868
aI36702645
aS'-'
asS'TOP1P2'
p832
(lp833
I24764500
aI24766021
aS'+'
asS'LOC107983973'
p834
(lp835
I22695828
aI22711594
aS'-'
asS'MORC2-AS1'
p836
(lp837
I30922307
aI30926654
aS'+'
asS'RRP7A'
p838
(lp839
I42508334
aI42519823
aS'-'
asS'PPIL2'
p840
(lp841
I21665983
aI21698276
aS'+'
asS'MIR658'
p842
(lp843
I37844271
aI37844371
aS'-'
asS'POM121L1P'
p844
(lp845
I22631556
aI22644541
aS'-'
asS'DUXAP8'
p846
(lp847
I15784953
aI15827434
aS'+'
asS'TIMP3'
p848
(lp849
I32800815
aI32863041
aS'+'
asS'HSFY1P1'
p850
(lp851
I16827473
aI16829335
aS'+'
asS'POLR3H'
p852
(lp853
I41525798
aI41544606
aS'-'
asS'CACNA1I'
p854
(lp855
I39570752
aI39689735
aS'+'
asS'LOC105373019'
p856
(lp857
I36498162
aI36498931
aS'+'
asS'TMEM191B'
p858
(lp859
I18527801
aI18531920
aS'+'
asS'TMEM191C'
p860
(lp861
I21467169
aI21469935
aS'+'
asS'TMEM191A'
p862
(lp863
I20701113
aI20704603
aS'+'
asS'LL22NC03-102D1.18'
p864
(lp865
I22692755
aI22694014
aS'-'
asS'PLA2G6'
p866
(lp867
I38111494
aI38192099
aS'-'
asS'PLA2G3'
p868
(lp869
I31134806
aI31140607
aS'-'
asS'EIF4ENIF1'
p870
(lp871
I31436962
aI31489619
aS'-'
asS'LOC102724378'
p872
(lp873
I37738725
aI37747166
aS'-'
asS'ADM2'
p874
(lp875
I50481723
aI50486437
aS'+'
asS'LOC105373057'
p876
(lp877
I43836041
aI43836938
aS'+'
asS'LOC105373054'
p878
(lp879
I43399902
aI43409681
aS'+'
asS'KCNJ4'
p880
(lp881
I38426326
aI38455199
aS'-'
asS'TRMU'
p882
(lp883
I46335400
aI46357340
aS'+'
asS'LOC105373053'
p884
(lp885
I43373993
aI43391426
aS'-'
asS'PEX26'
p886
(lp887
I18077919
aI18091031
aS'+'
asS'LOC105373051'
p888
(lp889
I43212673
aI43213661
aS'+'
asS'SLC25A1'
p890
(lp891
I19175574
aI19178863
aS'-'
asS'LOC105373058'
p892
(lp893
I43818533
aI43824414
aS'+'
asS'LOC105373059'
p894
(lp895
I44537967
aI44549526
aS'-'
asS'LOC105373069'
p896
(lp897
I45635980
aI45656596
aS'+'
asS'PRR14L'
p898
(lp899
I31681346
aI31750134
aS'-'
asS'LOC101927051'
p900
(lp901
I37641831
aI37658377
aS'-'
asS'SNORD83A'
p902
(lp903
I39315212
aI39315307
aS'-'
asS'PATZ1'
p904
(lp905
I31325803
aI31346263
aS'-'
asS'SNORD83B'
p906
(lp907
I39313818
aI39313911
aS'-'
asS'BRD1'
p908
(lp909
I49773282
aI49827927
aS'-'
asS'SNRPD3'
p910
(lp911
I24555649
aI24574964
aS'+'
asS'HIRA'
p912
(lp913
I19330700
aI19431696
aS'-'
asS'PES1'
p914
(lp915
I30576624
aI30607013
aS'-'
asS'RNF185'
p916
(lp917
I31160151
aI31207019
aS'+'
asS'SFI1'
p918
(lp919
I31496140
aI31618554
aS'+'
asS'INPP5J'
p920
(lp921
I31107735
aI31134697
aS'+'
asS'GALR3'
p922
(lp923
I37823381
aI37825495
aS'+'
asS'RNF215'
p924
(lp925
I30378811
aI30387313
aS'-'
asS'RBX1'
p926
(lp927
I40951346
aI40973015
aS'+'
asS'LZTR1'
p928
(lp929
I20982268
aI20999037
aS'+'
asS'SCO2'
p930
(lp931
I50523567
aI50526439
aS'-'
asS'CSF2RB'
p932
(lp933
I36913573
aI36940449
aS'+'
asS'MIR6069'
p934
(lp935
I35336720
aI35336799
aS'-'
asS'GAB4'
p936
(lp937
I16961935
aI17008222
aS'-'
asS'KIAA1671'
p938
(lp939
I24952687
aI25197448
aS'+'
asS'LOC101927393'
p940
(lp941
I42871274
aI42873388
aS'+'
asS'LARGE'
p942
(lp943
I33162236
aI33920476
aS'-'
asS'ARHGAP8'
p944
(lp945
I44752557
aI44862784
aS'+'
asS'SEPT5'
p946
(lp947
I19714463
aI19723322
aS'+'
asS'CHKB'
p948
(lp949
I50578957
aI50582999
aS'-'
asS'SEPT3'
p950
(lp951
I41969454
aI41998221
aS'+'
asS'PITPNB'
p952
(lp953
I27851668
aI27919306
aS'-'
asS'PPM1F'
p954
(lp955
I21919418
aI21952878
aS'-'
asS'LOC107985535'
p956
(lp957
I45876552
aI45889621
aS'-'
asS'FLJ41941'
p958
(lp959
I18029384
aI18037968
aS'+'
asS'USP41'
p960
(lp961
I20363620
aI20390758
aS'-'
asS'PNPLA3'
p962
(lp963
I43923738
aI43947568
aS'+'
asS'LOC105372935'
p964
(lp965
I21192789
aI21204020
aS'-'
asS'LOC107985529'
p966
(lp967
I27825477
aI27828984
aS'-'
asS'PIK3IP1'
p968
(lp969
I31281592
aI31292534
aS'-'
asS'RRP7BP'
p970
(lp971
I42573243
aI42582011
aS'-'
asS'CHEK2'
p972
(lp973
I28687742
aI28741866
aS'-'
asS'LOC107985578'
p974
(lp975
I36847371
aI36870408
aS'-'
asS'LOC107985579'
p976
(lp977
I30483050
aI30486384
aS'+'
asS'LOC642648'
p978
(lp979
I46067463
aI46071470
aS'-'
asS'LOC107985570'
p980
(lp981
I44179545
aI44181257
aS'-'
asS'LOC107985571'
p982
(lp983
I44218454
aI44220078
aS'+'
asS'LOC107985573'
p984
(lp985
I17198282
aI17199542
aS'-'
asS'LOC107985574'
p986
(lp987
I36744174
aI36746341
aS'-'
asS'LOC107985575'
p988
(lp989
I39277359
aI39279940
aS'+'
asS'LOC107985576'
p990
(lp991
I37259471
aI37265557
aS'-'
asS'DDT'
p992
(lp993
I23971364
aI23979828
aS'-'
asS'LOC107985577'
p994
(lp995
I23768225
aI23772104
aS'+'
asS'PCAT14'
p996
(lp997
I23538101
aI23547306
aS'+'
asS'LOC105379418'
p998
(lp999
I10742026
aI10753062
aS'+'
asS'LOC107985551'
p1000
(lp1001
I42063215
aI42065731
aS'-'
asS'SCUBE1'
p1002
(lp1003
I43203222
aI43343388
aS'-'
asS'LINC00207'
p1004
(lp1005
I44569339
aI44572449
aS'+'
asS'RBFOX2'
p1006
(lp1007
I35738735
aI36028892
aS'-'
asS'GNAZ'
p1008
(lp1009
I23070482
aI23125034
aS'+'
asS'NPTXR'
p1010
(lp1011
I38818450
aI38844012
aS'-'
asS'LINC01589'
p1012
(lp1013
I45604431
aI45605647
aS'-'
asS'PHF5A'
p1014
(lp1015
I41459716
aI41468704
aS'-'
asS'MCHR1'
p1016
(lp1017
I40679177
aI40682814
aS'+'
asS'SYN3'
p1018
(lp1019
I32508021
aI33058391
aS'-'
asS'TOP3B'
p1020
(lp1021
I21954379
aI21982822
aS'-'
asS'PANX2'
p1022
(lp1023
I50170730
aI50180295
aS'+'
asS'SEC14L3'
p1024
(lp1025
I30447958
aI30472015
aS'-'
asS'SEC14L2'
p1026
(lp1027
I30396940
aI30425303
aS'+'
asS'ODF3B'
p1028
(lp1029
I50530408
aI50532579
aS'-'
asS'SEC14L6'
p1030
(lp1031
I30522796
aI30546717
aS'-'
asS'SEC14L4'
p1032
(lp1033
I30488149
aI30505711
aS'-'
asS'TBX1'
p1034
(lp1035
I19756702
aI19783593
aS'+'
asS'GTSE1-AS1'
p1036
(lp1037
I46295142
aI46296660
aS'-'
asS'FBXO7'
p1038
(lp1039
I32474681
aI32498829
aS'+'
asS'CHCHD10'
p1040
(lp1041
I23765833
aI23767972
aS'-'
asS'DENND6B'
p1042
(lp1043
I50309031
aI50327088
aS'-'
asS'BCR'
p1044
(lp1045
I23180364
aI23318037
aS'+'
asS'CSDC2'
p1046
(lp1047
I41561009
aI41576666
aS'+'
asS'ZNRF3-AS1'
p1048
(lp1049
I29024998
aI29031476
aS'-'
asS'GSTTP1'
p1050
(lp1051
I23998400
aI24005361
aS'-'
asS'LOC101927474'
p1052
(lp1053
I43570087
aI43571760
aS'+'
asS'SYCE3'
p1054
(lp1055
I50551111
aI50562899
aS'-'
asS'UQCR10'
p1056
(lp1057
I29767368
aI29770413
aS'+'
asS'CSNK1E'
p1058
(lp1059
I38290690
aI38318084
aS'-'
asS'LOC105373095'
p1060
(lp1061
I50208460
aI50210174
aS'-'
asS'NDUFA6'
p1062
(lp1063
I42085525
aI42090884
aS'-'
asS'CCDC134'
p1064
(lp1065
I41800609
aI41832164
aS'+'
asS'LL22NC03-13G6.2'
p1066
(lp1067
I34191193
aI34210567
aS'-'
asS'TSSK2'
p1068
(lp1069
I19130807
aI19132623
aS'+'
asS'RIMBP3'
p1070
(lp1071
I18606123
aI18611919
aS'-'
asS'CDPF1'
p1072
(lp1073
I46244012
aI46250679
aS'-'
asS'COMT'
p1074
(lp1075
I19941739
aI19969975
aS'+'
asS'RFPL3S'
p1076
(lp1077
I32359905
aI32371264
aS'-'
asS'SMTN'
p1078
(lp1079
I31081295
aI31104624
aS'+'
asS'GUCD1'
p1080
(lp1081
I24540422
aI24555935
aS'-'
asS'LOC101927447'
p1082
(lp1083
I43275941
aI43283830
aS'+'
asS'ATXN10'
p1084
(lp1085
I45671797
aI45845307
aS'+'
asS'LGALS2'
p1086
(lp1087
I37570245
aI37580017
aS'-'
asS'LGALS1'
p1088
(lp1089
I37675605
aI37679802
aS'+'
asS'OSBP2'
p1090
(lp1091
I30693781
aI30907824
aS'+'
asS'LOC102723722'
p1092
(lp1093
I42128861
aI42137554
aS'+'
asS'NUP50'
p1094
(lp1095
I45163844
aI45188011
aS'+'
asS'LOC101927499'
p1096
(lp1097
I44312941
aI44314999
aS'+'
asS'GNB1L'
p1098
(lp1099
I19788410
aI19854939
aS'-'
asS'CARD10'
p1100
(lp1101
I37490361
aI37519203
aS'-'
asS'LOC729461'
p1102
(lp1103
I18361829
aI18386526
aS'-'
asS'CABP7'
p1104
(lp1105
I29720354
aI29731833
aS'+'
asS'SLC5A4'
p1106
(lp1107
I32218422
aI32355057
aS'-'
asS'LMF2'
p1108
(lp1109
I50502948
aI50507840
aS'-'
asS'ATP5L2'
p1110
(lp1111
I42639802
aI42640601
aS'-'
asS'HMGXB4'
p1112
(lp1113
I35257273
aI35295807
aS'+'
asS'LIMK2'
p1114
(lp1115
I31212263
aI31280080
aS'+'
asS'LOC105373007'
p1116
(lp1117
I33573391
aI33588609
aS'+'
asS'LOC105373006'
p1118
(lp1119
I33108528
aI33116294
aS'+'
asS'PRAMENP'
p1120
(lp1121
I21991098
aI22043934
aS'-'
asS'LOC105373000'
p1122
(lp1123
I32106178
aI32121752
aS'-'
asS'LOC105373003'
p1124
(lp1125
I32587213
aI32589050
aS'+'
asS'LOC105373002'
p1126
(lp1127
I32640947
aI32663205
aS'+'
asS'LOC105373066'
p1128
(lp1129
I45498269
aI45500987
aS'-'
asS'MIR3909'
p1130
(lp1131
I35335639
aI35335758
aS'+'
asS'NEFH'
p1132
(lp1133
I29480191
aI29491290
aS'+'
asS'FAM83F'
p1134
(lp1135
I39994948
aI40030039
aS'+'
asS'DMC1'
p1136
(lp1137
I38509153
aI38570286
aS'-'
asS'LOC100996401'
p1138
(lp1139
I18527053
aI18527702
aS'+'
asS'XBP1'
p1140
(lp1141
I28794559
aI28800572
aS'-'
asS'LOC100996404'
p1142
(lp1143
I25561119
aI25564895
aS'-'
asS'LOC101927526'
p1144
(lp1145
I44443326
aI44444788
aS'+'
asS'CPT1B'
p1146
(lp1147
I50568860
aI50578667
aS'-'
asS'SMARCB1'
p1148
(lp1149
I23786930
aI23834518
aS'+'
asS'LOC100996335'
p1150
(lp1151
I21301259
aI21326636
aS'-'
asS'LOC105373087'
p1152
(lp1153
I49497144
aI49524246
aS'+'
asS'CHADL'
p1154
(lp1155
I41209100
aI41241773
aS'-'
asS'LOC105372990'
p1156
(lp1157
I30432685
aI30436501
aS'+'
asS'LOC105372991'
p1158
(lp1159
I30448129
aI30452774
aS'+'
asS'MCM5'
p1160
(lp1161
I35400067
aI35454942
aS'+'
asS'LOC105372994'
p1162
(lp1163
I30872269
aI30879827
aS'-'
asS'DUSP18'
p1164
(lp1165
I30652050
aI30667890
aS'-'
asS'LOC105372997'
p1166
(lp1167
I31292943
aI31303303
aS'-'
asS'LOC105372998'
p1168
(lp1169
I31925249
aI31928514
aS'-'
asS'LOC105372999'
p1170
(lp1171
I31970829
aI32037566
aS'+'
asS'MIR548J'
p1172
(lp1173
I26555211
aI26555323
aS'-'
asS'LOC105373080'
p1174
(lp1175
I48340029
aI48341735
aS'+'
asS'THAP7-AS1'
p1176
(lp1177
I21001921
aI21010374
aS'+'
asS'NCAPH2'
p1178
(lp1179
I50508215
aI50524780
aS'+'
asS'TTC38'
p1180
(lp1181
I46267963
aI46294008
aS'+'
asS'MIR5739'
p1182
(lp1183
I28459868
aI28459948
aS'+'
asS'MPPED1'
p1184
(lp1185
I43412414
aI43507848
aS'+'
asS'NFAM1'
p1186
(lp1187
I42380406
aI42438155
aS'-'
asS'MTFP1'
p1188
(lp1189
I30425622
aI30429054
aS'+'
asS'LOC105372969'
p1190
(lp1191
I25280702
aI25283094
aS'-'
asS'LOC105372968'
p1192
(lp1193
I25282887
aI25302545
aS'+'
asS'LOC105372964'
p1194
(lp1195
I25633165
aI25638788
aS'+'
asS'UFD1L'
p1196
(lp1197
I19449940
aI19479215
aS'-'
asS'LOC105372963'
p1198
(lp1199
I25883092
aI25901526
aS'-'
asS'LOC105372962'
p1200
(lp1201
I24700983
aI24707746
aS'-'
asS'LOC105372947'
p1202
(lp1203
I22920052
aI22924966
aS'-'
asS'LINC01399'
p1204
(lp1205
I35119823
aI35231056
aS'-'
asS'MIR3198-1'
p1206
(lp1207
I17764179
aI17764259
aS'-'
asS'LOC105369161'
p1208
(lp1209
I46944659
aI46956082
aS'+'
asS'NDUFA6-AS1'
p1210
(lp1211
I42090932
aI42125349
aS'+'
asS'RGL4'
p1212
(lp1213
I23690860
aI23699176
aS'+'
asS'LPEQ6126'
p1214
(lp1215
I47115479
aI47117290
aS'-'
asS'UPB1'
p1216
(lp1217
I24495059
aI24528681
aS'+'
asS'ZNF70'
p1218
(lp1219
I23741583
aI23751092
aS'-'
asS'LOC105369162'
p1220
(lp1221
I48577039
aI48596199
aS'+'
asS'ZNF74'
p1222
(lp1223
I20394114
aI20408463
aS'+'
asS'DGCR9'
p1224
(lp1225
I19017833
aI19020248
aS'+'
asS'DGCR8'
p1226
(lp1227
I20080231
aI20111877
aS'+'
asS'LOC642643'
p1228
(lp1229
I18733913
aI18757894
aS'+'
asS'DGCR2'
p1230
(lp1231
I19036281
aI19122454
aS'-'
asS'DGCR5'
p1232
(lp1233
I18970497
aI19031242
aS'+'
asS'GRK3'
p1234
(lp1235
I25564893
aI25729292
aS'+'
asS'DGCR6'
p1236
(lp1237
I18906222
aI18912088
aS'+'
asS'MPST'
p1238
(lp1239
I37019641
aI37029822
aS'+'
asS'MICAL3'
p1240
(lp1241
I17787648
aI18024559
aS'-'
asS'SUSD2'
p1242
(lp1243
I24181475
aI24189106
aS'+'
asS'THOC5'
p1244
(lp1245
I29508166
aI29554254
aS'-'
asS'SMDT1'
p1246
(lp1247
I42079686
aI42084284
aS'+'
asS'FAM19A5'
p1248
(lp1249
I48489459
aI48751935
aS'+'
asS'RANGAP1'
p1250
(lp1251
I41244776
aI41302213
aS'-'
asS'CRYBB2P1'
p1252
(lp1253
I25448086
aI25461678
aS'+'
asS'LOC100506271'
p1254
(lp1255
I37352189
aI37354839
aS'-'
asS'LOC102724801'
p1256
(lp1257
I26137648
aI26154409
aS'-'
asS'CCT8L2'
p1258
(lp1259
I16590757
aI16592810
aS'-'
asS'MIR6821'
p1260
(lp1261
I49962865
aI49962939
aS'+'
asS'HORMAD2-AS1'
p1262
(lp1263
I30008741
aI30080480
aS'-'
asS'AP1B1'
p1264
(lp1265
I29327679
aI29388583
aS'-'
asS'ELFN2'
p1266
(lp1267
I37340643
aI37427470
aS'-'
asS'LOC102723769'
p1268
(lp1269
I11897405
aI11956534
aS'+'
asS'KCTD17'
p1270
(lp1271
I37051724
aI37063390
aS'+'
asS'MIR1286'
p1272
(lp1273
I20249133
aI20249211
aS'-'
asS'LOC107985590'
p1274
(lp1275
I35573422
aI35589060
aS'-'
asS'C22orf46'
p1276
(lp1277
I41688938
aI41698136
aS'+'
asS'ADORA2A-AS1'
p1278
(lp1279
I24429205
aI24495074
aS'-'
asS'C22orf42'
p1280
(lp1281
I32149005
aI32160436
aS'-'
asS'L3MBTL2'
p1282
(lp1283
I41205191
aI41231271
aS'+'
asS'LOC105373023'
p1284
(lp1285
I36918471
aI36925979
aS'-'
asS'IL17REL'
p1286
(lp1287
I49993577
aI50013827
aS'-'
asS'ASPHD2'
p1288
(lp1289
I26429313
aI26445012
aS'+'
asS'LOC105373043'
p1290
(lp1291
I41447857
aI41448898
aS'+'
asS'SLC16A8'
p1292
(lp1293
I38078136
aI38083163
aS'-'
asS'RASD2'
p1294
(lp1295
I35540491
aI35554003
aS'+'
asS'ANKRD54'
p1296
(lp1297
I37830853
aI37848994
aS'-'
asS'LINC00899'
p1298
(lp1299
I46039906
aI46044868
aS'-'
asS'SLC7A4'
p1300
(lp1301
I21028717
aI21032558
aS'-'
asS'LOC105373020'
p1302
(lp1303
I36496168
aI36497969
aS'+'
asS'RPL3'
p1304
(lp1305
I39312881
aI39319665
aS'-'
asS'PHF21B'
p1306
(lp1307
I44881161
aI45009928
aS'-'
asS'SPECC1L'
p1308
(lp1309
I24270816
aI24417740
aS'+'
asS'UBE2L3'
p1310
(lp1311
I21549446
aI21624034
aS'+'
asS'LL22NC03-63E9.3'
p1312
(lp1313
I22559342
aI22566599
aS'+'
asS'TOMM22'
p1314
(lp1315
I38681948
aI38684760
aS'+'
asS'KREMEN1'
p1316
(lp1317
I29073077
aI29168333
aS'+'
asS'MIR1281'
p1318
(lp1319
I41092512
aI41092566
aS'+'
asS'LOC101927183'
p1320
(lp1321
I38424270
aI38432008
aS'+'
asS'LRP5L'
p1322
(lp1323
I25351417
aI25405410
aS'-'
asS'TRABD'
p1324
(lp1325
I50185888
aI50199599
aS'+'
asS'POTEH-AS1'
p1326
(lp1327
I15700385
aI15703354
aS'-'
asS'OSM'
p1328
(lp1329
I30262827
aI30266843
aS'-'
asS'LOC101929738'
p1330
(lp1331
I18846448
aI18848852
aS'+'
asS'GRAMD4'
p1332
(lp1333
I46577181
aI46682755
aS'+'
asS'MAFF'
p1334
(lp1335
I38201931
aI38216511
aS'+'
asS'LOC105372955'
p1336
(lp1337
I23510492
aI23513334
aS'-'
asS'MIR659'
p1338
(lp1339
I37847677
aI37847774
aS'-'
asS'SMC1B'
p1340
(lp1341
I45344064
aI45413671
aS'-'
asS'LOC105372952'
p1342
(lp1343
I22294095
aI22298046
aS'-'
asS'FAM118A'
p1344
(lp1345
I45309199
aI45341955
aS'+'
asS'MN1'
p1346
(lp1347
I27748276
aI27801498
aS'-'
asS'LOC102724638'
p1348
(lp1349
I22877485
aI22881090
aS'-'
asS'LOC105373075'
p1350
(lp1351
I46548747
aI46553893
aS'+'
asS'LOC105373035'
p1352
(lp1353
I39500491
aI39502151
aS'-'
asS'GATSL3'
p1354
(lp1355
I30285117
aI30289627
aS'-'
asS'POLR2F'
p1356
(lp1357
I37953662
aI38041915
aS'+'
asS'LOC105373030'
p1358
(lp1359
I38410355
aI38424193
aS'-'
asS'LOC105373031'
p1360
(lp1361
I38570499
aI38571358
aS'+'
asS'LOC105373032'
p1362
(lp1363
I38886286
aI38926459
aS'+'
asS'KDELR3'
p1364
(lp1365
I38468061
aI38483447
aS'+'
asS'TPTEP1'
p1366
(lp1367
I16601910
aI16648830
aS'+'
asS'ACO2'
p1368
(lp1369
I41469124
aI41528989
aS'+'
asS'LOC105373038'
p1370
(lp1371
I40651868
aI40655237
aS'+'
asS'TTC28-AS1'
p1372
(lp1373
I27919375
aI28002679
aS'+'
asS'LOC100130899'
p1374
(lp1375
I40032331
aI40036577
aS'+'
asS'GSTT2B'
p1376
(lp1377
I23957413
aI23961201
aS'-'
asS'MIR5571'
p1378
(lp1379
I22886266
aI22886379
aS'+'
asS'SERHL'
p1380
(lp1381
I42500578
aI42512560
aS'+'
asS'LOC101929426'
p1382
(lp1383
I18093113
aI18093669
aS'-'
asS'GGT3P'
p1384
(lp1385
I18773688
aI18791961
aS'-'
asS'HMOX1'
p1386
(lp1387
I35381066
aI35394214
aS'+'
asS'POM121L10P'
p1388
(lp1389
I24645165
aI24659147
aS'-'
asS'PRODH'
p1390
(lp1391
I18912773
aI18936553
aS'-'
asS'LOC107985537'
p1392
(lp1393
I45456869
aI45458390
aS'-'
asS'CHKB-AS1'
p1394
(lp1395
I50583025
aI50595281
aS'+'
asS'AIFM3'
p1396
(lp1397
I20965129
aI20981360
aS'+'
asS'WNT7B'
p1398
(lp1399
I45920365
aI45977128
aS'-'
asS'LOC102723780'
p1400
(lp1401
I10940596
aI10961529
aS'-'
asS'IL17RA'
p1402
(lp1403
I17084958
aI17115694
aS'+'
asS'TUBA8'
p1404
(lp1405
I18110686
aI18131731
aS'+'
asS'LOC107985532'
p1406
(lp1407
I21657291
aI21662363
aS'+'
asS'NCF4'
p1408
(lp1409
I36860987
aI36878017
aS'+'
asS'LINC01297'
p1410
(lp1411
I15746673
aI15778289
aS'+'
asS'LOC107985562'
p1412
(lp1413
I38970427
aI38971703
aS'-'
asS'LOC107985561'
p1414
(lp1415
I32327167
aI32346383
aS'-'
asS'NAGA'
p1416
(lp1417
I42058333
aI42070842
aS'-'
asS'LOC107985567'
p1418
(lp1419
I41675760
aI41679043
aS'-'
asS'LOC107985566'
p1420
(lp1421
I46746098
aI46750218
aS'-'
asS'LOC107985565'
p1422
(lp1423
I33921252
aI33922766
aS'+'
asS'LOC107985564'
p1424
(lp1425
I43812487
aI43815781
aS'+'
asS'ACR'
p1426
(lp1427
I50738223
aI50745299
aS'+'
asS'LOC105373042'
p1428
(lp1429
I41372238
aI41381834
aS'-'
asS'MAPK11'
p1430
(lp1431
I50263712
aI50270393
aS'-'
asS'MAPK12'
p1432
(lp1433
I50252901
aI50261759
aS'-'
asS'MIR3200'
p1434
(lp1435
I30731556
aI30731641
aS'+'
asS'MGAT3-AS1'
p1436
(lp1437
I39475806
aI39476822
aS'-'
asS'LOC105373044'
p1438
(lp1439
I41551708
aI41560883
aS'-'
asS'LOC105373047'
p1440
(lp1441
I42122181
aI42123582
aS'-'
asS'POLDIP3'
p1442
(lp1443
I42583720
aI42614962
aS'-'
asS'BAIAP2L2'
p1444
(lp1445
I38084888
aI38110944
aS'-'
asS'TEF'
p1446
(lp1447
I41367332
aI41399328
aS'+'
asS'GP1BB'
p1448
(lp1449
I19723542
aI19724774
aS'+'
asS'PMM1'
p1450
(lp1451
I41576885
aI41589867
aS'-'
asS'MAPK1'
p1452
(lp1453
I21759656
aI21867680
aS'-'
asS'MIATNB'
p1454
(lp1455
I26672842
aI26780893
aS'+'
asS'TCF20'
p1456
(lp1457
I42160012
aI42283927
aS'-'
asS'PI4KAP1'
p1458
(lp1459
I18533863
aI18548828
aS'-'
asS'PI4KAP2'
p1460
(lp1461
I21472997
aI21517491
aS'-'
asS'CECR1'
p1462
(lp1463
I17178789
aI17221854
aS'-'
asS'CECR2'
p1464
(lp1465
I17359948
aI17558155
aS'+'
asS'CECR3'
p1466
(lp1467
I17256858
aI17266733
aS'-'
asS'CECR5'
p1468
(lp1469
I17137519
aI17165287
aS'-'
asS'CECR6'
p1470
(lp1471
I17116298
aI17121367
aS'-'
asS'CECR7'
p1472
(lp1473
I17036569
aI17058792
aS'+'
asS'MIOX'
p1474
(lp1475
I50483987
aI50490051
aS'+'
asS'LOC100652871'
p1476
(lp1477
I23935476
aI23942861
aS'+'
asS'LOC101927344'
p1478
(lp1479
I42438022
aI42454251
aS'+'
asS'GGA1'
p1480
(lp1481
I37607234
aI37633564
aS'+'
asS'PARVB'
p1482
(lp1483
I43999210
aI44169233
aS'+'
asS'OR11H1'
p1484
(lp1485
I15528158
aI15529139
aS'+'
asS'GCAT'
p1486
(lp1487
I37807904
aI37817176
aS'+'
asS'LDOC1L'
p1488
(lp1489
I44492569
aI44498125
aS'-'
asS'LOC101929839'
p1490
(lp1491
I15819005
aI15821252
aS'+'
asS'TNFRSF13C'
p1492
(lp1493
I41925031
aI41926817
aS'-'
asS'MGC20647'
p1494
(lp1495
I30246168
aI30246993
aS'+'
asS'APOBEC3B-AS1'
p1496
(lp1497
I38991558
aI38998220
aS'-'
asS'XKR3'
p1498
(lp1499
I16783411
aI16825412
aS'-'
asS'SYNGR1'
p1500
(lp1501
I39349948
aI39385588
aS'+'
asS'MIR3199-1'
p1502
(lp1503
I27920524
aI27920612
aS'-'
asS'MIR3199-2'
p1504
(lp1505
I27920525
aI27920611
aS'+'
asS'PICK1'
p1506
(lp1507
I38056310
aI38075704
aS'+'
asS'LOC107985563'
p1508
(lp1509
I39066251
aI39069983
aS'+'
asS'LL22NC03-75H12.2'
p1510
(lp1511
I47461298
aI47487111
aS'-'
asS'SREBF2'
p1512
(lp1513
I41833078
aI41907308
aS'+'
asS'AP1B1P1'
p1514
(lp1515
I32121976
aI32133469
aS'+'
asS'PRR34'
p1516
(lp1517
I46050458
aI46054144
aS'-'
asS'SNORD43'
p1518
(lp1519
I39319051
aI39319113
aS'-'
asS'ZMAT5'
p1520
(lp1521
I29730955
aI29767011
aS'-'
asS'ST13'
p1522
(lp1523
I40824534
aI40857008
aS'-'
asS'LOC105379516'
p1524
(lp1525
I12130746
aI12167072
aS'-'
asS'DESI1'
p1526
(lp1527
I41598027
aI41621057
aS'-'
asS'TEX33'
p1528
(lp1529
I36991123
aI37007864
aS'-'
asS'LOC100506472'
p1530
(lp1531
I39432159
aI39437128
aS'+'
asS'GTPBP1'
p1532
(lp1533
I38704563
aI38738265
aS'+'
asS'PDXP'
p1534
(lp1535
I37658729
aI37666932
aS'+'
asS'LOC101929594'
p1536
(lp1537
I28513871
aI28550926
aS'-'
asS'MIR1249'
p1538
(lp1539
I45200953
aI45201019
aS'-'
asS'LOC388882'
p1540
(lp1541
I23462081
aI23486980
aS'-'
asS'TST'
p1542
(lp1543
I37010858
aI37020183
aS'-'
asS'ZBED4'
p1544
(lp1545
I49853848
aI49890078
aS'+'
asS'LOC284912'
p1546
(lp1547
I35627575
aI35637934
aS'-'
asS'P2RX6'
p1548
(lp1549
I21009698
aI21028013
aS'+'
asS'LOC339666'
p1550
(lp1551
I32376663
aI32384343
aS'+'
asS'RAB36'
p1552
(lp1553
I23145303
aI23169285
aS'+'
asS'BCL2L13'
p1554
(lp1555
I17628854
aI17729530
aS'+'
asS'UPK3A'
p1556
(lp1557
I45284986
aI45295874
aS'+'
asS'POM121L8P'
p1558
(lp1559
I21282424
aI21297730
aS'+'
asS'RPS19BP1'
p1560
(lp1561
I39529092
aI39532855
aS'-'
asS'FOXRED2'
p1562
(lp1563
I36487185
aI36507101
aS'-'
asS'C22orf15'
p1564
(lp1565
I23762521
aI23765861
aS'+'
asS'TTLL12'
p1566
(lp1567
I43166621
aI43187131
aS'-'
asS'SLC35E4'
p1568
(lp1569
I30635814
aI30669016
aS'+'
asS'MIEF1'
p1570
(lp1571
I39500099
aI39518134
aS'+'
asS'PLXNB2'
p1572
(lp1573
I50274978
aI50307637
aS'-'
asS'PDGFB'
p1574
(lp1575
I39223358
aI39245055
aS'-'
asS'PIM3'
p1576
(lp1577
I49960494
aI49964072
aS'+'
asS'LOC105373071'
p1578
(lp1579
I45891369
aI45894416
aS'+'
asS'LOC105373074'
p1580
(lp1581
I46161041
aI46172355
aS'-'
asS'SNORD140'
p1582
(lp1583
I41073607
aI41073721
aS'-'
asS'TMPRSS6'
p1584
(lp1585
I37065435
aI37109701
aS'-'
asS'OGFRP1'
p1586
(lp1587
I42269752
aI42274862
aS'+'
asS'GGT2'
p1588
(lp1589
I21207971
aI21282982
aS'-'
asS'LOC101927372'
p1590
(lp1591
I42501888
aI42505859
aS'-'
asS'GGT1'
p1592
(lp1593
I24583749
aI24629005
aS'+'
asS'GGT5'
p1594
(lp1595
I24219653
aI24245142
aS'-'
asS'HORMAD2'
p1596
(lp1597
I30080068
aI30207182
aS'+'
asS'CLTCL1'
p1598
(lp1599
I19179472
aI19291716
aS'-'
asS'USP18'
p1600
(lp1601
I18149958
aI18177397
aS'+'
asS'MOV10L1'
p1602
(lp1603
I50090005
aI50161705
aS'+'
asS'SHANK3'
p1604
(lp1605
I50674641
aI50733212
aS'+'
asS'SELM'
p1606
(lp1607
I31104776
aI31107565
aS'-'
asS'LL22NC01-81G9.3'
p1608
(lp1609
I36965247
aI36968172
aS'+'
asS'SELO'
p1610
(lp1611
I50200978
aI50217616
aS'+'
asS'CYP2D6'
p1612
(lp1613
I42125530
aI42130875
aS'-'
asS'TAB1'
p1614
(lp1615
I39399753
aI39437127
aS'+'
asS'C1QTNF6'
p1616
(lp1617
I37180165
aI37199400
aS'-'
asS'ZDHHC8P1'
p1618
(lp1619
I23390604
aI23402612
aS'-'
asS'DGCR11'
p1620
(lp1621
I19046161
aI19048375
aS'-'
asS'DGCR10'
p1622
(lp1623
I19022623
aI19023550
aS'+'
asS'MLC1'
p1624
(lp1625
I50059390
aI50085929
aS'-'
asS'LOC100996432'
p1626
(lp1627
I18865042
aI18894431
aS'-'
asS'DGCR14'
p1628
(lp1629
I19130278
aI19144677
aS'-'
asS'ATF4'
p1630
(lp1631
I39519708
aI39522686
aS'+'
asS'PKDREJ'
p1632
(lp1633
I46255662
aI46263322
aS'-'
asS'TBC1D10A'
p1634
(lp1635
I30291989
aI30326966
aS'-'
asS'SEPT5-GP1BB'
p1636
(lp1637
I19717219
aI19724774
aS'+'
as.