(dp1
S'LOC105372824'
p2
(lp3
I43736999
aI43738097
aS'+'
asS'LOC105372825'
p4
(lp5
I43778629
aI43779274
aS'-'
asS'LOC105372826'
p6
(lp7
I43945402
aI43946350
aS'-'
asS'LOC105372821'
p8
(lp9
I43176217
aI43190513
aS'+'
asS'SUMO3'
p10
(lp11
I44805616
aI44818129
aS'-'
asS'LOC105372829'
p12
(lp13
I43993466
aI43997511
aS'+'
asS'IFNAR2'
p14
(lp15
I33229894
aI33264513
aS'+'
asS'IFNAR1'
p16
(lp17
I33324442
aI33360361
aS'+'
asS'BRWD1-IT2'
p18
(lp19
I39313906
aI39314915
aS'+'
asS'N6AMT1'
p20
(lp21
I28571094
aI28885366
aS'-'
asS'LOC105377139'
p22
(lp23
I44172146
aI44191773
aS'-'
asS'C2CD2'
p24
(lp25
I41885109
aI41953957
aS'-'
asS'WDR4'
p26
(lp27
I42843079
aI42879583
aS'-'
asS'WRB'
p28
(lp29
I39380286
aI39397889
aS'+'
asS'LOC105372838'
p30
(lp31
I45327343
aI45331052
aS'-'
asS'MCM3AP-AS1'
p32
(lp33
I46229230
aI46251701
aS'+'
asS'SMIM11B'
p34
(lp35
I7744961
aI7772253
aS'+'
asS'SMIM11A'
p36
(lp37
I34375490
aI34402777
aS'+'
asS'MIR3648-1'
p38
(lp39
I8208472
aI8208652
aS'+'
asS'MIR3648-2'
p40
(lp41
I8986998
aI8987178
aS'+'
asS'LOC107985512'
p42
(lp43
I23413892
aI23423676
aS'-'
asS'LOC107985513'
p44
(lp45
I38351867
aI38355929
aS'+'
asS'LOC107985511'
p46
(lp47
I17191573
aI17271161
aS'+'
asS'LOC107985516'
p48
(lp49
I24987064
aI24993055
aS'-'
asS'LOC107985515'
p50
(lp51
I34726836
aI34743938
aS'+'
asS'LOC101928576'
p52
(lp53
I5101730
aI5103182
aS'+'
asS'KCNJ6'
p54
(lp55
I37624222
aI37916438
aS'-'
asS'LOC107985499'
p56
(lp57
I39709821
aI39723903
aS'-'
asS'LOC107985494'
p58
(lp59
I22555181
aI22560576
aS'+'
asS'HMGN1'
p60
(lp61
I39342314
aI39349121
aS'-'
asS'RRP1B'
p62
(lp63
I43659550
aI43696079
aS'+'
asS'MX2'
p64
(lp65
I41361985
aI41408943
aS'+'
asS'LOC107985492'
p66
(lp67
I36700515
aI36709131
aS'+'
asS'LOC102724188'
p68
(lp69
I13546032
aI13558461
aS'+'
asS'LOC102724951'
p70
(lp71
I7430636
aI7469008
aS'+'
asS'MIR6814'
p72
(lp73
I41746771
aI41746841
aS'-'
asS'MIR6815'
p74
(lp75
I45478265
aI45478326
aS'+'
asS'SAMSN1'
p76
(lp77
I14485227
aI14583402
aS'-'
asS'LOC102724184'
p78
(lp79
I5011162
aI5017158
aS'+'
asS'LOC102724219'
p80
(lp81
I5553636
aI5592004
aS'+'
asS'RWDD2B'
p82
(lp83
I29005758
aI29019371
aS'-'
asS'BACH1'
p84
(lp85
I29305203
aI29361896
aS'+'
asS'LOC105372763'
p86
(lp87
I27635661
aI27675798
aS'+'
asS'LOC105372762'
p88
(lp89
I27425208
aI27449819
aS'-'
asS'LOC105372760'
p90
(lp91
I26854893
aI26911426
aS'+'
asS'LOC105372767'
p92
(lp93
I29176432
aI29183094
aS'+'
asS'LOC105372766'
p94
(lp95
I28993095
aI28994186
aS'+'
asS'LOC102724354'
p96
(lp97
I6059028
aI6076305
aS'+'
asS'LOC105372764'
p98
(lp99
I28391688
aI28397026
aS'+'
asS'AGPAT3'
p100
(lp101
I43865234
aI43987594
aS'+'
asS'LOC105372768'
p102
(lp103
I29555718
aI29577698
aS'+'
asS'LOC101927615'
p104
(lp105
I9045566
aI9064980
aS'+'
asS'LOC101928398'
p106
(lp107
I38857538
aI38858862
aS'+'
asS'MIR4760'
p108
(lp109
I40212351
aI40212431
aS'-'
asS'TEKT4P2'
p110
(lp111
I9068355
aI9129761
aS'-'
asS'KRTAP10-12'
p112
(lp113
I44697171
aI44698044
aS'+'
asS'LINC01424'
p114
(lp115
I44802240
aI44804717
aS'+'
asS'LINC01425'
p116
(lp117
I21746984
aI21797415
aS'+'
asS'LINC01426'
p118
(lp119
I34745824
aI34784886
aS'+'
asS'LOC107983987'
p120
(lp121
I7788584
aI7793926
aS'-'
asS'KRTAP10-11'
p122
(lp123
I44646413
aI44647650
aS'+'
asS'LINC01423'
p124
(lp125
I38326358
aI38346076
aS'-'
asS'LOC284825'
p126
(lp127
I28048413
aI28137609
aS'+'
asS'LL21NC02-21A1.1'
p128
(lp129
I45403805
aI45405442
aS'-'
asS'C21orf59'
p130
(lp131
I32601673
aI32612608
aS'-'
asS'HLCS'
p132
(lp133
I36750887
aI36990245
aS'-'
asS'CBS'
p134
(lp135
I43053189
aI43076868
aS'-'
asS'RIPPLY3'
p136
(lp137
I37006149
aI37019659
aS'+'
asS'FTCD'
p138
(lp139
I46135987
aI46156481
aS'-'
asS'LOC102724502'
p140
(lp141
I32958887
aI32960566
aS'+'
asS'BACH1-IT2'
p142
(lp143
I29372500
aI29373980
aS'+'
asS'LOC105377134'
p144
(lp145
I14027398
aI14060948
aS'+'
asS'LOC105377137'
p146
(lp147
I43388598
aI43392290
aS'-'
asS'LOC105377136'
p148
(lp149
I32879698
aI32932240
aS'+'
asS'RCAN1'
p150
(lp151
I34516441
aI34615142
aS'-'
asS'LOC105377138'
p152
(lp153
I44158745
aI44160189
aS'-'
asS'KRTAP10-8'
p154
(lp155
I44612078
aI44612954
aS'+'
asS'B3GALT5-AS1'
p156
(lp157
I39597146
aI39612822
aS'-'
asS'WRB-SH3BGR'
p158
(lp159
I39380243
aI39515506
aS'+'
asS'MIR6724-4'
p160
(lp161
I8432529
aI8432621
aS'+'
asS'SAMSN1-AS1'
p162
(lp163
I14582201
aI14598303
aS'+'
asS'MIR6724-1'
p164
(lp165
I8205314
aI8205406
aS'+'
asS'MIR6724-3'
p166
(lp167
I8388361
aI8388453
aS'+'
asS'MIR6724-2'
p168
(lp169
I8249504
aI8249596
aS'+'
asS'NDUFV3'
p170
(lp171
I42893270
aI42911396
aS'+'
asS'CRYZL1'
p172
(lp173
I33589340
aI33641854
aS'-'
asS'LOC101928796'
p174
(lp175
I45972969
aI45974953
aS'+'
asS'RBM11'
p176
(lp177
I14216129
aI14228372
aS'+'
asS'MIR99A'
p178
(lp179
I16539088
aI16539169
aS'+'
asS'BRWD1'
p180
(lp181
I39184175
aI39321595
aS'-'
asS'MIR155HG'
p182
(lp183
I25562144
aI25575168
aS'+'
asS'SCAF4'
p184
(lp185
I31670999
aI31732118
aS'-'
asS'LOC101928435'
p186
(lp187
I38974428
aI38977774
aS'-'
asS'OLIG2'
p188
(lp189
I33025907
aI33029196
aS'+'
asS'OLIG1'
p190
(lp191
I33070143
aI33072422
aS'+'
asS'LOC102723451'
p192
(lp193
I7769591
aI7770723
aS'-'
asS'TSPEAR-AS1'
p194
(lp195
I44506043
aI44516575
aS'+'
asS'ADARB1'
p196
(lp197
I45074577
aI45226563
aS'+'
asS'LOC106780825'
p198
(lp199
I6532206
aI6532776
aS'-'
asS'MIR6130'
p200
(lp201
I23079283
aI23079392
aS'+'
asS'LOC642852'
p202
(lp203
I45288051
aI45297354
aS'+'
asS'C21orf91-OT1'
p204
(lp205
I17777403
aI17792509
aS'-'
asS'C21orf62-AS1'
p206
(lp207
I32772099
aI32797707
aS'+'
asS'B3GALT5'
p208
(lp209
I39612939
aI39662889
aS'+'
asS'IGSF5'
p210
(lp211
I39725837
aI39802081
aS'+'
asS'DOPEY2'
p212
(lp213
I36156781
aI36294274
aS'+'
asS'ERG'
p214
(lp215
I38367260
aI38661780
aS'-'
asS'LOC105372750'
p216
(lp217
I23812616
aI23876400
aS'+'
asS'CHAF1B'
p218
(lp219
I36380144
aI36416827
aS'+'
asS'MIR8069-2'
p220
(lp221
I13724188
aI13724274
aS'+'
asS'DIP2A-IT1'
p222
(lp223
I46462470
aI46469306
aS'+'
asS'SIM2'
p224
(lp225
I36699132
aI36749917
aS'+'
asS'SLC37A1'
p226
(lp227
I42499631
aI42581440
aS'+'
asS'C21orf58'
p228
(lp229
I46300425
aI46323886
aS'-'
asS'CH507-42P11.6'
p230
(lp231
I6084372
aI6088242
aS'-'
asS'LOC105379502'
p232
(lp233
I7383972
aI7386734
aS'+'
asS'LOC105379503'
p234
(lp235
I7419506
aI7423929
aS'-'
asS'LOC105379501'
p236
(lp237
I7037727
aI7042150
aS'-'
asS'LOC105379506'
p238
(lp239
I8222167
aI8223494
aS'+'
asS'LOC105379507'
p240
(lp241
I8449373
aI8450680
aS'+'
asS'LOC105379504'
p242
(lp243
I7776071
aI7792109
aS'+'
asS'LOC105379505'
p244
(lp245
I7854002
aI7857007
aS'-'
asS'LOC105379508'
p246
(lp247
I8405246
aI8406493
aS'+'
asS'POTED'
p248
(lp249
I13610176
aI13641585
aS'+'
asS'LOC101927869'
p250
(lp251
I24304549
aI24321377
aS'-'
asS'C21orf91'
p252
(lp253
I17788966
aI17819386
aS'-'
asS'ITGB2'
p254
(lp255
I44885952
aI44928873
aS'-'
asS'LOC105378260'
p256
(lp257
I10462897
aI10514209
aS'+'
asS'ERVH48-1'
p258
(lp259
I42917250
aI42925598
aS'-'
asS'KRTAP10-1'
p260
(lp261
I44539184
aI44540195
aS'-'
asS'BACE2'
p262
(lp263
I41167800
aI41282534
aS'+'
asS'MGC39584'
p264
(lp265
I9781847
aI9821061
aS'-'
asS'LOC102724449'
p266
(lp267
I31655273
aI31659555
aS'-'
asS'TFF3'
p268
(lp269
I42311666
aI42315596
aS'-'
asS'LOC102723380'
p270
(lp271
I43465132
aI43467509
aS'+'
asS'MIR4759'
p272
(lp273
I26953960
aI26954043
aS'+'
asS'EVA1C'
p274
(lp275
I32411691
aI32515400
aS'+'
asS'MORC3'
p276
(lp277
I36320188
aI36376646
aS'+'
asS'USP25'
p278
(lp279
I15729946
aI15880062
aS'+'
asS'LOC102723996'
p280
(lp281
I5022043
aI5046678
aS'+'
asS'ADAMTS5'
p282
(lp283
I26917911
aI26967120
aS'-'
asS'ADAMTS1'
p284
(lp285
I26836286
aI26845409
aS'-'
asS'C21orf33'
p286
(lp287
I44133611
aI44145723
aS'+'
asS'TSPEAR'
p288
(lp289
I44497891
aI44711580
aS'-'
asS'LINC00308'
p290
(lp291
I22098616
aI22116528
aS'+'
asS'DYRK1A'
p292
(lp293
I37365789
aI37515178
aS'+'
asS'URB1'
p294
(lp295
I32311018
aI32393003
aS'-'
asS'LINC00307'
p296
(lp297
I30209150
aI30211783
aS'-'
asS'LOC105372837'
p298
(lp299
I45307191
aI45312266
aS'+'
asS'LOC105372836'
p300
(lp301
I45055868
aI45073903
aS'-'
asS'LOC105372835'
p302
(lp303
I45090410
aI45101766
aS'-'
asS'CH507-145C22.1'
p304
(lp305
I6319915
aI6353819
aS'+'
asS'LOC105372832'
p306
(lp307
I5055734
aI5062892
aS'+'
asS'LIPI'
p308
(lp309
I14108812
aI14210891
aS'-'
asS'LOC105372839'
p310
(lp311
I45347460
aI45353538
aS'+'
asS'CYYR1'
p312
(lp313
I26466208
aI26573404
aS'-'
asS'SNORA91'
p314
(lp315
I41948104
aI41948282
aS'-'
asS'LOC102725065'
p316
(lp317
I44207660
aI44210115
aS'+'
asS'PTTG1IP'
p318
(lp319
I44849584
aI44873903
aS'-'
asS'ZNF295-AS1'
p320
(lp321
I42009193
aI42024920
aS'+'
asS'APP'
p322
(lp323
I25880549
aI26171128
aS'-'
asS'LOC105379490'
p324
(lp325
I6001466
aI6009381
aS'+'
asS'LOC105379491'
p326
(lp327
I6274044
aI6278467
aS'+'
asS'PDXK'
p328
(lp329
I43719096
aI43762307
aS'+'
asS'LOC107985509'
p330
(lp331
I22401979
aI22408407
aS'-'
asS'LOC107985508'
p332
(lp333
I22200750
aI22403096
aS'+'
asS'IL10RB'
p334
(lp335
I33266359
aI33297234
aS'+'
asS'LOC105379497'
p336
(lp337
I6710658
aI6715081
aS'-'
asS'LOC107985505'
p338
(lp339
I33028818
aI33035308
aS'-'
asS'LOC105379499'
p340
(lp341
I6984226
aI6996280
aS'-'
asS'LOC107985507'
p342
(lp343
I37698658
aI37714315
aS'+'
asS'LOC107985506'
p344
(lp345
I6095868
aI6103406
aS'-'
asS'LOC107985500'
p346
(lp347
I39779203
aI39788489
aS'-'
asS'LOC107985502'
p348
(lp349
I42040658
aI42055129
aS'+'
asS'MIR99AHG'
p350
(lp351
I16070487
aI16631727
aS'+'
asS'LOC388820'
p352
(lp353
I34418714
aI34423966
aS'-'
asS'LOC107985479'
p354
(lp355
I42784913
aI42792036
aS'+'
asS'C21orf2'
p356
(lp357
I44328943
aI44339417
aS'-'
asS'U2AF1'
p358
(lp359
I43092955
aI43108291
aS'-'
asS'CLDN8'
p360
(lp361
I30214005
aI30216151
aS'-'
asS'TPTE'
p362
(lp363
I10521513
aI10606270
aS'+'
asS'KRTAP11-1'
p364
(lp365
I30880643
aI30881555
aS'-'
asS'JAM2'
p366
(lp367
I25639281
aI25717562
aS'+'
asS'DSCR10'
p368
(lp369
I38206155
aI38208644
aS'+'
asS'MRAP'
p370
(lp371
I32291812
aI32314784
aS'+'
asS'KRTAP10-10'
p372
(lp373
I44637355
aI44638455
aS'+'
asS'LOC400867'
p374
(lp375
I38877290
aI38938429
aS'-'
asS'MIR3197'
p376
(lp377
I41167556
aI41167629
aS'+'
asS'LOC107987288'
p378
(lp379
I6134474
aI6135752
aS'-'
asS'LOC107987289'
p380
(lp381
I6135284
aI6142051
aS'-'
asS'PIGP'
p382
(lp383
I37065363
aI37073158
aS'-'
asS'LOC101928269'
p384
(lp385
I35954659
aI36004667
aS'-'
asS'LINC00334'
p386
(lp387
I45234339
aI45258730
aS'+'
asS'LOC105372758'
p388
(lp389
I26431736
aI26437479
aS'-'
asS'LOC105372759'
p390
(lp391
I27204506
aI27239161
aS'+'
asS'LOC105372756'
p392
(lp393
I25862345
aI25866480
aS'+'
asS'LOC105372757'
p394
(lp395
I25800150
aI25806993
aS'-'
asS'LOC105372754'
p396
(lp397
I25571180
aI25581343
aS'-'
asS'MIR8069-1'
p398
(lp399
I6859170
aI6859256
aS'+'
asS'LOC105372753'
p400
(lp401
I25493528
aI25519477
aS'-'
asS'LINC00515'
p402
(lp403
I25582774
aI25583224
aS'-'
asS'LOC105372751'
p404
(lp405
I24428739
aI24547942
aS'+'
asS'LOC101927745'
p406
(lp407
I15370486
aI15444783
aS'-'
asS'CDC27P9'
p408
(lp409
I8239233
aI8243081
aS'-'
asS'LOC101930094'
p410
(lp411
I42496538
aI42497443
aS'+'
asS'PCNT'
p412
(lp413
I46324102
aI46445769
aS'+'
asS'RSPH1'
p414
(lp415
I42472485
aI42496354
aS'-'
asS'RRP1'
p416
(lp417
I43789536
aI43804102
aS'+'
asS'LOC107985482'
p418
(lp419
I13705880
aI13713853
aS'+'
asS'ANKRD30BP2'
p420
(lp421
I13038165
aI13118251
aS'+'
asS'CBSL'
p422
(lp423
I6444867
aI6468606
aS'-'
asS'LOC107985488'
p424
(lp425
I31589008
aI31598759
aS'-'
asS'LOC107985489'
p426
(lp427
I25564686
aI25571067
aS'-'
asS'LOC107985484'
p428
(lp429
I39028529
aI39084533
aS'-'
asS'LOC107985485'
p430
(lp431
I45586933
aI45615803
aS'-'
asS'LOC107985486'
p432
(lp433
I29434201
aI29459965
aS'+'
asS'LOC107985487'
p434
(lp435
I31160650
aI31165300
aS'+'
asS'LOC107985480'
p436
(lp437
I38784051
aI38788916
aS'+'
asS'LOC107985481'
p438
(lp439
I33565562
aI33573394
aS'-'
asS'BAGE2'
p440
(lp441
I10413531
aI10491615
aS'+'
asS'LOC107985483'
p442
(lp443
I15105130
aI15122436
aS'-'
asS'MIR548XHG'
p444
(lp445
I18561264
aI18759812
aS'-'
asS'LOC101928311'
p446
(lp447
I42777818
aI42779994
aS'-'
asS'TRAPPC10'
p448
(lp449
I44012324
aI44106552
aS'+'
asS'CLIC6'
p450
(lp451
I34669162
aI34718227
aS'+'
asS'LOC102724652'
p452
(lp453
I6560723
aI6564489
aS'+'
asS'CSTB'
p454
(lp455
I43773664
aI43776375
aS'-'
asS'RUNX1-IT1'
p456
(lp457
I35037924
aI35039426
aS'-'
asS'LOC105372815'
p458
(lp459
I42351218
aI42363359
aS'+'
asS'LOC105372814'
p460
(lp461
I42209427
aI42220235
aS'-'
asS'MX1'
p462
(lp463
I41420328
aI41459213
aS'+'
asS'CXADR'
p464
(lp465
I17513015
aI17636213
aS'+'
asS'GRIK1'
p466
(lp467
I29536932
aI29940052
aS'-'
asS'LOC102724159'
p468
(lp469
I5130870
aI5154767
aS'-'
asS'LOC105372812'
p470
(lp471
I41637880
aI41641787
aS'+'
asS'SLC5A3'
p472
(lp473
I34073522
aI34106262
aS'+'
asS'LINC00649'
p474
(lp475
I33931121
aI33971186
aS'+'
asS'LINC01547'
p476
(lp477
I44933283
aI44939913
aS'-'
asS'LOC102724843'
p478
(lp479
I6318421
aI7087230
aS'+'
asS'BRWD1-AS1'
p480
(lp481
I39315706
aI39323218
aS'+'
asS'SPATC1L'
p482
(lp483
I46161147
aI46185159
aS'-'
asS'LOC102723360'
p484
(lp485
I7669396
aI7692201
aS'-'
asS'KRTAP6-3'
p486
(lp487
I30592439
aI30593055
aS'+'
asS'KRTAP6-2'
p488
(lp489
I30598685
aI30598874
aS'-'
asS'KRTAP6-1'
p490
(lp491
I30613685
aI30613904
aS'-'
asS'ETS2'
p492
(lp493
I38805306
aI38824955
aS'+'
asS'PFKL'
p494
(lp495
I44300033
aI44327381
aS'+'
asS'TCP10L'
p496
(lp497
I32574840
aI32585535
aS'-'
asS'TTC3-AS1'
p498
(lp499
I37187611
aI37194628
aS'-'
asS'MAP3K7CL'
p500
(lp501
I29077470
aI29175889
aS'+'
asS'CCT8'
p502
(lp503
I29056321
aI29073797
aS'-'
asS'LOC105372792'
p504
(lp505
I34484015
aI34487020
aS'-'
asS'LOC101928107'
p506
(lp507
I33111703
aI33123700
aS'-'
asS'LOC105369299'
p508
(lp509
I29296164
aI29296861
aS'-'
asS'LOC105372791'
p510
(lp511
I34353036
aI34375517
aS'-'
asS'LOC105372797'
p512
(lp513
I37478889
aI37490168
aS'-'
asS'LOC105372795'
p514
(lp515
I37063039
aI37064066
aS'-'
asS'LOC105369292'
p516
(lp517
I15263420
aI15283727
aS'-'
asS'LOC105372798'
p518
(lp519
I37560018
aI37570538
aS'+'
asS'LOC105372799'
p520
(lp521
I37715895
aI37740501
aS'+'
asS'LOC105379511'
p522
(lp523
I9543029
aI9559268
aS'+'
asS'NRIP1'
p524
(lp525
I14961234
aI15065903
aS'-'
asS'LOC105379513'
p526
(lp527
I9677283
aI9691571
aS'-'
asS'LINC00161'
p528
(lp529
I28539317
aI28540355
aS'+'
asS'SH3BGR'
p530
(lp531
I39445864
aI39515506
aS'+'
asS'LSS'
p532
(lp533
I46188445
aI46228824
aS'-'
asS'LOC101928284'
p534
(lp535
I42733593
aI42742433
aS'-'
asS'FAM3B'
p536
(lp537
I41304228
aI41357684
aS'+'
asS'MIR802'
p538
(lp539
I35720714
aI35720808
aS'+'
asS'LOC101928212'
p540
(lp541
I42569023
aI42573810
aS'-'
asS'LOC102724370'
p542
(lp543
I6070757
aI6073132
aS'-'
asS'RIPK4'
p544
(lp545
I41739368
aI41767089
aS'-'
asS'PSMG1'
p546
(lp547
I39175445
aI39183514
aS'-'
asS'C21orf140'
p548
(lp549
I34400111
aI34401072
aS'-'
asS'PRMT2'
p550
(lp551
I46635152
aI46665685
aS'+'
asS'LINC00945'
p552
(lp553
I33057828
aI33065079
aS'+'
asS'LOC102724355'
p554
(lp555
I27172956
aI27351345
aS'-'
asS'LRRC3'
p556
(lp557
I44455485
aI44458856
aS'+'
asS'MIR125B2'
p558
(lp559
I16590236
aI16590325
aS'+'
asS'LOC150051'
p560
(lp561
I31559244
aI31560487
aS'+'
asS'KRTAP27-1'
p562
(lp563
I30337012
aI30337694
aS'-'
asS'SETD4'
p564
(lp565
I36034540
aI36060818
aS'-'
asS'MIR5692B'
p566
(lp567
I42950927
aI42951014
aS'-'
asS'KRTAP20-2'
p568
(lp569
I30635263
aI30635461
aS'+'
asS'KRTAP20-3'
p570
(lp571
I30642863
aI30643136
aS'+'
asS'KRTAP20-1'
p572
(lp573
I30616454
aI30616625
aS'+'
asS'KRTAP20-4'
p574
(lp575
I30620626
aI30620850
aS'+'
asS'MIR155'
p576
(lp577
I25573979
aI25574044
aS'+'
asS'DSCAM-IT1'
p578
(lp579
I40618506
aI40630767
aS'-'
asS'RUNX1'
p580
(lp581
I34787800
aI35049334
aS'-'
asS'KRTAP23-1'
p582
(lp583
I30348398
aI30348606
aS'-'
asS'GABPA'
p584
(lp585
I25734946
aI25772460
aS'+'
asS'ZBTB21'
p586
(lp587
I41986830
aI42010418
aS'-'
asS'LOC105372802'
p588
(lp589
I38503433
aI38543747
aS'+'
asS'LOC105372803'
p590
(lp591
I39011234
aI39015106
aS'+'
asS'LOC105372801'
p592
(lp593
I38235506
aI38256614
aS'-'
asS'LOC105372807'
p594
(lp595
I41357304
aI41369978
aS'-'
asS'LOC105372804'
p596
(lp597
I39349915
aI39378544
aS'+'
asS'DNAJC28'
p598
(lp599
I33488054
aI33491723
aS'-'
asS'LOC105372808'
p600
(lp601
I41576147
aI41581634
aS'+'
asS'LOC105372809'
p602
(lp603
I41559119
aI41593324
aS'-'
asS'IFNGR2'
p604
(lp605
I33402895
aI33437521
aS'+'
asS'ICOSLG'
p606
(lp607
I44216980
aI44241447
aS'-'
asS'KRTAP7-1'
p608
(lp609
I30829038
aI30829732
aS'-'
asS'URB1-AS1'
p610
(lp611
I32393132
aI32393960
aS'+'
asS'CHODL'
p612
(lp613
I17819328
aI18267371
aS'+'
asS'LOC107985476'
p614
(lp615
I45293657
aI45294696
aS'-'
asS'TIAM1'
p616
(lp617
I31118417
aI31559977
aS'-'
asS'SNORA80A'
p618
(lp619
I32377186
aI32377322
aS'-'
asS'LOC107985478'
p620
(lp621
I41663828
aI41668487
aS'-'
asS'LOC100129027'
p622
(lp623
I45827840
aI45836419
aS'-'
asS'TRPM2'
p624
(lp625
I44350111
aI44442807
aS'+'
asS'LOC102724023'
p626
(lp627
I5097171
aI5128453
aS'-'
asS'LOC107985473'
p628
(lp629
I26170967
aI26175802
aS'+'
asS'LOC105379487'
p630
(lp631
I5499153
aI5502560
aS'-'
asS'LOC107985474'
p632
(lp633
I26458113
aI26471698
aS'+'
asS'LOC107985477'
p634
(lp635
I8659486
aI8660496
aS'+'
asS'LOC105379484'
p636
(lp637
I5011975
aI5012684
aS'-'
asS'MCM3AP'
p638
(lp639
I46235129
aI46286274
aS'-'
asS'LOC105369295'
p640
(lp641
I36061877
aI36068575
aS'+'
asS'LOC105379489'
p642
(lp643
I5542505
aI5546928
aS'-'
asS'LOC105379488'
p644
(lp645
I5506971
aI5509733
aS'+'
asS'PWP2'
p646
(lp647
I44107326
aI44131181
aS'+'
asS'PKNOX1'
p648
(lp649
I42974509
aI43033931
aS'+'
asS'KRTAP12-1'
p650
(lp651
I44681575
aI44682163
aS'-'
asS'KRTAP12-3'
p652
(lp653
I44657931
aI44658341
aS'+'
asS'KRTAP12-2'
p654
(lp655
I44666188
aI44666927
aS'-'
asS'DSCR9'
p656
(lp657
I37208502
aI37221736
aS'+'
asS'DSCR8'
p658
(lp659
I38121450
aI38156511
aS'+'
asS'LOC100506403'
p660
(lp661
I35372506
aI35580764
aS'-'
asS'DSCR4'
p662
(lp663
I38054010
aI38121360
aS'-'
asS'DSCR3'
p664
(lp665
I37223424
aI37267532
aS'-'
asS'MIS18A'
p666
(lp667
I32244758
aI32283954
aS'-'
asS'YBEY'
p668
(lp669
I46286055
aI46314188
aS'+'
asS'LINC00189'
p670
(lp671
I29193493
aI29288205
aS'+'
asS'LINC00112'
p672
(lp673
I41716435
aI41717582
aS'+'
asS'LOC107987297'
p674
(lp675
I33560313
aI33564779
aS'-'
asS'LOC107987296'
p676
(lp677
I17994055
aI18001189
aS'-'
asS'LOC107987295'
p678
(lp679
I14851570
aI14882028
aS'-'
asS'LOC107987294'
p680
(lp681
I8450699
aI8455343
aS'+'
asS'LOC107987293'
p682
(lp683
I8223513
aI8228197
aS'+'
asS'LOC107987292'
p684
(lp685
I5083816
aI5086110
aS'-'
asS'LOC107987291'
p686
(lp687
I26966655
aI26969227
aS'-'
asS'LOC107987290'
p688
(lp689
I6353996
aI6360629
aS'+'
asS'POFUT2'
p690
(lp691
I45263927
aI45287910
aS'-'
asS'GART'
p692
(lp693
I33503930
aI33542917
aS'-'
asS'LOC107987299'
p694
(lp695
I42528982
aI42535465
aS'-'
asS'LOC105372749'
p696
(lp697
I23704242
aI23709294
aS'+'
asS'LOC101928255'
p698
(lp699
I42650219
aI42653486
aS'-'
asS'SIK1'
p700
(lp701
I43414489
aI43427126
aS'-'
asS'LOC105372741'
p702
(lp703
I17741663
aI17769794
aS'-'
asS'LOC105372740'
p704
(lp705
I17009985
aI17015428
aS'-'
asS'LOC105372745'
p706
(lp707
I19899945
aI20022665
aS'+'
asS'LOC105372747'
p708
(lp709
I23409126
aI23434224
aS'+'
asS'LOC105372746'
p710
(lp711
I19885220
aI19899790
aS'-'
asS'KRTAP19-2'
p712
(lp713
I30487189
aI30487348
aS'-'
asS'KRTAP19-3'
p714
(lp715
I30491463
aI30491957
aS'-'
asS'KRTAP19-1'
p716
(lp717
I30480044
aI30480317
aS'-'
asS'KRTAP19-6'
p718
(lp719
I30541534
aI30541864
aS'-'
asS'KRTAP19-7'
p720
(lp721
I30561097
aI30561289
aS'-'
asS'KRTAP19-4'
p722
(lp723
I30496855
aI30497110
aS'-'
asS'KRTAP19-5'
p724
(lp725
I30501871
aI30502090
aS'-'
asS'LOC105369301'
p726
(lp727
I36430324
aI36498045
aS'+'
asS'KRTAP19-8'
p728
(lp729
I31038158
aI31038476
aS'-'
asS'LOC105369302'
p730
(lp731
I15522873
aI15627306
aS'-'
asS'LOC105369305'
p732
(lp733
I36810840
aI36813696
aS'+'
asS'LOC105369304'
p734
(lp735
I14383418
aI14394886
aS'+'
asS'KRTAP15-1'
p736
(lp737
I30440327
aI30440780
aS'+'
asS'GRIK1-AS1'
p738
(lp739
I29748174
aI29764006
aS'+'
asS'KRTAP12-4'
p740
(lp741
I44654212
aI44654659
aS'-'
asS'KRTAP21-3'
p742
(lp743
I30718524
aI30718777
aS'-'
asS'KRTAP21-2'
p744
(lp745
I30746950
aI30747202
aS'-'
asS'KRTAP21-1'
p746
(lp747
I30755138
aI30755378
aS'-'
asS'LOC107985497'
p748
(lp749
I44948627
aI44955205
aS'+'
asS'LOC107985496'
p750
(lp751
I38372537
aI38380853
aS'+'
asS'LOC107985495'
p752
(lp753
I41148150
aI41153506
aS'-'
asS'KRTAP24-1'
p754
(lp755
I30281308
aI30282958
aS'-'
asS'LOC107985493'
p756
(lp757
I36966460
aI36971050
aS'+'
asS'KRTAP22-1'
p758
(lp759
I30601120
aI30601267
aS'+'
asS'KRTAP22-2'
p760
(lp761
I30590104
aI30590397
aS'-'
asS'LOC107985490'
p762
(lp763
I19128636
aI19134175
aS'+'
asS'LOC105372738'
p764
(lp765
I14676698
aI14678599
aS'-'
asS'LOC105372739'
p766
(lp767
I15188592
aI15190506
aS'+'
asS'LOC105372734'
p768
(lp769
I9972473
aI9986333
aS'-'
asS'LINC00479'
p770
(lp771
I41711519
aI41715775
aS'-'
asS'PAXBP1-AS1'
p772
(lp773
I32728113
aI32743122
aS'+'
asS'LOC105372730'
p774
(lp775
I8759076
aI8805942
aS'+'
asS'LOC105372731'
p776
(lp777
I9026612
aI9036543
aS'-'
asS'LOC105372733'
p778
(lp779
I9996066
aI10119495
aS'-'
asS'LOC102724701'
p780
(lp781
I6228965
aI6670705
aS'-'
asS'MIR4327'
p782
(lp783
I30375293
aI30375378
aS'-'
asS'DIP2A'
p784
(lp785
I46458941
aI46570900
aS'+'
asS'TCONS_00029157'
p786
(lp787
I43358054
aI43362349
aS'-'
asS'LOC105372833'
p788
(lp789
I44250812
aI44251521
aS'+'
asS'KRTAP8-1'
p790
(lp791
I30812696
aI30813252
aS'-'
asS'S100B'
p792
(lp793
I46598617
aI46605122
aS'-'
asS'MIR6501'
p794
(lp795
I33550661
aI33550728
aS'+'
asS'MIR6508'
p796
(lp797
I39447009
aI39447069
aS'+'
asS'CBR1'
p798
(lp799
I36069923
aI36073177
aS'+'
asS'CBR3'
p800
(lp801
I36134964
aI36146562
aS'+'
asS'SON'
p802
(lp803
I33543037
aI33577514
aS'+'
asS'SYNJ1'
p804
(lp805
I32628762
aI32728128
aS'-'
asS'COL18A1'
p806
(lp807
I45405136
aI45513720
aS'+'
asS'MIR548X'
p808
(lp809
I18686089
aI18686164
aS'-'
asS'KRTAP13-4'
p810
(lp811
I30430275
aI30430758
aS'+'
asS'KRTAP13-1'
p812
(lp813
I30396073
aI30396822
aS'+'
asS'KRTAP13-2'
p814
(lp815
I30371390
aI30372239
aS'-'
asS'KRTAP13-3'
p816
(lp817
I30425392
aI30425912
aS'-'
asS'KRTAP25-1'
p818
(lp819
I30289144
aI30289514
aS'-'
asS'MRPL39'
p820
(lp821
I25585655
aI25607858
aS'-'
asS'CYP4F29P'
p822
(lp823
I13843132
aI13848364
aS'-'
asS'KRTAP26-1'
p824
(lp825
I30319130
aI30320289
aS'-'
asS'CDC27P10'
p826
(lp827
I8422329
aI8426105
aS'-'
asS'CDC27P11'
p828
(lp829
I8466839
aI8470663
aS'-'
asS'CYYR1-AS1'
p830
(lp831
I26405942
aI26569252
aS'+'
asS'PCP4'
p832
(lp833
I39867420
aI39929397
aS'+'
asS'UMODL1-AS1'
p834
(lp835
I42102133
aI42108534
aS'-'
asS'LOC105372842'
p836
(lp837
I46034208
aI46039533
aS'+'
asS'LOC105372840'
p838
(lp839
I45593663
aI45603056
aS'+'
asS'LOC105372841'
p840
(lp841
I45978506
aI45981566
aS'+'
asS'COL6A1'
p842
(lp843
I45981748
aI46005049
aS'+'
asS'COL6A2'
p844
(lp845
I46098070
aI46132849
aS'+'
asS'KCNE2'
p846
(lp847
I34364023
aI34371141
aS'+'
asS'KCNE1'
p848
(lp849
I34446687
aI34512275
aS'-'
asS'MIRLET7C'
p850
(lp851
I16539827
aI16539911
aS'+'
asS'LOC105372789'
p852
(lp853
I34015643
aI34022266
aS'-'
asS'LOC105372785'
p854
(lp855
I33035339
aI33037078
aS'+'
asS'LOC105372787'
p856
(lp857
I33173019
aI33195517
aS'-'
asS'LOC105372782'
p858
(lp859
I32586517
aI32592239
aS'+'
asS'ITSN1'
p860
(lp861
I33642399
aI33899861
aS'+'
asS'LINC00159'
p862
(lp863
I32080480
aI32086295
aS'-'
asS'LINC00158'
p864
(lp865
I25385819
aI25431701
aS'-'
asS'LOC101927843'
p866
(lp867
I22009157
aI22098459
aS'-'
asS'LOC100133286'
p868
(lp869
I36069641
aI36126640
aS'-'
asS'D21S2088E'
p870
(lp871
I23361103
aI23384835
aS'-'
asS'MIR3118-1'
p872
(lp873
I13644774
aI13644850
aS'-'
asS'SOD1'
p874
(lp875
I31659621
aI31668931
aS'+'
asS'MRPS6'
p876
(lp877
I34073522
aI34143034
aS'+'
asS'MIR3687-2'
p878
(lp879
I8987369
aI8987430
aS'+'
asS'MIR3687-1'
p880
(lp881
I8208843
aI8208904
aS'+'
asS'LOC102724800'
p882
(lp883
I41767180
aI41776078
aS'+'
asS'UMODL1'
p884
(lp885
I42062958
aI42142995
aS'+'
asS'LOC107987304'
p886
(lp887
I45526799
aI45527961
aS'+'
asS'LOC107987301'
p888
(lp889
I43409293
aI43412622
aS'-'
asS'LOC107987300'
p890
(lp891
I43153531
aI43171683
aS'-'
asS'KRTAP10-9'
p892
(lp893
I44627122
aI44628378
aS'+'
asS'LOC107987302'
p894
(lp895
I43434852
aI43442401
aS'+'
asS'LOC102724200'
p896
(lp897
I5155502
aI5165755
aS'-'
asS'KRTAP10-6'
p898
(lp899
I44591267
aI44592505
aS'-'
asS'KRTAP10-5'
p900
(lp901
I44579454
aI44580604
aS'-'
asS'KRTAP10-4'
p902
(lp903
I44573728
aI44575371
aS'+'
asS'LOC107987309'
p904
(lp905
I5602931
aI5616612
aS'+'
asS'LOC107987308'
p906
(lp907
I7479935
aI7493616
aS'+'
asS'LOC101928368'
p908
(lp909
I37751536
aI37760837
aS'+'
asS'LOC101928369'
p910
(lp911
I43108006
aI43144677
aS'+'
asS'LOC105372770'
p912
(lp913
I29492260
aI29496466
aS'-'
asS'KRTAP10-7'
p914
(lp915
I44600596
aI44602174
aS'+'
asS'LOC105372772'
p916
(lp917
I30393165
aI30475708
aS'-'
asS'LOC105372773'
p918
(lp919
I30707277
aI30725682
aS'-'
asS'HUNK'
p920
(lp921
I31873314
aI32004064
aS'+'
asS'LOC105372775'
p922
(lp923
I31014383
aI31019190
aS'-'
asS'LOC105372776'
p924
(lp925
I30985655
aI31004811
aS'-'
asS'LOC105372777'
p926
(lp927
I31254666
aI31262458
aS'+'
asS'LOC105372779'
p928
(lp929
I32306463
aI32309154
aS'-'
asS'SLC19A1'
p930
(lp931
I45512566
aI45563143
aS'-'
asS'LOC102724420'
p932
(lp933
I28377407
aI28387080
aS'-'
asS'LOC102724428'
p934
(lp935
I6111133
aI6123778
aS'+'
asS'KRTAP10-3'
p936
(lp937
I44558022
aI44558760
aS'-'
asS'LOC102724584'
p938
(lp939
I34835269
aI34885052
aS'+'
asS'LOC101927345'
p940
(lp941
I9368634
aI9376651
aS'-'
asS'LOC107987303'
p942
(lp943
I44907986
aI44910276
aS'-'
asS'KRTAP10-2'
p944
(lp945
I44550356
aI44551505
aS'-'
asS'LINC01436'
p946
(lp947
I36005319
aI36008295
aS'+'
asS'PLAC4'
p948
(lp949
I41175230
aI41185239
aS'-'
asS'LOC339622'
p950
(lp951
I24840549
aI25057746
aS'+'
asS'LINC00320'
p952
(lp953
I20742589
aI20803108
aS'-'
asS'LINC00322'
p954
(lp955
I43322208
aI43332039
aS'-'
asS'LINC00323'
p956
(lp957
I41141499
aI41148064
aS'-'
asS'PCBP3'
p958
(lp959
I45849960
aI45942454
aS'+'
asS'SSR4P1'
p960
(lp961
I45070954
aI45073211
aS'-'
asS'LOC105372774'
p962
(lp963
I31030094
aI31036268
aS'+'
asS'DONSON'
p964
(lp965
I33577550
aI33588708
aS'-'
asS'CRYAA'
p966
(lp967
I43169007
aI43172810
aS'+'
asS'TTC3'
p968
(lp969
I37073183
aI37203118
aS'+'
asS'CBR3-AS1'
p970
(lp971
I36131766
aI36156308
aS'-'
asS'COL18A1-AS2'
p972
(lp973
I45407385
aI45410065
aS'-'
asS'COL18A1-AS1'
p974
(lp975
I45419715
aI45425070
aS'-'
asS'MIR6070'
p976
(lp977
I43609886
aI43609989
aS'-'
asS'FAM207A'
p978
(lp979
I44939696
aI44976989
aS'+'
asS'HSF2BP'
p980
(lp981
I43453986
aI43659499
aS'-'
asS'TMPRSS15'
p982
(lp983
I18269106
aI18403806
aS'-'
asS'ABCG1'
p984
(lp985
I42199688
aI42297244
aS'+'
asS'PRDM15'
p986
(lp987
I41798224
aI41879482
aS'-'
asS'TRPM2-AS'
p988
(lp989
I44414589
aI44425563
aS'-'
asS'TMEM50B'
p990
(lp991
I33432485
aI33480009
aS'-'
asS'LOC102724740'
p992
(lp993
I38985350
aI39024051
aS'-'
asS'CLDN17'
p994
(lp995
I30165922
aI30166653
aS'-'
asS'CLDN14'
p996
(lp997
I36460620
aI36576569
aS'-'
asS'LOC102724334'
p998
(lp999
I5972922
aI5973357
aS'-'
asS'ATP5J'
p1000
(lp1001
I25724479
aI25735654
aS'-'
asS'ATP5O'
p1002
(lp1003
I33903452
aI33915854
aS'-'
asS'AATBC'
p1004
(lp1005
I43805757
aI43812567
aS'-'
asS'PAXBP1'
p1006
(lp1007
I32733898
aI32771858
aS'-'
asS'NCAM2'
p1008
(lp1009
I20998325
aI21543324
aS'+'
asS'TSPEAR-AS2'
p1010
(lp1011
I44517214
aI44518977
aS'+'
asS'BTG3'
p1012
(lp1013
I17593649
aI17612950
aS'-'
asS'LOC105369308'
p1014
(lp1015
I36632680
aI36699004
aS'-'
asS'LINC00114'
p1016
(lp1017
I38739023
aI38773477
aS'-'
asS'LOC107985504'
p1018
(lp1019
I42775350
aI42776896
aS'-'
asS'MIR3156-3'
p1020
(lp1021
I13406383
aI13406460
aS'-'
asS'LINC00113'
p1022
(lp1023
I27722378
aI27751233
aS'+'
asS'LOC105372817'
p1024
(lp1025
I42879646
aI42887741
aS'+'
asS'LOC105372816'
p1026
(lp1027
I42663275
aI42669007
aS'-'
asS'LOC105372813'
p1028
(lp1029
I41668948
aI41672656
aS'+'
asS'DSCAM-AS1'
p1030
(lp1031
I40383082
aI40385358
aS'+'
asS'LINC00111'
p1032
(lp1033
I41679301
aI41697336
aS'+'
asS'FRGCA'
p1034
(lp1035
I43140522
aI43141092
aS'-'
asS'LOC105372793'
p1036
(lp1037
I34406130
aI34425353
aS'+'
asS'LOC105372790'
p1038
(lp1039
I33982828
aI34051948
aS'+'
asS'ITGB2-AS1'
p1040
(lp1041
I44921034
aI44929680
aS'+'
asS'PICSAR'
p1042
(lp1043
I44999207
aI45004727
aS'-'
asS'LINC00163'
p1044
(lp1045
I44989863
aI44994086
aS'-'
asS'ANKRD20A11P'
p1046
(lp1047
I13943768
aI13980444
aS'-'
asS'AIRE'
p1048
(lp1049
I44285837
aI44298219
aS'+'
asS'LOC101928126'
p1050
(lp1051
I33976381
aI33977691
aS'+'
asS'LOC105379514'
p1052
(lp1053
I9662188
aI9679905
aS'+'
asS'LOC107983952'
p1054
(lp1055
I44201791
aI44208199
aS'-'
asS'GRIK1-AS2'
p1056
(lp1057
I29596039
aI29630747
aS'+'
asS'TFF1'
p1058
(lp1059
I42362281
aI42366535
aS'-'
asS'TFF2'
p1060
(lp1061
I42346356
aI42351099
aS'-'
asS'C21orf62'
p1062
(lp1063
I32790672
aI32813743
aS'-'
asS'PDE9A'
p1064
(lp1065
I42653751
aI42775509
aS'+'
asS'LINC00160'
p1066
(lp1067
I34723806
aI34737182
aS'-'
asS'DSCAM'
p1068
(lp1069
I40012415
aI40847113
aS'-'
asS'LOC105369294'
p1070
(lp1071
I40414756
aI40422411
aS'+'
asS'UBASH3A'
p1072
(lp1073
I42403861
aI42447680
aS'+'
asS'CH507-9B2.8'
p1074
(lp1075
I5071217
aI5089824
aS'+'
asS'LOC101927973'
p1076
(lp1077
I28116093
aI28228667
aS'-'
asS'LTN1'
p1078
(lp1079
I28928144
aI28992959
aS'-'
asS'LCA5L'
p1080
(lp1081
I39405843
aI39445796
aS'-'
asS'UBE2G2'
p1082
(lp1083
I44768579
aI44801836
aS'-'
asS'LOC101928233'
p1084
(lp1085
I42599403
aI42615095
aS'-'
asS'IL10RB-AS1'
p1086
(lp1087
I33265631
aI33266260
aS'-'
asS'LOC388813'
p1088
(lp1089
I14591391
aI14643107
aS'-'
asS'KCNJ15'
p1090
(lp1091
I38229914
aI38301826
aS'+'
asS'TMPRSS2'
p1092
(lp1093
I41464550
aI41508158
aS'-'
asS'TMPRSS3'
p1094
(lp1095
I42371886
aI42396846
aS'-'
asS'DNMT3L'
p1096
(lp1097
I44246338
aI44262216
aS'-'
asS'CHODL-AS1'
p1098
(lp1099
I17835671
aI17885608
aS'-'
asS'U2AF1L5'
p1100
(lp1101
I6484622
aI6499284
aS'-'
asS'USP16'
p1102
(lp1103
I29024616
aI29054488
aS'+'
asS'KCNE1B'
p1104
(lp1105
I7816676
aI7829632
aS'-'
asS'LINC01549'
p1106
(lp1107
I17438889
aI17449185
aS'+'
asS'LINC01548'
p1108
(lp1109
I33165469
aI33170236
aS'-'
asS'ABCC13'
p1110
(lp1111
I14273798
aI14301386
aS'+'
asS'HSPA13'
p1112
(lp1113
I14371114
aI14383188
aS'-'
asS'LRRC3-AS1'
p1114
(lp1115
I44450985
aI44455284
aS'-'
asS'LINC00319'
p1116
(lp1117
I43450023
aI43453893
aS'+'
asS'LINC00310'
p1118
(lp1119
I34180676
aI34189919
aS'+'
asS'LINC00313'
p1120
(lp1121
I43462093
aI43478223
aS'-'
asS'LINC00316'
p1122
(lp1123
I45338589
aI45341990
aS'-'
asS'LINC00314'
p1124
(lp1125
I28013362
aI28023209
aS'+'
asS'LINC00317'
p1126
(lp1127
I21723292
aI21737319
aS'-'
asS'LOC101930100'
p1128
(lp1129
I9325049
aI9369212
aS'+'
as.