(dp1
S'ZDHHC15'
p2
(lp3
I75368426
aI75523502
aS'-'
asS'ZCCHC13'
p4
(lp5
I74304189
aI74305034
aS'+'
asS'NYX'
p6
(lp7
I41447459
aI41476414
aS'+'
asS'MIR6086'
p8
(lp9
I13590291
aI13590346
aS'+'
asS'CT45A10'
p10
(lp11
I135880751
aI135893428
aS'-'
asS'ZCCHC16'
p12
(lp13
I112083024
aI112457245
aS'+'
asS'LOC105373292'
p14
(lp15
I90234590
aI90265462
aS'+'
asS'LOC105373293'
p16
(lp17
I91772226
aI91778544
aS'-'
asS'SMIM10'
p18
(lp19
I134990937
aI134992473
aS'+'
asS'ZCCHC18'
p20
(lp21
I104112415
aI104121330
aS'+'
asS'MIR6089'
p22
(lp23
I2609190
aI2609254
aS'+'
asS'LOC105373296'
p24
(lp25
I96499117
aI96503293
aS'+'
asS'LOC107985638'
p26
(lp27
I152769786
aI152792170
aS'+'
asS'CT47A6'
p28
(lp29
I120958164
aI120961483
aS'-'
asS'LOC105373105'
p30
(lp31
I1732483
aI1744606
aS'+'
asS'LOC105373297'
p32
(lp33
I97841748
aI97849381
aS'+'
asS'SRPK3'
p34
(lp35
I153781000
aI153785732
aS'+'
asS'LOC107985698'
p36
(lp37
I128675457
aI128697691
aS'-'
asS'LOC105373102'
p38
(lp39
I1392348
aI1396881
aS'+'
asS'GPM6B'
p40
(lp41
I13770921
aI13938824
aS'-'
asS'DUSP21'
p42
(lp43
I44844002
aI44844888
aS'+'
asS'MORF4L2-AS1'
p44
(lp45
I103687283
aI103692560
aS'+'
asS'MIR450B'
p46
(lp47
I134540184
aI134540262
aS'-'
asS'RHOXF1P1'
p48
(lp49
I120010716
aI120015551
aS'-'
asS'DLG3'
p50
(lp51
I70444849
aI70505490
aS'+'
asS'LOC107985704'
p52
(lp53
I94523394
aI94600485
aS'-'
asS'LOC100421746'
p54
(lp55
I55280087
aI55288786
aS'+'
asS'XACT'
p56
(lp57
I113616299
aI113618153
aS'-'
asS'NR0B1'
p58
(lp59
I30304421
aI30309378
aS'-'
asS'TAZ'
p60
(lp61
I154411405
aI154421726
aS'+'
asS'MIR892A'
p62
(lp63
I145996668
aI145996743
aS'-'
asS'LINC01496'
p64
(lp65
I51499908
aI51507441
aS'-'
asS'NHS-AS1'
p66
(lp67
I17552348
aI17559127
aS'-'
asS'MIR892B'
p68
(lp69
I145997197
aI145997274
aS'-'
asS'MIR374C'
p70
(lp71
I74218548
aI74218618
aS'+'
asS'MIR374B'
p72
(lp73
I74218546
aI74218618
aS'-'
asS'ABCD1'
p74
(lp75
I153724850
aI153744755
aS'+'
asS'OFD1'
p76
(lp77
I13734712
aI13769361
aS'+'
asS'FRMD8P1'
p78
(lp79
I65550621
aI65552421
aS'-'
asS'H2AFB1'
p80
(lp81
I154885041
aI154885558
aS'+'
asS'PCDH11X'
p82
(lp83
I91779309
aI92623230
aS'+'
asS'ARHGEF9-IT1'
p84
(lp85
I63670195
aI63671502
aS'-'
asS'SLITRK4'
p86
(lp87
I143622789
aI143636107
aS'-'
asS'SLC6A8'
p88
(lp89
I153688296
aI153696593
aS'+'
asS'SLITRK2'
p90
(lp91
I145817831
aI145829856
aS'+'
asS'SLC35A2'
p92
(lp93
I48903179
aI48911958
aS'-'
asS'ZNF41'
p94
(lp95
I47444690
aI47483671
aS'-'
asS'LOC105373298'
p96
(lp97
I100604969
aI100622156
aS'-'
asS'SLC25A5'
p98
(lp99
I119468399
aI119471396
aS'+'
asS'CT55'
p100
(lp101
I135156535
aI135171827
aS'-'
asS'LOC105373299'
p102
(lp103
I102141727
aI102143944
aS'+'
asS'LOC107985699'
p104
(lp105
I128767028
aI128782609
aS'-'
asS'LOC105377211'
p106
(lp107
I63135904
aI63155863
aS'+'
asS'LOC105377212'
p108
(lp109
I63237521
aI63277473
aS'-'
asS'MIR362'
p110
(lp111
I50008963
aI50009028
aS'+'
asS'LOC107985690'
p112
(lp113
I79145006
aI79250096
aS'+'
asS'LOC105373205'
p114
(lp115
I51629458
aI51641954
aS'+'
asS'LOC105373204'
p116
(lp117
I51159782
aI51396183
aS'-'
asS'GK'
p118
(lp119
I30653358
aI30731462
aS'+'
asS'LOC107985694'
p120
(lp121
I119791742
aI119805557
aS'+'
asS'LOC107985697'
p122
(lp123
I1240609
aI1263307
aS'+'
asS'LOC107985696'
p124
(lp125
I48691164
aI48693148
aS'-'
asS'LINC00632'
p126
(lp127
I140709758
aI140772677
aS'+'
asS'OR13H1'
p128
(lp129
I131544073
aI131545000
aS'+'
asS'LINC00630'
p130
(lp131
I102769166
aI102885410
aS'+'
asS'ZNF674'
p132
(lp133
I46497724
aI46545457
aS'-'
asS'PRRG1'
p134
(lp135
I37349274
aI37457295
aS'+'
asS'VCX2'
p136
(lp137
I8169943
aI8171267
aS'-'
asS'ELF4'
p138
(lp139
I130064919
aI130110713
aS'-'
asS'PHKA2-AS1'
p140
(lp141
I18890295
aI18894975
aS'+'
asS'LOC105373195'
p142
(lp143
I49139604
aI49156257
aS'-'
asS'TRAPPC2'
p144
(lp145
I13712241
aI13734635
aS'-'
asS'LOC105373193'
p146
(lp147
I47125800
aI47129454
aS'-'
asS'SYAP1'
p148
(lp149
I16719583
aI16762684
aS'+'
asS'FTH1P18'
p150
(lp151
I37042881
aI37043794
aS'-'
asS'LOC105373190'
p152
(lp153
I44866862
aI44870825
aS'+'
asS'MIR361'
p154
(lp155
I85903635
aI85903707
aS'-'
asS'STARD8'
p156
(lp157
I68647668
aI68725842
aS'+'
asS'GPR119'
p158
(lp159
I130384344
aI130385537
aS'-'
asS'MIR19B2'
p160
(lp161
I134169670
aI134169766
aS'-'
asS'ACE2'
p162
(lp163
I15494524
aI15600965
aS'-'
asS'MIR325HG'
p164
(lp165
I76657797
aI77014532
aS'-'
asS'NXF2B'
p166
(lp167
I102360394
aI102440008
aS'-'
asS'HMGN5'
p168
(lp169
I81113700
aI81201942
aS'-'
asS'ENOX2'
p170
(lp171
I130622329
aI130903317
aS'-'
asS'KRBOX4'
p172
(lp173
I46447188
aI46474639
aS'+'
asS'LOC107983959'
p174
(lp175
I133090717
aI133097109
aS'-'
asS'L1CAM'
p176
(lp177
I153861513
aI153886174
aS'-'
asS'PLS3-AS1'
p178
(lp179
I115518188
aI115562731
aS'-'
asS'LOC105373180'
p180
(lp181
I39928979
aI39939253
aS'+'
asS'MIR23C'
p182
(lp183
I20017087
aI20017187
aS'-'
asS'TDGF1P3'
p184
(lp185
I110520311
aI110523021
aS'+'
asS'MAGEE2'
p186
(lp187
I75782987
aI75785244
aS'-'
asS'MAGEE1'
p188
(lp189
I76427652
aI76431353
aS'+'
asS'MIR652'
p190
(lp191
I110055328
aI110055426
aS'+'
asS'PLXNB3'
p192
(lp193
I153764195
aI153779346
aS'+'
asS'CD99L2'
p194
(lp195
I150766335
aI150898816
aS'-'
asS'GPRASP2'
p196
(lp197
I102712175
aI102717733
aS'+'
asS'MIR718'
p198
(lp199
I154019919
aI154019989
aS'-'
asS'GPRASP1'
p200
(lp201
I102651365
aI102659083
aS'+'
asS'XIST'
p202
(lp203
I73820650
aI73852753
aS'-'
asS'ATXN3L'
p204
(lp205
I13318646
aI13320399
aS'-'
asS'CHIC1'
p206
(lp207
I73563147
aI73687109
aS'+'
asS'WDR44'
p208
(lp209
I118345996
aI118449937
aS'+'
asS'WDR45'
p210
(lp211
I49074432
aI49101121
aS'-'
asS'CT47A5'
p212
(lp213
I120963025
aI120966344
aS'-'
asS'NDUFA1'
p214
(lp215
I119871770
aI119876666
aS'+'
asS'DRP2'
p216
(lp217
I101219785
aI101264497
aS'+'
asS'APOO'
p218
(lp219
I23833347
aI23907940
aS'-'
asS'CETN2'
p220
(lp221
I152827326
aI152830757
aS'-'
asS'MTCP1'
p222
(lp223
I155064033
aI155071272
aS'-'
asS'INGX'
p224
(lp225
I71491680
aI71492449
aS'-'
asS'ZIC3'
p226
(lp227
I137566313
aI137577691
aS'+'
asS'TBC1D25'
p228
(lp229
I48539686
aI48562609
aS'+'
asS'INTS6L-AS1'
p230
(lp231
I135520082
aI135520674
aS'-'
asS'LOC107985703'
p232
(lp233
I145843689
aI145875646
aS'+'
asS'LOC107987334'
p234
(lp235
I103983646
aI103987258
aS'+'
asS'LINC00685'
p236
(lp237
I319144
aI321332
aS'+'
asS'LINC00684'
p238
(lp239
I72938162
aI72938958
aS'+'
asS'HSD17B10'
p240
(lp241
I53431257
aI53434376
aS'-'
asS'TMSB15B'
p242
(lp243
I103962626
aI103965990
aS'+'
asS'FUNDC2'
p244
(lp245
I155026788
aI155056916
aS'+'
asS'MIR4768'
p246
(lp247
I17425880
aI17425954
aS'+'
asS'FUNDC1'
p248
(lp249
I44523638
aI44542975
aS'-'
asS'GUCY2F'
p250
(lp251
I109372905
aI109482056
aS'-'
asS'LOC105373333'
p252
(lp253
I127939301
aI127945639
aS'-'
asS'FTX'
p254
(lp255
I74028135
aI74293574
aS'-'
asS'LOC105373331'
p256
(lp257
I124380906
aI124389830
aS'+'
asS'USP27X-AS1'
p258
(lp259
I49876723
aI49879356
aS'-'
asS'BRCC3'
p260
(lp261
I155071409
aI155126766
aS'+'
asS'MIR4767'
p262
(lp263
I7147859
aI7147937
aS'+'
asS'LOC105373335'
p264
(lp265
I129908136
aI129957559
aS'-'
asS'LOC105373334'
p266
(lp267
I129675887
aI129678417
aS'-'
asS'COL4A6'
p268
(lp269
I108155606
aI108439497
aS'-'
asS'COL4A5'
p270
(lp271
I108439843
aI108697545
aS'+'
asS'LOC101928358'
p272
(lp273
I108736539
aI108738903
aS'+'
asS'LINC01420'
p274
(lp275
I56729284
aI56817571
aS'+'
asS'LOC105373133'
p276
(lp277
I13044543
aI13086975
aS'+'
asS'FAM199X'
p278
(lp279
I104157073
aI104195902
aS'+'
asS'GDI1'
p280
(lp281
I154436912
aI154443467
aS'+'
asS'CHST7'
p282
(lp283
I46573686
aI46598496
aS'+'
asS'MAGEB2'
p284
(lp285
I30215557
aI30220089
aS'+'
asS'RENBP'
p286
(lp287
I153935268
aI153944780
aS'-'
asS'RPS6KA3'
p288
(lp289
I20149910
aI20267514
aS'-'
asS'LOC105373377'
p290
(lp291
I153317682
aI153321831
aS'-'
asS'RPS6KA6'
p292
(lp293
I84058345
aI84187935
aS'-'
asS'PDZD11'
p294
(lp295
I70286360
aI70289948
aS'-'
asS'ZDHHC9'
p296
(lp297
I129803287
aI129843934
aS'-'
asS'COX7B'
p298
(lp299
I77899463
aI77905384
aS'+'
asS'GABRQ'
p300
(lp301
I152637894
aI152659827
aS'+'
asS'PSMD10'
p302
(lp303
I108084204
aI108091644
aS'-'
asS'RIPPLY1'
p304
(lp305
I106900062
aI106903331
aS'-'
asS'LOC102723591'
p306
(lp307
I153761626
aI153766468
aS'-'
asS'MIR106A'
p308
(lp309
I134170197
aI134170278
aS'-'
asS'MIR1298'
p310
(lp311
I114715232
aI114715344
aS'+'
asS'GABRE'
p312
(lp313
I151953123
aI151974679
aS'-'
asS'FAM58A'
p314
(lp315
I153587924
aI153599177
aS'-'
asS'NXF4'
p316
(lp317
I102549964
aI102571693
aS'+'
asS'CMC4'
p318
(lp319
I155061621
aI155071272
aS'-'
asS'LOC105373148'
p320
(lp321
I23750289
aI23783012
aS'-'
asS'FMR1'
p322
(lp323
I147911950
aI147951127
aS'+'
asS'CD40LG'
p324
(lp325
I136648176
aI136660390
aS'+'
asS'GLA'
p326
(lp327
I101397790
aI101408013
aS'-'
asS'LOC105373142'
p328
(lp329
I17635591
aI17649345
aS'-'
asS'FAM223A'
p330
(lp331
I154571247
aI154571960
aS'+'
asS'SMS'
p332
(lp333
I21940572
aI21994837
aS'+'
asS'LOC105373145'
p334
(lp335
I18831827
aI18833960
aS'+'
asS'LOC105373146'
p336
(lp337
I21081643
aI21374119
aS'-'
asS'SHROOM2'
p338
(lp339
I9786405
aI9949443
aS'+'
asS'XIAP'
p340
(lp341
I123859811
aI123913979
aS'+'
asS'FTHL17'
p342
(lp343
I31071240
aI31072053
aS'-'
asS'SNORA69'
p344
(lp345
I119787352
aI119787484
aS'-'
asS'LINC00892'
p346
(lp347
I136639542
aI136642429
aS'+'
asS'SHROOM4'
p348
(lp349
I50575533
aI50814150
aS'-'
asS'PTCHD1-AS'
p350
(lp351
I22193004
aI23293146
aS'-'
asS'PLP1'
p352
(lp353
I103776505
aI103792619
aS'+'
asS'PLP2'
p354
(lp355
I49171836
aI49175120
aS'+'
asS'FAM226A'
p356
(lp357
I72941727
aI72943750
aS'-'
asS'LHFPL1'
p358
(lp359
I112630650
aI112680147
aS'-'
asS'ARMCX5-GPRASP2'
p360
(lp361
I102599347
aI102717733
aS'+'
asS'LOC105373381'
p362
(lp363
I153483919
aI153487088
aS'+'
asS'SLC25A53'
p364
(lp365
I104099213
aI104157027
aS'-'
asS'MIR510'
p366
(lp367
I147272334
aI147272408
aS'-'
asS'LOC340581'
p368
(lp369
I134949548
aI134953382
aS'+'
asS'LINC01456'
p370
(lp371
I17970172
aI18104644
aS'-'
asS'PCYT1B-AS1'
p372
(lp373
I24650072
aI24658237
aS'+'
asS'P2RY10'
p374
(lp375
I78945331
aI78963727
aS'+'
asS'LOC728660'
p376
(lp377
I140017229
aI140017694
aS'+'
asS'TMEM257'
p378
(lp379
I145827409
aI145829856
aS'+'
asS'ALAS2'
p380
(lp381
I55009054
aI55031064
aS'-'
asS'RBM10'
p382
(lp383
I47145195
aI47186813
aS'+'
asS'IDS'
p384
(lp385
I149476989
aI149505354
aS'-'
asS'ZFX-AS1'
p386
(lp387
I24146224
aI24149654
aS'-'
asS'CSAG2'
p388
(lp389
I152708260
aI152713861
aS'-'
asS'BRWD3'
p390
(lp391
I80669487
aI80809734
aS'-'
asS'DKC1'
p392
(lp393
I154762741
aI154777689
aS'+'
asS'BHLHB9'
p394
(lp395
I102720713
aI102752441
aS'+'
asS'LOC105373254'
p396
(lp397
I77070598
aI77081205
aS'+'
asS'CSAG1'
p398
(lp399
I152727483
aI152733736
aS'-'
asS'LOC100132304'
p400
(lp401
I72781864
aI72782660
aS'-'
asS'SAGE1'
p402
(lp403
I135893606
aI135913061
aS'+'
asS'LINC01281'
p404
(lp405
I39304955
aI39327362
aS'-'
asS'LINC01282'
p406
(lp407
I39367284
aI39391774
aS'-'
asS'SPANXA2-OT1'
p408
(lp409
I141502848
aI141649939
aS'+'
asS'BEND2'
p410
(lp411
I18162930
aI18220904
aS'-'
asS'DCX'
p412
(lp413
I111293778
aI111412232
aS'-'
asS'HCFC1'
p414
(lp415
I153947555
aI153971833
aS'-'
asS'LOC107985654'
p416
(lp417
I154387981
aI154389682
aS'-'
asS'ZNF81'
p418
(lp419
I47836863
aI47925626
aS'+'
asS'LOC107985656'
p420
(lp421
I13665711
aI13681399
aS'+'
asS'CHRDL1'
p422
(lp423
I110673855
aI110796058
aS'-'
asS'LOC107985650'
p424
(lp425
I127138083
aI127139880
aS'+'
asS'LOC107985653'
p426
(lp427
I88984713
aI88989974
aS'+'
asS'PPEF1'
p428
(lp429
I18675908
aI18827921
aS'+'
asS'LOC105373242'
p430
(lp431
I69031119
aI69084509
aS'-'
asS'LOC105373241'
p432
(lp433
I67744710
aI67784890
aS'-'
asS'GRIPAP1'
p434
(lp435
I48973719
aI49002264
aS'-'
asS'IL3RA'
p436
(lp437
I1336574
aI1382689
aS'+'
asS'SNORA56'
p438
(lp439
I154774997
aI154775126
aS'+'
asS'FRMPD3'
p440
(lp441
I107522449
aI107605244
aS'+'
asS'LOC105373244'
p442
(lp443
I70427357
aI70436800
aS'-'
asS'PABPC1L2A'
p444
(lp445
I73077337
aI73079512
aS'-'
asS'PHEX-AS1'
p446
(lp447
I22162731
aI22172983
aS'-'
asS'ALG13'
p448
(lp449
I111680740
aI111764164
aS'+'
asS'CXorf21'
p450
(lp451
I30558823
aI30577916
aS'-'
asS'BRS3'
p452
(lp453
I136487965
aI136492439
aS'+'
asS'CXorf23'
p454
(lp455
I19912859
aI19991040
aS'-'
asS'GS1-594A7.3'
p456
(lp457
I15602880
aI15621484
aS'+'
asS'SNORA36A'
p458
(lp459
I154768527
aI154768659
aS'+'
asS'GEMIN8'
p460
(lp461
I14002493
aI14029918
aS'-'
asS'EDA'
p462
(lp463
I69616066
aI70039472
aS'+'
asS'RAB33A'
p464
(lp465
I130110632
aI130184872
aS'+'
asS'FAM156B'
p466
(lp467
I52891598
aI52908560
aS'+'
asS'FAM156A'
p468
(lp469
I52947253
aI52995472
aS'-'
asS'IL2RG'
p470
(lp471
I71107403
aI71111631
aS'-'
asS'F8'
p472
(lp473
I154835787
aI155022723
aS'-'
asS'SPIN2A'
p474
(lp475
I57135649
aI57138688
aS'-'
asS'SPIN2B'
p476
(lp477
I57112141
aI57121905
aS'-'
asS'ZNF630'
p478
(lp479
I48058177
aI48071658
aS'-'
asS'C1GALT1C1'
p480
(lp481
I120625673
aI120630150
aS'-'
asS'MOSPD1'
p482
(lp483
I134887625
aI134915344
aS'-'
asS'SOX3'
p484
(lp485
I140502986
aI140505060
aS'-'
asS'MIR3937'
p486
(lp487
I39661215
aI39661321
aS'+'
asS'UBQLN2'
p488
(lp489
I56563592
aI56567010
aS'+'
asS'MIR1184-1'
p490
(lp491
I154887359
aI154887458
aS'-'
asS'MIR1184-2'
p492
(lp493
I155383099
aI155383198
aS'-'
asS'MIR1184-3'
p494
(lp495
I155457516
aI155457615
aS'+'
asS'LINC00893'
p496
(lp497
I149527590
aI149539752
aS'-'
asS'LOC105373372'
p498
(lp499
I152930262
aI152931684
aS'-'
asS'LOC389895'
p500
(lp501
I140091666
aI140092911
aS'+'
asS'LOC105373294'
p502
(lp503
I96363951
aI96391848
aS'-'
asS'WASIR1'
p504
(lp505
I156014614
aI156017057
aS'-'
asS'CT47A12'
p506
(lp507
I120877489
aI120932297
aS'-'
asS'SLC38A5'
p508
(lp509
I48458536
aI48470256
aS'-'
asS'RBM3'
p510
(lp511
I48574352
aI48581165
aS'+'
asS'MIR6134'
p512
(lp513
I28495554
aI28495663
aS'-'
asS'MORC4'
p514
(lp515
I106940299
aI107000244
aS'-'
asS'ZMYM3'
p516
(lp517
I71239625
aI71255261
aS'-'
asS'RPL36A-HNRNPH2'
p518
(lp519
I101390889
aI101414140
aS'+'
asS'CT47A10'
p520
(lp521
I120938700
aI120942019
aS'-'
asS'IGSF1'
p522
(lp523
I131273505
aI131289457
aS'-'
asS'KIAA2022'
p524
(lp525
I74732855
aI74925452
aS'-'
asS'LOC401585'
p526
(lp527
I45848073
aI45851490
aS'-'
asS'RBMXL3'
p528
(lp529
I115189399
aI115192868
aS'+'
asS'MAGEA8'
p530
(lp531
I149881140
aI149885835
aS'+'
asS'LOC401589'
p532
(lp533
I52052110
aI52054253
aS'-'
asS'AP1S2'
p534
(lp535
I15825805
aI15855014
aS'-'
asS'LOC100101478'
p536
(lp537
I104060503
aI104062938
aS'-'
asS'MAGEA3'
p538
(lp539
I152698741
aI152702347
aS'+'
asS'MAGEA2'
p540
(lp541
I152749862
aI152753942
aS'-'
asS'MAGEA1'
p542
(lp543
I153179283
aI153183878
aS'+'
asS'TRPC5OS'
p544
(lp545
I111876050
aI111903990
aS'+'
asS'ARMCX6'
p546
(lp547
I101615117
aI101618001
aS'-'
asS'RS1'
p548
(lp549
I18639687
aI18672103
aS'-'
asS'EIF2S3'
p550
(lp551
I24054947
aI24078810
aS'+'
asS'GYG2'
p552
(lp553
I2828711
aI2882820
aS'+'
asS'RGAG4'
p554
(lp555
I72127109
aI72131901
aS'-'
asS'NXF2'
p556
(lp557
I102247099
aI102326720
aS'+'
asS'DIAPH2'
p558
(lp559
I96684662
aI97600598
aS'+'
asS'MIR548AX'
p560
(lp561
I11318613
aI11318686
aS'-'
asS'RGAG1'
p562
(lp563
I110358100
aI110456322
aS'+'
asS'GJB1'
p564
(lp565
I71215211
aI71225215
aS'+'
asS'LOC286437'
p566
(lp567
I104122304
aI104124632
aS'-'
asS'CDK16'
p568
(lp569
I47217880
aI47229997
aS'+'
asS'OPHN1'
p570
(lp571
I68042343
aI68433457
aS'-'
asS'KIF4A'
p572
(lp573
I70290028
aI70420924
aS'+'
asS'MAGEA6'
p574
(lp575
I152766135
aI152769729
aS'-'
asS'CXCR3'
p576
(lp577
I71615912
aI71618515
aS'-'
asS'ZCCHC5'
p578
(lp579
I78656068
aI78659328
aS'-'
asS'RAI2'
p580
(lp581
I17800048
aI17861346
aS'-'
asS'MUM1L1'
p582
(lp583
I106168277
aI106208961
aS'+'
asS'LINC01284'
p584
(lp585
I51095835
aI51117830
aS'-'
asS'NHS'
p586
(lp587
I17375419
aI17735994
aS'+'
asS'MIR320D2'
p588
(lp589
I140926171
aI140926219
aS'-'
asS'MID1'
p590
(lp591
I10445555
aI11111264
aS'-'
asS'MIR891B'
p592
(lp593
I146001052
aI146001131
aS'-'
asS'KLF8'
p594
(lp595
I55908122
aI56291531
aS'+'
asS'INE2'
p596
(lp597
I15785715
aI15787589
aS'-'
asS'REPS2'
p598
(lp599
I16946726
aI17194274
aS'+'
asS'CT83'
p600
(lp601
I116461685
aI116463033
aS'-'
asS'MCTS1'
p602
(lp603
I120603888
aI120621159
aS'+'
asS'MIR548F5'
p604
(lp605
I32641473
aI32641559
aS'-'
asS'H2AFB3'
p606
(lp607
I155459418
aI155459935
aS'-'
asS'SNORA11'
p608
(lp609
I54814369
aI54814500
aS'+'
asS'VAMP7'
p610
(lp611
I155881279
aI155943769
aS'+'
asS'NLGN4X'
p612
(lp613
I5890025
aI6228882
aS'-'
asS'TMEM255A'
p614
(lp615
I120250983
aI120311556
aS'-'
asS'MIR767'
p616
(lp617
I152393420
aI152393529
aS'-'
asS'MIR766'
p618
(lp619
I119646737
aI119646848
aS'-'
asS'P2RY8'
p620
(lp621
I1462575
aI1537488
aS'-'
asS'MIR764'
p622
(lp623
I114639434
aI114639519
aS'+'
asS'SPANXB1'
p624
(lp625
I141002590
aI141003706
aS'+'
asS'LOC107985720'
p626
(lp627
I47129028
aI47131200
aS'+'
asS'VMA21'
p628
(lp629
I151396554
aI151409364
aS'+'
asS'STS'
p630
(lp631
I7147251
aI7354643
aS'+'
asS'TEX13C'
p632
(lp633
I125319870
aI125325214
aS'+'
asS'SASH3'
p634
(lp635
I129779915
aI129795201
aS'+'
asS'P2RY4'
p636
(lp637
I70258165
aI70259804
aS'-'
asS'TEX13B'
p638
(lp639
I107980863
aI107982370
aS'-'
asS'ARSD'
p640
(lp641
I2903969
aI2929375
aS'-'
asS'ARSE'
p642
(lp643
I2934631
aI2968310
aS'-'
asS'ARSF'
p644
(lp645
I3040233
aI3112729
aS'+'
asS'AIFM1'
p646
(lp647
I130129361
aI130165887
aS'-'
asS'TBL1X'
p648
(lp649
I9463294
aI9719740
aS'+'
asS'CT47A2'
p650
(lp651
I120977605
aI120980924
aS'-'
asS'CT47A1'
p652
(lp653
I120982465
aI120985784
aS'-'
asS'MAGEH1'
p654
(lp655
I55452088
aI55453568
aS'+'
asS'AWAT1'
p656
(lp657
I70233488
aI70240661
aS'+'
asS'OGT'
p658
(lp659
I71533061
aI71575897
aS'+'
asS'ARMCX5'
p660
(lp661
I102599167
aI102604159
aS'+'
asS'ARMCX4'
p662
(lp663
I101418262
aI101535988
aS'+'
asS'ARSH'
p664
(lp665
I3006612
aI3033385
aS'+'
asS'ARMCX2'
p666
(lp667
I101655280
aI101659891
aS'-'
asS'ARMCX1'
p668
(lp669
I101550530
aI101554700
aS'+'
asS'GLRA4'
p670
(lp671
I103707343
aI103728624
aS'-'
asS'FAM127B'
p672
(lp673
I135050931
aI135052191
aS'-'
asS'LOC105377213'
p674
(lp675
I151515550
aI151516262
aS'+'
asS'MAP3K15'
p676
(lp677
I19360058
aI19515455
aS'-'
asS'CXorf49B'
p678
(lp679
I71763289
aI71767201
aS'+'
asS'MAGEA9B'
p680
(lp681
I149581652
aI149587468
aS'-'
asS'MAGED4B'
p682
(lp683
I52061826
aI52069272
aS'-'
asS'DMRTC1B'
p684
(lp685
I72777169
aI72848802
aS'+'
asS'CFP'
p686
(lp687
I47624212
aI47630305
aS'-'
asS'LOC101928228'
p688
(lp689
I5719170
aI5726136
aS'-'
asS'SYTL5'
p690
(lp691
I37888914
aI38128820
aS'+'
asS'SYTL4'
p692
(lp693
I100671963
aI100732145
aS'-'
asS'LINC00890'
p694
(lp695
I111511661
aI111522399
aS'+'
asS'LINC00891'
p696
(lp697
I71697195
aI71703406
aS'+'
asS'LINC00894'
p698
(lp699
I149938547
aI150016787
aS'+'
asS'GAGE1'
p700
(lp701
I49599012
aI49608536
aS'+'
asS'MCF2'
p702
(lp703
I139581767
aI139708279
aS'-'
asS'RPGR'
p704
(lp705
I38269162
aI38327564
aS'-'
asS'HUWE1'
p706
(lp707
I53532095
aI53686729
aS'-'
asS'UPRT'
p708
(lp709
I75274058
aI75304897
aS'+'
asS'RIBC1'
p710
(lp711
I53422781
aI53431115
aS'+'
asS'TMEM31'
p712
(lp713
I103710908
aI103714032
aS'+'
asS'LOC105373342'
p714
(lp715
I135327102
aI135330459
aS'+'
asS'LOC105373343'
p716
(lp717
I140216025
aI140216804
aS'-'
asS'LOC105373305'
p718
(lp719
I106008050
aI106009400
aS'+'
asS'ARAF'
p720
(lp721
I47561099
aI47571921
aS'+'
asS'LOC105373347'
p722
(lp723
I147181048
aI147271945
aS'+'
asS'CT45A2'
p724
(lp725
I135811978
aI135820062
aS'-'
asS'LOC105373345'
p726
(lp727
I142546404
aI142624656
aS'+'
asS'USP26'
p728
(lp729
I133024630
aI133083768
aS'-'
asS'LOC105373348'
p730
(lp731
I147323915
aI147332136
aS'-'
asS'SLC25A14'
p732
(lp733
I130339887
aI130373361
aS'+'
asS'LOC107985693'
p734
(lp735
I151391300
aI151397137
aS'-'
asS'LOC100132831'
p736
(lp737
I40831216
aI40833196
aS'-'
asS'LOC107985692'
p738
(lp739
I119244739
aI119273600
aS'-'
asS'LOC105373300'
p740
(lp741
I103530766
aI103554953
aS'-'
asS'ARHGEF9'
p742
(lp743
I63634966
aI63786025
aS'-'
asS'ARHGEF6'
p744
(lp745
I136665546
aI136781656
aS'-'
asS'LOC107985695'
p746
(lp747
I48617239
aI48639305
aS'+'
asS'ASB9'
p748
(lp749
I15243986
aI15270476
aS'-'
asS'TNMD'
p750
(lp751
I100584792
aI100599885
aS'+'
asS'DYNLT3'
p752
(lp753
I37838835
aI37847636
aS'-'
asS'LOC105373202'
p754
(lp755
I50979078
aI50992526
aS'+'
asS'MIR548AM'
p756
(lp757
I16627011
aI16627085
aS'-'
asS'RAB40A'
p758
(lp759
I103499752
aI103519489
aS'-'
asS'LOC102723911'
p760
(lp761
I69030775
aI69040276
aS'+'
asS'MTMR8'
p762
(lp763
I64268080
aI64395453
aS'-'
asS'FAM45BP'
p764
(lp765
I130494940
aI130497448
aS'+'
asS'SPIN4'
p766
(lp767
I63347227
aI63351339
aS'-'
asS'LOC107983954'
p768
(lp769
I153476925
aI153483800
aS'+'
asS'GATA1'
p770
(lp771
I48786539
aI48794311
aS'+'
asS'TEX28'
p772
(lp773
I154271264
aI154295356
aS'-'
asS'SLC9A6'
p774
(lp775
I135974596
aI136047131
aS'+'
asS'MTMR1'
p776
(lp777
I150692996
aI150764925
aS'+'
asS'UXT-AS1'
p778
(lp779
I47658832
aI47660111
aS'+'
asS'AKAP4'
p780
(lp781
I50190767
aI50201013
aS'-'
asS'LOC105373285'
p782
(lp783
I81475551
aI81498296
aS'+'
asS'LOC105373284'
p784
(lp785
I81361515
aI81428664
aS'+'
asS'LOC105373283'
p786
(lp787
I80841122
aI80847124
aS'+'
asS'LOC105373282'
p788
(lp789
I79447096
aI79453988
aS'+'
asS'PIR-FIGF'
p790
(lp791
I15345590
aI15491309
aS'-'
asS'SSX2B'
p792
(lp793
I52751203
aI52761536
aS'+'
asS'TSC22D3'
p794
(lp795
I107713220
aI107777329
aS'-'
asS'CHM'
p796
(lp797
I85861179
aI86047565
aS'-'
asS'KANTR'
p798
(lp799
I53094156
aI53144072
aS'+'
asS'ESX1'
p800
(lp801
I104250037
aI104254918
aS'-'
asS'MIR2114'
p802
(lp803
I150228003
aI150228083
aS'+'
asS'LOC107985719'
p804
(lp805
I119501477
aI119512804
aS'-'
asS'DMRTC1'
p806
(lp807
I72872024
aI72943653
aS'-'
asS'SH3BGRL'
p808
(lp809
I81201803
aI81298547
aS'+'
asS'THOC2'
p810
(lp811
I123600560
aI123733054
aS'-'
asS'MIR424'
p812
(lp813
I134546613
aI134546711
aS'-'
asS'ZNF645'
p814
(lp815
I22272912
aI22274461
aS'+'
asS'ZCCHC12'
p816
(lp817
I118823742
aI118826973
aS'+'
asS'MIR421'
p818
(lp819
I74218376
aI74218461
aS'-'
asS'LOC105373251'
p820
(lp821
I72807424
aI72808819
aS'-'
asS'MIR6858'
p822
(lp823
I154450319
aI154450386
aS'+'
asS'MIR384'
p824
(lp825
I76919272
aI76919360
aS'-'
asS'AVPR2'
p826
(lp827
I153902530
aI153907166
aS'+'
asS'PRRG3'
p828
(lp829
I151694605
aI151701590
aS'+'
asS'ZNF280C'
p830
(lp831
I130202698
aI130268948
aS'-'
asS'LOC105373252'
p832
(lp833
I74413274
aI74420669
aS'-'
asS'MAMLD1'
p834
(lp835
I150361421
aI150514176
aS'+'
asS'ADGRG4'
p836
(lp837
I136300962
aI136416888
aS'+'
asS'FAM223B'
p838
(lp839
I154632469
aI154633182
aS'-'
asS'ADGRG2'
p840
(lp841
I18989306
aI19122956
aS'-'
asS'MIR8088'
p842
(lp843
I52336556
aI52336642
aS'-'
asS'LOC107985646'
p844
(lp845
I69128802
aI69136371
aS'+'
asS'UBE2E4P'
p846
(lp847
I14244264
aI14245423
aS'+'
asS'CXorf56'
p848
(lp849
I119538148
aI119565434
aS'-'
asS'FIGF'
p850
(lp851
I15345590
aI15384413
aS'-'
asS'XPNPEP2'
p852
(lp853
I129738969
aI129769549
aS'+'
asS'PAK3'
p854
(lp855
I110944240
aI111227361
aS'+'
asS'PABPC5'
p856
(lp857
I91434597
aI91438584
aS'+'
asS'FOXP3'
p858
(lp859
I49250435
aI49266505
aS'-'
asS'FAM122B'
p860
(lp861
I134769565
aI134797232
aS'-'
asS'LOC105373194'
p862
(lp863
I47204973
aI47218641
aS'-'
asS'MIR1277'
p864
(lp865
I118386393
aI118386471
aS'+'
asS'NSDHL'
p866
(lp867
I152830966
aI152869363
aS'+'
asS'MSL3'
p868
(lp869
I11758158
aI11775753
aS'+'
asS'CXorf65'
p870
(lp871
I71103864
aI71106973
aS'-'
asS'VSIG4'
p872
(lp873
I66021737
aI66040125
aS'-'
asS'TMEM35A'
p874
(lp875
I101078846
aI101096367
aS'+'
asS'MIR6894'
p876
(lp877
I53198888
aI53198945
aS'-'
asS'HDX'
p878
(lp879
I84317877
aI84502578
aS'-'
asS'MAP2K4P1'
p880
(lp881
I73524274
aI73563085
aS'-'
asS'LOC107985665'
p882
(lp883
I76144693
aI76152695
aS'-'
asS'LOC107985666'
p884
(lp885
I127075537
aI127077577
aS'+'
asS'LOC105373239'
p886
(lp887
I64842759
aI64851049
aS'+'
asS'LOC105373191'
p888
(lp889
I45320457
aI45326965
aS'+'
asS'LOC107985662'
p890
(lp891
I104051467
aI104055214
aS'-'
asS'LOC107985663'
p892
(lp893
I75156295
aI75202470
aS'+'
asS'TCEANC'
p894
(lp895
I13653105
aI13665409
aS'+'
asS'LOC105377208'
p896
(lp897
I52054285
aI52058560
aS'+'
asS'ATP7A'
p898
(lp899
I77910655
aI78050395
aS'+'
asS'LOC107985669'
p900
(lp901
I78202903
aI78221173
aS'+'
asS'AMELX'
p902
(lp903
I11293412
aI11300761
aS'+'
asS'CYSLTR1'
p904
(lp905
I78271467
aI78327691
aS'-'
asS'HCCS'
p906
(lp907
I11111285
aI11123086
aS'+'
asS'GPKOW'
p908
(lp909
I49113393
aI49124547
aS'-'
asS'ASMT'
p910
(lp911
I1595454
aI1643081
aS'+'
asS'TREX2'
p912
(lp913
I153444719
aI153446487
aS'-'
asS'DDX53'
p914
(lp915
I22999960
aI23002089
aS'+'
asS'GLOD5'
p916
(lp917
I48761571
aI48773648
aS'+'
asS'FTSJ1'
p918
(lp919
I48476020
aI48486364
aS'+'
asS'HSFX2'
p920
(lp921
I149592511
aI149595310
aS'-'
asS'STK26'
p922
(lp923
I132023216
aI132075943
aS'+'
asS'TIMM8A'
p924
(lp925
I101345655
aI101348969
aS'-'
asS'HSFX1'
p926
(lp927
I149774067
aI149776859
aS'+'
asS'LOC107985712'
p928
(lp929
I54635048
aI54643620
aS'+'
asS'TBC1D8B'
p930
(lp931
I106802688
aI106876150
aS'+'
asS'PABPC1L2B'
p932
(lp933
I73003512
aI73005712
aS'+'
asS'BMX'
p934
(lp935
I15500776
aI15556529
aS'+'
asS'LOC107985713'
p936
(lp937
I88495851
aI88613464
aS'-'
asS'ZNF185'
p938
(lp939
I152898131
aI152973474
aS'+'
asS'MIR508'
p940
(lp941
I147236912
aI147237027
aS'-'
asS'F9'
p942
(lp943
I139530719
aI139563459
aS'+'
asS'ZNF182'
p944
(lp945
I47974850
aI48003995
aS'-'
asS'RAB41'
p946
(lp947
I70280977
aI70285088
aS'+'
asS'CT47A3'
p948
(lp949
I120972745
aI120976064
aS'-'
asS'TSIX'
p950
(lp951
I73792204
aI73829231
aS'+'
asS'MAGEB3'
p952
(lp953
I30230435
aI30237493
aS'+'
asS'MIR934'
p954
(lp955
I136550877
aI136550960
aS'+'
asS'MAGEB1'
p956
(lp957
I30243730
aI30252038
aS'+'
asS'MAGEB6'
p958
(lp959
I26192439
aI26195646
aS'+'
asS'MIR6895'
p960
(lp961
I53195410
aI53195488
aS'-'
asS'MAGEB4'
p962
(lp963
I30241939
aI30244193
aS'+'
asS'MAGEB5'
p964
(lp965
I26216168
aI26218270
aS'+'
asS'MAGEA4'
p966
(lp967
I151912888
aI151925170
aS'+'
asS'PDZD4'
p968
(lp969
I153802165
aI153830567
aS'-'
asS'PHEX'
p970
(lp971
I22032326
aI22251307
aS'+'
asS'MIR514B'
p972
(lp973
I147250150
aI147250230
aS'-'
asS'LOC105373306'
p974
(lp975
I106465273
aI106468005
aS'-'
asS'MIR1912'
p976
(lp977
I114651543
aI114651623
aS'+'
asS'DGAT2L6'
p978
(lp979
I70177482
aI70205703
aS'+'
asS'LOC102723546'
p980
(lp981
I131361181
aI131400349
aS'-'
asS'HNRNPH2'
p982
(lp983
I101408132
aI101414140
aS'+'
asS'CD99'
p984
(lp985
I2691132
aI2741309
aS'+'
asS'XAGE-4'
p986
(lp987
I55654691
aI55657014
aS'-'
asS'ATG4A'
p988
(lp989
I108088899
aI108154671
aS'+'
asS'OPN1MW3'
p990
(lp991
I154257619
aI154271068
aS'+'
asS'OPN1MW2'
p992
(lp993
I154219733
aI154233286
aS'+'
asS'MAOB'
p994
(lp995
I43766609
aI43882475
aS'-'
asS'MAOA'
p996
(lp997
I43654906
aI43746824
aS'+'
asS'LOC101928495'
p998
(lp999
I126109761
aI126115562
aS'+'
asS'HS6ST2'
p1000
(lp1001
I132626009
aI132961395
aS'-'
asS'MIR1911'
p1002
(lp1003
I114763183
aI114763263
aS'+'
asS'MIR3915'
p1004
(lp1005
I32583655
aI32583752
aS'-'
asS'PCDH19'
p1006
(lp1007
I100291643
aI100410273
aS'-'
asS'MECP2'
p1008
(lp1009
I154021812
aI154097731
aS'-'
asS'RPS26P11'
p1010
(lp1011
I72044408
aI72044974
aS'+'
asS'BTK'
p1012
(lp1013
I101349446
aI101390796
aS'-'
asS'LOC392452'
p1014
(lp1015
I45731087
aI45731757
aS'+'
asS'LOC105373304'
p1016
(lp1017
I105949715
aI106007947
aS'-'
asS'EFNB1'
p1018
(lp1019
I68828996
aI68842164
aS'+'
asS'TCP11X2'
p1020
(lp1021
I102460318
aI102471812
aS'-'
asS'LOC105373303'
p1022
(lp1023
I105661614
aI105773642
aS'-'
asS'LOC100506790'
p1024
(lp1025
I135396428
aI135397749
aS'+'
asS'HDAC6'
p1026
(lp1027
I48801376
aI48824982
aS'+'
asS'HDAC8'
p1028
(lp1029
I72329515
aI72573103
aS'-'
asS'INTS6L'
p1030
(lp1031
I135520629
aI135582535
aS'+'
asS'UBL4A'
p1032
(lp1033
I154483716
aI154486670
aS'-'
asS'TEX11'
p1034
(lp1035
I70511226
aI70908711
aS'-'
asS'TLR8-AS1'
p1036
(lp1037
I12902816
aI12943300
aS'-'
asS'LOC105373308'
p1038
(lp1039
I107589530
aI107597312
aS'-'
asS'SNORD61'
p1040
(lp1041
I136879198
aI136879271
aS'-'
asS'SPRY3'
p1042
(lp1043
I155612564
aI155782459
aS'+'
asS'CYLC1'
p1044
(lp1045
I83861125
aI83886700
aS'+'
asS'PGAM4'
p1046
(lp1047
I77967960
aI77969638
aS'-'
asS'MAGT1'
p1048
(lp1049
I77826363
aI77895568
aS'-'
asS'MIR374A'
p1050
(lp1051
I74287285
aI74287357
aS'-'
asS'TRPC5'
p1052
(lp1053
I111774313
aI112082776
aS'-'
asS'LOC107985714'
p1054
(lp1055
I96429988
aI96542339
aS'-'
asS'LOC107985715'
p1056
(lp1057
I8494306
aI8504791
aS'-'
asS'LOC107985716'
p1058
(lp1059
I8488655
aI8494301
aS'-'
asS'LOC107985717'
p1060
(lp1061
I42804336
aI42947019
aS'-'
asS'LOC107985710'
p1062
(lp1063
I94851181
aI94919240
aS'+'
asS'LOC107985711'
p1064
(lp1065
I39398726
aI39434788
aS'-'
asS'GABRA3'
p1066
(lp1067
I152166233
aI152451359
aS'-'
asS'ITIH6'
p1068
(lp1069
I54748898
aI54798240
aS'-'
asS'CDKL5'
p1070
(lp1071
I18425604
aI18653629
aS'+'
asS'ERCC6L'
p1072
(lp1073
I72204656
aI72239008
aS'-'
asS'LOC102724124'
p1074
(lp1075
I16154605
aI16167463
aS'-'
asS'RNF128'
p1076
(lp1077
I106693837
aI106797016
aS'+'
asS'HYPM'
p1078
(lp1079
I37990816
aI37991317
aS'+'
asS'TMLHE-AS1'
p1080
(lp1081
I155466539
aI155494110
aS'+'
asS'LOC101928863'
p1082
(lp1083
I147282324
aI147286735
aS'-'
asS'FANCB'
p1084
(lp1085
I14690862
aI14873255
aS'-'
asS'VENTXP1'
p1086
(lp1087
I26558336
aI26561052
aS'+'
asS'CNGA2'
p1088
(lp1089
I151734745
aI151745564
aS'+'
asS'DUSP9'
p1090
(lp1091
I153642442
aI153651326
aS'+'
asS'VGLL1'
p1092
(lp1093
I136532151
aI136556807
aS'+'
asS'ATP2B3'
p1094
(lp1095
I153517677
aI153582929
aS'+'
asS'MIR18B'
p1096
(lp1097
I134170040
aI134170111
aS'-'
asS'CT47B1'
p1098
(lp1099
I120872553
aI120875887
aS'-'
asS'RNF113A'
p1100
(lp1101
I119870531
aI119871828
aS'-'
asS'CA5B'
p1102
(lp1103
I15738288
aI15787625
aS'+'
asS'MIR6087'
p1104
(lp1105
I109054541
aI109054590
aS'+'
asS'KLHL13'
p1106
(lp1107
I117897812
aI118117340
aS'-'
asS'CLIC2'
p1108
(lp1109
I155276206
aI155334681
aS'-'
asS'KLHL15'
p1110
(lp1111
I23983715
aI24027186
aS'-'
asS'MIR188'
p1112
(lp1113
I50003502
aI50003588
aS'+'
asS'FLJ32742'
p1114
(lp1115
I27590221
aI27716779
aS'+'
asS'LOC105373152'
p1116
(lp1117
I28065864
aI28073183
aS'+'
asS'LOC105373151'
p1118
(lp1119
I27983883
aI28051451
aS'+'
asS'LOC105373150'
p1120
(lp1121
I27153367
aI27399005
aS'-'
asS'IRAK1'
p1122
(lp1123
I154010506
aI154019906
aS'-'
asS'XG'
p1124
(lp1125
I2751107
aI2816500
aS'+'
asS'LOC101928437'
p1126
(lp1127
I113042726
aI113520614
aS'+'
asS'LOC105373154'
p1128
(lp1129
I36902397
aI36959104
aS'-'
asS'NUDT10'
p1130
(lp1131
I51332230
aI51337525
aS'+'
asS'NUDT11'
p1132
(lp1133
I51490010
aI51496607
aS'-'
asS'LAMP2'
p1134
(lp1135
I120426147
aI120469349
aS'-'
asS'PTCHD1'
p1136
(lp1137
I23334369
aI23404374
aS'+'
asS'OPN1LW'
p1138
(lp1139
I154144223
aI154159032
aS'+'
asS'RPS4X'
p1140
(lp1141
I72272602
aI72277291
aS'-'
asS'ZC4H2'
p1142
(lp1143
I64915801
aI65034744
aS'-'
asS'LINC01560'
p1144
(lp1145
I47482715
aI47485227
aS'+'
asS'MIR20B'
p1146
(lp1147
I134169808
aI134169877
aS'-'
asS'TAF7L'
p1148
(lp1149
I101268252
aI101293071
aS'-'
asS'MIR503'
p1150
(lp1151
I134546327
aI134546398
aS'-'
asS'MIR502'
p1152
(lp1153
I50014597
aI50014683
aS'+'
asS'MIR501'
p1154
(lp1155
I50009721
aI50009805
aS'+'
asS'MIR507'
p1156
(lp1157
I147230983
aI147231077
aS'-'
asS'MIR506'
p1158
(lp1159
I147230719
aI147230843
aS'-'
asS'MIR505'
p1160
(lp1161
I139924147
aI139924231
aS'-'
asS'UQCRBP1'
p1162
(lp1163
I56736787
aI56737584
aS'-'
asS'IRS4'
p1164
(lp1165
I108719948
aI108736584
aS'-'
asS'MIR513C'
p1166
(lp1167
I147189703
aI147189787
aS'-'
asS'UBE2NL'
p1168
(lp1169
I143884070
aI143885255
aS'+'
asS'SNORA109'
p1170
(lp1171
I55183479
aI55183607
aS'-'
asS'GDPD2'
p1172
(lp1173
I70423030
aI70433391
aS'+'
asS'ARX'
p1174
(lp1175
I25003693
aI25015948
aS'-'
asS'MIR92A2'
p1176
(lp1177
I134169537
aI134169612
aS'-'
asS'SOWAHD'
p1178
(lp1179
I119758612
aI119760202
aS'+'
asS'TTC3P1'
p1180
(lp1181
I75740537
aI75743079
aS'-'
asS'GLRA2'
p1182
(lp1183
I14448778
aI14730950
aS'+'
asS'LOC101928032'
p1184
(lp1185
I1337573
aI1341713
aS'-'
asS'TAF9B'
p1186
(lp1187
I78129747
aI78139682
aS'-'
asS'LOC102724150'
p1188
(lp1189
I89403128
aI89455254
aS'+'
asS'SNORA11C'
p1190
(lp1191
I47388649
aI47388776
aS'+'
asS'LPAR4'
p1192
(lp1193
I78747657
aI78758714
aS'+'
asS'LAGE3'
p1194
(lp1195
I154477768
aI154479257
aS'-'
asS'POLA1'
p1196
(lp1197
I24693832
aI24996986
aS'+'
asS'SPANXD'
p1198
(lp1199
I141697400
aI141698739
aS'-'
asS'XK'
p1200
(lp1201
I37685879
aI37732130
aS'+'
asS'CLDN34'
p1202
(lp1203
I9961041
aI9968381
aS'+'
asS'ARMCX3'
p1204
(lp1205
I101623126
aI101631910
aS'+'
asS'PRDX4'
p1206
(lp1207
I23664259
aI23686399
aS'+'
asS'FGF13-AS1'
p1208
(lp1209
I138712106
aI138716605
aS'+'
asS'SPANXA2'
p1210
(lp1211
I141589707
aI141590772
aS'+'
asS'LOC107985627'
p1212
(lp1213
I11223052
aI11229035
aS'+'
asS'ZMAT1'
p1214
(lp1215
I101882287
aI101932135
aS'-'
asS'CXorf38'
p1216
(lp1217
I40626920
aI40647678
aS'-'
asS'RAB40AL'
p1218
(lp1219
I102937271
aI102938300
aS'+'
asS'CT47A9'
p1220
(lp1221
I120943560
aI120946879
aS'-'
asS'MAGEA5'
p1222
(lp1223
I152114048
aI152117939
aS'-'
asS'TRMT2B'
p1224
(lp1225
I100973357
aI101052111
aS'-'
asS'SMARCA1'
p1226
(lp1227
I129446500
aI129523520
aS'-'
asS'PRKX'
p1228
(lp1229
I3604342
aI3713634
aS'-'
asS'CXorf36'
p1230
(lp1231
I45148372
aI45200901
aS'-'
asS'PAGE4'
p1232
(lp1233
I49829259
aI49834264
aS'+'
asS'NLGN3'
p1234
(lp1235
I71147613
aI71175307
aS'+'
asS'PABPC5-AS1'
p1236
(lp1237
I91414902
aI91434999
aS'-'
asS'IQSEC2'
p1238
(lp1239
I53225783
aI53321350
aS'-'
asS'ACRC'
p1240
(lp1241
I71578023
aI71613583
aS'+'
asS'LOC105373247'
p1242
(lp1243
I71254912
aI71272322
aS'+'
asS'PAGE2'
p1244
(lp1245
I55089051
aI55092836
aS'+'
asS'ASMTL-AS1'
p1246
(lp1247
I1400530
aI1415421
aS'+'
asS'LINC01203'
p1248
(lp1249
I13335240
aI13341825
aS'+'
asS'LINC01204'
p1250
(lp1251
I45505387
aI45527239
aS'+'
asS'ZNF630-AS1'
p1252
(lp1253
I48056309
aI48066583
aS'+'
asS'LOC105369163'
p1254
(lp1255
I85140634
aI85243751
aS'-'
asS'LOC105373153'
p1256
(lp1257
I33726451
aI34078561
aS'+'
asS'MED12'
p1258
(lp1259
I71118555
aI71142454
aS'+'
asS'ABCB7'
p1260
(lp1261
I75053171
aI75156340
aS'-'
asS'ANOS1'
p1262
(lp1263
I8528873
aI8732187
aS'-'
asS'SNORA35'
p1264
(lp1265
I114630796
aI114630924
aS'+'
asS'ZNF711'
p1266
(lp1267
I85243819
aI85273362
aS'+'
asS'RLIM'
p1268
(lp1269
I74582975
aI74614626
aS'-'
asS'MAGEA9'
p1270
(lp1271
I149781920
aI149787735
aS'+'
asS'KCND1'
p1272
(lp1273
I48960982
aI48972099
aS'-'
asS'BCAP31'
p1274
(lp1275
I153700491
aI153724746
aS'-'
asS'XAGE1B'
p1276
(lp1277
I52495667
aI52500815
aS'+'
asS'RP2'
p1278
(lp1279
I46836911
aI46882358
aS'+'
asS'XAGE1E'
p1280
(lp1281
I52512073
aI52517221
aS'-'
asS'DCAF12L2'
p1282
(lp1283
I126163498
aI126166097
aS'-'
asS'TXLNG'
p1284
(lp1285
I16786431
aI16844519
aS'+'
asS'CENPI'
p1286
(lp1287
I101098188
aI101181847
aS'+'
asS'DCAF12L1'
p1288
(lp1289
I126549382
aI126552859
aS'-'
asS'LOC105373156'
p1290
(lp1291
I6226357
aI6230291
aS'+'
asS'CYBB'
p1292
(lp1293
I37780016
aI37813461
aS'+'
asS'LOC107985651'
p1294
(lp1295
I112841746
aI112847073
aS'+'
asS'LOC101928692'
p1296
(lp1297
I55488925
aI55491513
aS'+'
asS'LOC105373155'
p1298
(lp1299
I36719137
aI36746480
aS'+'
asS'SCML2'
p1300
(lp1301
I18239312
aI18354724
aS'-'
asS'SCML1'
p1302
(lp1303
I17737448
aI17754988
aS'+'
asS'RAP2C'
p1304
(lp1305
I132203023
aI132219480
aS'-'
asS'CCNB3'
p1306
(lp1307
I50202712
aI50351914
aS'+'
asS'TCEAL3'
p1308
(lp1309
I103607905
aI103609927
aS'+'
asS'MAGEA11'
p1310
(lp1311
I149688201
aI149717253
aS'+'
asS'MAGEA10'
p1312
(lp1313
I152133309
aI152138578
aS'-'
asS'CH17-340M24.3'
p1314
(lp1315
I154424379
aI154428479
aS'-'
asS'ZNF157'
p1316
(lp1317
I47370599
aI47413699
aS'+'
asS'CXorf49'
p1318
(lp1319
I71714373
aI71718285
aS'-'
asS'H2BFWT'
p1320
(lp1321
I104011146
aI104013687
aS'-'
asS'XRCC6P5'
p1322
(lp1323
I99461601
aI99939843
aS'-'
asS'OTC'
p1324
(lp1325
I38352482
aI38421450
aS'+'
asS'DLG3-AS1'
p1326
(lp1327
I70452955
aI70455994
aS'-'
asS'TCEAL1'
p1328
(lp1329
I103628719
aI103630953
aS'+'
asS'CSTF2'
p1330
(lp1331
I100820362
aI100841520
aS'+'
asS'JPX'
p1332
(lp1333
I73944323
aI74070384
aS'+'
asS'CUL4B'
p1334
(lp1335
I120524588
aI120575829
aS'-'
asS'SSR4'
p1336
(lp1337
I153794174
aI153798512
aS'+'
asS'ARHGAP36'
p1338
(lp1339
I131058241
aI131089885
aS'+'
asS'CXXC1P1'
p1340
(lp1341
I47707190
aI47736628
aS'+'
asS'CENPVP2'
p1342
(lp1343
I51681211
aI51682514
aS'-'
asS'CENPVP1'
p1344
(lp1345
I51710828
aI51712131
aS'+'
asS'LOC107983972'
p1346
(lp1347
I103562090
aI103585510
aS'-'
asS'MED14OS'
p1348
(lp1349
I40735395
aI40738701
aS'+'
asS'BEX5'
p1350
(lp1351
I102153706
aI102156014
aS'-'
asS'ZFX'
p1352
(lp1353
I24148993
aI24216089
aS'+'
asS'CRLF2'
p1354
(lp1355
I1190436
aI1212761
aS'-'
asS'TCEAL5'
p1356
(lp1357
I103273689
aI103276869
aS'-'
asS'SSX7'
p1358
(lp1359
I52644060
aI52654900
aS'-'
asS'ZXDA'
p1360
(lp1361
I57905429
aI57910633
aS'-'
asS'FAM3A'
p1362
(lp1363
I154506163
aI154516249
aS'-'
asS'TBX22'
p1364
(lp1365
I80014729
aI80035828
aS'+'
asS'SSX4'
p1366
(lp1367
I48383526
aI48393343
aS'+'
asS'BGN'
p1368
(lp1369
I153494888
aI153509554
aS'+'
asS'MIR548AJ2'
p1370
(lp1371
I38023894
aI38023986
aS'-'
asS'FIRRE'
p1372
(lp1373
I131702649
aI131830643
aS'-'
asS'TFDP3'
p1374
(lp1375
I133216668
aI133218348
aS'-'
asS'LOC101927685'
p1376
(lp1377
I149929623
aI149931287
aS'+'
asS'CT47A8'
p1378
(lp1379
I120948421
aI120951740
aS'-'
asS'PRKX-AS1'
p1380
(lp1381
I3659486
aI3668192
aS'+'
asS'MIR651'
p1382
(lp1383
I8126964
aI8127061
aS'+'
asS'GPR34'
p1384
(lp1385
I41686542
aI41697275
aS'+'
asS'PPP1R3F'
p1386
(lp1387
I49269821
aI49301465
aS'+'
asS'UXT'
p1388
(lp1389
I47651791
aI47659180
aS'-'
asS'MIRLET7F2'
p1390
(lp1391
I53557191
aI53557274
aS'-'
asS'MIR888'
p1392
(lp1393
I145994783
aI145994860
aS'-'
asS'FAM50A'
p1394
(lp1395
I154444125
aI154450654
aS'+'
asS'LINC00633'
p1396
(lp1397
I135118954
aI135120477
aS'-'
asS'FAM46D'
p1398
(lp1399
I80335503
aI80445311
aS'+'
asS'UBE2DNL'
p1400
(lp1401
I84934150
aI84934890
aS'+'
asS'MPP1'
p1402
(lp1403
I154778683
aI154805527
aS'-'
asS'KCNE5'
p1404
(lp1405
I109623699
aI109625164
aS'-'
asS'ATP6AP1'
p1406
(lp1407
I154428631
aI154436517
aS'+'
asS'CCDC160'
p1408
(lp1409
I134237190
aI134246207
aS'+'
asS'CACNA1F'
p1410
(lp1411
I49205062
aI49233404
aS'-'
asS'ATP6AP2'
p1412
(lp1413
I40580963
aI40606637
aS'+'
asS'PPP2R3B'
p1414
(lp1415
I333932
aI386955
aS'-'
asS'MIR548I4'
p1416
(lp1417
I84225751
aI84225828
aS'-'
asS'SRPX2'
p1418
(lp1419
I100644165
aI100671299
aS'+'
asS'PNMA6A'
p1420
(lp1421
I153072413
aI153075019
aS'+'
asS'GPR50-AS1'
p1422
(lp1423
I151175197
aI151177836
aS'-'
asS'CXorf51B'
p1424
(lp1425
I146809783
aI146810411
aS'+'
asS'DANT2'
p1426
(lp1427
I115840395
aI115969111
aS'-'
asS'MBNL3'
p1428
(lp1429
I132369313
aI132489968
aS'-'
asS'H2BFXP'
p1430
(lp1431
I103975923
aI103978357
aS'+'
asS'USP11'
p1432
(lp1433
I47232914
aI47248328
aS'+'
asS'MIR509-3'
p1434
(lp1435
I147259651
aI147259726
aS'-'
asS'MIR509-2'
p1436
(lp1437
I147258759
aI147258850
aS'-'
asS'MIR509-1'
p1438
(lp1439
I147260531
aI147260625
aS'-'
asS'LOC100132741'
p1440
(lp1441
I71778168
aI71784378
aS'-'
asS'FAM104B'
p1442
(lp1443
I55143101
aI55161195
aS'-'
asS'LAS1L'
p1444
(lp1445
I65512581
aI65534806
aS'-'
asS'WNK3'
p1446
(lp1447
I54192822
aI54358695
aS'-'
asS'PNPLA4'
p1448
(lp1449
I7898861
aI7928587
aS'-'
asS'MIR98'
p1450
(lp1451
I53556222
aI53556341
aS'-'
asS'SLC25A6'
p1452
(lp1453
I1386151
aI1392146
aS'-'
asS'CLCN5'
p1454
(lp1455
I49922614
aI50099235
aS'+'
asS'CLCN4'
p1456
(lp1457
I10156944
aI10237660
aS'+'
asS'PJA1'
p1458
(lp1459
I69160737
aI69165522
aS'-'
asS'LOC101928808'
p1460
(lp1461
I146394681
aI146401858
aS'+'
asS'LOC101928917'
p1462
(lp1463
I149548209
aI149549852
aS'-'
asS'ACOT9'
p1464
(lp1465
I23701054
aI23743287
aS'-'
asS'PRAF2'
p1466
(lp1467
I49071155
aI49074045
aS'-'
asS'LINC01402'
p1468
(lp1469
I120117641
aI120119700
aS'-'
asS'H2BFM'
p1470
(lp1471
I104039752
aI104042454
aS'+'
asS'MAGIX'
p1472
(lp1473
I49162842
aI49168157
aS'+'
asS'RBM41'
p1474
(lp1475
I107061884
aI107118827
aS'-'
asS'PCYT1B'
p1476
(lp1477
I24558086
aI24672862
aS'-'
asS'SPANXA1'
p1478
(lp1479
I141583673
aI141584738
aS'-'
asS'MIR504'
p1480
(lp1481
I138667710
aI138667793
aS'-'
asS'RBBP7'
p1482
(lp1483
I16844649
aI16870411
aS'-'
asS'PQBP1'
p1484
(lp1485
I48897861
aI48903143
aS'+'
asS'LOC101928070'
p1486
(lp1487
I2320556
aI2337729
aS'+'
asS'SMIM10L2A'
p1488
(lp1489
I135421932
aI135428074
aS'+'
asS'NKAP'
p1490
(lp1491
I119925049
aI119943772
aS'-'
asS'SYP'
p1492
(lp1493
I49187811
aI49200202
aS'-'
asS'LINC00889'
p1494
(lp1495
I138614730
aI138617638
aS'-'
asS'ZNF275'
p1496
(lp1497
I153334154
aI153352926
aS'+'
asS'AMMECR1'
p1498
(lp1499
I110194185
aI110440233
aS'-'
asS'DIAPH2-AS1'
p1500
(lp1501
I97528363
aI97564535
aS'-'
asS'ZXDB'
p1502
(lp1503
I57591835
aI57597477
aS'+'
asS'LOC101928677'
p1504
(lp1505
I135252011
aI135255796
aS'+'
asS'CXorf67'
p1506
(lp1507
I51406914
aI51408838
aS'+'
asS'IKBKG'
p1508
(lp1509
I154542239
aI154565046
aS'+'
asS'MPC1L'
p1510
(lp1511
I40623565
aI40624139
aS'+'
asS'EMD'
p1512
(lp1513
I154379236
aI154381523
aS'+'
asS'CSF2RA'
p1514
(lp1515
I1268833
aI1325097
aS'+'
asS'DMD'
p1516
(lp1517
I31119227
aI33339609
aS'-'
asS'LOC105373344'
p1518
(lp1519
I140517812
aI140520395
aS'+'
asS'TEX13A'
p1520
(lp1521
I105218928
aI105220693
aS'-'
asS'CXorf66'
p1522
(lp1523
I139955724
aI139965518
aS'-'
asS'GRIA3'
p1524
(lp1525
I123184242
aI123490915
aS'+'
asS'LOC107985689'
p1526
(lp1527
I23942099
aI23953442
aS'+'
asS'ZNF75D'
p1528
(lp1529
I135248588
aI135344087
aS'-'
asS'ARL13A'
p1530
(lp1531
I100969010
aI100990831
aS'+'
asS'ACTRT1'
p1532
(lp1533
I128050961
aI128052403
aS'-'
asS'MIR4769'
p1534
(lp1535
I47587428
aI47587505
aS'+'
asS'LOC105373126'
p1536
(lp1537
I9738684
aI9741053
aS'+'
asS'LOC105373125'
p1538
(lp1539
I8923628
aI8927212
aS'-'
asS'ARHGAP4'
p1540
(lp1541
I153907375
aI153926260
aS'-'
asS'SPANXN1'
p1542
(lp1543
I145247586
aI145256208
aS'+'
asS'ARHGAP6'
p1544
(lp1545
I11137542
aI11665701
aS'-'
asS'SEPT6'
p1546
(lp1547
I119615723
aI119693370
aS'-'
asS'JADE3'
p1548
(lp1549
I46912275
aI47061242
aS'+'
asS'PAGE3'
p1550
(lp1551
I55257832
aI55264903
aS'-'
asS'RGN'
p1552
(lp1553
I47078298
aI47093313
aS'+'
asS'PAGE1'
p1554
(lp1555
I49687449
aI49696019
aS'-'
asS'NKAPP1'
p1556
(lp1557
I120236451
aI120245267
aS'-'
asS'MIR548M'
p1558
(lp1559
I95063140
aI95063226
aS'-'
asS'SLC9A7'
p1560
(lp1561
I46599250
aI46759172
aS'-'
asS'TSPYL2'
p1562
(lp1563
I53082326
aI53088540
aS'+'
asS'NONO'
p1564
(lp1565
I71283191
aI71301168
aS'+'
asS'TCEAL8'
p1566
(lp1567
I103252994
aI103255193
aS'-'
asS'SPANXN2'
p1568
(lp1569
I143712034
aI143720668
aS'-'
asS'AFF2'
p1570
(lp1571
I148500618
aI149000663
aS'+'
asS'LOC100126447'
p1572
(lp1573
I116810930
aI116817860
aS'-'
asS'GAB3'
p1574
(lp1575
I154675248
aI154751583
aS'-'
asS'LOC645188'
p1576
(lp1577
I141625863
aI141626733
aS'+'
asS'LDOC1'
p1578
(lp1579
I141175744
aI141177214
aS'-'
asS'DNASE1L1'
p1580
(lp1581
I154401238
aI154412101
aS'-'
asS'MIR532'
p1582
(lp1583
I50003147
aI50003238
aS'+'
asS'LOC105373368'
p1584
(lp1585
I151904430
aI151911083
aS'-'
asS'LOC107985681'
p1586
(lp1587
I115344323
aI115374776
aS'+'
asS'CXorf51A'
p1588
(lp1589
I146814103
aI146814731
aS'-'
asS'PGK1'
p1590
(lp1591
I78104168
aI78126827
aS'+'
asS'SPANXN5'
p1592
(lp1593
I52796145
aI52797348
aS'-'
asS'GSPT2'
p1594
(lp1595
I51743384
aI51746232
aS'+'
asS'FAM133A'
p1596
(lp1597
I93673729
aI93712265
aS'+'
asS'MIR1264'
p1598
(lp1599
I114652654
aI114652723
aS'+'
asS'FLJ44635'
p1600
(lp1601
I72144183
aI72161750
aS'+'
asS'MIR503HG'
p1602
(lp1603
I134543376
aI134546630
aS'-'
asS'HTATSF1'
p1604
(lp1605
I136496931
aI136512346
aS'+'
asS'MIR1587'
p1606
(lp1607
I39837560
aI39837613
aS'+'
asS'SCARNA9L'
p1608
(lp1609
I20136065
aI20136413
aS'-'
asS'PHKA1'
p1610
(lp1611
I72578813
aI72714181
aS'-'
asS'PHKA2'
p1612
(lp1613
I18892297
aI18984362
aS'-'
asS'LOC107985677'
p1614
(lp1615
I1880270
aI1884970
aS'-'
asS'LOC107985676'
p1616
(lp1617
I8171820
aI8181195
aS'+'
asS'LOC107985675'
p1618
(lp1619
I7928007
aI8456431
aS'+'
asS'LL0XNC01-250H12.3'
p1620
(lp1621
I103404776
aI103519244
aS'+'
asS'UBA1'
p1622
(lp1623
I47190799
aI47215128
aS'+'
asS'LOC105373188'
p1624
(lp1625
I42920378
aI42945715
aS'+'
asS'LOC107985700'
p1626
(lp1627
I91312254
aI91314286
aS'-'
asS'FRMD7'
p1628
(lp1629
I132076985
aI132128020
aS'-'
asS'LOC101928415'
p1630
(lp1631
I18987586
aI19082825
aS'+'
asS'LOC107985679'
p1632
(lp1633
I65598804
aI65603066
aS'+'
asS'LOC107985678'
p1634
(lp1635
I41334303
aI41337401
aS'+'
asS'MIR514A1'
p1636
(lp1637
I147279246
aI147279344
aS'-'
asS'SPACA5'
p1638
(lp1639
I48004335
aI48009729
aS'+'
asS'IL13RA1'
p1640
(lp1641
I118726953
aI118794533
aS'+'
asS'MIR514A2'
p1642
(lp1643
I147281942
aI147282030
aS'-'
asS'MIR4536-1'
p1644
(lp1645
I55451494
aI55451582
aS'-'
asS'MIR4536-2'
p1646
(lp1647
I55451494
aI55451582
aS'+'
asS'UBE2A'
p1648
(lp1649
I119574466
aI119584429
aS'+'
asS'PPEF1-AS1'
p1650
(lp1651
I18688642
aI18692687
aS'-'
asS'LOC105379413'
p1652
(lp1653
I1771050
aI1782273
aS'+'
asS'LOC105379414'
p1654
(lp1655
I1744770
aI1745632
aS'+'
asS'APEX2'
p1656
(lp1657
I55000322
aI55007873
aS'+'
asS'LOC105373184'
p1658
(lp1659
I41276532
aI41334945
aS'-'
asS'LOC107985674'
p1660
(lp1661
I34337692
aI34344036
aS'+'
asS'PHF8'
p1662
(lp1663
I53936679
aI54048935
aS'-'
asS'IDH3G'
p1664
(lp1665
I153785765
aI153794523
aS'-'
asS'PHF6'
p1666
(lp1667
I134373311
aI134428792
aS'+'
asS'AGTR2'
p1668
(lp1669
I116170704
aI116174972
aS'+'
asS'GPR173'
p1670
(lp1671
I53049323
aI53080615
aS'+'
asS'AMOT'
p1672
(lp1673
I112774876
aI112840946
aS'-'
asS'ZBTB33'
p1674
(lp1675
I120250751
aI120258396
aS'+'
asS'GPR174'
p1676
(lp1677
I79170971
aI79172229
aS'+'
asS'MIR1468'
p1678
(lp1679
I63786001
aI63786087
aS'-'
asS'SYN1'
p1680
(lp1681
I47571900
aI47619857
aS'-'
asS'LOC105373373'
p1682
(lp1683
I153225648
aI153230357
aS'+'
asS'MAGEB18'
p1684
(lp1685
I26138342
aI26140736
aS'+'
asS'XAGE5'
p1686
(lp1687
I52811294
aI52818301
aS'+'
asS'XAGE2'
p1688
(lp1689
I52368995
aI52375683
aS'+'
asS'XAGE3'
p1690
(lp1691
I52862527
aI52868140
aS'-'
asS'YY2'
p1692
(lp1693
I21855986
aI21858727
aS'+'
asS'ZFP92'
p1694
(lp1695
I153411460
aI153426481
aS'+'
asS'EIF1AX'
p1696
(lp1697
I20124517
aI20141848
aS'-'
asS'LOC107985670'
p1698
(lp1699
I78653062
aI78722393
aS'+'
asS'LOC107985652'
p1700
(lp1701
I25470099
aI25477776
aS'+'
asS'MAGEC1'
p1702
(lp1703
I141903855
aI141909401
aS'+'
asS'MAGEC3'
p1704
(lp1705
I141838315
aI141897832
aS'+'
asS'MAGEC2'
p1706
(lp1707
I142202341
aI142205290
aS'-'
asS'PAGE5'
p1708
(lp1709
I55220346
aI55224108
aS'+'
asS'NDUFB11'
p1710
(lp1711
I47142215
aI47145210
aS'-'
asS'OPN1MW'
p1712
(lp1713
I154182595
aI154196861
aS'+'
asS'BCORL1'
p1714
(lp1715
I129980284
aI130058081
aS'+'
asS'TKTL1'
p1716
(lp1717
I154295673
aI154330363
aS'+'
asS'DOCK11'
p1718
(lp1719
I118495663
aI118686162
aS'+'
asS'RAB39B'
p1720
(lp1721
I155258233
aI155264589
aS'-'
asS'SLC10A3'
p1722
(lp1723
I154487305
aI154490690
aS'-'
asS'CTPS2'
p1724
(lp1725
I16587998
aI16712979
aS'-'
asS'HMGB3'
p1726
(lp1727
I150980507
aI150990775
aS'+'
asS'GPR101'
p1728
(lp1729
I137030147
aI137031674
aS'-'
asS'ZNF674-AS1'
p1730
(lp1731
I46545489
aI46548475
aS'+'
asS'HPRT1'
p1732
(lp1733
I134460144
aI134500668
aS'+'
asS'TMEM185A'
p1734
(lp1735
I149596555
aI149631912
aS'-'
asS'SPANXC'
p1736
(lp1737
I141241462
aI141242550
aS'-'
asS'CASK'
p1738
(lp1739
I41514933
aI41923525
aS'-'
asS'LOC101928259'
p1740
(lp1741
I72688948
aI72712348
aS'+'
asS'MAGEB10'
p1742
(lp1743
I27807989
aI27823014
aS'+'
asS'FHL1'
p1744
(lp1745
I136146701
aI136211359
aS'+'
asS'LOC101927635'
p1746
(lp1747
I48506525
aI48508839
aS'-'
asS'MMGT1'
p1748
(lp1749
I135962071
aI135973975
aS'-'
asS'LOC105373332'
p1750
(lp1751
I127492640
aI127499688
aS'-'
asS'GPR82'
p1752
(lp1753
I41724154
aI41730135
aS'+'
asS'LL0XNC01-116E7.2'
p1754
(lp1755
I103917410
aI103922127
aS'-'
asS'NAA10'
p1756
(lp1757
I153929826
aI153935154
aS'-'
asS'MORF4L2'
p1758
(lp1759
I103675497
aI103688158
aS'-'
asS'FMR1-AS1'
p1760
(lp1761
I147909430
aI147911817
aS'-'
asS'SLC6A14'
p1762
(lp1763
I116436578
aI116461458
aS'+'
asS'RPL36A'
p1764
(lp1765
I101390889
aI101396154
aS'+'
asS'ZBED1'
p1766
(lp1767
I2486413
aI2500967
aS'-'
asS'IGBP1'
p1768
(lp1769
I70133448
aI70166324
aS'+'
asS'PDHA1'
p1770
(lp1771
I19343892
aI19361707
aS'+'
asS'LOC105373315'
p1772
(lp1773
I115708744
aI115713293
aS'-'
asS'LOC105373314'
p1774
(lp1775
I115454265
aI115465553
aS'-'
asS'EDA2R'
p1776
(lp1777
I66594383
aI66639303
aS'-'
asS'MIR514A3'
p1778
(lp1779
I147284640
aI147284728
aS'-'
asS'RHOXF2'
p1780
(lp1781
I120158560
aI120164039
aS'+'
asS'H2AFB2'
p1782
(lp1783
I155380705
aI155381299
aS'+'
asS'MIR660'
p1784
(lp1785
I50013240
aI50013337
aS'+'
asS'PUDP'
p1786
(lp1787
I6768839
aI7148152
aS'-'
asS'LOC107985709'
p1788
(lp1789
I127247125
aI127303591
aS'-'
asS'LOC107985708'
p1790
(lp1791
I57658460
aI57668032
aS'-'
asS'LOC107985707'
p1792
(lp1793
I25819185
aI25882305
aS'+'
asS'LOC107985706'
p1794
(lp1795
I1657742
aI1703132
aS'+'
asS'LOC107985705'
p1796
(lp1797
I131393008
aI131408160
aS'+'
asS'INE1'
p1798
(lp1799
I47204847
aI47205861
aS'+'
asS'WAS'
p1800
(lp1801
I48683791
aI48691427
aS'+'
asS'LOC107985702'
p1802
(lp1803
I27014698
aI27043115
aS'-'
asS'LOC107985701'
p1804
(lp1805
I13294843
aI13302894
aS'+'
asS'LOC102724092'
p1806
(lp1807
I15232228
aI15236732
aS'-'
asS'RAB9A'
p1808
(lp1809
I13689120
aI13709825
aS'+'
asS'PORCN'
p1810
(lp1811
I48508958
aI48520814
aS'+'
asS'LINC00850'
p1812
(lp1813
I149825707
aI149879799
aS'+'
asS'RAB9B'
p1814
(lp1815
I103822324
aI103832282
aS'-'
asS'BRDTP1'
p1816
(lp1817
I96337085
aI96337902
aS'-'
asS'LOC101928092'
p1818
(lp1819
I2566028
aI2609177
aS'-'
asS'PLXNA3'
p1820
(lp1821
I154458280
aI154473646
aS'+'
asS'F8A1'
p1822
(lp1823
I154886359
aI154888061
aS'+'
asS'PBDC1'
p1824
(lp1825
I76172928
aI76178310
aS'+'
asS'LOC102724521'
p1826
(lp1827
I430264
aI470756
aS'+'
asS'CTAG1A'
p1828
(lp1829
I154585153
aI154586816
aS'+'
asS'WDR13'
p1830
(lp1831
I48597491
aI48605194
aS'+'
asS'LOC101928335'
p1832
(lp1833
I107894596
aI107935980
aS'-'
asS'SPIN3'
p1834
(lp1835
I56976369
aI56995555
aS'-'
asS'TMSB15A'
p1836
(lp1837
I102513681
aI102516771
aS'-'
asS'FMR1NB'
p1838
(lp1839
I147981328
aI148026667
aS'+'
asS'GAGE2A'
p1840
(lp1841
I49589514
aI49596827
aS'+'
asS'KIAA1210'
p1842
(lp1843
I119078634
aI119151082
aS'-'
asS'OCRL'
p1844
(lp1845
I129532736
aI129592556
aS'+'
asS'SAT1'
p1846
(lp1847
I23783157
aI23786223
aS'+'
asS'LOC101927830'
p1848
(lp1849
I155347136
aI155374174
aS'-'
asS'IL1RAPL1'
p1850
(lp1851
I28587563
aI29955900
aS'+'
asS'IL1RAPL2'
p1852
(lp1853
I104566314
aI105767829
aS'+'
asS'CSAG3'
p1854
(lp1855
I152753920
aI152760222
aS'+'
asS'CT47A4'
p1856
(lp1857
I120967885
aI120971204
aS'-'
asS'MIR4328'
p1858
(lp1859
I78901193
aI78901249
aS'-'
asS'MIR4329'
p1860
(lp1861
I112780717
aI112780788
aS'-'
asS'MIR890'
p1862
(lp1863
I145994274
aI145994351
aS'-'
asS'CSAG4'
p1864
(lp1865
I152733826
aI152740985
aS'+'
asS'MOSPD2'
p1866
(lp1867
I14873404
aI14922166
aS'+'
asS'USP9X'
p1868
(lp1869
I41085419
aI41236579
aS'+'
asS'LOC105373367'
p1870
(lp1871
I151512702
aI151538544
aS'-'
asS'ATP11C'
p1872
(lp1873
I139726345
aI139933083
aS'-'
asS'PRPS1'
p1874
(lp1875
I107628423
aI107651026
aS'+'
asS'CT47A11'
p1876
(lp1877
I120933839
aI120937158
aS'-'
asS'FOXO4'
p1878
(lp1879
I71096148
aI71103534
aS'+'
asS'FGD1'
p1880
(lp1881
I54445453
aI54496166
aS'-'
asS'MAGEA8-AS1'
p1882
(lp1883
I149878762
aI149897006
aS'-'
asS'S100G'
p1884
(lp1885
I16649786
aI16654674
aS'+'
asS'MID2'
p1886
(lp1887
I107820960
aI107931637
aS'+'
asS'LOC105373369'
p1888
(lp1889
I151975003
aI152128225
aS'+'
asS'PIN4'
p1890
(lp1891
I72181675
aI72263964
aS'+'
asS'TIMM17B'
p1892
(lp1893
I48893446
aI48898143
aS'-'
asS'PRICKLE3'
p1894
(lp1895
I49174801
aI49186400
aS'-'
asS'CT45A6'
p1896
(lp1897
I135794686
aI135802755
aS'-'
asS'DHRSX'
p1898
(lp1899
I2219505
aI2500974
aS'-'
asS'LOC105373338'
p1900
(lp1901
I130802635
aI130806398
aS'+'
asS'LOC107987332'
p1902
(lp1903
I154389013
aI154398212
aS'+'
asS'CFAP47'
p1904
(lp1905
I35919733
aI36385319
aS'+'
asS'NAP1L2'
p1906
(lp1907
I73212298
aI73214874
aS'-'
asS'NAP1L3'
p1908
(lp1909
I93670925
aI93673683
aS'-'
asS'TGIF2LX'
p1910
(lp1911
I89921940
aI89922883
aS'+'
asS'NAP1L6'
p1912
(lp1913
I73126036
aI73128080
aS'-'
asS'MTRNR2L10'
p1914
(lp1915
I55181390
aI55182511
aS'-'
asS'NLRP2P'
p1916
(lp1917
I57677066
aI57680260
aS'-'
asS'MIR3690'
p1918
(lp1919
I1293917
aI1293992
aS'+'
asS'MIR4330'
p1920
(lp1921
I151168221
aI151168326
aS'+'
asS'MIR450A1'
p1922
(lp1923
I134540340
aI134540431
aS'-'
asS'ITGB1BP2'
p1924
(lp1925
I71301274
aI71305371
aS'+'
asS'LOC107985657'
p1926
(lp1927
I13652496
aI13654890
aS'-'
asS'LOC389906'
p1928
(lp1929
I3817534
aI3843894
aS'-'
asS'MID1IP1'
p1930
(lp1931
I38801431
aI38806532
aS'+'
asS'RBMX'
p1932
(lp1933
I136869193
aI136880780
aS'-'
asS'PIGA'
p1934
(lp1935
I15319450
aI15335554
aS'-'
asS'RPA4'
p1936
(lp1937
I96883907
aI96885467
aS'+'
asS'F8A2'
p1938
(lp1939
I155382114
aI155383230
aS'+'
asS'LRCH2'
p1940
(lp1941
I115110610
aI115234075
aS'-'
asS'POU3F4'
p1942
(lp1943
I83508260
aI83509767
aS'+'
asS'SUV39H1'
p1944
(lp1945
I48695553
aI48709016
aS'+'
asS'LOC107985632'
p1946
(lp1947
I30213345
aI30215464
aS'-'
asS'CXorf57'
p1948
(lp1949
I106611929
aI106679443
aS'+'
asS'LOC107985637'
p1950
(lp1951
I1726114
aI1731079
aS'+'
asS'LOC101928336'
p1952
(lp1953
I119291528
aI119335610
aS'+'
asS'LOC107985635'
p1954
(lp1955
I83491322
aI83506816
aS'-'
asS'LOC107985634'
p1956
(lp1957
I9407955
aI9443524
aS'-'
asS'SPANXN3'
p1958
(lp1959
I143508734
aI143517475
aS'-'
asS'CTAG2'
p1960
(lp1961
I154651971
aI154653579
aS'-'
asS'MIR892C'
p1962
(lp1963
I145992749
aI145992826
aS'-'
asS'GTPBP6'
p1964
(lp1965
I304749
aI318819
aS'-'
asS'FLNA'
p1966
(lp1967
I154348531
aI154374638
aS'-'
asS'GRPR'
p1968
(lp1969
I16123300
aI16153518
aS'+'
asS'LOC105373288'
p1970
(lp1971
I82766792
aI82800393
aS'+'
asS'CD99P1'
p1972
(lp1973
I2609264
aI2657229
aS'+'
asS'MIR325'
p1974
(lp1975
I77005403
aI77005501
aS'-'
asS'MIR363'
p1976
(lp1977
I134169377
aI134169452
aS'-'
asS'VCX3B'
p1978
(lp1979
I8464829
aI8466510
aS'+'
asS'VCX3A'
p1980
(lp1981
I6533617
aI6535118
aS'-'
asS'HCFC1-AS1'
p1982
(lp1983
I153968764
aI153970091
aS'+'
asS'LINC01278'
p1984
(lp1985
I63426558
aI63560993
aS'-'
asS'MIR513B'
p1986
(lp1987
I147199043
aI147199127
aS'-'
asS'UTP14A'
p1988
(lp1989
I129906120
aI129929762
aS'+'
asS'FAM9B'
p1990
(lp1991
I9025072
aI9197176
aS'-'
asS'FAM9C'
p1992
(lp1993
I13035616
aI13044798
aS'-'
asS'CA5BP1'
p1994
(lp1995
I15674915
aI15703351
aS'+'
asS'FAM9A'
p1996
(lp1997
I8790794
aI8801383
aS'-'
asS'SNORA11E'
p1998
(lp1999
I52063346
aI52063473
aS'-'
asS'SNORA11D'
p2000
(lp2001
I52190621
aI52190748
aS'+'
asS'CXorf40A'
p2002
(lp2003
I149540973
aI149555338
aS'+'
asS'PDK3'
p2004
(lp2005
I24465226
aI24550466
aS'+'
asS'EBP'
p2006
(lp2007
I48521775
aI48528716
aS'+'
asS'MIR448'
p2008
(lp2009
I114823453
aI114823564
aS'+'
asS'LINC01201'
p2010
(lp2011
I131016468
aI131058146
aS'-'
asS'PASD1'
p2012
(lp2013
I151563534
aI151676739
aS'+'
asS'MIR513A1'
p2014
(lp2015
I147213462
aI147213591
aS'-'
asS'SSX6'
p2016
(lp2017
I48107981
aI48120686
aS'+'
asS'ASB11'
p2018
(lp2019
I15281696
aI15315624
aS'-'
asS'ASB12'
p2020
(lp2021
I64224191
aI64230631
aS'-'
asS'SSX5'
p2022
(lp2023
I48177913
aI48196798
aS'-'
asS'SSX2'
p2024
(lp2025
I52696895
aI52707227
aS'-'
asS'SSX3'
p2026
(lp2027
I48346427
aI48356753
aS'-'
asS'TIMP1'
p2028
(lp2029
I47582290
aI47586791
aS'+'
asS'SSX1'
p2030
(lp2031
I48255316
aI48267444
aS'+'
asS'FAM155B'
p2032
(lp2033
I69505234
aI69532508
aS'+'
asS'F8A3'
p2034
(lp2035
I155457484
aI155458600
aS'-'
asS'ZNF449'
p2036
(lp2037
I135344097
aI135363151
aS'+'
asS'CDX4'
p2038
(lp2039
I73447253
aI73454585
aS'+'
asS'SSX8'
p2040
(lp2041
I52622934
aI52633948
aS'+'
asS'SSX9'
p2042
(lp2043
I48301549
aI48306179
aS'-'
asS'PPP4R3CP'
p2044
(lp2045
I27460210
aI27463341
aS'-'
asS'PIH1D3'
p2046
(lp2047
I107206631
aI107244243
aS'+'
asS'MIR3672'
p2048
(lp2049
I121370971
aI121371053
aS'+'
asS'ERAS'
p2050
(lp2051
I48826512
aI48829869
aS'+'
asS'LOC107985688'
p2052
(lp2053
I71183381
aI71198333
aS'-'
asS'FAAH2'
p2054
(lp2055
I57121860
aI57489188
aS'+'
asS'LOC107985686'
p2056
(lp2057
I14540958
aI14553846
aS'-'
asS'LOC107985687'
p2058
(lp2059
I40101735
aI40106486
aS'-'
asS'LOC107985684'
p2060
(lp2061
I129313991
aI129328088
aS'-'
asS'LOC107985685'
p2062
(lp2063
I11822460
aI11878324
aS'+'
asS'MIR513A2'
p2064
(lp2065
I147225825
aI147225952
aS'-'
asS'LOC107985683'
p2066
(lp2067
I70153631
aI70156063
aS'-'
asS'LOC107985680'
p2068
(lp2069
I105541008
aI105551816
aS'-'
asS'LOC105373213'
p2070
(lp2071
I52923223
aI52930804
aS'+'
asS'CXorf58'
p2072
(lp2073
I23907931
aI23939519
aS'+'
asS'SUPT20HL2'
p2074
(lp2075
I24310861
aI24313315
aS'-'
asS'SUPT20HL1'
p2076
(lp2077
I24362760
aI24365424
aS'+'
asS'WWC3'
p2078
(lp2079
I10015754
aI10144478
aS'+'
asS'LOC105373185'
p2080
(lp2081
I41275738
aI41276778
aS'+'
asS'LOC105373186'
p2082
(lp2083
I42695203
aI42755890
aS'-'
asS'LOC105373187'
p2084
(lp2085
I42456590
aI42711907
aS'+'
asS'ATRX'
p2086
(lp2087
I77504877
aI77786269
aS'-'
asS'LOC105373181'
p2088
(lp2089
I40170592
aI40173069
aS'+'
asS'LOC105373182'
p2090
(lp2091
I40318040
aI40400042
aS'+'
asS'SPACA5B'
p2092
(lp2093
I48130656
aI48132613
aS'+'
asS'CAPN6'
p2094
(lp2095
I111245098
aI111270546
aS'-'
asS'LOC101059915'
p2096
(lp2097
I71667701
aI71671524
aS'+'
asS'MED14'
p2098
(lp2099
I40649550
aI40736122
aS'-'
asS'PIR'
p2100
(lp2101
I15384798
aI15493588
aS'-'
asS'OTUD5'
p2102
(lp2103
I48922023
aI48958386
aS'-'
asS'CTAG1B'
p2104
(lp2105
I154617608
aI154619271
aS'-'
asS'MIR664B'
p2106
(lp2107
I154768595
aI154768656
aS'+'
asS'LOC101927501'
p2108
(lp2109
I43176993
aI43226598
aS'+'
asS'SH2D1A'
p2110
(lp2111
I124346281
aI124373160
aS'+'
asS'DDX3X'
p2112
(lp2113
I41333307
aI41364472
aS'+'
asS'MTM1'
p2114
(lp2115
I150562657
aI150673143
aS'+'
asS'MIR3202-1'
p2116
(lp2117
I153981096
aI153981177
aS'+'
asS'PAGE2B'
p2118
(lp2119
I55027926
aI55078903
aS'+'
asS'LOC107985661'
p2120
(lp2121
I103749666
aI103766824
aS'-'
asS'NKRF'
p2122
(lp2123
I119588336
aI119606464
aS'-'
asS'KLHL4'
p2124
(lp2125
I87517711
aI87670050
aS'+'
asS'LOC105373302'
p2126
(lp2127
I103587855
aI103629641
aS'-'
asS'TSPAN6'
p2128
(lp2129
I100627107
aI100637104
aS'-'
asS'TSPAN7'
p2130
(lp2131
I38561477
aI38688918
aS'+'
asS'RPL39'
p2132
(lp2133
I119786503
aI119791659
aS'-'
asS'PNCK'
p2134
(lp2135
I153669722
aI153687568
aS'-'
asS'PABPC1L2B-AS1'
p2136
(lp2137
I72998387
aI73002856
aS'-'
asS'BEX3'
p2138
(lp2139
I103376322
aI103378164
aS'+'
asS'LOC101928833'
p2140
(lp2141
I140681105
aI140687803
aS'-'
asS'MIR548AN'
p2142
(lp2143
I106639813
aI106639896
aS'+'
asS'OTUD6A'
p2144
(lp2145
I70062490
aI70064179
aS'+'
asS'MBTPS2'
p2146
(lp2147
I21839537
aI21885423
aS'+'
asS'HS6ST2-AS1'
p2148
(lp2149
I132667641
aI132669888
aS'+'
asS'MAGED1'
p2150
(lp2151
I51802997
aI51902354
aS'+'
asS'MAGED2'
p2152
(lp2153
I54807598
aI54816015
aS'+'
asS'LOC101928201'
p2154
(lp2155
I4627199
aI4633572
aS'-'
asS'AKAP14'
p2156
(lp2157
I119895972
aI119920716
aS'+'
asS'ACSL4'
p2158
(lp2159
I109641329
aI109733403
aS'-'
asS'GS1-600G8.3'
p2160
(lp2161
I13310651
aI13319933
aS'+'
asS'EGFL6'
p2162
(lp2163
I13569574
aI13633575
aS'+'
asS'MIR450A2'
p2164
(lp2165
I134540507
aI134540607
aS'-'
asS'TLR7'
p2166
(lp2167
I12867082
aI12890361
aS'+'
asS'SMPX'
p2168
(lp2169
I21705971
aI21758160
aS'-'
asS'TLR8'
p2170
(lp2171
I12906619
aI12923169
aS'+'
asS'KDM5C'
p2172
(lp2173
I53159734
aI53225235
aS'-'
asS'LOC105373328'
p2174
(lp2175
I121018194
aI121047474
aS'-'
asS'CT45A8'
p2176
(lp2177
I135846496
aI135854588
aS'-'
asS'ATP1B4'
p2178
(lp2179
I120362084
aI120383249
aS'+'
asS'LOC101928389'
p2180
(lp2181
I17528434
aI17587160
aS'+'
asS'LOC105373320'
p2182
(lp2183
I116726935
aI116751276
aS'-'
asS'MAGED4'
p2184
(lp2185
I52184822
aI52192268
aS'+'
asS'CT45A3'
p2186
(lp2187
I135760066
aI135768222
aS'-'
asS'LOC105373323'
p2188
(lp2189
I119989613
aI119993869
aS'+'
asS'LOC101928380'
p2190
(lp2191
I73080335
aI73084635
aS'+'
asS'MIR4770'
p2192
(lp2193
I6383905
aI6383963
aS'-'
asS'CT45A7'
p2194
(lp2195
I135829228
aI135837317
aS'-'
asS'RBMX2'
p2196
(lp2197
I130401968
aI130413343
aS'+'
asS'NOX1'
p2198
(lp2199
I100843323
aI100874345
aS'-'
asS'LOC105373386'
p2200
(lp2201
I154333698
aI154347906
aS'-'
asS'BEX4'
p2202
(lp2203
I103215091
aI103217200
aS'+'
asS'SLC25A5-AS1'
p2204
(lp2205
I119466032
aI119469120
aS'-'
asS'LOC105373387'
p2206
(lp2207
I154653734
aI154655374
aS'+'
asS'PIM2'
p2208
(lp2209
I48913181
aI48919136
aS'-'
asS'PNMA3'
p2210
(lp2211
I153056342
aI153060462
aS'+'
asS'SRPX'
p2212
(lp2213
I38149334
aI38220924
aS'-'
asS'PNMA5'
p2214
(lp2215
I152988826
aI152994458
aS'-'
asS'BEX2'
p2216
(lp2217
I103309345
aI103311046
aS'-'
asS'PLAC1'
p2218
(lp2219
I134565842
aI134764322
aS'-'
asS'MIR223'
p2220
(lp2221
I66018869
aI66018979
aS'+'
asS'MIR221'
p2222
(lp2223
I45746156
aI45746266
aS'-'
asS'BEX1'
p2224
(lp2225
I103062652
aI103064240
aS'-'
asS'MIR224'
p2226
(lp2227
I151958577
aI151958658
aS'-'
asS'CLDN2'
p2228
(lp2229
I106900163
aI106930861
aS'+'
asS'SNORA70'
p2230
(lp2231
I154400280
aI154400415
aS'+'
asS'HAUS7'
p2232
(lp2233
I153447664
aI153495525
aS'-'
asS'RRAGB'
p2234
(lp2235
I55717708
aI55760209
aS'+'
asS'MIR3978'
p2236
(lp2237
I110082117
aI110082218
aS'+'
asS'VSIG1'
p2238
(lp2239
I108018885
aI108077551
aS'+'
asS'LOC105373383'
p2240
(lp2241
I153599339
aI153599893
aS'+'
asS'LANCL3'
p2242
(lp2243
I37572507
aI37684463
aS'+'
asS'FATE1'
p2244
(lp2245
I151716035
aI151723194
aS'+'
asS'ELK1'
p2246
(lp2247
I47635519
aI47650604
aS'-'
asS'TMEM187'
p2248
(lp2249
I153972539
aI153983195
aS'+'
asS'HTR2C'
p2250
(lp2251
I114584077
aI114910061
aS'+'
asS'USP27X'
p2252
(lp2253
I49879866
aI49882565
aS'+'
asS'MAGEA2B'
p2254
(lp2255
I152714528
aI152718607
aS'+'
asS'SSX4B'
p2256
(lp2257
I48402081
aI48411910
aS'-'
asS'FAM226B'
p2258
(lp2259
I72777072
aI72779095
aS'+'
asS'GPR50'
p2260
(lp2261
I151176583
aI151181465
aS'+'
asS'SMC1A'
p2262
(lp2263
I53374148
aI53422728
aS'-'
asS'NXF5'
p2264
(lp2265
I101832111
aI101857577
aS'-'
asS'KLHL34'
p2266
(lp2267
I21655348
aI21658387
aS'-'
asS'LOC105373138'
p2268
(lp2269
I13983960
aI13999320
aS'-'
asS'TRO'
p2270
(lp2271
I54920562
aI54931431
aS'+'
asS'NXF3'
p2272
(lp2273
I103075820
aI103093094
aS'-'
asS'STAG2'
p2274
(lp2275
I123960559
aI124102656
aS'+'
asS'LOC105373134'
p2276
(lp2277
I13155692
aI13165233
aS'-'
asS'LOC105373137'
p2278
(lp2279
I13368777
aI13380114
aS'+'
asS'LOC105373131'
p2280
(lp2281
I11732540
aI11735353
aS'+'
asS'NHSL2'
p2282
(lp2283
I71911087
aI72143574
aS'+'
asS'TFE3'
p2284
(lp2285
I49028725
aI49043517
aS'-'
asS'LOC100287728'
p2286
(lp2287
I135120620
aI135123601
aS'+'
asS'CXorf40B'
p2288
(lp2289
I149924151
aI149938850
aS'-'
asS'LOC105373336'
p2290
(lp2291
I130527303
aI130530102
aS'-'
asS'APLN'
p2292
(lp2293
I129645258
aI129654956
aS'-'
asS'EFHC2'
p2294
(lp2295
I44146253
aI44343665
aS'-'
asS'TMEM47'
p2296
(lp2297
I34627063
aI34657288
aS'-'
asS'SNX12'
p2298
(lp2299
I71059246
aI71073426
aS'-'
asS'ASMTL'
p2300
(lp2301
I1403138
aI1453794
aS'-'
asS'MAP7D3'
p2302
(lp2303
I136216813
aI136256482
aS'-'
asS'SLC25A43'
p2304
(lp2305
I119399294
aI119454478
aS'+'
asS'FGF16'
p2306
(lp2307
I77447674
aI77456522
aS'+'
asS'TAF1'
p2308
(lp2309
I71366238
aI71530361
aS'+'
asS'FAM47C'
p2310
(lp2311
I37008358
aI37011666
aS'+'
asS'FAM47B'
p2312
(lp2313
I34942795
aI34944917
aS'+'
asS'FAM47A'
p2314
(lp2315
I34129751
aI34132330
aS'-'
asS'G6PD'
p2316
(lp2317
I154531389
aI154547586
aS'-'
asS'USP51'
p2318
(lp2319
I55484523
aI55489875
aS'-'
asS'ITM2A'
p2320
(lp2321
I79360383
aI79367552
aS'-'
asS'GPC3'
p2322
(lp2323
I133535744
aI133985646
aS'-'
asS'MIR500A'
p2324
(lp2325
I50008430
aI50008514
aS'+'
asS'MIR4666B'
p2326
(lp2327
I29574277
aI29574358
aS'+'
asS'ARR3'
p2328
(lp2329
I70268334
aI70281840
aS'+'
asS'YIPF6'
p2330
(lp2331
I68498373
aI68572413
aS'+'
asS'TCEAL9'
p2332
(lp2333
I103356451
aI103358469
aS'+'
asS'MIR500B'
p2334
(lp2335
I50010671
aI50010750
aS'+'
asS'LINC01546'
p2336
(lp2337
I3271819
aI3284653
aS'+'
asS'CT45A9'
p2338
(lp2339
I135863417
aI135871812
aS'-'
asS'SPANXN4'
p2340
(lp2341
I143025927
aI143038637
aS'+'
asS'VBP1'
p2342
(lp2343
I155197006
aI155239841
aS'+'
asS'POF1B'
p2344
(lp2345
I85277388
aI85379743
aS'-'
asS'FAM120C'
p2346
(lp2347
I54068323
aI54183281
aS'-'
asS'FOXR2'
p2348
(lp2349
I55623399
aI55626188
aS'+'
asS'IL13RA2'
p2350
(lp2351
I115003974
aI115017644
aS'-'
asS'XKRX'
p2352
(lp2353
I100913444
aI100957401
aS'-'
asS'APOOL'
p2354
(lp2355
I85003891
aI85093317
aS'+'
asS'LOC105373250'
p2356
(lp2357
I72306057
aI72311741
aS'+'
asS'VCX'
p2358
(lp2359
I7842261
aI7844143
aS'+'
asS'TENM1'
p2360
(lp2361
I124374679
aI125204305
aS'-'
asS'FAM122C'
p2362
(lp2363
I134804121
aI134855137
aS'+'
asS'DCAF8L1'
p2364
(lp2365
I27977992
aI27981449
aS'-'
asS'LOC107985647'
p2366
(lp2367
I94692935
aI94702121
aS'-'
asS'DCAF8L2'
p2368
(lp2369
I27746808
aI27748821
aS'+'
asS'MIR891A'
p2370
(lp2371
I146027793
aI146027872
aS'-'
asS'LOC101928402'
p2372
(lp2373
I123959232
aI123961341
aS'-'
asS'LOC107985648'
p2374
(lp2375
I126198114
aI126224980
aS'-'
asS'LOC107985649'
p2376
(lp2377
I3112955
aI3113529
aS'-'
asS'SNORD96B'
p2378
(lp2379
I110224988
aI110225060
aS'-'
asS'NDP'
p2380
(lp2381
I43948775
aI43973675
aS'-'
asS'NUP62CL'
p2382
(lp2383
I107123426
aI107206440
aS'-'
asS'IL9R'
p2384
(lp2385
I155997645
aI156013017
aS'+'
asS'RHOXF2B'
p2386
(lp2387
I120072263
aI120077742
aS'-'
asS'GNL3L'
p2388
(lp2389
I54530210
aI54567287
aS'+'
asS'GPR143'
p2390
(lp2391
I9725412
aI9765965
aS'-'
asS'SMIM9'
p2392
(lp2393
I154823347
aI154834662
aS'-'
asS'LCA10'
p2394
(lp2395
I153880671
aI153888990
aS'+'
asS'MIR3202-2'
p2396
(lp2397
I153981097
aI153981176
aS'-'
asS'CNKSR2'
p2398
(lp2399
I21374417
aI21654695
aS'+'
asS'CT45A1'
p2400
(lp2401
I135708397
aI135723318
aS'+'
asS'IDS2'
p2402
(lp2403
I149511553
aI149526523
aS'-'
asS'KDM6A'
p2404
(lp2405
I44873174
aI45112612
aS'+'
asS'MIR452'
p2406
(lp2407
I151959627
aI151959712
aS'-'
asS'FGF13'
p2408
(lp2409
I138631572
aI139222889
aS'-'
asS'PRR32'
p2410
(lp2411
I126819763
aI126821786
aS'+'
asS'CITED1'
p2412
(lp2413
I72301637
aI72307187
aS'-'
asS'FAM127C'
p2414
(lp2415
I135020503
aI135022536
aS'-'
asS'LINC01186'
p2416
(lp2417
I46325923
aI46327674
aS'-'
asS'FAM127A'
p2418
(lp2419
I135032302
aI135033546
aS'+'
asS'RPL10'
p2420
(lp2421
I154398064
aI154402339
aS'+'
asS'NRK'
p2422
(lp2423
I105821943
aI105958237
aS'+'
asS'AKAP17A'
p2424
(lp2425
I1591592
aI1602520
aS'+'
asS'MID1IP1-AS1'
p2426
(lp2427
I38801247
aI38803883
aS'-'
asS'MAGEA12'
p2428
(lp2429
I152733778
aI152737669
aS'+'
asS'FRMPD3-AS1'
p2430
(lp2431
I107512982
aI107545821
aS'-'
asS'CT45A5'
p2432
(lp2433
I135777129
aI135785475
aS'-'
asS'EIF1AX-AS1'
p2434
(lp2435
I20139967
aI20140444
aS'+'
asS'SLC7A3'
p2436
(lp2437
I70925578
aI70931125
aS'-'
asS'GAGE12H'
p2438
(lp2439
I49579948
aI49587304
aS'+'
asS'TCEAL2'
p2440
(lp2441
I102125687
aI102127712
aS'+'
asS'GAGE12J'
p2442
(lp2443
I49322029
aI49329387
aS'+'
asS'TCEAL7'
p2444
(lp2445
I103330185
aI103332323
aS'+'
asS'TCEAL6'
p2446
(lp2447
I102139960
aI102142416
aS'-'
asS'BCOR'
p2448
(lp2449
I40051245
aI40177390
aS'-'
asS'TCEAL4'
p2450
(lp2451
I103576230
aI103587736
aS'+'
asS'MIR1321'
p2452
(lp2453
I85835779
aI85835858
aS'+'
asS'GAGE12B'
p2454
(lp2455
I49341182
aI49529921
aS'+'
asS'GAGE12C'
p2456
(lp2457
I49532176
aI49539541
aS'+'
asS'GAGE12D'
p2458
(lp2459
I49541721
aI49549107
aS'+'
asS'GAGE12E'
p2460
(lp2461
I49551288
aI49558649
aS'+'
asS'GAGE12F'
p2462
(lp2463
I49560807
aI49568208
aS'+'
asS'GAGE12G'
p2464
(lp2465
I49570399
aI49577757
aS'+'
asS'LOC101928128'
p2466
(lp2467
I85210705
aI85219289
aS'+'
asS'LOC107985664'
p2468
(lp2469
I75523499
aI75791820
aS'+'
asS'LOC101928242'
p2470
(lp2471
I118769311
aI118770213
aS'+'
asS'MIR545'
p2472
(lp2473
I74287103
aI74287209
aS'-'
asS'RHOXF1'
p2474
(lp2475
I120109048
aI120117651
aS'-'
asS'LINC00629'
p2476
(lp2477
I134550023
aI134560398
aS'+'
asS'UPF3B'
p2478
(lp2479
I119805310
aI119853028
aS'-'
asS'LINC00102'
p2480
(lp2481
I2612990
aI2615347
aS'-'
asS'RAP2C-AS1'
p2482
(lp2483
I132218506
aI132432811
aS'+'
asS'GLUD2'
p2484
(lp2485
I121047607
aI121049942
aS'+'
asS'LINC00106'
p2486
(lp2487
I1397024
aI1399412
aS'+'
asS'NXT2'
p2488
(lp2489
I109535780
aI109544698
aS'+'
asS'PFKFB1'
p2490
(lp2491
I54933133
aI54998534
aS'-'
asS'LOC107985667'
p2492
(lp2493
I149470903
aI149472151
aS'-'
asS'LINC00269'
p2494
(lp2495
I69179556
aI69209924
aS'+'
asS'CT47A7'
p2496
(lp2497
I120953281
aI120956600
aS'-'
asS'TMLHE'
p2498
(lp2499
I155489006
aI155612961
aS'-'
asS'LOC101928832'
p2500
(lp2501
I146854568
aI146955374
aS'+'
asS'LOC105373311'
p2502
(lp2503
I109732277
aI109734332
aS'+'
asS'SLC16A2'
p2504
(lp2505
I74421492
aI74533929
aS'+'
asS'LOC101927476'
p2506
(lp2507
I40262916
aI40287721
aS'+'
asS'LOC105373310'
p2508
(lp2509
I107968530
aI107986048
aS'+'
asS'TMSB4X'
p2510
(lp2511
I12975106
aI12977227
aS'+'
asS'CCDC22'
p2512
(lp2513
I49235466
aI49250526
aS'+'
asS'LOC105373313'
p2514
(lp2515
I114717555
aI114810776
aS'-'
asS'MAGEB16'
p2516
(lp2517
I35798316
aI35803753
aS'+'
asS'MAGEB17'
p2518
(lp2519
I16167510
aI16172394
aS'+'
asS'MSN'
p2520
(lp2521
I65588381
aI65741931
aS'+'
asS'LOC105373312'
p2522
(lp2523
I110318251
aI110333373
aS'+'
asS'SRD5A1P1'
p2524
(lp2525
I139446818
aI139448973
aS'+'
asS'BMP15'
p2526
(lp2527
I50910734
aI50916641
aS'+'
asS'MIR676'
p2528
(lp2529
I70022856
aI70022923
aS'+'
asS'LOC105373287'
p2530
(lp2531
I82741174
aI82765866
aS'-'
asS'LONRF3'
p2532
(lp2533
I118974613
aI119022925
aS'+'
asS'ZC3H12B'
p2534
(lp2535
I65034814
aI65507887
aS'+'
asS'LOC105377209'
p2536
(lp2537
I52195534
aI52265919
aS'-'
asS'AWAT2'
p2538
(lp2539
I70040541
aI70049970
aS'-'
asS'LOC107985658'
p2540
(lp2541
I9786752
aI9791182
aS'+'
asS'LOC102724491'
p2542
(lp2543
I113970754
aI113977144
aS'+'
asS'ZRSR2'
p2544
(lp2545
I15789722
aI15824367
aS'+'
asS'PRPS2'
p2546
(lp2547
I12791354
aI12824227
aS'+'
asS'LINC01285'
p2548
(lp2549
I118839555
aI118882015
aS'+'
asS'SERPINA7'
p2550
(lp2551
I106032438
aI106038725
aS'-'
asS'PPP1R2P9'
p2552
(lp2553
I42777365
aI42778235
aS'-'
asS'MIR6857'
p2554
(lp2555
I53405672
aI53405765
aS'-'
asS'CDR1'
p2556
(lp2557
I140783259
aI140784558
aS'-'
asS'TSR2'
p2558
(lp2559
I54440419
aI54445297
aS'+'
asS'LOC107987330'
p2560
(lp2561
I3929371
aI3937685
aS'-'
asS'LOC107987331'
p2562
(lp2563
I7012194
aI7027468
aS'+'
asS'PLCXD1'
p2564
(lp2565
I276323
aI303356
aS'+'
asS'DGKK'
p2566
(lp2567
I50365408
aI50470850
aS'-'
asS'LOC101928589'
p2568
(lp2569
I110175772
aI110177788
aS'+'
asS'LOC101928627'
p2570
(lp2571
I36365625
aI36440292
aS'-'
asS'SCARNA23'
p2572
(lp2573
I24744440
aI24744570
aS'+'
asS'LOC105373286'
p2574
(lp2575
I82119280
aI82125542
aS'-'
asS'MIR105-2'
p2576
(lp2577
I152394411
aI152394492
aS'-'
asS'MIR105-1'
p2578
(lp2579
I152392218
aI152392299
aS'-'
asS'SH3KBP1'
p2580
(lp2581
I19533964
aI19887626
aS'-'
asS'MIR542'
p2582
(lp2583
I134541340
aI134541437
aS'-'
asS'LOC105373349'
p2584
(lp2585
I147876223
aI147885470
aS'+'
asS'MIR222'
p2586
(lp2587
I45747014
aI45747124
aS'-'
asS'PLS3'
p2588
(lp2589
I115560849
aI115650861
aS'+'
asS'CPXCR1'
p2590
(lp2591
I88747224
aI88754785
aS'+'
asS'LOC105373175'
p2592
(lp2593
I39258086
aI39299949
aS'-'
asS'LOC105373174'
p2594
(lp2595
I38779500
aI38800678
aS'-'
asS'LOC105373177'
p2596
(lp2597
I39774138
aI39808433
aS'+'
asS'LOC105373176'
p2598
(lp2599
I39383652
aI39386773
aS'+'
asS'SHOX'
p2600
(lp2601
I624343
aI659411
aS'+'
asS'LOC105373178'
p2602
(lp2603
I39759836
aI39766745
aS'+'
asS'PGRMC1'
p2604
(lp2605
I119236244
aI119244466
aS'+'
asS'MAGEA10-MAGEA5'
p2606
(lp2607
I152114048
aI152138578
aS'-'
asS'LUZP4'
p2608
(lp2609
I115289716
aI115307556
aS'+'
asS'MAP7D2'
p2610
(lp2611
I20006712
aI20116996
aS'-'
asS'AR'
p2612
(lp2613
I67544031
aI67730619
aS'+'
asS'GPC4'
p2614
(lp2615
I133301035
aI133415177
aS'-'
asS'TMEM164'
p2616
(lp2617
I110002412
aI110184438
aS'+'
asS'LINC01545'
p2618
(lp2619
I46887416
aI46899704
aS'-'
asS'LOC105373370'
p2620
(lp2621
I152554382
aI152698696
aS'-'
asS'HEPH'
p2622
(lp2623
I66162526
aI66267389
aS'+'
asS'CHMP1B2P'
p2624
(lp2625
I80228488
aI80335318
aS'-'
asS'DACH2'
p2626
(lp2627
I86148450
aI86832602
aS'+'
asS'SATL1'
p2628
(lp2629
I85093830
aI85116229
aS'-'
asS'SMIM10L2B'
p2630
(lp2631
I135094984
aI135098634
aS'-'
asS'LOC105373379'
p2632
(lp2633
I153401568
aI153406606
aS'+'
asS'LOC105373378'
p2634
(lp2635
I153352028
aI153360109
aS'+'
asS'RHOXF1-AS1'
p2636
(lp2637
I120036235
aI120146855
aS'+'
asS'PCSK1N'
p2638
(lp2639
I48831091
aI48835638
aS'-'
asS'LOC101928359'
p2640
(lp2641
I122421954
aI122478081
aS'+'
asS'SYP-AS1'
p2642
(lp2643
I49198838
aI49202454
aS'+'
asS'FRMPD4'
p2644
(lp2645
I12137328
aI12724523
aS'+'
asS'TAB3'
p2646
(lp2647
I30827441
aI30889394
aS'-'
asS'CCDC120'
p2648
(lp2649
I49053431
aI49069858
aS'+'
asS'TMEM27'
p2650
(lp2651
I15627317
aI15675624
aS'-'
asS'DDX11L16'
p2652
(lp2653
I156025657
aI156028183
aS'-'
asS'GAGE10'
p2654
(lp2655
I49303645
aI49319844
aS'+'
asS'GAGE13'
p2656
(lp2657
I49331602
aI49338952
aS'+'
asS'LOC105373240'
p2658
(lp2659
I66757135
aI66780371
aS'+'
asS'LOC101928055'
p2660
(lp2661
I1341708
aI1378476
aS'-'
asS'AMER1'
p2662
(lp2663
I64185116
aI64205744
aS'-'
asS'LOC729609'
p2664
(lp2665
I19986816
aI19989779
aS'-'
asS'MXRA5'
p2666
(lp2667
I3308571
aI3347098
aS'-'
asS'LOC100129291'
p2668
(lp2669
I71662990
aI71666868
aS'-'
asS'TCP11X1'
p2670
(lp2671
I102215276
aI102226795
aS'+'
as.