(dp1
S'ZFY'
p2
(lp3
I2934401
aI2982508
aS'+'
asS'CRLF2'
p4
(lp5
I1190436
aI1212761
aS'-'
asS'PPP2R3B'
p6
(lp7
I333932
aI386955
aS'-'
asS'MIR6089'
p8
(lp9
I2609190
aI2609254
aS'+'
asS'LOC105373105'
p10
(lp11
I1732483
aI1744606
aS'+'
asS'RBMY1E'
p12
(lp13
I21902173
aI21918027
aS'-'
asS'LOC105373102'
p14
(lp15
I1392348
aI1396881
aS'+'
asS'LOC107985706'
p16
(lp17
I1657742
aI1703132
aS'+'
asS'LOC107987343'
p18
(lp19
I12354777
aI12363712
aS'-'
asS'TSPY4'
p20
(lp21
I9337488
aI9340285
aS'+'
asS'TTTY6B'
p22
(lp23
I22144986
aI22146834
aS'+'
asS'LOC107987345'
p24
(lp25
I19039938
aI19049347
aS'-'
asS'EIF1AY'
p26
(lp27
I20575710
aI20593154
aS'+'
asS'LOC107987344'
p28
(lp29
I12378532
aI12399287
aS'-'
asS'RBMY1A1'
p30
(lp31
I21534939
aI21559683
aS'+'
asS'LOC100652931'
p32
(lp33
I22316677
aI22320384
aS'+'
asS'RBMY2EP'
p34
(lp35
I21395147
aI21401562
aS'-'
asS'LOC107987347'
p36
(lp37
I21240254
aI21302707
aS'-'
asS'VCY1B'
p38
(lp39
I14056221
aI14056958
aS'+'
asS'PRY'
p40
(lp41
I22488012
aI22516303
aS'+'
asS'RBMY1A3P'
p42
(lp43
I9317060
aI9322874
aS'-'
asS'DAZ3'
p44
(lp45
I24763068
aI24813492
aS'-'
asS'PCDH11Y'
p46
(lp47
I5000043
aI5742224
aS'+'
asS'DAZ1'
p48
(lp49
I23129354
aI23199117
aS'-'
asS'DDX3Y'
p50
(lp51
I12903998
aI12920478
aS'+'
asS'DHRSX'
p52
(lp53
I2219505
aI2500974
aS'-'
asS'DAZ4'
p54
(lp55
I24833806
aI24907040
aS'+'
asS'TTTY8B'
p56
(lp57
I6471030
aI6473630
aS'-'
asS'PRY2'
p58
(lp59
I22071755
aI22096007
aS'-'
asS'SLC25A6'
p60
(lp61
I1386151
aI1392146
aS'-'
asS'LOC105377217'
p62
(lp63
I17554143
aI17558838
aS'-'
asS'LOC105377218'
p64
(lp65
I17688836
aI17689263
aS'-'
asS'LOC105377219'
p66
(lp67
I18216750
aI18217177
aS'+'
asS'LOC102725532'
p68
(lp69
I22101691
aI22147540
aS'-'
asS'LOC107985697'
p70
(lp71
I1240609
aI1263307
aS'+'
asS'TTTY7B'
p72
(lp73
I9706823
aI9715262
aS'-'
asS'CDY1B'
p74
(lp75
I24044619
aI24048016
aS'-'
asS'LOC107987342'
p76
(lp77
I9794879
aI9798097
aS'+'
asS'LOC101928070'
p78
(lp79
I2320556
aI2337729
aS'+'
asS'HSFY1'
p80
(lp81
I18546690
aI18588963
aS'+'
asS'LOC107987351'
p82
(lp83
I25473469
aI25480857
aS'+'
asS'HSFY2'
p84
(lp85
I18731439
aI18773735
aS'-'
asS'KDM5D'
p86
(lp87
I19692494
aI19745347
aS'-'
asS'FAM41AY1'
p88
(lp89
I17500957
aI17516742
aS'+'
asS'TTTY8'
p90
(lp91
I9691099
aI9693699
aS'+'
asS'FAM41AY2'
p92
(lp93
I18389269
aI18405046
aS'-'
asS'CSF2RA'
p94
(lp95
I1268833
aI1325097
aS'+'
asS'FAM224B'
p96
(lp97
I17575160
aI17579452
aS'-'
asS'FAM224A'
p98
(lp99
I18326532
aI18330827
aS'+'
asS'GOLGA2P3Y'
p100
(lp101
I25455310
aI25460175
aS'+'
asS'VAMP7'
p102
(lp103
I57067799
aI57130289
aS'+'
asS'AMELY'
p104
(lp105
I6865917
aI6874027
aS'-'
asS'RBMY3AP'
p106
(lp107
I9610720
aI9615153
aS'-'
asS'ASMT'
p108
(lp109
I1595454
aI1643081
aS'+'
asS'LOC107987352'
p110
(lp111
I26029302
aI26032427
aS'-'
asS'TTTY4C'
p112
(lp113
I25063082
aI25099892
aS'-'
asS'TTTY4B'
p114
(lp115
I24570201
aI24607025
aS'+'
asS'FAM197Y4P'
p116
(lp117
I9484322
aI9485833
aS'-'
asS'LOC105377237'
p118
(lp119
I21836269
aI21841165
aS'+'
asS'LOC105379270'
p120
(lp121
I9394047
aI9396987
aS'-'
asS'LINC00685'
p122
(lp123
I319144
aI321332
aS'+'
asS'LOC105379273'
p124
(lp125
I11161844
aI11214962
aS'-'
asS'LOC105377238'
p126
(lp127
I23106396
aI23109738
aS'-'
asS'LOC105377239'
p128
(lp129
I23310972
aI23314314
aS'+'
asS'LOC105377236'
p130
(lp131
I21809152
aI21823807
aS'-'
asS'REREP2Y'
p132
(lp133
I26196208
aI26235374
aS'-'
asS'LOC105377234'
p134
(lp135
I8693335
aI8695298
aS'-'
asS'LOC105377235'
p136
(lp137
I8721796
aI8724282
aS'-'
asS'LOC105377232'
p138
(lp139
I8549056
aI8551268
aS'-'
asS'LOC105377230'
p140
(lp141
I8094271
aI8126268
aS'-'
asS'LOC105377231'
p142
(lp143
I8395046
aI8407314
aS'+'
asS'LOC107985677'
p144
(lp145
I1880270
aI1884970
aS'-'
asS'GOLGA2P2Y'
p146
(lp147
I24209966
aI24214831
aS'-'
asS'CSPG4P1Y'
p148
(lp149
I25482907
aI25486705
aS'+'
asS'ASMTL'
p150
(lp151
I1403138
aI1453794
aS'-'
asS'LOC101928092'
p152
(lp153
I2566028
aI2609177
aS'-'
asS'CD99'
p154
(lp155
I2691132
aI2741309
aS'+'
asS'XGY2'
p156
(lp157
I2752295
aI2774996
aS'+'
asS'LOC105379413'
p158
(lp159
I1771050
aI1782273
aS'+'
asS'LOC105379414'
p160
(lp161
I1744770
aI1745632
aS'+'
asS'RBMY2FP'
p162
(lp163
I22308858
aI22316205
aS'+'
asS'LOC105379269'
p164
(lp165
I9375057
aI9376612
aS'-'
asS'MIR3690'
p166
(lp167
I1293917
aI1293992
aS'+'
asS'TXLNGY'
p168
(lp169
I19567357
aI19607170
aS'+'
asS'LINC00280'
p170
(lp171
I6357218
aI6361413
aS'-'
asS'LOC105379267'
p172
(lp173
I9292383
aI9304613
aS'+'
asS'LOC105379266'
p174
(lp175
I9288976
aI9291228
aS'+'
asS'LOC105379265'
p176
(lp177
I9274396
aI9282943
aS'+'
asS'LOC105379264'
p178
(lp179
I9264845
aI9269708
aS'+'
asS'LOC105377229'
p180
(lp181
I7831749
aI7858758
aS'-'
asS'FAM197Y2P'
p182
(lp183
I9519665
aI9525268
aS'-'
asS'LOC105377220'
p184
(lp185
I18347172
aI18351866
aS'+'
asS'LOC105377223'
p186
(lp187
I19552933
aI19567251
aS'-'
asS'XKRY'
p188
(lp189
I17768979
aI17770560
aS'-'
asS'LOC105377224'
p190
(lp191
I19744951
aI19759994
aS'+'
asS'LOC105377227'
p192
(lp193
I3803910
aI3835558
aS'+'
asS'SPRY3'
p194
(lp195
I56954254
aI56968979
aS'+'
asS'REREP1Y'
p196
(lp197
I23435241
aI23474402
aS'+'
asS'DDX11L16'
p198
(lp199
I57212177
aI57214703
aS'-'
asS'LOC107987356'
p200
(lp201
I22028319
aI22030347
aS'+'
asS'LOC107987357'
p202
(lp203
I22556047
aI22558045
aS'-'
asS'LOC107987354'
p204
(lp205
I8560788
aI8562316
aS'-'
asS'LOC107987355'
p206
(lp207
I15247105
aI15365135
aS'-'
asS'CDY2A'
p208
(lp209
I18025786
aI18027746
aS'+'
asS'LOC107987353'
p210
(lp211
I6366509
aI6369921
aS'-'
asS'LOC107987350'
p212
(lp213
I24419962
aI24431201
aS'+'
asS'CDY2B'
p214
(lp215
I17878259
aI17880219
aS'-'
asS'RPS4Y2'
p216
(lp217
I20756067
aI20781032
aS'+'
asS'IL9R'
p218
(lp219
I57184165
aI57199537
aS'+'
asS'RPS4Y1'
p220
(lp221
I2841581
aI2866956
aS'+'
asS'LOC105377225'
p222
(lp223
I21138305
aI21197207
aS'+'
asS'LOC100996911'
p224
(lp225
I24188879
aI24206168
aS'-'
asS'LOC101929148'
p226
(lp227
I22438939
aI22484714
aS'+'
asS'TTTY2B'
p228
(lp229
I6406243
aI6428444
aS'-'
asS'XKRY2'
p230
(lp231
I18135448
aI18137029
aS'+'
asS'TTTY17A'
p232
(lp233
I22851583
aI22852715
aS'+'
asS'ZBED1'
p234
(lp235
I2486413
aI2500967
aS'-'
asS'AKAP17A'
p236
(lp237
I1591592
aI1602520
aS'+'
asS'LOC101929235'
p238
(lp239
I25463990
aI25473624
aS'+'
asS'TTTY9A'
p240
(lp241
I18729881
aI18739197
aS'+'
asS'LOC107987349'
p242
(lp243
I23637650
aI23640775
aS'+'
asS'TTTY23B'
p244
(lp245
I6242445
aI6243610
aS'-'
asS'IL3RA'
p246
(lp247
I1336574
aI1382689
aS'+'
asS'TSPY8'
p248
(lp249
I9357828
aI9360600
aS'+'
asS'LOC107987341'
p250
(lp251
I9503180
aI9505236
aS'-'
asS'LOC107987340'
p252
(lp253
I8660041
aI8660883
aS'+'
asS'TTTY23'
p254
(lp255
I9910797
aI9911962
aS'+'
asS'SRY'
p256
(lp257
I2786854
aI2787741
aS'-'
asS'TSPY3'
p258
(lp259
I9398420
aI9401217
aS'+'
asS'TSPY2'
p260
(lp261
I6246222
aI6249012
aS'+'
asS'TSPY1'
p262
(lp263
I9466954
aI9469749
aS'+'
asS'LOC107987346'
p264
(lp265
I21228106
aI21253382
aS'+'
asS'TTTY2'
p266
(lp267
I9736285
aI9758476
aS'+'
asS'TTTY3'
p268
(lp269
I25728489
aI25733388
aS'+'
asS'TTTY1'
p270
(lp271
I9753155
aI9774319
aS'-'
asS'TTTY6'
p272
(lp273
I22439589
aI22441459
aS'-'
asS'TTTY7'
p274
(lp275
I6449467
aI6457906
aS'+'
asS'TTTY4'
p276
(lp277
I22936454
aI22973284
aS'+'
asS'TTTY5'
p278
(lp279
I22296797
aI22298876
aS'-'
asS'TTTY3B'
p280
(lp281
I23936726
aI23941622
aS'-'
asS'LINC00102'
p282
(lp283
I2612990
aI2615347
aS'-'
asS'TSPY10'
p284
(lp285
I9527879
aI9530676
aS'+'
asS'LOC102724521'
p286
(lp287
I430264
aI470756
aS'+'
asS'LINC00106'
p288
(lp289
I1397024
aI1399412
aS'+'
asS'FAM197Y5P'
p290
(lp291
I9458742
aI9464345
aS'-'
asS'LOC101928032'
p292
(lp293
I1337573
aI1341713
aS'-'
asS'WASIR1'
p294
(lp295
I57201134
aI57203577
aS'-'
asS'TTTY14'
p296
(lp297
I18872500
aI19077547
aS'-'
asS'TTTY15'
p298
(lp299
I12662366
aI12692224
aS'+'
asS'TTTY16'
p300
(lp301
I7699356
aI7701247
aS'-'
asS'TTTY10'
p302
(lp303
I20465667
aI20519228
aS'-'
asS'TTTY11'
p304
(lp305
I8783312
aI8817382
aS'-'
asS'TTTY12'
p306
(lp307
I7804923
aI7810683
aS'+'
asS'TTTY13'
p308
(lp309
I21583599
aI21594666
aS'-'
asS'TMSB4Y'
p310
(lp311
I13703566
aI13706024
aS'+'
asS'TTTY17B'
p312
(lp313
I24485331
aI24486463
aS'+'
asS'TTTY17C'
p314
(lp315
I25183642
aI25184773
aS'-'
asS'TTTY18'
p316
(lp317
I8683369
aI8683878
aS'-'
asS'TTTY19'
p318
(lp319
I8704471
aI8705283
aS'+'
asS'TTTY9B'
p320
(lp321
I18581205
aI18590521
aS'-'
asS'TTTY21'
p322
(lp323
I9717652
aI9721296
aS'-'
asS'USP9Y'
p324
(lp325
I12701230
aI12860843
aS'+'
asS'PRKY'
p326
(lp327
I7273971
aI7381547
aS'+'
asS'LOC105377244'
p328
(lp329
I26404979
aI26409003
aS'-'
asS'LOC105377242'
p330
(lp331
I24926652
aI24929994
aS'+'
asS'LOC105377241'
p332
(lp333
I24740118
aI24743460
aS'-'
asS'RBMY1J'
p334
(lp335
I22403538
aI22419317
aS'+'
asS'LOC107987338'
p336
(lp337
I7458526
aI7520566
aS'+'
asS'LOC107987339'
p338
(lp339
I7779466
aI7809864
aS'-'
asS'BPY2'
p340
(lp341
I22984262
aI23005465
aS'+'
asS'RBMY1B'
p342
(lp343
I21511377
aI21527212
aS'+'
asS'ASMTL-AS1'
p344
(lp345
I1400530
aI1415421
aS'+'
asS'LOC107987337'
p346
(lp347
I2966680
aI3002781
aS'-'
asS'RBMY1F'
p348
(lp349
I22168541
aI22182942
aS'-'
asS'PLCXD1'
p350
(lp351
I276323
aI303356
aS'+'
asS'RBMY1D'
p352
(lp353
I21869718
aI21894486
aS'-'
asS'TGIF2LY'
p354
(lp355
I3579084
aI3580041
aS'+'
asS'LOC105379268'
p356
(lp357
I9354777
aI9355431
aS'-'
asS'GYG2P1'
p358
(lp359
I12406115
aI12421590
aS'-'
asS'LINC00278'
p360
(lp361
I3002995
aI3102272
aS'+'
asS'LINC00279'
p362
(lp363
I8638293
aI8644842
aS'+'
asS'BCORP1'
p364
(lp365
I19455430
aI19503153
aS'-'
asS'SHOX'
p366
(lp367
I624343
aI659411
aS'+'
asS'NLGN4Y'
p368
(lp369
I14522577
aI14844945
aS'+'
asS'LOC107985637'
p370
(lp371
I1726114
aI1731079
aS'+'
asS'CDY1'
p372
(lp373
I25622114
aI25625511
aS'+'
asS'TTTY20'
p374
(lp375
I9329879
aI9334832
aS'-'
asS'P2RY8'
p376
(lp377
I1462575
aI1537488
aS'-'
asS'GTPBP6'
p378
(lp379
I304749
aI318819
aS'-'
asS'VCY'
p380
(lp381
I13985771
aI13986512
aS'-'
asS'UTY'
p382
(lp383
I13230769
aI13480016
aS'-'
asS'CD99P1'
p384
(lp385
I2609264
aI2657229
aS'+'
asS'TTTY21B'
p386
(lp387
I6443433
aI6447077
aS'+'
asS'TBL1Y'
p388
(lp389
I6910696
aI7107154
aS'+'
asS'DAZ2'
p390
(lp391
I23219456
aI23291356
aS'+'
asS'LOC107987348'
p392
(lp393
I22786213
aI22797451
aS'+'
asS'TTTY22'
p394
(lp395
I9801152
aI9813245
aS'+'
asS'PRORY'
p396
(lp397
I21381673
aI21454622
aS'-'
asS'NLGN4Y-AS1'
p398
(lp399
I14793641
aI14804033
aS'-'
asS'BPY2B'
p400
(lp401
I24618003
aI24639207
aS'+'
asS'BPY2C'
p402
(lp403
I25030900
aI25052104
aS'-'
asS'LOC101928055'
p404
(lp405
I1341708
aI1378476
aS'-'
asS'TTTY1B'
p406
(lp407
I6390400
aI6411564
aS'+'
asS'LOC107987336'
p408
(lp409
I20538084
aI20552600
aS'-'
as.