(dp1
S'ZFY'
p2
(lp3
I2934401
aI2982508
aS'+'
aI3563
aI3880
aI4255
aI4571
aI4932
aI5285
aI5593
aI5891
aI6261
asS'CRLF2'
p4
(lp5
I1190436
aI1212761
aS'-'
aI0
aI0
aI0
aI0
aI0
aI0
aI0
aI0
aI0
asS'PPP2R3B'
p6
(lp7
I333932
aI386955
aS'-'
aI0
aI0
aI0
aI0
aI0
aI0
aI0
aI0
aI0
asS'MIR6089'
p8
(lp9
I2609190
aI2609254
aS'+'
aI0
aI0
aI0
aI0
aI0
aI0
aI0
aI0
aI0
asS'LOC107987341'
p10
(lp11
I9503180
aI9505236
aS'-'
aI78
aI190
aI494
aI777
aI1138
aI1240
aI1543
aI1850
aI2223
asS'LOC105373105'
p12
(lp13
I1732483
aI1744606
aS'+'
aI0
aI0
aI0
aI0
aI0
aI0
aI0
aI0
aI0
asS'RBMY1E'
p14
(lp15
I21902173
aI21918027
aS'-'
aI1214
aI1381
aI1729
aI2142
aI2570
aI2762
aI3177
aI3502
aI3836
asS'LOC105373102'
p16
(lp17
I1392348
aI1396881
aS'+'
aI0
aI0
aI0
aI0
aI0
aI0
aI0
aI0
aI0
asS'LOC107985706'
p18
(lp19
I1657742
aI1703132
aS'+'
aI0
aI0
aI0
aI0
aI0
aI0
aI0
aI0
aI0
asS'LOC107987343'
p20
(lp21
I12354777
aI12363712
aS'-'
aI422
aI680
aI1138
aI1373
aI1631
aI1921
aI2149
aI2369
aI2691
asS'LOC107987342'
p22
(lp23
I9794879
aI9798097
aS'+'
aI125
aI305
aI513
aI703
aI992
aI1167
aI1338
aI1502
aI1703
asS'TTTY6B'
p24
(lp25
I22144986
aI22146834
aS'+'
aI67
aI257
aI443
aI608
aI780
aI950
aI1120
aI1322
aI1496
asS'LOC107987345'
p26
(lp27
I19039938
aI19049347
aS'-'
aI394
aI653
aI963
aI1251
aI1507
aI1805
aI2029
aI2309
aI2622
asS'EIF1AY'
p28
(lp29
I20575710
aI20593154
aS'+'
aI1446
aI1782
aI2156
aI2538
aI2870
aI3093
aI3516
aI3831
aI4146
asS'LOC107987344'
p30
(lp31
I12378532
aI12399287
aS'-'
aI1033
aI1363
aI1712
aI1994
aI2261
aI2436
aI2764
aI3066
aI3419
asS'RBMY1A1'
p32
(lp33
I21534939
aI21559683
aS'+'
aI1653
aI1819
aI2151
aI2533
aI2908
aI3219
aI3438
aI3804
aI4196
asS'LOC100652931'
p34
(lp35
I22316677
aI22320384
aS'+'
aI273
aI685
aI961
aI1246
aI1530
aI1838
aI2246
aI2713
aI3172
asS'RBMY2EP'
p36
(lp37
I21395147
aI21401562
aS'-'
aI536
aI793
aI987
aI1456
aI1912
aI2318
aI2618
aI3016
aI3412
asS'LOC107987347'
p38
(lp39
I21240254
aI21302707
aS'-'
aI4611
aI4920
aI5319
aI5697
aI6108
aI6447
aI6780
aI7178
aI7596
asS'VCY1B'
p40
(lp41
I14056221
aI14056958
aS'+'
aI11
aI390
aI689
aI1046
aI1496
aI1815
aI2089
aI2412
aI2745
asS'PRY'
p42
(lp43
I22488012
aI22516303
aS'+'
aI1604
aI1792
aI1979
aI2190
aI2356
aI2510
aI2685
aI2856
aI3032
asS'RBMY1A3P'
p44
(lp45
I9317060
aI9322874
aS'-'
aI490
aI706
aI1115
aI1265
aI1470
aI1791
aI2186
aI2326
aI2512
asS'DAZ3'
p46
(lp47
I24763068
aI24813492
aS'-'
aI4110
aI4447
aI4808
aI5132
aI5487
aI5808
aI6192
aI6619
aI7008
asS'PCDH11Y'
p48
(lp49
I5000043
aI5742224
aS'+'
aI60459
aI60814
aI61227
aI61667
aI62068
aI62405
aI62722
aI63135
aI63402
asS'DAZ1'
p50
(lp51
I23129354
aI23199117
aS'-'
aI5653
aI5992
aI6353
aI6677
aI7030
aI7350
aI7736
aI8204
aI8665
asS'DDX3Y'
p52
(lp53
I12903998
aI12920478
aS'+'
aI1290
aI1692
aI2023
aI2357
aI2717
aI3081
aI3347
aI3697
aI4063
asS'DHRSX'
p54
(lp55
I2219505
aI2500974
aS'-'
aI0
aI0
aI0
aI0
aI0
aI0
aI0
aI0
aI0
asS'DAZ4'
p56
(lp57
I24833806
aI24907040
aS'+'
aI6034
aI6371
aI6716
aI7057
aI7410
aI7732
aI8116
aI8583
aI9041
asS'TTTY8B'
p58
(lp59
I6471030
aI6473630
aS'-'
aI98
aI438
aI734
aI987
aI1270
aI1701
aI2130
aI2458
aI2796
asS'PRY2'
p60
(lp61
I22071755
aI22096007
aS'-'
aI1378
aI1555
aI1754
aI1960
aI2135
aI2295
aI2465
aI2639
aI2803
asS'SLC25A6'
p62
(lp63
I1386151
aI1392146
aS'-'
aI0
aI0
aI0
aI0
aI0
aI0
aI0
aI0
aI0
asS'LOC105377217'
p64
(lp65
I17554143
aI17558838
aS'-'
aI210
aI291
aI372
aI565
aI810
aI1007
aI1333
aI1616
aI1884
asS'LOC105377218'
p66
(lp67
I17688836
aI17689263
aS'-'
aI24
aI357
aI584
aI844
aI1218
aI1510
aI1890
aI2220
aI2664
asS'LOC105377219'
p68
(lp69
I18216750
aI18217177
aS'+'
aI24
aI355
aI582
aI841
aI1215
aI1507
aI1887
aI2216
aI2661
asS'LOC102725532'
p70
(lp71
I22101691
aI22147540
aS'-'
aI1645
aI1795
aI1967
aI2235
aI2620
aI3020
aI3400
aI3795
aI3959
asS'LOC107985697'
p72
(lp73
I1240609
aI1263307
aS'+'
aI0
aI0
aI0
aI0
aI0
aI0
aI0
aI0
aI0
asS'TTTY7B'
p74
(lp75
I9706823
aI9715262
aS'-'
aI324
aI517
aI694
aI854
aI1134
aI1291
aI1479
aI1638
aI1826
asS'CDY1B'
p76
(lp77
I24044619
aI24048016
aS'-'
aI196
aI540
aI964
aI1250
aI1507
aI1820
aI2145
aI2596
aI3070
asS'LOC101928070'
p78
(lp79
I2320556
aI2337729
aS'+'
aI0
aI0
aI0
aI0
aI0
aI0
aI0
aI0
aI0
asS'HSFY1'
p80
(lp81
I18546690
aI18588963
aS'+'
aI2895
aI3366
aI3778
aI4306
aI4628
aI4945
aI5257
aI5641
aI6036
asS'HSFY2'
p82
(lp83
I18731439
aI18773735
aS'-'
aI2896
aI3367
aI3777
aI4307
aI4629
aI4944
aI5256
aI5643
aI6036
asS'KDM5D'
p84
(lp85
I19692494
aI19745347
aS'-'
aI3875
aI4311
aI4557
aI4958
aI5354
aI5739
aI6043
aI6360
aI6703
asS'FAM41AY1'
p86
(lp87
I17500957
aI17516742
aS'+'
aI1113
aI1413
aI1724
aI2155
aI2428
aI2827
aI3169
aI3663
aI4058
asS'TTTY8'
p88
(lp89
I9691099
aI9693699
aS'+'
aI98
aI444
aI857
aI1115
aI1380
aI1768
aI2186
aI2545
aI2889
asS'FAM41AY2'
p90
(lp91
I18389269
aI18405046
aS'-'
aI1113
aI1414
aI1725
aI2155
aI2429
aI2828
aI3171
aI3664
aI4060
asS'CSF2RA'
p92
(lp93
I1268833
aI1325097
aS'+'
aI0
aI0
aI0
aI0
aI0
aI0
aI0
aI0
aI0
asS'REREP2Y'
p94
(lp95
I26196208
aI26235374
aS'-'
aI2866
aI3250
aI3624
aI3976
aI4364
aI4744
aI5162
aI5579
aI5967
asS'FAM224B'
p96
(lp97
I17575160
aI17579452
aS'-'
aI202
aI419
aI726
aI1026
aI1292
aI1614
aI1964
aI2193
aI2453
asS'FAM224A'
p98
(lp99
I18326532
aI18330827
aS'+'
aI201
aI418
aI727
aI1027
aI1292
aI1617
aI1965
aI2194
aI2453
asS'GOLGA2P3Y'
p100
(lp101
I25455310
aI25460175
aS'+'
aI134
aI394
aI685
aI1017
aI1352
aI1763
aI2094
aI2364
aI2822
asS'AMELY'
p102
(lp103
I6865917
aI6874027
aS'-'
aI615
aI1012
aI1376
aI1759
aI2042
aI2333
aI2608
aI2889
aI3102
asS'RBMY3AP'
p104
(lp105
I9610720
aI9615153
aS'-'
aI373
aI788
aI1089
aI1376
aI1832
aI2247
aI2568
aI2964
aI3303
asS'ASMT'
p106
(lp107
I1595454
aI1643081
aS'+'
aI0
aI0
aI0
aI0
aI0
aI0
aI0
aI0
aI0
asS'LOC107987352'
p108
(lp109
I26029302
aI26032427
aS'-'
aI278
aI668
aI1027
aI1307
aI1714
aI2097
aI2399
aI2668
aI3077
asS'TTTY4C'
p110
(lp111
I25063082
aI25099892
aS'-'
aI2375
aI2716
aI3065
aI3381
aI3670
aI3998
aI4320
aI4644
aI4948
asS'TTTY4B'
p112
(lp113
I24570201
aI24607025
aS'+'
aI2376
aI2716
aI3065
aI3381
aI3671
aI4000
aI4322
aI4647
aI4954
asS'FAM197Y4P'
p114
(lp115
I9484322
aI9485833
aS'-'
aI26
aI164
aI455
aI788
aI1073
aI1203
aI1508
aI1794
aI2133
asS'LOC105379270'
p116
(lp117
I9394047
aI9396987
aS'-'
aI92
aI227
aI313
aI313
aI313
aI313
aI313
aI313
aI313
asS'LINC00685'
p118
(lp119
I319144
aI321332
aS'+'
aI0
aI0
aI0
aI0
aI0
aI0
aI0
aI0
aI0
asS'LOC105379273'
p120
(lp121
I11161844
aI11214962
aS'-'
aI3052
aI3363
aI3690
aI3978
aI4343
aI4645
aI5026
aI5388
aI5828
asS'LOC105377238'
p122
(lp123
I23106396
aI23109738
aS'-'
aI268
aI665
aI1039
aI1415
aI1800
aI2187
aI2607
aI3050
aI3306
asS'LOC105377239'
p124
(lp125
I23310972
aI23314314
aS'+'
aI268
aI664
aI1038
aI1414
aI1799
aI2186
aI2606
aI3053
aI3494
asS'LOC105377236'
p126
(lp127
I21809152
aI21823807
aS'-'
aI981
aI1148
aI1300
aI1461
aI1624
aI1884
aI2159
aI2428
aI2569
asS'LOC105377237'
p128
(lp129
I21836269
aI21841165
aS'+'
aI148
aI304
aI465
aI631
aI912
aI1367
aI1664
aI1715
aI1715
asS'LOC105377234'
p130
(lp131
I8693335
aI8695298
aS'-'
aI78
aI280
aI482
aI716
aI964
aI1206
aI1386
aI1563
aI1728
asS'LOC105377235'
p132
(lp133
I8721796
aI8724282
aS'-'
aI86
aI253
aI428
aI603
aI792
aI989
aI1167
aI1331
aI1510
asS'LOC105377232'
p134
(lp135
I8549056
aI8551268
aS'-'
aI92
aI287
aI482
aI661
aI842
aI1018
aI1194
aI1375
aI1546
asS'LOC105377230'
p136
(lp137
I8094271
aI8126268
aS'-'
aI2439
aI2805
aI3200
aI3466
aI3893
aI4229
aI4515
aI4893
aI5307
asS'LOC105377231'
p138
(lp139
I8395046
aI8407314
aS'+'
aI915
aI1272
aI1625
aI1968
aI2313
aI2764
aI3168
aI3560
aI3925
asS'LOC107985677'
p140
(lp141
I1880270
aI1884970
aS'-'
aI0
aI0
aI0
aI0
aI0
aI0
aI0
aI0
aI0
asS'GOLGA2P2Y'
p142
(lp143
I24209966
aI24214831
aS'-'
aI134
aI394
aI685
aI1017
aI1353
aI1763
aI2094
aI2364
aI2822
asS'CSPG4P1Y'
p144
(lp145
I25482907
aI25486705
aS'+'
aI72
aI174
aI421
aI740
aI992
aI1129
aI1336
aI1609
aI1900
asS'ASMTL'
p146
(lp147
I1403138
aI1453794
aS'-'
aI0
aI0
aI0
aI0
aI0
aI0
aI0
aI0
aI0
asS'LOC101928092'
p148
(lp149
I2566028
aI2609177
aS'-'
aI0
aI0
aI0
aI0
aI0
aI0
aI0
aI0
aI0
asS'CD99'
p150
(lp151
I2691132
aI2741309
aS'+'
aI0
aI0
aI0
aI0
aI0
aI0
aI0
aI0
aI0
asS'XGY2'
p152
(lp153
I2752295
aI2774996
aS'+'
aI0
aI0
aI0
aI0
aI0
aI0
aI0
aI0
aI0
asS'LOC105379413'
p154
(lp155
I1771050
aI1782273
aS'+'
aI0
aI0
aI0
aI0
aI0
aI0
aI0
aI0
aI0
asS'LOC105379414'
p156
(lp157
I1744770
aI1745632
aS'+'
aI0
aI0
aI0
aI0
aI0
aI0
aI0
aI0
aI0
asS'RBMY2FP'
p158
(lp159
I22308858
aI22316205
aS'+'
aI588
aI762
aI1108
aI1322
aI1725
aI2178
aI2638
aI3047
aI3444
asS'LOC105379269'
p160
(lp161
I9375057
aI9376612
aS'-'
aI27
aI163
aI475
aI797
aI1098
aI1224
aI1324
aI1324
aI1324
asS'MIR3690'
p162
(lp163
I1293917
aI1293992
aS'+'
aI0
aI0
aI0
aI0
aI0
aI0
aI0
aI0
aI0
asS'TXLNGY'
p164
(lp165
I19567357
aI19607170
aS'+'
aI3212
aI3633
aI3973
aI4328
aI4642
aI5054
aI5374
aI5775
aI6112
asS'TSPY4'
p166
(lp167
I9337488
aI9340285
aS'+'
aI84
aI271
aI655
aI898
aI1301
aI1705
aI2068
aI2236
aI2669
asS'LINC00280'
p168
(lp169
I6357218
aI6361413
aS'-'
aI339
aI564
aI751
aI928
aI1142
aI1358
aI1616
aI1796
aI1969
asS'LOC105379267'
p170
(lp171
I9292383
aI9304613
aS'+'
aI657
aI854
aI1140
aI1407
aI1677
aI1851
aI2007
aI2166
aI2529
asS'LOC105379266'
p172
(lp173
I9288976
aI9291228
aS'+'
aI74
aI330
aI624
aI922
aI1099
aI1265
aI1406
aI1702
aI2081
asS'LOC105379265'
p174
(lp175
I9274396
aI9282943
aS'+'
aI507
aI684
aI853
aI1004
aI1283
aI1647
aI1953
aI2302
aI2689
asS'LOC105379264'
p176
(lp177
I9264845
aI9269708
aS'+'
aI160
aI314
aI575
aI923
aI1255
aI1596
aI1960
aI2383
aI2829
asS'LOC105377229'
p178
(lp179
I7831749
aI7858758
aS'-'
aI1762
aI2120
aI2454
aI2817
aI3174
aI3496
aI3862
aI4172
aI4552
asS'FAM197Y2P'
p180
(lp181
I9519665
aI9525268
aS'-'
aI379
aI481
aI784
aI1091
aI1464
aI1575
aI1882
aI2205
aI2526
asS'LOC105377220'
p182
(lp183
I18347172
aI18351866
aS'+'
aI210
aI291
aI372
aI565
aI811
aI1008
aI1333
aI1617
aI1885
asS'LOC105377223'
p184
(lp185
I19552933
aI19567251
aS'-'
aI1074
aI1435
aI1846
aI2193
aI2473
aI2911
aI3384
aI3823
aI4293
asS'XKRY'
p186
(lp187
I17768979
aI17770560
aS'-'
aI142
aI529
aI938
aI1548
aI1965
aI2401
aI2751
aI3079
aI3330
asS'LOC105377224'
p188
(lp189
I19744951
aI19759994
aS'+'
aI1081
aI1415
aI1863
aI2319
aI2729
aI3092
aI3388
aI3781
aI4016
asS'LOC105377227'
p190
(lp191
I3803910
aI3835558
aS'+'
aI2425
aI2829
aI3445
aI3741
aI4049
aI4439
aI4857
aI5222
aI5503
asS'SPRY3'
p192
(lp193
I56954254
aI56968979
aS'+'
aI0
aI0
aI0
aI0
aI0
aI0
aI0
aI0
aI0
asS'REREP1Y'
p194
(lp195
I23435241
aI23474402
aS'+'
aI2862
aI3248
aI3620
aI3972
aI4360
aI4741
aI5158
aI5575
aI5963
asS'DDX11L16'
p196
(lp197
I57212177
aI57214703
aS'-'
aI0
aI0
aI0
aI0
aI0
aI0
aI0
aI0
aI0
asS'LOC107987356'
p198
(lp199
I22028319
aI22030347
aS'+'
aI185
aI575
aI930
aI1213
aI1621
aI2003
aI2308
aI2574
aI2987
asS'LOC107987357'
p200
(lp201
I22556047
aI22558045
aS'-'
aI184
aI574
aI930
aI1211
aI1619
aI2002
aI2306
aI2574
aI2985
asS'LOC107987354'
p202
(lp203
I8560788
aI8562316
aS'-'
aI49
aI230
aI415
aI593
aI776
aI946
aI1130
aI1319
aI1504
asS'LOC107987355'
p204
(lp205
I15247105
aI15365135
aS'-'
aI7567
aI7823
aI8125
aI8467
aI8801
aI9111
aI9384
aI9676
aI9962
asS'CDY2A'
p206
(lp207
I18025786
aI18027746
aS'+'
aI91
aI431
aI833
aI1088
aI1349
aI1667
aI2062
aI2461
aI2951
asS'LOC107987353'
p208
(lp209
I6366509
aI6369921
aS'-'
aI129
aI308
aI518
aI710
aI994
aI1171
aI1342
aI1509
aI1707
asS'LOC107987350'
p210
(lp211
I24419962
aI24431201
aS'+'
aI649
aI1021
aI1307
aI1671
aI2099
aI2549
aI2908
aI3188
aI3558
asS'LOC107987351'
p212
(lp213
I25473469
aI25480857
aS'+'
aI283
aI591
aI849
aI999
aI1187
aI1452
aI1755
aI2079
aI2450
asS'RPS4Y2'
p214
(lp215
I20756067
aI20781032
aS'+'
aI1353
aI1598
aI1863
aI2086
aI2303
aI2577
aI2803
aI3166
aI3538
asS'IL9R'
p216
(lp217
I57184165
aI57199537
aS'+'
aI0
aI0
aI0
aI0
aI0
aI0
aI0
aI0
aI0
asS'RPS4Y1'
p218
(lp219
I2841581
aI2866956
aS'+'
aI1391
aI1666
aI2071
aI2365
aI2737
aI3058
aI3399
aI3667
aI3988
asS'TTTY13'
p220
(lp221
I21583599
aI21594666
aS'-'
aI452
aI591
aI746
aI1028
aI1360
aI1749
aI2073
aI2437
aI2897
asS'LOC105377225'
p222
(lp223
I21138305
aI21197207
aS'+'
aI4134
aI4480
aI4789
aI5108
aI5424
aI5821
aI6131
aI6494
aI6811
asS'LOC100996911'
p224
(lp225
I24188879
aI24206168
aS'-'
aI831
aI995
aI1174
aI1431
aI1731
aI2058
aI2412
aI2810
aI3117
asS'LOC101929148'
p226
(lp227
I22438939
aI22484714
aS'+'
aI1643
aI1795
aI1964
aI2229
aI2614
aI3014
aI3396
aI3790
aI3955
asS'TTTY2B'
p228
(lp229
I6406243
aI6428444
aS'-'
aI781
aI1031
aI1220
aI1396
aI1580
aI1775
aI1960
aI2168
aI2347
asS'XKRY2'
p230
(lp231
I18135448
aI18137029
aS'+'
aI141
aI529
aI938
aI1548
aI1965
aI2401
aI2751
aI3079
aI3330
asS'TTTY17A'
p232
(lp233
I22851583
aI22852715
aS'+'
aI54
aI383
aI739
aI1095
aI1414
aI1715
aI2028
aI2357
aI2696
asS'ZBED1'
p234
(lp235
I2486413
aI2500967
aS'-'
aI0
aI0
aI0
aI0
aI0
aI0
aI0
aI0
aI0
asS'AKAP17A'
p236
(lp237
I1591592
aI1602520
aS'+'
aI0
aI0
aI0
aI0
aI0
aI0
aI0
aI0
aI0
asS'LOC101929235'
p238
(lp239
I25463990
aI25473624
aS'+'
aI548
aI711
aI889
aI1146
aI1447
aI1772
aI2127
aI2527
aI2833
asS'TTTY9A'
p240
(lp241
I18729881
aI18739197
aS'+'
aI619
aI980
aI1284
aI1580
aI1952
aI2278
aI2646
aI2969
aI3275
asS'LOC107987349'
p242
(lp243
I23637650
aI23640775
aS'+'
aI278
aI668
aI1026
aI1306
aI1713
aI2097
aI2399
aI2668
aI3077
asS'TTTY23B'
p244
(lp245
I6242445
aI6243610
aS'-'
aI43
aI156
aI465
aI758
aI1121
aI1235
aI1515
aI1884
aI2266
asS'IL3RA'
p246
(lp247
I1336574
aI1382689
aS'+'
aI0
aI0
aI0
aI0
aI0
aI0
aI0
aI0
aI0
asS'TSPY8'
p248
(lp249
I9357828
aI9360600
aS'+'
aI83
aI228
aI621
aI941
aI1143
aI1296
aI1705
aI1919
aI2327
asS'TTTY21'
p250
(lp251
I9717652
aI9721296
aS'-'
aI129
aI306
aI496
aI744
aI914
aI1100
aI1256
aI1444
aI1627
asS'LOC107987340'
p252
(lp253
I8660041
aI8660883
aS'+'
aI35
aI229
aI517
aI778
aI969
aI1144
aI1307
aI1475
aI1656
asS'TTTY23'
p254
(lp255
I9910797
aI9911962
aS'+'
aI43
aI178
aI453
aI850
aI1214
aI1566
aI1863
aI2179
aI2561
asS'SRY'
p256
(lp257
I2786854
aI2787741
aS'-'
aI46
aI432
aI787
aI1123
aI1434
aI1710
aI2035
aI2367
aI2746
asS'TSPY3'
p258
(lp259
I9398420
aI9401217
aS'+'
aI84
aI233
aI622
aI953
aI1157
aI1281
aI1671
aI1994
aI2202
asS'TSPY2'
p260
(lp261
I6246222
aI6249012
aS'+'
aI83
aI279
aI668
aI1024
aI1422
aI1783
aI2204
aI2602
aI3048
asS'TSPY1'
p262
(lp263
I9466954
aI9469749
aS'+'
aI84
aI233
aI628
aI797
aI797
aI797
aI797
aI797
aI797
asS'LOC107987346'
p264
(lp265
I21228106
aI21253382
aS'+'
aI1929
aI2335
aI2716
aI3042
aI3367
aI3858
aI4217
aI4540
aI4946
asS'TTTY2'
p266
(lp267
I9736285
aI9758476
aS'+'
aI780
aI1030
aI1219
aI1395
aI1579
aI1774
aI1959
aI2167
aI2345
asS'TTTY3'
p268
(lp269
I25728489
aI25733388
aS'+'
aI468
aI832
aI1334
aI1667
aI2008
aI2352
aI2707
aI3089
aI3475
asS'TTTY1'
p270
(lp271
I9753155
aI9774319
aS'-'
aI761
aI1047
aI1239
aI1450
aI1628
aI1826
aI2006
aI2193
aI2532
asS'TTTY6'
p272
(lp273
I22439589
aI22441459
aS'-'
aI69
aI257
aI443
aI609
aI781
aI951
aI1121
aI1324
aI1499
asS'TTTY7'
p274
(lp275
I6449467
aI6457906
aS'+'
aI324
aI517
aI694
aI854
aI1134
aI1291
aI1479
aI1638
aI1827
asS'TTTY4'
p276
(lp277
I22936454
aI22973284
aS'+'
aI2378
aI2718
aI3068
aI3384
aI3674
aI4003
aI4325
aI4649
aI4955
asS'TTTY5'
p278
(lp279
I22296797
aI22298876
aS'-'
aI95
aI442
aI616
aI1000
aI1412
aI1819
aI2104
aI2401
aI2786
asS'TTTY3B'
p280
(lp281
I23936726
aI23941622
aS'-'
aI467
aI832
aI1334
aI1667
aI2009
aI2349
aI2707
aI3087
aI3474
asS'LINC00102'
p282
(lp283
I2612990
aI2615347
aS'-'
aI0
aI0
aI0
aI0
aI0
aI0
aI0
aI0
aI0
asS'TSPY10'
p284
(lp285
I9527879
aI9530676
aS'+'
aI85
aI233
aI626
aI950
aI1148
aI1274
aI1665
aI1982
aI2195
asS'LOC102724521'
p286
(lp287
I430264
aI470756
aS'+'
aI0
aI0
aI0
aI0
aI0
aI0
aI0
aI0
aI0
asS'LINC00106'
p288
(lp289
I1397024
aI1399412
aS'+'
aI0
aI0
aI0
aI0
aI0
aI0
aI0
aI0
aI0
asS'FAM197Y5P'
p290
(lp291
I9458742
aI9464345
aS'-'
aI380
aI483
aI784
aI1075
aI1439
aI1541
aI1827
aI2121
aI2485
asS'LOC101928032'
p292
(lp293
I1337573
aI1341713
aS'-'
aI0
aI0
aI0
aI0
aI0
aI0
aI0
aI0
aI0
asS'WASIR1'
p294
(lp295
I57201134
aI57203577
aS'-'
aI0
aI0
aI0
aI0
aI0
aI0
aI0
aI0
aI0
asS'TTTY14'
p296
(lp297
I18872500
aI19077547
aS'-'
aI13877
aI14134
aI14419
aI14716
aI15051
aI15365
aI15691
aI16030
aI16309
asS'TTTY15'
p298
(lp299
I12662366
aI12692224
aS'+'
aI2042
aI2404
aI2696
aI3103
aI3413
aI3767
aI4168
aI4465
aI4779
asS'TTTY16'
p300
(lp301
I7699356
aI7701247
aS'-'
aI95
aI396
aI681
aI981
aI1292
aI1549
aI1775
aI2138
aI2406
asS'TTTY10'
p302
(lp303
I20465667
aI20519228
aS'-'
aI3968
aI4446
aI4728
aI5023
aI5349
aI5654
aI6037
aI6285
aI6650
asS'TTTY11'
p304
(lp305
I8783312
aI8817382
aS'-'
aI2432
aI2857
aI3244
aI3560
aI3951
aI4385
aI4782
aI5173
aI5730
asS'TTTY12'
p306
(lp307
I7804923
aI7810683
aS'+'
aI399
aI714
aI1084
aI1410
aI1765
aI2075
aI2400
aI2688
aI3056
asS'DAZ2'
p308
(lp309
I23219456
aI23291356
aS'+'
aI6024
aI6360
aI6703
aI7044
aI7401
aI7717
aI8104
aI8530
aI8921
asS'TMSB4Y'
p310
(lp311
I13703566
aI13706024
aS'+'
aI130
aI416
aI748
aI1016
aI1337
aI1668
aI2042
aI2366
aI2720
asS'TTTY17B'
p312
(lp313
I24485331
aI24486463
aS'+'
aI54
aI382
aI738
aI1094
aI1413
aI1714
aI2027
aI2356
aI2692
asS'TTTY17C'
p314
(lp315
I25183642
aI25184773
aS'-'
aI54
aI384
aI741
aI1096
aI1415
aI1717
aI2030
aI2359
aI2695
asS'TTTY18'
p316
(lp317
I8683369
aI8683878
aS'-'
aI19
aI216
aI431
aI634
aI829
aI1053
aI1289
aI1560
aI1747
asS'TTTY19'
p318
(lp319
I8704471
aI8705283
aS'+'
aI38
aI235
aI432
aI655
aI845
aI1028
aI1204
aI1385
aI1571
asS'TTTY9B'
p320
(lp321
I18581205
aI18590521
aS'-'
aI619
aI980
aI1285
aI1580
aI1952
aI2278
aI2647
aI2969
aI3275
asS'CDY2B'
p322
(lp323
I17878259
aI17880219
aS'-'
aI91
aI431
aI834
aI1090
aI1351
aI1668
aI2064
aI2460
aI2949
asS'USP9Y'
p324
(lp325
I12701230
aI12860843
aS'+'
aI12391
aI12701
aI13052
aI13388
aI13734
aI14061
aI14435
aI14777
aI15086
asS'PRKY'
p326
(lp327
I7273971
aI7381547
aS'+'
aI6036
aI6310
aI6592
aI6880
aI7082
aI7378
aI7717
aI8064
aI8295
asS'LOC105377244'
p328
(lp329
I26404979
aI26409003
aS'-'
aI165
aI536
aI974
aI1511
aI1956
aI2321
aI2738
aI3135
aI3486
asS'LOC105377242'
p330
(lp331
I24926652
aI24929994
aS'+'
aI267
aI664
aI1041
aI1416
aI1802
aI2189
aI2608
aI3057
aI3498
asS'LOC105377241'
p332
(lp333
I24740118
aI24743460
aS'-'
aI267
aI663
aI1040
aI1416
aI1801
aI2188
aI2608
aI2944
aI3301
asS'RBMY1J'
p334
(lp335
I22403538
aI22419317
aS'+'
aI1222
aI1401
aI1837
aI2183
aI2638
aI3023
aI3405
aI3812
aI4156
asS'LOC107987338'
p336
(lp337
I7458526
aI7520566
aS'+'
aI4019
aI4384
aI4653
aI4917
aI5222
aI5537
aI5828
aI6221
aI6585
asS'LOC107987339'
p338
(lp339
I7779466
aI7809864
aS'-'
aI2061
aI2394
aI2756
aI3091
aI3383
aI3678
aI3955
aI4288
aI4671
asS'BPY2'
p340
(lp341
I22984262
aI23005465
aS'+'
aI1412
aI1705
aI2035
aI2358
aI2699
aI3023
aI3365
aI3704
aI4057
asS'RBMY1B'
p342
(lp343
I21511377
aI21527212
aS'+'
aI1215
aI1382
aI1717
aI2097
aI2481
aI2970
aI3356
aI3754
aI4067
asS'ASMTL-AS1'
p344
(lp345
I1400530
aI1415421
aS'+'
aI0
aI0
aI0
aI0
aI0
aI0
aI0
aI0
aI0
asS'LOC107987337'
p346
(lp347
I2966680
aI3002781
aS'-'
aI2657
aI2897
aI3217
aI3523
aI3821
aI4192
aI4464
aI4820
aI5166
asS'RBMY1F'
p348
(lp349
I22168541
aI22182942
aS'-'
aI1117
aI1295
aI1736
aI2080
aI2536
aI2921
aI3407
aI3824
aI4168
asS'PLCXD1'
p350
(lp351
I276323
aI303356
aS'+'
aI0
aI0
aI0
aI0
aI0
aI0
aI0
aI0
aI0
asS'RBMY1D'
p352
(lp353
I21869718
aI21894486
aS'-'
aI1652
aI1819
aI2153
aI2532
aI2906
aI3217
aI3440
aI3818
aI4239
asS'TGIF2LY'
p354
(lp355
I3579084
aI3580041
aS'+'
aI35
aI425
aI953
aI1472
aI1882
aI2288
aI2764
aI3142
aI3566
asS'LOC105379268'
p356
(lp357
I9354777
aI9355431
aS'-'
aI13
aI120
aI409
aI698
aI1058
aI1160
aI1471
aI1763
aI2127
asS'GYG2P1'
p358
(lp359
I12406115
aI12421590
aS'-'
aI806
aI1062
aI1379
aI1732
aI2013
aI2251
aI2482
aI2663
aI3153
asS'LINC00278'
p360
(lp361
I3002995
aI3102272
aS'+'
aI7433
aI7755
aI8173
aI8541
aI8872
aI9298
aI9612
aI10002
aI10419
asS'LINC00279'
p362
(lp363
I8638293
aI8644842
aS'+'
aI241
aI421
aI567
aI756
aI938
aI1182
aI1496
aI1680
aI1855
asS'BCORP1'
p364
(lp365
I19455430
aI19503153
aS'-'
aI3213
aI3483
aI3807
aI4121
aI4467
aI4802
aI5169
aI5574
aI5861
asS'SHOX'
p366
(lp367
I624343
aI659411
aS'+'
aI0
aI0
aI0
aI0
aI0
aI0
aI0
aI0
aI0
asS'NLGN4Y'
p368
(lp369
I14522577
aI14844945
aS'+'
aI23074
aI23451
aI23845
aI24129
aI24424
aI24749
aI25012
aI25369
aI25696
asS'LOC107985637'
p370
(lp371
I1726114
aI1731079
aS'+'
aI0
aI0
aI0
aI0
aI0
aI0
aI0
aI0
aI0
asS'CDY1'
p372
(lp373
I25622114
aI25625511
aS'+'
aI196
aI540
aI964
aI1250
aI1507
aI1820
aI2146
aI2596
aI3070
asS'TTTY20'
p374
(lp375
I9329879
aI9334832
aS'-'
aI397
aI498
aI798
aI1089
aI1453
aI1554
aI1837
aI2131
aI2498
asS'P2RY8'
p376
(lp377
I1462575
aI1537488
aS'-'
aI0
aI0
aI0
aI0
aI0
aI0
aI0
aI0
aI0
asS'GTPBP6'
p378
(lp379
I304749
aI318819
aS'-'
aI0
aI0
aI0
aI0
aI0
aI0
aI0
aI0
aI0
asS'VCY'
p380
(lp381
I13985771
aI13986512
aS'-'
aI11
aI390
aI690
aI1046
aI1496
aI1815
aI2090
aI2416
aI2745
asS'UTY'
p382
(lp383
I13230769
aI13480016
aS'-'
aI18873
aI19263
aI19601
aI19957
aI20313
aI20651
aI21069
aI21419
aI21702
asS'CD99P1'
p384
(lp385
I2609264
aI2657229
aS'+'
aI0
aI0
aI0
aI0
aI0
aI0
aI0
aI0
aI0
asS'TTTY21B'
p386
(lp387
I6443433
aI6447077
aS'+'
aI129
aI306
aI496
aI744
aI914
aI1100
aI1256
aI1444
aI1627
asS'TBL1Y'
p388
(lp389
I6910696
aI7107154
aS'+'
aI10869
aI11144
aI11399
aI11653
aI11976
aI12317
aI12688
aI13034
aI13467
asS'VAMP7'
p390
(lp391
I57067799
aI57130289
aS'+'
aI0
aI0
aI0
aI0
aI0
aI0
aI0
aI0
aI0
asS'LOC107987348'
p392
(lp393
I22786213
aI22797451
aS'+'
aI652
aI1023
aI1309
aI1675
aI2102
aI2557
aI2916
aI3197
aI3591
asS'TTTY22'
p394
(lp395
I9801152
aI9813245
aS'+'
aI533
aI730
aI912
aI1094
aI1307
aI1559
aI1775
aI1944
aI2122
asS'PRORY'
p396
(lp397
I21381673
aI21454622
aS'-'
aI5097
aI5461
aI5830
aI5961
aI6247
aI6598
aI6974
aI7468
aI7872
asS'NLGN4Y-AS1'
p398
(lp399
I14793641
aI14804033
aS'-'
aI1038
aI1412
aI1758
aI2064
aI2391
aI2690
aI3031
aI3378
aI3716
asS'BPY2B'
p400
(lp401
I24618003
aI24639207
aS'+'
aI1410
aI1703
aI2033
aI2356
aI2696
aI3019
aI3361
aI3705
aI4056
asS'BPY2C'
p402
(lp403
I25030900
aI25052104
aS'-'
aI1411
aI1704
aI2034
aI2357
aI2698
aI3020
aI3362
aI3706
aI4055
asS'LOC101928055'
p404
(lp405
I1341708
aI1378476
aS'-'
aI0
aI0
aI0
aI0
aI0
aI0
aI0
aI0
aI0
asS'TTTY1B'
p406
(lp407
I6390400
aI6411564
aS'+'
aI762
aI1048
aI1240
aI1451
aI1628
aI1826
aI2108
aI2443
aI2701
asS'LOC107987336'
p408
(lp409
I20538084
aI20552600
aS'-'
aI908
aI1249
aI1569
aI1959
aI2315
aI2664
aI3084
aI3507
aI3923
as.