(dp1
S'DUOXA1'
p2
(lp3
I45117365
aI45129877
aS'-'
asS'MIR6085'
p4
(lp5
I62343028
aI62343138
aS'+'
asS'UBL7'
p6
(lp7
I74445976
aI74461188
aS'-'
asS'UBE2Q2'
p8
(lp9
I75843285
aI75901047
aS'+'
asS'MFGE8'
p10
(lp11
I88898682
aI88913469
aS'-'
asS'BUB1B'
p12
(lp13
I40161008
aI40221136
aS'+'
asS'ANKRD34C-AS1'
p14
(lp15
I79191706
aI79283945
aS'-'
asS'NIPA2'
p16
(lp17
I22838640
aI22868384
aS'+'
asS'GCOM1'
p18
(lp19
I57591903
aI57717557
aS'+'
asS'PCSK6'
p20
(lp21
I101303927
aI101489984
aS'-'
asS'TMEM202-AS1'
p22
(lp23
I72407778
aI72474239
aS'-'
asS'B2M'
p24
(lp25
I44711516
aI44718877
aS'+'
asS'DUOXA2'
p26
(lp27
I45114324
aI45118103
aS'+'
asS'MFAP1'
p28
(lp29
I43804534
aI43824753
aS'-'
asS'ANP32A'
p30
(lp31
I68778535
aI68820922
aS'-'
asS'MIR1302-9'
p32
(lp33
I101960458
aI101960596
aS'-'
asS'SEMA4B'
p34
(lp35
I90184919
aI90229660
aS'+'
asS'HDDC3'
p36
(lp37
I90930917
aI90932569
aS'-'
asS'SPATA41'
p38
(lp39
I100344456
aI100350718
aS'-'
asS'OTUD7A'
p40
(lp41
I31475397
aI31870672
aS'-'
asS'BLOC1S6'
p42
(lp43
I45587122
aI45609716
aS'+'
asS'ZFYVE19'
p44
(lp45
I40807075
aI40814569
aS'+'
asS'LINC02568'
p46
(lp47
I63390229
aI63437536
aS'+'
asS'SLC28A2'
p48
(lp49
I45252233
aI45277846
aS'+'
asS'SLC28A1'
p50
(lp51
I84884660
aI84975645
aS'+'
asS'LINS1'
p52
(lp53
I100569222
aI100602240
aS'-'
asS'COMMD4'
p54
(lp55
I75335995
aI75341927
aS'+'
asS'LINC02205'
p56
(lp57
I70503906
aI70505928
aS'-'
asS'LINC02204'
p58
(lp59
I70570957
aI70586606
aS'-'
asS'LINC02207'
p60
(lp61
I93856559
aI93878356
aS'+'
asS'LINC02206'
p62
(lp63
I66931536
aI66956515
aS'-'
asS'LINC01491'
p64
(lp65
I47803383
aI47846236
aS'-'
asS'LINC02203'
p66
(lp67
I21552772
aI21640521
aS'+'
asS'RNF111'
p68
(lp69
I58987587
aI59097419
aS'+'
asS'SNORD109A'
p70
(lp71
I25041973
aI25042040
aS'+'
asS'SV2B'
p72
(lp73
I91099587
aI91302565
aS'+'
asS'LOC101929479'
p74
(lp75
I85205006
aI85234781
aS'-'
asS'NIPA1'
p76
(lp77
I22786224
aI22829789
aS'+'
asS'LOC145783'
p78
(lp79
I56886169
aI56918499
aS'-'
asS'PWRN4'
p80
(lp81
I23975146
aI24088154
aS'+'
asS'IGF1R'
p82
(lp83
I98648538
aI98964530
aS'+'
asS'LOC101927751'
p84
(lp85
I100892342
aI100919283
aS'-'
asS'MAN2C1'
p86
(lp87
I75355791
aI75368627
aS'-'
asS'PWRN1'
p88
(lp89
I24558156
aI24587779
aS'+'
asS'PWRN2'
p90
(lp91
I24164776
aI24169948
aS'-'
asS'PWRN3'
p92
(lp93
I24441126
aI24447967
aS'+'
asS'GOLGA6L22'
p94
(lp95
I23127065
aI23334210
aS'-'
asS'MIR6881'
p96
(lp97
I74411356
aI74411432
aS'-'
asS'CYP1A2'
p98
(lp99
I74748844
aI74756607
aS'+'
asS'MIR6882'
p100
(lp101
I74840641
aI74840707
aS'-'
asS'GOLGA6A'
p102
(lp103
I74069856
aI74082550
aS'-'
asS'ADPGK-AS1'
p104
(lp105
I72782834
aI72798199
aS'+'
asS'RNU5B-1'
p106
(lp107
I65304676
aI65304793
aS'+'
asS'OCA2'
p108
(lp109
I27754875
aI28099315
aS'-'
asS'IREB2'
p110
(lp111
I78437430
aI78501456
aS'+'
asS'IQCH'
p112
(lp113
I67254799
aI67501804
aS'+'
asS'MIR4509-2'
p114
(lp115
I23197826
aI23197920
aS'+'
asS'MIR4509-3'
p116
(lp117
I23197826
aI23197920
aS'+'
asS'MIR4509-1'
p118
(lp119
I23197826
aI23197920
aS'+'
asS'TLNRD1'
p120
(lp121
I81000953
aI81004004
aS'+'
asS'MIR1268A'
p122
(lp123
I28325482
aI28500841
aS'-'
asS'MAPK6-DT'
p124
(lp125
I52010998
aI52019095
aS'-'
asS'MIR4508'
p126
(lp127
I23562061
aI23562131
aS'-'
asS'SNAP23'
p128
(lp129
I42495305
aI42533061
aS'+'
asS'PARP16'
p130
(lp131
I65258093
aI65286843
aS'-'
asS'SNORD13D'
p132
(lp133
I57278566
aI57278657
aS'-'
asS'SNORD13E'
p134
(lp135
I65696832
aI65696936
aS'-'
asS'STARD9'
p136
(lp137
I42575658
aI42720998
aS'+'
asS'TCF12'
p138
(lp139
I56918634
aI57291261
aS'+'
asS'SPPL2A'
p140
(lp141
I50707539
aI50765713
aS'-'
asS'ZNF774'
p142
(lp143
I90352244
aI90361483
aS'+'
asS'ZNF770'
p144
(lp145
I34978340
aI34988296
aS'-'
asS'STARD5'
p146
(lp147
I81312665
aI81324183
aS'-'
asS'MIR6859-1'
p148
(lp149
I101973523
aI101973591
aS'+'
asS'RASGRP1'
p150
(lp151
I38488102
aI38564814
aS'-'
asS'CFAP161'
p152
(lp153
I81134246
aI81149175
aS'+'
asS'RPS27L'
p154
(lp155
I63153339
aI63157542
aS'-'
asS'GABRG3'
p156
(lp157
I26971281
aI27533227
aS'+'
asS'CELF6'
p158
(lp159
I72284726
aI72320184
aS'-'
asS'PPIP5K1P1-CATSPER2'
p160
(lp161
I43630561
aI43690031
aS'-'
asS'DCAF13P3'
p162
(lp163
I50944128
aI50946565
aS'+'
asS'MIR1469'
p164
(lp165
I96333260
aI96333307
aS'+'
asS'SNORD64'
p166
(lp167
I24985099
aI24985166
aS'+'
asS'DENND4A'
p168
(lp169
I65659122
aI65792293
aS'-'
asS'WDR93'
p170
(lp171
I89690796
aI89743638
aS'+'
asS'RNU5A-1'
p172
(lp173
I65296050
aI65296167
aS'+'
asS'SERF2-C15ORF63'
p174
(lp175
I43791975
aI43802571
aS'+'
asS'GOLGA6L17P'
p176
(lp177
I82519589
aI82526484
aS'+'
asS'CYP11A1'
p178
(lp179
I74337761
aI74367740
aS'-'
asS'LOC100129540'
p180
(lp181
I78978888
aI78985926
aS'+'
asS'CSK'
p182
(lp183
I74782083
aI74803198
aS'+'
asS'LCTL'
p184
(lp185
I66547467
aI66565979
aS'-'
asS'RAMAC'
p186
(lp187
I82986202
aI82991057
aS'+'
asS'UACA'
p188
(lp189
I70654553
aI70763593
aS'-'
asS'TMEM266'
p190
(lp191
I76059984
aI76204963
aS'+'
asS'TBC1D21'
p192
(lp193
I73873585
aI73889214
aS'+'
asS'LOC101928174'
p194
(lp195
I34755083
aI34812923
aS'+'
asS'GABRG3-AS1'
p196
(lp197
I27157734
aI27161319
aS'-'
asS'CD276'
p198
(lp199
I73684280
aI73714518
aS'+'
asS'SNX33'
p200
(lp201
I75649006
aI75658627
aS'+'
asS'FAM169B'
p202
(lp203
I98437161
aI98514382
aS'-'
asS'CDAN1'
p204
(lp205
I42723543
aI42737128
aS'-'
asS'TBC1D2B'
p206
(lp207
I77994984
aI78077652
aS'-'
asS'ALPK3'
p208
(lp209
I84816679
aI84873482
aS'+'
asS'TICRR'
p210
(lp211
I89575586
aI89628022
aS'+'
asS'SENP8'
p212
(lp213
I72114257
aI72140970
aS'+'
asS'KIF7'
p214
(lp215
I89627969
aI89655451
aS'-'
asS'THSD4'
p216
(lp217
I71141448
aI71783383
aS'+'
asS'MIR5094'
p218
(lp219
I89850636
aI89850721
aS'-'
asS'C2CD4A'
p220
(lp221
I62066976
aI62070917
aS'+'
asS'SNORD115-21'
p222
(lp223
I25206261
aI25232468
aS'+'
asS'LOC283683'
p224
(lp225
I22757856
aI22778737
aS'+'
asS'SNORD115-23'
p226
(lp227
I25211795
aI25211877
aS'+'
asS'SNORD115-22'
p228
(lp229
I25209917
aI25209999
aS'+'
asS'SNORD115-25'
p230
(lp231
I25215540
aI25215622
aS'+'
asS'SNORD115-24'
p232
(lp233
I25213658
aI25213729
aS'+'
asS'SNORD115-27'
p234
(lp235
I25220502
aI25220578
aS'+'
asS'SNORD115-26'
p236
(lp237
I25218616
aI25218698
aS'+'
asS'SNORD115-29'
p238
(lp239
I25189413
aI25189495
aS'+'
asS'SNORD115-28'
p240
(lp241
I25222353
aI25222427
aS'+'
asS'CERS3-AS1'
p242
(lp243
I100372938
aI100437914
aS'+'
asS'FSIP1'
p244
(lp245
I39600030
aI39782838
aS'-'
asS'ALDH1A3'
p246
(lp247
I100879691
aI100916625
aS'+'
asS'LINC02251'
p248
(lp249
I98003037
aI98022338
aS'+'
asS'SPG21'
p250
(lp251
I64963020
aI64989946
aS'-'
asS'BCL2A1'
p252
(lp253
I79960889
aI79971301
aS'-'
asS'LINC02256'
p254
(lp255
I32536758
aI32580609
aS'+'
asS'IQCH-AS1'
p256
(lp257
I67403610
aI67521844
aS'-'
asS'LOC102724135'
p258
(lp259
I84199311
aI84230136
aS'-'
asS'MIR184'
p260
(lp261
I79209787
aI79209871
aS'+'
asS'OR4F15'
p262
(lp263
I101818186
aI101819125
aS'+'
asS'PIGB'
p264
(lp265
I55318934
aI55355648
aS'+'
asS'GOLGA6D'
p266
(lp267
I75282840
aI75295807
aS'+'
asS'ANPEP'
p268
(lp269
I89784894
aI89814840
aS'-'
asS'MYZAP'
p270
(lp271
I57591903
aI57685364
aS'+'
asS'MINDY2'
p272
(lp273
I58771301
aI58861899
aS'+'
asS'PIGBOS1'
p274
(lp275
I55317183
aI55319194
aS'-'
asS'LINC02255'
p276
(lp277
I74379081
aI74394756
aS'+'
asS'EMC7'
p278
(lp279
I34084022
aI34101852
aS'-'
asS'EMC4'
p280
(lp281
I34224996
aI34230165
aS'+'
asS'KLHL25'
p282
(lp283
I85759325
aI85794958
aS'-'
asS'EHD4-AS1'
p284
(lp285
I41921416
aI41929286
aS'+'
asS'ABHD17C'
p286
(lp287
I80695309
aI80755621
aS'+'
asS'MIR3529'
p288
(lp289
I88611846
aI88611924
aS'-'
asS'MIR4713HG'
p290
(lp291
I51037487
aI51293912
aS'+'
asS'LOC105369212'
p292
(lp293
I96082053
aI96127841
aS'-'
asS'TLE3'
p294
(lp295
I70047790
aI70097917
aS'-'
asS'SMAD6'
p296
(lp297
I66702335
aI66781999
aS'+'
asS'SMAD3'
p298
(lp299
I67065856
aI67195195
aS'+'
asS'ANP32AP1'
p300
(lp301
I35237325
aI35238063
aS'+'
asS'POLR2M'
p302
(lp303
I57706520
aI57717557
aS'+'
asS'MKRN3'
p304
(lp305
I23565306
aI23568019
aS'+'
asS'NDUFAF1'
p306
(lp307
I41387348
aI41402460
aS'-'
asS'AKAP13'
p308
(lp309
I85380615
aI85749358
aS'+'
asS'SNORD108'
p310
(lp311
I24986924
aI24986993
aS'+'
asS'MIR4716'
p312
(lp313
I49169069
aI49169153
aS'-'
asS'MIR4715'
p314
(lp315
I25848746
aI25848825
aS'-'
asS'MIR4714'
p316
(lp317
I98784425
aI98784502
aS'+'
asS'MIR4713'
p318
(lp319
I51242189
aI51242264
aS'+'
asS'MIR4712'
p320
(lp321
I50360328
aI50360410
aS'+'
asS'LOC440311'
p322
(lp323
I94855362
aI94857064
aS'+'
asS'RGMA'
p324
(lp325
I93043405
aI93089214
aS'-'
asS'LOC101929439'
p326
(lp327
I76174890
aI76181486
aS'-'
asS'LINC00927'
p328
(lp329
I80263067
aI80341805
aS'-'
asS'CCNDBP1'
p330
(lp331
I43185267
aI43197177
aS'+'
asS'LOC102723335'
p332
(lp333
I100558665
aI100559799
aS'+'
asS'LOC645202'
p334
(lp335
I28349050
aI28358080
aS'-'
asS'SERF2'
p336
(lp337
I43777095
aI43796089
aS'+'
asS'NEDD4'
p338
(lp339
I55826918
aI55993746
aS'-'
asS'NR2F2'
p340
(lp341
I96325927
aI96340263
aS'+'
asS'MIR9-3HG'
p342
(lp343
I89361578
aI89398487
aS'+'
asS'TMED3'
p344
(lp345
I79311061
aI79413886
aS'+'
asS'ELL3'
p346
(lp347
I43772599
aI43777304
aS'-'
asS'CXADRP2'
p348
(lp349
I21371510
aI21373968
aS'-'
asS'HERC2P3'
p350
(lp351
I20408395
aI20506180
aS'-'
asS'HERC2P2'
p352
(lp353
I22494836
aI22590831
aS'+'
asS'HERC2P7'
p354
(lp355
I22479152
aI22482374
aS'-'
asS'HERC2P9'
p356
(lp357
I28654441
aI28685264
aS'+'
asS'CHP1'
p358
(lp359
I41231267
aI41281885
aS'+'
asS'SNORD18C'
p360
(lp361
I66501251
aI66501318
aS'-'
asS'SNORD18B'
p362
(lp363
I66502021
aI66502091
aS'-'
asS'HACD3'
p364
(lp365
I65530462
aI65578347
aS'+'
asS'FSD2'
p366
(lp367
I82755364
aI82806070
aS'-'
asS'TRIP4'
p368
(lp369
I64387803
aI64455303
aS'+'
asS'LOC100422556'
p370
(lp371
I51918962
aI51924120
aS'-'
asS'LTK'
p372
(lp373
I41503641
aI41513887
aS'-'
asS'INSYN1-AS1'
p374
(lp375
I73768085
aI73769802
aS'+'
asS'IDH2-DT'
p376
(lp377
I90102131
aI90133572
aS'+'
asS'SLC27A2'
p378
(lp379
I50182195
aI50236392
aS'+'
asS'MTFMT'
p380
(lp381
I65001511
aI65029639
aS'-'
asS'SNORD109B'
p382
(lp383
I25041973
aI25042040
aS'+'
asS'GOLGA8EP'
p384
(lp385
I22424672
aI22438026
aS'-'
asS'LOC102725021'
p386
(lp387
I30591195
aI30625778
aS'-'
asS'APBA2'
p388
(lp389
I28885973
aI29118313
aS'+'
asS'MIR1233-2'
p390
(lp391
I34382068
aI34382150
aS'-'
asS'MAP2K1'
p392
(lp393
I66386872
aI66491544
aS'+'
asS'C15orf38-AP3S2'
p394
(lp395
I89830598
aI89912990
aS'-'
asS'LEO1'
p396
(lp397
I51938024
aI51971801
aS'-'
asS'LINC02259'
p398
(lp399
I72608480
aI72636955
aS'-'
asS'LINC02252'
p400
(lp401
I34651134
aI34655764
aS'-'
asS'LINC01197'
p402
(lp403
I95279289
aI95327100
aS'-'
asS'TUBGCP4'
p404
(lp405
I43371058
aI43407096
aS'+'
asS'TUBGCP5'
p406
(lp407
I22983025
aI23039673
aS'-'
asS'LINC02254'
p408
(lp409
I97370370
aI97521811
aS'-'
asS'LINC01193'
p410
(lp411
I20940437
aI20993304
aS'+'
asS'CTSH'
p412
(lp413
I78921749
aI78945098
aS'-'
asS'DNAAF4-CCPG1'
p414
(lp415
I55355222
aI55498584
aS'-'
asS'LOC727751'
p416
(lp417
I82471481
aI82513995
aS'-'
asS'SNORD116-22'
p418
(lp419
I25089921
aI25090015
aS'+'
asS'RLBP1'
p420
(lp421
I89209866
aI89221691
aS'-'
asS'LINC01579'
p422
(lp423
I93896059
aI93900599
aS'-'
asS'CPEB1'
p424
(lp425
I82543200
aI82648795
aS'-'
asS'MGC15885'
p426
(lp427
I62637171
aI62645181
aS'-'
asS'REC114'
p428
(lp429
I73443157
aI73560012
aS'+'
asS'C15orf56'
p430
(lp431
I40250664
aI40252909
aS'-'
asS'PRC1'
p432
(lp433
I90966037
aI90994651
aS'-'
asS'C15orf54'
p434
(lp435
I39250668
aI39254842
aS'+'
asS'C15orf53'
p436
(lp437
I38696597
aI38700038
aS'+'
asS'MIR3713'
p438
(lp439
I76586646
aI76586691
aS'+'
asS'GCHFR'
p440
(lp441
I40764086
aI40767713
aS'+'
asS'ASB9P1'
p442
(lp443
I92795483
aI92797108
aS'+'
asS'MRPL42P5'
p444
(lp445
I40531883
aI40532550
aS'-'
asS'LARP6'
p446
(lp447
I70831523
aI70854265
aS'-'
asS'MINAR1'
p448
(lp449
I79432515
aI79472300
aS'+'
asS'MIR6859-2'
p450
(lp451
I101973523
aI101973591
aS'+'
asS'SNORD115-40'
p452
(lp453
I25243613
aI25243695
aS'+'
asS'LOC102724452'
p454
(lp455
I86938796
aI86988426
aS'-'
asS'CRAT37'
p456
(lp457
I91463338
aI91494850
aS'+'
asS'SLC51B'
p458
(lp459
I65045369
aI65053396
aS'+'
asS'MIR548AP'
p460
(lp461
I85825634
aI85825730
aS'+'
asS'LOC101928134'
p462
(lp463
I33303656
aI33310659
aS'-'
asS'LOC101929076'
p464
(lp465
I67834307
aI67838879
aS'-'
asS'NEO1'
p466
(lp467
I73052462
aI73305204
aS'+'
asS'HOMER2'
p468
(lp469
I82848976
aI82952724
aS'-'
asS'POTEB'
p470
(lp471
I21846328
aI21877279
aS'-'
asS'LINC01852'
p472
(lp473
I38068811
aI38072990
aS'-'
asS'LOC105370941'
p474
(lp475
I39782905
aI39785616
aS'+'
asS'LOC105370943'
p476
(lp477
I40906808
aI40909351
aS'+'
asS'ARIH1'
p478
(lp479
I72474325
aI72586555
aS'+'
asS'THSD4-AS1'
p480
(lp481
I71166811
aI71189059
aS'-'
asS'SLC24A5'
p482
(lp483
I48120971
aI48142392
aS'+'
asS'UBL7-AS1'
p484
(lp485
I74461264
aI74481292
aS'+'
asS'CA12'
p486
(lp487
I63321377
aI63382166
aS'-'
asS'FBN1'
p488
(lp489
I48408305
aI48645788
aS'-'
asS'GANC'
p490
(lp491
I42274167
aI42353666
aS'+'
asS'SPATA5L1'
p492
(lp493
I45402320
aI45421418
aS'+'
asS'LOC101929586'
p494
(lp495
I80554610
aI80562944
aS'-'
asS'TTBK2'
p496
(lp497
I42738729
aI42920778
aS'-'
asS'PLA2G4B'
p498
(lp499
I41838812
aI41848148
aS'+'
asS'STRCP1'
p500
(lp501
I43699417
aI43718260
aS'-'
asS'MEX3B'
p502
(lp503
I82041777
aI82046143
aS'-'
asS'PLA2G4F'
p504
(lp505
I42141133
aI42156641
aS'-'
asS'PLA2G4E'
p506
(lp507
I41981581
aI42050703
aS'-'
asS'PLA2G4D'
p508
(lp509
I42067682
aI42094554
aS'-'
asS'DMXL2'
p510
(lp511
I51447723
aI51622770
aS'-'
asS'MIR1302-2'
p512
(lp513
I101960458
aI101960596
aS'-'
asS'RNU6-7'
p514
(lp515
I67839939
aI67840045
aS'-'
asS'BNC1'
p516
(lp517
I83255902
aI83284716
aS'-'
asS'LOC105370980'
p518
(lp519
I93206065
aI93208048
aS'+'
asS'LOC91450'
p520
(lp521
I77993232
aI77994225
aS'-'
asS'HEXA'
p522
(lp523
I72343434
aI72376473
aS'-'
asS'ST20-AS1'
p524
(lp525
I79922770
aI79924854
aS'+'
asS'MAPKBP1'
p526
(lp527
I41774433
aI41827855
aS'+'
asS'CILP'
p528
(lp529
I65195998
aI65211502
aS'-'
asS'SELENOS'
p530
(lp531
I101270908
aI101277520
aS'-'
asS'WHAMMP3'
p532
(lp533
I22664738
aI22685367
aS'+'
asS'WHAMMP2'
p534
(lp535
I28737582
aI28758362
aS'+'
asS'WHAMMP1'
p536
(lp537
I32519847
aI32533741
aS'-'
asS'LMAN1L'
p538
(lp539
I74812852
aI74825758
aS'+'
asS'WDR73'
p540
(lp541
I84641494
aI84654343
aS'-'
asS'WDR72'
p542
(lp543
I53513740
aI53762878
aS'-'
asS'IGDCC4'
p544
(lp545
I65381486
aI65423072
aS'-'
asS'WDR76'
p546
(lp547
I43826913
aI43868419
aS'+'
asS'LOC440292'
p548
(lp549
I77938220
aI77944561
aS'-'
asS'REREP3'
p550
(lp551
I22258613
aI22282880
aS'+'
asS'LOC102724760'
p552
(lp553
I21717665
aI21718307
aS'-'
asS'PRC1-AS1'
p554
(lp555
I90966368
aI90988624
aS'+'
asS'TGM5'
p556
(lp557
I43232594
aI43266857
aS'-'
asS'TGM7'
p558
(lp559
I43276280
aI43302255
aS'-'
asS'EDC3'
p560
(lp561
I74630557
aI74696053
aS'-'
asS'GABPB1-AS1'
p562
(lp563
I50354173
aI50358306
aS'+'
asS'SPRED1'
p564
(lp565
I38252850
aI38357249
aS'+'
asS'LOC101929457'
p566
(lp567
I77525594
aI77534110
aS'+'
asS'TMEM62'
p568
(lp569
I43133114
aI43185143
aS'+'
asS'LRRC49'
p570
(lp571
I70853238
aI71050097
aS'+'
asS'PPIAP46'
p572
(lp573
I74361551
aI74362041
aS'+'
asS'LINC01413'
p574
(lp575
I57319137
aI57325039
aS'+'
asS'CHRFAM7A'
p576
(lp577
I30361239
aI30393661
aS'-'
asS'DNAJC17'
p578
(lp579
I40765160
aI40807473
aS'-'
asS'ADAMTS7'
p580
(lp581
I78759202
aI78811463
aS'-'
asS'ASB7'
p582
(lp583
I100602549
aI100651699
aS'+'
asS'IGDCC3'
p584
(lp585
I65327126
aI65378002
aS'-'
asS'FAH'
p586
(lp587
I80152890
aI80186582
aS'+'
asS'GABPB1-IT1'
p588
(lp589
I50348935
aI50354879
aS'-'
asS'LOC101928042'
p590
(lp591
I32586104
aI32614746
aS'-'
asS'WASH3P'
p592
(lp593
I101960812
aI101976605
aS'+'
asS'SLC12A6'
p594
(lp595
I34229995
aI34338064
aS'-'
asS'SLC12A1'
p596
(lp597
I48206300
aI48304078
aS'+'
asS'VPS33B-DT'
p598
(lp599
I91022621
aI91031139
aS'+'
asS'MIR147B'
p600
(lp601
I45433049
aI45433129
aS'+'
asS'HMG20A'
p602
(lp603
I77420650
aI77485603
aS'+'
asS'LOC101928988'
p604
(lp605
I63928273
aI63935953
aS'+'
asS'AAGAB'
p606
(lp607
I67200674
aI67255198
aS'-'
asS'LIPC'
p608
(lp609
I58431975
aI58568874
aS'+'
asS'ADPGK'
p610
(lp611
I72751293
aI72783758
aS'-'
asS'NR2F2-AS1'
p612
(lp613
I96127359
aI96327118
aS'-'
asS'PEX11A'
p614
(lp615
I89681530
aI89690784
aS'-'
asS'CGNL1'
p616
(lp617
I57376504
aI57550727
aS'+'
asS'MIR1302-10'
p618
(lp619
I101960458
aI101960596
aS'-'
asS'LOC102723493'
p620
(lp621
I66984206
aI67064182
aS'-'
asS'TEX9'
p622
(lp623
I56365423
aI56445997
aS'+'
asS'GOLGA2P7'
p624
(lp625
I84198847
aI84230168
aS'-'
asS'TMCO5B'
p626
(lp627
I33236475
aI33247555
aS'-'
asS'PDE8A'
p628
(lp629
I84980512
aI85139145
aS'+'
asS'MIR6859-4'
p630
(lp631
I101973523
aI101973591
aS'+'
asS'TMCO5A'
p632
(lp633
I37934606
aI37967724
aS'+'
asS'NBEAP1'
p634
(lp635
I20669467
aI20756151
aS'-'
asS'PLA2G4E-AS1'
p636
(lp637
I41972762
aI41999094
aS'+'
asS'DNAJA4'
p638
(lp639
I78264144
aI78282196
aS'+'
asS'LINC02490'
p640
(lp641
I53116364
aI53129698
aS'+'
asS'HIGD2B'
p642
(lp643
I72675781
aI72686149
aS'-'
asS'RFX7'
p644
(lp645
I56090532
aI56243285
aS'-'
asS'EFL1'
p646
(lp647
I82130219
aI82262763
aS'-'
asS'SLTM'
p648
(lp649
I58879044
aI58933676
aS'-'
asS'MIR1302-11'
p650
(lp651
I101960458
aI101960596
aS'-'
asS'IPW'
p652
(lp653
I25116544
aI25122476
aS'+'
asS'EID1'
p654
(lp655
I48878092
aI48880183
aS'+'
asS'PAK6'
p656
(lp657
I40239090
aI40277487
aS'+'
asS'LINC02352'
p658
(lp659
I31216020
aI31225007
aS'+'
asS'LINC02351'
p660
(lp661
I98323432
aI98420998
aS'-'
asS'MIR1272'
p662
(lp663
I64762386
aI64762515
aS'-'
asS'SNX1'
p664
(lp665
I64095883
aI64144234
aS'+'
asS'TNFAIP8L3'
p666
(lp667
I51056600
aI51105276
aS'-'
asS'MIR549A'
p668
(lp669
I80841977
aI80842073
aS'-'
asS'COPS2'
p670
(lp671
I49125273
aI49155657
aS'-'
asS'SERINC4'
p672
(lp673
I43794173
aI43800097
aS'-'
asS'EXD1'
p674
(lp675
I41182730
aI41230757
aS'-'
asS'HCN4'
p676
(lp677
I73319858
aI73369264
aS'-'
asS'ZNF592'
p678
(lp679
I84748591
aI84806445
aS'+'
asS'ANXA2'
p680
(lp681
I60347150
aI60397986
aS'-'
asS'HDC'
p682
(lp683
I50241948
aI50265965
aS'-'
asS'MIR1179'
p684
(lp685
I88608106
aI88608197
aS'+'
asS'MESP1'
p686
(lp687
I89749866
aI89751309
aS'-'
asS'LOC100507472'
p688
(lp689
I101307250
aI101309304
aS'-'
asS'MESP2'
p690
(lp691
I89776331
aI89778751
aS'+'
asS'FAM189A1'
p692
(lp693
I29120251
aI29570723
aS'-'
asS'SNORD115-3'
p694
(lp695
I25174926
aI25175008
aS'+'
asS'ADAMTSL3'
p696
(lp697
I83654085
aI84039841
aS'+'
asS'BMF'
p698
(lp699
I40087890
aI40108884
aS'-'
asS'NANOGP8'
p700
(lp701
I35083409
aI35085408
aS'-'
asS'ZNF609'
p702
(lp703
I64499419
aI64686067
aS'+'
asS'ITPKA'
p704
(lp705
I41493873
aI41503551
aS'+'
asS'GATM'
p706
(lp707
I45361123
aI45402317
aS'-'
asS'ADAL'
p708
(lp709
I43330355
aI43354555
aS'+'
asS'SNORD115-38'
p710
(lp711
I25239837
aI25239919
aS'+'
asS'LOC645752'
p712
(lp713
I77914216
aI77926846
aS'-'
asS'PPP1R14D'
p714
(lp715
I40815444
aI40828709
aS'-'
asS'SNORD115-39'
p716
(lp717
I25241745
aI25241827
aS'+'
asS'SNORD115-36'
p718
(lp719
I25189413
aI25189495
aS'+'
asS'PKM'
p720
(lp721
I72199028
aI72231624
aS'-'
asS'THSD4-AS2'
p722
(lp723
I71688700
aI71691539
aS'-'
asS'ULK4P2'
p724
(lp725
I32406610
aI32435049
aS'-'
asS'SNORD115-1'
p726
(lp727
I25170722
aI25170804
aS'+'
asS'LUNAR1'
p728
(lp729
I99014703
aI99031046
aS'+'
asS'LOC338963'
p730
(lp731
I82710470
aI82713993
aS'-'
asS'LACTB'
p732
(lp733
I63121799
aI63142065
aS'+'
asS'DRAIC'
p734
(lp735
I69561719
aI69571440
aS'+'
asS'SCAMP5'
p736
(lp737
I74995534
aI75021495
aS'+'
asS'SHF'
p738
(lp739
I45167213
aI45201175
aS'-'
asS'HYKK'
p740
(lp741
I78507563
aI78537373
aS'+'
asS'PLIN1'
p742
(lp743
I89664369
aI89679417
aS'-'
asS'UBE2Q2P1'
p744
(lp745
I84527195
aI84570795
aS'-'
asS'SLC24A1'
p746
(lp747
I65611404
aI65660918
aS'+'
asS'MGA'
p748
(lp749
I41660411
aI41769943
aS'+'
asS'PWARSN'
p750
(lp751
I24981993
aI24983790
aS'+'
asS'HDGFL3'
p752
(lp753
I83138051
aI83208018
aS'-'
asS'BUB1B-PAK6'
p754
(lp755
I40217427
aI40277487
aS'+'
asS'BLM'
p756
(lp757
I90717326
aI90815462
aS'+'
asS'CALML4'
p758
(lp759
I68190704
aI68206110
aS'-'
asS'PDCD6IPP2'
p760
(lp761
I28789833
aI28856574
aS'+'
asS'MEF2A'
p762
(lp763
I99565600
aI99716488
aS'+'
asS'NEIL1'
p764
(lp765
I75346989
aI75355251
aS'+'
asS'RSL24D1'
p766
(lp767
I55181313
aI55197033
aS'-'
asS'SNX22'
p768
(lp769
I64151716
aI64157481
aS'+'
asS'CLK3'
p770
(lp771
I74608371
aI74630201
aS'+'
asS'RNU6-9'
p772
(lp773
I67839938
aI67840045
aS'-'
asS'ISLR2'
p774
(lp775
I74129373
aI74136802
aS'+'
asS'FBXL22'
p776
(lp777
I63597352
aI63602421
aS'+'
asS'UBE2Q2L'
p778
(lp779
I84172489
aI84182233
aS'+'
asS'TMC3'
p780
(lp781
I81331105
aI81374156
aS'-'
asS'ONECUT1'
p782
(lp783
I52755054
aI52790012
aS'-'
asS'LIPC-AS1'
p784
(lp785
I58434900
aI58498735
aS'-'
asS'FAM81A'
p786
(lp787
I59438172
aI59523552
aS'+'
asS'SNORD115-37'
p788
(lp789
I25237985
aI25238067
aS'+'
asS'SNORD115-34'
p790
(lp791
I25232386
aI25232468
aS'+'
asS'SNORD115-35'
p792
(lp793
I25234246
aI25234328
aS'+'
asS'SNORD115-32'
p794
(lp795
I25228966
aI25229048
aS'+'
asS'SNORD115-33'
p796
(lp797
I25230837
aI25230919
aS'+'
asS'SNORD115-30'
p798
(lp799
I25225202
aI25225284
aS'+'
asS'SNORD115-31'
p800
(lp801
I25227108
aI25227190
aS'+'
asS'GABRA5'
p802
(lp803
I26867061
aI26949208
aS'+'
asS'PWAR6'
p804
(lp805
I25031872
aI25036488
aS'+'
asS'PWAR5'
p806
(lp807
I24984859
aI24988232
aS'+'
asS'PWAR4'
p808
(lp809
I25211691
aI25212033
aS'+'
asS'POTEB2'
p810
(lp811
I21846328
aI21877279
aS'-'
asS'POTEB3'
p812
(lp813
I21408963
aI21440382
aS'-'
asS'PWAR1'
p814
(lp815
I25135641
aI25138053
aS'+'
asS'MCTP2'
p816
(lp817
I94298200
aI94483952
aS'+'
asS'PRKXP1'
p818
(lp819
I100547751
aI100559283
aS'-'
asS'MIR190A'
p820
(lp821
I62823956
aI62824041
aS'+'
asS'INTS14'
p822
(lp823
I65578757
aI65611289
aS'-'
asS'LOC101928725'
p824
(lp825
I58768071
aI58770974
aS'-'
asS'SNRPA1'
p826
(lp827
I101281509
aI101295282
aS'-'
asS'TPM1'
p828
(lp829
I63042638
aI63071914
aS'+'
asS'CIB2'
p830
(lp831
I78104605
aI78131535
aS'-'
asS'FBXO22'
p832
(lp833
I75903858
aI75935267
aS'+'
asS'CCPG1'
p834
(lp835
I55355222
aI55408510
aS'-'
asS'MIR629'
p836
(lp837
I70079371
aI70079468
aS'-'
asS'HYPK'
p838
(lp839
I43800420
aI43802571
aS'+'
asS'FOXB1'
p840
(lp841
I60004221
aI60005943
aS'+'
asS'MESD'
p842
(lp843
I80947325
aI80989878
aS'-'
asS'PATL2'
p844
(lp845
I44665731
aI44676888
aS'-'
asS'FANCI'
p846
(lp847
I89243962
aI89317131
aS'+'
asS'TTC23'
p848
(lp849
I99136322
aI99251235
aS'-'
asS'ETFA'
p850
(lp851
I76216287
aI76311469
aS'-'
asS'LYSMD2'
p852
(lp853
I51723063
aI51751453
aS'-'
asS'SYNM'
p854
(lp855
I99105079
aI99135595
aS'+'
asS'LOC100288637'
p856
(lp857
I31626069
aI32423209
aS'-'
asS'MTMR10'
p858
(lp859
I30938940
aI30991604
aS'-'
asS'GNB5'
p860
(lp861
I52120925
aI52191368
aS'-'
asS'ODF3L1'
p862
(lp863
I75723977
aI75727688
aS'+'
asS'LOC440300'
p864
(lp865
I84191847
aI84209273
aS'+'
asS'TRIM69'
p866
(lp867
I44736361
aI44767829
aS'+'
asS'DLL4'
p868
(lp869
I40929339
aI40939073
aS'+'
asS'LOC105370802'
p870
(lp871
I45705194
aI45931069
aS'+'
asS'SNORD116-30'
p872
(lp873
I25108267
aI25108352
aS'+'
asS'C15orf32'
p874
(lp875
I92471676
aI92501117
aS'+'
asS'LOC101927310'
p876
(lp877
I97553283
aI97560698
aS'-'
asS'DUT'
p878
(lp879
I48331094
aI48343368
aS'+'
asS'SNORD115-43'
p880
(lp881
I25189413
aI25189495
aS'+'
asS'SNORD115-42'
p882
(lp883
I25247344
aI25247426
aS'+'
asS'SNORD115-41'
p884
(lp885
I25245477
aI25245559
aS'+'
asS'NPAP1'
p886
(lp887
I24675393
aI24683446
aS'+'
asS'SNORD115-47'
p888
(lp889
I25268516
aI25268549
aS'+'
asS'SNORD115-46'
p890
(lp891
I25266590
aI25266661
aS'+'
asS'SNORD115-45'
p892
(lp893
I25264526
aI25264579
aS'+'
asS'SNORD115-44'
p894
(lp895
I25250858
aI25250940
aS'+'
asS'DDX11L9'
p896
(lp897
I101976557
aI101979093
aS'-'
asS'SNORD115-48'
p898
(lp899
I25269782
aI25269858
aS'+'
asS'OIP5-AS1'
p900
(lp901
I41285341
aI41313338
aS'+'
asS'SECISBP2L'
p902
(lp903
I48988638
aI49046563
aS'-'
asS'MIR2116'
p904
(lp905
I59171182
aI59171262
aS'-'
asS'MYO9A'
p906
(lp907
I71822290
aI72118150
aS'-'
asS'NSMCE3'
p908
(lp909
I29268148
aI29269816
aS'-'
asS'EIF3J-DT'
p910
(lp911
I44534504
aI44536923
aS'-'
asS'LOC100996413'
p912
(lp913
I30522145
aI30523573
aS'-'
asS'LOXL1'
p914
(lp915
I73926457
aI73952141
aS'+'
asS'HAPLN3'
p916
(lp917
I88877284
aI88895626
aS'-'
asS'SKOR1'
p918
(lp919
I67825508
aI67834582
aS'+'
asS'USP8'
p920
(lp921
I50424376
aI50501083
aS'+'
asS'IGHV1OR15-3'
p922
(lp923
I21735257
aI21735999
aS'-'
asS'IGHV1OR15-1'
p924
(lp925
I21717665
aI21718307
aS'-'
asS'RPP25'
p926
(lp927
I74955101
aI74957434
aS'-'
asS'ADAMTS7P1'
p928
(lp929
I82293282
aI82334561
aS'+'
asS'OAZ2'
p930
(lp931
I64687573
aI64703281
aS'-'
asS'DNM1P41'
p932
(lp933
I84502574
aI84507021
aS'+'
asS'USP3'
p934
(lp935
I63504510
aI63594640
aS'+'
asS'DNM1P46'
p936
(lp937
I99790155
aI99806927
aS'-'
asS'AP3S2'
p938
(lp939
I89830598
aI89894385
aS'-'
asS'MRPS11'
p940
(lp941
I88467452
aI88480767
aS'+'
asS'SEMA6D'
p942
(lp943
I47184205
aI47774223
aS'+'
asS'IQGAP1'
p944
(lp945
I90388240
aI90502243
aS'+'
asS'SNHG14'
p946
(lp947
I24823607
aI25419461
aS'+'
asS'NPTN'
p948
(lp949
I73560002
aI73633412
aS'-'
asS'GOLGA6L9'
p950
(lp951
I82429979
aI82439386
aS'+'
asS'GABARAPL3'
p952
(lp953
I90346530
aI90349447
aS'-'
asS'TIPIN'
p954
(lp955
I66336669
aI66356716
aS'-'
asS'GOLGA6L4'
p956
(lp957
I84428348
aI84516847
aS'-'
asS'GOLGA6L6'
p958
(lp959
I20531855
aI20541800
aS'-'
asS'GOLGA6L7'
p960
(lp961
I28842093
aI28848685
aS'-'
asS'HERC2P11'
p962
(lp963
I28322382
aI28337848
aS'+'
asS'GOLGA6L1'
p964
(lp965
I23127065
aI23136822
aS'-'
asS'GOLGA6L2'
p966
(lp967
I23439385
aI23447243
aS'-'
asS'GOLGA6L3'
p968
(lp969
I85240409
aI85247187
aS'+'
asS'MIR3942'
p970
(lp971
I35372255
aI35372364
aS'-'
asS'PIN4P1'
p972
(lp973
I43875825
aI43878171
aS'-'
asS'MTHFS'
p974
(lp975
I79843546
aI79897285
aS'-'
asS'LINC01169'
p976
(lp977
I66582189
aI66685798
aS'+'
asS'AEN'
p978
(lp979
I88621295
aI88632281
aS'+'
asS'FEM1B'
p980
(lp981
I68277744
aI68295857
aS'+'
asS'PCLAF'
p982
(lp983
I64365011
aI64387687
aS'-'
asS'GREM1'
p984
(lp985
I32718003
aI32734669
aS'+'
asS'SNURF'
p986
(lp987
I24954892
aI24978723
aS'+'
asS'ATP10A'
p988
(lp989
I25678712
aI25863202
aS'-'
asS'CHRM5'
p990
(lp991
I33968313
aI34065094
aS'+'
asS'C15orf62'
p992
(lp993
I40769960
aI40772449
aS'+'
asS'CPLX3'
p994
(lp995
I74826609
aI74831795
aS'+'
asS'C15orf61'
p996
(lp997
I67521130
aI67530145
aS'+'
asS'KBTBD13'
p998
(lp999
I65076815
aI65079938
aS'+'
asS'CASC4'
p1000
(lp1001
I44288710
aI44415761
aS'+'
asS'FAM227B'
p1002
(lp1003
I49328394
aI49620921
aS'-'
asS'SEC11A'
p1004
(lp1005
I84669536
aI84716460
aS'-'
asS'CCNB2'
p1006
(lp1007
I59105084
aI59125045
aS'+'
asS'SPG11'
p1008
(lp1009
I44562695
aI44663678
aS'-'
asS'PLEKHO2'
p1010
(lp1011
I64841882
aI64868002
aS'+'
asS'CHST14'
p1012
(lp1013
I40470960
aI40473158
aS'+'
asS'DPH6'
p1014
(lp1015
I35370968
aI35546203
aS'-'
asS'VPS18'
p1016
(lp1017
I40894429
aI40903975
aS'+'
asS'PHGR1'
p1018
(lp1019
I40351032
aI40356433
aS'+'
asS'LOC642131'
p1020
(lp1021
I21735257
aI21735999
aS'-'
asS'LOC103171574'
p1022
(lp1023
I84422518
aI84425882
aS'+'
asS'GOLGA8CP'
p1024
(lp1025
I20562348
aI20575703
aS'+'
asS'SNORA41B'
p1026
(lp1027
I45537250
aI45537379
aS'+'
asS'FES'
p1028
(lp1029
I90884434
aI90895776
aS'+'
asS'PRTG'
p1030
(lp1031
I55611543
aI55743152
aS'-'
asS'NUTM1'
p1032
(lp1033
I34343314
aI34357737
aS'+'
asS'MIR1233-1'
p1034
(lp1035
I34382068
aI34382150
aS'-'
asS'CHSY1'
p1036
(lp1037
I101175722
aI101251932
aS'-'
asS'LOC101929679'
p1038
(lp1039
I85754940
aI85758725
aS'-'
asS'SLC30A4'
p1040
(lp1041
I45479605
aI45522755
aS'-'
asS'FURIN'
p1042
(lp1043
I90868587
aI90883457
aS'+'
asS'CERS3'
p1044
(lp1045
I100400394
aI100544720
aS'-'
asS'LINGO1'
p1046
(lp1047
I77613023
aI77820900
aS'-'
asS'GOLGA2P11'
p1048
(lp1049
I62242528
aI62248795
aS'-'
asS'RORA'
p1050
(lp1051
I60488283
aI61229303
aS'-'
asS'CTXND1'
p1052
(lp1053
I80195478
aI80252261
aS'-'
asS'CLN6'
p1054
(lp1055
I68206991
aI68229742
aS'-'
asS'LOC646938'
p1056
(lp1057
I78752036
aI78753392
aS'+'
asS'ANP32A-IT1'
p1058
(lp1059
I68803820
aI68807101
aS'-'
asS'MIR7973-1'
p1060
(lp1061
I51314033
aI51314109
aS'+'
asS'MIR7973-2'
p1062
(lp1063
I51314031
aI51314107
aS'-'
asS'WDR61'
p1064
(lp1065
I78283235
aI78299726
aS'-'
asS'GJD2'
p1066
(lp1067
I34752440
aI34754581
aS'-'
asS'SHC4'
p1068
(lp1069
I48823736
aI48963444
aS'-'
asS'KNSTRN'
p1070
(lp1071
I40382720
aI40394288
aS'+'
asS'OIP5'
p1072
(lp1073
I41309267
aI41332621
aS'-'
asS'TM6SF1'
p1074
(lp1075
I83107485
aI83137359
aS'+'
asS'IDH2'
p1076
(lp1077
I90083979
aI90102554
aS'-'
asS'ZWILCH'
p1078
(lp1079
I66505082
aI66549484
aS'+'
asS'OR4N4'
p1080
(lp1081
I22094430
aI22095864
aS'+'
asS'AQP9'
p1082
(lp1083
I58138168
aI58185911
aS'+'
asS'MIR4512'
p1084
(lp1085
I66496957
aI66497034
aS'-'
asS'TJP1'
p1086
(lp1087
I29699366
aI29968924
aS'-'
asS'HEXA-AS1'
p1088
(lp1089
I72376112
aI72378788
aS'+'
asS'LOC283665'
p1090
(lp1091
I58065224
aI58072705
aS'+'
asS'LOC100131315'
p1092
(lp1093
I32718100
aI32718865
aS'-'
asS'CCDC9B'
p1094
(lp1095
I40331451
aI40340967
aS'-'
asS'LOC145845'
p1096
(lp1097
I36864442
aI36886533
aS'-'
asS'MIR628'
p1098
(lp1099
I55372939
aI55373034
aS'-'
asS'MIR5701-2'
p1100
(lp1101
I20940251
aI20940333
aS'+'
asS'MIR626'
p1102
(lp1103
I41691584
aI41691678
aS'+'
asS'MIR627'
p1104
(lp1105
I42199569
aI42199666
aS'-'
asS'ST20'
p1106
(lp1107
I79898839
aI79923754
aS'-'
asS'KIF23'
p1108
(lp1109
I69414245
aI69448427
aS'+'
asS'MIR4515'
p1110
(lp1111
I83067334
aI83067415
aS'+'
asS'LOC107984784'
p1112
(lp1113
I62196171
aI62203318
aS'-'
asS'MAGEL2'
p1114
(lp1115
I23643548
aI23647846
aS'-'
asS'PCSK6-AS1'
p1116
(lp1117
I101334436
aI101337431
aS'+'
asS'ULK4P1'
p1118
(lp1119
I32406610
aI32435049
aS'-'
asS'SPESP1'
p1120
(lp1121
I68930524
aI68946811
aS'+'
asS'ULK4P3'
p1122
(lp1123
I30103731
aI30131745
aS'+'
asS'MYO5C'
p1124
(lp1125
I52192317
aI52295798
aS'-'
asS'MYO5A'
p1126
(lp1127
I52307283
aI52529050
aS'-'
asS'CHAC1'
p1128
(lp1129
I40953470
aI40956519
aS'+'
asS'SNORD18A'
p1130
(lp1131
I66503244
aI66503314
aS'-'
asS'LOC145694'
p1132
(lp1133
I69396903
aI69415029
aS'-'
asS'SNORA24B'
p1134
(lp1135
I65285460
aI65285591
aS'-'
asS'MAP1A'
p1136
(lp1137
I43517607
aI43531620
aS'+'
asS'DUOX1'
p1138
(lp1139
I45129993
aI45165578
aS'+'
asS'DUOX2'
p1140
(lp1141
I45092653
aI45114161
aS'-'
asS'EPB42'
p1142
(lp1143
I43197227
aI43221125
aS'-'
asS'MIR6766'
p1144
(lp1145
I89326738
aI89326810
aS'-'
asS'ICE2'
p1146
(lp1147
I60419608
aI60479160
aS'-'
asS'CRTC3'
p1148
(lp1149
I90529885
aI90645345
aS'+'
asS'ITGA11'
p1150
(lp1151
I68301703
aI68432153
aS'-'
asS'ACSBG1'
p1152
(lp1153
I78170844
aI78234707
aS'-'
asS'LINC00930'
p1154
(lp1155
I92567817
aI92572263
aS'-'
asS'LINC00933'
p1156
(lp1157
I84570648
aI84580181
aS'+'
asS'CTXN2'
p1158
(lp1159
I48191669
aI48203754
aS'+'
asS'ZSCAN2'
p1160
(lp1161
I84601017
aI84623716
aS'+'
asS'SALRNA2'
p1162
(lp1163
I70635248
aI70637314
aS'+'
asS'SALRNA3'
p1164
(lp1165
I70615546
aI70616567
aS'+'
asS'GLDN'
p1166
(lp1167
I51341654
aI51408000
aS'+'
asS'MEIS2'
p1168
(lp1169
I36891020
aI37101299
aS'-'
asS'LOC104613533'
p1170
(lp1171
I92470233
aI92471546
aS'-'
asS'SCG5'
p1172
(lp1173
I32641612
aI32697098
aS'+'
asS'SQOR'
p1174
(lp1175
I45631147
aI45691294
aS'+'
asS'LINC02345'
p1176
(lp1177
I38040392
aI38062340
aS'+'
asS'LINC02346'
p1178
(lp1179
I25902359
aI26053120
aS'+'
asS'LINC02348'
p1180
(lp1181
I101602785
aI101614339
aS'-'
asS'LINC02349'
p1182
(lp1183
I61729917
aI61731389
aS'+'
asS'TRPM7'
p1184
(lp1185
I50557158
aI50686815
aS'-'
asS'ACTG1P17'
p1186
(lp1187
I82725897
aI82739780
aS'-'
asS'TRPM1'
p1188
(lp1189
I31001060
aI31161273
aS'-'
asS'FAM98B'
p1190
(lp1191
I38454126
aI38487710
aS'+'
asS'PLCB2'
p1192
(lp1193
I40287896
aI40307973
aS'-'
asS'RAD51'
p1194
(lp1195
I40695128
aI40732158
aS'+'
asS'MIR1266'
p1196
(lp1197
I52277116
aI52277200
aS'-'
asS'LOC105376731'
p1198
(lp1199
I75226752
aI75229690
aS'-'
asS'PARP6'
p1200
(lp1201
I72241180
aI72272575
aS'-'
asS'LINC00593'
p1202
(lp1203
I69835233
aI69842967
aS'+'
asS'EIF3J'
p1204
(lp1205
I44537067
aI44562803
aS'+'
asS'MAN2A2'
p1206
(lp1207
I90902217
aI90922585
aS'+'
asS'FAN1'
p1208
(lp1209
I30903872
aI30943107
aS'+'
asS'PTPN9'
p1210
(lp1211
I75467120
aI75579291
aS'-'
asS'HERC2'
p1212
(lp1213
I28111036
aI28322152
aS'-'
asS'LINC00597'
p1214
(lp1215
I77223907
aI77225404
aS'-'
asS'RPUSD2'
p1216
(lp1217
I40569292
aI40574694
aS'+'
asS'FRMD5'
p1218
(lp1219
I43870760
aI44195294
aS'-'
asS'NF1P2'
p1220
(lp1221
I21490363
aI21502997
aS'-'
asS'LOC101928414'
p1222
(lp1223
I45251580
aI45279222
aS'-'
asS'FAM174B'
p1224
(lp1225
I92617448
aI92655801
aS'-'
asS'MIR4514'
p1226
(lp1227
I80997416
aI80997473
aS'-'
asS'HERC1'
p1228
(lp1229
I63608617
aI63833948
aS'-'
asS'GALK2'
p1230
(lp1231
I49155758
aI49329805
aS'+'
asS'SNORD115-20'
p1232
(lp1233
I25206261
aI25206343
aS'+'
asS'JMJD7-PLA2G4B'
p1234
(lp1235
I41828084
aI41848148
aS'+'
asS'SPINT1-AS1'
p1236
(lp1237
I40835992
aI40844524
aS'-'
asS'MIR4312'
p1238
(lp1239
I68801849
aI68801925
aS'-'
asS'CYP19A1'
p1240
(lp1241
I51208056
aI51338598
aS'-'
asS'ST8SIA2'
p1242
(lp1243
I92393886
aI92468728
aS'+'
asS'SCG3'
p1244
(lp1245
I51681352
aI51721026
aS'+'
asS'RPAP1'
p1246
(lp1247
I41517175
aI41544277
aS'-'
asS'HMGN2P46'
p1248
(lp1249
I45511135
aI45556730
aS'+'
asS'STRC'
p1250
(lp1251
I43599562
aI43618800
aS'-'
asS'LINC01586'
p1252
(lp1253
I88585570
aI88605110
aS'-'
asS'LINC01585'
p1254
(lp1255
I90660233
aI90664954
aS'+'
asS'LINC01584'
p1256
(lp1257
I86083344
aI86116717
aS'-'
asS'LINC01583'
p1258
(lp1259
I82088593
aI82097693
aS'+'
asS'SNORD116-7'
p1260
(lp1261
I25062331
aI25062428
aS'+'
asS'LINC01581'
p1262
(lp1263
I93905404
aI94107938
aS'-'
asS'GPR176'
p1264
(lp1265
I39799021
aI39920892
aS'-'
asS'LOC105369274'
p1266
(lp1267
I21638578
aI21653033
aS'+'
asS'C2CD4B'
p1268
(lp1269
I62163537
aI62165283
aS'-'
asS'LCMT2'
p1270
(lp1271
I43327775
aI43330622
aS'-'
asS'MIR7-2'
p1272
(lp1273
I88611824
aI88611934
aS'+'
asS'CPEB1-AS1'
p1274
(lp1275
I82647769
aI82692820
aS'+'
asS'AGBL1'
p1276
(lp1277
I86079807
aI87029052
aS'+'
asS'LOC100289656'
p1278
(lp1279
I28788242
aI28789392
aS'+'
asS'ACTC1'
p1280
(lp1281
I34788095
aI34795726
aS'-'
asS'MYO1E'
p1282
(lp1283
I59135968
aI59372872
aS'-'
asS'TERB2'
p1284
(lp1285
I44956701
aI44979223
aS'+'
asS'C15orf39'
p1286
(lp1287
I75201879
aI75212169
aS'+'
asS'LINGO1-AS1'
p1288
(lp1289
I77641763
aI77649239
aS'+'
asS'ADAMTS17'
p1290
(lp1291
I99971437
aI100342005
aS'-'
asS'CORO2B'
p1292
(lp1293
I68518372
aI68727805
aS'+'
asS'MIR4313'
p1294
(lp1295
I75762214
aI75762315
aS'-'
asS'SNORD116-2'
p1296
(lp1297
I25065024
aI25065122
aS'+'
asS'DNAAF4'
p1298
(lp1299
I55417755
aI55508234
aS'-'
asS'SH3GL3'
p1300
(lp1301
I83447227
aI83618741
aS'+'
asS'APH1B'
p1302
(lp1303
I63277549
aI63309126
aS'+'
asS'PGBD4'
p1304
(lp1305
I34102082
aI34108686
aS'+'
asS'LINGO1-AS2'
p1306
(lp1307
I77660050
aI77668074
aS'+'
asS'NUSAP1'
p1308
(lp1309
I41332693
aI41381050
aS'+'
asS'JMJD7'
p1310
(lp1311
I41828084
aI41837587
aS'+'
asS'GOLGA2P10'
p1312
(lp1313
I82471476
aI82513999
aS'-'
asS'LINC00052'
p1314
(lp1315
I87576928
aI87579686
aS'+'
asS'BNIP2'
p1316
(lp1317
I59659145
aI59689534
aS'-'
asS'ARPP19'
p1318
(lp1319
I52547044
aI52569446
aS'-'
asS'TMEM202'
p1320
(lp1321
I72398312
aI72408367
aS'+'
asS'ARNT2'
p1322
(lp1323
I80404381
aI80597933
aS'+'
asS'PSMA4'
p1324
(lp1325
I78540404
aI78549262
aS'+'
asS'ZNF106'
p1326
(lp1327
I42412822
aI42491141
aS'-'
asS'TPM1-AS'
p1328
(lp1329
I63046033
aI63049387
aS'-'
asS'MORF4L1'
p1330
(lp1331
I78872780
aI78897739
aS'+'
asS'PPCDC'
p1332
(lp1333
I75023554
aI75050726
aS'+'
asS'MYEF2'
p1334
(lp1335
I48139427
aI48178361
aS'-'
asS'NDN'
p1336
(lp1337
I23685406
aI23687303
aS'-'
asS'RORA-AS1'
p1338
(lp1339
I60479177
aI60630639
aS'+'
asS'CCDC33'
p1340
(lp1341
I74236288
aI74336141
aS'+'
asS'RPLP1'
p1342
(lp1343
I69452819
aI69455545
aS'+'
asS'RORA-AS2'
p1344
(lp1345
I60681568
aI60687249
aS'+'
asS'SORD'
p1346
(lp1347
I45023103
aI45075089
aS'+'
asS'MIR5009'
p1348
(lp1349
I89883930
aI89884030
aS'-'
asS'DET1'
p1350
(lp1351
I88501923
aI88546703
aS'-'
asS'GLCE'
p1352
(lp1353
I69160596
aI69272205
aS'+'
asS'GABRB3'
p1354
(lp1355
I26543545
aI26773788
aS'-'
asS'TMEM87A'
p1356
(lp1357
I42210451
aI42273584
aS'-'
asS'CYP1A1'
p1358
(lp1359
I74719541
aI74725528
aS'-'
asS'SNORD16'
p1360
(lp1361
I66502810
aI66502910
aS'-'
asS'CTDSPL2'
p1362
(lp1363
I44427380
aI44527231
aS'+'
asS'MIR211'
p1364
(lp1365
I31065031
aI31065141
aS'-'
asS'EIF2AK4'
p1366
(lp1367
I39934114
aI40035591
aS'+'
asS'IL16'
p1368
(lp1369
I81196877
aI81312763
aS'+'
asS'MIR631'
p1370
(lp1371
I75353610
aI75353685
aS'-'
asS'NMB'
p1372
(lp1373
I84655128
aI84658571
aS'-'
asS'SCARNA15'
p1374
(lp1375
I82755944
aI82756071
aS'+'
asS'SCARNA14'
p1376
(lp1377
I66347205
aI66347342
aS'-'
asS'SPATA8-AS1'
p1378
(lp1379
I96772004
aI96783337
aS'-'
asS'GOLGA6L5P'
p1380
(lp1381
I84506167
aI84516847
aS'-'
asS'RAB11A'
p1382
(lp1383
I65869458
aI65891991
aS'+'
asS'DPH6-DT'
p1384
(lp1385
I35546194
aI35859001
aS'+'
asS'PPIB'
p1386
(lp1387
I64155814
aI64163155
aS'-'
asS'CEMIP'
p1388
(lp1389
I80779342
aI80951662
aS'+'
asS'CYFIP1'
p1390
(lp1391
I22867052
aI22980898
aS'-'
asS'GTF2A2'
p1392
(lp1393
I59638061
aI59657541
aS'-'
asS'IMP3'
p1394
(lp1395
I75639084
aI75640323
aS'-'
asS'LOC105370792'
p1396
(lp1397
I41892776
aI41898815
aS'+'
asS'LDHAL6B'
p1398
(lp1399
I59206815
aI59208586
aS'+'
asS'BAHD1'
p1400
(lp1401
I40439720
aI40468242
aS'+'
asS'SNORD116-24'
p1402
(lp1403
I25094035
aI25094129
aS'+'
asS'SNORD116-25'
p1404
(lp1405
I25097661
aI25097755
aS'+'
asS'SNORD116-26'
p1406
(lp1407
I25099497
aI25099595
aS'+'
asS'SNORD116-27'
p1408
(lp1409
I25101573
aI25101667
aS'+'
asS'SNORD116-20'
p1410
(lp1411
I25087660
aI25087754
aS'+'
asS'SNORD116-21'
p1412
(lp1413
I25088802
aI25088896
aS'+'
asS'MAP2K5'
p1414
(lp1415
I67542682
aI67807117
aS'+'
asS'SNORD116-23'
p1416
(lp1417
I25091784
aI25091878
aS'+'
asS'SPTBN5'
p1418
(lp1419
I41848145
aI41894077
aS'-'
asS'SNORD116-28'
p1420
(lp1421
I25104640
aI25104733
aS'+'
asS'SNORD116-29'
p1422
(lp1423
I25106519
aI25106604
aS'+'
asS'ALDH1A2'
p1424
(lp1425
I57953423
aI58065923
aS'-'
asS'LRRC28'
p1426
(lp1427
I99251361
aI99390732
aS'+'
asS'KLF13'
p1428
(lp1429
I31326854
aI31435665
aS'+'
asS'AP3B2'
p1430
(lp1431
I82659280
aI82709908
aS'-'
asS'GCNT3'
p1432
(lp1433
I59611782
aI59620011
aS'+'
asS'TLN2'
p1434
(lp1435
I62647310
aI62844630
aS'+'
asS'CATSPER2'
p1436
(lp1437
I43630561
aI43648884
aS'-'
asS'FAM219B'
p1438
(lp1439
I74899986
aI74906894
aS'-'
asS'DPP8'
p1440
(lp1441
I65442462
aI65517713
aS'-'
asS'VPS33B'
p1442
(lp1443
I90998415
aI91022621
aS'-'
asS'LPCAT4'
p1444
(lp1445
I34358887
aI34367194
aS'-'
asS'STRA6'
p1446
(lp1447
I74179465
aI74209705
aS'-'
asS'SORD2P'
p1448
(lp1449
I44825746
aI44884694
aS'-'
asS'NRG4'
p1450
(lp1451
I75941985
aI76012444
aS'-'
asS'SNORD115-6'
p1452
(lp1453
I25180496
aI25180578
aS'+'
asS'SNORD115-7'
p1454
(lp1455
I25182384
aI25182466
aS'+'
asS'SNORD115-4'
p1456
(lp1457
I25176831
aI25176913
aS'+'
asS'SNORD115-5'
p1458
(lp1459
I25178737
aI25178819
aS'+'
asS'SNORD115-2'
p1460
(lp1461
I25172634
aI25172716
aS'+'
asS'TMC3-AS1'
p1462
(lp1463
I81324332
aI81443076
aS'+'
asS'PEAK1'
p1464
(lp1465
I77108155
aI77420104
aS'-'
asS'DNM1P50'
p1466
(lp1467
I30394521
aI30397645
aS'+'
asS'MNS1'
p1468
(lp1469
I56428730
aI56465137
aS'-'
asS'SNORD115-8'
p1470
(lp1471
I25184305
aI25184387
aS'+'
asS'SNORD115-9'
p1472
(lp1473
I25185630
aI25185712
aS'+'
asS'CERNA1'
p1474
(lp1475
I52180025
aI52205879
aS'+'
asS'AP4E1'
p1476
(lp1477
I50908671
aI51005900
aS'+'
asS'TP53BP1'
p1478
(lp1479
I43403063
aI43510728
aS'-'
asS'LOC283731'
p1480
(lp1481
I74126372
aI74129278
aS'-'
asS'SNHG21'
p1482
(lp1483
I82750563
aI82757206
aS'+'
asS'ARID3B'
p1484
(lp1485
I74541176
aI74598131
aS'+'
asS'TTLL13P'
p1486
(lp1487
I90249531
aI90259088
aS'+'
asS'ZNF710'
p1488
(lp1489
I90001490
aI90082200
aS'+'
asS'LINC01582'
p1490
(lp1491
I98082978
aI98088753
aS'-'
asS'MIR8067'
p1492
(lp1493
I62304657
aI62304734
aS'-'
asS'MIR8063'
p1494
(lp1495
I36972820
aI36972901
aS'-'
asS'LOC283710'
p1496
(lp1497
I31222767
aI31230851
aS'-'
asS'LINC01580'
p1498
(lp1499
I93900700
aI93984150
aS'+'
asS'TM2D3'
p1500
(lp1501
I101632976
aI101652391
aS'-'
asS'MIR3174'
p1502
(lp1503
I90006754
aI90006841
aS'+'
asS'TMOD3'
p1504
(lp1505
I51829627
aI51912134
aS'+'
asS'TMOD2'
p1506
(lp1507
I51751560
aI51816361
aS'+'
asS'ISL2'
p1508
(lp1509
I76336723
aI76342475
aS'+'
asS'NDUFAF4P1'
p1510
(lp1511
I49156297
aI49158625
aS'+'
asS'HERC2P10'
p1512
(lp1513
I30818035
aI30827783
aS'+'
asS'MIR5701-3'
p1514
(lp1515
I20940251
aI20940333
aS'+'
asS'ZFAND6'
p1516
(lp1517
I80059567
aI80138393
aS'+'
asS'MIR5701-1'
p1518
(lp1519
I20940251
aI20940333
aS'+'
asS'HSP90AB4P'
p1520
(lp1521
I58690472
aI58693607
aS'-'
asS'GOLGA6L10'
p1522
(lp1523
I82339995
aI82349475
aS'-'
asS'CRABP1'
p1524
(lp1525
I78340323
aI78348230
aS'+'
asS'TARSL2'
p1526
(lp1527
I101653751
aI101724442
aS'-'
asS'INAFM2'
p1528
(lp1529
I40324055
aI40326715
aS'+'
asS'MIR4511'
p1530
(lp1531
I65719245
aI65719332
aS'-'
asS'MIR4510'
p1532
(lp1533
I35926855
aI35926923
aS'+'
asS'MIR4513'
p1534
(lp1535
I74788671
aI74788757
aS'-'
asS'SPINT1'
p1536
(lp1537
I40844047
aI40857655
aS'+'
asS'SNORD116-9'
p1538
(lp1539
I25056858
aI25056955
aS'+'
asS'SNORD116-8'
p1540
(lp1541
I25070430
aI25070527
aS'+'
asS'SRP14-AS1'
p1542
(lp1543
I40039310
aI40067509
aS'+'
asS'SNORD116-5'
p1544
(lp1545
I25062331
aI25062428
aS'+'
asS'SNORD116-4'
p1546
(lp1547
I25059536
aI25059634
aS'+'
asS'RYR3'
p1548
(lp1549
I33310961
aI33866103
aS'+'
asS'SNORD116-6'
p1550
(lp1551
I25065024
aI25065122
aS'+'
asS'SNORD116-1'
p1552
(lp1553
I25051475
aI25051572
aS'+'
asS'SNORD116-3'
p1554
(lp1555
I25056858
aI25056955
aS'+'
asS'NTRK3'
p1556
(lp1557
I87876756
aI88256731
aS'-'
asS'CAPN3'
p1558
(lp1559
I42359499
aI42412317
aS'+'
asS'ZSCAN29'
p1560
(lp1561
I43358171
aI43370060
aS'-'
asS'MIR3118-4'
p1562
(lp1563
I20832794
aI20832869
aS'+'
asS'MIR3118-3'
p1564
(lp1565
I20832794
aI20832869
aS'+'
asS'MIR3118-2'
p1566
(lp1567
I20832794
aI20832869
aS'+'
asS'GOLGA8IP'
p1568
(lp1569
I30604029
aI30611752
aS'+'
asS'SLCO3A1'
p1570
(lp1571
I91853707
aI92172435
aS'+'
asS'SCAMP2'
p1572
(lp1573
I74843729
aI74873379
aS'-'
asS'LINC01578'
p1574
(lp1575
I92882842
aI92898747
aS'+'
asS'RAB27A'
p1576
(lp1577
I55202965
aI55289815
aS'-'
asS'TSPAN3'
p1578
(lp1579
I77044017
aI77071228
aS'-'
asS'CSNK1G1'
p1580
(lp1581
I64165516
aI64356259
aS'-'
asS'OR4F13P'
p1582
(lp1583
I101842118
aI101850324
aS'+'
asS'CT62'
p1584
(lp1585
I71110243
aI71115500
aS'-'
asS'SNAPC5'
p1586
(lp1587
I66489748
aI66497815
aS'-'
asS'MIR3175'
p1588
(lp1589
I92904398
aI92904475
aS'+'
asS'ABHD2'
p1590
(lp1591
I89088149
aI89202360
aS'+'
asS'UBR1'
p1592
(lp1593
I42942899
aI43106088
aS'-'
asS'SEMA7A'
p1594
(lp1595
I74409283
aI74433959
aS'-'
asS'POLG'
p1596
(lp1597
I89316304
aI89334795
aS'-'
asS'CSPG4'
p1598
(lp1599
I75674321
aI75712848
aS'-'
asS'COX5A'
p1600
(lp1601
I74920275
aI74938154
aS'-'
asS'GOLGA8T'
p1602
(lp1603
I30135050
aI30145567
aS'+'
asS'ISLR'
p1604
(lp1605
I74173745
aI74176871
aS'+'
asS'GOLGA8Q'
p1606
(lp1607
I30552077
aI30562501
aS'+'
asS'MEGF11'
p1608
(lp1609
I65895295
aI66253737
aS'-'
asS'GOLGA8S'
p1610
(lp1611
I23354747
aI23368454
aS'+'
asS'GOLGA8R'
p1612
(lp1613
I30400561
aI30414260
aS'-'
asS'GOLGA8M'
p1614
(lp1615
I28698695
aI28712421
aS'-'
asS'SCAND2P'
p1616
(lp1617
I84631459
aI84642463
aS'+'
asS'GOLGA8O'
p1618
(lp1619
I32441913
aI32455634
aS'-'
asS'GOLGA8N'
p1620
(lp1621
I30604029
aI30617900
aS'+'
asS'GOLGA8H'
p1622
(lp1623
I30604029
aI30617826
aS'+'
asS'GOLGA8K'
p1624
(lp1625
I32389584
aI32403292
aS'-'
asS'ATP8B4'
p1626
(lp1627
I49858237
aI50119222
aS'-'
asS'ARRDC4'
p1628
(lp1629
I97960702
aI97973833
aS'+'
asS'GOLGA8G'
p1630
(lp1631
I28378637
aI28392025
aS'+'
asS'GOLGA8F'
p1632
(lp1633
I28378663
aI28392025
aS'+'
asS'GOLGA8A'
p1634
(lp1635
I34379068
aI34437466
aS'-'
asS'SAXO2'
p1636
(lp1637
I82262810
aI82284926
aS'+'
asS'GOLGA8B'
p1638
(lp1639
I34525282
aI34583570
aS'-'
asS'ZNF280D'
p1640
(lp1641
I56630175
aI56734086
aS'-'
asS'KATNBL1'
p1642
(lp1643
I34140673
aI34210096
aS'-'
asS'ULK3'
p1644
(lp1645
I74836115
aI74843211
aS'-'
asS'MIR1282'
p1646
(lp1647
I43793658
aI43793759
aS'-'
asS'RPL4'
p1648
(lp1649
I66499314
aI66504855
aS'-'
asS'FMN1'
p1650
(lp1651
I32765543
aI33194733
aS'-'
asS'INO80'
p1652
(lp1653
I40978880
aI41116280
aS'-'
asS'MIR9-3'
p1654
(lp1655
I89368016
aI89368106
aS'+'
asS'ARPIN'
p1656
(lp1657
I89896531
aI89912990
aS'-'
asS'LOC100128108'
p1658
(lp1659
I101737093
aI101746870
aS'-'
asS'NOX5'
p1660
(lp1661
I68930499
aI69057161
aS'+'
asS'SNORD115-19'
p1662
(lp1663
I25201322
aI25201404
aS'+'
asS'SNORD115-14'
p1664
(lp1665
I25194920
aI25195001
aS'+'
asS'SNORD115-15'
p1666
(lp1667
I25247344
aI25247426
aS'+'
asS'SNORD115-16'
p1668
(lp1669
I25199447
aI25199529
aS'+'
asS'SNORD115-17'
p1670
(lp1671
I25201322
aI25201404
aS'+'
asS'SNORD115-10'
p1672
(lp1673
I25185630
aI25185712
aS'+'
asS'SNORD115-11'
p1674
(lp1675
I25189413
aI25189495
aS'+'
asS'SNORD115-12'
p1676
(lp1677
I25185630
aI25185712
aS'+'
asS'SNORD115-13'
p1678
(lp1679
I25193320
aI25193402
aS'+'
asS'GOLGA8DP'
p1680
(lp1681
I23157339
aI23170783
aS'+'
asS'CHD2'
p1682
(lp1683
I92900320
aI93028007
aS'+'
asS'OR4F6'
p1684
(lp1685
I101805719
aI101806658
aS'+'
asS'LRRK1'
p1686
(lp1687
I100919214
aI101072889
aS'+'
asS'OR4F4'
p1688
(lp1689
I101922141
aI101923059
aS'-'
asS'UBE3A'
p1690
(lp1691
I25337233
aI25439056
aS'-'
asS'HAUS2'
p1692
(lp1693
I42548812
aI42569992
aS'+'
asS'MIR630'
p1694
(lp1695
I72587216
aI72587313
aS'+'
asS'THBS1'
p1696
(lp1697
I39581078
aI39598921
aS'+'
asS'LOC100132202'
p1698
(lp1699
I28349195
aI28358181
aS'-'
asS'PPIP5K1'
p1700
(lp1701
I43533461
aI43590253
aS'-'
asS'NGRN'
p1702
(lp1703
I90265662
aI90272211
aS'+'
asS'SRP14'
p1704
(lp1705
I40035689
aI40039202
aS'-'
asS'MIR7706'
p1706
(lp1707
I85380595
aI85380662
aS'+'
asS'HSP90B2P'
p1708
(lp1709
I99257524
aI99260276
aS'+'
asS'MRPL46'
p1710
(lp1711
I88459477
aI88467388
aS'-'
asS'LOC100288203'
p1712
(lp1713
I30471168
aI30490313
aS'+'
asS'RCN2'
p1714
(lp1715
I76931620
aI76950260
aS'+'
asS'SH2D7'
p1716
(lp1717
I78092584
aI78104051
aS'+'
asS'PDIA3'
p1718
(lp1719
I43746391
aI43772606
aS'+'
asS'GOLGA8J'
p1720
(lp1721
I30082954
aI30096701
aS'+'
asS'RHOV'
p1722
(lp1723
I40872213
aI40874289
aS'-'
asS'NTRK3-AS1'
p1724
(lp1725
I88252729
aI88271066
aS'+'
asS'LINC00928'
p1726
(lp1727
I89504929
aI89524034
aS'-'
asS'LINC00929'
p1728
(lp1729
I26115812
aI26133037
aS'+'
asS'GOLGA6C'
p1730
(lp1731
I75258557
aI75273455
aS'+'
asS'GOLGA6B'
p1732
(lp1733
I72654696
aI72667397
aS'+'
asS'SNORD107'
p1734
(lp1735
I24981993
aI24982068
aS'+'
asS'FGF7'
p1736
(lp1737
I49423177
aI49487326
aS'+'
asS'LINC00923'
p1738
(lp1739
I97742615
aI97874429
aS'-'
asS'MIR4311'
p1740
(lp1741
I66040232
aI66040332
aS'+'
asS'MIR4310'
p1742
(lp1743
I41866494
aI41866551
aS'-'
asS'LINC00926'
p1744
(lp1745
I57300364
aI57307769
aS'+'
asS'CATSPER2P1'
p1746
(lp1747
I43735947
aI43746298
aS'-'
asS'LINC00924'
p1748
(lp1749
I95433092
aI95507847
aS'+'
asS'IVD'
p1750
(lp1751
I40405794
aI40435951
aS'+'
asS'NPTN-IT1'
p1752
(lp1753
I73566937
aI73569543
aS'-'
asS'LOC105370757'
p1754
(lp1755
I32665701
aI32673065
aS'-'
asS'MIR5572'
p1756
(lp1757
I80581102
aI80581239
aS'+'
asS'NOP10'
p1758
(lp1759
I34341715
aI34343161
aS'-'
asS'USP50'
p1760
(lp1761
I50500561
aI50546705
aS'-'
asS'MPI'
p1762
(lp1763
I74890041
aI74902219
aS'+'
asS'FAM30C'
p1764
(lp1765
I21003276
aI21049836
aS'+'
asS'RNU6-8'
p1766
(lp1767
I67839939
aI67840045
aS'-'
asS'OR4M2'
p1768
(lp1769
I21637908
aI21638992
aS'+'
asS'LOC102724034'
p1770
(lp1771
I84422617
aI84424158
aS'+'
asS'BTBD1'
p1772
(lp1773
I83016428
aI83067354
aS'-'
asS'RNU6-1'
p1774
(lp1775
I67839939
aI67840045
aS'-'
asS'RNU6-2'
p1776
(lp1777
I67839938
aI67840045
aS'-'
asS'LRRC57'
p1778
(lp1779
I42542521
aI42548804
aS'-'
asS'EHD4'
p1780
(lp1781
I41899440
aI41972557
aS'-'
asS'CIAO2A'
p1782
(lp1783
I64072558
aI64094008
aS'-'
asS'TYRO3P'
p1784
(lp1785
I76259288
aI76260152
aS'-'
asS'ACAN'
p1786
(lp1787
I88803442
aI88875354
aS'+'
asS'C15orf65'
p1788
(lp1789
I55408524
aI55418712
aS'+'
asS'ZNF710-AS1'
p1790
(lp1791
I90074511
aI90082207
aS'-'
asS'PCAT29'
p1792
(lp1793
I69592199
aI69695751
aS'+'
asS'CHRNB4'
p1794
(lp1795
I78624110
aI78641245
aS'-'
asS'EFL1P1'
p1796
(lp1797
I84080186
aI84126601
aS'+'
asS'GDPGP1'
p1798
(lp1799
I90234254
aI90242080
aS'+'
asS'RCCD1'
p1800
(lp1801
I90954875
aI90963125
aS'+'
asS'EWSAT1'
p1802
(lp1803
I69080849
aI69095823
aS'+'
asS'LOC400464'
p1804
(lp1805
I99807022
aI99882982
aS'+'
asS'MIR1276'
p1806
(lp1807
I85770495
aI85770578
aS'-'
asS'RAB8B'
p1808
(lp1809
I63189528
aI63267774
aS'+'
asS'SCAPER'
p1810
(lp1811
I76348185
aI76905457
aS'-'
asS'AVEN'
p1812
(lp1813
I33866226
aI34039102
aS'-'
asS'UBE2Q2P2'
p1814
(lp1815
I82355135
aI82415611
aS'+'
asS'MIR6859-3'
p1816
(lp1817
I101973523
aI101973591
aS'+'
asS'CIB1'
p1818
(lp1819
I90230244
aI90265759
aS'-'
asS'LINC02249'
p1820
(lp1821
I32324143
aI32342677
aS'-'
asS'LYSMD4'
p1822
(lp1823
I99727400
aI99733444
aS'-'
asS'MAPK6'
p1824
(lp1825
I52019218
aI52067375
aS'+'
asS'KNL1'
p1826
(lp1827
I40594248
aI40662683
aS'+'
asS'USP3-AS1'
p1828
(lp1829
I63587709
aI63600827
aS'-'
asS'PML'
p1830
(lp1831
I73994672
aI74047814
aS'+'
asS'PDCD7'
p1832
(lp1833
I65117378
aI65133808
aS'-'
asS'DIS3L'
p1834
(lp1835
I66293256
aI66333898
aS'+'
asS'GABPB1'
p1836
(lp1837
I50277191
aI50355429
aS'-'
asS'CHEK2P2'
p1838
(lp1839
I20282743
aI20291558
aS'+'
asS'PYGO1'
p1840
(lp1841
I55538886
aI55588852
aS'-'
asS'RBPMS2'
p1842
(lp1843
I64739890
aI64775587
aS'-'
asS'PGPEP1L'
p1844
(lp1845
I98968229
aI99007795
aS'-'
asS'SNUPN'
p1846
(lp1847
I75598082
aI75626378
aS'-'
asS'PAQR5'
p1848
(lp1849
I69298954
aI69407637
aS'+'
asS'ANKRD34C'
p1850
(lp1851
I79282803
aI79298239
aS'+'
asS'TYRO3'
p1852
(lp1853
I41559021
aI41579338
aS'+'
asS'CHRNA5'
p1854
(lp1855
I78565519
aI78595269
aS'+'
asS'CHRNA7'
p1856
(lp1857
I32030482
aI32170183
aS'+'
asS'C15orf48'
p1858
(lp1859
I45430528
aI45433449
aS'+'
asS'UNC13C'
p1860
(lp1861
I53978179
aI54628608
aS'+'
asS'CHRNA3'
p1862
(lp1863
I78593052
aI78621295
aS'-'
asS'C15orf40'
p1864
(lp1865
I82988962
aI83011641
aS'-'
asS'C15orf41'
p1866
(lp1867
I36579602
aI36810260
aS'+'
asS'CRTC3-AS1'
p1868
(lp1869
I90620008
aI90717140
aS'-'
asS'CEP152'
p1870
(lp1871
I48737937
aI48811146
aS'-'
asS'RASGRF1'
p1872
(lp1873
I78959946
aI79090873
aS'-'
asS'MIR422A'
p1874
(lp1875
I63870929
aI63871019
aS'-'
asS'VPS39'
p1876
(lp1877
I42158700
aI42208326
aS'-'
asS'STOML1'
p1878
(lp1879
I73978925
aI73992295
aS'-'
asS'PIAS1'
p1880
(lp1881
I68054178
aI68191466
aS'+'
asS'ARHGAP11A'
p1882
(lp1883
I32615143
aI32639937
aS'+'
asS'ARHGAP11B'
p1884
(lp1885
I30626147
aI30649182
aS'+'
asS'ISG20'
p1886
(lp1887
I88635636
aI88656344
aS'+'
asS'SNORD115-18'
p1888
(lp1889
I25201322
aI25201404
aS'+'
asS'INSYN1'
p1890
(lp1891
I73735430
aI73752370
aS'-'
asS'CLPX'
p1892
(lp1893
I65148219
aI65185420
aS'-'
asS'LOC105370954'
p1894
(lp1895
I86932879
aI86946331
aS'+'
asS'RPS17'
p1896
(lp1897
I82536749
aI82540564
aS'-'
asS'RASL12'
p1898
(lp1899
I65053336
aI65068112
aS'-'
asS'LOC100419583'
p1900
(lp1901
I44728987
aI44732851
aS'+'
asS'CKMT1A'
p1902
(lp1903
I43692785
aI43699222
aS'+'
asS'CKMT1B'
p1904
(lp1905
I43592856
aI43599406
aS'+'
asS'ADAM10'
p1906
(lp1907
I58595203
aI58749978
aS'-'
asS'LOC100130111'
p1908
(lp1909
I29674934
aI29679163
aS'+'
asS'THAP10'
p1910
(lp1911
I70881341
aI70892433
aS'-'
asS'IDH3A'
p1912
(lp1913
I78149376
aI78170542
aS'+'
asS'GRAMD2A'
p1914
(lp1915
I72159805
aI72197787
aS'-'
asS'BCL2L10'
p1916
(lp1917
I52109265
aI52112775
aS'-'
asS'AQR'
p1918
(lp1919
I34856350
aI34969794
aS'-'
asS'IRAIN'
p1920
(lp1921
I98645865
aI98651221
aS'-'
asS'PIF1'
p1922
(lp1923
I64815629
aI64825668
aS'-'
asS'CCDC32'
p1924
(lp1925
I40531340
aI40565057
aS'-'
asS'OR4N3P'
p1926
(lp1927
I22125510
aI22126444
aS'+'
asS'RAD51-AS1'
p1928
(lp1929
I40693754
aI40695105
aS'-'
asS'WHAMM'
p1930
(lp1931
I82809627
aI82836108
aS'+'
asS'FAM214A'
p1932
(lp1933
I52581320
aI52678634
aS'-'
asS'DISP2'
p1934
(lp1935
I40358234
aI40371056
aS'+'
asS'DAPK2'
p1936
(lp1937
I63907035
aI64046448
aS'-'
asS'VPS13C'
p1938
(lp1939
I61852390
aI62060465
aS'-'
asS'SIN3A'
p1940
(lp1941
I75369378
aI75455783
aS'-'
asS'SNORD116-19'
p1942
(lp1943
I25083586
aI25083680
aS'+'
asS'SNORD116-18'
p1944
(lp1945
I25085383
aI25085477
aS'+'
asS'DNM1P35'
p1946
(lp1947
I75727669
aI75740077
aS'-'
asS'AGBL1-AS1'
p1948
(lp1949
I86296833
aI86316968
aS'-'
asS'RMDN3'
p1950
(lp1951
I40735883
aI40755336
aS'-'
asS'LOXL1-AS1'
p1952
(lp1953
I73917467
aI73928248
aS'-'
asS'SNORD116-11'
p1954
(lp1955
I25075927
aI25076021
aS'+'
asS'SNORD116-10'
p1956
(lp1957
I25074112
aI25074216
aS'+'
asS'SNORD116-13'
p1958
(lp1959
I25079056
aI25079150
aS'+'
asS'SNORD116-12'
p1960
(lp1961
I25077049
aI25077143
aS'+'
asS'SNORD116-15'
p1962
(lp1963
I25081285
aI25081379
aS'+'
asS'SNORD116-14'
p1964
(lp1965
I25080140
aI25080234
aS'+'
asS'SNORD116-17'
p1966
(lp1967
I25083586
aI25083680
aS'+'
asS'SNORD116-16'
p1968
(lp1969
I25082766
aI25082860
aS'+'
asS'LOC101928907'
p1970
(lp1971
I62060502
aI62062434
aS'+'
asS'SNRPN'
p1972
(lp1973
I24823607
aI24978723
aS'+'
asS'RTF1'
p1974
(lp1975
I41417103
aI41483563
aS'+'
asS'LOC101927079'
p1976
(lp1977
I21990079
aI22095613
aS'+'
asS'NR2E3'
p1978
(lp1979
I71810547
aI71818256
aS'+'
asS'ANKRD63'
p1980
(lp1981
I40278371
aI40282586
aS'-'
asS'CSNK1A1P1'
p1982
(lp1983
I36799099
aI36818506
aS'-'
asS'LOC105370829'
p1984
(lp1985
I55056746
aI55092173
aS'+'
asS'ST20-MTHFS'
p1986
(lp1987
I79843546
aI79923106
aS'-'
asS'RHCG'
p1988
(lp1989
I89471408
aI89496613
aS'-'
asS'UNC45A'
p1990
(lp1991
I90930179
aI90954093
aS'+'
asS'BBS4'
p1992
(lp1993
I72686178
aI72738476
aS'+'
asS'FAM138E'
p1994
(lp1995
I101954884
aI101956355
aS'+'
asS'ANKDD1A'
p1996
(lp1997
I64911901
aI64958691
aS'+'
asS'LOC646214'
p1998
(lp1999
I21289603
aI21297829
aS'-'
asS'SPATA8'
p2000
(lp2001
I96783434
aI96785615
aS'+'
asS'PSTPIP1'
p2002
(lp2003
I76994679
aI77037475
aS'+'
asS'UBAP1L'
p2004
(lp2005
I65093003
aI65106359
aS'-'
asS'DTWD1'
p2006
(lp2007
I49621047
aI49656230
aS'+'
as.