(dp1
S'SNORA74C-2'
p2
(lp3
I49954211
aI49954415
aS'+'
asS'PHYHIPL'
p4
(lp5
I59176587
aI59247774
aS'+'
asS'ARHGAP19-SLIT1'
p6
(lp7
I97153041
aI97292673
aS'-'
asS'AS-PTPRE'
p8
(lp9
I128057731
aI128062425
aS'-'
asS'RPEL1'
p10
(lp11
I103245886
aI103248016
aS'+'
asS'AKR1C6P'
p12
(lp13
I4871666
aI4916273
aS'-'
asS'FAM160B1'
p14
(lp15
I114821743
aI114899827
aS'+'
asS'SEC23IP'
p16
(lp17
I119892572
aI119944658
aS'+'
asS'LINC00709'
p18
(lp19
I9275612
aI9287056
aS'+'
asS'LINC00706'
p20
(lp21
I6774302
aI6779180
aS'-'
asS'LINC00707'
p22
(lp23
I6779597
aI6842906
aS'+'
asS'HPSE2'
p24
(lp25
I98457076
aI99235875
aS'-'
asS'LINC00702'
p26
(lp27
I4206875
aI4243912
aS'-'
asS'LINC00703'
p28
(lp29
I4384245
aI4410612
aS'+'
asS'LINC00700'
p30
(lp31
I2005472
aI2014348
aS'-'
asS'LINC00701'
p32
(lp33
I2300318
aI2315074
aS'-'
asS'ARMH3'
p34
(lp35
I101845598
aI102056175
aS'-'
asS'C10orf113'
p36
(lp37
I21125762
aI21146559
aS'-'
asS'SGPL1'
p38
(lp39
I70815947
aI70881175
aS'+'
asS'C10orf111'
p40
(lp41
I15095384
aI15097319
aS'-'
asS'DLG5'
p42
(lp43
I77790790
aI77926590
aS'-'
asS'CXCL12'
p44
(lp45
I44370152
aI44385097
aS'-'
asS'LINC02564'
p46
(lp47
I11206
aI15576
aS'+'
asS'COMMD3'
p48
(lp49
I22316387
aI22320305
aS'+'
asS'LINC01264'
p50
(lp51
I42979016
aI42981507
aS'-'
asS'NDUFB8'
p52
(lp53
I100523728
aI100529923
aS'-'
asS'CALHM1'
p54
(lp55
I103453386
aI103458891
aS'-'
asS'LINC02561'
p56
(lp57
I5265988
aI5271236
aS'-'
asS'LINC01475'
p58
(lp59
I99526349
aI99531177
aS'-'
asS'ATRNL1'
p60
(lp61
I115093364
aI115948998
aS'+'
asS'MIR4297'
p62
(lp63
I129843298
aI129843374
aS'-'
asS'MIR4294'
p64
(lp65
I48985511
aI48985587
aS'-'
asS'MIR4295'
p66
(lp67
I112634169
aI112634254
aS'+'
asS'PPRC1'
p68
(lp69
I102132993
aI102150333
aS'+'
asS'MIR4293'
p70
(lp71
I14383199
aI14383277
aS'-'
asS'MARCH5'
p72
(lp73
I92291162
aI92353964
aS'+'
asS'NET1'
p74
(lp75
I5412556
aI5459056
aS'+'
asS'LOC101929574'
p76
(lp77
I80529596
aI80535942
aS'-'
asS'NRBF2'
p78
(lp79
I63133246
aI63155031
aS'+'
asS'ZSWIM8'
p80
(lp81
I73785623
aI73801798
aS'+'
asS'MIR3944'
p82
(lp83
I133371555
aI133371663
aS'-'
asS'GDF2'
p84
(lp85
I47322489
aI47327588
aS'+'
asS'PRXL2A'
p86
(lp87
I80407828
aI80432997
aS'+'
asS'SNORD158'
p88
(lp89
I116194731
aI116194789
aS'-'
asS'CYP2C8'
p90
(lp91
I95036771
aI95069497
aS'-'
asS'PPP2R2D'
p92
(lp93
I131900643
aI131959834
aS'+'
asS'CAMK2G'
p94
(lp95
I73812500
aI73874591
aS'-'
asS'CRTAC1'
p96
(lp97
I97864999
aI98030828
aS'-'
asS'STAMBPL1'
p98
(lp99
I88880186
aI88923502
aS'+'
asS'HSD17B7P2'
p100
(lp101
I38356379
aI38378505
aS'+'
asS'ABLIM1'
p102
(lp103
I114431109
aI114768269
aS'-'
asS'C10orf55'
p104
(lp105
I73909968
aI73922777
aS'-'
asS'LOC105376480'
p106
(lp107
I30723218
aI30723740
aS'+'
asS'MIR3663HG'
p108
(lp109
I117153520
aI117169055
aS'-'
asS'RSU1'
p110
(lp111
I16590617
aI16817454
aS'-'
asS'R3HCC1L'
p112
(lp113
I98134623
aI98244897
aS'+'
asS'DNMBP-AS1'
p114
(lp115
I99927204
aI99958998
aS'+'
asS'KAZALD1'
p116
(lp117
I101061241
aI101068141
aS'+'
asS'LZTS2'
p118
(lp119
I100997065
aI101007836
aS'+'
asS'KLLN'
p120
(lp121
I87859160
aI87863437
aS'-'
asS'CYP2C9'
p122
(lp123
I94938657
aI94990091
aS'+'
asS'PTER'
p124
(lp125
I16436942
aI16513745
aS'+'
asS'GRID1-AS1'
p126
(lp127
I85577730
aI85607215
aS'+'
asS'NPFFR1'
p128
(lp129
I70254956
aI70283694
aS'-'
asS'PTEN'
p130
(lp131
I87863624
aI87971930
aS'+'
asS'LOC441666'
p132
(lp133
I42331865
aI42368045
aS'-'
asS'P4HA1'
p134
(lp135
I73007221
aI73096974
aS'-'
asS'ARHGAP12'
p136
(lp137
I31805397
aI31928876
aS'-'
asS'CYP26A1'
p138
(lp139
I93073474
aI93077884
aS'+'
asS'PSTK'
p140
(lp141
I122980039
aI122990391
aS'+'
asS'CTBP2'
p142
(lp143
I124987848
aI125161061
aS'-'
asS'C10orf25'
p144
(lp145
I44993931
aI45000910
aS'-'
asS'NPS'
p146
(lp147
I127549348
aI127552671
aS'+'
asS'ARHGAP19'
p148
(lp149
I97222172
aI97292673
aS'-'
asS'ITGA8'
p150
(lp151
I15513948
aI15720335
aS'-'
asS'LINC00708'
p152
(lp153
I8259330
aI8268305
aS'-'
asS'MIR548F1'
p154
(lp155
I54607873
aI54607957
aS'-'
asS'LRIT2'
p156
(lp157
I84220490
aI84225589
aS'-'
asS'MIR6715A'
p158
(lp159
I112299611
aI112299690
aS'+'
asS'LRIT1'
p160
(lp161
I84231519
aI84241461
aS'-'
asS'CELF2'
p162
(lp163
I10462514
aI11331455
aS'+'
asS'UBE2D1'
p164
(lp165
I58334978
aI58370753
aS'+'
asS'SNORD130'
p166
(lp167
I28073236
aI28073378
aS'-'
asS'SFXN4'
p168
(lp169
I119140912
aI119165692
aS'-'
asS'SFXN2'
p170
(lp171
I102714517
aI102739190
aS'+'
asS'SFXN3'
p172
(lp173
I101031233
aI101041241
aS'+'
asS'GOLGA7B'
p174
(lp175
I97849842
aI97871578
aS'+'
asS'PDCD11'
p176
(lp177
I103396654
aI103446262
aS'+'
asS'SEPT7P9'
p178
(lp179
I38383022
aI38402927
aS'-'
asS'IFIT5'
p180
(lp181
I89414567
aI89420997
aS'+'
asS'MIR6715B'
p182
(lp183
I112299611
aI112299688
aS'-'
asS'IFIT3'
p184
(lp185
I89327818
aI89340968
aS'+'
asS'IFIT2'
p186
(lp187
I89301948
aI89309276
aS'+'
asS'IFIT1'
p188
(lp189
I89392545
aI89406487
aS'+'
asS'PANK1'
p190
(lp191
I89579496
aI89645572
aS'-'
asS'LINC00705'
p192
(lp193
I4656155
aI4662414
aS'+'
asS'LOC101928272'
p194
(lp195
I9197365
aI9295593
aS'-'
asS'TIMM23B'
p196
(lp197
I49942032
aI49974850
aS'+'
asS'SCART1'
p198
(lp199
I133453927
aI133469183
aS'+'
asS'KCNMA1'
p200
(lp201
I76869600
aI77637819
aS'-'
asS'MYPN'
p202
(lp203
I68106116
aI68212016
aS'+'
asS'SVIL-AS1'
p204
(lp205
I29409533
aI29487856
aS'+'
asS'SEMA4G'
p206
(lp207
I100972528
aI100985616
aS'+'
asS'KCNIP2'
p208
(lp209
I101825973
aI101843920
aS'-'
asS'ADGRA1-AS1'
p210
(lp211
I133085248
aI133086697
aS'-'
asS'GDF10'
p212
(lp213
I47300223
aI47313583
aS'+'
asS'SVIL2P'
p214
(lp215
I30692273
aI30717013
aS'+'
asS'AGAP11'
p216
(lp217
I86970740
aI87010203
aS'+'
asS'PDLIM1'
p218
(lp219
I95237567
aI95291148
aS'-'
asS'KCNK18'
p220
(lp221
I117197488
aI117210299
aS'+'
asS'CHUK'
p222
(lp223
I100188297
aI100229610
aS'-'
asS'LOC102031319'
p224
(lp225
I32347363
aI32374488
aS'+'
asS'RSU1P2'
p226
(lp227
I45099475
aI45154596
aS'-'
asS'MIR6072'
p228
(lp229
I2076018
aI2076089
aS'-'
asS'FAM24A'
p230
(lp231
I122910700
aI122913111
aS'+'
asS'GDI2'
p232
(lp233
I5765222
aI5813549
aS'-'
asS'NRG3-AS1'
p234
(lp235
I82229013
aI82232920
aS'-'
asS'CHST3'
p236
(lp237
I71964394
aI72013556
aS'+'
asS'BMS1P2'
p238
(lp239
I47535580
aI47553523
aS'-'
asS'ZEB1'
p240
(lp241
I31318494
aI31529814
aS'+'
asS'TACR2'
p242
(lp243
I69404201
aI69416918
aS'-'
asS'LRMDA'
p244
(lp245
I75431645
aI76557376
aS'+'
asS'CELF2-AS2'
p246
(lp247
I11071540
aI11105488
aS'-'
asS'MIR936'
p248
(lp249
I104048088
aI104048186
aS'-'
asS'RPL13AP5'
p250
(lp251
I96750265
aI96750923
aS'+'
asS'CELF2-AS1'
p252
(lp253
I11316833
aI11344674
aS'-'
asS'LOC283045'
p254
(lp255
I62339587
aI62375127
aS'-'
asS'LINC00844'
p256
(lp257
I58999517
aI59001617
aS'+'
asS'PTF1A'
p258
(lp259
I23192530
aI23194252
aS'+'
asS'MIR603'
p260
(lp261
I24275684
aI24275781
aS'+'
asS'PSAP'
p262
(lp263
I71816282
aI71851375
aS'-'
asS'DNAJC1'
p264
(lp265
I21756547
aI22003721
aS'-'
asS'MIR606'
p266
(lp267
I75552457
aI75552553
aS'+'
asS'MIR607'
p268
(lp269
I96828668
aI96828764
aS'-'
asS'HKDC1'
p270
(lp271
I69220302
aI69267559
aS'+'
asS'WDR37'
p272
(lp273
I1056835
aI1132297
aS'+'
asS'WDFY4'
p274
(lp275
I48685472
aI48982956
aS'+'
asS'MINDY3'
p276
(lp277
I15778168
aI15860533
aS'-'
asS'RRP12'
p278
(lp279
I97356700
aI97401370
aS'-'
asS'CCDC6'
p280
(lp281
I59788747
aI59906556
aS'-'
asS'MINPP1'
p282
(lp283
I87504465
aI87553461
aS'+'
asS'IL15RA'
p284
(lp285
I5952370
aI5978741
aS'-'
asS'INA'
p286
(lp287
I103277162
aI103290351
aS'+'
asS'LINC00840'
p288
(lp289
I43859410
aI43895433
aS'+'
asS'TIMM23B-AGAP6'
p290
(lp291
I49942052
aI50010516
aS'+'
asS'LOC112268068'
p292
(lp293
I58325628
aI58329679
aS'-'
asS'FGF8'
p294
(lp295
I101770129
aI101780369
aS'-'
asS'AP3M1'
p296
(lp297
I74120256
aI74151085
aS'-'
asS'RET'
p298
(lp299
I43077026
aI43130349
aS'+'
asS'LINC00856'
p300
(lp301
I78248624
aI78252645
aS'+'
asS'LINC00857'
p302
(lp303
I80207709
aI80219657
aS'+'
asS'ADRA2A'
p304
(lp305
I111077031
aI111080904
aS'+'
asS'SNORD172'
p306
(lp307
I75021732
aI75021791
aS'+'
asS'CDC123'
p308
(lp309
I12195961
aI12250590
aS'+'
asS'POLL'
p310
(lp311
I101578881
aI101588270
aS'-'
asS'LINC01514'
p312
(lp313
I101176321
aI101194147
aS'+'
asS'LINC01515'
p314
(lp315
I65571424
aI65766541
aS'+'
asS'PIK3AP1'
p316
(lp317
I96593311
aI96720522
aS'-'
asS'CCDC186'
p318
(lp319
I114120861
aI114174220
aS'-'
asS'UTF1'
p320
(lp321
I133230273
aI133231558
aS'+'
asS'MIR4296'
p322
(lp323
I125032782
aI125032870
aS'-'
asS'TLL2'
p324
(lp325
I96364605
aI96513926
aS'-'
asS'PARGP1'
p326
(lp327
I45854834
aI45972428
aS'-'
asS'ITPRIP'
p328
(lp329
I104309695
aI104338493
aS'-'
asS'MIR511'
p330
(lp331
I17845106
aI17845193
aS'+'
asS'NCOA4'
p332
(lp333
I46005087
aI46030714
aS'-'
asS'LOC101929431'
p334
(lp335
I32434368
aI32446056
aS'-'
asS'SKIDA1'
p336
(lp337
I21513479
aI21525682
aS'-'
asS'SMC3'
p338
(lp339
I110567690
aI110604634
aS'+'
asS'ANXA2P3'
p340
(lp341
I64825527
aI64826877
aS'+'
asS'TMEM26-AS1'
p342
(lp343
I61452638
aI61493431
aS'+'
asS'ATOH7'
p344
(lp345
I68230594
aI68232113
aS'-'
asS'FAM204A'
p346
(lp347
I118309059
aI118342327
aS'-'
asS'RBM17'
p348
(lp349
I6088985
aI6117459
aS'+'
asS'ATE1'
p350
(lp351
I121740420
aI121928801
aS'-'
asS'TM9SF3'
p352
(lp353
I96518109
aI96587052
aS'-'
asS'SNORA11F'
p354
(lp355
I73126079
aI73126207
aS'-'
asS'LCOR'
p356
(lp357
I96832259
aI96986212
aS'+'
asS'LOC105378430'
p358
(lp359
I91033165
aI91041255
aS'+'
asS'ADD3-AS1'
p360
(lp361
I109945558
aI110008381
aS'-'
asS'BEND7'
p362
(lp363
I13438483
aI13502976
aS'-'
asS'GRID1'
p364
(lp365
I85599552
aI86366795
aS'-'
asS'SCD'
p366
(lp367
I100347014
aI100364831
aS'+'
asS'PWWP2B'
p368
(lp369
I132397197
aI132417854
aS'+'
asS'CCNYL2'
p370
(lp371
I42408173
aI42472240
aS'-'
asS'LOC399815'
p372
(lp373
I122879632
aI122898714
aS'+'
asS'FRMPD2'
p374
(lp375
I48156562
aI48274696
aS'-'
asS'SAR1A'
p376
(lp377
I70147288
aI70170514
aS'-'
asS'RPL21'
p378
(lp379
I120354660
aI120355223
aS'-'
asS'NUTM2A-AS1'
p380
(lp381
I87238666
aI87342558
aS'-'
asS'PROSER2-AS1'
p382
(lp383
I11849607
aI11894710
aS'-'
asS'IL2RA'
p384
(lp385
I6010693
aI6062370
aS'-'
asS'ACTA2-AS1'
p386
(lp387
I88932683
aI88939974
aS'+'
asS'ZFYVE27'
p388
(lp389
I97737120
aI97760907
aS'+'
asS'ARID5B'
p390
(lp391
I61901698
aI62096944
aS'+'
asS'AVPI1'
p392
(lp393
I97677423
aI97687258
aS'-'
asS'SLC18A3'
p394
(lp395
I49610300
aI49612720
aS'+'
asS'GPR158'
p396
(lp397
I25175360
aI25602228
aS'+'
asS'ADARB2'
p398
(lp399
I1177312
aI1737476
aS'-'
asS'C10orf67'
p400
(lp401
I23202850
aI23344797
aS'-'
asS'CALY'
p402
(lp403
I133325422
aI133336983
aS'-'
asS'FAM25E'
p404
(lp405
I45815427
aI45817324
aS'-'
asS'C10orf62'
p406
(lp407
I97589692
aI97590934
aS'+'
asS'LOC103344931'
p408
(lp409
I112823495
aI112827732
aS'+'
asS'LOC101929445'
p410
(lp411
I42871520
aI42874060
aS'+'
asS'TUBGCP2'
p412
(lp413
I133278629
aI133312337
aS'-'
asS'MIR346'
p414
(lp415
I86264693
aI86264788
aS'-'
asS'CTSLP2'
p416
(lp417
I47580670
aI47583419
aS'-'
asS'CUEDC2'
p418
(lp419
I102423244
aI102432666
aS'-'
asS'EDRF1-AS1'
p420
(lp421
I125744726
aI125752060
aS'-'
asS'TMEM254'
p422
(lp423
I80078645
aI80092551
aS'+'
asS'CPEB3'
p424
(lp425
I92048639
aI92291118
aS'-'
asS'C10orf88'
p426
(lp427
I122930902
aI122954403
aS'-'
asS'SNORD3J'
p428
(lp429
I43417249
aI43417440
aS'-'
asS'SGMS1'
p430
(lp431
I50305600
aI50623956
aS'-'
asS'ST8SIA6-AS1'
p432
(lp433
I17386935
aI17408286
aS'+'
asS'HABP2'
p434
(lp435
I113550830
aI113589601
aS'+'
asS'C10orf82'
p436
(lp437
I116662211
aI116670264
aS'-'
asS'BLOC1S2'
p438
(lp439
I100273277
aI100286712
aS'-'
asS'MYOF'
p440
(lp441
I93306428
aI93482317
aS'-'
asS'ADGRA1'
p442
(lp443
I133088003
aI133131675
aS'+'
asS'SNCG'
p444
(lp445
I86955800
aI86963260
aS'+'
asS'STN1'
p446
(lp447
I103877559
aI103918287
aS'-'
asS'PIPSL'
p448
(lp449
I93958139
aI93961915
aS'-'
asS'KLF6'
p450
(lp451
I3775995
aI3785281
aS'-'
asS'FAM133CP'
p452
(lp453
I58715014
aI58717533
aS'+'
asS'MIR2110'
p454
(lp455
I114174104
aI114174179
aS'-'
asS'MIR548AK'
p456
(lp457
I12130759
aI12130816
aS'-'
asS'SLIT1'
p458
(lp459
I96998037
aI97185959
aS'-'
asS'SLIT1-AS1'
p460
(lp461
I97102755
aI97103747
aS'+'
asS'DCLRE1A'
p462
(lp463
I113834723
aI113854404
aS'-'
asS'MTRNR2L7'
p464
(lp465
I37601437
aI37602931
aS'-'
asS'CLRN3'
p466
(lp467
I127877840
aI127892941
aS'-'
asS'MTRNR2L5'
p468
(lp469
I55598989
aI55600727
aS'+'
asS'ELOVL3'
p470
(lp471
I102226298
aI102229587
aS'+'
asS'ITGB1'
p472
(lp473
I32900317
aI32958365
aS'-'
asS'LOC101928298'
p474
(lp475
I10058721
aI10063502
aS'+'
asS'MCM10'
p476
(lp477
I13161553
aI13211104
aS'+'
asS'NPY4R2'
p478
(lp479
I47921928
aI47923377
aS'+'
asS'SPOCK2'
p480
(lp481
I72059033
aI72089032
aS'-'
asS'KIF20B'
p482
(lp483
I89701589
aI89774943
aS'+'
asS'LOC105376444'
p484
(lp485
I21340232
aI21372950
aS'-'
asS'DYDC1'
p486
(lp487
I80336105
aI80356758
aS'-'
asS'SUFU'
p488
(lp489
I102503961
aI102633457
aS'+'
asS'LOC101929662'
p490
(lp491
I85432862
aI85448956
aS'+'
asS'SNORA12'
p492
(lp493
I100237155
aI100237302
aS'-'
asS'FAM24B-CUZD1'
p494
(lp495
I122832154
aI122879641
aS'-'
asS'NRP1'
p496
(lp497
I33177490
aI33334905
aS'-'
asS'LOC642361'
p498
(lp499
I79825901
aI79827602
aS'+'
asS'AKR1C8P'
p500
(lp501
I5154459
aI5185187
aS'-'
asS'PARD3'
p502
(lp503
I34109559
aI34815325
aS'-'
asS'EXOC6'
p504
(lp505
I92826830
aI93059494
aS'+'
asS'BTRC'
p506
(lp507
I101354032
aI101557321
aS'+'
asS'LOC101927964'
p508
(lp509
I4051725
aI4089013
aS'+'
asS'LOC102724589'
p510
(lp511
I114994656
aI114996593
aS'+'
asS'RNU6-1'
p512
(lp513
I13217268
aI13217374
aS'+'
asS'LHPP'
p514
(lp515
I124461771
aI124614141
aS'+'
asS'ANK3'
p516
(lp517
I60026297
aI60733526
aS'-'
asS'ACBD7'
p518
(lp519
I15075474
aI15088776
aS'-'
asS'ACTR1A'
p520
(lp521
I102479228
aI102502755
aS'-'
asS'SUPV3L1'
p522
(lp523
I69180203
aI69209098
aS'+'
asS'CCEPR'
p524
(lp525
I59173962
aI59176464
aS'-'
asS'PPP3CB'
p526
(lp527
I73436427
aI73496024
aS'-'
asS'OGA'
p528
(lp529
I101784442
aI101818465
aS'-'
asS'MKI67'
p530
(lp531
I128096660
aI128126423
aS'-'
asS'SFTPD'
p532
(lp533
I79937739
aI79949105
aS'-'
asS'FLJ37201'
p534
(lp535
I89691299
aI89697928
aS'-'
asS'MIR146B'
p536
(lp537
I102436511
aI102436584
aS'+'
asS'FUOM'
p538
(lp539
I133355153
aI133358025
aS'-'
asS'IDI1'
p540
(lp541
I1039419
aI1056716
aS'-'
asS'IDI2'
p542
(lp543
I1018906
aI1025859
aS'-'
asS'IPMK'
p544
(lp545
I58191516
aI58267934
aS'-'
asS'TSPAN14'
p546
(lp547
I80454264
aI80522630
aS'+'
asS'TSPAN15'
p548
(lp549
I69451466
aI69507669
aS'+'
asS'DHTKD1'
p550
(lp551
I12068916
aI12123228
aS'+'
asS'SFMBT2'
p552
(lp553
I7158623
aI7411486
aS'-'
asS'HPS6'
p554
(lp555
I102065366
aI102068038
aS'+'
asS'HPS1'
p556
(lp557
I98416197
aI98446963
aS'-'
asS'MIR202'
p558
(lp559
I133247510
aI133247620
aS'-'
asS'LINC01553'
p560
(lp561
I59958216
aI59960913
aS'-'
asS'EBLN1'
p562
(lp563
I22208813
aI22209983
aS'-'
asS'FOXI2'
p564
(lp565
I127737273
aI127741186
aS'+'
asS'MARCH8'
p566
(lp567
I45454584
aI45594906
aS'-'
asS'SNORA74C-1'
p568
(lp569
I45984607
aI45984811
aS'+'
asS'ATAD1'
p570
(lp571
I87751511
aI87818231
aS'-'
asS'LOC105376360'
p572
(lp573
I3318694
aI3750763
aS'+'
asS'LOC105376365'
p574
(lp575
I3833949
aI3834728
aS'+'
asS'CCSER2'
p576
(lp577
I84328588
aI84518521
aS'+'
asS'EIF3A'
p578
(lp579
I119033671
aI119080884
aS'-'
asS'FAM25BP'
p580
(lp581
I46369086
aI46373563
aS'+'
asS'C10orf105'
p582
(lp583
I71711700
aI71737824
aS'-'
asS'GATA3'
p584
(lp585
I8054703
aI8075201
aS'+'
asS'NEURL1-AS1'
p586
(lp587
I103479602
aI103517442
aS'-'
asS'IDI2-AS1'
p588
(lp589
I1022636
aI1044201
aS'+'
asS'CACUL1'
p590
(lp591
I118676410
aI118754970
aS'-'
asS'VSIR'
p592
(lp593
I71747555
aI71773520
aS'-'
asS'LOC107001062'
p594
(lp595
I47407164
aI47414574
aS'+'
asS'KNDC1'
p596
(lp597
I133160218
aI133226412
aS'+'
asS'JAKMIP3'
p598
(lp599
I132065966
aI132184809
aS'+'
asS'LOC112577516'
p600
(lp601
I122672881
aI122679048
aS'+'
asS'MIR7151'
p602
(lp603
I67403350
aI67403410
aS'-'
asS'MIR7152'
p604
(lp605
I71790746
aI71790800
aS'+'
asS'LIPF'
p606
(lp607
I88664388
aI88678815
aS'+'
asS'LIPK'
p608
(lp609
I88724543
aI88752756
aS'+'
asS'LIPJ'
p610
(lp611
I88586761
aI88606976
aS'+'
asS'LIPM'
p612
(lp613
I88802729
aI88820546
aS'+'
asS'LOC105378311'
p614
(lp615
I54486229
aI54656051
aS'+'
asS'LOC728158'
p616
(lp617
I126425929
aI126460957
aS'+'
asS'POU5F1P5'
p618
(lp619
I68009946
aI68010883
aS'-'
asS'LDB3'
p620
(lp621
I86668448
aI86736067
aS'+'
asS'SNORD129'
p622
(lp623
I7186679
aI7186784
aS'-'
asS'LDB1'
p624
(lp625
I102106491
aI102120473
aS'-'
asS'NMT2'
p626
(lp627
I15105771
aI15168696
aS'-'
asS'SEC24C'
p628
(lp629
I73744372
aI73772175
aS'+'
asS'PROSER2'
p630
(lp631
I11823397
aI11872277
aS'+'
asS'LOC101928961'
p632
(lp633
I66894109
aI67012153
aS'-'
asS'CYP17A1'
p634
(lp635
I102830530
aI102837413
aS'-'
asS'LINC01520'
p636
(lp637
I85449591
aI85492001
aS'+'
asS'NUDT9P1'
p638
(lp639
I91152005
aI91153080
aS'-'
asS'MARK2P9'
p640
(lp641
I92418660
aI92419606
aS'+'
asS'C10orf120'
p642
(lp643
I122697708
aI122699825
aS'-'
asS'CSTF2T'
p644
(lp645
I51695485
aI51699595
aS'-'
asS'VIM'
p646
(lp647
I17228209
aI17237597
aS'+'
asS'MRPL43'
p648
(lp649
I100977821
aI100987515
aS'-'
asS'ECHS1'
p650
(lp651
I133362482
aI133373404
aS'-'
asS'UBTD1'
p652
(lp653
I97498881
aI97571210
aS'+'
asS'GSTO2'
p654
(lp655
I104268872
aI104299418
aS'+'
asS'PLEKHA1'
p656
(lp657
I122374577
aI122432355
aS'+'
asS'FRMPD2B'
p658
(lp659
I46876673
aI46895326
aS'+'
asS'ENTPD1-AS1'
p660
(lp661
I95753205
aI96090235
aS'-'
asS'MIR8086'
p662
(lp663
I28289257
aI28289350
aS'-'
asS'ABCC2'
p664
(lp665
I99782639
aI99852594
aS'+'
asS'LOC105378367'
p666
(lp667
I75712454
aI75743848
aS'+'
asS'PPA1'
p668
(lp669
I70202829
aI70233434
aS'-'
asS'SLC29A3'
p670
(lp671
I71319252
aI71363390
aS'+'
asS'CCAR1'
p672
(lp673
I68721143
aI68792377
aS'+'
asS'MIR3611'
p674
(lp675
I35079597
aI35079680
aS'-'
asS'STAM'
p676
(lp677
I17644124
aI17716822
aS'+'
asS'ZSWIM8-AS1'
p678
(lp679
I73796513
aI73801399
aS'-'
asS'MIR4675'
p680
(lp681
I20551969
aI20552046
aS'+'
asS'MIR4676'
p682
(lp683
I72721028
aI72721100
aS'+'
asS'OPN4'
p684
(lp685
I86654546
aI86666459
aS'+'
asS'CALHM3'
p686
(lp687
I103472803
aI103479240
aS'-'
asS'LINC00601'
p688
(lp689
I126413868
aI126421879
aS'-'
asS'LIPA'
p690
(lp691
I89213568
aI89252039
aS'-'
asS'PLA2G12B'
p692
(lp693
I72934761
aI72954819
aS'-'
asS'DDX50'
p694
(lp695
I68901277
aI68946847
aS'+'
asS'MIR4678'
p696
(lp697
I87503880
aI87503954
aS'+'
asS'MIR3663'
p698
(lp699
I117167677
aI117167774
aS'-'
asS'AKR1C1'
p700
(lp701
I4963414
aI4983282
aS'+'
asS'DMBT1'
p702
(lp703
I122560664
aI122643736
aS'+'
asS'NUTM2B-AS1'
p704
(lp705
I79691499
aI79826594
aS'-'
asS'PRKG1'
p706
(lp707
I50990887
aI52298350
aS'+'
asS'LRRTM3'
p708
(lp709
I66926033
aI67101551
aS'+'
asS'LBX1-AS1'
p710
(lp711
I101229593
aI101238859
aS'+'
asS'PRR26'
p712
(lp713
I649947
aI665169
aS'+'
asS'TNKS2'
p714
(lp715
I91798425
aI91865475
aS'+'
asS'SHLD2'
p716
(lp717
I87095164
aI87191483
aS'+'
asS'PLXDC2'
p718
(lp719
I19816442
aI20289855
aS'+'
asS'C10orf53'
p720
(lp721
I49679629
aI49710261
aS'+'
asS'RASGEF1A'
p722
(lp723
I43194532
aI43266919
aS'-'
asS'SUV39H2'
p724
(lp725
I14878782
aI14904305
aS'+'
asS'EMX2OS'
p726
(lp727
I117484292
aI117545068
aS'-'
asS'BUB3'
p728
(lp729
I123154401
aI123170467
aS'+'
asS'TCERG1L-AS1'
p730
(lp731
I131095217
aI131095777
aS'+'
asS'DUPD1'
p732
(lp733
I75037783
aI75058583
aS'-'
asS'NUDT5'
p734
(lp735
I12165327
aI12196144
aS'-'
asS'MLLT10'
p736
(lp737
I21533348
aI21743630
aS'+'
asS'PLEKHS1'
p738
(lp739
I113751453
aI113782433
aS'+'
asS'ZNF25'
p740
(lp741
I37949571
aI37976655
aS'-'
asS'CCDC3'
p742
(lp743
I12896624
aI13099773
aS'-'
asS'DMBT1P1'
p744
(lp745
I122756693
aI122797645
aS'+'
asS'TRDMT1'
p746
(lp747
I17137335
aI17202071
aS'-'
asS'CCDC7'
p748
(lp749
I32446081
aI32882864
aS'+'
asS'ZNF22'
p750
(lp751
I45000824
aI45005329
aS'+'
asS'MIR1307'
p752
(lp753
I103394252
aI103394401
aS'-'
asS'MIR938'
p754
(lp755
I29602263
aI29602346
aS'-'
asS'STK32C'
p756
(lp757
I132207481
aI132331875
aS'-'
asS'PRKCQ-AS1'
p758
(lp759
I6580424
aI6585361
aS'+'
asS'TIAL1'
p760
(lp761
I119573465
aI119597029
aS'-'
asS'MIR1915'
p762
(lp763
I21496561
aI21496641
aS'-'
asS'CALML3'
p764
(lp765
I5524888
aI5526268
aS'+'
asS'COMTD1'
p766
(lp767
I75233655
aI75236066
aS'-'
asS'RPL13AP6'
p768
(lp769
I110936602
aI110937255
aS'-'
asS'CALML5'
p770
(lp771
I5498694
aI5499570
aS'-'
asS'ATP5F1C'
p772
(lp773
I7788103
aI7807799
aS'+'
asS'TRIM8'
p774
(lp775
I102644494
aI102658319
aS'+'
asS'CREM'
p776
(lp777
I35126840
aI35212958
aS'+'
asS'PCDH15'
p778
(lp779
I53821099
aI55627942
aS'-'
asS'ZNF503'
p780
(lp781
I75279725
aI75401894
aS'-'
asS'MTG1'
p782
(lp783
I133394116
aI133422529
aS'+'
asS'COX15'
p784
(lp785
I99694792
aI99732666
aS'-'
asS'MYO3A'
p786
(lp787
I25934072
aI26212536
aS'+'
asS'CABCOCO1'
p788
(lp789
I61662928
aI61766406
aS'+'
asS'LINC00993'
p790
(lp791
I37309185
aI37347028
aS'+'
asS'ZNF239'
p792
(lp793
I43556344
aI43574618
aS'-'
asS'PAOX'
p794
(lp795
I133379236
aI133391696
aS'+'
asS'NODAL'
p796
(lp797
I70431935
aI70447948
aS'-'
asS'NFKB2'
p798
(lp799
I102394109
aI102402529
aS'+'
asS'LOC101927419'
p800
(lp801
I101252820
aI101263550
aS'-'
asS'LINC00999'
p802
(lp803
I38428145
aI38452153
aS'+'
asS'CASP7'
p804
(lp805
I113679161
aI113730909
aS'+'
asS'KIF11'
p806
(lp807
I92593067
aI92655395
aS'+'
asS'CHAT'
p808
(lp809
I49609094
aI49665104
aS'+'
asS'PGAM1'
p810
(lp811
I97426124
aI97433444
aS'+'
asS'AKR1C4'
p812
(lp813
I5196834
aI5218947
aS'+'
asS'STAM-AS1'
p814
(lp815
I17641283
aI17643918
aS'-'
asS'ANKRD30BP3'
p816
(lp817
I45154661
aI45186041
aS'+'
asS'ITIH2'
p818
(lp819
I7703272
aI7749520
aS'+'
asS'ITIH5'
p820
(lp821
I7559269
aI7666966
aS'-'
asS'AS3MT'
p822
(lp823
I102869452
aI102901898
aS'+'
asS'AKR1C2'
p824
(lp825
I4987775
aI5018033
aS'-'
asS'AKR1C3'
p826
(lp827
I5048765
aI5107686
aS'+'
asS'LINC00858'
p828
(lp829
I84279979
aI84294659
aS'+'
asS'ECD'
p830
(lp831
I73134523
aI73168095
aS'-'
asS'OLMALINC'
p832
(lp833
I100373575
aI100388354
aS'+'
asS'FLJ37035'
p834
(lp835
I125705289
aI125719493
aS'-'
asS'TMEM72-AS1'
p836
(lp837
I44811023
aI44959689
aS'-'
asS'FAM208B'
p838
(lp839
I5684837
aI5763740
aS'+'
asS'LOC283038'
p840
(lp841
I125683242
aI125709677
aS'+'
asS'UCMA'
p842
(lp843
I13221765
aI13234374
aS'-'
asS'PITRM1-AS1'
p844
(lp845
I3141600
aI3148629
aS'+'
asS'ENKUR'
p846
(lp847
I24981978
aI25062279
aS'-'
asS'RAB18'
p848
(lp849
I27504173
aI27542237
aS'+'
asS'C10orf71'
p850
(lp851
I49299141
aI49327492
aS'+'
asS'DUX4'
p852
(lp853
I133756557
aI133768430
aS'+'
asS'LOC101927523'
p854
(lp855
I104474939
aI104480275
aS'-'
asS'MIR202HG'
p856
(lp857
I133246478
aI133247885
aS'-'
asS'DNMBP'
p858
(lp859
I99875570
aI100009953
aS'-'
asS'ZNF438'
p860
(lp861
I30844635
aI31031937
aS'-'
asS'JCAD'
p862
(lp863
I30012799
aI30115494
aS'-'
asS'LOC102724719'
p864
(lp865
I51062578
aI51068552
aS'-'
asS'PLPP4'
p866
(lp867
I120456953
aI120589864
aS'+'
asS'LARP4B'
p868
(lp869
I806913
aI931705
aS'-'
asS'TET1'
p870
(lp871
I68560359
aI68694482
aS'+'
asS'SEPHS1'
p872
(lp873
I13317437
aI13348298
aS'-'
asS'LINC00867'
p874
(lp875
I118357107
aI118359203
aS'+'
asS'LINC00866'
p876
(lp877
I97828477
aI97849798
aS'-'
asS'LINC00865'
p878
(lp879
I89829492
aI89840861
aS'+'
asS'LINC00864'
p880
(lp881
I87396573
aI87407700
aS'-'
asS'LINC01163'
p882
(lp883
I128285949
aI128317726
aS'+'
asS'NUDT13'
p884
(lp885
I73110374
aI73131828
aS'+'
asS'DKK1'
p886
(lp887
I52314280
aI52317657
aS'+'
asS'PTCHD3'
p888
(lp889
I27398187
aI27414368
aS'-'
asS'AGAP5'
p890
(lp891
I73674274
aI73697796
aS'-'
asS'AGAP6'
p892
(lp893
I49988317
aI50010516
aS'+'
asS'LOC101928887'
p894
(lp895
I64901135
aI64924518
aS'-'
asS'AGAP9'
p896
(lp897
I47501853
aI47523638
aS'-'
asS'UROS'
p898
(lp899
I125784980
aI125823268
aS'-'
asS'LINC01561'
p900
(lp901
I120597948
aI120600123
aS'+'
asS'MAPK8'
p902
(lp903
I48306638
aI48439359
aS'+'
asS'COL17A1'
p904
(lp905
I104031285
aI104085880
aS'-'
asS'CNNM1'
p906
(lp907
I99329098
aI99394331
aS'+'
asS'CNNM2'
p908
(lp909
I102918317
aI103078587
aS'+'
asS'FBXW4'
p910
(lp911
I101610663
aI101695295
aS'-'
asS'RTKN2'
p912
(lp913
I62193085
aI62268863
aS'-'
asS'CDK1'
p914
(lp915
I60778330
aI60794852
aS'+'
asS'SHOC2'
p916
(lp917
I110919369
aI111013667
aS'+'
asS'FAM107B'
p918
(lp919
I14518556
aI14774897
aS'-'
asS'ZNF33B'
p920
(lp921
I42574182
aI42638837
aS'-'
asS'CDH23-AS1'
p922
(lp923
I71508152
aI71511920
aS'-'
asS'MCMBP'
p924
(lp925
I119829403
aI119873628
aS'-'
asS'ZNF33A'
p926
(lp927
I38010649
aI38067834
aS'+'
asS'CPN1'
p928
(lp929
I100042307
aI100081885
aS'-'
asS'SH3PXD2A'
p930
(lp931
I103594026
aI103855406
aS'-'
asS'SVIL'
p932
(lp933
I29457347
aI29737001
aS'-'
asS'MIR6507'
p934
(lp935
I98924498
aI98924568
aS'-'
asS'ADARB2-AS1'
p936
(lp937
I1526629
aI1557008
aS'+'
asS'PCBD1'
p938
(lp939
I70882280
aI70888786
aS'-'
asS'PRDX3'
p940
(lp941
I119167698
aI119178865
aS'-'
asS'ERCC6'
p942
(lp943
I49454479
aI49539123
aS'-'
asS'ASAH2B'
p944
(lp945
I50739687
aI50757186
aS'+'
asS'MRPS16'
p946
(lp947
I73248842
aI73252693
aS'-'
asS'LGI1'
p948
(lp949
I93757808
aI93798174
aS'+'
asS'FAM13C'
p950
(lp951
I59246128
aI59363181
aS'-'
asS'SORBS1'
p952
(lp953
I95311772
aI95561420
aS'-'
asS'PITX3'
p954
(lp955
I102230188
aI102241474
aS'-'
asS'BMI1'
p956
(lp957
I22321098
aI22331484
aS'+'
asS'LOC100130992'
p958
(lp959
I22252071
aI22258548
aS'+'
asS'PNLIPRP1'
p960
(lp961
I116590958
aI116609175
aS'+'
asS'PNLIPRP3'
p962
(lp963
I116427911
aI116477956
aS'+'
asS'ERLIN1'
p964
(lp965
I100150089
aI100186057
aS'-'
asS'LOXL4'
p966
(lp967
I98247685
aI98268250
aS'-'
asS'ASAH2'
p968
(lp969
I50184860
aI50248610
aS'-'
asS'MMRN2'
p970
(lp971
I86935540
aI86957668
aS'-'
asS'OLAH'
p972
(lp973
I15043895
aI15073852
aS'+'
asS'PFKP'
p974
(lp975
I3067519
aI3136805
aS'+'
asS'LINC00863'
p976
(lp977
I87342735
aI87357302
aS'+'
asS'LOC101929352'
p978
(lp979
I31187882
aI31261552
aS'+'
asS'MRLN'
p980
(lp981
I59736989
aI59753445
aS'-'
asS'DNAJC12'
p982
(lp983
I67796668
aI67838179
aS'-'
asS'LINC01164'
p984
(lp985
I131772397
aI131790199
aS'-'
asS'LINC01167'
p986
(lp987
I132961339
aI132962237
aS'-'
asS'LINC01166'
p988
(lp989
I132943966
aI132965289
aS'-'
asS'LINC01168'
p990
(lp991
I132965533
aI132976497
aS'+'
asS'AGAP12P'
p992
(lp993
I48010133
aI48031640
aS'-'
asS'CUZD1'
p994
(lp995
I122832154
aI122846175
aS'-'
asS'SLC25A16'
p996
(lp997
I68477997
aI68527523
aS'-'
asS'LOC102724264'
p998
(lp999
I43777565
aI43778902
aS'-'
asS'FAM24B'
p1000
(lp1001
I122849093
aI122879641
aS'-'
asS'DRGX'
p1002
(lp1003
I49366115
aI49396016
aS'-'
asS'VCL'
p1004
(lp1005
I73998113
aI74120156
aS'+'
asS'FAS-AS1'
p1006
(lp1007
I88991423
aI88992975
aS'-'
asS'LOC101927880'
p1008
(lp1009
I3433511
aI3502838
aS'-'
asS'CASC2'
p1010
(lp1011
I118046820
aI118210153
aS'+'
asS'MIR4482'
p1012
(lp1013
I104268335
aI104268405
aS'-'
asS'BMS1'
p1014
(lp1015
I42782505
aI42834937
aS'+'
asS'EBF3'
p1016
(lp1017
I129835231
aI129963827
aS'-'
asS'PBLD'
p1018
(lp1019
I68282659
aI68332927
aS'-'
asS'SLK'
p1020
(lp1021
I103967184
aI104029233
aS'+'
asS'PRKCQ'
p1022
(lp1023
I6394096
aI6580301
aS'-'
asS'FFAR4'
p1024
(lp1025
I93566664
aI93590072
aS'+'
asS'CTNNA3'
p1026
(lp1027
I65912517
aI67696191
aS'-'
asS'SLC16A9'
p1028
(lp1029
I59650763
aI59710079
aS'-'
asS'BMS1P21'
p1030
(lp1031
I79904897
aI79931801
aS'+'
asS'DDX21'
p1032
(lp1033
I68956122
aI68985069
aS'+'
asS'CHST15'
p1034
(lp1035
I124007665
aI124093607
aS'-'
asS'LOC101930421'
p1036
(lp1037
I628563
aI631255
aS'+'
asS'LOC101928453'
p1038
(lp1039
I14074283
aI14087879
aS'+'
asS'EDRF1'
p1040
(lp1041
I125719514
aI125764143
aS'+'
asS'PFKFB3'
p1042
(lp1043
I6144877
aI6235544
aS'+'
asS'ABI1'
p1044
(lp1045
I26746595
aI26861087
aS'-'
asS'C10orf71-AS1'
p1046
(lp1047
I49296282
aI49298893
aS'-'
asS'TLX1'
p1048
(lp1049
I101131303
aI101137789
aS'+'
asS'JMJD1C-AS1'
p1050
(lp1051
I63465228
aI63466562
aS'+'
asS'NSUN6'
p1052
(lp1053
I18545560
aI18659256
aS'-'
asS'XLOC_008559'
p1054
(lp1055
I90947299
aI90992132
aS'+'
asS'VTI1A'
p1056
(lp1057
I112447214
aI112855368
aS'+'
asS'CYP2C18'
p1058
(lp1059
I94683493
aI94736191
aS'+'
asS'DPYSL4'
p1060
(lp1061
I132186947
aI132205759
aS'+'
asS'KAT6B'
p1062
(lp1063
I74826412
aI75032622
aS'+'
asS'MCU'
p1064
(lp1065
I72692130
aI72887694
aS'+'
asS'OR13A1'
p1066
(lp1067
I45302653
aI45315608
aS'-'
asS'SLF2'
p1068
(lp1069
I100912568
aI100965134
aS'+'
asS'KCNIP2-AS1'
p1070
(lp1071
I101819067
aI101828889
aS'+'
asS'HECTD2'
p1072
(lp1073
I91409234
aI91514828
aS'+'
asS'ADD3'
p1074
(lp1075
I109996349
aI110135565
aS'+'
asS'ACADSB'
p1076
(lp1077
I123008912
aI123058290
aS'+'
asS'GLUD1P2'
p1078
(lp1079
I46759022
aI46786770
aS'-'
asS'GLUD1P3'
p1080
(lp1081
I73730561
aI73731771
aS'+'
asS'KCNMA1-AS3'
p1082
(lp1083
I77350871
aI77376613
aS'+'
asS'LOC105376453'
p1084
(lp1085
I23343956
aI23345159
aS'+'
asS'ATE1-AS1'
p1086
(lp1087
I121928311
aI121951965
aS'+'
asS'LOC101929073'
p1088
(lp1089
I25924377
aI25933710
aS'-'
asS'ZNF37BP'
p1090
(lp1091
I42513510
aI42552870
aS'-'
asS'UNC5B-AS1'
p1092
(lp1093
I71217223
aI71218228
aS'-'
asS'ASB13'
p1094
(lp1095
I5638856
aI5666595
aS'-'
asS'PKD2L1'
p1096
(lp1097
I100288145
aI100330486
aS'-'
asS'POLR3A'
p1098
(lp1099
I77975148
aI78029540
aS'-'
asS'PPP3CB-AS1'
p1100
(lp1101
I73495751
aI73507309
aS'+'
asS'SYT15'
p1102
(lp1103
I46579015
aI46594172
aS'+'
asS'MAP3K8'
p1104
(lp1105
I30434020
aI30461833
aS'+'
asS'SLC35G1'
p1106
(lp1107
I93893969
aI93909833
aS'+'
asS'PPP1R3C'
p1108
(lp1109
I91628440
aI91633101
aS'-'
asS'MIR1296'
p1110
(lp1111
I63372956
aI63373048
aS'-'
asS'TRUB1'
p1112
(lp1113
I114938192
aI114977680
aS'+'
asS'MPP7'
p1114
(lp1115
I28050993
aI28303066
aS'-'
asS'ACSM6'
p1116
(lp1117
I95194199
aI95228929
aS'+'
asS'MANCR'
p1118
(lp1119
I4650184
aI4678070
aS'-'
asS'MARVELD1'
p1120
(lp1121
I97713707
aI97718152
aS'+'
asS'GSTO1'
p1122
(lp1123
I104254193
aI104267464
aS'+'
asS'FAM25C'
p1124
(lp1125
I47487218
aI47491700
aS'-'
asS'CDNF'
p1126
(lp1127
I14819251
aI14837984
aS'-'
asS'FAM25A'
p1128
(lp1129
I87020288
aI87024730
aS'+'
asS'GJD4'
p1130
(lp1131
I35605409
aI35608935
aS'+'
asS'FAM25G'
p1132
(lp1133
I47487235
aI47491700
aS'-'
asS'CUL2'
p1134
(lp1135
I35008550
aI35090642
aS'-'
asS'SORCS3-AS1'
p1136
(lp1137
I104664607
aI104666216
aS'-'
asS'SNORA19'
p1138
(lp1139
I119060010
aI119060138
aS'-'
asS'CFL1P1'
p1140
(lp1141
I87818312
aI87845612
aS'+'
asS'CDH23'
p1142
(lp1143
I71396933
aI71815947
aS'+'
asS'LOC102724593'
p1144
(lp1145
I47743698
aI47759041
aS'+'
asS'MIR5699'
p1146
(lp1147
I641688
aI641778
aS'-'
asS'ARMC4P1'
p1148
(lp1149
I27258761
aI27335055
aS'+'
asS'SGMS1-AS1'
p1150
(lp1151
I50624950
aI50631636
aS'+'
asS'CFAP70'
p1152
(lp1153
I73253757
aI73358859
aS'-'
asS'SLC25A28'
p1154
(lp1155
I99610517
aI99620464
aS'-'
asS'MTPAP'
p1156
(lp1157
I30309800
aI30349338
aS'-'
asS'FGFR2'
p1158
(lp1159
I121478329
aI121598458
aS'-'
asS'FBH1'
p1160
(lp1161
I5889571
aI5937595
aS'+'
asS'LOC105376351'
p1162
(lp1163
I2446252
aI2501462
aS'-'
asS'INPP5A'
p1164
(lp1165
I132537786
aI132783480
aS'+'
asS'GHITM'
p1166
(lp1167
I84139508
aI84153568
aS'+'
asS'ZNF511'
p1168
(lp1169
I133308888
aI133313162
aS'+'
asS'MIR548E'
p1170
(lp1171
I110988925
aI110989013
aS'+'
asS'INPP5F'
p1172
(lp1173
I119726046
aI119829150
aS'+'
asS'KIF5B'
p1174
(lp1175
I32009009
aI32056443
aS'-'
asS'TCF7L2'
p1176
(lp1177
I112950249
aI113167677
aS'+'
asS'PLCE1-AS2'
p1178
(lp1179
I94081949
aI94108794
aS'-'
asS'OAT'
p1180
(lp1181
I124397302
aI124418976
aS'-'
asS'MIR3155B'
p1182
(lp1183
I6152206
aI6152262
aS'-'
asS'KIN'
p1184
(lp1185
I7750961
aI7788027
aS'-'
asS'MIR3155A'
p1186
(lp1187
I6152195
aI6152277
aS'+'
asS'ZNF37A'
p1188
(lp1189
I38094335
aI38150269
aS'+'
asS'GBF1'
p1190
(lp1191
I102245497
aI102382899
aS'+'
asS'MEIG1'
p1192
(lp1193
I14959354
aI14988047
aS'+'
asS'LOC101929279'
p1194
(lp1195
I30211851
aI30232690
aS'+'
asS'CH25H'
p1196
(lp1197
I89205936
aI89207314
aS'-'
asS'MIR4679-2'
p1198
(lp1199
I89063334
aI89063411
aS'-'
asS'RGR'
p1200
(lp1201
I84245052
aI84259188
aS'+'
asS'MIR7162'
p1202
(lp1203
I30368596
aI30368665
aS'-'
asS'APBB1IP'
p1204
(lp1205
I26438336
aI26567803
aS'+'
asS'YME1L1'
p1206
(lp1207
I27110110
aI27154420
aS'-'
asS'TIMM23'
p1208
(lp1209
I45972452
aI46003741
aS'+'
asS'LOC105378305'
p1210
(lp1211
I52556979
aI52755404
aS'-'
asS'DOCK1'
p1212
(lp1213
I126905408
aI127452517
aS'+'
asS'VENTX'
p1214
(lp1215
I133237903
aI133241930
aS'+'
asS'TECTB'
p1216
(lp1217
I112283399
aI112305038
aS'+'
asS'SNORA86'
p1218
(lp1219
I32901333
aI32901472
aS'-'
asS'SNORA87'
p1220
(lp1221
I113045354
aI113045576
aS'+'
asS'LINC00836'
p1222
(lp1223
I25651711
aI25732935
aS'+'
asS'LINC00837'
p1224
(lp1225
I28789310
aI28796050
aS'-'
asS'LINC00838'
p1226
(lp1227
I33759712
aI33772680
aS'-'
asS'LINC00839'
p1228
(lp1229
I42475490
aI42495337
aS'+'
asS'SPRNP1'
p1230
(lp1231
I133566933
aI133569958
aS'-'
asS'CFAP58'
p1232
(lp1233
I104353832
aI104455102
aS'+'
asS'MBL1P'
p1234
(lp1235
I79920177
aI79923119
aS'+'
asS'DPCD'
p1236
(lp1237
I101588287
aI101609664
aS'+'
asS'LOC644215'
p1238
(lp1239
I97418746
aI97426057
aS'-'
asS'FAM238A'
p1240
(lp1241
I26589864
aI26594322
aS'+'
asS'ZMYND11'
p1242
(lp1243
I134464
aI254637
aS'+'
asS'CHCHD1'
p1244
(lp1245
I73782047
aI73783652
aS'+'
asS'EMX2'
p1246
(lp1247
I117542444
aI117549546
aS'+'
asS'EGR2'
p1248
(lp1249
I62811995
aI62819167
aS'-'
asS'TBATA'
p1250
(lp1251
I70771237
aI70785419
aS'-'
asS'C10orf91'
p1252
(lp1253
I132445188
aI132448306
aS'+'
asS'BICC1'
p1254
(lp1255
I58513143
aI58831437
aS'+'
asS'EIF5AL1'
p1256
(lp1257
I79512600
aI79516436
aS'+'
asS'DNAJB12'
p1258
(lp1259
I72332829
aI72354919
aS'-'
asS'ARHGAP22-IT1'
p1260
(lp1261
I48509851
aI48511589
aS'-'
asS'LOC105378397'
p1262
(lp1263
I83672405
aI83677089
aS'-'
asS'MSMB'
p1264
(lp1265
I46033304
aI46046269
aS'-'
asS'JMJD1C'
p1266
(lp1267
I63167220
aI63522075
aS'-'
asS'ANXA11'
p1268
(lp1269
I80155123
aI80205677
aS'-'
asS'HNRNPA1P33'
p1270
(lp1271
I46415914
aI46416456
aS'+'
asS'TMEM72'
p1272
(lp1273
I44911315
aI44937010
aS'+'
asS'ZNF32-AS3'
p1274
(lp1275
I43628816
aI43674699
aS'+'
asS'ZNF32-AS2'
p1276
(lp1277
I43645941
aI43648019
aS'+'
asS'ZNF32-AS1'
p1278
(lp1279
I43643871
aI43645047
aS'+'
asS'EXOSC1'
p1280
(lp1281
I97435908
aI97446017
aS'-'
asS'NOLC1'
p1282
(lp1283
I102152175
aI102163871
aS'+'
asS'AGAP7P'
p1284
(lp1285
I46109494
aI46131678
aS'+'
asS'FAM149B1'
p1286
(lp1287
I73168118
aI73242181
aS'+'
asS'CISD1'
p1288
(lp1289
I58269161
aI58289585
aS'+'
asS'DEPP1'
p1290
(lp1291
I44976260
aI44978882
aS'-'
asS'MIR1265'
p1292
(lp1293
I14436575
aI14436661
aS'+'
asS'TUBB8'
p1294
(lp1295
I46887
aI49238
aS'-'
asS'NHLRC2'
p1296
(lp1297
I113854660
aI113917192
aS'+'
asS'UNC5B'
p1298
(lp1299
I71212534
aI71302878
aS'+'
asS'MFSD13A'
p1300
(lp1301
I102461394
aI102477045
aS'+'
asS'LBX1'
p1302
(lp1303
I101226975
aI101228960
aS'-'
asS'GPAM'
p1304
(lp1305
I112149863
aI112183779
aS'-'
asS'NEBL-AS1'
p1306
(lp1307
I21173989
aI21174923
aS'+'
asS'LINC00619'
p1308
(lp1309
I43845305
aI43850622
aS'+'
asS'BCCIP'
p1310
(lp1311
I125823534
aI125853695
aS'+'
asS'GUCY2GP'
p1312
(lp1313
I112308177
aI112356595
aS'-'
asS'HERC4'
p1314
(lp1315
I67921898
aI68075346
aS'-'
asS'LINC00595'
p1316
(lp1317
I78267341
aI78280213
aS'+'
asS'PAX2'
p1318
(lp1319
I100735708
aI100829941
aS'+'
asS'DLG5-AS1'
p1320
(lp1321
I77926811
aI77929825
aS'+'
asS'MIR4484'
p1322
(lp1323
I125819739
aI125819822
aS'+'
asS'MIR4483'
p1324
(lp1325
I113777992
aI113778054
aS'-'
asS'EEF1AKMT2'
p1326
(lp1327
I124757830
aI124791941
aS'-'
asS'MIR4481'
p1328
(lp1329
I12653137
aI12653197
aS'-'
asS'MIR4480'
p1330
(lp1331
I12578752
aI12578823
aS'+'
asS'ZDHHC16'
p1332
(lp1333
I97446130
aI97457370
aS'+'
asS'DCLRE1CP1'
p1334
(lp1335
I15015071
aI15035425
aS'-'
asS'LINC00200'
p1336
(lp1337
I1159767
aI1164672
aS'+'
asS'NANOS1'
p1338
(lp1339
I119029715
aI119033732
aS'+'
asS'ST8SIA6'
p1340
(lp1341
I17315413
aI17454387
aS'-'
asS'PRTFDC1'
p1342
(lp1343
I24848606
aI24952644
aS'-'
asS'CTAGE7P'
p1344
(lp1345
I130106008
aI130108837
aS'+'
asS'PSD'
p1346
(lp1347
I102402616
aI102419934
aS'-'
asS'SPRN'
p1348
(lp1349
I133420665
aI133424617
aS'-'
asS'FRG2B'
p1350
(lp1351
I133625098
aI133626795
aS'-'
asS'VWA2'
p1352
(lp1353
I114239253
aI114294500
aS'+'
asS'EIF4EBP2'
p1354
(lp1355
I70404104
aI70428618
aS'+'
asS'PALD1'
p1356
(lp1357
I70478766
aI70568450
aS'+'
asS'TWNK'
p1358
(lp1359
I100987535
aI100994401
aS'+'
asS'CYP26C1'
p1360
(lp1361
I93060797
aI93069540
aS'+'
asS'BAG3'
p1362
(lp1363
I119651369
aI119677817
aS'+'
asS'RPP38'
p1364
(lp1365
I15097179
aI15104257
aS'+'
asS'ANAPC16'
p1366
(lp1367
I72215999
aI72235860
aS'+'
asS'MORN4'
p1368
(lp1369
I97614552
aI97634156
aS'-'
asS'RPP30'
p1370
(lp1371
I90871951
aI90908555
aS'+'
asS'MIR3156-1'
p1372
(lp1373
I45164013
aI45164088
aS'+'
asS'MSRB2'
p1374
(lp1375
I23095578
aI23122013
aS'+'
asS'RBP4'
p1376
(lp1377
I93591835
aI93601744
aS'-'
asS'BMS1P1'
p1378
(lp1379
I46786732
aI46811988
aS'+'
asS'PLCE1'
p1380
(lp1381
I93993988
aI94328391
aS'+'
asS'ADAMTS14'
p1382
(lp1383
I70672505
aI70762439
aS'+'
asS'TLX1NB'
p1384
(lp1385
I101089320
aI101131146
aS'-'
asS'UPF2'
p1386
(lp1387
I11920021
aI12043170
aS'-'
asS'SRGN'
p1388
(lp1389
I69087445
aI69104811
aS'+'
asS'VDAC2'
p1390
(lp1391
I75210153
aI75231448
aS'+'
asS'BTBD16'
p1392
(lp1393
I122271295
aI122338180
aS'+'
asS'ZNF503-AS1'
p1394
(lp1395
I75296382
aI75361678
aS'+'
asS'ZNF503-AS2'
p1396
(lp1397
I75401527
aI75408982
aS'+'
asS'LOC102723665'
p1398
(lp1399
I96830631
aI96832458
aS'-'
asS'MIR3158-1'
p1400
(lp1401
I101601416
aI101601497
aS'+'
asS'OPTN'
p1402
(lp1403
I13100081
aI13138276
aS'+'
asS'NPY4R'
p1404
(lp1405
I47918738
aI47923524
aS'+'
asS'PGBD3'
p1406
(lp1407
I49515104
aI49524281
aS'-'
asS'C10orf95'
p1408
(lp1409
I102449836
aI102451543
aS'-'
asS'DNAJC9-AS1'
p1410
(lp1411
I73247366
aI73276984
aS'+'
asS'CSGALNACT2'
p1412
(lp1413
I43138444
aI43185306
aS'+'
asS'CPXM2'
p1414
(lp1415
I123745635
aI123891984
aS'-'
asS'MASTL'
p1416
(lp1417
I27154823
aI27187953
aS'+'
asS'LOC101928150'
p1418
(lp1419
I6618715
aI6639781
aS'+'
asS'LINC00502'
p1420
(lp1421
I91045807
aI91062159
aS'+'
asS'BMS1P4'
p1422
(lp1423
I73699150
aI73730514
aS'-'
asS'GPR158-AS1'
p1424
(lp1425
I25158071
aI25176276
aS'-'
asS'WBP1L'
p1426
(lp1427
I102743969
aI102816264
aS'+'
asS'STOX1'
p1428
(lp1429
I68827536
aI68895453
aS'+'
asS'RPARP-AS1'
p1430
(lp1431
I102449816
aI102456293
aS'+'
asS'PDCD4-AS1'
p1432
(lp1433
I110868889
aI110870904
aS'-'
asS'FGFBP3'
p1434
(lp1435
I91906587
aI91909501
aS'-'
asS'ARL5B'
p1436
(lp1437
I18659334
aI18681639
aS'+'
asS'ENO4'
p1438
(lp1439
I116849511
aI116882601
aS'+'
asS'ANTXRLP1'
p1440
(lp1441
I46219024
aI46269608
aS'-'
asS'MIR608'
p1442
(lp1443
I100974984
aI100975084
aS'+'
asS'ZNF248'
p1444
(lp1445
I37758537
aI37858084
aS'-'
asS'CEP55'
p1446
(lp1447
I93496611
aI93529092
aS'+'
asS'MIR378C'
p1448
(lp1449
I130962587
aI130962668
aS'-'
asS'SHLD2P3'
p1450
(lp1451
I47689699
aI47731218
aS'+'
asS'LOC101927549'
p1452
(lp1453
I105673609
aI105820333
aS'-'
asS'SHLD2P1'
p1454
(lp1455
I46610471
aI46651976
aS'-'
asS'ARMS2'
p1456
(lp1457
I122454652
aI122457352
aS'+'
asS'SFTPA1'
p1458
(lp1459
I79610938
aI79615443
aS'+'
asS'WAC'
p1460
(lp1461
I28532587
aI28623112
aS'+'
asS'TEX36'
p1462
(lp1463
I125576521
aI125683144
aS'-'
asS'LOC102723439'
p1464
(lp1465
I74506499
aI74529324
aS'-'
asS'CERNA2'
p1466
(lp1467
I84167227
aI84172076
aS'-'
asS'LOC105376468'
p1468
(lp1469
I28433007
aI28495813
aS'-'
asS'LOC105376398'
p1470
(lp1471
I8572746
aI8594391
aS'-'
asS'BTAF1'
p1472
(lp1473
I91923769
aI92031437
aS'+'
asS'FAM171A1'
p1474
(lp1475
I15211644
aI15371059
aS'-'
asS'LOC399715'
p1476
(lp1477
I6326543
aI6335981
aS'+'
asS'LOC399716'
p1478
(lp1479
I6350315
aI6353808
aS'+'
asS'SFRP5'
p1480
(lp1481
I97766750
aI97771999
aS'-'
asS'PIP4K2A'
p1482
(lp1483
I22534836
aI22714574
aS'-'
asS'LOC102723703'
p1484
(lp1485
I80531249
aI80533123
aS'+'
asS'ADIRF'
p1486
(lp1487
I86968430
aI86970909
aS'+'
asS'LOC283028'
p1488
(lp1489
I42751185
aI42755203
aS'-'
asS'LOC101929234'
p1490
(lp1491
I75409156
aI75411324
aS'+'
asS'LOC101928322'
p1492
(lp1493
I10419537
aI10462349
aS'-'
asS'ADRB1'
p1494
(lp1495
I114044046
aI114046908
aS'+'
asS'WDR11'
p1496
(lp1497
I120851174
aI120909526
aS'+'
asS'COL13A1'
p1498
(lp1499
I69801887
aI69959148
aS'+'
asS'CDHR1'
p1500
(lp1501
I84194634
aI84219620
aS'+'
asS'ZMIZ1-AS1'
p1502
(lp1503
I78943325
aI79067448
aS'-'
asS'PPIF'
p1504
(lp1505
I79347468
aI79355333
aS'+'
asS'ZMIZ1'
p1506
(lp1507
I79069034
aI79316528
aS'+'
asS'KIAA1217'
p1508
(lp1509
I23694745
aI24547848
aS'+'
asS'ACTR3BP5'
p1510
(lp1511
I38696595
aI38698240
aS'+'
asS'MIR4679-1'
p1512
(lp1513
I89063335
aI89063410
aS'+'
asS'LOC100130698'
p1514
(lp1515
I80247757
aI80255408
aS'+'
asS'BBIP1'
p1516
(lp1517
I110898729
aI110919366
aS'-'
asS'CAMK1D'
p1518
(lp1519
I12349542
aI12835545
aS'+'
asS'CUTC'
p1520
(lp1521
I99732200
aI99756137
aS'+'
asS'GPRIN2'
p1522
(lp1523
I46543973
aI46556071
aS'-'
asS'MIR604'
p1524
(lp1525
I29545003
aI29545097
aS'-'
asS'LOC105378349'
p1526
(lp1527
I70939052
aI70955641
aS'+'
asS'DIP2C'
p1528
(lp1529
I274189
aI689668
aS'-'
asS'MIR605'
p1530
(lp1531
I51299572
aI51299655
aS'+'
asS'LRRC27'
p1532
(lp1533
I132332192
aI132381508
aS'+'
asS'BMPR1A'
p1534
(lp1535
I86756638
aI86925188
aS'+'
asS'CYP2E1'
p1536
(lp1537
I133527362
aI133539116
aS'+'
asS'VSTM4'
p1538
(lp1539
I49014235
aI49115522
aS'-'
asS'ANKRD16'
p1540
(lp1541
I5861725
aI5889897
aS'-'
asS'UCN3'
p1542
(lp1543
I5365008
aI5374692
aS'+'
asS'LOC105378269'
p1544
(lp1545
I42755141
aI42769621
aS'+'
asS'DCLRE1C'
p1546
(lp1547
I14897563
aI14954432
aS'-'
asS'MICU1'
p1548
(lp1549
I72367325
aI72626191
aS'-'
asS'MKX'
p1550
(lp1551
I27672873
aI27745849
aS'-'
asS'MIR107'
p1552
(lp1553
I89592746
aI89592827
aS'-'
asS'DYDC2'
p1554
(lp1555
I80344744
aI80368073
aS'+'
asS'PTPN20'
p1556
(lp1557
I46911395
aI47002320
aS'+'
asS'DNA2'
p1558
(lp1559
I68414063
aI68472121
aS'-'
asS'MIR3157'
p1560
(lp1561
I96064314
aI96064399
aS'-'
asS'WAC-AS1'
p1562
(lp1563
I28519916
aI28532354
aS'-'
asS'DHX32'
p1564
(lp1565
I125836339
aI125881315
aS'-'
asS'PDE6C'
p1566
(lp1567
I93612587
aI93665672
aS'+'
asS'CFAP46'
p1568
(lp1569
I132808391
aI132942570
aS'-'
asS'FAS'
p1570
(lp1571
I88990558
aI89017061
aS'+'
asS'AKR1E2'
p1572
(lp1573
I4826176
aI4848059
aS'+'
asS'CFAP43'
p1574
(lp1575
I104129887
aI104232377
aS'-'
asS'BNIP3'
p1576
(lp1577
I131967682
aI131982013
aS'-'
asS'ANKRD30A'
p1578
(lp1579
I37125856
aI37232567
aS'+'
asS'NUTM2D'
p1580
(lp1581
I87357719
aI87370695
aS'+'
asS'NUTM2E'
p1582
(lp1583
I79841357
aI79850878
aS'+'
asS'NUTM2B'
p1584
(lp1585
I79703226
aI79712757
aS'+'
asS'SLC16A12'
p1586
(lp1587
I89430293
aI89535556
aS'-'
asS'NRG3'
p1588
(lp1589
I81875313
aI82987179
aS'+'
asS'OGDHL'
p1590
(lp1591
I49734640
aI49762379
aS'-'
asS'NT5C2'
p1592
(lp1593
I103088016
aI103193306
aS'-'
asS'FANK1'
p1594
(lp1595
I125896534
aI126009592
aS'+'
asS'CFAP58-DT'
p1596
(lp1597
I104351300
aI104353575
aS'-'
asS'SFTA1P'
p1598
(lp1599
I10784438
aI10794914
aS'-'
asS'MAT1A'
p1600
(lp1601
I80271819
aI80289678
aS'-'
asS'MIR548Q'
p1602
(lp1603
I12725253
aI12725353
aS'-'
asS'ANXA7'
p1604
(lp1605
I73375100
aI73414085
aS'-'
asS'CALHM2'
p1606
(lp1607
I103446785
aI103452405
aS'-'
asS'ANXA8'
p1608
(lp1609
I47467993
aI47484158
aS'-'
asS'PDCD4'
p1610
(lp1611
I110871794
aI110900006
aS'+'
asS'GTPBP4'
p1612
(lp1613
I988408
aI1017768
aS'+'
asS'PNLIPRP2'
p1614
(lp1615
I116620952
aI116645143
aS'+'
asS'RHOBTB1'
p1616
(lp1617
I60869439
aI61001468
aS'-'
asS'SYNPO2L'
p1618
(lp1619
I73644885
aI73656029
aS'-'
asS'NSMCE4A'
p1620
(lp1621
I121957087
aI121975228
aS'-'
asS'LIPN'
p1622
(lp1623
I88761405
aI88778242
aS'+'
asS'FAM53B'
p1624
(lp1625
I124619293
aI124744361
aS'-'
asS'LINC00710'
p1626
(lp1627
I10934939
aI10952163
aS'-'
asS'DUSP13'
p1628
(lp1629
I75094431
aI75109212
aS'-'
asS'ZDHHC6'
p1630
(lp1631
I112424429
aI112447603
aS'-'
asS'LINC01374'
p1632
(lp1633
I89853905
aI89914956
aS'+'
asS'LINC01375'
p1634
(lp1635
I89915488
aI89957373
aS'-'
asS'LOC102723376'
p1636
(lp1637
I11720
aI15576
aS'+'
asS'PCAT5'
p1638
(lp1639
I35778301
aI35800920
aS'+'
asS'SHTN1'
p1640
(lp1641
I116900311
aI117126586
aS'-'
asS'LOC101927692'
p1642
(lp1643
I114764787
aI114779903
aS'+'
asS'MIR4683'
p1644
(lp1645
I35641171
aI35641252
aS'-'
asS'ECHDC3'
p1646
(lp1647
I11742356
aI11764066
aS'+'
asS'CCDC172'
p1648
(lp1649
I116324427
aI116380029
aS'+'
asS'NOC3L'
p1650
(lp1651
I94333225
aI94362976
aS'-'
asS'KIF1BP'
p1652
(lp1653
I68988720
aI69016983
aS'+'
asS'EPC1'
p1654
(lp1655
I32267715
aI32378798
aS'-'
asS'MMP21'
p1656
(lp1657
I125766455
aI125775821
aS'-'
asS'LOC105755953'
p1658
(lp1659
I8897988
aI8914596
aS'+'
asS'ANTXRL'
p1660
(lp1661
I46286996
aI46330207
aS'+'
asS'SEC61A2'
p1662
(lp1663
I12129640
aI12169958
aS'+'
asS'PRF1'
p1664
(lp1665
I70597347
aI70602788
aS'-'
asS'PARG'
p1666
(lp1667
I49818273
aI49942027
aS'-'
asS'FXYD4'
p1668
(lp1669
I43371643
aI43376335
aS'+'
asS'MALRD1'
p1670
(lp1671
I19048770
aI19734478
aS'+'
asS'ZRANB1'
p1672
(lp1673
I124942122
aI124987436
aS'+'
asS'LOC101927762'
p1674
(lp1675
I933025
aI942743
aS'+'
asS'SLC39A12-AS1'
p1676
(lp1677
I18001785
aI18010562
aS'-'
asS'TMEM273'
p1678
(lp1679
I49154723
aI49188414
aS'-'
asS'HACD1'
p1680
(lp1681
I17589958
aI17617374
aS'-'
asS'GLRX3'
p1682
(lp1683
I130136374
aI130180382
aS'+'
asS'ZFAND4'
p1684
(lp1685
I45615500
aI45672813
aS'-'
asS'PNLIP'
p1686
(lp1687
I116545923
aI116567858
aS'+'
asS'HNRNPA3P1'
p1688
(lp1689
I43787411
aI43790417
aS'-'
asS'PI4K2A'
p1690
(lp1691
I97640685
aI97676432
aS'+'
asS'NKX2-3'
p1692
(lp1693
I99532941
aI99536523
aS'+'
asS'ALDH18A1'
p1694
(lp1695
I95605928
aI95656810
aS'-'
asS'GOLGA2P6'
p1696
(lp1697
I30364326
aI30371907
aS'-'
asS'SLC39A12'
p1698
(lp1699
I17951838
aI18043292
aS'+'
asS'MRC1'
p1700
(lp1701
I17809342
aI17911162
aS'+'
asS'DNTT'
p1702
(lp1703
I96304327
aI96338564
aS'+'
asS'PLAU'
p1704
(lp1705
I73911100
aI73917500
aS'+'
asS'HIF1AN'
p1706
(lp1707
I100535942
aI100559995
aS'+'
asS'NDST2'
p1708
(lp1709
I73801910
aI73811849
aS'-'
asS'GRK5'
p1710
(lp1711
I119207684
aI119455619
aS'+'
asS'MIR4454'
p1712
(lp1713
I6635069
aI6635121
aS'+'
asS'MIR3941'
p1714
(lp1715
I122416964
aI122417067
aS'+'
asS'MYOZ1'
p1716
(lp1717
I73631611
aI73641757
aS'-'
asS'SYCE1'
p1718
(lp1719
I133553899
aI133568275
aS'-'
asS'ARHGAP22'
p1720
(lp1721
I48446024
aI48656265
aS'-'
asS'ARHGAP21'
p1722
(lp1723
I24583608
aI24723668
aS'-'
asS'MIR3158-2'
p1724
(lp1725
I101601416
aI101601497
aS'-'
asS'SFTPA2'
p1726
(lp1727
I79555851
aI79560461
aS'-'
asS'PITRM1'
p1728
(lp1729
I3137726
aI3172841
aS'-'
asS'SLC18A2'
p1730
(lp1731
I117241113
aI117279491
aS'+'
asS'GOT1'
p1732
(lp1733
I99396869
aI99430773
aS'-'
asS'TDRD1'
p1734
(lp1735
I114179352
aI114232669
aS'+'
asS'BLNK'
p1736
(lp1737
I96191698
aI96271576
aS'-'
asS'ENTPD7'
p1738
(lp1739
I99659376
aI99711245
aS'+'
asS'FAM45A'
p1740
(lp1741
I119104064
aI119137984
aS'+'
asS'DDIT4'
p1742
(lp1743
I72273923
aI72276036
aS'+'
asS'ENTPD1'
p1744
(lp1745
I95711778
aI95877266
aS'+'
asS'C10orf126'
p1746
(lp1747
I28846407
aI28881897
aS'+'
asS'SPAG6'
p1748
(lp1749
I22345444
aI22417610
aS'+'
asS'H2AFY2'
p1750
(lp1751
I70052600
aI70112284
aS'+'
asS'ALOX5'
p1752
(lp1753
I45374165
aI45446119
aS'+'
asS'HK1'
p1754
(lp1755
I69269999
aI69401881
aS'+'
asS'ZNF365'
p1756
(lp1757
I62374156
aI62672011
aS'+'
asS'ANXA8L1'
p1758
(lp1759
I46375589
aI46391783
aS'+'
asS'LOC101929646'
p1760
(lp1761
I85431942
aI85432772
aS'-'
asS'HTR7'
p1762
(lp1763
I90740818
aI90857914
aS'-'
asS'BAMBI'
p1764
(lp1765
I28677494
aI28682939
aS'+'
asS'RBP3'
p1766
(lp1767
I47348370
aI47357875
aS'+'
asS'ANKRD22'
p1768
(lp1769
I88819901
aI88851975
aS'-'
asS'OTUD1'
p1770
(lp1771
I23439268
aI23442381
aS'+'
asS'MGMT'
p1772
(lp1773
I129467240
aI129770983
aS'+'
asS'LOC101927699'
p1774
(lp1775
I46582168
aI46598145
aS'-'
asS'PRAP1'
p1776
(lp1777
I133347339
aI133352683
aS'+'
asS'GPR26'
p1778
(lp1779
I123666354
aI123697397
aS'+'
asS'PRKG1-AS1'
p1780
(lp1781
I52296847
aI52314128
aS'-'
asS'LINC01518'
p1782
(lp1783
I42673012
aI42691759
aS'-'
asS'FUT11'
p1784
(lp1785
I73772275
aI73776218
aS'+'
asS'TMEM254-AS1'
p1786
(lp1787
I80046232
aI80079193
aS'-'
asS'PCGF5'
p1788
(lp1789
I91163011
aI91284331
aS'+'
asS'LINC01519'
p1790
(lp1791
I85193420
aI85198938
aS'-'
asS'MIR1287'
p1792
(lp1793
I98395217
aI98395307
aS'-'
asS'PCGF6'
p1794
(lp1795
I103302795
aI103351140
aS'-'
asS'CCNY'
p1796
(lp1797
I35246980
aI35572670
aS'+'
asS'ADAM8'
p1798
(lp1799
I133262415
aI133276903
aS'-'
asS'SLC16A12-AS1'
p1800
(lp1801
I89455990
aI89468151
aS'+'
asS'NKX1-2'
p1802
(lp1803
I124445238
aI124449981
aS'-'
asS'GFRA1'
p1804
(lp1805
I116056930
aI116273645
aS'-'
asS'ZNF32'
p1806
(lp1807
I43643861
aI43648881
aS'-'
asS'CCNJ'
p1808
(lp1809
I96043401
aI96060868
aS'+'
asS'IFIT1B'
p1810
(lp1811
I89378055
aI89385205
aS'+'
asS'VIM-AS1'
p1812
(lp1813
I17214238
aI17229985
aS'-'
asS'RAB11FIP2'
p1814
(lp1815
I118004915
aI118046941
aS'-'
asS'BEND3P3'
p1816
(lp1817
I79682974
aI79688894
aS'+'
asS'TNKS2-AS1'
p1818
(lp1819
I91782838
aI91798291
aS'-'
asS'AFAP1L2'
p1820
(lp1821
I114294823
aI114404778
aS'-'
asS'LOC101927278'
p1822
(lp1823
I98446320
aI98453805
aS'+'
asS'ZWINT'
p1824
(lp1825
I56357227
aI56361259
aS'-'
asS'ACTA2'
p1826
(lp1827
I88935073
aI88991397
aS'-'
asS'RASSF4'
p1828
(lp1829
I44959770
aI44994724
aS'+'
asS'LINC01435'
p1830
(lp1831
I107871575
aI108069293
aS'-'
asS'ACSL5'
p1832
(lp1833
I112374157
aI112428380
aS'+'
asS'FAM53B-AS1'
p1834
(lp1835
I124704027
aI124714760
aS'+'
asS'MMS19'
p1836
(lp1837
I97458323
aI97498794
aS'-'
asS'LOC101928994'
p1838
(lp1839
I69215332
aI69232490
aS'-'
asS'FAM241B'
p1840
(lp1841
I69630246
aI69633599
aS'+'
asS'NEBL'
p1842
(lp1843
I20779973
aI21174187
aS'-'
asS'FRAT2'
p1844
(lp1845
I97332496
aI97334701
aS'-'
asS'PLAC9'
p1846
(lp1847
I80131682
aI80145064
aS'+'
asS'TCTN3'
p1848
(lp1849
I95663395
aI95694143
aS'-'
asS'MIR609'
p1850
(lp1851
I104218788
aI104218883
aS'-'
asS'LOC101929165'
p1852
(lp1853
I74912785
aI74936402
aS'+'
asS'HTRA1'
p1854
(lp1855
I122461524
aI122514908
aS'+'
asS'MIR4685'
p1856
(lp1857
I98431291
aI98431360
aS'-'
asS'GATA3-AS1'
p1858
(lp1859
I8050449
aI8053484
aS'-'
asS'LINC01516'
p1860
(lp1861
I25113057
aI25161233
aS'+'
asS'NEUROG3'
p1862
(lp1863
I69572034
aI69573454
aS'-'
asS'LINC01517'
p1864
(lp1865
I28743649
aI28808219
aS'+'
asS'SAMD8'
p1866
(lp1867
I75111634
aI75182123
aS'+'
asS'BORCS7'
p1868
(lp1869
I102854209
aI102864961
aS'+'
asS'SIRT1'
p1870
(lp1871
I67884668
aI67918390
aS'+'
asS'C1QL3'
p1872
(lp1873
I16513742
aI16522005
aS'-'
asS'MIR6078'
p1874
(lp1875
I3991159
aI3991259
aS'+'
asS'LOC729815'
p1876
(lp1877
I79506369
aI79510982
aS'-'
asS'SH2D4B'
p1878
(lp1879
I80537901
aI80646560
aS'+'
asS'LOC105378330'
p1880
(lp1881
I63430574
aI63431202
aS'+'
asS'FAM21EP'
p1882
(lp1883
I50021181
aI50067803
aS'-'
asS'ABRAXAS2'
p1884
(lp1885
I124801784
aI124836670
aS'+'
asS'MIR3924'
p1886
(lp1887
I57304478
aI57304559
aS'-'
asS'ZCCHC24'
p1888
(lp1889
I79382326
aI79445627
aS'-'
asS'LINC00845'
p1890
(lp1891
I61016274
aI61026417
aS'+'
asS'ANKRD26'
p1892
(lp1893
I27004115
aI27100498
aS'-'
asS'LINC00841'
p1894
(lp1895
I43909295
aI43981265
aS'+'
asS'LINP1'
p1896
(lp1897
I6737381
aI6738939
aS'+'
asS'LINC00842'
p1898
(lp1899
I46398361
aI46453306
aS'+'
asS'MIR4682'
p1900
(lp1901
I119958512
aI119958592
aS'+'
asS'C10orf143'
p1902
(lp1903
I130063897
aI130110821
aS'-'
asS'C10orf142'
p1904
(lp1905
I44292749
aI44294649
aS'+'
asS'TAF5'
p1906
(lp1907
I103367952
aI103389066
aS'+'
asS'TUBAL3'
p1908
(lp1909
I5393097
aI5404830
aS'-'
asS'TAF3'
p1910
(lp1911
I7818503
aI8015053
aS'+'
asS'LRRC18'
p1912
(lp1913
I48909483
aI48914235
aS'-'
asS'USP54'
p1914
(lp1915
I73497537
aI73626059
aS'-'
asS'PPIAP30'
p1916
(lp1917
I15154721
aI15155347
aS'-'
asS'ACBD7-DCLRE1CP1'
p1918
(lp1919
I15015071
aI15088776
aS'-'
asS'XPNPEP1'
p1920
(lp1921
I109864765
aI109923553
aS'-'
asS'PDZD7'
p1922
(lp1923
I101007682
aI101031157
aS'-'
asS'LOC105378386'
p1924
(lp1925
I80649796
aI80653734
aS'+'
asS'LOC105378385'
p1926
(lp1927
I79628757
aI79663185
aS'-'
asS'LOC107984282'
p1928
(lp1929
I132508443
aI132536923
aS'-'
asS'RNU6-8'
p1930
(lp1931
I13217268
aI13217374
aS'+'
asS'RNU6-9'
p1932
(lp1933
I13217268
aI13217375
aS'+'
asS'RBM20'
p1934
(lp1935
I110644396
aI110839471
aS'+'
asS'AIFM2'
p1936
(lp1937
I70112266
aI70132934
aS'-'
asS'ASCC1'
p1938
(lp1939
I72096031
aI72217134
aS'-'
asS'RNU6-7'
p1940
(lp1941
I13217268
aI13217374
aS'+'
asS'A1CF'
p1942
(lp1943
I50799408
aI50885675
aS'-'
asS'RNU6-2'
p1944
(lp1945
I13217268
aI13217375
aS'+'
asS'PDZD8'
p1946
(lp1947
I117280488
aI117375467
aS'-'
asS'ZNF33BP1'
p1948
(lp1949
I37793937
aI37795175
aS'-'
asS'VAX1'
p1950
(lp1951
I117128520
aI117138301
aS'-'
asS'SORCS1'
p1952
(lp1953
I106573662
aI107164708
aS'-'
asS'SORCS3'
p1954
(lp1955
I104641289
aI105265242
aS'+'
asS'LOC100499489'
p1956
(lp1957
I22435424
aI22437929
aS'-'
asS'PYROXD2'
p1958
(lp1959
I98383564
aI98415221
aS'-'
asS'RUFY2'
p1960
(lp1961
I68341106
aI68407294
aS'-'
asS'HNRNPH3'
p1962
(lp1963
I68331692
aI68343196
aS'+'
asS'IKZF5'
p1964
(lp1965
I122990805
aI123008850
aS'-'
asS'IDE'
p1966
(lp1967
I92451683
aI92574095
aS'-'
asS'CWF19L1'
p1968
(lp1969
I100232295
aI100267681
aS'-'
asS'GAD2'
p1970
(lp1971
I26216306
aI26304562
aS'+'
asS'SFR1'
p1972
(lp1973
I104122057
aI104126385
aS'+'
asS'DNAJC9'
p1974
(lp1975
I73241955
aI73247255
aS'-'
asS'NUTM2A'
p1976
(lp1977
I87225447
aI87234976
aS'+'
asS'MKX-AS1'
p1978
(lp1979
I27744614
aI27767799
aS'+'
asS'FZD8'
p1980
(lp1981
I35638248
aI35641434
aS'-'
asS'CACNB2'
p1982
(lp1983
I18140676
aI18541759
aS'+'
asS'LRRC37A6P'
p1984
(lp1985
I27245852
aI27252306
aS'-'
asS'NEURL1'
p1986
(lp1987
I103493977
aI103592552
aS'+'
asS'ZEB1-AS1'
p1988
(lp1989
I31307716
aI31319095
aS'-'
asS'HSPA12A'
p1990
(lp1991
I116671191
aI116849777
aS'-'
asS'SMNDC1'
p1992
(lp1993
I110293039
aI110304949
aS'-'
asS'TYSND1'
p1994
(lp1995
I70137980
aI70146740
aS'-'
asS'DUSP5'
p1996
(lp1997
I110497866
aI110511544
aS'+'
asS'REEP3'
p1998
(lp1999
I63521362
aI63625123
aS'+'
asS'PHYH'
p2000
(lp2001
I13277795
aI13300130
aS'-'
asS'MSS51'
p2002
(lp2003
I73423578
aI73433561
aS'-'
asS'HNRNPF'
p2004
(lp2005
I43385616
aI43409248
aS'-'
asS'HELLS'
p2006
(lp2007
I94545766
aI94602099
aS'+'
asS'HHEX'
p2008
(lp2009
I92689923
aI92695651
aS'+'
asS'FRAT1'
p2010
(lp2011
I97319264
aI97321915
aS'+'
asS'PDSS1'
p2012
(lp2013
I26697423
aI26746797
aS'+'
asS'C10orf99'
p2014
(lp2015
I84173797
aI84185294
aS'+'
asS'CC2D2B'
p2016
(lp2017
I95907964
aI96032684
aS'+'
asS'TEX36-AS1'
p2018
(lp2019
I125574370
aI125578445
aS'+'
asS'SNORD98'
p2020
(lp2021
I68755171
aI68755238
aS'+'
asS'LYZL1'
p2022
(lp2023
I29289069
aI29311230
aS'+'
asS'LYZL2'
p2024
(lp2025
I30611778
aI30629753
aS'-'
asS'C10orf90'
p2026
(lp2027
I126424996
aI126670510
aS'-'
asS'ADO'
p2028
(lp2029
I62804755
aI62808479
aS'+'
asS'ZNF518A'
p2030
(lp2031
I96129714
aI96205291
aS'+'
asS'WAPL'
p2032
(lp2033
I86435255
aI86521792
aS'-'
asS'ADK'
p2034
(lp2035
I74151184
aI74709303
aS'+'
asS'THNSL1'
p2036
(lp2037
I25016578
aI25026666
aS'+'
asS'FAM170B'
p2038
(lp2039
I49131155
aI49134020
aS'-'
asS'ZNF488'
p2040
(lp2041
I47365495
aI47384338
aS'-'
asS'COMMD3-BMI1'
p2042
(lp2043
I22316382
aI22331485
aS'+'
asS'VPS26A'
p2044
(lp2045
I69124152
aI69174416
aS'+'
asS'RGS10'
p2046
(lp2047
I119499817
aI119542719
aS'-'
asS'LOC102724323'
p2048
(lp2049
I45444567
aI45453121
aS'-'
asS'ACBD5'
p2050
(lp2051
I27182837
aI27240879
aS'-'
asS'TACC2'
p2052
(lp2053
I121989173
aI122254545
aS'+'
asS'PLCE1-AS1'
p2054
(lp2055
I94279289
aI94287070
aS'-'
asS'ZNF485'
p2056
(lp2057
I43606406
aI43617904
aS'+'
asS'GLUD1'
p2058
(lp2059
I87050201
aI87095047
aS'-'
asS'ZNF487'
p2060
(lp2061
I43436847
aI43483181
aS'+'
asS'WDR11-AS1'
p2062
(lp2063
I120761811
aI120851179
aS'-'
asS'CASC10'
p2064
(lp2065
I21494491
aI21497284
aS'-'
asS'LOC101926942'
p2066
(lp2067
I90402520
aI90540805
aS'-'
asS'TBC1D12'
p2068
(lp2069
I94402428
aI94536332
aS'+'
asS'TMEM236'
p2070
(lp2071
I17752260
aI17800867
aS'+'
asS'FAM238B'
p2072
(lp2073
I26643107
aI26653454
aS'+'
asS'FAM238C'
p2074
(lp2075
I26931205
aI26942001
aS'-'
asS'INSYN2'
p2076
(lp2077
I127135425
aI127196158
aS'-'
asS'LOC101927472'
p2078
(lp2079
I104323363
aI104326745
aS'+'
asS'HMX3'
p2080
(lp2081
I123136050
aI123137731
aS'+'
asS'HMX2'
p2082
(lp2083
I123148121
aI123150672
aS'+'
asS'LOC101928834'
p2084
(lp2085
I19710334
aI19728550
aS'-'
asS'LNCAROD'
p2086
(lp2087
I52450876
aI52470533
aS'-'
asS'ARL3'
p2088
(lp2089
I102673726
aI102714433
aS'-'
asS'LOC105378292'
p2090
(lp2091
I47413388
aI47414475
aS'-'
asS'RPS24'
p2092
(lp2093
I78033759
aI78056813
aS'+'
asS'LOC105376382'
p2094
(lp2095
I5594984
aI5596118
aS'-'
asS'FRMD4A'
p2096
(lp2097
I13643705
aI14330884
aS'-'
asS'ADAM12'
p2098
(lp2099
I126012384
aI126388558
aS'-'
asS'FANK1-AS1'
p2100
(lp2101
I125972187
aI125973273
aS'-'
asS'CALML3-AS1'
p2102
(lp2103
I5514243
aI5526246
aS'-'
asS'BORCS7-ASMT'
p2104
(lp2105
I102854209
aI102901898
aS'+'
asS'FRA10AC1'
p2106
(lp2107
I93667882
aI93702959
aS'-'
asS'SEC31B'
p2108
(lp2109
I100486645
aI100519838
aS'-'
asS'MBL2'
p2110
(lp2111
I52765379
aI52771700
aS'-'
asS'PAPSS2'
p2112
(lp2113
I87659718
aI87747705
aS'+'
asS'ANKRD1'
p2114
(lp2115
I90912099
aI90921275
aS'-'
asS'ANKRD2'
p2116
(lp2117
I97572440
aI97583896
aS'+'
asS'PRPF18'
p2118
(lp2119
I13586964
aI13630859
aS'+'
asS'PARD3-AS1'
p2120
(lp2121
I34815767
aI34816422
aS'+'
asS'NRAP'
p2122
(lp2123
I113588823
aI113664070
aS'-'
asS'SH3PXD2A-AS1'
p2124
(lp2125
I103746778
aI103755409
aS'+'
asS'WNT8B'
p2126
(lp2127
I100463054
aI100483642
aS'+'
asS'CYP2C19'
p2128
(lp2129
I94762680
aI94855547
aS'+'
asS'USP6NL'
p2130
(lp2131
I11460509
aI11611789
aS'-'
asS'ATP5MD'
p2132
(lp2133
I103389050
aI103396513
aS'-'
asS'PRLHR'
p2134
(lp2135
I118593403
aI118595648
aS'-'
asS'NKX6-2'
p2136
(lp2137
I132784815
aI132786033
aS'-'
asS'OPALIN'
p2138
(lp2139
I96343215
aI96359365
aS'-'
asS'TFAM'
p2140
(lp2141
I58385142
aI58399230
aS'+'
asS'LOC105378470'
p2142
(lp2143
I106140164
aI106188722
aS'+'
asS'CUBN'
p2144
(lp2145
I16823965
aI17129817
aS'-'
asS'MIR4681'
p2146
(lp2147
I119377971
aI119378043
aS'+'
asS'MIR4680'
p2148
(lp2149
I110898089
aI110898155
aS'+'
asS'HECTD2-AS1'
p2150
(lp2151
I91306961
aI91611460
aS'-'
asS'SNORD142'
p2152
(lp2153
I3134103
aI3134298
aS'+'
asS'MIR5100'
p2154
(lp2155
I42997562
aI42997681
aS'+'
asS'OIT3'
p2156
(lp2157
I72893555
aI72933036
aS'+'
asS'WASHC2A'
p2158
(lp2159
I50067887
aI50133509
aS'+'
asS'TCERG1L'
p2160
(lp2161
I131092391
aI131311721
aS'-'
asS'WASHC2C'
p2162
(lp2163
I45727199
aI45792964
aS'+'
asS'ARMC4'
p2164
(lp2165
I27812163
aI27999050
aS'-'
asS'ARMC3'
p2166
(lp2167
I22928023
aI23038523
aS'+'
asS'NPM3'
p2168
(lp2169
I101781324
aI101783413
aS'-'
asS'FAM170B-AS1'
p2170
(lp2171
I49121838
aI49151547
aS'+'
asS'LRRC20'
p2172
(lp2173
I70298969
aI70382650
aS'-'
asS'AGAP4'
p2174
(lp2175
I45825591
aI45853877
aS'-'
asS'HSPA14'
p2176
(lp2177
I14838159
aI14871741
aS'+'
asS'MXI1'
p2178
(lp2179
I110207604
aI110287365
aS'+'
asS'LOC728327'
p2180
(lp2181
I128912832
aI128916270
aS'+'
asS'LOC100129055'
p2182
(lp2183
I38175670
aI38214345
aS'+'
asS'KCNMA1-AS2'
p2184
(lp2185
I77140830
aI77150100
aS'+'
asS'TMEM26'
p2186
(lp2187
I61406641
aI61453450
aS'-'
asS'KCNMA1-AS1'
p2188
(lp2189
I76888043
aI76978593
aS'+'
asS'FBXL15'
p2190
(lp2191
I102419813
aI102423136
aS'+'
asS'PTPRE'
p2192
(lp2193
I127907060
aI128085855
aS'+'
asS'LOC101929117'
p2194
(lp2195
I26577685
aI26579307
aS'-'
asS'HOGA1'
p2196
(lp2197
I97584344
aI97612798
aS'+'
asS'RNLS'
p2198
(lp2199
I88273863
aI88583325
aS'-'
as.