(dp1
S'RANGRF'
p2
(lp3
I8288496
aI8290092
aS'+'
asS'MIR6080'
p4
(lp5
I64780758
aI64780824
aS'+'
asS'KRTAP1-1'
p6
(lp7
I41040558
aI41041461
aS'-'
asS'NCBP3'
p8
(lp9
I3802157
aI3846246
aS'-'
asS'MTVR2'
p10
(lp11
I56884101
aI56884913
aS'-'
asS'PROCA1'
p12
(lp13
I28703196
aI28711907
aS'-'
asS'COPRS'
p14
(lp15
I31851864
aI31859307
aS'-'
asS'ZSWIM7'
p16
(lp17
I15976560
aI15999692
aS'-'
asS'RNF112'
p18
(lp19
I19411177
aI19417276
aS'+'
asS'MEIS3P1'
p20
(lp21
I15786849
aI15789706
aS'+'
asS'DHX8'
p22
(lp23
I43483864
aI43544787
aS'+'
asS'NSRP1'
p24
(lp25
I30116806
aI30186475
aS'+'
asS'MIR6884'
p26
(lp27
I40026331
aI40026409
aS'-'
asS'SP2'
p28
(lp29
I47896149
aI47928957
aS'+'
asS'MIR6883'
p30
(lp31
I8144993
aI8145071
aS'-'
asS'RAB40B'
p32
(lp33
I82657066
aI82698722
aS'-'
asS'PTRH2'
p34
(lp35
I59697305
aI59707598
aS'-'
asS'TRAPPC1'
p36
(lp37
I7930344
aI7931999
aS'-'
asS'ACLY'
p38
(lp39
I41866916
aI41919022
aS'-'
asS'SPPL2C'
p40
(lp41
I45844889
aI45847072
aS'+'
asS'ATP2A3'
p42
(lp43
I3923868
aI3964464
aS'-'
asS'ALDH3A2'
p44
(lp45
I19648750
aI19677595
aS'+'
asS'ITGA3'
p46
(lp47
I50056109
aI50090481
aS'+'
asS'MFSD11'
p48
(lp49
I76736564
aI76778817
aS'+'
asS'LRRC37A8P'
p50
(lp51
I35904219
aI35911023
aS'-'
asS'LOC100287072'
p52
(lp53
I20712445
aI20737865
aS'+'
asS'WSB1'
p54
(lp55
I27294020
aI27313621
aS'+'
asS'KSR1'
p56
(lp57
I27472009
aI27623692
aS'+'
asS'GHDC'
p58
(lp59
I42189086
aI42194532
aS'-'
asS'SDK2'
p60
(lp61
I73334383
aI73644445
aS'-'
asS'ASB16-AS1'
p62
(lp63
I44175973
aI44186717
aS'-'
asS'GRAPL'
p64
(lp65
I19127468
aI19159187
aS'+'
asS'GRN'
p66
(lp67
I44345085
aI44353106
aS'+'
asS'MIR6867'
p68
(lp69
I40193596
aI40193663
aS'+'
asS'MIR6866'
p70
(lp71
I40161932
aI40162001
aS'+'
asS'MIR6865'
p72
(lp73
I4970085
aI4970150
aS'-'
asS'MIR6864'
p74
(lp75
I4969701
aI4969771
aS'-'
asS'ATAD5'
p76
(lp77
I30831969
aI30895865
aS'+'
asS'TP53I13'
p78
(lp79
I29568275
aI29573157
aS'+'
asS'NOG'
p80
(lp81
I56593698
aI56595590
aS'+'
asS'PSMD11'
p82
(lp83
I32444462
aI32483319
aS'+'
asS'PSMD12'
p84
(lp85
I67337915
aI67366627
aS'-'
asS'GIT1'
p86
(lp87
I29573468
aI29589592
aS'-'
asS'HLF'
p88
(lp89
I55264959
aI55325065
aS'+'
asS'ITGAE'
p90
(lp91
I3714624
aI3801243
aS'-'
asS'METTL2A'
p92
(lp93
I62423884
aI62450093
aS'+'
asS'MIR3065'
p94
(lp95
I81125876
aI81125955
aS'+'
asS'NDUFAF8'
p96
(lp97
I81239310
aI81241298
aS'+'
asS'LOC101928000'
p98
(lp99
I5111934
aI5114382
aS'+'
asS'LOC284191'
p100
(lp101
I16975998
aI16981353
aS'-'
asS'PRKAR1A'
p102
(lp103
I68413622
aI68533429
aS'+'
asS'LINC00674'
p104
(lp105
I68101554
aI68135929
aS'+'
asS'LINC00672'
p106
(lp107
I38925167
aI38929384
aS'+'
asS'LINC00673'
p108
(lp109
I72403321
aI72592804
aS'-'
asS'LINC00670'
p110
(lp111
I12549967
aI12637187
aS'+'
asS'LINC00671'
p112
(lp113
I42874673
aI42898734
aS'-'
asS'MIR4739'
p114
(lp115
I79707175
aI79707249
aS'-'
asS'RAB11FIP4'
p116
(lp117
I31391674
aI31538211
aS'+'
asS'FAM20A'
p118
(lp119
I68535115
aI68600954
aS'-'
asS'DCAKD'
p120
(lp121
I45023337
aI45061129
aS'-'
asS'METTL23'
p122
(lp123
I76726829
aI76733881
aS'+'
asS'LOC100507351'
p124
(lp125
I77546940
aI77565021
aS'+'
asS'SPHK1'
p126
(lp127
I76382976
aI76387860
aS'+'
asS'LOC101927666'
p128
(lp129
I58076890
aI58083204
aS'-'
asS'CUEDC1'
p130
(lp131
I57861242
aI57955323
aS'-'
asS'MED31'
p132
(lp133
I6643312
aI6651634
aS'-'
asS'LOC107985033'
p134
(lp135
I35553204
aI35555549
aS'+'
asS'LOC105371814'
p136
(lp137
I48874859
aI48908983
aS'-'
asS'SPNS3'
p138
(lp139
I4433923
aI4488204
aS'+'
asS'SPNS2'
p140
(lp141
I4498842
aI4539037
aS'+'
asS'ARL16'
p142
(lp143
I81681164
aI81683924
aS'-'
asS'SMCR2'
p144
(lp145
I17674025
aI17677688
aS'-'
asS'MIR1203'
p146
(lp147
I48156426
aI48156511
aS'-'
asS'MIR4732'
p148
(lp149
I28861654
aI28861730
aS'-'
asS'WDR45B'
p150
(lp151
I82614561
aI82648444
aS'-'
asS'UBTF'
p152
(lp153
I44205032
aI44221626
aS'-'
asS'SMCR5'
p154
(lp155
I17776685
aI17779529
aS'-'
asS'GFAP'
p156
(lp157
I44905625
aI44915552
aS'-'
asS'DHRS7B'
p158
(lp159
I21126927
aI21191972
aS'+'
asS'DHRS7C'
p160
(lp161
I9771433
aI9791297
aS'-'
asS'CA10'
p162
(lp163
I51630312
aI52160017
aS'-'
asS'SP6'
p164
(lp165
I47844913
aI47855874
aS'-'
asS'ANKFY1'
p166
(lp167
I4163817
aI4263995
aS'-'
asS'LOC100294362'
p168
(lp169
I80351830
aI80415168
aS'-'
asS'MAPT-AS1'
p170
(lp171
I45843355
aI45895513
aS'-'
asS'CALCOCO2'
p172
(lp173
I48830987
aI48865245
aS'+'
asS'TRIM16'
p174
(lp175
I15627965
aI15684311
aS'-'
asS'PRPF8'
p176
(lp177
I1650628
aI1684882
aS'-'
asS'MIR497'
p178
(lp179
I7017910
aI7018022
aS'-'
asS'PLEKHH3'
p180
(lp181
I42667914
aI42677030
aS'-'
asS'SLC47A2'
p182
(lp183
I19678314
aI19718979
aS'-'
asS'SLC47A1'
p184
(lp185
I19533853
aI19579033
aS'+'
asS'LOC100506388'
p186
(lp187
I331204
aI333488
aS'+'
asS'PIP4K2B'
p188
(lp189
I38765690
aI38799905
aS'-'
asS'RFFL'
p190
(lp191
I35009111
aI35089329
aS'-'
asS'MRPL38'
p192
(lp193
I75898642
aI75905100
aS'-'
asS'SNORA90'
p194
(lp195
I37244800
aI37244975
aS'+'
asS'MIR1268B'
p196
(lp197
I80098827
aI80098877
aS'+'
asS'RHBDL3'
p198
(lp199
I32266175
aI32324661
aS'+'
asS'CD300H'
p200
(lp201
I74560700
aI74567343
aS'-'
asS'FAM106CP'
p202
(lp203
I16788742
aI16790501
aS'+'
asS'CD300C'
p204
(lp205
I74541065
aI74546171
aS'-'
asS'CD300A'
p206
(lp207
I74466372
aI74484798
aS'+'
asS'STRADA'
p208
(lp209
I63702831
aI63741986
aS'-'
asS'CD300E'
p210
(lp211
I74609882
aI74623758
aS'-'
asS'RECQL5'
p212
(lp213
I75626844
aI75667189
aS'-'
asS'TEN1-CDK3'
p214
(lp215
I75979216
aI76005999
aS'+'
asS'DDX42'
p216
(lp217
I63774169
aI63819317
aS'+'
asS'MSL1'
p218
(lp219
I40121970
aI40136917
aS'+'
asS'COPS3'
p220
(lp221
I17246623
aI17281303
aS'-'
asS'FAM215A'
p222
(lp223
I43917207
aI43917987
aS'+'
asS'NUP85'
p224
(lp225
I75205435
aI75235759
aS'+'
asS'MED1'
p226
(lp227
I39404284
aI39451274
aS'-'
asS'ZNF594'
p228
(lp229
I5179534
aI5191868
aS'-'
asS'C17orf64'
p230
(lp231
I60422503
aI60431426
aS'+'
asS'MED9'
p232
(lp233
I17476985
aI17493220
aS'+'
asS'GAST'
p234
(lp235
I41712325
aI41715969
aS'+'
asS'CEP95'
p236
(lp237
I64506735
aI64537951
aS'+'
asS'CBX2'
p238
(lp239
I79778177
aI79787650
aS'+'
asS'CAMTA2'
p240
(lp241
I4967991
aI4987665
aS'-'
asS'VEZF1'
p242
(lp243
I57971546
aI57988264
aS'-'
asS'NLK'
p244
(lp245
I28042661
aI28196378
aS'+'
asS'PIRT'
p246
(lp247
I10822474
aI10838101
aS'-'
asS'TNS4'
p248
(lp249
I40475827
aI40501602
aS'-'
asS'LOC339166'
p250
(lp251
I5772233
aI5930696
aS'+'
asS'IGFBP4'
p252
(lp253
I40443423
aI40457730
aS'+'
asS'TK1'
p254
(lp255
I78174078
aI78187204
aS'-'
asS'LRRC37A11P'
p256
(lp257
I39029905
aI39053205
aS'+'
asS'DHX40'
p258
(lp259
I59565524
aI59608352
aS'+'
asS'PFN1'
p260
(lp261
I4945649
aI4949086
aS'-'
asS'SHISA6'
p262
(lp263
I11241422
aI11564063
aS'+'
asS'COX10'
p264
(lp265
I14069401
aI14208679
aS'+'
asS'COX11'
p266
(lp267
I54951897
aI54968785
aS'-'
asS'FBXL20'
p268
(lp269
I39252643
aI39401656
aS'-'
asS'ALOX15P1'
p270
(lp271
I6657718
aI6661382
aS'+'
asS'GAS7'
p272
(lp273
I9910608
aI10198551
aS'-'
asS'TMC6'
p274
(lp275
I78112917
aI78132427
aS'-'
asS'ARGFXP2'
p276
(lp277
I32150367
aI32151571
aS'-'
asS'ANKRD13B'
p278
(lp279
I29593508
aI29614761
aS'+'
asS'TEX14'
p280
(lp281
I58556676
aI58692055
aS'-'
asS'TMC8'
p282
(lp283
I78130777
aI78142968
aS'+'
asS'MIR6780A'
p284
(lp285
I42708083
aI42708151
aS'-'
asS'CD300LG'
p286
(lp287
I43847147
aI43863629
aS'+'
asS'CD300LF'
p288
(lp289
I74694308
aI74713000
aS'-'
asS'CD300LD'
p290
(lp291
I74579364
aI74592283
aS'-'
asS'CD300LB'
p292
(lp293
I74521173
aI74531474
aS'-'
asS'MIR5010'
p294
(lp295
I42514187
aI42514307
aS'+'
asS'LOC102724532'
p296
(lp297
I47891229
aI47895816
aS'-'
asS'CDRT15P1'
p298
(lp299
I14024497
aI14025598
aS'+'
asS'LINC02001'
p300
(lp301
I35568113
aI35574313
aS'+'
asS'CDRT15P2'
p302
(lp303
I15764702
aI15765689
aS'+'
asS'ITGA2B'
p304
(lp305
I44372180
aI44389601
aS'-'
asS'RPS6KB1'
p306
(lp307
I59893045
aI59950425
aS'+'
asS'ADAP2'
p308
(lp309
I30921735
aI30959193
aS'+'
asS'UTP18'
p310
(lp311
I51260545
aI51297931
aS'+'
asS'MIR8059'
p312
(lp313
I50768649
aI50768730
aS'+'
asS'ALDH3A1'
p314
(lp315
I19737984
aI19748433
aS'-'
asS'NLGN2'
p316
(lp317
I7407844
aI7419860
aS'+'
asS'KRTAP2-3'
p318
(lp319
I41059240
aI41060092
aS'-'
asS'KRTAP2-2'
p320
(lp321
I41054498
aI41055211
aS'-'
asS'KRTAP2-1'
p322
(lp323
I41046540
aI41047316
aS'-'
asS'KRTAP2-4'
p324
(lp325
I41065115
aI41065879
aS'-'
asS'ASGR1'
p326
(lp327
I7173430
aI7179564
aS'-'
asS'ASGR2'
p328
(lp329
I7101321
aI7114811
aS'-'
asS'TSEN54'
p330
(lp331
I75516527
aI75524739
aS'+'
asS'FAM117A'
p332
(lp333
I49710324
aI49764156
aS'-'
asS'ALOX12P2'
p334
(lp335
I6853575
aI6900349
aS'+'
asS'VMP1'
p336
(lp337
I59707464
aI59842255
aS'+'
asS'DCXR'
p338
(lp339
I82035880
aI82037697
aS'-'
asS'EPN2-AS1'
p340
(lp341
I19296595
aI19306261
aS'-'
asS'NR1D1'
p342
(lp343
I40092792
aI40100589
aS'-'
asS'SMURF2P1-LRRC37BP1'
p344
(lp345
I30576464
aI30637466
aS'+'
asS'AXIN2'
p346
(lp347
I65528564
aI65561648
aS'-'
asS'CCT6B'
p348
(lp349
I34927858
aI34961509
aS'-'
asS'RAC3'
p350
(lp351
I82031655
aI82034204
aS'+'
asS'LOC100134391'
p352
(lp353
I73737853
aI73756557
aS'+'
asS'NLE1'
p354
(lp355
I35131321
aI35142315
aS'-'
asS'DNAI2'
p356
(lp357
I74274209
aI74314884
aS'+'
asS'SNORA21B'
p358
(lp359
I38851523
aI38851658
aS'-'
asS'GCGR'
p360
(lp361
I81804131
aI81814013
aS'+'
asS'LOC105371763'
p362
(lp363
I38701143
aI38704744
aS'+'
asS'MIR4521'
p364
(lp365
I8186944
aI8187004
aS'+'
asS'MIR4522'
p366
(lp367
I27293909
aI27293996
aS'-'
asS'MIR4523'
p368
(lp369
I29390661
aI29390730
aS'+'
asS'SLC16A3'
p370
(lp371
I82228405
aI82239499
aS'+'
asS'CEP131'
p372
(lp373
I81189592
aI81222989
aS'-'
asS'SLC16A5'
p374
(lp375
I75087726
aI75106160
aS'+'
asS'SLC16A6'
p376
(lp377
I68267025
aI68291264
aS'-'
asS'TUBG1'
p378
(lp379
I42609339
aI42615238
aS'+'
asS'CDRT15L2'
p380
(lp381
I20579723
aI20580911
aS'+'
asS'DCAF7'
p382
(lp383
I63550434
aI63594281
aS'+'
asS'PRO1804'
p384
(lp385
I69232974
aI69235012
aS'-'
asS'CANT1'
p386
(lp387
I78991715
aI79009817
aS'-'
asS'WIPF2'
p388
(lp389
I40219321
aI40282187
aS'+'
asS'DYNLL2'
p390
(lp391
I58083418
aI58095542
aS'+'
asS'OR3A4P'
p392
(lp393
I3310244
aI3311446
aS'+'
asS'MIR4315-1'
p394
(lp395
I45475362
aI45475435
aS'-'
asS'C1QTNF1-AS1'
p396
(lp397
I79019208
aI79027655
aS'-'
asS'CDR2L'
p398
(lp399
I74987631
aI75005797
aS'+'
asS'GPS1'
p400
(lp401
I82051864
aI82058061
aS'+'
asS'GPS2'
p402
(lp403
I7312658
aI7315339
aS'-'
asS'GSDMA'
p404
(lp405
I39962972
aI39977766
aS'+'
asS'GSDMB'
p406
(lp407
I39904594
aI39918650
aS'-'
asS'THRA'
p408
(lp409
I40062192
aI40093867
aS'+'
asS'NOS2P3'
p410
(lp411
I20436823
aI20447244
aS'+'
asS'MIR196A1'
p412
(lp413
I48632489
aI48632559
aS'-'
asS'SEPT4-AS1'
p414
(lp415
I58519836
aI58556925
aS'+'
asS'FLCN'
p416
(lp417
I17212212
aI17237191
aS'-'
asS'LOC100505782'
p418
(lp419
I41402415
aI41412588
aS'+'
asS'TRIM25'
p420
(lp421
I56887908
aI56914048
aS'-'
asS'LOC102724596'
p422
(lp423
I49361369
aI49380094
aS'+'
asS'PER1'
p424
(lp425
I8140469
aI8152435
aS'-'
asS'COIL'
p426
(lp427
I56938199
aI56961050
aS'-'
asS'ORMDL3'
p428
(lp429
I39921040
aI39927804
aS'-'
asS'MIR152'
p430
(lp431
I48037160
aI48037247
aS'-'
asS'KAT7'
p432
(lp433
I49788618
aI49829096
aS'+'
asS'GALR2'
p434
(lp435
I76074800
aI76077541
aS'+'
asS'TTC19'
p436
(lp437
I15999379
aI16029409
aS'+'
asS'RNF157-AS1'
p438
(lp439
I76140555
aI76154648
aS'+'
asS'MRPL27'
p440
(lp441
I50367866
aI50373201
aS'-'
asS'KAT2A'
p442
(lp443
I42113110
aI42121364
aS'-'
asS'NPTX1'
p444
(lp445
I80466832
aI80476604
aS'-'
asS'KANSL1-AS1'
p446
(lp447
I46193572
aI46196723
aS'+'
asS'PPM1E'
p448
(lp449
I58755868
aI58985179
aS'+'
asS'PPM1D'
p450
(lp451
I60600182
aI60666279
aS'+'
asS'SRSF1'
p452
(lp453
I58000918
aI58007346
aS'-'
asS'SRSF2'
p454
(lp455
I76734114
aI76737411
aS'-'
asS'SNORD91A'
p456
(lp457
I2330278
aI2330370
aS'-'
asS'USP43'
p458
(lp459
I9645536
aI9729686
aS'+'
asS'RNF135'
p460
(lp461
I30970937
aI30999911
aS'+'
asS'AATF'
p462
(lp463
I36948953
aI37056871
aS'+'
asS'GID4'
p464
(lp465
I18039296
aI18068404
aS'+'
asS'CISD3'
p466
(lp467
I38730256
aI38735605
aS'+'
asS'PRAC2'
p468
(lp469
I48723167
aI48724758
aS'+'
asS'PRAC1'
p470
(lp471
I48721719
aI48722518
aS'-'
asS'SCRN2'
p472
(lp473
I47837680
aI47841333
aS'-'
asS'CCDC144NL-AS1'
p474
(lp475
I20868432
aI20905230
aS'+'
asS'ATP5PD'
p476
(lp477
I75038859
aI75046979
aS'-'
asS'SUZ12P1'
p478
(lp479
I30709607
aI30792830
aS'+'
asS'CAMKK1'
p480
(lp481
I3860322
aI3893043
aS'-'
asS'ANAPC11'
p482
(lp483
I81890789
aI81900533
aS'+'
asS'MYO1D'
p484
(lp485
I32492521
aI32877173
aS'-'
asS'MYO1C'
p486
(lp487
I1464185
aI1492686
aS'-'
asS'LRRC37A2'
p488
(lp489
I46512709
aI46555648
aS'+'
asS'LRRC37A3'
p490
(lp491
I64854133
aI64919491
aS'-'
asS'SNORD1B'
p492
(lp493
I76561107
aI76561193
aS'+'
asS'SNORD1C'
p494
(lp495
I76558789
aI76558869
aS'+'
asS'CD79B'
p496
(lp497
I63928735
aI63932354
aS'-'
asS'MEOX1'
p498
(lp499
I43640389
aI43661894
aS'-'
asS'ADPRM'
p500
(lp501
I10697609
aI10711558
aS'+'
asS'SLC52A1'
p502
(lp503
I5032601
aI5035432
aS'-'
asS'CNTD1'
p504
(lp505
I42798835
aI42811587
aS'+'
asS'DHX58'
p506
(lp507
I42101405
aI42112733
aS'-'
asS'ZNF385C'
p508
(lp509
I42025575
aI42038026
aS'-'
asS'FBXO47'
p510
(lp511
I38936431
aI38967402
aS'-'
asS'KCNH4'
p512
(lp513
I42156890
aI42181142
aS'-'
asS'SRR'
p514
(lp515
I2303942
aI2325264
aS'+'
asS'LGALS9'
p516
(lp517
I27631147
aI27649560
aS'+'
asS'KCNH6'
p518
(lp519
I63523333
aI63548977
aS'+'
asS'RAP1GAP2'
p520
(lp521
I2776920
aI3037741
aS'+'
asS'FSCN2'
p522
(lp523
I81528390
aI81537130
aS'+'
asS'TCAP'
p524
(lp525
I39665345
aI39666554
aS'+'
asS'KCNJ2'
p526
(lp527
I70169534
aI70180042
aS'+'
asS'SNORD10'
p528
(lp529
I7576810
aI7576958
aS'+'
asS'SCARNA16'
p530
(lp531
I77089306
aI77089493
aS'+'
asS'MYO19'
p532
(lp533
I36495754
aI36535457
aS'-'
asS'COL1A1'
p534
(lp535
I50184095
aI50201639
aS'-'
asS'ALOX12'
p536
(lp537
I6996064
aI7010736
aS'+'
asS'LOC729683'
p538
(lp539
I63700337
aI63702685
aS'+'
asS'SNORA59A'
p540
(lp541
I19557559
aI19557711
aS'+'
asS'SNORA59B'
p542
(lp543
I19557559
aI19557711
aS'+'
asS'SMCR8'
p544
(lp545
I18315279
aI18328056
aS'+'
asS'MIR4738'
p546
(lp547
I75784520
aI75784607
aS'-'
asS'MPDU1'
p548
(lp549
I7583646
aI7588209
aS'+'
asS'MIR4731'
p550
(lp551
I15251626
aI15251696
aS'-'
asS'MIR4730'
p552
(lp553
I80419417
aI80419493
aS'+'
asS'MIR4733'
p554
(lp555
I31094349
aI31094425
aS'-'
asS'PEX12'
p556
(lp557
I35574794
aI35578637
aS'-'
asS'MIR4734'
p558
(lp559
I38702261
aI38702331
aS'-'
asS'MIR4737'
p560
(lp561
I60043024
aI60043105
aS'-'
asS'MIR4736'
p562
(lp563
I58335975
aI58336022
aS'-'
asS'LINC01476'
p564
(lp565
I59430868
aI59526857
aS'-'
asS'RPL27'
p566
(lp567
I42998272
aI43002954
aS'+'
asS'RPL26'
p568
(lp569
I8377515
aI8383193
aS'-'
asS'TAC4'
p570
(lp571
I49838308
aI49848017
aS'-'
asS'RPL23'
p572
(lp573
I38847859
aI38853721
aS'-'
asS'LOC101928021'
p574
(lp575
I67244775
aI67262080
aS'+'
asS'SLC16A13'
p576
(lp577
I7036074
aI7040121
aS'+'
asS'SPAG7'
p578
(lp579
I4959225
aI4967837
aS'-'
asS'RGS9'
p580
(lp581
I65137337
aI65227703
aS'+'
asS'IFI35'
p582
(lp583
I43006724
aI43014459
aS'+'
asS'PIGL'
p584
(lp585
I16217194
aI16326259
aS'+'
asS'PIGS'
p586
(lp587
I28553387
aI28571869
aS'-'
asS'WRAP53'
p588
(lp589
I7686070
aI7703502
aS'+'
asS'PIGW'
p590
(lp591
I36534761
aI36539303
aS'+'
asS'TAX1BP3'
p592
(lp593
I3662892
aI3668679
aS'-'
asS'EMC6'
p594
(lp595
I3668722
aI3669669
aS'+'
asS'PDK2'
p596
(lp597
I50094736
aI50111369
aS'+'
asS'WBP2'
p598
(lp599
I75845698
aI75856436
aS'-'
asS'MIR193A'
p600
(lp601
I31559995
aI31560083
aS'+'
asS'MIR6868'
p602
(lp603
I76098018
aI76098076
aS'-'
asS'LOC400627'
p604
(lp605
I80966238
aI80971213
aS'-'
asS'LOC400622'
p606
(lp607
I77527000
aI77536598
aS'+'
asS'MAFG'
p608
(lp609
I81918268
aI81927711
aS'-'
asS'SLC39A11'
p610
(lp611
I72645945
aI73092714
aS'-'
asS'ARHGAP23'
p612
(lp613
I38428475
aI38512392
aS'+'
asS'ARHGAP27'
p614
(lp615
I45393901
aI45430297
aS'-'
asS'MRPS7'
p616
(lp617
I75261667
aI75266376
aS'+'
asS'CCR10'
p618
(lp619
I42679401
aI42681827
aS'-'
asS'SLC16A11'
p620
(lp621
I7041629
aI7043923
aS'-'
asS'MIR451A'
p622
(lp623
I28861368
aI28861440
aS'-'
asS'MIR451B'
p624
(lp625
I28861370
aI28861438
aS'+'
asS'LOC100128006'
p626
(lp627
I12760133
aI12790284
aS'-'
asS'TOB1-AS1'
p628
(lp629
I50866678
aI50868371
aS'+'
asS'NKIRAS2'
p630
(lp631
I42017575
aI42025638
aS'+'
asS'SOCS7'
p632
(lp633
I38352123
aI38405593
aS'+'
asS'SOCS3'
p634
(lp635
I78356776
aI78360079
aS'-'
asS'GRB2'
p636
(lp637
I75318075
aI75405709
aS'-'
asS'GRB7'
p638
(lp639
I39737900
aI39747285
aS'+'
asS'CCL3L3'
p640
(lp641
I36194869
aI36196758
aS'-'
asS'MIR2117HG'
p642
(lp643
I43444706
aI43451197
aS'+'
asS'CCL3L1'
p644
(lp645
I36194869
aI36196758
aS'-'
asS'MARCH10'
p646
(lp647
I62701313
aI62808381
aS'-'
asS'MIR4525'
p648
(lp649
I82668232
aI82668307
aS'-'
asS'TRIM37'
p650
(lp651
I58982638
aI59106964
aS'-'
asS'G6PC3'
p652
(lp653
I44070729
aI44076344
aS'+'
asS'VMO1'
p654
(lp655
I4785284
aI4786434
aS'-'
asS'DBIL5P'
p656
(lp657
I752332
aI755336
aS'+'
asS'RSAD1'
p658
(lp659
I50478799
aI50485980
aS'+'
asS'CHD3'
p660
(lp661
I7884804
aI7912757
aS'+'
asS'CCDC182'
p662
(lp663
I57744480
aI57745329
aS'-'
asS'MIR635'
p664
(lp665
I68424450
aI68424548
aS'-'
asS'MIR634'
p666
(lp667
I66787071
aI66787168
aS'+'
asS'MIR636'
p668
(lp669
I76736449
aI76736548
aS'-'
asS'MNT'
p670
(lp671
I2384059
aI2400964
aS'-'
asS'MIR633'
p672
(lp673
I62944214
aI62944312
aS'+'
asS'MIR144'
p674
(lp675
I28861532
aI28861618
aS'-'
asS'LINC00324'
p676
(lp677
I8220629
aI8224043
aS'-'
asS'FN3K'
p678
(lp679
I82735575
aI82751197
aS'+'
asS'MRPL10'
p680
(lp681
I47823271
aI47831541
aS'-'
asS'MRPL12'
p682
(lp683
I81703369
aI81707526
aS'+'
asS'RNF43'
p684
(lp685
I58352499
aI58417582
aS'-'
asS'POLR2A'
p686
(lp687
I7484365
aI7514614
aS'+'
asS'PLSCR3'
p688
(lp689
I7389727
aI7394843
aS'-'
asS'TLK2'
p690
(lp691
I62478767
aI62615480
aS'+'
asS'MPO'
p692
(lp693
I58269855
aI58280935
aS'-'
asS'CASKIN2'
p694
(lp695
I75500259
aI75515583
aS'-'
asS'SOST'
p696
(lp697
I43753737
aI43758791
aS'-'
asS'MIR142'
p698
(lp699
I58331231
aI58331318
aS'-'
asS'NCOR1'
p700
(lp701
I16030093
aI16215560
aS'-'
asS'FZD2'
p702
(lp703
I44557443
aI44561262
aS'+'
asS'OGFOD3'
p704
(lp705
I82389209
aI82418637
aS'-'
asS'ZNF624'
p706
(lp707
I16620733
aI16653853
aS'-'
asS'CACNB1'
p708
(lp709
I39173455
aI39197703
aS'-'
asS'MIR454'
p710
(lp711
I59137757
aI59137872
aS'-'
asS'NEURL4'
p712
(lp713
I7315631
aI7329319
aS'-'
asS'LOC101559451'
p714
(lp715
I4704229
aI4705529
aS'+'
asS'LYZL6'
p716
(lp717
I35934518
aI35943713
aS'-'
asS'PLCD3'
p718
(lp719
I45111639
aI45132533
aS'-'
asS'LOC101927539'
p720
(lp721
I57600864
aI57608412
aS'-'
asS'RETREG3'
p722
(lp723
I42579507
aI42609427
aS'-'
asS'TMEM235'
p724
(lp725
I78231309
aI78240987
aS'+'
asS'PSMB6'
p726
(lp727
I4796143
aI4798503
aS'+'
asS'SCAT1'
p728
(lp729
I78617383
aI78632057
aS'-'
asS'PSMB3'
p730
(lp731
I38752712
aI38764231
aS'+'
asS'P2RX1'
p732
(lp733
I3896590
aI3916666
aS'-'
asS'P2RX5'
p734
(lp735
I3673227
aI3696404
aS'-'
asS'CORO6'
p736
(lp737
I29614755
aI29621423
aS'-'
asS'FAM27E5'
p738
(lp739
I22298763
aI22299893
aS'+'
asS'TMIGD1'
p740
(lp741
I30316347
aI30334059
aS'-'
asS'HIGD1B'
p742
(lp743
I44846352
aI44850480
aS'+'
asS'SNORD7'
p744
(lp745
I35573656
aI35573753
aS'+'
asS'SCARNA20'
p746
(lp747
I60231515
aI60231645
aS'-'
asS'SCARNA21'
p748
(lp749
I7906122
aI7906260
aS'+'
asS'MIR4726'
p750
(lp751
I38719690
aI38719748
aS'+'
asS'MIR4727'
p752
(lp753
I38825837
aI38825892
aS'+'
asS'MIR4724'
p754
(lp755
I31534882
aI31534971
aS'+'
asS'MIR4725'
p756
(lp757
I31575268
aI31575358
aS'+'
asS'TRAF4'
p758
(lp759
I28744010
aI28750956
aS'+'
asS'MIR4723'
p760
(lp761
I28360653
aI28360734
aS'+'
asS'MIR4728'
p762
(lp763
I39726494
aI39726561
aS'+'
asS'MIR4729'
p764
(lp765
I59366082
aI59366154
aS'+'
asS'CYGB'
p766
(lp767
I76527347
aI76537905
aS'-'
asS'TVP23C'
p768
(lp769
I15502263
aI15563631
aS'-'
asS'TVP23B'
p770
(lp771
I18780994
aI18806713
aS'+'
asS'EVI2A'
p772
(lp773
I31316409
aI31321749
aS'-'
asS'SEBOX'
p774
(lp775
I28364267
aI28365151
aS'-'
asS'LRRC59'
p776
(lp777
I50381232
aI50397553
aS'-'
asS'FOXN1'
p778
(lp779
I28523940
aI28538157
aS'+'
asS'RUNDC3A-AS1'
p780
(lp781
I44299573
aI44308431
aS'-'
asS'RPL38'
p782
(lp783
I74203655
aI74209880
aS'+'
asS'MIR4740'
p784
(lp785
I81400715
aI81400778
aS'-'
asS'GRIN2C'
p786
(lp787
I74842022
aI74859884
aS'-'
asS'GNA13'
p788
(lp789
I65009288
aI65056802
aS'-'
asS'MIEF2'
p790
(lp791
I18260533
aI18265781
aS'+'
asS'ABHD15'
p792
(lp793
I29560670
aI29567024
aS'-'
asS'ZNF286A'
p794
(lp795
I15699576
aI15720786
aS'+'
asS'ZNF286B'
p796
(lp797
I18658429
aI18682259
aS'-'
asS'TRIM16L'
p798
(lp799
I18697997
aI18736119
aS'+'
asS'SUMO2'
p800
(lp801
I75165585
aI75182959
aS'-'
asS'CDRT4'
p802
(lp803
I15436014
aI15467611
aS'-'
asS'CDRT7'
p804
(lp805
I15030974
aI15031957
aS'+'
asS'CDRT1'
p806
(lp807
I15565481
aI15619704
aS'-'
asS'CDRT3'
p808
(lp809
I15470310
aI15470836
aS'-'
asS'MIR632'
p810
(lp811
I32350108
aI32350202
aS'+'
asS'CDRT8'
p812
(lp813
I15104984
aI15106187
aS'-'
asS'LHX1'
p814
(lp815
I36937474
aI36944615
aS'+'
asS'SAMD14'
p816
(lp817
I50111308
aI50129882
aS'-'
asS'SMG6'
p818
(lp819
I2059838
aI2303775
aS'-'
asS'DLG4'
p820
(lp821
I7189890
aI7220050
aS'-'
asS'SMG8'
p822
(lp823
I59210009
aI59215250
aS'+'
asS'METTL16'
p824
(lp825
I2416053
aI2511888
aS'-'
asS'PICART1'
p826
(lp827
I50050348
aI50055739
aS'-'
asS'CEP112'
p828
(lp829
I65635539
aI66192231
aS'-'
asS'CCDC200'
p830
(lp831
I43221416
aI43229011
aS'-'
asS'LOC105371703'
p832
(lp833
I27072388
aI27089241
aS'-'
asS'OSBPL7'
p834
(lp835
I47807366
aI47821781
aS'-'
asS'CXCL16'
p836
(lp837
I4733528
aI4739928
aS'-'
asS'AKAP1'
p838
(lp839
I57085191
aI57121349
aS'+'
asS'LOC101927855'
p840
(lp841
I61361667
aI61367704
aS'-'
asS'PIPOX'
p842
(lp843
I29042899
aI29057218
aS'+'
asS'TEX2'
p844
(lp845
I64147432
aI64263323
aS'-'
asS'STARD3'
p846
(lp847
I39637079
aI39664201
aS'+'
asS'YBX2'
p848
(lp849
I7288262
aI7294639
aS'-'
asS'TMEM132E'
p850
(lp851
I34580748
aI34639318
aS'+'
asS'MIR3186'
p852
(lp853
I81451103
aI81451188
aS'-'
asS'MIR3185'
p854
(lp855
I48724407
aI48724475
aS'-'
asS'KRT17P1'
p856
(lp857
I16840786
aI16845872
aS'-'
asS'MIR3183'
p858
(lp859
I1022475
aI1022559
aS'-'
asS'KRT17P5'
p860
(lp861
I18422180
aI18425333
aS'+'
asS'DUS1L'
p862
(lp863
I82057871
aI82065821
aS'-'
asS'TBC1D26'
p864
(lp865
I15732276
aI15744784
aS'+'
asS'CCL23'
p866
(lp867
I36013055
aI36017968
aS'-'
asS'TBC1D28'
p868
(lp869
I18635528
aI18644427
aS'-'
asS'HOXB8'
p870
(lp871
I48612345
aI48614939
aS'-'
asS'HOXB9'
p872
(lp873
I48621156
aI48626473
aS'-'
asS'GUCY2D'
p874
(lp875
I8002669
aI8020340
aS'+'
asS'HOXB2'
p876
(lp877
I48542655
aI48545031
aS'-'
asS'HOXB3'
p878
(lp879
I48548869
aI48582622
aS'-'
asS'HOXB1'
p880
(lp881
I48529444
aI48530910
aS'-'
asS'SENP3'
p882
(lp883
I7561991
aI7571969
aS'+'
asS'HOXB7'
p884
(lp885
I48607232
aI48611021
aS'-'
asS'C17orf113'
p886
(lp887
I42039704
aI42050599
aS'-'
asS'HOXB5'
p888
(lp889
I48591256
aI48593741
aS'-'
asS'HID1'
p890
(lp891
I74950741
aI74972759
aS'-'
asS'LOC388436'
p892
(lp893
I19089460
aI19097563
aS'+'
asS'NOTUM'
p894
(lp895
I81952506
aI81961181
aS'-'
asS'DNAJC7'
p896
(lp897
I41976420
aI42017697
aS'-'
asS'HS3ST3B1'
p898
(lp899
I14301049
aI14349404
aS'+'
asS'GOSR2'
p900
(lp901
I46923116
aI46967000
aS'+'
asS'P2RX5-TAX1BP3'
p902
(lp903
I3662892
aI3696404
aS'-'
asS'GOSR1'
p904
(lp905
I30477407
aI30526814
aS'+'
asS'MIR195'
p906
(lp907
I7017614
aI7017701
aS'-'
asS'ZNF830'
p908
(lp909
I34961539
aI34963777
aS'+'
asS'TNRC6C-AS1'
p910
(lp911
I78107400
aI78111799
aS'-'
asS'SNORA67'
p912
(lp913
I7577954
aI7578091
aS'+'
asS'LINC00910'
p914
(lp915
I43369844
aI43388898
aS'-'
asS'TMEM11'
p916
(lp917
I21197949
aI21214595
aS'-'
asS'RPL23A'
p918
(lp919
I28719981
aI28724356
aS'+'
asS'NT5C3B'
p920
(lp921
I41825081
aI41836271
aS'-'
asS'LOC102724009'
p922
(lp923
I5019214
aI5020093
aS'-'
asS'TBX2-AS1'
p924
(lp925
I61393455
aI61399606
aS'-'
asS'SEZ6'
p926
(lp927
I28954928
aI29006440
aS'-'
asS'LIMD2'
p928
(lp929
I63695888
aI63700159
aS'-'
asS'RNF157'
p930
(lp931
I76142473
aI76240493
aS'-'
asS'RDM1P5'
p932
(lp933
I39057018
aI39081451
aS'+'
asS'HCRT'
p934
(lp935
I42184059
aI42185452
aS'-'
asS'MIR301A'
p936
(lp937
I59151135
aI59151221
aS'-'
asS'SCARF1'
p938
(lp939
I1633857
aI1645789
aS'-'
asS'TBCD'
p940
(lp941
I82752063
aI82943186
aS'+'
asS'GEMIN4'
p942
(lp943
I744420
aI752264
aS'-'
asS'SLFN12L'
p944
(lp945
I35474922
aI35537861
aS'-'
asS'LUC7L3'
p946
(lp947
I50719543
aI50756213
aS'+'
asS'MMD'
p948
(lp949
I55392612
aI55421980
aS'-'
asS'ATPAF2'
p950
(lp951
I18018019
aI18039166
aS'-'
asS'THCAT158'
p952
(lp953
I47303445
aI47323901
aS'-'
asS'KRBA2'
p954
(lp955
I8368652
aI8376711
aS'-'
asS'CCDC144B'
p956
(lp957
I18537800
aI18625617
aS'-'
asS'CCDC144A'
p958
(lp959
I16690324
aI16774999
aS'+'
asS'KRT16P3'
p960
(lp961
I20501513
aI20504498
aS'-'
asS'KRT16P2'
p962
(lp963
I16830482
aI16832833
aS'-'
asS'KRT16P1'
p964
(lp965
I18439907
aI18442894
aS'+'
asS'LOC653653'
p966
(lp967
I60101759
aI60102919
aS'-'
asS'LRRC37A4P'
p968
(lp969
I45505882
aI45520523
aS'-'
asS'SNORD3D'
p970
(lp971
I19112419
aI19112636
aS'-'
asS'PRR15L'
p972
(lp973
I47951967
aI47957877
aS'-'
asS'SNORD3C'
p974
(lp975
I19190028
aI19190245
aS'-'
asS'ERAL1'
p976
(lp977
I28854956
aI28861067
aS'+'
asS'SNORD3A'
p978
(lp979
I19188015
aI19188232
aS'+'
asS'MIR2909'
p980
(lp981
I37033744
aI37033813
aS'+'
asS'TOB1'
p982
(lp983
I50862225
aI50867978
aS'-'
asS'CDK12'
p984
(lp985
I39461510
aI39534565
aS'+'
asS'MIR548AT'
p986
(lp987
I42494772
aI42494830
aS'+'
asS'TMEM220'
p988
(lp989
I10711135
aI10730329
aS'-'
asS'PSMC5'
p990
(lp991
I63827409
aI63832027
aS'+'
asS'HEATR6'
p992
(lp993
I60043190
aI60078931
aS'-'
asS'STH'
p994
(lp995
I45999249
aI45999694
aS'+'
asS'KIF18B'
p996
(lp997
I44924710
aI44947711
aS'-'
asS'MMP28'
p998
(lp999
I35756248
aI35795707
aS'-'
asS'LINC02078'
p1000
(lp1001
I79707265
aI79712317
aS'+'
asS'LINC02079'
p1002
(lp1003
I39026714
aI39027110
aS'-'
asS'LINC02076'
p1004
(lp1005
I18411158
aI18414388
aS'+'
asS'LINC02075'
p1006
(lp1007
I49457860
aI49461749
aS'-'
asS'LINC02072'
p1008
(lp1009
I51336714
aI51342571
aS'+'
asS'LINC02073'
p1010
(lp1011
I51435426
aI51445802
aS'+'
asS'FLJ40194'
p1012
(lp1013
I49248242
aI49258665
aS'+'
asS'HOXB13'
p1014
(lp1015
I48724764
aI48728749
aS'-'
asS'FN3KRP'
p1016
(lp1017
I82716705
aI82728017
aS'+'
asS'RND2'
p1018
(lp1019
I43025240
aI43032041
aS'+'
asS'MAP3K14'
p1020
(lp1021
I45263118
aI45317020
aS'-'
asS'FLJ36000'
p1022
(lp1023
I22406018
aI22413741
aS'+'
asS'LRRC45'
p1024
(lp1025
I82023301
aI82031151
aS'+'
asS'LHX1-DT'
p1026
(lp1027
I36861673
aI36936661
aS'-'
asS'SNORD4B'
p1028
(lp1029
I28723680
aI28723754
aS'+'
asS'TMEM101'
p1030
(lp1031
I44011187
aI44023151
aS'-'
asS'RARA'
p1032
(lp1033
I40309170
aI40357643
aS'+'
asS'FNDC8'
p1034
(lp1035
I35121578
aI35130732
aS'+'
asS'ARHGAP27P1-BPTFP1-KPNA2P3'
p1036
(lp1037
I64749661
aI64781999
aS'-'
asS'MTMR4'
p1038
(lp1039
I58489531
aI58517890
aS'-'
asS'NOL11'
p1040
(lp1041
I67717832
aI67744208
aS'+'
asS'PCYT2'
p1042
(lp1043
I81900964
aI81911477
aS'-'
asS'NMT1'
p1044
(lp1045
I45061298
aI45109014
aS'+'
asS'SNORD124'
p1046
(lp1047
I40027542
aI40027645
aS'-'
asS'TMEM256-PLSCR3'
p1048
(lp1049
I7389727
aI7404131
aS'-'
asS'SLC2A4'
p1050
(lp1051
I7281734
aI7288048
aS'+'
asS'LINC01999'
p1052
(lp1053
I60564545
aI60586620
aS'+'
asS'LINC02210'
p1054
(lp1055
I45620328
aI45646231
aS'+'
asS'CCL2'
p1056
(lp1057
I34255276
aI34257201
aS'+'
asS'CCL3'
p1058
(lp1059
I36088255
aI36090160
aS'-'
asS'TBC1D3B'
p1060
(lp1061
I36165680
aI36176624
aS'-'
asS'TBC1D3C'
p1062
(lp1063
I38003992
aI38138868
aS'+'
asS'TBC1D3D'
p1064
(lp1065
I38057692
aI38068594
aS'-'
asS'CCL7'
p1066
(lp1067
I34270215
aI34272242
aS'+'
asS'TBC1D3F'
p1068
(lp1069
I38127955
aI38138868
aS'+'
asS'KCNJ2-AS1'
p1070
(lp1071
I70166960
aI70169402
aS'-'
asS'TBC1D3H'
p1072
(lp1073
I38127953
aI38138924
aS'+'
asS'TBC1D3I'
p1074
(lp1075
I38127967
aI38138868
aS'+'
asS'TBC1D3J'
p1076
(lp1077
I36449719
aI36457534
aS'-'
asS'TBC1D3K'
p1078
(lp1079
I36377530
aI36439509
aS'-'
asS'TBC1D3L'
p1080
(lp1081
I38127953
aI38138868
aS'+'
asS'RNASEK-C17orf49'
p1082
(lp1083
I7012416
aI7017524
aS'+'
asS'SNORD134'
p1084
(lp1085
I82089959
aI82090140
aS'-'
asS'TBC1D3P1-DHX40P1'
p1086
(lp1087
I59962362
aI60019052
aS'-'
asS'MYCBPAP'
p1088
(lp1089
I50508438
aI50531502
aS'+'
asS'AP2B1'
p1090
(lp1091
I35587262
aI35726417
aS'+'
asS'CYB561'
p1092
(lp1093
I63432303
aI63446361
aS'-'
asS'CNTROB'
p1094
(lp1095
I7932080
aI7949919
aS'+'
asS'TUBD1'
p1096
(lp1097
I59859479
aI59892945
aS'-'
asS'DRC3'
p1098
(lp1099
I17972812
aI18016875
aS'+'
asS'SLC46A1'
p1100
(lp1101
I28394641
aI28406212
aS'-'
asS'KRT18P55'
p1102
(lp1103
I28275985
aI28307382
aS'-'
asS'CEP295NL'
p1104
(lp1105
I78890579
aI78903217
aS'-'
asS'ATP6V0A1'
p1106
(lp1107
I42458843
aI42522579
aS'+'
asS'VPS53'
p1108
(lp1109
I508667
aI714839
aS'-'
asS'ALKBH5'
p1110
(lp1111
I18183552
aI18209953
aS'+'
asS'C17orf107'
p1112
(lp1113
I4899535
aI4902934
aS'+'
asS'LOC101927557'
p1114
(lp1115
I57522247
aI57523597
aS'-'
asS'C17orf102'
p1116
(lp1117
I34574122
aI34579369
aS'-'
asS'C17orf100'
p1118
(lp1119
I6651738
aI6653298
aS'+'
asS'PRKCA-AS1'
p1120
(lp1121
I66398068
aI66416854
aS'-'
asS'STXBP4'
p1122
(lp1123
I54968764
aI55173632
aS'+'
asS'DBF4B'
p1124
(lp1125
I44708607
aI44752268
aS'+'
asS'BRIP1'
p1126
(lp1127
I61679185
aI61863559
aS'-'
asS'OR4D1'
p1128
(lp1129
I58155153
aI58156086
aS'+'
asS'OR4D2'
p1130
(lp1131
I58169655
aI58170579
aS'+'
asS'LINC01977'
p1132
(lp1133
I79823451
aI79827704
aS'+'
asS'TTC25'
p1134
(lp1135
I41930593
aI41966517
aS'+'
asS'HASPIN'
p1136
(lp1137
I3723902
aI3726698
aS'+'
asS'ENO3'
p1138
(lp1139
I4951088
aI4957131
aS'+'
asS'ABCA9-AS1'
p1140
(lp1141
I69004713
aI69018323
aS'+'
asS'TAOK1'
p1142
(lp1143
I29390924
aI29551903
aS'+'
asS'EXOC7'
p1144
(lp1145
I76080992
aI76103787
aS'-'
asS'LLGL2'
p1146
(lp1147
I75525701
aI75575209
aS'+'
asS'LLGL1'
p1148
(lp1149
I18225621
aI18244874
aS'+'
asS'ACOX1'
p1150
(lp1151
I75941510
aI75979434
aS'-'
asS'CDK3'
p1152
(lp1153
I76000905
aI76005999
aS'+'
asS'MIR2117'
p1154
(lp1155
I43444805
aI43444885
aS'+'
asS'SGSH'
p1156
(lp1157
I80209275
aI80220400
aS'-'
asS'OXLD1'
p1158
(lp1159
I81665035
aI81666637
aS'-'
asS'SYNRG'
p1160
(lp1161
I37514796
aI37609438
aS'-'
asS'SPECC1'
p1162
(lp1163
I20009335
aI20314759
aS'+'
asS'ALOX15'
p1164
(lp1165
I4630918
aI4641673
aS'-'
asS'MYOCD'
p1166
(lp1167
I12665889
aI12768948
aS'+'
asS'ELAC2'
p1168
(lp1169
I12991611
aI13018064
aS'-'
asS'ARHGDIA'
p1170
(lp1171
I81867718
aI81871406
aS'-'
asS'USH1G'
p1172
(lp1173
I74916083
aI74923263
aS'-'
asS'MIR6129'
p1174
(lp1175
I49288345
aI49288454
aS'-'
asS'PRKCA'
p1176
(lp1177
I66302807
aI66810744
aS'+'
asS'ACBD4'
p1178
(lp1179
I45132599
aI45144181
aS'+'
asS'TANC2'
p1180
(lp1181
I63009536
aI63427706
aS'+'
asS'UBALD2'
p1182
(lp1183
I76265347
aI76271298
aS'+'
asS'SGSM2'
p1184
(lp1185
I2337511
aI2381054
aS'+'
asS'MLX'
p1186
(lp1187
I42567059
aI42573203
aS'+'
asS'ENDOV'
p1188
(lp1189
I80415166
aI80438084
aS'+'
asS'CCL15-CCL14'
p1190
(lp1191
I35983655
aI36002038
aS'-'
asS'GGA3'
p1192
(lp1193
I75236591
aI75262393
aS'-'
asS'TEKT1'
p1194
(lp1195
I6797993
aI6831729
aS'-'
asS'HID1-AS1'
p1196
(lp1197
I74970688
aI74975728
aS'+'
asS'TEKT3'
p1198
(lp1199
I15303811
aI15341641
aS'-'
asS'ACTG1'
p1200
(lp1201
I81509970
aI81512799
aS'-'
asS'FKBP10'
p1202
(lp1203
I41812709
aI41823217
aS'+'
asS'TBX21'
p1204
(lp1205
I47733243
aI47746119
aS'+'
asS'TACO1'
p1206
(lp1207
I63600871
aI63608365
aS'+'
asS'LOC105371485'
p1208
(lp1209
I2017715
aI2020706
aS'+'
asS'AOC4P'
p1210
(lp1211
I42867144
aI42869217
aS'+'
asS'CWC25'
p1212
(lp1213
I38800433
aI38825350
aS'-'
asS'NACA2'
p1214
(lp1215
I61590432
aI61591202
aS'-'
asS'MAP3K3'
p1216
(lp1217
I63622424
aI63696310
aS'+'
asS'TRPV1'
p1218
(lp1219
I3565445
aI3609411
aS'-'
asS'TRPV3'
p1220
(lp1221
I3510501
aI3557995
aS'-'
asS'TRPV2'
p1222
(lp1223
I16415570
aI16437003
aS'+'
asS'ERBB2'
p1224
(lp1225
I39688083
aI39728662
aS'+'
asS'ZNF207'
p1226
(lp1227
I32350137
aI32370449
aS'+'
asS'KRTAP1-3'
p1228
(lp1229
I41033884
aI41034855
aS'-'
asS'KRTAP1-4'
p1230
(lp1231
I41029676
aI41030125
aS'-'
asS'KRTAP1-5'
p1232
(lp1233
I41026025
aI41027202
aS'-'
asS'LOC440434'
p1234
(lp1235
I38195739
aI38257249
aS'-'
asS'LOC105371824'
p1236
(lp1237
I50537293
aI50538754
aS'-'
asS'GPATCH8'
p1238
(lp1239
I44395276
aI44503602
aS'-'
asS'TMEM102'
p1240
(lp1241
I7435442
aI7437679
aS'+'
asS'SNORD4A'
p1242
(lp1243
I28722581
aI28722653
aS'+'
asS'TMEM100'
p1244
(lp1245
I55719626
aI55732121
aS'-'
asS'TMEM107'
p1246
(lp1247
I8172459
aI8176411
aS'-'
asS'RPL19'
p1248
(lp1249
I39200282
aI39204732
aS'+'
asS'TMEM104'
p1250
(lp1251
I74776482
aI74839783
aS'+'
asS'XAF1'
p1252
(lp1253
I6755446
aI6775645
aS'+'
asS'NME1'
p1254
(lp1255
I51153558
aI51162089
aS'+'
asS'NME2'
p1256
(lp1257
I51165434
aI51171744
aS'+'
asS'INPP5K'
p1258
(lp1259
I1494576
aI1516888
aS'-'
asS'CSHL1'
p1260
(lp1261
I63909596
aI63911328
aS'-'
asS'LOC101928674'
p1262
(lp1263
I78360447
aI78373909
aS'+'
asS'EME1'
p1264
(lp1265
I50373219
aI50381459
aS'+'
asS'LOC101928855'
p1266
(lp1267
I80801639
aI80805632
aS'-'
asS'TBC1D27P'
p1268
(lp1269
I16922775
aI16933176
aS'-'
asS'HELZ'
p1270
(lp1271
I67070437
aI67245204
aS'-'
asS'SNORD118'
p1272
(lp1273
I8173452
aI8173588
aS'-'
asS'GJC1'
p1274
(lp1275
I44798447
aI44830811
aS'-'
asS'KRTAP4-9'
p1276
(lp1277
I41105388
aI41106488
aS'+'
asS'KRTAP4-8'
p1278
(lp1279
I41096980
aI41098123
aS'-'
asS'NT5M'
p1280
(lp1281
I17303365
aI17347663
aS'+'
asS'KRTAP4-1'
p1282
(lp1283
I41184099
aI41184895
aS'-'
asS'KRTAP4-3'
p1284
(lp1285
I41167230
aI41168172
aS'-'
asS'KRTAP4-2'
p1286
(lp1287
I41177445
aI41178208
aS'-'
asS'KRTAP4-5'
p1288
(lp1289
I41148923
aI41149802
aS'-'
asS'KRTAP4-4'
p1290
(lp1291
I41159653
aI41160731
aS'-'
asS'KRTAP4-7'
p1292
(lp1293
I41084206
aI41085144
aS'+'
asS'KRTAP4-6'
p1294
(lp1295
I41139432
aI41140487
aS'-'
asS'LGALS9C'
p1296
(lp1297
I18476784
aI18494945
aS'+'
asS'LGALS9B'
p1298
(lp1299
I20449394
aI20467535
aS'-'
asS'CLUH'
p1300
(lp1301
I2689386
aI2712020
aS'-'
asS'LOC100287808'
p1302
(lp1303
I38749033
aI38751752
aS'+'
asS'KIAA0753'
p1304
(lp1305
I6578324
aI6640927
aS'-'
asS'PHF23'
p1306
(lp1307
I7235027
aI7239506
aS'-'
asS'ABCA10'
p1308
(lp1309
I69148006
aI69244815
aS'-'
asS'LOC101927839'
p1310
(lp1311
I2232677
aI2233610
aS'+'
asS'TP53'
p1312
(lp1313
I7668401
aI7687550
aS'-'
asS'UBE2O'
p1314
(lp1315
I76389531
aI76453206
aS'-'
asS'UBE2Z'
p1316
(lp1317
I48908368
aI48929060
aS'+'
asS'RPAIN'
p1318
(lp1319
I5419640
aI5433020
aS'+'
asS'TOP3A'
p1320
(lp1321
I18271428
aI18315092
aS'-'
asS'PPP1R9B'
p1322
(lp1323
I50133734
aI50150517
aS'-'
asS'SEC14L1'
p1324
(lp1325
I77088642
aI77217099
aS'+'
asS'RPRML'
p1326
(lp1327
I46978155
aI46979248
aS'-'
asS'KRT9'
p1328
(lp1329
I41565840
aI41572058
aS'-'
asS'THRA1/BTR'
p1330
(lp1331
I48294346
aI48307829
aS'+'
asS'BORCS6'
p1332
(lp1333
I8188332
aI8190246
aS'-'
asS'CTDNEP1'
p1334
(lp1335
I7243586
aI7251940
aS'-'
asS'MIR497HG'
p1336
(lp1337
I7015817
aI7019654
aS'-'
asS'RABEP1'
p1338
(lp1339
I5282262
aI5386339
aS'+'
asS'ALOX12B'
p1340
(lp1341
I8072635
aI8087716
aS'-'
asS'LOC101927018'
p1342
(lp1343
I28926274
aI28944748
aS'+'
asS'PLEKHM1'
p1344
(lp1345
I45435899
aI45490780
aS'-'
asS'FAM171A2'
p1346
(lp1347
I44353732
aI44363867
aS'-'
asS'SLC43A2'
p1348
(lp1349
I1569253
aI1628886
aS'-'
asS'WNT3'
p1350
(lp1351
I46762505
aI46818760
aS'-'
asS'LOC101927911'
p1352
(lp1353
I2962246
aI2965895
aS'-'
asS'SPAG5-AS1'
p1354
(lp1355
I28599132
aI28617377
aS'+'
asS'ZPBP2'
p1356
(lp1357
I39868201
aI39877896
aS'+'
asS'SAT2'
p1358
(lp1359
I7626233
aI7627876
aS'-'
asS'SPDYE4'
p1360
(lp1361
I8747531
aI8758559
aS'-'
asS'BIRC5'
p1362
(lp1363
I78214195
aI78225635
aS'+'
asS'SNORA48'
p1364
(lp1365
I7574712
aI7574847
aS'+'
asS'LINC00974'
p1366
(lp1367
I41549605
aI41554495
aS'-'
asS'EVPLL'
p1368
(lp1369
I18377764
aI18389646
aS'+'
asS'MIR1269B'
p1370
(lp1371
I12917267
aI12917342
aS'-'
asS'TNFSF12-TNFSF13'
p1372
(lp1373
I7549057
aI7561608
aS'+'
asS'NSF'
p1374
(lp1375
I46590668
aI46757462
aS'+'
asS'OTOP3'
p1376
(lp1377
I74935801
aI74949992
aS'+'
asS'OTOP2'
p1378
(lp1379
I74924274
aI74933911
aS'+'
asS'MSI2'
p1380
(lp1381
I57255850
aI57684689
aS'+'
asS'KRTAP4-11'
p1382
(lp1383
I41117180
aI41118354
aS'-'
asS'DUSP14'
p1384
(lp1385
I37489844
aI37513486
aS'+'
asS'RAMP2'
p1386
(lp1387
I42761193
aI42763041
aS'+'
asS'ENGASE'
p1388
(lp1389
I79074936
aI79088603
aS'+'
asS'CSH2'
p1390
(lp1391
I63872011
aI63873729
aS'-'
asS'CSH1'
p1392
(lp1393
I63894907
aI63896661
aS'-'
asS'RPA1'
p1394
(lp1395
I1829970
aI1899554
aS'+'
asS'RNFT1'
p1396
(lp1397
I59952361
aI59964756
aS'-'
asS'ANKFN1'
p1398
(lp1399
I56153474
aI56517016
aS'+'
asS'WNT9B'
p1400
(lp1401
I46851585
aI46886730
aS'+'
asS'AOC3'
p1402
(lp1403
I42851183
aI42858131
aS'+'
asS'AOC2'
p1404
(lp1405
I42844582
aI42850712
aS'+'
asS'TIMP2'
p1406
(lp1407
I78852976
aI78925387
aS'-'
asS'EPX'
p1408
(lp1409
I58192723
aI58205174
aS'+'
asS'LOC105371925'
p1410
(lp1411
I81228706
aI81232209
aS'+'
asS'MAP3K14-AS1'
p1412
(lp1413
I45247924
aI45268630
aS'+'
asS'RNASEK'
p1414
(lp1415
I7012416
aI7014533
aS'+'
asS'SLC26A11'
p1416
(lp1417
I80220400
aI80253509
aS'+'
asS'RNF126P1'
p1418
(lp1419
I57045477
aI57046795
aS'+'
asS'RARA-AS1'
p1420
(lp1421
I40340866
aI40343136
aS'-'
asS'KRTAP17-1'
p1422
(lp1423
I41314916
aI41315695
aS'-'
asS'LOC646030'
p1424
(lp1425
I31034747
aI31059109
aS'-'
asS'MIF4GD'
p1426
(lp1427
I75266229
aI75271231
aS'-'
asS'DDX5'
p1428
(lp1429
I64498253
aI64507038
aS'-'
asS'MYO15B'
p1430
(lp1431
I75588057
aI75626847
aS'+'
asS'MYO15A'
p1432
(lp1433
I18108705
aI18179802
aS'+'
asS'FOXK2'
p1434
(lp1435
I82519717
aI82604607
aS'+'
asS'RNU2-1'
p1436
(lp1437
I43233789
aI43233977
aS'-'
asS'PPP1R27'
p1438
(lp1439
I81833491
aI81835050
aS'-'
asS'ARHGAP27P2'
p1440
(lp1441
I68198659
aI68200302
aS'+'
asS'LOC105371855'
p1442
(lp1443
I62706205
aI62737921
aS'+'
asS'CLTC'
p1444
(lp1445
I59619688
aI59696956
aS'+'
asS'ARHGAP27P1'
p1446
(lp1447
I64778138
aI64781504
aS'-'
asS'MIS12'
p1448
(lp1449
I5486373
aI5490810
aS'+'
asS'BTBD17'
p1450
(lp1451
I74356415
aI74361868
aS'-'
asS'NATD1'
p1452
(lp1453
I21238870
aI21253266
aS'-'
asS'KCNJ16'
p1454
(lp1455
I70075224
aI70135605
aS'+'
asS'SLC5A10'
p1456
(lp1457
I18950675
aI19020691
aS'+'
asS'DLX4'
p1458
(lp1459
I49969189
aI49974959
aS'+'
asS'TOP2A'
p1460
(lp1461
I40388520
aI40417950
aS'-'
asS'ASIC2'
p1462
(lp1463
I33013087
aI34156806
aS'-'
asS'SNORD104'
p1464
(lp1465
I64146077
aI64146157
aS'+'
asS'MIR4316'
p1466
(lp1467
I77396983
aI77397054
aS'-'
asS'MIR4314'
p1468
(lp1469
I8088055
aI8088147
aS'+'
asS'PMP22'
p1470
(lp1471
I15229776
aI15265357
aS'-'
asS'CDC27'
p1472
(lp1473
I47117696
aI47189339
aS'-'
asS'GLOD4'
p1474
(lp1475
I759308
aI782331
aS'-'
asS'LOC107984974'
p1476
(lp1477
I31008283
aI31046832
aS'+'
asS'TNFAIP1'
p1478
(lp1479
I28335760
aI28347009
aS'+'
asS'SHBG'
p1480
(lp1481
I7614063
aI7633383
aS'+'
asS'BAIAP2'
p1482
(lp1483
I81035146
aI81117432
aS'+'
asS'EPN2-IT1'
p1484
(lp1485
I19271392
aI19274388
aS'+'
asS'NUP88'
p1486
(lp1487
I5384832
aI5419739
aS'-'
asS'LOC105371907'
p1488
(lp1489
I77273783
aI77281897
aS'-'
asS'LOC105371730'
p1490
(lp1491
I32141225
aI32143135
aS'-'
asS'LOC100288728'
p1492
(lp1493
I3134968
aI3176935
aS'-'
asS'EVI2B'
p1494
(lp1495
I31303769
aI31314112
aS'-'
asS'POLDIP2'
p1496
(lp1497
I28346627
aI28357589
aS'-'
asS'GP1BA'
p1498
(lp1499
I4932274
aI4935030
aS'+'
asS'SGCA'
p1500
(lp1501
I50165984
aI50175932
aS'+'
asS'SCPEP1'
p1502
(lp1503
I56978106
aI57006768
aS'+'
asS'RAPGEFL1'
p1504
(lp1505
I40177009
aI40195656
aS'+'
asS'MAPK7'
p1506
(lp1507
I19377720
aI19383544
aS'+'
asS'LINC01180'
p1508
(lp1509
I44646363
aI44650349
aS'-'
asS'ARL17B'
p1510
(lp1511
I46274183
aI46361787
aS'-'
asS'DUSP3'
p1512
(lp1513
I43766125
aI43778977
aS'-'
asS'SHPK'
p1514
(lp1515
I3608261
aI3636322
aS'-'
asS'JPT1'
p1516
(lp1517
I75135242
aI75154683
aS'-'
asS'FADS6'
p1518
(lp1519
I74877310
aI74893811
aS'-'
asS'CCL11'
p1520
(lp1521
I34285667
aI34288180
aS'+'
asS'CCL13'
p1522
(lp1523
I34356451
aI34358610
aS'+'
asS'CCL14'
p1524
(lp1525
I35983655
aI35986728
aS'-'
asS'CCL15'
p1526
(lp1527
I35997581
aI36002038
aS'-'
asS'CCL16'
p1528
(lp1529
I35976492
aI35981496
aS'-'
asS'CCL18'
p1530
(lp1531
I36064271
aI36071481
aS'+'
asS'SYNGR2'
p1532
(lp1533
I78168544
aI78172964
aS'+'
asS'LINC01982'
p1534
(lp1535
I52390521
aI52535701
aS'+'
asS'STAT5A'
p1536
(lp1537
I42287546
aI42311942
aS'+'
asS'LINC01987'
p1538
(lp1539
I77722871
aI77728559
aS'-'
asS'PITPNM3'
p1540
(lp1541
I6451262
aI6556557
aS'-'
asS'LINC01989'
p1542
(lp1543
I34169375
aI34183632
aS'-'
asS'TBC1D16'
p1544
(lp1545
I79932342
aI80035858
aS'-'
asS'KCTD2'
p1546
(lp1547
I75032566
aI75065889
aS'+'
asS'LOC103021295'
p1548
(lp1549
I4271430
aI4271894
aS'-'
asS'LINC01969'
p1550
(lp1551
I50214693
aI50215420
aS'+'
asS'ADAM11'
p1552
(lp1553
I44759178
aI44781846
aS'+'
asS'AMZ2P1'
p1554
(lp1555
I64966549
aI64975585
aS'-'
asS'FAM83G'
p1556
(lp1557
I18968790
aI19004764
aS'-'
asS'HS3ST3A1'
p1558
(lp1559
I13494031
aI13601942
aS'-'
asS'SLC38A10'
p1560
(lp1561
I81244810
aI81295339
aS'-'
asS'MIR4520-1'
p1562
(lp1563
I6655439
aI6655509
aS'-'
asS'LOC105274304'
p1564
(lp1565
I76671927
aI76673658
aS'+'
asS'DGKE'
p1566
(lp1567
I56834150
aI56869567
aS'+'
asS'CNP'
p1568
(lp1569
I41966740
aI41977736
aS'+'
asS'TMEM106A'
p1570
(lp1571
I43211826
aI43220037
aS'+'
asS'COPZ2'
p1572
(lp1573
I48026166
aI48037806
aS'-'
asS'NDEL1'
p1574
(lp1575
I8435851
aI8468177
aS'+'
asS'RNF167'
p1576
(lp1577
I4940007
aI4945223
aS'+'
asS'PEMT'
p1578
(lp1579
I17505562
aI17591703
aS'-'
asS'TXNDC17'
p1580
(lp1581
I6640901
aI6644541
aS'+'
asS'UNC45B'
p1582
(lp1583
I35147816
aI35189345
aS'+'
asS'BHLHA9'
p1584
(lp1585
I1270563
aI1271271
aS'+'
asS'ALOX15B'
p1586
(lp1587
I8039039
aI8049133
aS'+'
asS'LINC02210-CRHR1'
p1588
(lp1589
I45620328
aI45835828
aS'+'
asS'CTC1'
p1590
(lp1591
I8224820
aI8248095
aS'-'
asS'FAM222B'
p1592
(lp1593
I28755977
aI28842839
aS'-'
asS'CPSF4L'
p1594
(lp1595
I73248448
aI73261880
aS'-'
asS'KRT222'
p1596
(lp1597
I40655619
aI40665164
aS'-'
asS'FDXR'
p1598
(lp1599
I74862496
aI74873031
aS'-'
asS'C17orf77'
p1600
(lp1601
I74584678
aI74594209
aS'+'
asS'AMZ2'
p1602
(lp1603
I68206128
aI68257164
aS'+'
asS'LOC100130370'
p1604
(lp1605
I81375431
aI81385360
aS'-'
asS'SCN4A'
p1606
(lp1607
I63938553
aI63972918
aS'-'
asS'RAI1-AS1'
p1608
(lp1609
I17759153
aI17766302
aS'-'
asS'MRPL58'
p1610
(lp1611
I75012663
aI75021261
aS'+'
asS'C17orf78'
p1612
(lp1613
I37375985
aI37392708
aS'+'
asS'ARHGEF15'
p1614
(lp1615
I8310240
aI8322511
aS'+'
asS'GIP'
p1616
(lp1617
I48958555
aI48968593
aS'-'
asS'ALOXE3'
p1618
(lp1619
I8095899
aI8118916
aS'-'
asS'FXR2'
p1620
(lp1621
I7591229
aI7614897
aS'-'
asS'SH3GL1P2'
p1622
(lp1623
I30624317
aI30626807
aS'+'
asS'SH3GL1P1'
p1624
(lp1625
I32040335
aI32042832
aS'+'
asS'LOC101928475'
p1626
(lp1627
I15014804
aI15052275
aS'+'
asS'MBTD1'
p1628
(lp1629
I51177424
aI51260066
aS'-'
asS'NPB'
p1630
(lp1631
I81902237
aI81902905
aS'+'
asS'MGC16275'
p1632
(lp1633
I74209995
aI74213321
aS'-'
asS'MIR744'
p1634
(lp1635
I12081898
aI12081996
aS'+'
asS'BAIAP2-DT'
p1636
(lp1637
I81029132
aI81034719
aS'-'
asS'FBXW10'
p1638
(lp1639
I18744012
aI18779349
aS'+'
asS'SNORD65'
p1640
(lp1641
I16441225
aI16441298
aS'+'
asS'MYO18A'
p1642
(lp1643
I29073509
aI29180389
aS'-'
asS'MGC12916'
p1644
(lp1645
I14303739
aI14305745
aS'+'
asS'PPP1R1B'
p1646
(lp1647
I39626923
aI39636625
aS'+'
asS'TADA2A'
p1648
(lp1649
I37406885
aI37477121
aS'+'
asS'APOH'
p1650
(lp1651
I66212028
aI66229438
aS'-'
asS'OVCA2'
p1652
(lp1653
I2041982
aI2043431
aS'+'
asS'FAM104A'
p1654
(lp1655
I73207352
aI73232394
aS'-'
asS'NF1'
p1656
(lp1657
I31094926
aI31377677
aS'+'
asS'BLMH'
p1658
(lp1659
I30248202
aI30291944
aS'-'
asS'FOXJ1'
p1660
(lp1661
I76136333
aI76141299
aS'-'
asS'SNORD91B'
p1662
(lp1663
I2329124
aI2329210
aS'-'
asS'CCDC57'
p1664
(lp1665
I82101453
aI82212878
aS'-'
asS'RPH3AL'
p1666
(lp1667
I212388
aI352842
aS'-'
asS'LOC105371592'
p1668
(lp1669
I2712308
aI2712833
aS'+'
asS'LOC105371849'
p1670
(lp1671
I60079308
aI60088692
aS'+'
asS'NUFIP2'
p1672
(lp1673
I29255838
aI29294148
aS'-'
asS'SDF2'
p1674
(lp1675
I28648355
aI28662189
aS'-'
asS'SLC35B1'
p1676
(lp1677
I49700933
aI49707951
aS'-'
asS'FLOT2'
p1678
(lp1679
I28879334
aI28897736
aS'-'
asS'FBXO39'
p1680
(lp1681
I6776232
aI6787646
aS'+'
asS'MYH10'
p1682
(lp1683
I8474204
aI8630761
aS'-'
asS'MYH13'
p1684
(lp1685
I10300865
aI10373005
aS'-'
asS'PELP1'
p1686
(lp1687
I4671383
aI4704337
aS'-'
asS'SPEM1'
p1688
(lp1689
I7420359
aI7421632
aS'+'
asS'SPEM2'
p1690
(lp1691
I7425615
aI7427567
aS'+'
asS'SPEM3'
p1692
(lp1693
I7428856
aI7432819
aS'+'
asS'AKAP10'
p1694
(lp1695
I19904302
aI19977856
aS'-'
asS'LINC02563'
p1696
(lp1697
I65457540
aI65458408
aS'+'
asS'GPRC5C'
p1698
(lp1699
I74432087
aI74451653
aS'+'
asS'TVP23C-CDRT4'
p1700
(lp1701
I15436014
aI15563631
aS'-'
asS'MIR378J'
p1702
(lp1703
I37614930
aI37615039
aS'-'
asS'LINC02089'
p1704
(lp1705
I52862120
aI52899588
aS'+'
asS'LINC02088'
p1706
(lp1707
I20612977
aI20633251
aS'-'
asS'LINC02087'
p1708
(lp1709
I15806241
aI15817742
aS'-'
asS'LINC02080'
p1710
(lp1711
I76799043
aI76807102
aS'+'
asS'C17orf82'
p1712
(lp1713
I61411750
aI61413280
aS'+'
asS'C17orf80'
p1714
(lp1715
I73232089
aI73248956
aS'+'
asS'LASP1'
p1716
(lp1717
I38869858
aI38921770
aS'+'
asS'NAA38'
p1718
(lp1719
I7856680
aI7885388
aS'-'
asS'NTN1'
p1720
(lp1721
I9021509
aI9244000
aS'+'
asS'MYHAS'
p1722
(lp1723
I10383131
aI10625540
aS'+'
asS'B4GALNT2'
p1724
(lp1725
I49132459
aI49169989
aS'+'
asS'RCVRN'
p1726
(lp1727
I9897709
aI9905367
aS'-'
asS'WDR81'
p1728
(lp1729
I1716522
aI1738599
aS'+'
asS'ATP5MC1'
p1730
(lp1731
I48892785
aI48895870
aS'+'
asS'LINC00482'
p1732
(lp1733
I81302823
aI81309248
aS'-'
asS'VPS25'
p1734
(lp1735
I42773435
aI42779600
aS'+'
asS'AARSD1'
p1736
(lp1737
I42950525
aI42964498
aS'-'
asS'HNF1B'
p1738
(lp1739
I37686430
aI37745078
aS'-'
asS'RAI1'
p1740
(lp1741
I17681457
aI17811451
aS'+'
asS'LINC01996'
p1742
(lp1743
I4610448
aI4617647
aS'+'
asS'SKA2'
p1744
(lp1745
I59109858
aI59155439
aS'-'
asS'LINC01992'
p1746
(lp1747
I27928923
aI27991707
aS'-'
asS'LINC01993'
p1748
(lp1749
I78261348
aI78278492
aS'-'
asS'SCIMP'
p1750
(lp1751
I5208920
aI5234860
aS'-'
asS'APPBP2'
p1752
(lp1753
I60443148
aI60526240
aS'-'
asS'QRICH2'
p1754
(lp1755
I76274048
aI76307680
aS'-'
asS'KRT40'
p1756
(lp1757
I40977715
aI40987135
aS'-'
asS'COA3'
p1758
(lp1759
I42797624
aI42798704
aS'-'
asS'LGALS3BP'
p1760
(lp1761
I78971252
aI78979979
aS'-'
asS'NXPH3'
p1762
(lp1763
I49575935
aI49583809
aS'+'
asS'LINC01978'
p1764
(lp1765
I79919356
aI79924004
aS'+'
asS'LINC01979'
p1766
(lp1767
I79915251
aI79926725
aS'-'
asS'LINC01973'
p1768
(lp1769
I77879000
aI77884087
aS'-'
asS'LINC01970'
p1770
(lp1771
I82290045
aI82292814
aS'-'
asS'LINC01976'
p1772
(lp1773
I43938260
aI43938962
aS'+'
asS'PITPNA-AS1'
p1774
(lp1775
I1516918
aI1518096
aS'+'
asS'LINC01975'
p1776
(lp1777
I3977102
aI3983145
aS'+'
asS'ARSG'
p1778
(lp1779
I68259181
aI68429373
aS'+'
asS'HAP1'
p1780
(lp1781
I41722638
aI41734646
aS'-'
asS'MIR365B'
p1782
(lp1783
I31575410
aI31575521
aS'+'
asS'HEXD'
p1784
(lp1785
I82418353
aI82442645
aS'+'
asS'CA4'
p1786
(lp1787
I60149935
aI60179021
aS'+'
asS'PNMT'
p1788
(lp1789
I39667980
aI39670475
aS'+'
asS'CHRNE'
p1790
(lp1791
I4897770
aI4903098
aS'-'
asS'SNORA21'
p1792
(lp1793
I38852862
aI38852995
aS'-'
asS'TNRC6C'
p1794
(lp1795
I78004236
aI78108835
aS'+'
asS'TEX19'
p1796
(lp1797
I82359246
aI82363776
aS'+'
asS'PYCR1'
p1798
(lp1799
I81932385
aI81937328
aS'-'
asS'UBBP4'
p1800
(lp1801
I22202994
aI22205156
aS'+'
asS'USP22'
p1802
(lp1803
I20999592
aI21043039
aS'-'
asS'MAPK8IP1P2'
p1804
(lp1805
I45600102
aI45601862
aS'-'
asS'RAB5C'
p1806
(lp1807
I42124975
aI42155044
aS'-'
asS'SENP3-EIF4A1'
p1808
(lp1809
I7561991
aI7579006
aS'+'
asS'ZNF232'
p1810
(lp1811
I5105733
aI5123116
aS'-'
asS'SSH2'
p1812
(lp1813
I29625938
aI29930228
aS'-'
asS'CENPX'
p1814
(lp1815
I82018702
aI82022918
aS'-'
asS'CENPV'
p1816
(lp1817
I16342537
aI16353469
aS'-'
asS'PAFAH1B1'
p1818
(lp1819
I2593628
aI2685615
aS'+'
asS'PYY'
p1820
(lp1821
I43952732
aI44004469
aS'-'
asS'GH1'
p1822
(lp1823
I63917192
aI63918852
aS'-'
asS'GH2'
p1824
(lp1825
I63880211
aI63881942
aS'-'
asS'MIR423'
p1826
(lp1827
I30117078
aI30117172
aS'+'
asS'CSF3'
p1828
(lp1829
I40015360
aI40017813
aS'+'
asS'MRPL45'
p1830
(lp1831
I38297022
aI38323218
aS'+'
asS'MIR6777'
p1832
(lp1833
I17813479
aI17813545
aS'-'
asS'MIR6776'
p1834
(lp1835
I2692860
aI2692919
aS'-'
asS'RILP'
p1836
(lp1837
I1646150
aI1650098
aS'-'
asS'CYBC1'
p1838
(lp1839
I82442585
aI82450831
aS'-'
asS'MIR6779'
p1840
(lp1841
I38914978
aI38915042
aS'+'
asS'MIR6778'
p1842
(lp1843
I18340813
aI18340886
aS'-'
asS'SP2-AS1'
p1844
(lp1845
I47898385
aI47941404
aS'-'
asS'DHX33'
p1846
(lp1847
I5440911
aI5469060
aS'-'
asS'LRRC3C'
p1848
(lp1849
I39941473
aI39944734
aS'+'
asS'DDX52'
p1850
(lp1851
I37609740
aI37643464
aS'-'
asS'B3GNTL1'
p1852
(lp1853
I82942148
aI83051810
aS'-'
asS'NEK8'
p1854
(lp1855
I28728787
aI28743455
aS'+'
asS'MIR338'
p1856
(lp1857
I81125882
aI81125949
aS'-'
asS'MIR33B'
p1858
(lp1859
I17813835
aI17813931
aS'-'
asS'ALYREF'
p1860
(lp1861
I81887834
aI81891587
aS'-'
asS'LINC02003'
p1862
(lp1863
I72342810
aI72355136
aS'+'
asS'GLTPD2'
p1864
(lp1865
I4788958
aI4790589
aS'+'
asS'DNAH2'
p1866
(lp1867
I7717353
aI7833744
aS'+'
asS'EPOP'
p1868
(lp1869
I38671705
aI38674934
aS'-'
asS'SUPT6H'
p1870
(lp1871
I28662197
aI28702684
aS'+'
asS'DNAH9'
p1872
(lp1873
I11598430
aI11969748
aS'+'
asS'LOC101928266'
p1874
(lp1875
I9171067
aI9179118
aS'-'
asS'LOC339192'
p1876
(lp1877
I45190930
aI45221765
aS'-'
asS'CCDC47'
p1878
(lp1879
I63745249
aI63773728
aS'-'
asS'CCDC43'
p1880
(lp1881
I44677436
aI44689797
aS'-'
asS'CCDC42'
p1882
(lp1883
I8729927
aI8744836
aS'-'
asS'CCDC40'
p1884
(lp1885
I80036631
aI80100613
aS'+'
asS'OR1D5'
p1886
(lp1887
I3062668
aI3063607
aS'-'
asS'OR1D4'
p1888
(lp1889
I3240675
aI3241614
aS'+'
asS'OR1D2'
p1890
(lp1891
I3092057
aI3092996
aS'-'
asS'MYH2'
p1892
(lp1893
I10521147
aI10549658
aS'-'
asS'MYH3'
p1894
(lp1895
I10628525
aI10657309
aS'-'
asS'COASY'
p1896
(lp1897
I42562073
aI42566281
aS'+'
asS'MYH1'
p1898
(lp1899
I10492309
aI10518542
aS'-'
asS'MYH4'
p1900
(lp1901
I10443290
aI10469559
aS'-'
asS'GAS2L2'
p1902
(lp1903
I35744510
aI35752878
aS'-'
asS'MYH8'
p1904
(lp1905
I10390324
aI10421950
aS'-'
asS'MIR4524A'
p1906
(lp1907
I69099563
aI69099632
aS'-'
asS'CFAP97D1'
p1908
(lp1909
I43780434
aI43784827
aS'+'
asS'MIR4524B'
p1910
(lp1911
I69099541
aI69099656
aS'+'
asS'VTN'
p1912
(lp1913
I28367277
aI28370352
aS'-'
asS'SNORD163'
p1914
(lp1915
I16153132
aI16153196
aS'-'
asS'LOC100996842'
p1916
(lp1917
I7581966
aI7584079
aS'-'
asS'LINC01563'
p1918
(lp1919
I21075555
aI21090613
aS'+'
asS'STX8'
p1920
(lp1921
I9250470
aI9575958
aS'-'
asS'CCL4L1'
p1922
(lp1923
I36210907
aI36212878
aS'+'
asS'CCL4L2'
p1924
(lp1925
I36211062
aI36212878
aS'+'
asS'LINC02090'
p1926
(lp1927
I16988328
aI16990176
aS'+'
asS'LINC02091'
p1928
(lp1929
I183823
aI187251
aS'-'
asS'LINC02092'
p1930
(lp1931
I73786821
aI73800795
aS'+'
asS'GDPD1'
p1932
(lp1933
I59220466
aI59275969
aS'+'
asS'LINC02097'
p1934
(lp1935
I72072332
aI72093481
aS'+'
asS'CRHR1'
p1936
(lp1937
I45784279
aI45835828
aS'+'
asS'C17orf99'
p1938
(lp1939
I78146352
aI78166283
aS'+'
asS'C17orf98'
p1940
(lp1941
I38835087
aI38841389
aS'-'
asS'PHF12'
p1942
(lp1943
I28905252
aI28951490
aS'-'
asS'C17orf97'
p1944
(lp1945
I410326
aI414666
aS'+'
asS'EZH1'
p1946
(lp1947
I42700274
aI42745096
aS'-'
asS'KRT17P2'
p1948
(lp1949
I18426860
aI18431926
aS'+'
asS'TEN1'
p1950
(lp1951
I75979216
aI76000586
aS'+'
asS'DRG2'
p1952
(lp1953
I18087866
aI18107985
aS'+'
asS'MIR3184'
p1954
(lp1955
I30117085
aI30117160
aS'-'
asS'AURKB'
p1956
(lp1957
I8204730
aI8210626
aS'-'
asS'TBC1D3P5'
p1958
(lp1959
I27418004
aI27431623
aS'+'
asS'YWHAE'
p1960
(lp1961
I1344539
aI1400262
aS'-'
asS'TOM1L1'
p1962
(lp1963
I54900690
aI54961967
aS'+'
asS'ZBTB4'
p1964
(lp1965
I7459365
aI7484249
aS'-'
asS'NBR2'
p1966
(lp1967
I43125556
aI43153671
aS'+'
asS'NBR1'
p1968
(lp1969
I43170470
aI43211689
aS'+'
asS'CDC42EP4'
p1970
(lp1971
I73283623
aI73312004
aS'-'
asS'CASC3'
p1972
(lp1973
I40140253
aI40172178
aS'+'
asS'MIR22HG'
p1974
(lp1975
I1711503
aI1716272
aS'-'
asS'TBKBP1'
p1976
(lp1977
I47695263
aI47712063
aS'+'
asS'VAMP2'
p1978
(lp1979
I8159146
aI8162975
aS'-'
asS'WFIKKN2'
p1980
(lp1981
I50834649
aI50842353
aS'+'
asS'ABI3'
p1982
(lp1983
I49210226
aI49223225
aS'+'
asS'SLFN5'
p1984
(lp1985
I35243035
aI35273654
aS'+'
asS'PITPNC1'
p1986
(lp1987
I67377280
aI67697263
aS'+'
asS'KRT39'
p1988
(lp1989
I40958416
aI40966892
aS'-'
asS'CACNA1G-AS1'
p1990
(lp1991
I50556206
aI50562108
aS'-'
asS'ACADVL'
p1992
(lp1993
I7217124
aI7225267
aS'+'
asS'SLC6A4'
p1994
(lp1995
I30194318
aI30235968
aS'-'
asS'KRT31'
p1996
(lp1997
I41393724
aI41397592
aS'-'
asS'KRT32'
p1998
(lp1999
I41459512
aI41467386
aS'-'
asS'KRT35'
p2000
(lp2001
I41476688
aI41481140
aS'-'
asS'KRT34'
p2002
(lp2003
I41377668
aI41382384
aS'-'
asS'KRT37'
p2004
(lp2005
I41420556
aI41424570
aS'-'
asS'KRT36'
p2006
(lp2007
I41486135
aI41489864
aS'-'
asS'MAGOH2P'
p2008
(lp2009
I10715942
aI10716582
aS'-'
asS'MIR657'
p2010
(lp2011
I81125275
aI81125373
aS'-'
asS'PPY2P'
p2012
(lp2013
I28247443
aI28248289
aS'+'
asS'KIF2B'
p2014
(lp2015
I53822877
aI53825212
aS'+'
asS'PECAM1'
p2016
(lp2017
I64319415
aI64390878
aS'-'
asS'FMNL1'
p2018
(lp2019
I45221924
aI45247316
aS'+'
asS'H3F3B'
p2020
(lp2021
I75776433
aI75779935
aS'-'
asS'BRCA1'
p2022
(lp2023
I43044294
aI43125483
aS'-'
asS'ANKRD40'
p2024
(lp2025
I50693197
aI50707914
aS'-'
asS'WNK4'
p2026
(lp2027
I42780630
aI42797066
aS'+'
asS'NT5C'
p2028
(lp2029
I75130224
aI75131795
aS'-'
asS'RFNG'
p2030
(lp2031
I82047901
aI82051811
aS'-'
asS'USP32'
p2032
(lp2033
I60177329
aI60392225
aS'-'
asS'SHMT1'
p2034
(lp2035
I18327859
aI18363563
aS'-'
asS'PLD6'
p2036
(lp2037
I17200994
aI17206332
aS'-'
asS'P4HB'
p2038
(lp2039
I81843157
aI81860668
aS'-'
asS'PLD2'
p2040
(lp2041
I4807100
aI4823432
aS'+'
asS'PHB'
p2042
(lp2043
I49404047
aI49414905
aS'-'
asS'MCRIP1'
p2044
(lp2045
I81822360
aI81833294
aS'-'
asS'SECTM1'
p2046
(lp2047
I82321023
aI82334045
aS'-'
asS'PNPO'
p2048
(lp2049
I47941522
aI47949308
aS'+'
asS'RNF213'
p2050
(lp2051
I80260860
aI80398781
aS'+'
asS'ZACN'
p2052
(lp2053
I76079181
aI76082804
aS'+'
asS'SCO1'
p2054
(lp2055
I10680331
aI10697568
aS'-'
asS'SKAP1'
p2056
(lp2057
I48133439
aI48430232
aS'-'
asS'MED24'
p2058
(lp2059
I40019096
aI40054742
aS'-'
asS'SEPT9'
p2060
(lp2061
I77281409
aI77500596
aS'+'
asS'HOXB-AS3'
p2062
(lp2063
I48590419
aI48606412
aS'+'
asS'HOXB-AS1'
p2064
(lp2065
I48544350
aI48551241
aS'+'
asS'PITPNA'
p2066
(lp2067
I1517988
aI1562816
aS'-'
asS'KRTAP9-8'
p2068
(lp2069
I41238017
aI41239004
aS'+'
asS'KRTAP9-9'
p2070
(lp2071
I41232499
aI41256364
aS'+'
asS'KANSL1'
p2072
(lp2073
I46029915
aI46225374
aS'-'
asS'SMURF2'
p2074
(lp2075
I64544616
aI64662268
aS'-'
asS'MIR6782'
p2076
(lp2077
I44207770
aI44207839
aS'-'
asS'MIR6783'
p2078
(lp2079
I44934617
aI44934681
aS'-'
asS'KRTAP9-2'
p2080
(lp2081
I41226647
aI41227652
aS'+'
asS'KRTAP9-3'
p2082
(lp2083
I41232462
aI41233454
aS'+'
asS'KRTAP9-4'
p2084
(lp2085
I41249686
aI41250653
aS'+'
asS'MIR6787'
p2086
(lp2087
I82236667
aI82236728
aS'+'
asS'MIR6784'
p2088
(lp2089
I45114366
aI45114433
aS'-'
asS'KRTAP9-7'
p2090
(lp2091
I41041317
aI41167743
aS'-'
asS'JUP'
p2092
(lp2093
I41754606
aI41786768
aS'-'
asS'LINC02093'
p2094
(lp2095
I13299180
aI13306760
aS'-'
asS'CDK5R1'
p2096
(lp2097
I32487086
aI32491253
aS'+'
asS'MIR6781'
p2098
(lp2099
I42823879
aI42823943
aS'-'
asS'NARF'
p2100
(lp2101
I82458740
aI82490537
aS'+'
asS'HOXB6'
p2102
(lp2103
I48595736
aI48604972
aS'-'
asS'BAHCC1'
p2104
(lp2105
I81399720
aI81466332
aS'+'
asS'EPN3'
p2106
(lp2107
I50532686
aI50543750
aS'+'
asS'EPN2'
p2108
(lp2109
I19237376
aI19336715
aS'+'
asS'LOC101928418'
p2110
(lp2111
I12671861
aI12706135
aS'-'
asS'USP32P1'
p2112
(lp2113
I16786891
aI16804505
aS'+'
asS'USP32P2'
p2114
(lp2115
I18511261
aI18521252
aS'-'
asS'USP32P3'
p2116
(lp2117
I20410515
aI20433068
aS'+'
asS'HOXB4'
p2118
(lp2119
I48575506
aI48578381
aS'-'
asS'C17orf112'
p2120
(lp2121
I52985519
aI52987652
aS'+'
asS'MRPS23'
p2122
(lp2123
I57838925
aI57850072
aS'-'
asS'GPR179'
p2124
(lp2125
I38325609
aI38343810
aS'-'
asS'RHBDF2'
p2126
(lp2127
I76470892
aI76501427
aS'-'
asS'ZNF750'
p2128
(lp2129
I82829433
aI82840055
aS'-'
asS'LOC100130950'
p2130
(lp2131
I5192006
aI5236003
aS'+'
asS'MIR324'
p2132
(lp2133
I7223296
aI7223379
aS'-'
asS'MEIOC'
p2134
(lp2135
I44656467
aI44675801
aS'+'
asS'COX10-AS1'
p2136
(lp2137
I14029291
aI14069458
aS'-'
asS'TBX2'
p2138
(lp2139
I61399895
aI61409466
aS'+'
asS'TBX4'
p2140
(lp2141
I61452421
aI61485110
aS'+'
asS'JMJD6'
p2142
(lp2143
I76712831
aI76726799
aS'-'
asS'LOC101928251'
p2144
(lp2145
I73513682
aI73518771
aS'+'
asS'RPL29P2'
p2146
(lp2147
I7754319
aI7754968
aS'+'
asS'MIR548AA2'
p2148
(lp2149
I67471488
aI67471585
aS'+'
asS'MIR6165'
p2150
(lp2151
I49510816
aI49510900
aS'+'
asS'FAM106B'
p2152
(lp2153
I20417019
aI20418518
aS'+'
asS'ERN1'
p2154
(lp2155
I64039141
aI64130142
aS'-'
asS'FAM106A'
p2156
(lp2157
I18524565
aI18526846
aS'-'
asS'ACACA'
p2158
(lp2159
I37084991
aI37406811
aS'-'
asS'SLFN14'
p2160
(lp2161
I35548124
aI35558091
aS'-'
asS'YWHAEP7'
p2162
(lp2163
I37842948
aI37884743
aS'-'
asS'SLFN11'
p2164
(lp2165
I35350309
aI35373701
aS'-'
asS'SLFN12'
p2166
(lp2167
I35410921
aI35433176
aS'-'
asS'SLFN13'
p2168
(lp2169
I35435095
aI35448766
aS'-'
asS'OR1E2'
p2170
(lp2171
I3432869
aI3433841
aS'-'
asS'OR1E3'
p2172
(lp2173
I3116593
aI3117457
aS'+'
asS'OR1E1'
p2174
(lp2175
I3397465
aI3398410
aS'-'
asS'RAD51D'
p2176
(lp2177
I35099792
aI35119869
aS'-'
asS'RAD51C'
p2178
(lp2179
I58692601
aI58735611
aS'+'
asS'PYY2'
p2180
(lp2181
I28226562
aI28228059
aS'+'
asS'KRTAP16-1'
p2182
(lp2183
I41307699
aI41309253
aS'-'
asS'PFAS'
p2184
(lp2185
I8249288
aI8270486
aS'+'
asS'MIR548D2'
p2186
(lp2187
I67471490
aI67471585
aS'-'
asS'MPRIP'
p2188
(lp2189
I17042456
aI17192648
aS'+'
asS'MIEN1'
p2190
(lp2191
I39728499
aI39730563
aS'-'
asS'KRTAP29-1'
p2192
(lp2193
I41301825
aI41302851
aS'-'
asS'MLLT6'
p2194
(lp2195
I38705619
aI38729803
aS'+'
asS'ROCR'
p2196
(lp2197
I72021850
aI72025979
aS'-'
asS'PHOSPHO1'
p2198
(lp2199
I49223369
aI49230766
aS'-'
asS'KRT12'
p2200
(lp2201
I40861177
aI40867210
aS'-'
asS'ZNHIT3'
p2202
(lp2203
I36486626
aI36499310
aS'+'
asS'STAC2'
p2204
(lp2205
I39210535
aI39225872
aS'-'
asS'C17orf67'
p2206
(lp2207
I56791912
aI56833926
aS'-'
asS'SPOP'
p2208
(lp2209
I49598883
aI49678163
aS'-'
asS'MYBBP1A'
p2210
(lp2211
I4538895
aI4555386
aS'-'
asS'PLEKHM1P1'
p2212
(lp2213
I64784840
aI64837184
aS'-'
asS'SNORA50C'
p2214
(lp2215
I64146338
aI64146471
aS'+'
asS'RAMP2-AS1'
p2216
(lp2217
I42753925
aI42761257
aS'-'
asS'KRT19'
p2218
(lp2219
I41523616
aI41528389
aS'-'
asS'TMEM92-AS1'
p2220
(lp2221
I50281580
aI50287855
aS'-'
asS'MIR3678'
p2222
(lp2223
I75406068
aI75406162
aS'+'
asS'LYRM9'
p2224
(lp2225
I27878313
aI27893383
aS'-'
asS'MRC2'
p2226
(lp2227
I62627400
aI62693601
aS'+'
asS'NXN'
p2228
(lp2229
I799312
aI979758
aS'-'
asS'CCL5'
p2230
(lp2231
I35871490
aI35880373
aS'-'
asS'FLII'
p2232
(lp2233
I18244816
aI18258916
aS'-'
asS'TTYH2'
p2234
(lp2235
I74213570
aI74262018
aS'+'
asS'LRRC37A'
p2236
(lp2237
I46295130
aI46337794
aS'+'
asS'LRRC37B'
p2238
(lp2239
I32007871
aI32053501
aS'+'
asS'KRT28'
p2240
(lp2241
I40792195
aI40799959
aS'-'
asS'SPAG9'
p2242
(lp2243
I50962173
aI51120865
aS'-'
asS'KRT23'
p2244
(lp2245
I40922695
aI40937643
aS'-'
asS'COG1'
p2246
(lp2247
I73193054
aI73208506
aS'+'
asS'SPAG5'
p2248
(lp2249
I28577564
aI28599038
aS'-'
asS'KRT26'
p2250
(lp2251
I40766237
aI40772159
aS'-'
asS'KRT27'
p2252
(lp2253
I40776807
aI40782534
aS'-'
asS'KRT24'
p2254
(lp2255
I40697990
aI40703750
aS'-'
asS'KRT25'
p2256
(lp2257
I40748020
aI40755332
aS'-'
asS'ALOX12-AS1'
p2258
(lp2259
I6985122
aI7012334
aS'-'
asS'PCGF2'
p2260
(lp2261
I38733896
aI38748305
aS'-'
asS'UBB'
p2262
(lp2263
I16380792
aI16382745
aS'+'
asS'LOC101927166'
p2264
(lp2265
I48444832
aI48466040
aS'+'
asS'LOC105371789'
p2266
(lp2267
I44115911
aI44120595
aS'+'
asS'ELP5'
p2268
(lp2269
I7251736
aI7259940
aS'+'
asS'TBC1D3P2'
p2270
(lp2271
I62264705
aI62275655
aS'-'
asS'PTGES3L'
p2272
(lp2273
I42968087
aI42980528
aS'-'
asS'TAF15'
p2274
(lp2275
I35809454
aI35847242
aS'+'
asS'TMEM238L'
p2276
(lp2277
I10794912
aI10804099
aS'-'
asS'DPRXP4'
p2278
(lp2279
I30975334
aI30975999
aS'+'
asS'AANAT'
p2280
(lp2281
I76453350
aI76470117
aS'+'
asS'LOC728392'
p2282
(lp2283
I5499426
aI5500999
aS'-'
asS'PCTP'
p2284
(lp2285
I55750978
aI55823090
aS'+'
asS'CDC6'
p2286
(lp2287
I40287878
aI40304657
aS'+'
asS'RNF222'
p2288
(lp2289
I8390704
aI8397826
aS'-'
asS'NPEPPS'
p2290
(lp2291
I47522956
aI47623276
aS'+'
asS'RNF227'
p2292
(lp2293
I7913323
aI7916318
aS'-'
asS'C1QL1'
p2294
(lp2295
I44959692
aI44968276
aS'-'
asS'TMEM98'
p2296
(lp2297
I32927909
aI32941649
aS'+'
asS'TMEM99'
p2298
(lp2299
I40819091
aI40836274
aS'+'
asS'SIRT7'
p2300
(lp2301
I81911938
aI81918182
aS'-'
asS'GSG1L2'
p2302
(lp2303
I9802385
aI9822071
aS'-'
asS'ODF4'
p2304
(lp2305
I8339839
aI8346045
aS'+'
asS'TMEM92'
p2306
(lp2307
I50271405
aI50281485
aS'+'
asS'KRT42P'
p2308
(lp2309
I41626326
aI41640199
aS'-'
asS'TMEM97'
p2310
(lp2311
I28319094
aI28328685
aS'+'
asS'TMEM94'
p2312
(lp2313
I75456463
aI75500452
aS'+'
asS'TMEM95'
p2314
(lp2315
I7355135
aI7357219
aS'+'
asS'TRIM47'
p2316
(lp2317
I75874163
aI75878575
aS'-'
asS'CARD14'
p2318
(lp2319
I80169991
aI80209331
aS'+'
asS'ASPA'
p2320
(lp2321
I3474109
aI3499406
aS'+'
asS'FAM57A'
p2322
(lp2323
I732545
aI742968
aS'+'
asS'RSKR'
p2324
(lp2325
I28607963
aI28614193
aS'-'
asS'MIR132'
p2326
(lp2327
I2049907
aI2050008
aS'-'
asS'ACE'
p2328
(lp2329
I63477060
aI63498380
aS'+'
asS'MSX2P1'
p2330
(lp2331
I58156958
aI58159119
aS'+'
asS'MIR1250'
p2332
(lp2333
I81133195
aI81133308
aS'-'
asS'MIR1253'
p2334
(lp2335
I2748077
aI2748182
aS'-'
asS'CYTH1'
p2336
(lp2337
I78674046
aI78782342
aS'-'
asS'RASD1'
p2338
(lp2339
I17494438
aI17496395
aS'-'
asS'GPR142'
p2340
(lp2341
I74367505
aI74372600
aS'+'
asS'TBC1D3'
p2342
(lp2343
I38057509
aI38068606
aS'-'
asS'AFMID'
p2344
(lp2345
I78187316
aI78207701
aS'+'
asS'KDM6B'
p2346
(lp2347
I7839905
aI7854790
aS'+'
asS'FGF11'
p2348
(lp2349
I7438272
aI7444932
aS'+'
asS'DPH1'
p2350
(lp2351
I2030111
aI2043431
aS'+'
asS'INCA1'
p2352
(lp2353
I4988129
aI4997610
aS'-'
asS'UNC13D'
p2354
(lp2355
I75827225
aI75844717
aS'-'
asS'FAM187A'
p2356
(lp2357
I44903829
aI44905390
aS'+'
asS'TNFRSF13B'
p2358
(lp2359
I16939083
aI16972088
aS'-'
asS'WSCD1'
p2360
(lp2361
I6070613
aI6124427
aS'+'
asS'KRT20'
p2362
(lp2363
I40875888
aI40885243
aS'-'
asS'GLP2R'
p2364
(lp2365
I9825923
aI9892099
aS'+'
asS'PGS1'
p2366
(lp2367
I78378617
aI78424659
aS'+'
asS'LOC105371899'
p2368
(lp2369
I76950473
aI76969199
aS'-'
asS'RUNDC3A'
p2370
(lp2371
I44308558
aI44318670
aS'+'
asS'CNTNAP1'
p2372
(lp2373
I42682613
aI42699993
aS'+'
asS'LOC100507002'
p2374
(lp2375
I65100811
aI65111094
aS'+'
asS'SRCIN1'
p2376
(lp2377
I38530023
aI38605930
aS'-'
asS'LOC101927877'
p2378
(lp2379
I62808501
aI62836371
aS'+'
asS'TSR1'
p2380
(lp2381
I2322687
aI2337384
aS'-'
asS'SLC9A3R1'
p2382
(lp2383
I74748611
aI74769360
aS'+'
asS'LSM12'
p2384
(lp2385
I44034634
aI44067619
aS'-'
asS'RAD51L3-RFFL'
p2386
(lp2387
I35009111
aI35121522
aS'-'
asS'UBE2G1'
p2388
(lp2389
I4269216
aI4366674
aS'-'
asS'MIR5089'
p2390
(lp2391
I46973016
aI46973100
aS'+'
asS'HILS1'
p2392
(lp2393
I50171427
aI50172476
aS'-'
asS'ULK2'
p2394
(lp2395
I19770829
aI19867926
aS'-'
asS'KCNJ12'
p2396
(lp2397
I21376386
aI21419867
aS'+'
asS'NAGS'
p2398
(lp2399
I44004663
aI44009068
aS'+'
asS'KCNJ18'
p2400
(lp2401
I21692522
aI21704612
aS'+'
asS'GGT6'
p2402
(lp2403
I4556926
aI4560596
aS'-'
asS'FBF1'
p2404
(lp2405
I75909573
aI75938232
aS'-'
asS'MIR22'
p2406
(lp2407
I1713902
aI1713987
aS'-'
asS'MIR21'
p2408
(lp2409
I59841265
aI59841337
aS'+'
asS'TIAF1'
p2410
(lp2411
I29073520
aI29075609
aS'-'
asS'CCDC144NL'
p2412
(lp2413
I20863394
aI20896140
aS'-'
asS'SNORD49B'
p2414
(lp2415
I16439508
aI16439556
aS'+'
asS'SNORD49A'
p2416
(lp2417
I16440035
aI16440106
aS'+'
asS'SNORD42B'
p2418
(lp2419
I28720549
aI28720616
aS'+'
asS'C1QTNF1'
p2420
(lp2421
I79022933
aI79049788
aS'+'
asS'CFAP52'
p2422
(lp2423
I9576626
aI9643461
aS'+'
asS'PRR29-AS1'
p2424
(lp2425
I63996070
aI63999899
aS'-'
asS'MIR4520-2'
p2426
(lp2427
I6655448
aI6655502
aS'+'
asS'TLCD2'
p2428
(lp2429
I1702789
aI1710368
aS'-'
asS'BPTF'
p2430
(lp2431
I67825663
aI67984378
aS'+'
asS'PGAP3'
p2432
(lp2433
I39671121
aI39688070
aS'-'
asS'TLCD1'
p2434
(lp2435
I28724347
aI28726931
aS'-'
asS'IFT20'
p2436
(lp2437
I28328324
aI28335489
aS'-'
asS'C17orf75'
p2438
(lp2439
I32328440
aI32342209
aS'-'
asS'KRT38'
p2440
(lp2441
I41436368
aI41441344
aS'-'
asS'POLG2'
p2442
(lp2443
I64477784
aI64497066
aS'-'
asS'CPD'
p2444
(lp2445
I30378923
aI30469657
aS'+'
asS'MFAP4'
p2446
(lp2447
I19383441
aI19387219
aS'-'
asS'GABARAP'
p2448
(lp2449
I7240418
aI7242434
aS'-'
asS'LINC01497'
p2450
(lp2451
I69961706
aI69983544
aS'+'
asS'MIR4315-2'
p2452
(lp2453
I45475362
aI45475435
aS'-'
asS'SNORD42A'
p2454
(lp2455
I28723428
aI28723491
aS'+'
asS'DOC2B'
p2456
(lp2457
I146804
aI181630
aS'-'
asS'SNORD3B-1'
p2458
(lp2459
I19061911
aI19062128
aS'+'
asS'WIPI1'
p2460
(lp2461
I68421280
aI68457524
aS'-'
asS'SMARCD2'
p2462
(lp2463
I63832080
aI63842991
aS'-'
asS'SNORD3B-2'
p2464
(lp2465
I19061911
aI19062128
aS'+'
asS'PRR11'
p2466
(lp2467
I59155498
aI59206709
aS'+'
asS'LOC284009'
p2468
(lp2469
I2406980
aI2415436
aS'-'
asS'DLX3'
p2470
(lp2471
I49990004
aI49995224
aS'-'
asS'TNFSF13'
p2472
(lp2473
I7558291
aI7561608
aS'+'
asS'TNFSF12'
p2474
(lp2475
I7549057
aI7557890
aS'+'
asS'RASL10B'
p2476
(lp2477
I35731659
aI35743521
aS'+'
asS'TSPOAP1-AS1'
p2478
(lp2479
I58325449
aI58353727
aS'+'
asS'MAPT-IT1'
p2480
(lp2481
I45895782
aI45898798
aS'+'
asS'TSPOAP1'
p2482
(lp2483
I58301226
aI58328791
aS'-'
asS'CRYBA1'
p2484
(lp2485
I29246856
aI29254484
aS'+'
asS'MIR3064'
p2486
(lp2487
I64500773
aI64500839
aS'-'
asS'SOX15'
p2488
(lp2489
I7588179
aI7590170
aS'-'
asS'EFTUD2'
p2490
(lp2491
I44849947
aI44899445
aS'-'
asS'SSTR2'
p2492
(lp2493
I73165020
aI73171923
aS'+'
asS'LOC105371795'
p2494
(lp2495
I45168804
aI45171485
aS'-'
asS'CDK5RAP3'
p2496
(lp2497
I47970527
aI47981786
aS'+'
asS'ARL5C'
p2498
(lp2499
I39156893
aI39166161
aS'-'
asS'TNK1'
p2500
(lp2501
I7380973
aI7389773
aS'+'
asS'RPL23AP87'
p2502
(lp2503
I83226896
aI83240804
aS'+'
asS'KRT17'
p2504
(lp2505
I41619439
aI41624630
aS'-'
asS'KRT16'
p2506
(lp2507
I41609778
aI41612767
aS'-'
asS'KRT15'
p2508
(lp2509
I41513744
aI41519018
aS'-'
asS'KRT14'
p2510
(lp2511
I41582278
aI41586895
aS'-'
asS'KRT13'
p2512
(lp2513
I41500980
aI41505613
aS'-'
asS'PDE6G'
p2514
(lp2515
I81650458
aI81663127
aS'-'
asS'KRT10'
p2516
(lp2517
I40818116
aI40822611
aS'-'
asS'EFCAB5'
p2518
(lp2519
I29941604
aI30108452
aS'+'
asS'EIF4A1'
p2520
(lp2521
I7572705
aI7579006
aS'+'
asS'EFCAB3'
p2522
(lp2523
I62370217
aI62416478
aS'+'
asS'HES7'
p2524
(lp2525
I8120589
aI8124092
aS'-'
asS'TMEM88'
p2526
(lp2527
I7855065
aI7856099
aS'+'
asS'PVALEF'
p2528
(lp2529
I81165506
aI81183164
aS'+'
asS'SLC4A1'
p2530
(lp2531
I44248389
aI44268134
aS'-'
asS'WFDC21P'
p2532
(lp2533
I60083565
aI60088467
aS'-'
asS'CACNA1G'
p2534
(lp2535
I50561067
aI50627471
aS'+'
asS'KRTAP4-12'
p2536
(lp2537
I41123090
aI41124167
aS'-'
asS'HIC1'
p2538
(lp2539
I2055102
aI2063241
aS'+'
asS'SAP30BP'
p2540
(lp2541
I75667115
aI75708062
aS'+'
asS'MRPL45P2'
p2542
(lp2543
I47450226
aI47492620
aS'-'
asS'NAT9'
p2544
(lp2545
I74770528
aI74776425
aS'-'
asS'MXRA7'
p2546
(lp2547
I76673649
aI76711005
aS'-'
asS'ABCA6'
p2548
(lp2549
I69078705
aI69141874
aS'-'
asS'ABCA5'
p2550
(lp2551
I69244434
aI69327182
aS'-'
asS'ZNF18'
p2552
(lp2553
I11977438
aI11997510
aS'-'
asS'ABCA8'
p2554
(lp2555
I68867286
aI68955392
aS'-'
asS'ABCA9'
p2556
(lp2557
I68974487
aI69060927
aS'-'
asS'TEPSIN'
p2558
(lp2559
I81228276
aI81239091
aS'-'
asS'TMEM256'
p2560
(lp2561
I7402973
aI7404138
aS'-'
asS'PSMD3'
p2562
(lp2563
I39980806
aI39997959
aS'+'
asS'SOX9-AS1'
p2564
(lp2565
I72071041
aI72116016
aS'-'
asS'MFSD6L'
p2566
(lp2567
I8797109
aI8799349
aS'-'
asS'NGFR'
p2568
(lp2569
I49495292
aI49515020
aS'+'
asS'RPTOR'
p2570
(lp2571
I80544824
aI80966373
aS'+'
asS'RNFT1-DT'
p2572
(lp2573
I59965095
aI59996972
aS'+'
asS'TM4SF5'
p2574
(lp2575
I4771891
aI4783211
aS'+'
asS'OR3A1'
p2576
(lp2577
I3291634
aI3292582
aS'-'
asS'OR3A2'
p2578
(lp2579
I3277889
aI3278974
aS'-'
asS'OR3A3'
p2580
(lp2581
I3420567
aI3421533
aS'+'
asS'HSD17B1'
p2582
(lp2583
I42552557
aI42555214
aS'+'
asS'NOS2'
p2584
(lp2585
I27756765
aI27800529
aS'-'
asS'TTLL6'
p2586
(lp2587
I48762230
aI48817107
aS'-'
asS'ITGB4'
p2588
(lp2589
I75721327
aI75757818
aS'+'
asS'LOC105371880'
p2590
(lp2591
I69475253
aI69485532
aS'-'
asS'KPNB1'
p2592
(lp2593
I47649918
aI47685505
aS'+'
asS'HGS'
p2594
(lp2595
I81684010
aI81702121
aS'+'
asS'ABR'
p2596
(lp2597
I1003517
aI1229680
aS'-'
asS'OR1G1'
p2598
(lp2599
I3126609
aI3127551
aS'-'
asS'ST6GALNAC1'
p2600
(lp2601
I76624755
aI76643838
aS'-'
asS'LOC100287042'
p2602
(lp2603
I75271298
aI75273895
aS'+'
asS'LOC101928343'
p2604
(lp2605
I74599839
aI74625996
aS'+'
asS'PRCD'
p2606
(lp2607
I76527585
aI76545376
aS'+'
asS'TSPAN10'
p2608
(lp2609
I81637170
aI81648755
aS'+'
asS'SLC25A19'
p2610
(lp2611
I75272979
aI75289449
aS'-'
asS'SLC25A11'
p2612
(lp2613
I4937130
aI4940167
aS'-'
asS'SLC25A10'
p2614
(lp2615
I81712235
aI81721016
aS'+'
asS'NFE2L1'
p2616
(lp2617
I48048304
aI48061545
aS'+'
asS'SNORA38B'
p2618
(lp2619
I67740669
aI67740801
aS'+'
asS'P3H4'
p2620
(lp2621
I41801952
aI41811949
aS'-'
asS'USP36'
p2622
(lp2623
I78795651
aI78840527
aS'-'
asS'C17orf47'
p2624
(lp2625
I58541586
aI58544372
aS'-'
asS'TMUB2'
p2626
(lp2627
I44186950
aI44191929
aS'+'
asS'RFLNB'
p2628
(lp2629
I439979
aI445940
aS'-'
asS'ATP1B2'
p2630
(lp2631
I7646626
aI7657771
aS'+'
asS'C17orf49'
p2632
(lp2633
I7014736
aI7017524
aS'+'
asS'LPO'
p2634
(lp2635
I58238425
aI58268518
aS'+'
asS'SCGB1C2'
p2636
(lp2637
I137570
aI138992
aS'+'
asS'MTRNR2L1'
p2638
(lp2639
I22523110
aI22524665
aS'+'
asS'LINC01152'
p2640
(lp2641
I72030653
aI72041297
aS'+'
asS'LINC01482'
p2642
(lp2643
I68628153
aI68679606
aS'+'
asS'LINC01483'
p2644
(lp2645
I69593986
aI69903000
aS'+'
asS'LOC100288866'
p2646
(lp2647
I49505656
aI49574064
aS'-'
asS'MAFG-DT'
p2648
(lp2649
I81927828
aI81930753
aS'+'
asS'ITGB3'
p2650
(lp2651
I47253841
aI47312711
aS'+'
asS'TEFM'
p2652
(lp2653
I30898982
aI30906268
aS'-'
asS'EIF4A3'
p2654
(lp2655
I80134369
aI80147128
aS'-'
asS'SMARCE1'
p2656
(lp2657
I40627727
aI40647851
aS'-'
asS'ARL4D'
p2658
(lp2659
I43398992
aI43401137
aS'+'
asS'LRRC75A'
p2660
(lp2661
I16442004
aI16492191
aS'-'
asS'MIR3615'
p2662
(lp2663
I74748612
aI74748699
aS'+'
asS'MIR3614'
p2664
(lp2665
I56891269
aI56891355
aS'-'
asS'ADORA2B'
p2666
(lp2667
I15944916
aI15975896
aS'+'
asS'YPEL2'
p2668
(lp2669
I59331691
aI59401734
aS'+'
asS'FTSJ3'
p2670
(lp2671
I63819432
aI63827671
aS'-'
asS'DERL2'
p2672
(lp2673
I5471250
aI5486230
aS'-'
asS'PRR29'
p2674
(lp2675
I63998350
aI64004284
aS'+'
asS'PLXDC1'
p2676
(lp2677
I39063302
aI39151649
aS'-'
asS'CLDN7'
p2678
(lp2679
I7259902
aI7263193
aS'-'
asS'SMYD4'
p2680
(lp2681
I1779534
aI1829881
aS'-'
asS'HEATR9'
p2682
(lp2683
I35854945
aI35868891
aS'-'
asS'SARM1'
p2684
(lp2685
I28371661
aI28401038
aS'+'
asS'SMIM6'
p2686
(lp2687
I75646565
aI75647977
aS'+'
asS'RDM1'
p2688
(lp2689
I35918080
aI35930776
aS'-'
asS'LINC00511'
p2690
(lp2691
I72598040
aI72640472
aS'-'
asS'LOC79999'
p2692
(lp2693
I19089460
aI19097563
aS'+'
asS'LINC01028'
p2694
(lp2695
I70051270
aI70068095
aS'+'
asS'CLEC10A'
p2696
(lp2697
I7074536
aI7080307
aS'-'
asS'EFNB3'
p2698
(lp2699
I7705201
aI7711372
aS'+'
asS'HDAC5'
p2700
(lp2701
I44076752
aI44123646
aS'-'
asS'CHAD'
p2702
(lp2703
I50464495
aI50468880
aS'-'
asS'RUNDC1'
p2704
(lp2705
I42980561
aI42995143
aS'+'
asS'LOC108783654'
p2706
(lp2707
I42552435
aI42554802
aS'-'
asS'CBX8'
p2708
(lp2709
I79794376
aI79797116
aS'-'
asS'CBX4'
p2710
(lp2711
I79833155
aI79839414
aS'-'
asS'ATXN7L3'
p2712
(lp2713
I44191804
aI44198161
aS'-'
asS'KIF19'
p2714
(lp2715
I74326211
aI74355820
aS'+'
asS'CBX1'
p2716
(lp2717
I48070051
aI48101521
aS'-'
asS'NLRP1'
p2718
(lp2719
I5501398
aI5584512
aS'-'
asS'LOC100130520'
p2720
(lp2721
I74560700
aI74567343
aS'-'
asS'C1QBP'
p2722
(lp2723
I5432778
aI5439151
aS'-'
asS'ST6GALNAC2'
p2724
(lp2725
I76565378
aI76586063
aS'-'
asS'CYB5D1'
p2726
(lp2727
I7857726
aI7862282
aS'+'
asS'CYB5D2'
p2728
(lp2729
I4143167
aI4157701
aS'+'
asS'LINC00469'
p2730
(lp2731
I73749269
aI73828537
aS'-'
asS'MGAT5B'
p2732
(lp2733
I76868715
aI76950389
aS'+'
asS'LINC02071'
p2734
(lp2735
I51312608
aI51335162
aS'-'
asS'KLHL10'
p2736
(lp2737
I41835684
aI41848363
aS'+'
asS'KLHL11'
p2738
(lp2739
I41848518
aI41865423
aS'-'
asS'LINC00868'
p2740
(lp2741
I76856165
aI76861836
aS'+'
asS'NAGLU'
p2742
(lp2743
I42535932
aI42544448
aS'+'
asS'SPATA32'
p2744
(lp2745
I45254392
aI45262094
aS'-'
asS'IGF2BP1'
p2746
(lp2747
I48997411
aI49056145
aS'+'
asS'UNK'
p2748
(lp2749
I75784838
aI75825805
aS'+'
asS'TRIM65'
p2750
(lp2751
I75888959
aI75897003
aS'-'
asS'MIR6510'
p2752
(lp2753
I41517163
aI41517217
aS'-'
asS'OMG'
p2754
(lp2755
I31294649
aI31297362
aS'-'
asS'MIR6516'
p2756
(lp2757
I77089416
aI77089497
aS'+'
asS'KIF1C'
p2758
(lp2759
I4997947
aI5028399
aS'+'
asS'MILR1'
p2760
(lp2761
I64449114
aI64468643
aS'+'
asS'ARL17A'
p2762
(lp2763
I46508680
aI46579722
aS'-'
asS'AATK'
p2764
(lp2765
I81117295
aI81166072
aS'-'
asS'USP6'
p2766
(lp2767
I5116437
aI5175031
aS'+'
asS'LOC339260'
p2768
(lp2769
I20938519
aI20982357
aS'+'
asS'SOX9'
p2770
(lp2771
I72121019
aI72126413
aS'+'
asS'SEPT4'
p2772
(lp2773
I58520249
aI58540818
aS'-'
asS'SNHG16'
p2774
(lp2775
I76557763
aI76565348
aS'+'
asS'UNC119'
p2776
(lp2777
I28546706
aI28552663
aS'-'
asS'DVL2'
p2778
(lp2779
I7225341
aI7234544
aS'-'
asS'MED11'
p2780
(lp2781
I4731407
aI4733610
aS'+'
asS'MED13'
p2782
(lp2783
I61942604
aI62065282
aS'-'
asS'SUZ12'
p2784
(lp2785
I31937009
aI32001045
aS'+'
asS'INTS2'
p2786
(lp2787
I61865366
aI61928032
aS'-'
asS'PSME3'
p2788
(lp2789
I42833141
aI42843760
aS'+'
asS'MIR1180'
p2790
(lp2791
I19344505
aI19344574
aS'-'
asS'CTNS'
p2792
(lp2793
I3636467
aI3663103
aS'+'
asS'KRTAP9-1'
p2794
(lp2795
I41189886
aI41190639
aS'+'
asS'CACNG1'
p2796
(lp2797
I67044553
aI67056795
aS'+'
asS'CACNG4'
p2798
(lp2799
I66964863
aI67033402
aS'+'
asS'CACNG5'
p2800
(lp2801
I66877272
aI66885278
aS'+'
asS'ZNF652'
p2802
(lp2803
I49289205
aI49362473
aS'-'
asS'CDRT15'
p2804
(lp2805
I14235672
aI14236862
aS'-'
asS'HSF5'
p2806
(lp2807
I58420166
aI58488401
aS'-'
asS'CRLF3'
p2808
(lp2809
I30782683
aI30824760
aS'-'
asS'MIR6786'
p2810
(lp2811
I81693756
aI81693869
aS'+'
asS'MYL4'
p2812
(lp2813
I47209061
aI47223679
aS'+'
asS'KRTAP9-6'
p2814
(lp2815
I41265377
aI41265860
aS'+'
asS'TCAM1P'
p2816
(lp2817
I63857015
aI63864379
aS'+'
asS'MIR6785'
p2818
(lp2819
I75498547
aI75498628
aS'+'
asS'SLC35G3'
p2820
(lp2821
I35192519
aI35194393
aS'-'
asS'SLC35G6'
p2822
(lp2823
I7481401
aI7483064
aS'+'
asS'MPP3'
p2824
(lp2825
I43800798
aI43833194
aS'-'
asS'MPP2'
p2826
(lp2827
I43875358
aI43909711
aS'-'
asS'TMEM199'
p2828
(lp2829
I28357580
aI28363683
aS'+'
asS'GJD3'
p2830
(lp2831
I40360652
aI40364693
aS'-'
asS'PRPSAP1'
p2832
(lp2833
I76310735
aI76354149
aS'-'
asS'PRPSAP2'
p2834
(lp2835
I18856298
aI18931286
aS'+'
asS'KRTAP3-2'
p2836
(lp2837
I40999192
aI40999886
aS'-'
asS'KRTAP3-3'
p2838
(lp2839
I40993429
aI40994133
aS'-'
asS'KRTAP3-1'
p2840
(lp2841
I41008520
aI41009114
aS'-'
asS'MIR5047'
p2842
(lp2843
I64501213
aI64501313
aS'-'
asS'LOC105371430'
p2844
(lp2845
I404534
aI414023
aS'-'
asS'KPNA2'
p2846
(lp2847
I68035601
aI68046859
aS'+'
asS'LRRC46'
p2848
(lp2849
I47831669
aI47837718
aS'+'
asS'CRK'
p2850
(lp2851
I1421352
aI1456267
aS'-'
asS'B9D1'
p2852
(lp2853
I19335374
aI19378193
aS'-'
asS'EIF5A'
p2854
(lp2855
I7306998
aI7312463
aS'+'
asS'STAT5B'
p2856
(lp2857
I42199176
aI42276406
aS'-'
asS'LOC105371506'
p2858
(lp2859
I5469091
aI5470360
aS'+'
asS'MKS1'
p2860
(lp2861
I58205435
aI58219605
aS'-'
asS'LOC101929552'
p2862
(lp2863
I82713907
aI82716253
aS'-'
asS'BECN1'
p2864
(lp2865
I42810131
aI42824316
aS'-'
asS'DHRS11'
p2866
(lp2867
I36591795
aI36600804
aS'+'
asS'ACSF2'
p2868
(lp2869
I50426157
aI50474845
aS'+'
asS'DHRS13'
p2870
(lp2871
I28897780
aI28903071
aS'-'
asS'SMTNL2'
p2872
(lp2873
I4583980
aI4608319
aS'+'
asS'ASPSCR1'
p2874
(lp2875
I81977545
aI82017406
aS'+'
asS'CCDC137'
p2876
(lp2877
I81666730
aI81673906
aS'+'
asS'RBFOX3'
p2878
(lp2879
I79089344
aI79611203
aS'-'
asS'GALK1'
p2880
(lp2881
I75757936
aI75765199
aS'-'
asS'SPACA3'
p2882
(lp2883
I32991863
aI32997877
aS'+'
asS'C17orf58'
p2884
(lp2885
I67991098
aI67993649
aS'-'
asS'C17orf51'
p2886
(lp2887
I21528309
aI21551678
aS'-'
asS'C17orf50'
p2888
(lp2889
I35760896
aI35765079
aS'+'
asS'C17orf53'
p2890
(lp2891
I44141901
aI44162476
aS'+'
asS'GGNBP2'
p2892
(lp2893
I36544887
aI36589846
aS'+'
asS'FAAP100'
p2894
(lp2895
I81539884
aI81552403
aS'-'
asS'CD7'
p2896
(lp2897
I82314869
aI82317604
aS'-'
asS'RHOT1'
p2898
(lp2899
I32142453
aI32225771
aS'+'
asS'CCR7'
p2900
(lp2901
I40553769
aI40565484
aS'-'
asS'KIAA0100'
p2902
(lp2903
I28614439
aI28645159
aS'-'
asS'BCAS3'
p2904
(lp2905
I60677774
aI61392838
aS'+'
asS'STAT3'
p2906
(lp2907
I42313324
aI42388495
aS'-'
asS'SNX11'
p2908
(lp2909
I48107532
aI48123601
aS'+'
asS'CHRNB1'
p2910
(lp2911
I7445086
aI7457613
aS'+'
asS'ICAM2'
p2912
(lp2913
I64002594
aI64020634
aS'-'
asS'LOC100128288'
p2914
(lp2915
I8358412
aI8360541
aS'-'
asS'CD68'
p2916
(lp2917
I7579486
aI7582111
aS'+'
asS'AA06'
p2918
(lp2919
I33529786
aI33533760
aS'-'
asS'EFCAB13'
p2920
(lp2921
I47323960
aI47441311
aS'+'
asS'NEUROD2'
p2922
(lp2923
I39603767
aI39607922
aS'-'
asS'MIR212'
p2924
(lp2925
I2050270
aI2050380
aS'-'
asS'SRP68'
p2926
(lp2927
I76038774
aI76072526
aS'-'
asS'ARHGAP44'
p2928
(lp2929
I12789511
aI12991644
aS'+'
asS'SPATA22'
p2930
(lp2931
I3440010
aI3513852
aS'-'
asS'SPATA20'
p2932
(lp2933
I50547088
aI50555852
aS'+'
asS'MAP2K3'
p2934
(lp2935
I21284655
aI21315239
aS'+'
asS'ZMYND15'
p2936
(lp2937
I4740014
aI4746119
aS'+'
asS'MAP2K6'
p2938
(lp2939
I69414696
aI69553865
aS'+'
asS'MAP2K4'
p2940
(lp2941
I12020817
aI12143831
aS'+'
asS'MINK1'
p2942
(lp2943
I4833339
aI4898061
aS'+'
asS'KRT33B'
p2944
(lp2945
I41363493
aI41369800
aS'-'
asS'KRT33A'
p2946
(lp2947
I41346092
aI41350812
aS'-'
asS'TRARG1'
p2948
(lp2949
I1279661
aI1300978
aS'+'
asS'PPY'
p2950
(lp2951
I43940801
aI43942467
aS'-'
asS'GAA'
p2952
(lp2953
I80101525
aI80119882
aS'+'
asS'TMEM220-AS1'
p2954
(lp2955
I10729776
aI10815164
aS'+'
asS'XYLT2'
p2956
(lp2957
I50346031
aI50361185
aS'+'
asS'PSMC3IP'
p2958
(lp2959
I42572309
aI42577831
aS'-'
asS'HSPB9'
p2960
(lp2961
I42122737
aI42123353
aS'+'
asS'MIR10A'
p2962
(lp2963
I48579837
aI48579947
aS'-'
asS'ALDOC'
p2964
(lp2965
I28573114
aI28576933
aS'-'
asS'MYADML2'
p2966
(lp2967
I81939644
aI81947233
aS'-'
asS'SNHG20'
p2968
(lp2969
I77088642
aI77094986
aS'+'
asS'SNHG25'
p2970
(lp2971
I64145969
aI64146309
aS'+'
asS'SNHG29'
p2972
(lp2973
I16438986
aI16470648
aS'+'
asS'TOM1L2'
p2974
(lp2975
I17843507
aI17972470
aS'-'
asS'MAPT'
p2976
(lp2977
I45894381
aI46028333
aS'+'
asS'FLJ45513'
p2978
(lp2979
I49845909
aI49848837
aS'+'
asS'ABCC3'
p2980
(lp2981
I50634856
aI50691702
aS'+'
asS'DNAH17'
p2982
(lp2983
I78423696
aI78577394
aS'-'
asS'ASB16'
p2984
(lp2985
I44170705
aI44179083
aS'+'
asS'NME1-NME2'
p2986
(lp2987
I51153535
aI51171744
aS'+'
asS'ANKRD40CL'
p2988
(lp2989
I50761033
aI50767557
aS'-'
asS'LOC102723517'
p2990
(lp2991
I72034106
aI72057734
aS'-'
asS'UTS2R'
p2992
(lp2993
I82374276
aI82375586
aS'+'
asS'LOC100996750'
p2994
(lp2995
I41084166
aI41106488
aS'+'
asS'ZFP3'
p2996
(lp2997
I5078458
aI5096374
aS'+'
asS'NSFP1'
p2998
(lp2999
I46372812
aI46423097
aS'+'
asS'CSNK1D'
p3000
(lp3001
I82239018
aI82273750
aS'-'
asS'LIG3'
p3002
(lp3003
I34980497
aI35005069
aS'+'
asS'CCDC92B'
p3004
(lp3005
I2720800
aI2749441
aS'-'
asS'ENPP7'
p3006
(lp3007
I79731102
aI79742222
aS'+'
asS'VAT1'
p3008
(lp3009
I43014604
aI43022442
aS'-'
asS'OR1A2'
p3010
(lp3011
I3197516
aI3198448
aS'+'
asS'LOC101929767'
p3012
(lp3013
I43148365
aI43170403
aS'-'
asS'OR1A1'
p3014
(lp3015
I3215620
aI3216550
aS'+'
asS'KCTD11'
p3016
(lp3017
I7351888
aI7354943
aS'+'
asS'MIR1288'
p3018
(lp3019
I16282013
aI16282088
aS'+'
asS'MIR548H3'
p3020
(lp3021
I13543528
aI13543646
aS'-'
asS'SUPT4H1'
p3022
(lp3023
I58345174
aI58352238
aS'-'
asS'ZZEF1'
p3024
(lp3025
I4004444
aI4142959
aS'-'
asS'PTGES3L-AARSD1'
p3026
(lp3027
I42950525
aI42980528
aS'-'
asS'ARRB2'
p3028
(lp3029
I4710493
aI4721500
aS'+'
asS'SNORD1A'
p3030
(lp3031
I76561632
aI76561706
aS'+'
asS'AIPL1'
p3032
(lp3033
I6423736
aI6435199
aS'-'
asS'KCNAB3'
p3034
(lp3035
I7921858
aI7929435
aS'-'
asS'SLC25A35'
p3036
(lp3037
I8287762
aI8295343
aS'-'
asS'CCDC144CP'
p3038
(lp3039
I20321173
aI20402191
aS'+'
asS'SLC25A39'
p3040
(lp3041
I44319624
aI44324870
aS'-'
asS'TUBG2'
p3042
(lp3043
I42659247
aI42667006
aS'+'
asS'CHMP6'
p3044
(lp3045
I80991840
aI81000133
aS'+'
asS'PIK3R6'
p3046
(lp3047
I8802722
aI8867677
aS'-'
asS'PIK3R5'
p3048
(lp3049
I8878915
aI8965712
aS'-'
asS'ZNF287'
p3050
(lp3051
I16546962
aI16569212
aS'-'
asS'HEXIM1'
p3052
(lp3053
I45147316
aI45152101
aS'+'
asS'HEXIM2'
p3054
(lp3055
I45160173
aI45170040
aS'+'
asS'EVPL'
p3056
(lp3057
I76006844
aI76027452
aS'-'
asS'ETV4'
p3058
(lp3059
I43527842
aI43546432
aS'-'
asS'G6PC'
p3060
(lp3061
I42900796
aI42914433
aS'+'
asS'RTN4RL1'
p3062
(lp3063
I1934676
aI2025345
aS'-'
asS'CAVIN1'
p3064
(lp3065
I42402448
aI42423320
aS'-'
asS'CCL1'
p3066
(lp3067
I34360327
aI34363233
aS'-'
asS'NPLOC4'
p3068
(lp3069
I81556884
aI81637153
aS'-'
asS'IKZF3'
p3070
(lp3071
I39757714
aI39864188
aS'-'
asS'TBC1D3E'
p3072
(lp3073
I38127969
aI38138868
aS'+'
asS'CCDC103'
p3074
(lp3075
I44899711
aI44903679
aS'+'
asS'CCL4'
p3076
(lp3077
I36103826
aI36105614
aS'+'
asS'SMIM5'
p3078
(lp3079
I75633433
aI75641406
aS'+'
asS'GRAP'
p3080
(lp3081
I19020655
aI19047052
aS'-'
asS'TBC1D3G'
p3082
(lp3083
I38127967
aI38138868
aS'+'
asS'FASN'
p3084
(lp3085
I82078337
aI82098230
aS'-'
asS'CCL8'
p3086
(lp3087
I34319046
aI34321402
aS'+'
asS'MRM3'
p3088
(lp3089
I782328
aI792509
aS'+'
asS'MRM1'
p3090
(lp3091
I36601595
aI36608971
aS'+'
asS'METRNL'
p3092
(lp3093
I83079608
aI83095122
aS'+'
asS'SLC13A2'
p3094
(lp3095
I28473645
aI28497780
aS'+'
asS'SLC13A5'
p3096
(lp3097
I6684712
aI6713421
aS'-'
asS'SERPINF1'
p3098
(lp3099
I1761924
aI1777574
aS'+'
asS'SERPINF2'
p3100
(lp3101
I1742835
aI1755265
aS'+'
asS'PIMREG'
p3102
(lp3103
I6444414
aI6451065
aS'+'
asS'SREBF1'
p3104
(lp3105
I17811348
aI17837011
aS'-'
asS'CASC17'
p3106
(lp3107
I71097773
aI71202179
aS'-'
asS'LOC101927727'
p3108
(lp3109
I909631
aI911212
aS'+'
asS'TIMM22'
p3110
(lp3111
I996892
aI1002183
aS'+'
asS'EIF1'
p3112
(lp3113
I41688874
aI41691646
aS'+'
asS'UTP6'
p3114
(lp3115
I31863170
aI31901710
aS'-'
asS'RAB37'
p3116
(lp3117
I74671116
aI74747335
aS'+'
asS'RAB34'
p3118
(lp3119
I28714280
aI28718268
aS'-'
asS'FOXO3B'
p3120
(lp3121
I18665922
aI18673181
aS'-'
asS'DNAH17-AS1'
p3122
(lp3123
I78484909
aI78503056
aS'+'
asS'ACAP1'
p3124
(lp3125
I7336528
aI7351477
aS'+'
asS'SNF8'
p3126
(lp3127
I48930095
aI48944842
aS'-'
asS'ARMC7'
p3128
(lp3129
I75109951
aI75130265
aS'+'
asS'GNGT2'
p3130
(lp3131
I49206233
aI49210574
aS'-'
asS'BCL6B'
p3132
(lp3133
I7023049
aI7029644
aS'+'
as.