(dp1
S'MIR320C1'
p2
(lp3
I21683509
aI21683597
aS'+'
asS'MIR320C2'
p4
(lp5
I24321685
aI24321735
aS'+'
asS'SALL3'
p6
(lp7
I78980274
aI78998969
aS'+'
asS'CD226'
p8
(lp9
I69853273
aI69947873
aS'-'
asS'LINC02564'
p10
(lp11
I11559
aI15930
aS'+'
asS'CTAGE1'
p12
(lp13
I22413600
aI22417915
aS'-'
asS'LOC642484'
p14
(lp15
I56003612
aI56191262
aS'-'
asS'MIB1'
p16
(lp17
I21741328
aI21870957
aS'+'
asS'NAPG'
p18
(lp19
I10526026
aI10552763
aS'+'
asS'MIR8078'
p20
(lp21
I112255
aI112339
aS'-'
asS'WDR7'
p22
(lp23
I56651384
aI57029805
aS'+'
asS'LOC100505549'
p24
(lp25
I57630301
aI57669276
aS'+'
asS'GATA6'
p26
(lp27
I22169436
aI22202528
aS'+'
asS'PIK3C3'
p28
(lp29
I41955197
aI42081482
aS'+'
asS'CNDP1'
p30
(lp31
I74534499
aI74587211
aS'+'
asS'CNDP2'
p32
(lp33
I74496264
aI74523454
aS'+'
asS'TRAPPC8'
p34
(lp35
I31829172
aI31943128
aS'-'
asS'SNORD58A'
p36
(lp37
I49491282
aI49491347
aS'-'
asS'CEP76'
p38
(lp39
I12661955
aI12702777
aS'-'
asS'COLEC12'
p40
(lp41
I319354
aI500729
aS'-'
asS'STARD6'
p42
(lp43
I54324691
aI54354573
aS'-'
asS'MIR6718'
p44
(lp45
I3885352
aI3885432
aS'+'
asS'LOC100129878'
p46
(lp47
I49023702
aI49048473
aS'+'
asS'CELF4'
p48
(lp49
I37243044
aI37566037
aS'-'
asS'RIT2'
p50
(lp51
I42743217
aI43115692
aS'-'
asS'LINC01925'
p52
(lp53
I508567
aI515294
aS'-'
asS'LINC01924'
p54
(lp55
I64104090
aI64423592
aS'+'
asS'LINC01927'
p56
(lp57
I76622780
aI76639011
aS'-'
asS'LINC01926'
p58
(lp59
I58813879
aI58834366
aS'+'
asS'SETBP1'
p60
(lp61
I44680887
aI45068510
aS'+'
asS'LINC01922'
p62
(lp63
I74409447
aI74413208
aS'+'
asS'LINC01882'
p64
(lp65
I12739485
aI12749422
aS'-'
asS'LINC01929'
p66
(lp67
I55105903
aI55124306
aS'-'
asS'LINC01887'
p68
(lp69
I10610998
aI10626420
aS'-'
asS'MC4R'
p70
(lp71
I60371330
aI60372768
aS'-'
asS'TTR'
p72
(lp73
I31591766
aI31599023
aS'+'
asS'MTCL1'
p74
(lp75
I8717370
aI8832777
aS'+'
asS'CETN1'
p76
(lp77
I580342
aI582020
aS'+'
asS'AKAIN1'
p78
(lp79
I5142910
aI5197752
aS'-'
asS'LINC00526'
p80
(lp81
I5236723
aI5238029
aS'-'
asS'HRH4'
p82
(lp83
I24460628
aI24479957
aS'+'
asS'ZNF519'
p84
(lp85
I14075989
aI14132490
aS'-'
asS'PSMG2'
p86
(lp87
I12658738
aI12725741
aS'+'
asS'ZNF516'
p88
(lp89
I76357681
aI76495190
aS'-'
asS'DSEL'
p90
(lp91
I67506586
aI67516720
aS'-'
asS'ALPK2'
p92
(lp93
I58481249
aI58628957
aS'-'
asS'GRP'
p94
(lp95
I59220167
aI59230774
aS'+'
asS'CHST9'
p96
(lp97
I26915630
aI27185338
aS'-'
asS'LDLRAD4-AS1'
p98
(lp99
I13419498
aI13427534
aS'-'
asS'RTTN'
p100
(lp101
I70003805
aI70205726
aS'-'
asS'SLC39A6'
p102
(lp103
I36108530
aI36129394
aS'-'
asS'LOC105371998'
p104
(lp105
I12432773
aI12447798
aS'+'
asS'LINC02565'
p106
(lp107
I57169614
aI57171194
aS'-'
asS'TTC39C'
p108
(lp109
I23992772
aI24135610
aS'+'
asS'RALBP1'
p110
(lp111
I9475512
aI9538113
aS'+'
asS'SMAD4'
p112
(lp113
I51030212
aI51085041
aS'+'
asS'SMAD7'
p114
(lp115
I48919852
aI48950711
aS'-'
asS'VAPA'
p116
(lp117
I9913957
aI9960021
aS'+'
asS'ADCYAP1'
p118
(lp119
I904942
aI912172
aS'+'
asS'LOC101927322'
p120
(lp121
I58670008
aI58671873
aS'-'
asS'POLI'
p122
(lp123
I54269478
aI54321266
aS'+'
asS'SLC25A52'
p124
(lp125
I31759695
aI31760880
aS'-'
asS'WBP11P1'
p126
(lp127
I32511662
aI32514634
aS'+'
asS'RNF152'
p128
(lp129
I61815070
aI61893071
aS'-'
asS'MIR122'
p130
(lp131
I58451073
aI58451158
aS'+'
asS'CXADRP3'
p132
(lp133
I14477954
aI14498706
aS'-'
asS'LAMA1'
p134
(lp135
I6941741
aI7117797
aS'-'
asS'LAMA3'
p136
(lp137
I23689442
aI23955065
aS'+'
asS'MIR1539'
p138
(lp139
I49487372
aI49487422
aS'+'
asS'CCBE1'
p140
(lp141
I59430938
aI59697423
aS'-'
asS'SS18'
p142
(lp143
I26016252
aI26091217
aS'-'
asS'CABYR'
p144
(lp145
I24138955
aI24161600
aS'+'
asS'NOL4'
p146
(lp147
I33851099
aI34223551
aS'-'
asS'PQLC1'
p148
(lp149
I79902419
aI79951653
aS'-'
asS'RIOK3'
p150
(lp151
I23453220
aI23483140
aS'+'
asS'LINC01601'
p152
(lp153
I44531778
aI44553903
aS'+'
asS'CXXC1'
p154
(lp155
I50282342
aI50288322
aS'-'
asS'GREB1L'
p156
(lp157
I21242241
aI21526112
aS'+'
asS'ELOA3B'
p158
(lp159
I47022286
aI47023927
aS'-'
asS'ELOA3C'
p160
(lp161
I46962767
aI46964408
aS'-'
asS'ELOA3D'
p162
(lp163
I46962767
aI46964644
aS'-'
asS'LPIN2'
p164
(lp165
I2916993
aI3011947
aS'-'
asS'MIR548AV'
p166
(lp167
I72853320
aI72853382
aS'-'
asS'SKA1'
p168
(lp169
I50375021
aI50394168
aS'+'
asS'ACAA2'
p170
(lp171
I49782163
aI49813533
aS'-'
asS'POTEC'
p172
(lp173
I14507349
aI14543600
aS'-'
asS'RNMT'
p174
(lp175
I13726659
aI13764556
aS'+'
asS'RPL17-C18orf32'
p176
(lp177
I49481177
aI49492565
aS'-'
asS'MEX3C'
p178
(lp179
I51174549
aI51197681
aS'-'
asS'DYNAP'
p180
(lp181
I54587758
aI54599493
aS'+'
asS'MIR133A1'
p182
(lp183
I21825697
aI21825785
aS'-'
asS'SPIRE1'
p184
(lp185
I12446511
aI12657913
aS'-'
asS'CYB5A'
p186
(lp187
I74253291
aI74292016
aS'-'
asS'OACYLP'
p188
(lp189
I59035678
aI59053214
aS'+'
asS'MBD1'
p190
(lp191
I50266881
aI50281774
aS'-'
asS'MBD2'
p192
(lp193
I54151600
aI54224788
aS'-'
asS'ZNF396'
p194
(lp195
I35366696
aI35377337
aS'-'
asS'ZNF397'
p196
(lp197
I35241029
aI35258433
aS'+'
asS'ZNF271P'
p198
(lp199
I35290271
aI35310766
aS'+'
asS'OSBPL1A'
p200
(lp201
I24162045
aI24397869
aS'-'
asS'GACAT2'
p202
(lp203
I8695855
aI8707621
aS'-'
asS'LINC01415'
p204
(lp205
I55774600
aI55781725
aS'-'
asS'LINC01416'
p206
(lp207
I55881687
aI55920199
aS'-'
asS'SMIM21'
p208
(lp209
I75409475
aI75427703
aS'-'
asS'RMC1'
p210
(lp211
I23503469
aI23531807
aS'+'
asS'DYM'
p212
(lp213
I49041473
aI49460733
aS'-'
asS'ONECUT2'
p214
(lp215
I57435684
aI57491298
aS'+'
asS'CDH2'
p216
(lp217
I27950965
aI28177130
aS'-'
asS'CDH7'
p218
(lp219
I65750251
aI65885136
aS'+'
asS'LINC00305'
p220
(lp221
I64080008
aI64149026
aS'-'
asS'LIPG'
p222
(lp223
I49562030
aI49592908
aS'+'
asS'MIR7153'
p224
(lp225
I11654884
aI11654941
aS'-'
asS'CEP192'
p226
(lp227
I12991361
aI13125052
aS'+'
asS'IMPA2'
p228
(lp229
I11981427
aI12030886
aS'+'
asS'MRO'
p230
(lp231
I50795119
aI50825384
aS'-'
asS'THOC1'
p232
(lp233
I214519
aI268059
aS'-'
asS'RAB27B'
p234
(lp235
I54828476
aI54895516
aS'+'
asS'TTC39C-AS1'
p236
(lp237
I23994214
aI24015460
aS'-'
asS'LINC01255'
p238
(lp239
I11488569
aI11506983
aS'+'
asS'LINC01254'
p240
(lp241
I10405132
aI10414370
aS'-'
asS'ANKRD20A5P'
p242
(lp243
I14179096
aI14227050
aS'+'
asS'SYT4'
p244
(lp245
I43267891
aI43277650
aS'-'
asS'L3MBTL4-AS1'
p246
(lp247
I6256743
aI6260934
aS'+'
asS'LOC284241'
p248
(lp249
I79638927
aI79679745
aS'-'
asS'LOC284240'
p250
(lp251
I79579281
aI79589018
aS'+'
asS'NETO1'
p252
(lp253
I72742313
aI72867672
aS'-'
asS'MIR3976'
p254
(lp255
I5840694
aI5840833
aS'+'
asS'MEP1B'
p256
(lp257
I32190023
aI32220403
aS'+'
asS'MIR3975'
p258
(lp259
I35591736
aI35591806
aS'+'
asS'NFATC1'
p260
(lp261
I79395771
aI79529323
aS'+'
asS'KCNG2'
p262
(lp263
I79863667
aI79899816
aS'+'
asS'HSBP1L1'
p264
(lp265
I79964581
aI79970822
aS'+'
asS'RBFADN'
p266
(lp267
I80067255
aI80081304
aS'+'
asS'LINC01630'
p268
(lp269
I51392041
aI51562469
aS'+'
asS'DLGAP1-AS1'
p270
(lp271
I3594113
aI3597379
aS'+'
asS'DLGAP1-AS2'
p272
(lp273
I3603736
aI3610089
aS'+'
asS'DLGAP1-AS3'
p274
(lp275
I3878179
aI3897069
aS'+'
asS'DLGAP1-AS4'
p276
(lp277
I3962352
aI4013943
aS'+'
asS'DLGAP1-AS5'
p278
(lp279
I4264601
aI4296000
aS'+'
asS'SNORD58C'
p280
(lp281
I49489234
aI49489324
aS'-'
asS'SNORD58B'
p282
(lp283
I49491663
aI49491729
aS'-'
asS'TCF4'
p284
(lp285
I55222330
aI55635993
aS'-'
asS'ZNF24'
p286
(lp287
I35332207
aI35344467
aS'-'
asS'MIR5583-2'
p288
(lp289
I39676718
aI39676777
aS'-'
asS'MIR5583-1'
p290
(lp291
I39676720
aI39676779
aS'+'
asS'GALNT1'
p292
(lp293
I35654568
aI35711834
aS'+'
asS'C18orf32'
p294
(lp295
I49481177
aI49487274
aS'-'
asS'ATP5F1A'
p296
(lp297
I46084143
aI46104233
aS'-'
asS'LOC100505797'
p298
(lp299
I72868387
aI72881399
aS'+'
asS'CLUL1'
p300
(lp301
I596997
aI650293
aS'+'
asS'LINC01029'
p302
(lp303
I77971295
aI77993727
aS'-'
asS'LOC101927410'
p304
(lp305
I10661932
aI10666887
aS'+'
asS'LOC104968399'
p306
(lp307
I3255435
aI3262359
aS'-'
asS'ZNF236'
p308
(lp309
I76822606
aI76970726
aS'+'
asS'MIR5011'
p310
(lp311
I67081583
aI67081686
aS'+'
asS'NDC80'
p312
(lp313
I2571510
aI2616635
aS'+'
asS'FECH'
p314
(lp315
I57544388
aI57586702
aS'-'
asS'ZBTB14'
p316
(lp317
I5289018
aI5297053
aS'-'
asS'TMEM200C'
p318
(lp319
I5889412
aI5895954
aS'-'
asS'DSG1-AS1'
p320
(lp321
I31343367
aI31426988
aS'-'
asS'RAB12'
p322
(lp323
I8609444
aI8639382
aS'+'
asS'CYP4F35P'
p324
(lp325
I14337422
aI14342524
aS'+'
asS'KLHL14'
p326
(lp327
I32672672
aI32773011
aS'-'
asS'MIR187'
p328
(lp329
I35904817
aI35904926
aS'-'
asS'MIR8057'
p330
(lp331
I26591466
aI26591535
aS'-'
asS'GTSCR1'
p332
(lp333
I70630518
aI70650857
aS'-'
asS'LINC00907'
p334
(lp335
I42186667
aI42691424
aS'+'
asS'LINC00908'
p336
(lp337
I76528654
aI76559827
aS'+'
asS'LINC00909'
p338
(lp339
I74591773
aI74597835
aS'-'
asS'MC5R'
p340
(lp341
I13825543
aI13826862
aS'+'
asS'LINC01443'
p342
(lp343
I14946266
aI14973756
aS'+'
asS'LINC01444'
p344
(lp345
I14969606
aI14970468
aS'-'
asS'LRRC30'
p346
(lp347
I7231103
aI7232088
aS'+'
asS'SNORA108'
p348
(lp349
I58600619
aI58600750
aS'+'
asS'LINC-ROR'
p350
(lp351
I57054558
aI57072119
aS'-'
asS'SKOR2'
p352
(lp353
I47206168
aI47249183
aS'-'
asS'ROCK1P1'
p354
(lp355
I109064
aI122221
aS'+'
asS'RPRD1A'
p356
(lp357
I35989823
aI36067594
aS'-'
asS'HMSD'
p358
(lp359
I63949353
aI63960411
aS'+'
asS'IMPACT'
p360
(lp361
I24426644
aI24453530
aS'+'
asS'ELAC1'
p362
(lp363
I50968016
aI50988120
aS'+'
asS'LINC01928'
p364
(lp365
I11454477
aI11465996
aS'+'
asS'ADNP2'
p366
(lp367
I80109030
aI80140345
aS'+'
asS'SLC14A2-AS1'
p368
(lp369
I45438183
aI45507036
aS'-'
asS'TMEM241'
p370
(lp371
I23296014
aI23437969
aS'-'
asS'ELOA2'
p372
(lp373
I47032571
aI47035617
aS'-'
asS'ELOA3'
p374
(lp375
I47022286
aI47024163
aS'-'
asS'TUBB8P12'
p376
(lp377
I47220
aI49557
aS'-'
asS'TNFRSF11A'
p378
(lp379
I62325286
aI62387710
aS'+'
asS'CPLX4'
p380
(lp381
I59295403
aI59318649
aS'-'
asS'CIDEA'
p382
(lp383
I12254318
aI12277595
aS'+'
asS'MIR4526'
p384
(lp385
I13611113
aI13611200
aS'+'
asS'MIR4527'
p386
(lp387
I47380495
aI47380565
aS'+'
asS'MIR4528'
p388
(lp389
I53237100
aI53237190
aS'+'
asS'ROCK1'
p390
(lp391
I20946905
aI21111813
aS'-'
asS'TYMS'
p392
(lp393
I657583
aI673577
aS'+'
asS'TGIF1'
p394
(lp395
I3411926
aI3458408
aS'+'
asS'ZSCAN30'
p396
(lp397
I35251057
aI35290245
aS'-'
asS'LINC01904'
p398
(lp399
I926082
aI927993
aS'-'
asS'PMAIP1'
p400
(lp401
I59899959
aI59904306
aS'+'
asS'PPP4R1'
p402
(lp403
I9546790
aI9614607
aS'-'
asS'FBXO15'
p404
(lp405
I74073352
aI74147865
aS'-'
asS'APCDD1'
p406
(lp407
I10454627
aI10488701
aS'+'
asS'TXNDC2'
p408
(lp409
I9885725
aI9888159
aS'+'
asS'SLC35G4'
p410
(lp411
I11609557
aI11610612
aS'+'
asS'PARD6G'
p412
(lp413
I80157233
aI80247514
aS'-'
asS'DCC'
p414
(lp415
I52340171
aI53535903
aS'+'
asS'IER3IP1'
p416
(lp417
I47155018
aI47176374
aS'-'
asS'TAF4B'
p418
(lp419
I26226882
aI26391686
aS'+'
asS'DLGAP1'
p420
(lp421
I3496031
aI4455266
aS'-'
asS'TPGS2'
p422
(lp423
I36780024
aI36829216
aS'-'
asS'MIR3591'
p424
(lp425
I58451079
aI58451152
aS'-'
asS'MAPRE2'
p426
(lp427
I34976927
aI35143468
aS'+'
asS'MIR4741'
p428
(lp429
I22933348
aI22933438
aS'+'
asS'AQP4'
p430
(lp431
I26852037
aI26865803
aS'-'
asS'MIR4743'
p432
(lp433
I48670599
aI48670668
aS'+'
asS'MIR4744'
p434
(lp435
I49049686
aI49049768
aS'-'
asS'FAM210A'
p436
(lp437
I13663346
aI13726592
aS'-'
asS'CDH20'
p438
(lp439
I61333581
aI61555773
aS'+'
asS'ZNF521'
p440
(lp441
I25061923
aI25352250
aS'-'
asS'RPL17'
p442
(lp443
I49488480
aI49492565
aS'-'
asS'RBBP8'
p444
(lp445
I22933331
aI23026486
aS'+'
asS'LOC105372028'
p446
(lp447
I24725780
aI24766645
aS'+'
asS'SNRPD1'
p448
(lp449
I21612268
aI21630245
aS'+'
asS'LINC00683'
p450
(lp451
I76619776
aI76623559
aS'+'
asS'GALR1'
p452
(lp453
I77250051
aI77270140
aS'+'
asS'MIR5190'
p454
(lp455
I13459946
aI13460026
aS'+'
asS'MYO5B'
p456
(lp457
I49822785
aI50195081
aS'-'
asS'SEH1L'
p458
(lp459
I12947983
aI12987536
aS'+'
asS'LOC644669'
p460
(lp461
I15313555
aI15325919
aS'-'
asS'LINC02582'
p462
(lp463
I73324940
aI73349889
aS'+'
asS'MIR6788'
p464
(lp465
I10759583
aI10759649
aS'-'
asS'TWSG1'
p466
(lp467
I9334766
aI9402420
aS'+'
asS'LINC01538'
p468
(lp469
I64213082
aI64260055
aS'-'
asS'LINC01539'
p470
(lp471
I56083355
aI56137536
aS'-'
asS'NARS'
p472
(lp473
I57600660
aI57621945
aS'-'
asS'ENOSF1'
p474
(lp475
I670319
aI712664
aS'-'
asS'RNF138'
p476
(lp477
I32091854
aI32131561
aS'+'
asS'B4GALT6'
p478
(lp479
I31621035
aI31684723
aS'-'
asS'TUBB6'
p480
(lp481
I12308058
aI12329825
aS'+'
asS'TSHZ1'
p482
(lp483
I75210754
aI75289950
aS'+'
asS'KATNAL2'
p484
(lp485
I46917593
aI47102243
aS'+'
asS'PCAT18'
p486
(lp487
I26687620
aI26703638
aS'-'
asS'LOC400655'
p488
(lp489
I73154057
aI73264498
aS'-'
asS'PTPN2'
p490
(lp491
I12785477
aI12884335
aS'-'
asS'MIR1-2'
p492
(lp493
I21829003
aI21829088
aS'-'
asS'CBX3P2'
p494
(lp495
I2652169
aI2655395
aS'-'
asS'ST8SIA5'
p496
(lp497
I46679117
aI46757169
aS'-'
asS'ST8SIA3'
p498
(lp499
I57352489
aI57368930
aS'+'
asS'LOC339298'
p500
(lp501
I76122997
aI76145255
aS'+'
asS'GNAL'
p502
(lp503
I11689014
aI11885684
aS'+'
asS'EPG5'
p504
(lp505
I45847608
aI45967329
aS'-'
asS'MYOM1'
p506
(lp507
I3066806
aI3220108
aS'-'
asS'LINC01903'
p508
(lp509
I67808506
aI67814822
aS'-'
asS'LINC01902'
p510
(lp511
I39841708
aI39889993
aS'+'
asS'AQP4-AS1'
p512
(lp513
I26865307
aI26935946
aS'+'
asS'LINC01905'
p514
(lp515
I56042277
aI56096315
aS'+'
asS'CTDP1'
p516
(lp517
I79679800
aI79754510
aS'+'
asS'MIR924'
p518
(lp519
I39622122
aI39622175
aS'-'
asS'GAREM1'
p520
(lp521
I32263520
aI32470484
aS'-'
asS'PSTPIP2'
p522
(lp523
I45983535
aI46072284
aS'-'
asS'DIPK1C'
p524
(lp525
I74435727
aI74457268
aS'-'
asS'LOC643542'
p526
(lp527
I67516545
aI67899619
aS'+'
asS'LOC727896'
p528
(lp529
I2943214
aI2946623
aS'-'
asS'NDUFV2-AS1'
p530
(lp531
I9121264
aI9136720
aS'-'
asS'C18orf25'
p532
(lp533
I46174021
aI46266992
aS'+'
asS'ZNF532'
p534
(lp535
I58862599
aI58986480
aS'+'
asS'LOC112577592'
p536
(lp537
I7455998
aI7461006
aS'-'
asS'DSCAS'
p538
(lp539
I31101587
aI31162789
aS'+'
asS'CBLN2'
p540
(lp541
I72536679
aI72544488
aS'-'
asS'DSG2'
p542
(lp543
I31498003
aI31549007
aS'+'
asS'DSG3'
p544
(lp545
I31447740
aI31478702
aS'+'
asS'PSMA8'
p546
(lp547
I26133846
aI26193355
aS'+'
asS'DSG1'
p548
(lp549
I31318159
aI31359246
aS'+'
asS'DSG4'
p550
(lp551
I31376776
aI31414908
aS'+'
asS'LIVAR'
p552
(lp553
I70335507
aI70338180
aS'-'
asS'EPB41L3'
p554
(lp555
I5392380
aI5628991
aS'-'
asS'KIAA1328'
p556
(lp557
I36829105
aI37232127
aS'+'
asS'VPS4B'
p558
(lp559
I63389191
aI63422519
aS'-'
asS'CHMP1B'
p560
(lp561
I11851389
aI11854449
aS'+'
asS'MYL12B'
p562
(lp563
I3262112
aI3278284
aS'+'
asS'MYL12A'
p564
(lp565
I3247481
aI3256237
aS'+'
asS'LOC105372068'
p566
(lp567
I37274459
aI37276400
aS'+'
asS'LOC105372069'
p568
(lp569
I36901944
aI36923814
aS'-'
asS'BOD1L2'
p570
(lp571
I57147086
aI57150410
aS'+'
asS'LINC00470'
p572
(lp573
I1268310
aI1359629
aS'-'
asS'SCARNA17'
p574
(lp575
I49814022
aI49814443
aS'+'
asS'RAX'
p576
(lp577
I59267034
aI59273393
aS'-'
asS'ZNF407'
p578
(lp579
I74630962
aI75065672
aS'+'
asS'MIR4320'
p580
(lp581
I50126498
aI50126563
aS'-'
asS'CDH19'
p582
(lp583
I66501186
aI66604138
aS'-'
asS'TCF4-AS1'
p584
(lp585
I55452532
aI55482941
aS'+'
asS'LOXHD1'
p586
(lp587
I46477253
aI46657033
aS'-'
asS'SNORA111'
p588
(lp589
I37466338
aI37466504
aS'-'
asS'TXNL4A'
p590
(lp591
I79972866
aI80033935
aS'-'
asS'ANKRD12'
p592
(lp593
I9136752
aI9285985
aS'+'
asS'YES1'
p594
(lp595
I721591
aI812326
aS'-'
asS'LINC01477'
p596
(lp597
I40066285
aI40099233
aS'+'
asS'LOC100192426'
p598
(lp599
I8360819
aI8367034
aS'-'
asS'TYMSOS'
p600
(lp601
I649619
aI658340
aS'-'
asS'LINC01478'
p602
(lp603
I44323434
aI44531697
aS'-'
asS'ANKRD30B'
p604
(lp605
I14748239
aI14852738
aS'+'
asS'ZCCHC2'
p606
(lp607
I62523424
aI62586743
aS'+'
asS'MBP'
p608
(lp609
I76978832
aI77132818
aS'-'
asS'MALT1'
p610
(lp611
I58671464
aI58754477
aS'+'
asS'ZBTB7C'
p612
(lp613
I48027267
aI48409422
aS'-'
asS'PIEZO2'
p614
(lp615
I10670246
aI11148762
aS'-'
asS'PIGN'
p616
(lp617
I62044224
aI62187056
aS'-'
asS'INO80C'
p618
(lp619
I35468326
aI35497991
aS'-'
asS'CCDC178'
p620
(lp621
I32937401
aI33440721
aS'-'
asS'SNHG22'
p622
(lp623
I49814022
aI49851059
aS'+'
asS'LOC102723376'
p624
(lp625
I12074
aI15930
aS'+'
asS'MIR3976HG'
p626
(lp627
I5748818
aI5795901
aS'+'
asS'LINC01898'
p628
(lp629
I75696082
aI75712403
aS'-'
asS'SIGLEC15'
p630
(lp631
I45825579
aI45842556
aS'+'
asS'RELCH'
p632
(lp633
I62187290
aI62307122
aS'+'
asS'BCL2'
p634
(lp635
I63123345
aI63319380
aS'-'
asS'MC2R'
p636
(lp637
I13882043
aI13915707
aS'-'
asS'LINC01909'
p638
(lp639
I70335438
aI70352459
aS'+'
asS'AFG3L2'
p640
(lp641
I12328943
aI12377276
aS'-'
asS'LDLRAD4'
p642
(lp643
I13218729
aI13652754
aS'+'
asS'ATP9B'
p644
(lp645
I79069274
aI79378282
aS'+'
asS'C18orf65'
p646
(lp647
I76495520
aI76498088
aS'+'
asS'C18orf61'
p648
(lp649
I12200778
aI12224710
aS'+'
asS'LINC01893'
p650
(lp651
I76209509
aI76215824
aS'+'
asS'C18orf63'
p652
(lp653
I74315874
aI74359187
aS'+'
asS'SERPINB2'
p654
(lp655
I63887704
aI63903890
aS'+'
asS'CCDC102B'
p656
(lp657
I68715253
aI69055189
aS'+'
asS'SERPINB5'
p658
(lp659
I63476910
aI63505085
aS'+'
asS'DSC2'
p660
(lp661
I31065973
aI31102432
aS'-'
asS'DSC3'
p662
(lp663
I30989364
aI31042815
aS'-'
asS'DSC1'
p664
(lp665
I31129250
aI31162856
aS'-'
asS'GAPLINC'
p666
(lp667
I3466249
aI3478978
aS'+'
asS'SERPINB7'
p668
(lp669
I63753046
aI63805376
aS'+'
asS'LINC01879'
p670
(lp671
I76690028
aI76693636
aS'+'
asS'ARHGAP28'
p672
(lp673
I6729715
aI6915713
aS'+'
asS'RBFA'
p674
(lp675
I80034345
aI80050652
aS'+'
asS'LINC01899'
p676
(lp677
I71732615
aI71782226
aS'-'
asS'SERPINB8'
p678
(lp679
I63970028
aI64019779
aS'+'
asS'SMAD2'
p680
(lp681
I47833094
aI47931146
aS'-'
asS'ABHD3'
p682
(lp683
I21650896
aI21704805
aS'-'
asS'SERPINB3'
p684
(lp685
I63655196
aI63661963
aS'-'
asS'LINC01892'
p686
(lp687
I5081181
aI5098780
aS'+'
asS'LINC01895'
p688
(lp689
I3347702
aI3350559
aS'-'
asS'LINC01894'
p690
(lp691
I24932773
aI24987979
aS'-'
asS'DSG2-AS1'
p692
(lp693
I31542145
aI31556911
aS'-'
asS'SOCS6'
p694
(lp695
I70289044
aI70330199
aS'+'
asS'C18orf12'
p696
(lp697
I48252300
aI48252837
aS'+'
asS'C18orf15'
p698
(lp699
I13239542
aI13242076
aS'+'
asS'ZADH2'
p700
(lp701
I75195109
aI75209348
aS'-'
asS'ATP8B1'
p702
(lp703
I57646425
aI57803315
aS'-'
asS'L3MBTL4'
p704
(lp705
I5954705
aI6415259
aS'-'
asS'LOC101927168'
p706
(lp707
I6728926
aI6729862
aS'-'
asS'ELP2'
p708
(lp709
I36129873
aI36177922
aS'+'
asS'CCDC68'
p710
(lp711
I54901508
aI54959508
aS'-'
asS'KC6'
p712
(lp713
I41480270
aI41520677
aS'-'
asS'LOC101927989'
p714
(lp715
I76491651
aI76493915
aS'+'
asS'LOC101927188'
p716
(lp717
I6954676
aI6957418
aS'+'
asS'CTIF'
p718
(lp719
I48539055
aI48863215
aS'+'
asS'LOC105372038'
p720
(lp721
I27336990
aI27342656
aS'-'
asS'ASXL3'
p722
(lp723
I33578576
aI33751194
aS'+'
asS'HAUS1'
p724
(lp725
I46104331
aI46128333
aS'+'
asS'NPC1'
p726
(lp727
I23531498
aI23586617
aS'-'
asS'PRELID3A'
p728
(lp729
I12407895
aI12432237
aS'+'
asS'MIR3929'
p730
(lp731
I35934087
aI35934142
aS'-'
asS'C18orf21'
p732
(lp733
I35972624
aI35979287
aS'+'
asS'SLC14A2'
p734
(lp735
I45212981
aI45683095
aS'+'
asS'SLC14A1'
p736
(lp737
I45724122
aI45752520
aS'+'
asS'NDUFV2'
p738
(lp739
I9102629
aI9134345
aS'+'
asS'SERPINB11'
p740
(lp741
I63702303
aI63723893
aS'+'
asS'SERPINB10'
p742
(lp743
I63907989
aI63936111
aS'+'
asS'SERPINB13'
p744
(lp745
I63587299
aI63599199
aS'+'
asS'SERPINB12'
p746
(lp747
I63556159
aI63569327
aS'+'
asS'MIR4319'
p748
(lp749
I44970081
aI44970166
aS'-'
asS'MIR4318'
p750
(lp751
I37657134
aI37657215
aS'+'
asS'LINC01387'
p752
(lp753
I6511415
aI6590653
aS'+'
asS'PPP4R1-AS1'
p754
(lp755
I9614806
aI9619363
aS'+'
asS'MIR4317'
p756
(lp757
I6374360
aI6374425
aS'-'
asS'ANKRD29'
p758
(lp759
I23598925
aI23662885
aS'-'
asS'KDSR'
p760
(lp761
I63327725
aI63367206
aS'-'
asS'LINC01541'
p762
(lp763
I71519963
aI71578956
aS'-'
asS'LMAN1'
p764
(lp765
I59327823
aI59359276
aS'-'
asS'RNF125'
p766
(lp767
I32018481
aI32073191
aS'+'
asS'TMX3'
p768
(lp769
I68673687
aI68715173
aS'-'
asS'SMCHD1'
p770
(lp771
I2655886
aI2805017
aS'+'
asS'LINC00668'
p772
(lp773
I6925473
aI6929869
aS'-'
asS'ME2'
p774
(lp775
I50879061
aI50949792
aS'+'
asS'LINC00667'
p776
(lp777
I5238099
aI5246506
aS'+'
asS'MOCOS'
p778
(lp779
I36187209
aI36268722
aS'+'
asS'LOC101927809'
p780
(lp781
I36180000
aI36187435
aS'-'
asS'MAPK4'
p782
(lp783
I50560113
aI50731826
aS'+'
asS'MIR3156-2'
p784
(lp785
I14830165
aI14830242
aS'+'
asS'LINC01919'
p786
(lp787
I53568446
aI53597851
aS'+'
asS'LINC01915'
p788
(lp789
I24628181
aI24662198
aS'+'
asS'LINC01917'
p790
(lp791
I53579622
aI53581059
aS'-'
asS'LINC01910'
p792
(lp793
I70380139
aI70384591
aS'-'
asS'SEC11C'
p794
(lp795
I59139856
aI59158837
aS'+'
asS'DTNA'
p796
(lp797
I34493289
aI34891844
aS'+'
asS'PHLPP1'
p798
(lp799
I62715438
aI62980443
aS'+'
asS'C18orf54'
p800
(lp801
I54357905
aI54382034
aS'+'
asS'GATA6-AS1'
p802
(lp803
I22166897
aI22168968
aS'-'
asS'FHOD3'
p804
(lp805
I36297695
aI36780220
aS'+'
asS'EMILIN2'
p806
(lp807
I2847029
aI2914092
aS'+'
asS'MIR924HG'
p808
(lp809
I39206923
aI39751995
aS'-'
asS'METTL4'
p810
(lp811
I2537524
aI2571503
aS'-'
asS'PIAS2'
p812
(lp813
I46803224
aI46917532
aS'-'
asS'TIMM21'
p814
(lp815
I74148510
aI74158969
aS'+'
asS'KCTD1'
p816
(lp817
I26454910
aI26657512
aS'-'
asS'HDHD2'
p818
(lp819
I47107401
aI47150520
aS'-'
asS'LOC101927571'
p820
(lp821
I22723490
aI22786837
aS'-'
asS'MIR133A1HG'
p822
(lp823
I21825478
aI21831406
aS'-'
asS'MIR4529'
p824
(lp825
I55479220
aI55479298
aS'+'
asS'PARD6G-AS1'
p826
(lp827
I80147923
aI80178432
aS'+'
asS'SERPINB4'
p828
(lp829
I63637258
aI63644319
aS'-'
asS'LOC105372071'
p830
(lp831
I36660388
aI36663418
aS'-'
asS'LOC105372179'
p832
(lp833
I69469930
aI69471736
aS'+'
asS'RAB31'
p834
(lp835
I9708230
aI9862556
aS'+'
asS'ESCO1'
p836
(lp837
I21529300
aI21600732
aS'-'
asS'DOK6'
p838
(lp839
I69400887
aI69849086
aS'+'
asS'CABLES1'
p840
(lp841
I23134563
aI23260470
aS'+'
asS'MPPE1'
p842
(lp843
I11883470
aI11908797
aS'-'
asS'SNORA37'
p844
(lp845
I54222283
aI54222412
aS'-'
asS'TXNL1'
p846
(lp847
I56602821
aI56638689
aS'-'
asS'LINC01543'
p848
(lp849
I26422994
aI26438044
aS'+'
asS'MIR302F'
p850
(lp851
I30298909
aI30298960
aS'+'
asS'USP14'
p852
(lp853
I158556
aI214629
aS'+'
asS'LINC01544'
p854
(lp855
I61748175
aI61754695
aS'+'
asS'ANKRD62'
p856
(lp857
I12093848
aI12129749
aS'+'
asS'MIR4527HG'
p858
(lp859
I47285723
aI47594547
aS'+'
asS'RNF165'
p860
(lp861
I46334223
aI46460820
aS'+'
asS'ZNF236-DT'
p862
(lp863
I76794731
aI76822295
aS'-'
asS'CFAP53'
p864
(lp865
I50227193
aI50266522
aS'-'
asS'NEDD4L'
p866
(lp867
I58044377
aI58401540
aS'+'
asS'PTPRM'
p868
(lp869
I7567315
aI8406861
aS'+'
as.