(dp1
S'UBE2Q1'
p2
(lp3
I154548574
aI154558644
aS'-'
asS'MIR6084'
p4
(lp5
I20633678
aI20633788
aS'+'
asS'AGL'
p6
(lp7
I99850083
aI99924023
aS'+'
asS'HSPA7'
p8
(lp9
I161606058
aI161608551
aS'+'
asS'RNF11'
p10
(lp11
I51236272
aI51273447
aS'+'
asS'CELA2A'
p12
(lp13
I15456727
aI15472091
aS'+'
asS'LOC102724601'
p14
(lp15
I174121637
aI174159287
aS'-'
asS'CELA2B'
p16
(lp17
I15476100
aI15491400
aS'+'
asS'LAPTM5'
p18
(lp19
I30732467
aI30757836
aS'-'
asS'AGT'
p20
(lp21
I230702522
aI230714122
aS'-'
asS'SLC50A1'
p22
(lp23
I155135343
aI155138858
aS'+'
asS'HSPA6'
p24
(lp25
I161524539
aI161526897
aS'+'
asS'INKA2'
p26
(lp27
I111722063
aI111755797
aS'-'
asS'OR14K1'
p28
(lp29
I247738614
aI247739559
aS'+'
asS'PALMD'
p30
(lp31
I99645874
aI99694541
aS'+'
asS'NR0B2'
p32
(lp33
I26911488
aI26913975
aS'-'
asS'F11R'
p34
(lp35
I160995205
aI161021343
aS'-'
asS'PIK3CD'
p36
(lp37
I9651730
aI9728922
aS'+'
asS'DISC2'
p38
(lp39
I231814625
aI231818517
aS'-'
asS'ZSWIM5'
p40
(lp41
I45016403
aI45206578
aS'-'
asS'MIR552'
p42
(lp43
I34669598
aI34669694
aS'-'
asS'RNF115'
p44
(lp45
I145738867
aI145824095
aS'-'
asS'MIR554'
p46
(lp47
I151545795
aI151545891
aS'+'
asS'MIR555'
p48
(lp49
I155346349
aI155346445
aS'-'
asS'MIR556'
p50
(lp51
I162342545
aI162342640
aS'+'
asS'TMEM59'
p52
(lp53
I54026680
aI54053573
aS'-'
asS'TMEM56'
p54
(lp55
I95092516
aI95197605
aS'+'
asS'TMEM54'
p56
(lp57
I32894592
aI32901440
aS'-'
asS'TMEM52'
p58
(lp59
I1917589
aI1919301
aS'-'
asS'TMEM53'
p60
(lp61
I44653246
aI44674608
aS'-'
asS'TMEM51'
p62
(lp63
I15152531
aI15220478
aS'+'
asS'DHX9'
p64
(lp65
I182839303
aI182887982
aS'+'
asS'LCE2B'
p66
(lp67
I152686122
aI152687400
aS'+'
asS'OR10T2'
p68
(lp69
I158398521
aI158399466
aS'-'
asS'MUC1'
p70
(lp71
I155185823
aI155192915
aS'-'
asS'CRB1'
p72
(lp73
I197201461
aI197478455
aS'+'
asS'POLR3GL'
p74
(lp75
I145964681
aI145978848
aS'+'
asS'CEP85'
p76
(lp77
I26234152
aI26278810
aS'+'
asS'ZNF672'
p78
(lp79
I248838223
aI248849517
aS'+'
asS'ZNF670'
p80
(lp81
I247034637
aI247078813
aS'-'
asS'TRAPPC3'
p82
(lp83
I36136568
aI36156053
aS'-'
asS'MIR92B'
p84
(lp85
I155195176
aI155195272
aS'+'
asS'FAM183A'
p86
(lp87
I43147922
aI43156396
aS'+'
asS'ERI3'
p88
(lp89
I44221069
aI44355279
aS'-'
asS'KTI12'
p90
(lp91
I52032104
aI52033800
aS'-'
asS'ZNF678'
p92
(lp93
I227563518
aI227677443
aS'+'
asS'NSL1'
p94
(lp95
I212726152
aI212791797
aS'-'
asS'RIT1'
p96
(lp97
I155897807
aI155911402
aS'-'
asS'MGST3'
p98
(lp99
I165630872
aI165656135
aS'+'
asS'DENND4B'
p100
(lp101
I153929500
aI153946678
aS'-'
asS'SEMA4A'
p102
(lp103
I156149943
aI156177751
aS'+'
asS'LOC100132287'
p104
(lp105
I490755
aI495445
aS'-'
asS'APOA2'
p106
(lp107
I161222292
aI161223628
aS'-'
asS'LOC101928370'
p108
(lp109
I101234872
aI101236528
aS'-'
asS'LOC101928372'
p110
(lp111
I160932464
aI160949922
aS'+'
asS'CSDE1'
p112
(lp113
I114716912
aI114758050
aS'-'
asS'LOC101928177'
p114
(lp115
I156614741
aI156621928
aS'-'
asS'RNU5F-1'
p116
(lp117
I44721785
aI44721901
aS'-'
asS'TIPRL'
p118
(lp119
I168178961
aI168202109
aS'+'
asS'SPATA42'
p120
(lp121
I108857216
aI108858524
aS'+'
asS'RNA5S11'
p122
(lp123
I228610265
aI228610386
aS'-'
asS'RNA5S10'
p124
(lp125
I228610265
aI228610386
aS'-'
asS'RNA5S13'
p126
(lp127
I228610265
aI228610386
aS'-'
asS'RNA5S12'
p128
(lp129
I228610265
aI228610386
aS'-'
asS'RNA5S15'
p130
(lp131
I228610265
aI228610386
aS'-'
asS'RNA5S14'
p132
(lp133
I228610265
aI228610386
aS'-'
asS'RNA5S17'
p134
(lp135
I228610265
aI228610386
aS'-'
asS'TMEM269'
p136
(lp137
I42785031
aI42800818
aS'+'
asS'ACTG1P4'
p138
(lp139
I103569403
aI103571386
aS'+'
asS'LIN28A'
p140
(lp141
I26410767
aI26429728
aS'+'
asS'HMCN1'
p142
(lp143
I185734550
aI186190953
aS'+'
asS'CLCA4-AS1'
p144
(lp145
I86571180
aI86704493
aS'-'
asS'SLC35D1'
p146
(lp147
I66999331
aI67054397
aS'-'
asS'RPS6KA1'
p148
(lp149
I26529757
aI26575029
aS'+'
asS'LOC101929626'
p150
(lp151
I46133370
aI46139080
aS'+'
asS'KCNH1'
p152
(lp153
I210678314
aI211134115
aS'-'
asS'HLX'
p154
(lp155
I220879400
aI220885058
aS'+'
asS'SFT2D2'
p156
(lp157
I168226016
aI168242850
aS'+'
asS'SNORD45C'
p158
(lp159
I75787071
aI75787149
aS'+'
asS'SNORD45B'
p160
(lp161
I75789476
aI75789547
aS'+'
asS'SNORD45A'
p162
(lp163
I75787888
aI75787972
aS'+'
asS'UTP25'
p164
(lp165
I209827971
aI209857565
aS'+'
asS'MINDY1'
p166
(lp167
I150996824
aI151008378
aS'-'
asS'SERBP1'
p168
(lp169
I67407809
aI67430440
aS'-'
asS'LOC101928718'
p170
(lp171
I111745316
aI111755509
aS'-'
asS'GBA'
p172
(lp173
I155234447
aI155244862
aS'-'
asS'DCST2'
p174
(lp175
I155018526
aI155033781
aS'-'
asS'DCST1'
p176
(lp177
I155033805
aI155050930
aS'+'
asS'LOC729867'
p178
(lp179
I160202198
aI160208869
aS'-'
asS'LINC01930'
p180
(lp181
I97933473
aI97941740
aS'-'
asS'SESN2'
p182
(lp183
I28259451
aI28282491
aS'+'
asS'C1orf54'
p184
(lp185
I150272283
aI150280924
aS'+'
asS'GOLPH3L'
p186
(lp187
I150646224
aI150697196
aS'-'
asS'LINC01693'
p188
(lp189
I211639807
aI211654621
aS'+'
asS'LINC01696'
p190
(lp191
I209325455
aI209328532
aS'+'
asS'NPHP4'
p192
(lp193
I5862807
aI5992473
aS'-'
asS'SNORA73A'
p194
(lp195
I28507364
aI28507571
aS'+'
asS'LINC01699'
p196
(lp197
I181236387
aI181238604
aS'+'
asS'SNORA73B'
p198
(lp199
I28508557
aI28508762
aS'+'
asS'CTH'
p200
(lp201
I70411217
aI70439851
aS'+'
asS'MIR4711'
p202
(lp203
I59733226
aI59733296
aS'-'
asS'EXOSC10'
p204
(lp205
I11066612
aI11099910
aS'-'
asS'GDAP2'
p206
(lp207
I117863484
aI117929679
aS'-'
asS'ARF1'
p208
(lp209
I228082659
aI228099212
aS'+'
asS'CKS1B'
p210
(lp211
I154974641
aI154979249
aS'+'
asS'DNALI1'
p212
(lp213
I37556939
aI37566857
aS'+'
asS'MIR553'
p214
(lp215
I100281240
aI100281308
aS'+'
asS'BCAR3'
p216
(lp217
I93561785
aI93847150
aS'-'
asS'LOC101929536'
p218
(lp219
I39788975
aI39790170
aS'+'
asS'ERICH3'
p220
(lp221
I74568110
aI74673738
aS'-'
asS'ARTN'
p222
(lp223
I43933319
aI43937240
aS'+'
asS'SZT2'
p224
(lp225
I43389884
aI43454247
aS'+'
asS'MIR3620'
p226
(lp227
I228097262
aI228097341
aS'+'
asS'ILDR2'
p228
(lp229
I166913203
aI166975324
aS'-'
asS'PIK3CD-AS2'
p230
(lp231
I9672425
aI9687574
aS'-'
asS'PIK3CD-AS1'
p232
(lp233
I9652609
aI9654586
aS'-'
asS'MIR557'
p234
(lp235
I168375523
aI168375621
aS'+'
asS'TCEA3'
p236
(lp237
I23380908
aI23424779
aS'-'
asS'AKNAD1'
p238
(lp239
I108815897
aI108858242
aS'-'
asS'RPTN'
p240
(lp241
I152153594
aI152159228
aS'-'
asS'NOL9'
p242
(lp243
I6521346
aI6554598
aS'-'
asS'FCGR3B'
p244
(lp245
I161623197
aI161631963
aS'-'
asS'ABCD3'
p246
(lp247
I94418376
aI94518663
aS'+'
asS'TDRKH-AS1'
p248
(lp249
I151790748
aI151794402
aS'+'
asS'PEX19'
p250
(lp251
I160276808
aI160285151
aS'-'
asS'OR6P1'
p252
(lp253
I158562650
aI158563604
aS'-'
asS'FAM20B'
p254
(lp255
I179025803
aI179076574
aS'+'
asS'RLF'
p256
(lp257
I40161368
aI40240921
aS'+'
asS'GNG12-AS1'
p258
(lp259
I67832287
aI68202987
aS'+'
asS'UBXN10-AS1'
p260
(lp261
I20184242
aI20186486
aS'-'
asS'ATP1A4'
p262
(lp263
I160151561
aI160186977
aS'+'
asS'SLC35E2A'
p264
(lp265
I1724837
aI1745999
aS'-'
asS'ATP1A1'
p266
(lp267
I116373172
aI116404776
aS'+'
asS'HSD52'
p268
(lp269
I59131935
aI59146807
aS'-'
asS'LINC02257'
p270
(lp271
I221913644
aI221978520
aS'-'
asS'CDC42'
p272
(lp273
I22052626
aI22092943
aS'+'
asS'DPT'
p274
(lp275
I168695456
aI168729204
aS'-'
asS'IPO13'
p276
(lp277
I43946949
aI43968022
aS'+'
asS'SPRR2B'
p278
(lp279
I153070227
aI153071608
aS'-'
asS'HMGB4'
p280
(lp281
I33860474
aI33864791
aS'+'
asS'RBMXL1'
p282
(lp283
I88979455
aI88992960
aS'-'
asS'PEX10'
p284
(lp285
I2404801
aI2412571
aS'-'
asS'FRRS1'
p286
(lp287
I99703966
aI99765793
aS'-'
asS'RGS21'
p288
(lp289
I192316991
aI192367284
aS'+'
asS'DPYD'
p290
(lp291
I97077743
aI97921059
aS'-'
asS'ANGEL2'
p292
(lp293
I212992181
aI213015875
aS'-'
asS'LINC00272'
p294
(lp295
I182407620
aI182414813
aS'+'
asS'ETNK2'
p296
(lp297
I204131060
aI204152182
aS'-'
asS'ARHGEF19'
p298
(lp299
I16197853
aI16212671
aS'-'
asS'MNDA'
p300
(lp301
I158831302
aI158849504
aS'+'
asS'CDCA8'
p302
(lp303
I37692400
aI37709719
aS'+'
asS'LINC01672'
p304
(lp305
I6724744
aI6730012
aS'+'
asS'LINC01675'
p306
(lp307
I166475771
aI166490039
aS'-'
asS'LINC01677'
p308
(lp309
I105927623
aI106028253
aS'-'
asS'LINC01676'
p310
(lp311
I105589693
aI105618935
aS'-'
asS'UTS2'
p312
(lp313
I7847611
aI7853491
aS'-'
asS'CD48'
p314
(lp315
I160678745
aI160711851
aS'-'
asS'CA14'
p316
(lp317
I150257773
aI150265078
aS'+'
asS'TNFAIP8L2-SCNM1'
p318
(lp319
I151156628
aI151170297
aS'+'
asS'SCCPDH'
p320
(lp321
I246724075
aI246768138
aS'+'
asS'ATG4C'
p322
(lp323
I62784131
aI62865514
aS'+'
asS'MIR765'
p324
(lp325
I156936130
aI156936244
aS'-'
asS'FPGT'
p326
(lp327
I74198211
aI74208702
aS'+'
asS'MIR761'
p328
(lp329
I51836343
aI51836402
aS'-'
asS'MIR760'
p330
(lp331
I93846831
aI93846911
aS'+'
asS'MROH7-TTC4'
p332
(lp333
I54641739
aI54742655
aS'+'
asS'IQCC'
p334
(lp335
I32205634
aI32208687
aS'+'
asS'THAP3'
p336
(lp337
I6625149
aI6635586
aS'+'
asS'RAB25'
p338
(lp339
I156061148
aI156070514
aS'+'
asS'CFH'
p340
(lp341
I196651877
aI196747504
aS'+'
asS'LOC105378586'
p342
(lp343
I1599432
aI1607210
aS'+'
asS'RAB29'
p344
(lp345
I205767985
aI205775482
aS'-'
asS'YRDC'
p346
(lp347
I37802941
aI37808193
aS'-'
asS'WDR78'
p348
(lp349
I66812885
aI66924887
aS'-'
asS'LOC343052'
p350
(lp351
I153793946
aI153796302
aS'+'
asS'WDR77'
p352
(lp353
I111439889
aI111449308
aS'-'
asS'TRIM11'
p354
(lp355
I228393675
aI228406816
aS'-'
asS'WNT3A'
p356
(lp357
I228006997
aI228061271
aS'+'
asS'SYTL1'
p358
(lp359
I27341991
aI27353932
aS'+'
asS'TRIM17'
p360
(lp361
I228407934
aI228416882
aS'-'
asS'AHCTF1'
p362
(lp363
I246839097
aI246931978
aS'-'
asS'C1orf232'
p364
(lp365
I26164160
aI26168582
aS'-'
asS'IL6R-AS1'
p366
(lp367
I154402322
aI154406564
aS'-'
asS'OR10K2'
p368
(lp369
I158419927
aI158420866
aS'-'
asS'OR10K1'
p370
(lp371
I158465561
aI158466503
aS'+'
asS'CHI3L2'
p372
(lp373
I111227658
aI111243440
aS'+'
asS'CHI3L1'
p374
(lp375
I203178930
aI203186794
aS'-'
asS'PRPF3'
p376
(lp377
I150321467
aI150353228
aS'+'
asS'MTMR9LP'
p378
(lp379
I32231659
aI32241710
aS'-'
asS'MR1'
p380
(lp381
I181033424
aI181061938
aS'+'
asS'PROX1-AS1'
p382
(lp383
I213819640
aI213986153
aS'-'
asS'ZFP69'
p384
(lp385
I40477629
aI40496343
aS'+'
asS'LINC00302'
p386
(lp387
I152655476
aI152656804
aS'+'
asS'LINC00303'
p388
(lp389
I204032446
aI204041264
aS'-'
asS'HDGF'
p390
(lp391
I156742106
aI156752448
aS'-'
asS'DCST1-AS1'
p392
(lp393
I155045191
aI155063991
aS'-'
asS'ZMPSTE24'
p394
(lp395
I40258049
aI40294184
aS'+'
asS'MRPL37'
p396
(lp397
I54200166
aI54225489
aS'+'
asS'LEFTY2'
p398
(lp399
I225936597
aI225941492
aS'-'
asS'CYP4B1'
p400
(lp401
I46798997
aI46819349
aS'+'
asS'OR2T12'
p402
(lp403
I248294615
aI248295578
aS'-'
asS'KIF14'
p404
(lp405
I200551496
aI200620734
aS'-'
asS'SYPL2'
p406
(lp407
I109466545
aI109482134
aS'+'
asS'RFX5'
p408
(lp409
I151340639
aI151347293
aS'-'
asS'RHBDL2'
p410
(lp411
I38885805
aI38941830
aS'-'
asS'RABGAP1L'
p412
(lp413
I174159519
aI174995308
aS'+'
asS'IBA57'
p414
(lp415
I228165807
aI228182257
aS'+'
asS'HSD3B1'
p416
(lp417
I119507202
aI119515058
aS'+'
asS'HSD3B2'
p418
(lp419
I119414930
aI119423039
aS'+'
asS'ETV3L'
p420
(lp421
I157092042
aI157099808
aS'-'
asS'DBT'
p422
(lp423
I100186921
aI100249853
aS'-'
asS'NHLH2'
p424
(lp425
I115836377
aI115841126
aS'-'
asS'MIR942'
p426
(lp427
I117094642
aI117094728
aS'+'
asS'MIR3119-1'
p428
(lp429
I170151377
aI170151462
aS'-'
asS'FALEC'
p430
(lp431
I150515756
aI150518032
aS'+'
asS'KHDRBS1'
p432
(lp433
I32013693
aI32060859
aS'+'
asS'MIR3119-2'
p434
(lp435
I170151377
aI170151462
aS'+'
asS'SERINC2'
p436
(lp437
I31409564
aI31434680
aS'+'
asS'ZNF593'
p438
(lp439
I26169896
aI26170873
aS'+'
asS'PINK1'
p440
(lp441
I20633454
aI20651511
aS'+'
asS'PFN1P2'
p442
(lp443
I120432203
aI120434109
aS'-'
asS'MED8'
p444
(lp445
I43383907
aI43389812
aS'-'
asS'ZNHIT6'
p446
(lp447
I85649422
aI85708433
aS'-'
asS'MYCL'
p448
(lp449
I39895423
aI39902015
aS'-'
asS'PIN1P1'
p450
(lp451
I69919321
aI69920317
aS'+'
asS'MFSD2A'
p452
(lp453
I39955111
aI39969968
aS'+'
asS'ATXN7L2'
p454
(lp455
I109483904
aI109492798
aS'+'
asS'PLCH2'
p456
(lp457
I2467458
aI2505530
aS'+'
asS'AXDND1'
p458
(lp459
I179365719
aI179554735
aS'+'
asS'CAMTA1'
p460
(lp461
I6785323
aI7769706
aS'+'
asS'TRAF3IP3'
p462
(lp463
I209756031
aI209782323
aS'+'
asS'IARS2'
p464
(lp465
I220094112
aI220148041
aS'+'
asS'LOC101927429'
p466
(lp467
I144276483
aI144302541
aS'-'
asS'ATP5IF1'
p468
(lp469
I28236090
aI28238105
aS'+'
asS'OR1C1'
p470
(lp471
I247757461
aI247758406
aS'-'
asS'TARS2'
p472
(lp473
I150487363
aI150507609
aS'+'
asS'SPRR4'
p474
(lp475
I152970652
aI152972573
aS'+'
asS'SPRR3'
p476
(lp477
I153001746
aI153003856
aS'+'
asS'OR2B11'
p478
(lp479
I247451028
aI247451982
aS'-'
asS'SCMH1'
p480
(lp481
I41027198
aI41242143
aS'-'
asS'COL16A1'
p482
(lp483
I31652246
aI31704167
aS'-'
asS'EPS8L3'
p484
(lp485
I109750079
aI109764022
aS'-'
asS'AGBL4-IT1'
p486
(lp487
I49374200
aI49472085
aS'-'
asS'GJA4'
p488
(lp489
I34792998
aI34795747
aS'+'
asS'GJA5'
p490
(lp491
I147756198
aI147773362
aS'-'
asS'GJA8'
p492
(lp493
I147902819
aI147909268
aS'+'
asS'CD164L2'
p494
(lp495
I27379175
aI27383333
aS'-'
asS'CALML6'
p496
(lp497
I1914826
aI1917294
aS'+'
asS'SHISA4'
p498
(lp499
I201888668
aI201892587
aS'+'
asS'MEF2D'
p500
(lp501
I156463720
aI156500842
aS'-'
asS'GAS5'
p502
(lp503
I173863898
aI173868882
aS'-'
asS'EPHX1'
p504
(lp505
I225810073
aI225845561
aS'+'
asS'C2CD4D-AS1'
p506
(lp507
I151838276
aI151851535
aS'+'
asS'EPHX4'
p508
(lp509
I92029975
aI92063536
aS'+'
asS'ANKRD13C'
p510
(lp511
I70259001
aI70354734
aS'-'
asS'AMPD2'
p512
(lp513
I109619812
aI109632055
aS'+'
asS'AMPD1'
p514
(lp515
I114673098
aI114695618
aS'-'
asS'AIDA'
p516
(lp517
I222668012
aI222712522
aS'-'
asS'EIF2B3'
p518
(lp519
I44850521
aI44986722
aS'-'
asS'CSMD2'
p520
(lp521
I33513998
aI34165842
aS'-'
asS'OR2L13'
p522
(lp523
I247937028
aI248100922
aS'+'
asS'LINC01784'
p524
(lp525
I12822685
aI12823223
aS'-'
asS'TXNIP'
p526
(lp527
I145992425
aI145996631
aS'-'
asS'DNAJB4'
p528
(lp529
I77979157
aI78017964
aS'+'
asS'MIR548N'
p530
(lp531
I99516983
aI99712953
aS'-'
asS'RASAL2-AS1'
p532
(lp533
I178091507
aI178093993
aS'-'
asS'LOC101928728'
p534
(lp535
I26691909
aI26694131
aS'-'
asS'MIR6878'
p536
(lp537
I150492344
aI150492410
aS'+'
asS'SH3D21'
p538
(lp539
I36306392
aI36321347
aS'+'
asS'FAM177B'
p540
(lp541
I222737215
aI222750805
aS'+'
asS'UTP11'
p542
(lp543
I38012711
aI38024825
aS'+'
asS'IPO9-AS1'
p544
(lp545
I201688255
aI201829559
aS'-'
asS'LRRN2'
p546
(lp547
I204617172
aI204685469
aS'-'
asS'PRELP'
p548
(lp549
I203475754
aI203491351
aS'+'
asS'TGFBR3'
p550
(lp551
I91680342
aI91906002
aS'-'
asS'PHACTR4'
p552
(lp553
I28369553
aI28500369
aS'+'
asS'CLIC4'
p554
(lp555
I24745268
aI24844324
aS'+'
asS'CDCP2'
p556
(lp557
I54132719
aI54153181
aS'-'
asS'LAMC1-AS1'
p558
(lp559
I183138402
aI183141270
aS'-'
asS'MTMR11'
p560
(lp561
I149928650
aI149936879
aS'-'
asS'CFHR5'
p562
(lp563
I196977536
aI197009673
aS'+'
asS'SSX2IP'
p564
(lp565
I84643706
aI84690557
aS'-'
asS'LINC01685'
p566
(lp567
I38475195
aI38476484
aS'+'
asS'LINC01686'
p568
(lp569
I182615139
aI182616633
aS'+'
asS'LINC01680'
p570
(lp571
I191221158
aI191228498
aS'-'
asS'LINC01681'
p572
(lp573
I170174378
aI170241570
aS'+'
asS'LINC01682'
p574
(lp575
I229875549
aI229885818
aS'-'
asS'LINC01688'
p576
(lp577
I182712861
aI182714541
aS'+'
asS'OR2AJ1'
p578
(lp579
I247933765
aI247934755
aS'+'
asS'LRRC38'
p580
(lp581
I13474976
aI13513747
aS'-'
asS'LRRC39'
p582
(lp583
I100148447
aI100178273
aS'-'
asS'MIR1295B'
p584
(lp585
I171101738
aI171101798
aS'+'
asS'SNORA103'
p586
(lp587
I173866204
aI173866290
aS'-'
asS'SNORA100'
p588
(lp589
I244854086
aI244854217
aS'-'
asS'YOD1'
p590
(lp591
I207043848
aI207052980
aS'-'
asS'MFN2'
p592
(lp593
I11980180
aI12013515
aS'+'
asS'DLSTP1'
p594
(lp595
I75742001
aI75745013
aS'-'
asS'LEXM'
p596
(lp597
I54806062
aI54842264
aS'+'
asS'LOC101928034'
p598
(lp599
I153545741
aI153551769
aS'+'
asS'MAD2L2'
p600
(lp601
I11674479
aI11691621
aS'-'
asS'PRDX6'
p602
(lp603
I173477346
aI173488807
aS'+'
asS'SNORA36B'
p604
(lp605
I220200547
aI220200676
aS'-'
asS'LINC00869'
p606
(lp607
I149607011
aI149679523
aS'+'
asS'PRDX1'
p608
(lp609
I45511034
aI45522890
aS'-'
asS'NFYC'
p610
(lp611
I40691569
aI40771606
aS'+'
asS'TSNAX-DISC1'
p612
(lp613
I231528652
aI232041273
aS'+'
asS'CLCNKA'
p614
(lp615
I16021990
aI16034050
aS'+'
asS'CASP9'
p616
(lp617
I15491400
aI15524790
aS'-'
asS'NBPF13P'
p618
(lp619
I147099481
aI147114346
aS'-'
asS'CCDC163'
p620
(lp621
I45493862
aI45500079
aS'-'
asS'MIR4632'
p622
(lp623
I12191712
aI12191773
aS'+'
asS'LOC100996251'
p624
(lp625
I113011686
aI113073102
aS'-'
asS'PHLDA3'
p626
(lp627
I201464283
aI201469171
aS'-'
asS'RPS14P3'
p628
(lp629
I19607806
aI19608644
aS'+'
asS'NBPF7'
p630
(lp631
I119834764
aI119844880
aS'-'
asS'SNAPIN'
p632
(lp633
I153658653
aI153661852
aS'+'
asS'ST3GAL3'
p634
(lp635
I43707496
aI43931165
aS'+'
asS'SNORA58B'
p636
(lp637
I154259726
aI154259862
aS'+'
asS'FCGR2B'
p638
(lp639
I161663114
aI161678654
aS'+'
asS'CROCC'
p640
(lp641
I16921930
aI16972960
aS'+'
asS'FCGR2A'
p642
(lp643
I161505414
aI161519570
aS'+'
asS'NBPF15'
p644
(lp645
I144421385
aI144459464
aS'-'
asS'NBPF14'
p646
(lp647
I148531384
aI148595717
aS'-'
asS'NBPF12'
p648
(lp649
I146938544
aI146996093
aS'+'
asS'NBPF11'
p650
(lp651
I148102045
aI148152190
aS'-'
asS'NBPF10'
p652
(lp653
I146066317
aI146144804
aS'-'
asS'NBPF19'
p654
(lp655
I149475897
aI149556361
aS'+'
asS'PBX1'
p656
(lp657
I164559359
aI164886047
aS'+'
asS'LYPLAL1'
p658
(lp659
I219173830
aI219212865
aS'+'
asS'DPH2'
p660
(lp661
I43969980
aI43973371
aS'+'
asS'DPH5'
p662
(lp663
I100989624
aI101025806
aS'-'
asS'SNRPD2P2'
p664
(lp665
I231475762
aI231476525
aS'-'
asS'SLC16A1'
p666
(lp667
I112911847
aI112956353
aS'-'
asS'MIR4654'
p668
(lp669
I162157106
aI162157182
aS'+'
asS'SMG7-AS1'
p670
(lp671
I183460875
aI183471982
aS'-'
asS'NSUN4'
p672
(lp673
I46340176
aI46365152
aS'+'
asS'PRAMEF4'
p674
(lp675
I12879211
aI12886201
aS'-'
asS'PRAMEF5'
p676
(lp677
I13254197
aI13263435
aS'+'
asS'PRAMEF6'
p678
(lp679
I12938471
aI12947580
aS'-'
asS'PRAMEF7'
p680
(lp681
I12916646
aI12920480
aS'+'
asS'DCAF6'
p682
(lp683
I167936238
aI168075843
aS'+'
asS'PRAMEF2'
p684
(lp685
I12857085
aI12861909
aS'+'
asS'PTCH2'
p686
(lp687
I44819843
aI44842944
aS'-'
asS'LINC01661'
p688
(lp689
I106818238
aI106838193
aS'+'
asS'PRAMEF8'
p690
(lp691
I13281303
aI13285137
aS'-'
asS'PRAMEF9'
p692
(lp693
I13175280
aI13179132
aS'+'
asS'PTGS2'
p694
(lp695
I186671790
aI186680423
aS'-'
asS'SZT2-AS1'
p696
(lp697
I43447775
aI43448644
aS'-'
asS'CD34'
p698
(lp699
I207886537
aI207911338
aS'-'
asS'POLR3C'
p700
(lp701
I145824068
aI145844401
aS'+'
asS'UQCRH'
p702
(lp703
I46303612
aI46316777
aS'+'
asS'PDC'
p704
(lp705
I186443565
aI186461108
aS'-'
asS'CACNA1E'
p706
(lp707
I181483516
aI181806784
aS'+'
asS'NDC1'
p708
(lp709
I53765460
aI53838552
aS'-'
asS'DLGAP3'
p710
(lp711
I34865435
aI34929585
aS'-'
asS'BRDT'
p712
(lp713
I91949370
aI92014428
aS'+'
asS'WDR63'
p714
(lp715
I85062297
aI85133138
aS'+'
asS'CACNA1S'
p716
(lp717
I201039511
aI201112426
aS'-'
asS'TUT4'
p718
(lp719
I52423275
aI52553092
aS'-'
asS'WDR64'
p720
(lp721
I241652277
aI241802132
aS'+'
asS'C1orf220'
p722
(lp723
I178542795
aI178548889
aS'+'
asS'BMP8A'
p724
(lp725
I39491645
aI39529869
aS'+'
asS'BMP8B'
p726
(lp727
I39757181
aI39788861
aS'-'
asS'C1orf226'
p728
(lp729
I162378840
aI162386818
aS'+'
asS'HMGCL'
p730
(lp731
I23801876
aI23825459
aS'-'
asS'PRMT6'
p732
(lp733
I107056644
aI107059296
aS'+'
asS'CLCN6'
p734
(lp735
I11806095
aI11843144
aS'+'
asS'PER3'
p736
(lp737
I7784428
aI7845180
aS'+'
asS'BGLAP'
p738
(lp739
I156241961
aI156243332
aS'+'
asS'GNPAT'
p740
(lp741
I231241172
aI231277973
aS'+'
asS'MIR3671'
p742
(lp743
I65057754
aI65057842
aS'-'
asS'MYCBP'
p744
(lp745
I38862489
aI38873378
aS'-'
asS'PTPN14'
p746
(lp747
I214348701
aI214551602
aS'-'
asS'AKR7A2P1'
p748
(lp749
I112923349
aI112924673
aS'+'
asS'LINC00339'
p750
(lp751
I22025190
aI22031224
aS'+'
asS'LINC00337'
p752
(lp753
I6236239
aI6239442
aS'+'
asS'MIR3675'
p754
(lp755
I16548913
aI16548987
aS'+'
asS'RNA5S16'
p756
(lp757
I228610265
aI228610386
aS'-'
asS'NCMAP'
p758
(lp759
I24556075
aI24609327
aS'+'
asS'TMEM125'
p760
(lp761
I43269982
aI43274002
aS'+'
asS'SLC22A15'
p762
(lp763
I115976497
aI116070054
aS'+'
asS'MRPL20'
p764
(lp765
I1401895
aI1407313
aS'-'
asS'PNRC2'
p766
(lp767
I23959810
aI23963459
aS'+'
asS'MIR6068'
p768
(lp769
I63326924
aI63326984
aS'-'
asS'HSPG2'
p770
(lp771
I21822243
aI21937310
aS'-'
asS'DMRTB1'
p772
(lp773
I53459398
aI53467487
aS'+'
asS'RNVU1-20'
p774
(lp775
I120942599
aI120942762
aS'+'
asS'MIR6769B'
p776
(lp777
I206474802
aI206474864
aS'+'
asS'HIPK1-AS1'
p778
(lp779
I113924000
aI113929525
aS'-'
asS'S100A10'
p780
(lp781
I151982909
aI151994238
aS'-'
asS'SEC16B'
p782
(lp783
I177928787
aI177984303
aS'-'
asS'TDRD10'
p784
(lp785
I154502218
aI154548147
aS'+'
asS'ACADM'
p786
(lp787
I75724346
aI75763678
aS'+'
asS'SUCO'
p788
(lp789
I172532348
aI172611833
aS'+'
asS'SRSF4'
p790
(lp791
I29147744
aI29181900
aS'-'
asS'LOC101929721'
p792
(lp793
I49257410
aI49269294
aS'+'
asS'THEM4'
p794
(lp795
I151870866
aI151909885
aS'-'
asS'CHD1L'
p796
(lp797
I147173193
aI147295766
aS'+'
asS'C4BPA'
p798
(lp799
I207104232
aI207144972
aS'+'
asS'C4BPB'
p800
(lp801
I207088841
aI207099992
aS'+'
asS'PPM1J'
p802
(lp803
I112709993
aI112715328
aS'-'
asS'S100A14'
p804
(lp805
I153614255
aI153616325
aS'-'
asS'TMEM79'
p806
(lp807
I156282912
aI156292443
aS'+'
asS'SCARNA21B'
p808
(lp809
I15542165
aI15542304
aS'+'
asS'PRKAB2'
p810
(lp811
I147155105
aI147172589
aS'-'
asS'SIKE1'
p812
(lp813
I114769483
aI114780687
aS'-'
asS'CDK11A'
p814
(lp815
I1702383
aI1724565
aS'-'
asS'CDK11B'
p816
(lp817
I1635225
aI1659097
aS'-'
asS'PAX7'
p818
(lp819
I18631005
aI18748866
aS'+'
asS'LINC00622'
p820
(lp821
I119597701
aI119599291
aS'-'
asS'LRRC8C-DT'
p822
(lp823
I89624848
aI89632894
aS'-'
asS'KPRP'
p824
(lp825
I152758029
aI152762053
aS'+'
asS'PTPN7'
p826
(lp827
I202147012
aI202161588
aS'-'
asS'MRPL9'
p828
(lp829
I151759642
aI151763916
aS'-'
asS'DRD5P2'
p830
(lp831
I144274552
aI144276762
aS'-'
asS'PROK1'
p832
(lp833
I110451165
aI110457354
aS'+'
asS'DDR2'
p834
(lp835
I162631264
aI162786573
aS'+'
asS'LINC02609'
p836
(lp837
I90782983
aI90851638
aS'-'
asS'ATP5PB'
p838
(lp839
I111449120
aI111461903
aS'+'
asS'TPRG1L'
p840
(lp841
I3624991
aI3630130
aS'+'
asS'HIST2H3D'
p842
(lp843
I149813224
aI149813681
aS'-'
asS'TEDDM1'
p844
(lp845
I182398116
aI182400616
aS'-'
asS'HAPLN2'
p846
(lp847
I156619293
aI156625725
aS'+'
asS'LINC01142'
p848
(lp849
I170271404
aI170284208
aS'-'
asS'AGBL4'
p850
(lp851
I48532854
aI50023954
aS'-'
asS'SH2D1B'
p852
(lp853
I162395265
aI162412138
aS'-'
asS'LOC112543491'
p854
(lp855
I161135149
aI161137942
aS'+'
asS'ZP4'
p856
(lp857
I237882376
aI237890922
aS'-'
asS'MIR6738'
p858
(lp859
I155951272
aI155951336
aS'-'
asS'CCDC18-AS1'
p860
(lp861
I93310108
aI93345811
aS'-'
asS'TMCO1-AS1'
p862
(lp863
I165768928
aI165775448
aS'+'
asS'RPS8'
p864
(lp865
I44775573
aI44778740
aS'+'
asS'PGBD5'
p866
(lp867
I230321645
aI230425928
aS'-'
asS'PGBD2'
p868
(lp869
I248906242
aI248919146
aS'+'
asS'CTPS1'
p870
(lp871
I40979298
aI41012565
aS'+'
asS'LINC01717'
p872
(lp873
I208728687
aI208733184
aS'+'
asS'HPDL'
p874
(lp875
I45326872
aI45328674
aS'+'
asS'KIRREL1-IT1'
p876
(lp877
I158025549
aI158032098
aS'+'
asS'KCND3-IT1'
p878
(lp879
I111853761
aI111856905
aS'-'
asS'PPIAL4A'
p880
(lp881
I120889745
aI120890405
aS'+'
asS'TMEM201'
p882
(lp883
I9588910
aI9614877
aS'+'
asS'PPIAL4C'
p884
(lp885
I149583822
aI149584607
aS'+'
asS'MICOS10-NBL1'
p886
(lp887
I19596976
aI19658456
aS'+'
asS'PPIAL4D'
p888
(lp889
I144372874
aI144373659
aS'-'
asS'PPIAL4G'
p890
(lp891
I148482547
aI148483285
aS'-'
asS'USP1'
p892
(lp893
I62436303
aI62451804
aS'+'
asS'LINC01712'
p894
(lp895
I83446053
aI83454771
aS'+'
asS'HIST2H2AA3'
p896
(lp897
I149842217
aI149842751
aS'-'
asS'SLC6A17'
p898
(lp899
I110150493
aI110202201
aS'+'
asS'FBXO44'
p900
(lp901
I11654374
aI11663327
aS'+'
asS'HMGCS2'
p902
(lp903
I119747995
aI119768932
aS'-'
asS'ZNF326'
p904
(lp905
I89995094
aI90035530
aS'+'
asS'KIAA1324'
p906
(lp907
I109113962
aI109206781
aS'+'
asS'TSSK3'
p908
(lp909
I32362538
aI32364309
aS'+'
asS'FBXO42'
p910
(lp911
I16246839
aI16352491
aS'-'
asS'DCDC2B'
p912
(lp913
I32209093
aI32216196
aS'+'
asS'PTP4A2'
p914
(lp915
I31906420
aI31938387
aS'-'
asS'SH3BP5L'
p916
(lp917
I248810445
aI248826285
aS'-'
asS'SRM'
p918
(lp919
I11054591
aI11060034
aS'-'
asS'MIR5008'
p920
(lp921
I227941589
aI227941683
aS'-'
asS'GALE'
p922
(lp923
I23795598
aI23800804
aS'-'
asS'USF1'
p924
(lp925
I161039250
aI161045979
aS'-'
asS'LGALS8'
p926
(lp927
I236518213
aI236552979
aS'+'
asS'MIR6735'
p928
(lp929
I43448538
aI43448611
aS'+'
asS'IGSF21'
p930
(lp931
I18107745
aI18378483
aS'+'
asS'OR2T34'
p932
(lp933
I248573800
aI248574757
aS'-'
asS'LINC01655'
p934
(lp935
I221827665
aI221840666
aS'-'
asS'AKIRIN1'
p936
(lp937
I38991243
aI39006065
aS'+'
asS'LINC01653'
p938
(lp939
I218043504
aI218059140
aS'+'
asS'KCNJ9'
p940
(lp941
I160081569
aI160089422
aS'+'
asS'RPS6KC1'
p942
(lp943
I213051232
aI213274774
aS'+'
asS'MRPS14'
p944
(lp945
I175012957
aI175023455
aS'-'
asS'SPATA45'
p946
(lp947
I212830142
aI212847649
aS'-'
asS'MIR181B1'
p948
(lp949
I198858872
aI198858982
aS'-'
asS'VAV3-AS1'
p950
(lp951
I107964442
aI107994607
aS'+'
asS'LINC01719'
p952
(lp953
I146052595
aI146058799
aS'+'
asS'LSP1P5'
p954
(lp955
I144227028
aI144250297
aS'-'
asS'ASAP3'
p956
(lp957
I23428562
aI23484257
aS'-'
asS'CAMK1G'
p958
(lp959
I209583699
aI209613939
aS'+'
asS'SNORA59A'
p960
(lp961
I12507245
aI12507397
aS'+'
asS'ECM1'
p962
(lp963
I150508010
aI150513789
aS'+'
asS'SNORA59B'
p964
(lp965
I12507245
aI12507397
aS'+'
asS'LOR'
p966
(lp967
I153259686
aI153262124
aS'+'
asS'KIAA1522'
p968
(lp969
I32741910
aI32774970
aS'+'
asS'SNORA110'
p970
(lp971
I44252343
aI44252559
aS'-'
asS'LPGAT1'
p972
(lp973
I211743456
aI211830772
aS'-'
asS'MIR4735'
p974
(lp975
I196582412
aI196582481
aS'-'
asS'PEX14'
p976
(lp977
I10474945
aI10630761
aS'+'
asS'TIMM17A'
p978
(lp979
I201955490
aI201970661
aS'+'
asS'CATSPER4'
p980
(lp981
I26190627
aI26202542
aS'+'
asS'LOC102723833'
p982
(lp983
I216072464
aI216086917
aS'+'
asS'LYPD8'
p984
(lp985
I248739415
aI248755787
aS'-'
asS'RPL22'
p986
(lp987
I6185019
aI6199619
aS'-'
asS'RGS4'
p988
(lp989
I163068605
aI163076802
aS'+'
asS'RGS5'
p990
(lp991
I163142298
aI163321791
aS'-'
asS'RGS7'
p992
(lp993
I240775513
aI241357230
aS'-'
asS'RGS1'
p994
(lp995
I192575772
aI192580024
aS'+'
asS'RGS2'
p996
(lp997
I192809038
aI192812277
aS'+'
asS'RGS8'
p998
(lp999
I182641813
aI182672932
aS'-'
asS'EYA3'
p1000
(lp1001
I27970343
aI28088637
aS'-'
asS'INAVA'
p1002
(lp1003
I200891530
aI200915742
aS'+'
asS'PIGC'
p1004
(lp1005
I172441456
aI172444090
aS'-'
asS'PIGK'
p1006
(lp1007
I77088981
aI77219447
aS'-'
asS'PIGM'
p1008
(lp1009
I160027671
aI160031993
aS'-'
asS'PIGR'
p1010
(lp1011
I206928521
aI206946466
aS'-'
asS'LINC01788'
p1012
(lp1013
I70706452
aI70786468
aS'+'
asS'PIGV'
p1014
(lp1015
I26787962
aI26798403
aS'+'
asS'CATSPERE'
p1016
(lp1017
I244461370
aI244640360
aS'+'
asS'LINC01787'
p1018
(lp1019
I96254068
aI96374125
aS'-'
asS'LINC01781'
p1020
(lp1021
I80535754
aI80646788
aS'+'
asS'LINC01780'
p1022
(lp1023
I119328251
aI119356182
aS'+'
asS'LINC01783'
p1024
(lp1025
I16533890
aI16535652
aS'-'
asS'MFSD4A-AS1'
p1026
(lp1027
I205554271
aI205569305
aS'-'
asS'ADAMTSL4-AS1'
p1028
(lp1029
I150560894
aI150574552
aS'-'
asS'LOC644634'
p1030
(lp1031
I143793599
aI143797107
aS'+'
asS'SRRM1'
p1032
(lp1033
I24643102
aI24673281
aS'+'
asS'OAZ3'
p1034
(lp1035
I151762968
aI151771330
aS'+'
asS'KANK4'
p1036
(lp1037
I62236164
aI62319414
aS'-'
asS'AURKAP1'
p1038
(lp1039
I220266178
aI220267715
aS'-'
asS'LOC100506571'
p1040
(lp1041
I228073908
aI228076550
aS'-'
asS'LOC101929464'
p1042
(lp1043
I33350351
aI33363245
aS'+'
asS'ALPL'
p1044
(lp1045
I21509357
aI21578412
aS'+'
asS'TM2D1'
p1046
(lp1047
I61681046
aI61725423
aS'-'
asS'LCE5A'
p1048
(lp1049
I152510843
aI152512177
aS'+'
asS'LOC110117498'
p1050
(lp1051
I46175485
aI46176495
aS'-'
asS'CCN1'
p1052
(lp1053
I85580760
aI85583965
aS'+'
asS'SRP9'
p1054
(lp1055
I225777812
aI225790466
aS'+'
asS'SNORA63C'
p1056
(lp1057
I36418447
aI36418578
aS'-'
asS'FAM71A'
p1058
(lp1059
I212624446
aI212626778
aS'+'
asS'IGFN1'
p1060
(lp1061
I201190824
aI201228952
aS'+'
asS'SMAP2'
p1062
(lp1063
I40373705
aI40423326
aS'+'
asS'NUP133'
p1064
(lp1065
I229441296
aI229508341
aS'-'
asS'TRMT1L'
p1066
(lp1067
I185118085
aI185157098
aS'-'
asS'NTRK1'
p1068
(lp1069
I156815749
aI156881850
aS'+'
asS'RSBN1'
p1070
(lp1071
I113761831
aI113812476
aS'-'
asS'DVL1'
p1072
(lp1073
I1335277
aI1349112
aS'-'
asS'LOC101927844'
p1074
(lp1075
I87212668
aI87251331
aS'+'
asS'EVI5'
p1076
(lp1077
I92508695
aI92792404
aS'-'
asS'LINC01657'
p1078
(lp1079
I175877342
aI175880464
aS'+'
asS'ARHGAP29'
p1080
(lp1081
I94168906
aI94247760
aS'-'
asS'LINC01654'
p1082
(lp1083
I18065656
aI18074411
aS'+'
asS'ZSCAN20'
p1084
(lp1085
I33472630
aI33496395
aS'+'
asS'LINC01650'
p1086
(lp1087
I95351250
aI95352107
aS'-'
asS'HHAT'
p1088
(lp1089
I210328251
aI210676296
aS'+'
asS'RIIAD1'
p1090
(lp1091
I151721521
aI151729606
aS'+'
asS'MYSM1'
p1092
(lp1093
I58654738
aI58700075
aS'-'
asS'RBP7'
p1094
(lp1095
I9997196
aI10016020
aS'+'
asS'SSBP3-AS1'
p1096
(lp1097
I54236442
aI54239063
aS'+'
asS'EPRS'
p1098
(lp1099
I219968599
aI220046658
aS'-'
asS'UBR4'
p1100
(lp1101
I19074505
aI19210252
aS'-'
asS'GPR3'
p1102
(lp1103
I27392643
aI27395813
aS'+'
asS'FCRL4'
p1104
(lp1105
I157573747
aI157598085
aS'-'
asS'SLC44A3-AS1'
p1106
(lp1107
I94657532
aI94820281
aS'-'
asS'EIF4G3'
p1108
(lp1109
I20806291
aI21176888
aS'-'
asS'C1orf35'
p1110
(lp1111
I228100726
aI228103462
aS'-'
asS'SWT1'
p1112
(lp1113
I185157059
aI185291781
aS'+'
asS'NR1I3'
p1114
(lp1115
I161229665
aI161238210
aS'-'
asS'DR1'
p1116
(lp1117
I93345920
aI93362591
aS'+'
asS'LOC101927604'
p1118
(lp1119
I230874845
aI230879015
aS'+'
asS'VPS72'
p1120
(lp1121
I151176299
aI151190213
aS'-'
asS'MATN1'
p1122
(lp1123
I30711276
aI30723585
aS'-'
asS'TRIM33'
p1124
(lp1125
I114392792
aI114511203
aS'-'
asS'RPL5'
p1126
(lp1127
I92831985
aI92841924
aS'+'
asS'RASSF5'
p1128
(lp1129
I206507529
aI206589284
aS'+'
asS'FAM87B'
p1130
(lp1131
I817370
aI819834
aS'+'
asS'LYSMD1'
p1132
(lp1133
I151159747
aI151165948
aS'-'
asS'OR4F3'
p1134
(lp1135
I450739
aI451678
aS'-'
asS'LINC01698'
p1136
(lp1137
I209372054
aI209379690
aS'+'
asS'CHD5'
p1138
(lp1139
I6101786
aI6180321
aS'-'
asS'OR4F5'
p1140
(lp1141
I69090
aI70008
aS'+'
asS'CCDC185'
p1142
(lp1143
I223393372
aI223395470
aS'+'
asS'CAP1'
p1144
(lp1145
I40040064
aI40072649
aS'+'
asS'CHML'
p1146
(lp1147
I241628864
aI241635930
aS'-'
asS'ERMAP'
p1148
(lp1149
I42817121
aI42844991
aS'+'
asS'IL22RA1'
p1150
(lp1151
I24119770
aI24143285
aS'-'
asS'TTC4'
p1152
(lp1153
I54715821
aI54742655
aS'+'
asS'RAB3GAP2'
p1154
(lp1155
I220148267
aI220272501
aS'-'
asS'MIR6079'
p1156
(lp1157
I43838621
aI43838683
aS'+'
asS'FPGT-TNNI3K'
p1158
(lp1159
I74198211
aI74544432
aS'+'
asS'RNU1-2'
p1160
(lp1161
I16514121
aI16514285
aS'-'
asS'RNU1-1'
p1162
(lp1163
I16514121
aI16514285
aS'-'
asS'MIR6077'
p1164
(lp1165
I148388281
aI148388363
aS'+'
asS'RHOU'
p1166
(lp1167
I228644646
aI228746669
aS'+'
asS'RNU1-4'
p1168
(lp1169
I16514121
aI16514285
aS'-'
asS'RNVU1-17'
p1170
(lp1171
I143699455
aI143699619
aS'-'
asS'RNVU1-14'
p1172
(lp1173
I145281115
aI145281279
aS'+'
asS'RNVU1-15'
p1174
(lp1175
I144412575
aI144412740
aS'+'
asS'RNVU1-11'
p1176
(lp1177
I144551778
aI144551943
aS'-'
asS'RHOC'
p1178
(lp1179
I112701126
aI112707403
aS'-'
asS'AKR7A2'
p1180
(lp1181
I19302707
aI19312146
aS'-'
asS'AKR7A3'
p1182
(lp1183
I19282562
aI19288786
aS'-'
asS'RNVU1-18'
p1184
(lp1185
I16514121
aI16514285
aS'-'
asS'RNVU1-19'
p1186
(lp1187
I120850818
aI120850985
aS'-'
asS'PRDM16'
p1188
(lp1189
I3069177
aI3438621
aS'+'
asS'FCGR1CP'
p1190
(lp1191
I143874742
aI143883733
aS'+'
asS'LRIG2'
p1192
(lp1193
I113073169
aI113125202
aS'+'
asS'TMEM61'
p1194
(lp1195
I54980663
aI54992293
aS'+'
asS'MPL'
p1196
(lp1197
I43337803
aI43354464
aS'+'
asS'TMEM69'
p1198
(lp1199
I45688180
aI45694436
aS'+'
asS'PADI2'
p1200
(lp1201
I17066760
aI17119453
aS'-'
asS'AGO4'
p1202
(lp1203
I35807623
aI35857889
aS'+'
asS'AGO1'
p1204
(lp1205
I35869807
aI35924298
aS'+'
asS'AGO3'
p1206
(lp1207
I35931081
aI36056462
aS'+'
asS'KDM1A'
p1208
(lp1209
I23019447
aI23083691
aS'+'
asS'MIR1182'
p1210
(lp1211
I231019827
aI231019924
aS'-'
asS'OR4F29'
p1212
(lp1213
I450739
aI451678
aS'-'
asS'SRGAP2D'
p1214
(lp1215
I143972638
aI144069704
aS'+'
asS'OPN3'
p1216
(lp1217
I241593149
aI241640399
aS'-'
asS'LMNA'
p1218
(lp1219
I156082545
aI156137866
aS'+'
asS'SRGAP2B'
p1220
(lp1221
I144887190
aI145095316
aS'-'
asS'SRGAP2C'
p1222
(lp1223
I121184966
aI121392874
aS'+'
asS'FCER1G'
p1224
(lp1225
I161215294
aI161219245
aS'+'
asS'FCER1A'
p1226
(lp1227
I159289713
aI159308224
aS'+'
asS'BTG2'
p1228
(lp1229
I203305535
aI203309601
aS'+'
asS'PM20D1'
p1230
(lp1231
I205828021
aI205850148
aS'-'
asS'GPN2'
p1232
(lp1233
I26879381
aI26890378
aS'-'
asS'NECTIN4'
p1234
(lp1235
I161070990
aI161089595
aS'-'
asS'DHCR24'
p1236
(lp1237
I54849626
aI54887195
aS'-'
asS'SEC22B2'
p1238
(lp1239
I149338282
aI149363915
aS'+'
asS'SEC22B3'
p1240
(lp1241
I149338282
aI149363915
aS'+'
asS'ASH1L'
p1242
(lp1243
I155335260
aI155562803
aS'-'
asS'LOC101927342'
p1244
(lp1245
I76011323
aI76019356
aS'+'
asS'LOC101928009'
p1246
(lp1247
I153174517
aI153191676
aS'+'
asS'MROH3P'
p1248
(lp1249
I200928943
aI200966668
aS'+'
asS'PDZK1P1'
p1250
(lp1251
I147993861
aI148014956
aS'-'
asS'CORT'
p1252
(lp1253
I10449718
aI10452003
aS'+'
asS'DDX20'
p1254
(lp1255
I111755567
aI111767577
aS'+'
asS'RNA5S9'
p1256
(lp1257
I228628145
aI228628266
aS'-'
asS'RNA5S8'
p1258
(lp1259
I228610265
aI228610386
aS'-'
asS'RNA5S5'
p1260
(lp1261
I228610265
aI228610386
aS'-'
asS'RNA5S4'
p1262
(lp1263
I228610265
aI228610386
aS'-'
asS'RNA5S7'
p1264
(lp1265
I228610265
aI228610386
aS'-'
asS'RNA5S6'
p1266
(lp1267
I228610265
aI228610386
aS'-'
asS'RNA5S1'
p1268
(lp1269
I228610265
aI228610386
aS'-'
asS'PROX1'
p1270
(lp1271
I213987934
aI214041504
aS'+'
asS'RNA5S3'
p1272
(lp1273
I228610265
aI228610386
aS'-'
asS'RNA5S2'
p1274
(lp1275
I228610265
aI228610386
aS'-'
asS'SRARP'
p1276
(lp1277
I16004235
aI16006695
aS'+'
asS'NUP210L'
p1278
(lp1279
I153992691
aI154155116
aS'-'
asS'LOC101928120'
p1280
(lp1281
I154961470
aI154962625
aS'+'
asS'GJC2'
p1282
(lp1283
I228149713
aI228159826
aS'+'
asS'PIAS3'
p1284
(lp1285
I145848521
aI145859081
aS'-'
asS'S100A3'
p1286
(lp1287
I153547332
aI153549258
aS'-'
asS'PRKACB'
p1288
(lp1289
I84077974
aI84238498
aS'+'
asS'TMEM234'
p1290
(lp1291
I32214476
aI32222371
aS'-'
asS'ACBD3-AS1'
p1292
(lp1293
I226148002
aI226154977
aS'+'
asS'MRTO4'
p1294
(lp1295
I19251580
aI19260128
aS'+'
asS'PSMB2'
p1296
(lp1297
I35599540
aI35641551
aS'-'
asS'SSU72'
p1298
(lp1299
I1541672
aI1574882
aS'-'
asS'TEX38'
p1300
(lp1301
I46671832
aI46673584
aS'+'
asS'OR2L2'
p1302
(lp1303
I248038171
aI248039305
aS'+'
asS'LINC01307'
p1304
(lp1305
I101323836
aI101377313
aS'+'
asS'PIFO'
p1306
(lp1307
I111346559
aI111353017
aS'+'
asS'TEX35'
p1308
(lp1309
I178513076
aI178523500
aS'+'
asS'GNAT2'
p1310
(lp1311
I109603266
aI109613083
aS'-'
asS'NGF-AS1'
p1312
(lp1313
I115283033
aI115368072
aS'+'
asS'CIART'
p1314
(lp1315
I150282532
aI150287092
aS'+'
asS'TMIGD3'
p1316
(lp1317
I111483347
aI111564003
aS'-'
asS'SNORA16A'
p1318
(lp1319
I28580919
aI28581053
aS'-'
asS'KCNK2'
p1320
(lp1321
I215005541
aI215237093
aS'+'
asS'OR6K3'
p1322
(lp1323
I158717167
aI158718115
aS'-'
asS'STPG1'
p1324
(lp1325
I24356998
aI24415097
aS'-'
asS'OR6K2'
p1326
(lp1327
I158699578
aI158700696
aS'-'
asS'VPS13D'
p1328
(lp1329
I12230029
aI12512046
aS'+'
asS'HSD11B1'
p1330
(lp1331
I209686179
aI209734950
aS'+'
asS'TRAF5'
p1332
(lp1333
I211326614
aI211374944
aS'+'
asS'RERE-AS1'
p1334
(lp1335
I8424644
aI8435016
aS'+'
asS'LPGAT1-AS1'
p1336
(lp1337
I211830960
aI211853703
aS'+'
asS'HOOK1'
p1338
(lp1339
I59814860
aI59876378
aS'+'
asS'LRRC52'
p1340
(lp1341
I165544240
aI165563948
aS'+'
asS'LRRC53'
p1342
(lp1343
I74468979
aI74512614
aS'-'
asS'DENND1B'
p1344
(lp1345
I197504748
aI197775493
aS'-'
asS'LEMD1-AS1'
p1346
(lp1347
I205373251
aI205387440
aS'+'
asS'CAMTA1-DT'
p1348
(lp1349
I6783891
aI6784980
aS'-'
asS'PRAMEF33'
p1350
(lp1351
I13303538
aI13308907
aS'+'
asS'PMVK'
p1352
(lp1353
I154924731
aI154942689
aS'-'
asS'CD101'
p1354
(lp1355
I117001749
aI117036551
aS'+'
asS'TARBP1'
p1356
(lp1357
I234391312
aI234479103
aS'-'
asS'MIR29B2CHG'
p1358
(lp1359
I207801517
aI207822703
aS'-'
asS'KLHDC8A'
p1360
(lp1361
I205336064
aI205357090
aS'-'
asS'SDHC'
p1362
(lp1363
I161314375
aI161364745
aS'+'
asS'ATF6'
p1364
(lp1365
I161766243
aI161964070
aS'+'
asS'ATF3'
p1366
(lp1367
I212565333
aI212620777
aS'+'
asS'ERRFI1'
p1368
(lp1369
I8011718
aI8026333
aS'-'
asS'IFFO2'
p1370
(lp1371
I18904279
aI18956332
aS'-'
asS'ZCCHC17'
p1372
(lp1373
I31296981
aI31364953
aS'+'
asS'TMCO1'
p1374
(lp1375
I165724290
aI165768922
aS'-'
asS'TMCO2'
p1376
(lp1377
I40247900
aI40251693
aS'+'
asS'TMCO4'
p1378
(lp1379
I19682212
aI19800021
aS'-'
asS'LOC400743'
p1380
(lp1381
I17189788
aI17196387
aS'+'
asS'SMG5'
p1382
(lp1383
I156249223
aI156291498
aS'-'
asS'SMG7'
p1384
(lp1385
I183472370
aI183554193
aS'+'
asS'SDF4'
p1386
(lp1387
I1216907
aI1232067
aS'-'
asS'LHX4'
p1388
(lp1389
I180230297
aI180275053
aS'+'
asS'SAMD13'
p1390
(lp1391
I84298365
aI84350798
aS'+'
asS'CDC73'
p1392
(lp1393
I193121957
aI193254812
aS'+'
asS'LHX8'
p1394
(lp1395
I75128433
aI75161533
aS'+'
asS'LHX9'
p1396
(lp1397
I197912504
aI197930143
aS'+'
asS'MIB2'
p1398
(lp1399
I1615414
aI1630610
aS'+'
asS'PTGER3'
p1400
(lp1401
I70852352
aI71047808
aS'-'
asS'MIR4671'
p1402
(lp1403
I234306466
aI234306539
aS'+'
asS'METTL18'
p1404
(lp1405
I169792531
aI169794976
aS'-'
asS'A3GALT2'
p1406
(lp1407
I33306765
aI33321098
aS'-'
asS'NPR1'
p1408
(lp1409
I153678687
aI153693992
aS'+'
asS'B3GALT6'
p1410
(lp1411
I1232236
aI1235040
aS'+'
asS'ZMYM1'
p1412
(lp1413
I35059785
aI35115858
aS'+'
asS'ZMYM6'
p1414
(lp1415
I34986165
aI35031968
aS'-'
asS'ZMYM4'
p1416
(lp1417
I35268966
aI35421944
aS'+'
asS'SLC45A1'
p1418
(lp1419
I8318084
aI8344167
aS'+'
asS'SLC45A3'
p1420
(lp1421
I205657852
aI205680502
aS'-'
asS'C1orf131'
p1422
(lp1423
I231223762
aI231241187
aS'-'
asS'OSBPL9'
p1424
(lp1425
I51616873
aI51789219
aS'+'
asS'LOC100129534'
p1426
(lp1427
I2350414
aI2352661
aS'-'
asS'CSF3R'
p1428
(lp1429
I36466042
aI36483314
aS'-'
asS'COQ8A'
p1430
(lp1431
I226940236
aI226987545
aS'+'
asS'LOC110117498-PIK3R3'
p1432
(lp1433
I46040139
aI46176495
aS'-'
asS'UBE4B'
p1434
(lp1435
I10032982
aI10181238
aS'+'
asS'HCN3'
p1436
(lp1437
I155277426
aI155289848
aS'+'
asS'PHTF1'
p1438
(lp1439
I113697204
aI113759888
aS'-'
asS'LOC101927851'
p1440
(lp1441
I234957342
aI234963999
aS'-'
asS'ZBTB37'
p1442
(lp1443
I173868081
aI173886636
aS'+'
asS'LINC01646'
p1444
(lp1445
I4571486
aI4583704
aS'+'
asS'LINC01647'
p1446
(lp1447
I11609530
aI11613354
aS'+'
asS'LINC01648'
p1448
(lp1449
I30013951
aI30037612
aS'-'
asS'LINC01649'
p1450
(lp1451
I115919375
aI115925908
aS'+'
asS'YBX1'
p1452
(lp1453
I42682234
aI42703803
aS'+'
asS'CAPZB'
p1454
(lp1455
I19338772
aI19485641
aS'-'
asS'CD1D'
p1456
(lp1457
I158179946
aI158186426
aS'+'
asS'CD1E'
p1458
(lp1459
I158353695
aI158357553
aS'+'
asS'CD1B'
p1460
(lp1461
I158327949
aI158331531
aS'-'
asS'CD1C'
p1462
(lp1463
I158289772
aI158294774
aS'+'
asS'CD1A'
p1464
(lp1465
I158248328
aI158258268
aS'+'
asS'NUAK2'
p1466
(lp1467
I205302062
aI205321791
aS'-'
asS'CELF3'
p1468
(lp1469
I151700057
aI151716820
aS'-'
asS'LINC01350'
p1470
(lp1471
I185558379
aI185628488
aS'-'
asS'C1orf21'
p1472
(lp1473
I184387015
aI184629021
aS'+'
asS'GPR137B'
p1474
(lp1475
I236142531
aI236208909
aS'+'
asS'ERICH3-AS1'
p1476
(lp1477
I74577429
aI74626098
aS'+'
asS'OVGP1'
p1478
(lp1479
I111414314
aI111427777
aS'-'
asS'WDR47'
p1480
(lp1481
I108970215
aI109042228
aS'-'
asS'GTF2B'
p1482
(lp1483
I88852632
aI88891567
aS'-'
asS'RNU1-3'
p1484
(lp1485
I16514121
aI16514285
aS'-'
asS'TNFRSF8'
p1486
(lp1487
I12063302
aI12144207
aS'+'
asS'TNFRSF9'
p1488
(lp1489
I7915870
aI7943165
aS'-'
asS'H3F3A'
p1490
(lp1491
I226062706
aI226072002
aS'+'
asS'JAK1'
p1492
(lp1493
I64833222
aI65067746
aS'-'
asS'TNFRSF4'
p1494
(lp1495
I1211325
aI1214168
aS'-'
asS'LOC102725193'
p1496
(lp1497
I7382486
aI7389754
aS'-'
asS'ATP1A2'
p1498
(lp1499
I160115729
aI160143584
aS'+'
asS'TXNDC12-AS1'
p1500
(lp1501
I52050917
aI52052683
aS'+'
asS'HIST2H3PS2'
p1502
(lp1503
I143897845
aI143905974
aS'-'
asS'UAP1'
p1504
(lp1505
I162561439
aI162599843
aS'+'
asS'LOC101928696'
p1506
(lp1507
I174934946
aI174954261
aS'-'
asS'GLMP'
p1508
(lp1509
I156292686
aI156295689
aS'-'
asS'UCK2'
p1510
(lp1511
I165827494
aI165911618
aS'+'
asS'LOC101928596'
p1512
(lp1513
I169104123
aI169104906
aS'+'
asS'LINGO4'
p1514
(lp1515
I151800264
aI151805442
aS'-'
asS'ARPC5'
p1516
(lp1517
I183626192
aI183635941
aS'-'
asS'MIR190B'
p1518
(lp1519
I154193664
aI154193743
aS'-'
asS'GLMN'
p1520
(lp1521
I92246397
aI92299009
aS'-'
asS'DNAJC8'
p1522
(lp1523
I28200278
aI28233031
aS'-'
asS'VASH2'
p1524
(lp1525
I212950519
aI212991585
aS'+'
asS'CAMSAP2'
p1526
(lp1527
I200739557
aI200860707
aS'+'
asS'DNAJC6'
p1528
(lp1529
I65264693
aI65415869
aS'+'
asS'TTC34'
p1530
(lp1531
I2641268
aI2800868
aS'-'
asS'SORT1'
p1532
(lp1533
I109309565
aI109397945
aS'-'
asS'PTPRVP'
p1534
(lp1535
I202168050
aI202189449
aS'+'
asS'RNVU1-3'
p1536
(lp1537
I148402714
aI148402875
aS'+'
asS'TFB2M'
p1538
(lp1539
I246540560
aI246566261
aS'-'
asS'RRP15'
p1540
(lp1541
I218285286
aI218337983
aS'+'
asS'ACP6'
p1542
(lp1543
I147647365
aI147670543
aS'-'
asS'SDCCAG8'
p1544
(lp1545
I243256004
aI243500092
aS'+'
asS'MIR197'
p1546
(lp1547
I109598892
aI109598967
aS'+'
asS'SNIP1'
p1548
(lp1549
I37534448
aI37554344
aS'-'
asS'LOC339529'
p1550
(lp1551
I243917401
aI244047318
aS'+'
asS'RAP1A'
p1552
(lp1553
I111619782
aI111716695
aS'+'
asS'SNORD46'
p1554
(lp1555
I44776491
aI44776589
aS'+'
asS'ANKRD35'
p1556
(lp1557
I145866559
aI145885866
aS'-'
asS'DYRK3'
p1558
(lp1559
I206635535
aI206649197
aS'+'
asS'SNORA66'
p1560
(lp1561
I92840718
aI92840851
aS'+'
asS'SNORA61'
p1562
(lp1563
I28579763
aI28579893
aS'-'
asS'LRIF1'
p1564
(lp1565
I110947189
aI110963944
aS'-'
asS'OXCT2P1'
p1566
(lp1567
I39514865
aI39516669
aS'+'
asS'CTXND2'
p1568
(lp1569
I150887252
aI150912512
aS'+'
asS'LINC02238'
p1570
(lp1571
I73674678
aI73738642
aS'+'
asS'MECR'
p1572
(lp1573
I29192656
aI29230958
aS'-'
asS'OR2AK2'
p1574
(lp1575
I247965331
aI247966339
aS'+'
asS'RIMS3'
p1576
(lp1577
I40620679
aI40665682
aS'-'
asS'OR4F16'
p1578
(lp1579
I450739
aI451678
aS'-'
asS'LOC100996724'
p1580
(lp1581
I120469629
aI120665436
aS'-'
asS'RCAN3AS'
p1582
(lp1583
I24496253
aI24502382
aS'-'
asS'GCSAML'
p1584
(lp1585
I247507057
aI247577690
aS'+'
asS'CFAP126'
p1586
(lp1587
I161364730
aI161367883
aS'-'
asS'ST7L'
p1588
(lp1589
I112523518
aI112619418
aS'-'
asS'AADACL4'
p1590
(lp1591
I12644546
aI12667086
aS'+'
asS'AADACL3'
p1592
(lp1593
I12716109
aI12728760
aS'+'
asS'PGLYRP3'
p1594
(lp1595
I153297861
aI153310718
aS'-'
asS'CAPZA1'
p1596
(lp1597
I112619452
aI112671619
aS'+'
asS'AK2'
p1598
(lp1599
I33007939
aI33036911
aS'-'
asS'TBCE'
p1600
(lp1601
I235367359
aI235448968
aS'+'
asS'LMO4'
p1602
(lp1603
I87328467
aI87348923
aS'+'
asS'TMEM81'
p1604
(lp1605
I205083128
aI205084460
aS'-'
asS'AK5'
p1606
(lp1607
I77281976
aI77559969
aS'+'
asS'SPAG17'
p1608
(lp1609
I117953594
aI118185269
aS'-'
asS'POMGNT1'
p1610
(lp1611
I46188680
aI46220305
aS'-'
asS'SARS'
p1612
(lp1613
I109213892
aI109238182
aS'+'
asS'INKA2-AS1'
p1614
(lp1615
I111739840
aI111747798
aS'+'
asS'FMO2'
p1616
(lp1617
I171185207
aI171212683
aS'+'
asS'ODR4'
p1618
(lp1619
I186375757
aI186421371
aS'+'
asS'ZNF496'
p1620
(lp1621
I247297412
aI247331940
aS'-'
asS'ATPAF1'
p1622
(lp1623
I46635038
aI46668427
aS'-'
asS'SNORD3G'
p1624
(lp1625
I90657749
aI90657963
aS'+'
asS'MIR6859-4'
p1626
(lp1627
I17368
aI17436
aS'-'
asS'MIR6859-2'
p1628
(lp1629
I17368
aI17436
aS'-'
asS'MIR6859-3'
p1630
(lp1631
I17368
aI17436
aS'-'
asS'MIR1231'
p1632
(lp1633
I201808610
aI201808702
aS'+'
asS'MIR6859-1'
p1634
(lp1635
I17368
aI17436
aS'-'
asS'CDK18'
p1636
(lp1637
I205504555
aI205532793
aS'+'
asS'ZNF124'
p1638
(lp1639
I247121974
aI247172017
aS'-'
asS'GJB3'
p1640
(lp1641
I34781213
aI34786364
aS'+'
asS'GJB5'
p1642
(lp1643
I34755046
aI34758512
aS'+'
asS'GJB4'
p1644
(lp1645
I34759740
aI34763724
aS'+'
asS'SELENON'
p1646
(lp1647
I25800175
aI25818222
aS'+'
asS'RNU5D-1'
p1648
(lp1649
I44731068
aI44731168
aS'-'
asS'TMEM222'
p1650
(lp1651
I27322144
aI27336400
aS'+'
asS'ZNF436-AS1'
p1652
(lp1653
I23368970
aI23371837
aS'+'
asS'NOS1AP'
p1654
(lp1655
I162069790
aI162370023
aS'+'
asS'SELENOF'
p1656
(lp1657
I86862444
aI86914577
aS'-'
asS'HEATR1'
p1658
(lp1659
I236549004
aI236604541
aS'-'
asS'FAM189B'
p1660
(lp1661
I155247204
aI155255483
aS'-'
asS'UBE2Q1-AS1'
p1662
(lp1663
I154553608
aI154555028
aS'+'
asS'CTSE'
p1664
(lp1665
I206009263
aI206023909
aS'-'
asS'BATF3'
p1666
(lp1667
I212686416
aI212699985
aS'-'
asS'KLHDC7A'
p1668
(lp1669
I18480929
aI18485986
aS'+'
asS'DEDD'
p1670
(lp1671
I161120977
aI161132688
aS'-'
asS'MEX3A'
p1672
(lp1673
I156072012
aI156081998
aS'-'
asS'SERTAD4-AS1'
p1674
(lp1675
I210231455
aI210233885
aS'-'
asS'MIR5698'
p1676
(lp1677
I154104520
aI154104592
aS'-'
asS'MPZ'
p1678
(lp1679
I161304734
aI161309972
aS'-'
asS'FCGR1A'
p1680
(lp1681
I149782693
aI149792518
aS'+'
asS'GAS5-AS1'
p1682
(lp1683
I173863247
aI173863941
aS'+'
asS'ITLN2'
p1684
(lp1685
I160945025
aI160954799
aS'-'
asS'LOC101928226'
p1686
(lp1687
I248697061
aI248699110
aS'+'
asS'ITLN1'
p1688
(lp1689
I160876539
aI160885170
aS'-'
asS'HIST3H2A'
p1690
(lp1691
I228457363
aI228457859
aS'-'
asS'CTNNBIP1'
p1692
(lp1693
I9848275
aI9910258
aS'-'
asS'SLC1A7'
p1694
(lp1695
I53087178
aI53142632
aS'-'
asS'FUCA1'
p1696
(lp1697
I23845080
aI23868369
aS'-'
asS'DLEU2L'
p1698
(lp1699
I63548979
aI63550636
aS'+'
asS'MIR4753'
p1700
(lp1701
I235190033
aI235190116
aS'-'
asS'CLCA3P'
p1702
(lp1703
I86634275
aI86655376
aS'+'
asS'PEAR1'
p1704
(lp1705
I156893697
aI156916428
aS'+'
asS'MGC27382'
p1706
(lp1707
I78229598
aI78369462
aS'+'
asS'LRRC41'
p1708
(lp1709
I46278399
aI46303366
aS'-'
asS'HSD11B1-AS1'
p1710
(lp1711
I209661358
aI209742562
aS'-'
asS'LRRC42'
p1712
(lp1713
I53946325
aI53968168
aS'+'
asS'MMP23B'
p1714
(lp1715
I1632180
aI1634654
aS'+'
asS'LRRC47'
p1716
(lp1717
I3780219
aI3796504
aS'-'
asS'IKBKE'
p1718
(lp1719
I206470242
aI206496890
aS'+'
asS'CLSTN1'
p1720
(lp1721
I9729020
aI9824526
aS'-'
asS'UBXN10'
p1722
(lp1723
I20186095
aI20196050
aS'+'
asS'UBXN11'
p1724
(lp1725
I26282281
aI26318265
aS'-'
asS'GNL2'
p1726
(lp1727
I37566811
aI37595985
aS'-'
asS'IFNLR1'
p1728
(lp1729
I24154156
aI24187275
aS'-'
asS'FAM163A'
p1730
(lp1731
I179727762
aI179816198
aS'+'
asS'PEA15'
p1732
(lp1733
I160205318
aI160215376
aS'+'
asS'PRAMEF22'
p1734
(lp1735
I13223331
aI13226112
aS'-'
asS'PRAMEF20'
p1736
(lp1737
I13410449
aI13421328
aS'+'
asS'PRAMEF27'
p1738
(lp1739
I13049807
aI13053659
aS'-'
asS'DHRS3'
p1740
(lp1741
I12567909
aI12618210
aS'-'
asS'PRAMEF25'
p1742
(lp1743
I13073677
aI13078038
aS'+'
asS'LRRC71'
p1744
(lp1745
I156920631
aI156933088
aS'+'
asS'MAN1A2'
p1746
(lp1747
I117367448
aI117528870
aS'+'
asS'LINC02474'
p1748
(lp1749
I221966409
aI221984964
aS'+'
asS'RABIF'
p1750
(lp1751
I202878281
aI202889257
aS'-'
asS'CDKN2C'
p1752
(lp1753
I50968694
aI50974634
aS'+'
asS'CCNL2'
p1754
(lp1755
I1385710
aI1399342
aS'-'
asS'PSRC1'
p1756
(lp1757
I109279553
aI109283168
aS'-'
asS'SNORD128'
p1758
(lp1759
I8494799
aI8494913
aS'-'
asS'GUK1'
p1760
(lp1761
I228140083
aI228148954
aS'+'
asS'EDEM3'
p1762
(lp1763
I184690490
aI184754907
aS'-'
asS'PHGDH'
p1764
(lp1765
I119711795
aI119744226
aS'+'
asS'WRAP73'
p1766
(lp1767
I3630769
aI3650103
aS'-'
asS'TUFT1'
p1768
(lp1769
I151540304
aI151583583
aS'+'
asS'SDE2'
p1770
(lp1771
I225982701
aI225999365
aS'-'
asS'LELP1'
p1772
(lp1773
I153203429
aI153205125
aS'+'
asS'LINC01525'
p1774
(lp1775
I117295465
aI117321336
aS'+'
asS'SLC2A7'
p1776
(lp1777
I9003299
aI9026345
aS'-'
asS'SYT2'
p1778
(lp1779
I202590596
aI202710423
aS'-'
asS'SLC2A1'
p1780
(lp1781
I42925374
aI42958868
aS'-'
asS'TAS1R1'
p1782
(lp1783
I6555277
aI6579757
aS'+'
asS'TAS1R3'
p1784
(lp1785
I1331345
aI1335320
aS'+'
asS'TAS1R2'
p1786
(lp1787
I18839598
aI18859661
aS'-'
asS'MIR8083'
p1788
(lp1789
I153689704
aI153689793
aS'-'
asS'RHD'
p1790
(lp1791
I25272485
aI25330445
aS'+'
asS'OR6F1'
p1792
(lp1793
I247711828
aI247712755
aS'-'
asS'SYF2'
p1794
(lp1795
I25222275
aI25232522
aS'-'
asS'TNFAIP8L2'
p1796
(lp1797
I151156628
aI151159749
aS'+'
asS'CCSAP'
p1798
(lp1799
I229321004
aI229342941
aS'-'
asS'C1orf112'
p1800
(lp1801
I169795039
aI169854079
aS'+'
asS'FUBP1'
p1802
(lp1803
I77944050
aI77979205
aS'-'
asS'LOC100133331'
p1804
(lp1805
I725758
aI730351
aS'-'
asS'SNORA77'
p1806
(lp1807
I203729580
aI203729705
aS'+'
asS'NCSTN'
p1808
(lp1809
I160343272
aI160358952
aS'+'
asS'CEP104'
p1810
(lp1811
I3812080
aI3857233
aS'-'
asS'VANGL1'
p1812
(lp1813
I115641952
aI115698224
aS'+'
asS'VANGL2'
p1814
(lp1815
I160400563
aI160428670
aS'+'
asS'C1orf116'
p1816
(lp1817
I207018520
aI207032756
aS'-'
asS'DNASE2B'
p1818
(lp1819
I84398531
aI84415008
aS'+'
asS'ADAMTSL4'
p1820
(lp1821
I150549368
aI150560936
aS'+'
asS'TEX50'
p1822
(lp1823
I173635337
aI173637130
aS'+'
asS'NBL1'
p1824
(lp1825
I19643228
aI19658456
aS'+'
asS'EXO1'
p1826
(lp1827
I241848190
aI241889939
aS'+'
asS'ZBTB8A'
p1828
(lp1829
I32539144
aI32605950
aS'+'
asS'ZBTB8B'
p1830
(lp1831
I32465056
aI32487858
aS'+'
asS'EXO5'
p1832
(lp1833
I40508718
aI40516050
aS'+'
asS'LINC01635'
p1834
(lp1835
I22023993
aI22026048
aS'-'
asS'DISC1'
p1836
(lp1837
I231626814
aI232041273
aS'+'
asS'NID1'
p1838
(lp1839
I235975831
aI236065181
aS'-'
asS'LINC01633'
p1840
(lp1841
I185001526
aI185008678
aS'+'
asS'TACSTD2'
p1842
(lp1843
I58575422
aI58577494
aS'-'
asS'BLACAT1'
p1844
(lp1845
I205434885
aI205456086
aS'-'
asS'GBAT2'
p1846
(lp1847
I151347009
aI151347891
aS'+'
asS'CD46'
p1848
(lp1849
I207752037
aI207795516
aS'+'
asS'ZNF847P'
p1850
(lp1851
I227697031
aI227697707
aS'-'
asS'COA6-AS1'
p1852
(lp1853
I234372806
aI234373593
aS'-'
asS'PERM1'
p1854
(lp1855
I975198
aI982117
aS'-'
asS'LOC101927139'
p1856
(lp1857
I66042499
aI66050718
aS'-'
asS'C1orf53'
p1858
(lp1859
I197902551
aI197907367
aS'+'
asS'C1orf52'
p1860
(lp1861
I85249953
aI85259672
aS'-'
asS'PGCP1'
p1862
(lp1863
I111384518
aI111389851
aS'-'
asS'C1orf50'
p1864
(lp1865
I42767244
aI42775742
aS'+'
asS'C1orf56'
p1866
(lp1867
I151047739
aI151050796
aS'+'
asS'AGMAT'
p1868
(lp1869
I15571698
aI15585051
aS'-'
asS'MARC1'
p1870
(lp1871
I220786696
aI220814399
aS'+'
asS'MARC2'
p1872
(lp1873
I220748245
aI220784815
aS'+'
asS'ICMT'
p1874
(lp1875
I6221192
aI6235984
aS'-'
asS'LINC01748'
p1876
(lp1877
I60515715
aI60622685
aS'-'
asS'DEPDC1'
p1878
(lp1879
I68474151
aI68497221
aS'-'
asS'LINC01741'
p1880
(lp1881
I177700523
aI177710330
aS'+'
asS'LINC01740'
p1882
(lp1883
I212545693
aI212556066
aS'+'
asS'LINC01743'
p1884
(lp1885
I246516038
aI246524287
aS'-'
asS'LINC01745'
p1886
(lp1887
I232718070
aI232722249
aS'+'
asS'LINC01744'
p1888
(lp1889
I232727253
aI232742715
aS'-'
asS'MIR181A1HG'
p1890
(lp1891
I198808002
aI198937429
aS'-'
asS'MIR29C'
p1892
(lp1893
I207801851
aI207801939
aS'-'
asS'SHISAL2A'
p1894
(lp1895
I52633343
aI52669120
aS'+'
asS'TRNAU1AP'
p1896
(lp1897
I28553016
aI28578545
aS'+'
asS'H3F3AP4'
p1898
(lp1899
I226062726
aI226072002
aS'+'
asS'ITGA10'
p1900
(lp1901
I145891207
aI145910189
aS'-'
asS'TMEM56-RWDD3'
p1902
(lp1903
I95117922
aI95244953
aS'+'
asS'SCYL3'
p1904
(lp1905
I169849630
aI169893896
aS'-'
asS'RCOR3'
p1906
(lp1907
I211259276
aI211316383
aS'+'
asS'STXBP3'
p1908
(lp1909
I108746673
aI108809519
aS'+'
asS'ADAM30'
p1910
(lp1911
I119893532
aI119896524
aS'-'
asS'ELOA'
p1912
(lp1913
I23743365
aI23762059
aS'+'
asS'PPOX'
p1914
(lp1915
I161166380
aI161171220
aS'+'
asS'TTC39A-AS1'
p1916
(lp1917
I51329653
aI51331281
aS'+'
asS'PODN'
p1918
(lp1919
I53062051
aI53085502
aS'+'
asS'S1PR1'
p1920
(lp1921
I101236748
aI101241520
aS'+'
asS'NOC2L'
p1922
(lp1923
I944202
aI959299
aS'-'
asS'CRYBG2'
p1924
(lp1925
I26321858
aI26354130
aS'-'
asS'IFI16'
p1926
(lp1927
I158999975
aI159055155
aS'+'
asS'ABCB10'
p1928
(lp1929
I229516581
aI229558695
aS'-'
asS'TTC24'
p1930
(lp1931
I156581364
aI156587726
aS'+'
asS'TTC22'
p1932
(lp1933
I54781078
aI54801268
aS'-'
asS'SLC2A1-AS1'
p1934
(lp1935
I42959048
aI42983358
aS'+'
asS'KISS1'
p1936
(lp1937
I204190340
aI204196491
aS'-'
asS'F13B'
p1938
(lp1939
I197039190
aI197067267
aS'-'
asS'MIR186'
p1940
(lp1941
I71067630
aI71067716
aS'-'
asS'LOC102724659'
p1942
(lp1943
I11777076
aI11779619
aS'-'
asS'IL6R'
p1944
(lp1945
I154405192
aI154469450
aS'+'
asS'ENO1'
p1946
(lp1947
I8860999
aI8878686
aS'-'
asS'NIPAL3'
p1948
(lp1949
I24413486
aI24472983
aS'+'
asS'S100PBP'
p1950
(lp1951
I32817441
aI32858879
aS'+'
asS'SNORA55'
p1952
(lp1953
I39567373
aI39567510
aS'-'
asS'SYCP1'
p1954
(lp1955
I114854802
aI114995369
aS'+'
asS'GCSAML-AS1'
p1956
(lp1957
I247524678
aI247530804
aS'-'
asS'GRIK3'
p1958
(lp1959
I36795526
aI37034515
aS'-'
asS'TNFRSF14'
p1960
(lp1961
I2556364
aI2565622
aS'+'
asS'LPAR3'
p1962
(lp1963
I84813402
aI84893213
aS'-'
asS'LOC113391335'
p1964
(lp1965
I9950571
aI9960787
aS'-'
asS'OBSCN'
p1966
(lp1967
I228208129
aI228378874
aS'+'
asS'SF3B4'
p1968
(lp1969
I149923316
aI149928252
aS'-'
asS'NENF'
p1970
(lp1971
I212432886
aI212446379
aS'+'
asS'MSH4'
p1972
(lp1973
I75796870
aI75913238
aS'+'
asS'PRKAA2'
p1974
(lp1975
I56645313
aI56715335
aS'+'
asS'ITGB3BP'
p1976
(lp1977
I63440769
aI63523273
aS'-'
asS'PFDN2'
p1978
(lp1979
I161100555
aI161118076
aS'-'
asS'RCSD1'
p1980
(lp1981
I167630192
aI167708696
aS'+'
asS'MCL1'
p1982
(lp1983
I150574550
aI150579738
aS'-'
asS'LINC01363'
p1984
(lp1985
I167175361
aI167195805
aS'-'
asS'OR14I1'
p1986
(lp1987
I248681368
aI248682304
aS'-'
asS'SEMA6C'
p1988
(lp1989
I151131686
aI151146664
aS'-'
asS'RERE'
p1990
(lp1991
I8352403
aI8817640
aS'-'
asS'CNIH3'
p1992
(lp1993
I224434639
aI224740549
aS'+'
asS'DMBX1'
p1994
(lp1995
I46506995
aI46514214
aS'+'
asS'RGL1'
p1996
(lp1997
I183636046
aI183928551
aS'+'
asS'DNAJC16'
p1998
(lp1999
I15526812
aI15571733
aS'+'
asS'COP1'
p2000
(lp2001
I175944825
aI176207244
aS'-'
asS'MTX1'
p2002
(lp2003
I155208698
aI155213839
aS'+'
asS'DNAJC11'
p2004
(lp2005
I6634167
aI6701906
aS'-'
asS'LYPLAL1-DT'
p2006
(lp2007
I219080972
aI219173788
aS'-'
asS'XPR1'
p2008
(lp2009
I180632009
aI180890279
aS'+'
asS'MOV10'
p2010
(lp2011
I112674311
aI112700746
aS'+'
asS'GREM2'
p2012
(lp2013
I240489572
aI240612162
aS'-'
asS'COPA'
p2014
(lp2015
I160288586
aI160343564
aS'-'
asS'MIR6127'
p2016
(lp2017
I22633257
aI22633366
aS'-'
asS'PADI1'
p2018
(lp2019
I17205125
aI17246006
aS'+'
asS'PADI3'
p2020
(lp2021
I17249097
aI17284232
aS'+'
asS'PRKCZ'
p2022
(lp2023
I2050410
aI2185395
aS'+'
asS'RER1'
p2024
(lp2025
I2391840
aI2405436
aS'+'
asS'PADI4'
p2026
(lp2027
I17308194
aI17364000
aS'+'
asS'PADI6'
p2028
(lp2029
I17372195
aI17401699
aS'+'
asS'TRABD2B'
p2030
(lp2031
I47760527
aI47996890
aS'-'
asS'HIST2H2AB'
p2032
(lp2033
I149887468
aI149887916
aS'-'
asS'HIST2H2AC'
p2034
(lp2035
I149886974
aI149887411
aS'+'
asS'TOE1'
p2036
(lp2037
I45340169
aI45343973
aS'+'
asS'IFI44'
p2038
(lp2039
I78649788
aI78664078
aS'+'
asS'PMF1'
p2040
(lp2041
I156212987
aI156240077
aS'+'
asS'PFKFB2'
p2042
(lp2043
I207053274
aI207081023
aS'+'
asS'ACKR1'
p2044
(lp2045
I159204012
aI159206500
aS'+'
asS'MUL1'
p2046
(lp2047
I20499447
aI20508181
aS'-'
asS'TOP1P1'
p2048
(lp2049
I171338895
aI171341324
aS'+'
asS'VCAM1'
p2050
(lp2051
I100719639
aI100739046
aS'+'
asS'FLVCR1'
p2052
(lp2053
I212858254
aI212899363
aS'+'
asS'UBE2J2'
p2054
(lp2055
I1253911
aI1273854
aS'-'
asS'MIR5585'
p2056
(lp2057
I32086948
aI32087007
aS'+'
asS'MIR5584'
p2058
(lp2059
I44545492
aI44545552
aS'+'
asS'MIR5581'
p2060
(lp2061
I37500934
aI37500994
aS'-'
asS'GGPS1'
p2062
(lp2063
I235328437
aI235344529
aS'+'
asS'SNORA14B'
p2064
(lp2065
I235127802
aI235127937
aS'-'
asS'MAP3K6'
p2066
(lp2067
I27355178
aI27366866
aS'-'
asS'PPP1R8'
p2068
(lp2069
I27830740
aI27851672
aS'+'
asS'SNORD44'
p2070
(lp2071
I173865967
aI173866028
aS'-'
asS'MIR205'
p2072
(lp2073
I209432132
aI209432242
aS'+'
asS'PRPF38B'
p2074
(lp2075
I108692309
aI108702930
aS'+'
asS'PLA2G5'
p2076
(lp2077
I20070193
aI20091911
aS'+'
asS'FMOD'
p2078
(lp2079
I203340620
aI203351429
aS'-'
asS'MAP3K21'
p2080
(lp2081
I233327723
aI233385148
aS'+'
asS'SETDB1'
p2082
(lp2083
I150926262
aI150964737
aS'+'
asS'MFSD14A'
p2084
(lp2085
I100038094
aI100083373
aS'+'
asS'KIAA0319L'
p2086
(lp2087
I35433489
aI35557436
aS'-'
asS'FMO3'
p2088
(lp2089
I171090876
aI171117819
aS'+'
asS'MIR4742'
p2090
(lp2091
I224398226
aI224398311
aS'-'
asS'FAM131C'
p2092
(lp2093
I16057768
aI16073632
aS'-'
asS'CASZ1'
p2094
(lp2095
I10636605
aI10796646
aS'-'
asS'FMO4'
p2096
(lp2097
I171314182
aI171342084
aS'+'
asS'FMO5'
p2098
(lp2099
I147184304
aI147225638
aS'-'
asS'OR2G3'
p2100
(lp2101
I247605585
aI247606515
aS'+'
asS'OR2G2'
p2102
(lp2103
I247588359
aI247589313
aS'+'
asS'SH3GLB1'
p2104
(lp2105
I86704569
aI86748184
aS'+'
asS'KCNAB2'
p2106
(lp2107
I5992297
aI6101193
aS'+'
asS'ROR1-AS1'
p2108
(lp2109
I64094441
aI64112205
aS'-'
asS'SH2D2A'
p2110
(lp2111
I156806242
aI156816848
aS'-'
asS'HIST3H2BB'
p2112
(lp2113
I228458106
aI228458558
aS'+'
asS'RPL11'
p2114
(lp2115
I23691805
aI23696835
aS'+'
asS'OMA1'
p2116
(lp2117
I58480718
aI58546799
aS'-'
asS'GPATCH4'
p2118
(lp2119
I156594307
aI156601487
aS'-'
asS'CTSS'
p2120
(lp2121
I150730195
aI150765957
aS'-'
asS'GPATCH2'
p2122
(lp2123
I217426992
aI217631090
aS'-'
asS'GPATCH3'
p2124
(lp2125
I26890487
aI26900471
aS'-'
asS'MIR5697'
p2126
(lp2127
I9967380
aI9967458
aS'+'
asS'B3GALNT2'
p2128
(lp2129
I235447189
aI235504481
aS'-'
asS'SMPDL3B'
p2130
(lp2131
I27934954
aI27959157
aS'+'
asS'INPP5B'
p2132
(lp2133
I37860696
aI37947057
aS'-'
asS'NME7'
p2134
(lp2135
I169132529
aI169367963
aS'-'
asS'PRAMEF18'
p2136
(lp2137
I13222694
aI13226154
aS'-'
asS'PRAMEF19'
p2138
(lp2139
I13368430
aI13371947
aS'-'
asS'PRAMEF17'
p2140
(lp2141
I13389631
aI13392629
aS'+'
asS'PRAMEF14'
p2142
(lp2143
I13341891
aI13347134
aS'-'
asS'PRAMEF15'
p2144
(lp2145
I13315580
aI13322595
aS'+'
asS'PRAMEF12'
p2146
(lp2147
I12774847
aI12777905
aS'+'
asS'PRAMEF13'
p2148
(lp2149
I13196187
aI13201409
aS'-'
asS'PRAMEF10'
p2150
(lp2151
I12892895
aI12898270
aS'-'
asS'PRAMEF11'
p2152
(lp2153
I12824759
aI12831410
aS'-'
asS'SPEN'
p2154
(lp2155
I15847863
aI15940455
aS'+'
asS'LOC646626'
p2156
(lp2157
I85276357
aI85278088
aS'+'
asS'PRRX1'
p2158
(lp2159
I170664171
aI170739400
aS'+'
asS'MANEAL'
p2160
(lp2161
I37794101
aI37801606
aS'+'
asS'SHC1'
p2162
(lp2163
I154962297
aI154974483
aS'-'
asS'LOC101928673'
p2164
(lp2165
I173417788
aI173461362
aS'-'
asS'CNST'
p2166
(lp2167
I246566336
aI246668582
aS'+'
asS'LOC101929099'
p2168
(lp2169
I117025481
aI117059490
aS'-'
asS'CLSPN'
p2170
(lp2171
I35720217
aI35769950
aS'-'
asS'EPB41'
p2172
(lp2173
I28887090
aI29120046
aS'+'
asS'PDZK1IP1'
p2174
(lp2175
I47183588
aI47190099
aS'-'
asS'FBLIM1'
p2176
(lp2177
I15756658
aI15786594
aS'+'
asS'STIL'
p2178
(lp2179
I47250138
aI47314147
aS'-'
asS'TEKT2'
p2180
(lp2181
I36084074
aI36088275
aS'+'
asS'PDPN'
p2182
(lp2183
I13583756
aI13617957
aS'+'
asS'MAP10'
p2184
(lp2185
I232804891
aI232810346
aS'+'
asS'MIR1256'
p2186
(lp2187
I20988313
aI20988432
aS'-'
asS'LOC100288175'
p2188
(lp2189
I1059733
aI1066453
aS'+'
asS'GUCA2A'
p2190
(lp2191
I42162690
aI42164724
aS'-'
asS'GUCA2B'
p2192
(lp2193
I42153409
aI42155820
aS'+'
asS'NPPB'
p2194
(lp2195
I11857463
aI11858935
aS'-'
asS'NKAIN1'
p2196
(lp2197
I31179744
aI31239887
aS'-'
asS'NPPA'
p2198
(lp2199
I11845709
aI11847783
aS'-'
asS'STK40'
p2200
(lp2201
I36339618
aI36385927
aS'-'
asS'SFPQ'
p2202
(lp2203
I35176377
aI35193145
aS'-'
asS'MINOS1-NBL1'
p2204
(lp2205
I19596976
aI19658456
aS'+'
asS'SPRR2E'
p2206
(lp2207
I153093134
aI153094528
aS'-'
asS'SPRR2D'
p2208
(lp2209
I153039724
aI153041118
aS'-'
asS'KIAA0754'
p2210
(lp2211
I39409503
aI39416482
aS'+'
asS'SPRR2F'
p2212
(lp2213
I153112123
aI153113515
aS'-'
asS'SPRR2A'
p2214
(lp2215
I153056119
aI153057512
aS'-'
asS'SPRR2C'
p2216
(lp2217
I153140117
aI153141493
aS'-'
asS'NUDT4B'
p2218
(lp2219
I146297990
aI146301640
aS'+'
asS'TMEM200B'
p2220
(lp2221
I29119424
aI29123909
aS'-'
asS'PSMB4'
p2222
(lp2223
I151399564
aI151401936
aS'+'
asS'ERLNC1'
p2224
(lp2225
I204141407
aI204143009
aS'+'
asS'FGGY'
p2226
(lp2227
I59296637
aI59762731
aS'+'
asS'HIVEP3'
p2228
(lp2229
I41506364
aI41918707
aS'-'
asS'UBE2U'
p2230
(lp2231
I64203622
aI64267382
aS'+'
asS'UBE2T'
p2232
(lp2233
I202331656
aI202341966
aS'-'
asS'PTGFR'
p2234
(lp2235
I78491042
aI78540701
aS'+'
asS'C1orf43'
p2236
(lp2237
I154206700
aI154220797
aS'-'
asS'PTAFR'
p2238
(lp2239
I28147165
aI28193936
aS'-'
asS'DESI2'
p2240
(lp2241
I244653047
aI244709034
aS'+'
asS'LOC100506023'
p2242
(lp2243
I173235059
aI173477155
aS'-'
asS'SPRR2G'
p2244
(lp2245
I153149581
aI153150890
aS'-'
asS'VPS45'
p2246
(lp2247
I150067292
aI150145327
aS'+'
asS'EXOSC10-AS1'
p2248
(lp2249
I11099674
aI11102106
aS'+'
asS'SLC25A34-AS1'
p2250
(lp2251
I15740050
aI15749890
aS'-'
asS'RRNAD1'
p2252
(lp2253
I156728470
aI156736960
aS'+'
asS'RBM8A'
p2254
(lp2255
I145921556
aI145927536
aS'-'
asS'LOC148709'
p2256
(lp2257
I202861753
aI202875241
aS'+'
asS'RHBG'
p2258
(lp2259
I156369188
aI156385221
aS'+'
asS'MIR4418'
p2260
(lp2261
I22266238
aI22266300
aS'+'
asS'TMCC2'
p2262
(lp2263
I205227909
aI205273343
aS'+'
asS'GPR88'
p2264
(lp2265
I100538171
aI100542027
aS'+'
asS'LINC00115'
p2266
(lp2267
I826205
aI827522
aS'-'
asS'MKNK1-AS1'
p2268
(lp2269
I46538695
aI46570255
aS'+'
asS'NMNAT2'
p2270
(lp2271
I183248236
aI183418499
aS'-'
asS'LINC01753'
p2272
(lp2273
I55915608
aI55944963
aS'-'
asS'LINC01750'
p2274
(lp2275
I111990535
aI111998841
aS'+'
asS'NMNAT1'
p2276
(lp2277
I9942922
aI9985498
aS'+'
asS'LINC01756'
p2278
(lp2279
I29329619
aI29350114
aS'-'
asS'LINC01757'
p2280
(lp2281
I20243094
aI20244654
aS'+'
asS'LINC01755'
p2282
(lp2283
I55945086
aI55950119
aS'+'
asS'THRAP3'
p2284
(lp2285
I36224411
aI36305356
aS'+'
asS'PLEKHM2'
p2286
(lp2287
I15684302
aI15734769
aS'+'
asS'LOC102725121'
p2288
(lp2289
I182387
aI184878
aS'+'
asS'RNF207'
p2290
(lp2291
I6206118
aI6221299
aS'+'
asS'FAM72D'
p2292
(lp2293
I145094295
aI145112692
aS'+'
asS'FAM72C'
p2294
(lp2295
I143955363
aI143973519
aS'-'
asS'FAM72B'
p2296
(lp2297
I121167645
aI121184318
aS'-'
asS'FAM72A'
p2298
(lp2299
I206186178
aI206204065
aS'-'
asS'TARDBP'
p2300
(lp2301
I11012621
aI11025492
aS'+'
asS'IL19'
p2302
(lp2303
I206798869
aI206842981
aS'+'
asS'IL10'
p2304
(lp2305
I206767601
aI206772494
aS'-'
asS'GSTM1'
p2306
(lp2307
I109687795
aI109693745
aS'+'
asS'GSTM2'
p2308
(lp2309
I109668021
aI109683997
aS'+'
asS'SZRD1'
p2310
(lp2311
I16367029
aI16398148
aS'+'
asS'GSTM4'
p2312
(lp2313
I109656075
aI109665501
aS'+'
asS'MAEL'
p2314
(lp2315
I166975581
aI167022212
aS'+'
asS'WNT4'
p2316
(lp2317
I22117304
aI22143026
aS'-'
asS'STX12'
p2318
(lp2319
I27773218
aI27824443
aS'+'
asS'COLGALT2'
p2320
(lp2321
I183929661
aI184037770
aS'-'
asS'SNORA44'
p2322
(lp2323
I28580380
aI28580512
aS'-'
asS'MMEL1'
p2324
(lp2325
I2590641
aI2633042
aS'-'
asS'TTF2'
p2326
(lp2327
I117060326
aI117102869
aS'+'
asS'SNORD47'
p2328
(lp2329
I173864368
aI173864445
aS'-'
asS'HIST2H2BC'
p2330
(lp2331
I149850191
aI149850773
aS'-'
asS'HIST2H2BA'
p2332
(lp2333
I121108440
aI121117251
aS'-'
asS'CADM3-AS1'
p2334
(lp2335
I159195984
aI159202422
aS'-'
asS'LINC00970'
p2336
(lp2337
I168903904
aI169087005
aS'-'
asS'HIST2H2BE'
p2338
(lp2339
I149884459
aI149886682
aS'-'
asS'FCGR3A'
p2340
(lp2341
I161541760
aI161550737
aS'-'
asS'KLF17'
p2342
(lp2343
I44118849
aI44135137
aS'+'
asS'KLF18'
p2344
(lp2345
I44137820
aI44141631
aS'-'
asS'TFAP2E'
p2346
(lp2347
I35573369
aI35595326
aS'+'
asS'NFIA-AS2'
p2348
(lp2349
I60940243
aI60970776
aS'-'
asS'NT5C1A'
p2350
(lp2351
I39659120
aI39672038
aS'-'
asS'SNORD21'
p2352
(lp2353
I92837288
aI92837383
aS'+'
asS'POU3F1'
p2354
(lp2355
I38043850
aI38046778
aS'-'
asS'SLC44A3'
p2356
(lp2357
I94820341
aI94895247
aS'+'
asS'PGLYRP4'
p2358
(lp2359
I153330120
aI153348841
aS'-'
asS'SLC44A5'
p2360
(lp2361
I75206131
aI75616009
aS'-'
asS'ZBTB7B'
p2362
(lp2363
I155002629
aI155018525
aS'+'
asS'ANXA9'
p2364
(lp2365
I150982291
aI150995633
aS'+'
asS'GCLM'
p2366
(lp2367
I93885199
aI93909598
aS'-'
asS'ELOA-AS1'
p2368
(lp2369
I23760381
aI23778297
aS'-'
asS'OR6N1'
p2370
(lp2371
I158765743
aI158766682
aS'-'
asS'LOC100996583'
p2372
(lp2373
I2566534
aI2584534
aS'+'
asS'LEFTY1'
p2374
(lp2375
I225886281
aI225889146
aS'-'
asS'DUSP10'
p2376
(lp2377
I221701419
aI221742176
aS'-'
asS'DUSP12'
p2378
(lp2379
I161749767
aI161757164
aS'+'
asS'POGK'
p2380
(lp2381
I166839403
aI166856344
aS'+'
asS'RO60'
p2382
(lp2383
I193059873
aI193091776
aS'+'
asS'PCAT6'
p2384
(lp2385
I202810945
aI202811913
aS'+'
asS'CYCSP52'
p2386
(lp2387
I157128361
aI157128671
aS'+'
asS'HAO2-IT1'
p2388
(lp2389
I119368945
aI119370330
aS'+'
asS'RPA2'
p2390
(lp2391
I27891525
aI27914797
aS'-'
asS'POGZ'
p2392
(lp2393
I151402723
aI151459494
aS'-'
asS'HSPB11'
p2394
(lp2395
I53921560
aI53946308
aS'-'
asS'NDUFS2'
p2396
(lp2397
I161199314
aI161214394
aS'+'
asS'NDUFS5'
p2398
(lp2399
I39026294
aI39034636
aS'+'
asS'WNT9A'
p2400
(lp2401
I227918655
aI227947930
aS'-'
asS'PRUNE1'
p2402
(lp2403
I151008390
aI151035713
aS'+'
asS'LHX4-AS1'
p2404
(lp2405
I180269662
aI180274681
aS'-'
asS'TMEM167B'
p2406
(lp2407
I109090740
aI109096934
aS'+'
asS'BLZF1'
p2408
(lp2409
I169367878
aI169396542
aS'+'
asS'OR10R2'
p2410
(lp2411
I158479877
aI158480885
aS'+'
asS'LOC100506801'
p2412
(lp2413
I21293289
aI21299869
aS'+'
asS'DHDDS'
p2414
(lp2415
I26432281
aI26471304
aS'+'
asS'USH2A'
p2416
(lp2417
I215622893
aI216423396
aS'-'
asS'PARS2'
p2418
(lp2419
I54756897
aI54764553
aS'-'
asS'CTRC'
p2420
(lp2421
I15438441
aI15446658
aS'+'
asS'TMEM183A'
p2422
(lp2423
I203007366
aI203024848
aS'+'
asS'KCNK1'
p2424
(lp2425
I233614003
aI233672512
aS'+'
asS'ZFYVE9'
p2426
(lp2427
I52142093
aI52346686
aS'+'
asS'MROH9'
p2428
(lp2429
I170935470
aI171064765
aS'+'
asS'UBQLN4'
p2430
(lp2431
I156035293
aI156053825
aS'-'
asS'KIFAP3'
p2432
(lp2433
I169921328
aI170074738
aS'-'
asS'CYP4Z2P'
p2434
(lp2435
I46843094
aI46900475
aS'-'
asS'MDS2'
p2436
(lp2437
I23627333
aI23640568
aS'+'
asS'MROH7'
p2438
(lp2439
I54641739
aI54710267
aS'+'
asS'RTCA-AS1'
p2440
(lp2441
I100264741
aI100266174
aS'-'
asS'DENND2C'
p2442
(lp2443
I114584574
aI114670111
aS'-'
asS'DENND2D'
p2444
(lp2445
I111185968
aI111204538
aS'-'
asS'PPT1'
p2446
(lp2447
I40072709
aI40097470
aS'-'
asS'CPT2'
p2448
(lp2449
I53196428
aI53214197
aS'+'
asS'RXFP4'
p2450
(lp2451
I155941688
aI155942834
aS'+'
asS'SUSD4'
p2452
(lp2453
I223220818
aI223364202
aS'-'
asS'TSACC'
p2454
(lp2455
I156337313
aI156346994
aS'+'
asS'PHC2'
p2456
(lp2457
I33323622
aI33375593
aS'-'
asS'RNASEL'
p2458
(lp2459
I182573633
aI182589259
aS'-'
asS'MKNK1'
p2460
(lp2461
I46557406
aI46604301
aS'-'
asS'CPTP'
p2462
(lp2463
I1324762
aI1328896
aS'+'
asS'ZNF362'
p2464
(lp2465
I33256572
aI33300719
aS'+'
asS'LY9'
p2466
(lp2467
I160796073
aI160828255
aS'+'
asS'VWA1'
p2468
(lp2469
I1435522
aI1442882
aS'+'
asS'SCARNA4'
p2470
(lp2471
I155925957
aI155926086
aS'-'
asS'KCNN3'
p2472
(lp2473
I154697457
aI154870281
aS'-'
asS'OR2T8'
p2474
(lp2475
I247921017
aI247921956
aS'+'
asS'ACOT11'
p2476
(lp2477
I54548133
aI54634744
aS'+'
asS'OR2T6'
p2478
(lp2479
I248387608
aI248388535
aS'+'
asS'OR2T7'
p2480
(lp2481
I248441116
aI248442133
aS'+'
asS'KAZN-AS1'
p2482
(lp2483
I14348954
aI14419973
aS'-'
asS'OR2T5'
p2484
(lp2485
I248488588
aI248489536
aS'+'
asS'BRINP3'
p2486
(lp2487
I190097666
aI190477882
aS'-'
asS'MIR6808'
p2488
(lp2489
I1339649
aI1339708
aS'-'
asS'OR2T1'
p2490
(lp2491
I248405994
aI248407104
aS'+'
asS'TRNP1'
p2492
(lp2493
I26993691
aI27000886
aS'+'
asS'SETSIP'
p2494
(lp2495
I92074435
aI92075472
aS'-'
asS'LOC400800'
p2496
(lp2497
I199148597
aI199393307
aS'+'
asS'SNORD55'
p2498
(lp2499
I44775864
aI44775938
aS'+'
asS'OR11L1'
p2500
(lp2501
I247840927
aI247841896
aS'-'
asS'LOC339539'
p2502
(lp2503
I42857621
aI42888792
aS'+'
asS'MST1L'
p2504
(lp2505
I16754633
aI16764480
aS'-'
asS'LOC100132062'
p2506
(lp2507
I490755
aI495445
aS'-'
asS'TLR5'
p2508
(lp2509
I223109405
aI223143282
aS'-'
asS'BTBD19'
p2510
(lp2511
I44808481
aI44814129
aS'+'
asS'SLC19A2'
p2512
(lp2513
I169463910
aI169485970
aS'-'
asS'NIT1'
p2514
(lp2515
I161118071
aI161125445
aS'+'
asS'STMN1'
p2516
(lp2517
I25884185
aI25906502
aS'-'
asS'HSD3BP4'
p2518
(lp2519
I119563879
aI119572576
aS'+'
asS'ANKRD36BP1'
p2520
(lp2521
I168245580
aI168247430
aS'-'
asS'FMN2'
p2522
(lp2523
I240091884
aI240475189
aS'+'
asS'TOMM20'
p2524
(lp2525
I235109342
aI235128941
aS'-'
asS'SPRR1A'
p2526
(lp2527
I152984087
aI152985814
aS'+'
asS'ARID4B'
p2528
(lp2529
I235166894
aI235328219
aS'-'
asS'FLG'
p2530
(lp2531
I152302174
aI152325203
aS'-'
asS'MACO1'
p2532
(lp2533
I25430857
aI25500207
aS'+'
asS'LOC101928068'
p2534
(lp2535
I244965203
aI244970869
aS'-'
asS'CHIA'
p2536
(lp2537
I111290851
aI111320566
aS'+'
asS'CRYZ'
p2538
(lp2539
I74705487
aI74733408
aS'-'
asS'PLEKHA6'
p2540
(lp2541
I204218850
aI204359929
aS'-'
asS'KDM4A-AS1'
p2542
(lp2543
I43699737
aI43707341
aS'-'
asS'TENT5B'
p2544
(lp2545
I27005019
aI27012842
aS'-'
asS'TEX46'
p2546
(lp2547
I23010833
aI23015850
aS'-'
asS'NR5A2'
p2548
(lp2549
I200027601
aI200177422
aS'+'
asS'LOC729737'
p2550
(lp2551
I134772
aI140566
aS'-'
asS'SLC35A3'
p2552
(lp2553
I99969788
aI100026978
aS'+'
asS'LOC101929798'
p2554
(lp2555
I120985691
aI121052167
aS'-'
asS'PRSS38'
p2556
(lp2557
I227815716
aI227846470
aS'+'
asS'SH2D5'
p2558
(lp2559
I20719731
aI20732640
aS'-'
asS'MIGA1'
p2560
(lp2561
I77779623
aI77879540
aS'+'
asS'FLG2'
p2562
(lp2563
I152348736
aI152360006
aS'-'
asS'FAF1'
p2564
(lp2565
I50441262
aI50960264
aS'-'
asS'LMX1A'
p2566
(lp2567
I165201866
aI165356715
aS'-'
asS'PGM1'
p2568
(lp2569
I63593275
aI63660246
aS'+'
asS'KIAA1107'
p2570
(lp2571
I92168857
aI92184725
aS'+'
asS'MIA3'
p2572
(lp2573
I222618101
aI222668012
aS'+'
asS'SLC26A9'
p2574
(lp2575
I205913047
aI205943460
aS'-'
asS'BCAN'
p2576
(lp2577
I156641947
aI156659532
aS'+'
asS'OLFML2B'
p2578
(lp2579
I161983191
aI162024465
aS'-'
asS'TAF5L'
p2580
(lp2581
I229593117
aI229626047
aS'-'
asS'LOC105371458'
p2582
(lp2583
I157925966
aI157949071
aS'+'
asS'HENMT1'
p2584
(lp2585
I108648287
aI108661526
aS'-'
asS'CR1L'
p2586
(lp2587
I207645112
aI207723691
aS'+'
asS'VAV3'
p2588
(lp2589
I107571159
aI107964923
aS'-'
asS'SDC3'
p2590
(lp2591
I30869465
aI30908758
aS'-'
asS'CDC20'
p2592
(lp2593
I43358954
aI43363202
aS'+'
asS'FLVCR1-DT'
p2594
(lp2595
I212856603
aI212858138
aS'-'
asS'RNU6-8'
p2596
(lp2597
I10298965
aI10299070
aS'+'
asS'RNU6-9'
p2598
(lp2599
I10298965
aI10299070
aS'+'
asS'IPO9'
p2600
(lp2601
I201829159
aI201884294
aS'+'
asS'RNU6-7'
p2602
(lp2603
I10298965
aI10299070
aS'+'
asS'AMY1A'
p2604
(lp2605
I103687417
aI103696451
aS'-'
asS'RNU6-1'
p2606
(lp2607
I10298965
aI10299070
aS'+'
asS'RNU6-2'
p2608
(lp2609
I10298965
aI10299070
aS'+'
asS'BEST4'
p2610
(lp2611
I44783584
aI44787754
aS'-'
asS'NUDT4P2'
p2612
(lp2613
I146297772
aI146301606
aS'+'
asS'LINC00582'
p2614
(lp2615
I231591291
aI231612090
aS'-'
asS'LINC01461'
p2616
(lp2617
I84597963
aI84621031
aS'-'
asS'KIAA1614'
p2618
(lp2619
I180913176
aI180946103
aS'+'
asS'SPHAR'
p2620
(lp2621
I229304381
aI229305503
aS'+'
asS'HEYL'
p2622
(lp2623
I39623430
aI39639676
aS'-'
asS'CNR2'
p2624
(lp2625
I23873969
aI23913327
aS'-'
asS'LINC01349'
p2626
(lp2627
I100627049
aI100647004
aS'-'
asS'LINC01348'
p2628
(lp2629
I235065473
aI235069818
aS'-'
asS'RD3'
p2630
(lp2631
I211476521
aI211492917
aS'-'
asS'LINC01345'
p2632
(lp2633
I3947148
aI3948980
aS'-'
asS'LINC01344'
p2634
(lp2635
I182203944
aI182314061
aS'-'
asS'LINC01347'
p2636
(lp2637
I243056313
aI243101744
aS'-'
asS'LINC01346'
p2638
(lp2639
I3940611
aI3952583
aS'+'
asS'CNKSR1'
p2640
(lp2641
I26177489
aI26189884
aS'+'
asS'LINC01758'
p2642
(lp2643
I69433254
aI69435409
aS'+'
asS'LINC01343'
p2644
(lp2645
I38209033
aI38214767
aS'-'
asS'LINC01342'
p2646
(lp2647
I1137016
aI1144054
aS'+'
asS'ZNF691'
p2648
(lp2649
I42846572
aI42852475
aS'+'
asS'PPP1R12B'
p2650
(lp2651
I202348698
aI202592702
aS'+'
asS'DRAXIN'
p2652
(lp2653
I11691723
aI11720279
aS'+'
asS'GABPB2'
p2654
(lp2655
I151070577
aI151125545
aS'+'
asS'LRRC8D'
p2656
(lp2657
I89821013
aI89936430
aS'+'
asS'ZNF692'
p2658
(lp2659
I248850003
aI248859116
aS'-'
asS'LRRC8C'
p2660
(lp2661
I89633084
aI89719535
aS'+'
asS'MRPL20-AS1'
p2662
(lp2663
I1399529
aI1402046
aS'+'
asS'GEMIN8P4'
p2664
(lp2665
I89993264
aI89994966
aS'-'
asS'ANKRD34A'
p2666
(lp2667
I145959440
aI145964582
aS'-'
asS'PAQR7'
p2668
(lp2669
I25861483
aI25871253
aS'-'
asS'PAQR6'
p2670
(lp2671
I156243320
aI156248117
aS'-'
asS'LOC101926944'
p2672
(lp2673
I59772794
aI59788829
aS'+'
asS'LOC101929935'
p2674
(lp2675
I56627790
aI56645318
aS'-'
asS'MIXL1'
p2676
(lp2677
I226223617
aI226227055
aS'+'
asS'MIR4421'
p2678
(lp2679
I51059836
aI51059905
aS'+'
asS'MIR4420'
p2680
(lp2681
I30739155
aI30739232
aS'-'
asS'MIR4422HG'
p2682
(lp2683
I55217860
aI55234177
aS'+'
asS'MIR4422'
p2684
(lp2685
I55225640
aI55225723
aS'+'
asS'MIR4425'
p2686
(lp2687
I25023502
aI25023586
aS'+'
asS'MIR4424'
p2688
(lp2689
I178677748
aI178677834
aS'+'
asS'GPBP1L1'
p2690
(lp2691
I45627303
aI45686630
aS'-'
asS'YTHDF2'
p2692
(lp2693
I28736620
aI28769775
aS'+'
asS'MTF1'
p2694
(lp2695
I37809566
aI37859620
aS'-'
asS'MIR4428'
p2696
(lp2697
I237471118
aI237471191
aS'+'
asS'MTF2'
p2698
(lp2699
I93079234
aI93139081
aS'+'
asS'ACTRT2'
p2700
(lp2701
I3021481
aI3022903
aS'+'
asS'MSTO2P'
p2702
(lp2703
I155745767
aI155750688
aS'+'
asS'LINC01767'
p2704
(lp2705
I56414962
aI56415966
aS'+'
asS'LINC01763'
p2706
(lp2707
I90851758
aI90854899
aS'+'
asS'CFAP57'
p2708
(lp2709
I43172329
aI43254358
aS'+'
asS'LINC01761'
p2710
(lp2711
I95474736
aI95479356
aS'+'
asS'LINC01760'
p2712
(lp2713
I95310927
aI95318263
aS'-'
asS'KCTD3'
p2714
(lp2715
I215567378
aI215621821
aS'+'
asS'C1orf105'
p2716
(lp2717
I172420687
aI172468829
aS'+'
asS'SPATA17-AS1'
p2718
(lp2719
I217781197
aI217785120
aS'-'
asS'C1orf109'
p2720
(lp2721
I37681569
aI37692274
aS'-'
asS'GPR52'
p2722
(lp2723
I174448073
aI174449545
aS'+'
asS'ADAM15'
p2724
(lp2725
I155051271
aI155062776
aS'+'
asS'PLEKHN1'
p2726
(lp2727
I966496
aI975104
aS'+'
asS'MIR101-1'
p2728
(lp2729
I65058433
aI65058508
aS'-'
asS'OR2L1P'
p2730
(lp2731
I247990266
aI247991191
aS'+'
asS'SNORA16B'
p2732
(lp2733
I212352817
aI212352950
aS'+'
asS'LOC105378614'
p2734
(lp2735
I19591801
aI19596832
aS'-'
asS'PLOD1'
p2736
(lp2737
I11934666
aI11975542
aS'+'
asS'NRAS'
p2738
(lp2739
I114704463
aI114716894
aS'-'
asS'PACERR'
p2740
(lp2741
I186680653
aI186681446
aS'+'
asS'FAAP20'
p2742
(lp2743
I2184459
aI2207733
aS'-'
asS'MIR200B'
p2744
(lp2745
I1167103
aI1167198
aS'+'
asS'LIX1L'
p2746
(lp2747
I145933423
aI145958019
aS'-'
asS'DDX59'
p2748
(lp2749
I200640806
aI200669998
aS'-'
asS'NEK2'
p2750
(lp2751
I211658256
aI211675630
aS'-'
asS'SSBP3'
p2752
(lp2753
I54225430
aI54406395
aS'-'
asS'MIR7852'
p2754
(lp2755
I107897222
aI107897304
aS'+'
asS'HYDIN2'
p2756
(lp2757
I146486331
aI146822034
aS'+'
asS'ANKRD65'
p2758
(lp2759
I1418419
aI1421444
aS'-'
asS'MIR7856'
p2760
(lp2761
I86357631
aI86357687
aS'-'
asS'BTNL10'
p2762
(lp2763
I228510358
aI228512288
aS'-'
asS'SDHB'
p2764
(lp2765
I17018725
aI17054170
aS'-'
asS'DPYD-AS1'
p2766
(lp2767
I97095922
aI97322955
aS'+'
asS'DPYD-AS2'
p2768
(lp2769
I97796920
aI97798051
aS'+'
asS'WARS2-IT1'
p2770
(lp2771
I119047404
aI119063287
aS'+'
asS'HIST2H2BF'
p2772
(lp2773
I149782688
aI149812373
aS'-'
asS'RHCE'
p2774
(lp2775
I25362248
aI25420914
aS'-'
asS'PPP1R15B'
p2776
(lp2777
I204403363
aI204411817
aS'-'
asS'MAST2'
p2778
(lp2779
I45803606
aI46036124
aS'+'
asS'TXNDC12'
p2780
(lp2781
I52020131
aI52056171
aS'-'
asS'ZBTB40'
p2782
(lp2783
I22451850
aI22531157
aS'+'
asS'ZBTB41'
p2784
(lp2785
I197153681
aI197200542
aS'-'
asS'C1orf94'
p2786
(lp2787
I34166882
aI34219130
aS'+'
asS'PPCS'
p2788
(lp2789
I42456493
aI42473378
aS'+'
asS'ZBTB48'
p2790
(lp2791
I6579990
aI6589280
aS'+'
asS'MIR30E'
p2792
(lp2793
I40754354
aI40754446
aS'+'
asS'PCSK9'
p2794
(lp2795
I55039475
aI55064853
aS'+'
asS'ELF3-AS1'
p2796
(lp2797
I202000050
aI202010353
aS'-'
asS'ESPN'
p2798
(lp2799
I6424775
aI6460944
aS'+'
asS'LOC107985355'
p2800
(lp2801
I227967010
aI227967920
aS'+'
asS'GPR61'
p2802
(lp2803
I109539871
aI109545833
aS'+'
asS'ZDHHC18'
p2804
(lp2805
I26826687
aI26857604
aS'+'
asS'HIPK1'
p2806
(lp2807
I113929373
aI113977869
aS'+'
asS'ANP32E'
p2808
(lp2809
I150218416
aI150236156
aS'-'
asS'C1orf146'
p2810
(lp2811
I92218015
aI92245810
aS'+'
asS'SPATA46'
p2812
(lp2813
I162373724
aI162376854
aS'-'
asS'DUSP23'
p2814
(lp2815
I159780945
aI159782546
aS'+'
asS'LEMD1'
p2816
(lp2817
I205381378
aI205422086
aS'-'
asS'DUSP27'
p2818
(lp2819
I167094089
aI167129129
aS'+'
asS'CYMP-AS1'
p2820
(lp2821
I110487679
aI110490258
aS'-'
asS'ARMH1'
p2822
(lp2823
I44674713
aI44725591
aS'+'
asS'OTUD7B'
p2824
(lp2825
I149937811
aI150010726
aS'-'
asS'NTNG1'
p2826
(lp2827
I107139917
aI107484899
aS'+'
asS'RPF1'
p2828
(lp2829
I84479236
aI84498350
aS'+'
asS'PABPC4-AS1'
p2830
(lp2831
I39565069
aI39573203
aS'+'
asS'EFCAB14'
p2832
(lp2833
I46675158
aI46719114
aS'-'
asS'MRPL55'
p2834
(lp2835
I228106678
aI228109312
aS'-'
asS'MIR30C1'
p2836
(lp2837
I40757283
aI40757372
aS'+'
asS'SLC9C2'
p2838
(lp2839
I173500459
aI173603072
aS'-'
asS'OR2L3'
p2840
(lp2841
I248060681
aI248061620
aS'+'
asS'SLC35E2B'
p2842
(lp2843
I1661477
aI1692804
aS'-'
asS'LOC102606465'
p2844
(lp2845
I101025845
aI101087379
aS'+'
asS'OR13G1'
p2846
(lp2847
I247672117
aI247673041
aS'-'
asS'ARHGEF11'
p2848
(lp2849
I156934839
aI157045370
aS'-'
asS'ARHGEF16'
p2850
(lp2851
I3454582
aI3481113
aS'+'
asS'RHEX'
p2852
(lp2853
I206053172
aI206102449
aS'+'
asS'CENPS-CORT'
p2854
(lp2855
I10430101
aI10452003
aS'+'
asS'VN1R5'
p2856
(lp2857
I247256071
aI247257145
aS'+'
asS'ZNF687'
p2858
(lp2859
I151281554
aI151291905
aS'+'
asS'ZNF684'
p2860
(lp2861
I40531560
aI40548169
aS'+'
asS'MIR137HG'
p2862
(lp2863
I97987999
aI98049693
aS'-'
asS'PIK3C2B'
p2864
(lp2865
I204422629
aI204490346
aS'-'
asS'RNU5E-1'
p2866
(lp2867
I11908153
aI11908272
aS'+'
asS'CYP4X1'
p2868
(lp2869
I46961363
aI47050754
aS'+'
asS'ZNF670-ZNF695'
p2870
(lp2871
I246945546
aI247078813
aS'-'
asS'NPL'
p2872
(lp2873
I182789448
aI182830384
aS'+'
asS'WDTC1'
p2874
(lp2875
I27234515
aI27308633
aS'+'
asS'LOC149373'
p2876
(lp2877
I231184098
aI231187627
aS'-'
asS'ANGPTL7'
p2878
(lp2879
I11189288
aI11195981
aS'+'
asS'ANGPTL3'
p2880
(lp2881
I62597486
aI62606305
aS'+'
asS'ANGPTL1'
p2882
(lp2883
I178849534
aI178871080
aS'-'
asS'MIR34AHG'
p2884
(lp2885
I9148010
aI9182338
aS'-'
asS'DEPDC1-AS1'
p2886
(lp2887
I68496675
aI68538627
aS'+'
asS'SRSF10'
p2888
(lp2889
I23964346
aI23980463
aS'-'
asS'ELAVL4'
p2890
(lp2891
I50048013
aI50203785
aS'+'
asS'LGR6'
p2892
(lp2893
I202193989
aI202319761
aS'+'
asS'MIR548F3'
p2894
(lp2895
I218437632
aI219108110
aS'+'
asS'DSTYK'
p2896
(lp2897
I205142502
aI205211599
aS'-'
asS'QSOX1'
p2898
(lp2899
I180154832
aI180198034
aS'+'
asS'GSTM5'
p2900
(lp2901
I109712241
aI109718268
aS'+'
asS'PRG4'
p2902
(lp2903
I186296272
aI186314562
aS'+'
asS'OR2W3'
p2904
(lp2905
I247895586
aI247896531
aS'+'
asS'TSTD1'
p2906
(lp2907
I161037631
aI161038984
aS'-'
asS'OR2W5'
p2908
(lp2909
I247491067
aI247492409
aS'+'
asS'BNIPL'
p2910
(lp2911
I151036552
aI151047600
aS'+'
asS'PPIAL4F'
p2912
(lp2913
I144372874
aI144373659
aS'-'
asS'MYBPH'
p2914
(lp2915
I203167810
aI203175814
aS'-'
asS'LOC100422212'
p2916
(lp2917
I163421069
aI163423191
aS'-'
asS'FAM151A'
p2918
(lp2919
I54609176
aI54623527
aS'-'
asS'LOC100132057'
p2920
(lp2921
I148402482
aI148432545
aS'+'
asS'VWA5B1'
p2922
(lp2923
I20290918
aI20354894
aS'+'
asS'KYAT3'
p2924
(lp2925
I88921043
aI88992748
aS'-'
asS'NAXE'
p2926
(lp2927
I156591765
aI156594299
aS'+'
asS'EDARADD'
p2928
(lp2929
I236394379
aI236484708
aS'+'
asS'FOXJ3'
p2930
(lp2931
I42176538
aI42335877
aS'-'
asS'SPRTN'
p2932
(lp2933
I231337935
aI231355027
aS'+'
asS'KCNQ4'
p2934
(lp2935
I40783786
aI40840452
aS'+'
asS'SLFNL1-AS1'
p2936
(lp2937
I41014589
aI41043890
aS'+'
asS'ACTA1'
p2938
(lp2939
I229431245
aI229434096
aS'-'
asS'MMACHC'
p2940
(lp2941
I45500183
aI45511067
aS'+'
asS'HIST2H3C'
p2942
(lp2943
I149840686
aI149841193
aS'-'
asS'HIST2H3A'
p2944
(lp2945
I149840686
aI149841193
aS'-'
asS'SLC39A1'
p2946
(lp2947
I153959098
aI153968184
aS'-'
asS'MIR29B2'
p2948
(lp2949
I207802442
aI207802523
aS'-'
asS'SAMD11'
p2950
(lp2951
I925740
aI944581
aS'+'
asS'LOC101928098'
p2952
(lp2953
I95061595
aI95067545
aS'+'
asS'LOC101928303'
p2954
(lp2955
I26225319
aI26229840
aS'+'
asS'EMC1'
p2956
(lp2957
I19215663
aI19251559
aS'-'
asS'SNORD77'
p2958
(lp2959
I173866300
aI173866370
aS'-'
asS'EFHD2'
p2960
(lp2961
I15409894
aI15430343
aS'+'
asS'SOAT1'
p2962
(lp2963
I179293713
aI179358679
aS'+'
asS'OTUD3'
p2964
(lp2965
I19882394
aI19912944
aS'+'
asS'SRGAP2'
p2966
(lp2967
I206205428
aI206464443
aS'+'
asS'REN'
p2968
(lp2969
I204154818
aI204166337
aS'-'
asS'CCDC181'
p2970
(lp2971
I169394869
aI169460669
aS'-'
asS'SPSB1'
p2972
(lp2973
I9292881
aI9369531
aS'+'
asS'OR6Y1'
p2974
(lp2975
I158547127
aI158548105
aS'-'
asS'LOC102723661'
p2976
(lp2977
I95992067
aI96022880
aS'+'
asS'STRIP1'
p2978
(lp2979
I110031576
aI110054641
aS'+'
asS'BSDC1'
p2980
(lp2981
I32364632
aI32394461
aS'-'
asS'SLC30A10'
p2982
(lp2983
I219914263
aI219928651
aS'-'
asS'TOR3A'
p2984
(lp2985
I179081976
aI179095994
aS'+'
asS'IFI44L'
p2986
(lp2987
I78620381
aI78646145
aS'+'
asS'S100A9'
p2988
(lp2989
I153357853
aI153361027
aS'+'
asS'S100A8'
p2990
(lp2991
I153390031
aI153422583
aS'-'
asS'S100A5'
p2992
(lp2993
I153537146
aI153541765
aS'-'
asS'S100A4'
p2994
(lp2995
I153543618
aI153545806
aS'-'
asS'S100A7'
p2996
(lp2997
I153457743
aI153460661
aS'-'
asS'S100A6'
p2998
(lp2999
I153534598
aI153535991
aS'-'
asS'S100A1'
p3000
(lp3001
I153628396
aI153632037
aS'+'
asS'OR2T33'
p3002
(lp3003
I248272851
aI248273814
aS'-'
asS'MIR378G'
p3004
(lp3005
I94745859
aI94745900
aS'-'
asS'MIR378F'
p3006
(lp3007
I23929069
aI23929147
aS'+'
asS'NOTCH2NLC'
p3008
(lp3009
I149390637
aI149465302
aS'+'
asS'NOTCH2NLB'
p3010
(lp3011
I148599806
aI148679764
aS'-'
asS'NOTCH2NLA'
p3012
(lp3013
I146151907
aI146229032
aS'-'
asS'ZRANB2'
p3014
(lp3015
I71063290
aI71081289
aS'-'
asS'SMCP'
p3016
(lp3017
I152878321
aI152885047
aS'+'
asS'MTOR-AS1'
p3018
(lp3019
I11143897
aI11149538
aS'+'
asS'OR6K6'
p3020
(lp3021
I158754815
aI158755847
aS'+'
asS'LEPR'
p3022
(lp3023
I65420651
aI65637493
aS'+'
asS'NOTCH2NLR'
p3024
(lp3025
I120723938
aI120793889
aS'+'
asS'ALG14'
p3026
(lp3027
I94974404
aI95072951
aS'-'
asS'TMEM63A'
p3028
(lp3029
I225845531
aI225882720
aS'-'
asS'MIR4781'
p3030
(lp3031
I54054078
aI54054154
aS'+'
asS'LINC01358'
p3032
(lp3033
I59020475
aI59088247
aS'+'
asS'LINC01359'
p3034
(lp3035
I64979576
aI65002476
aS'-'
asS'LINC01356'
p3036
(lp3037
I112820168
aI112850643
aS'-'
asS'LINC01354'
p3038
(lp3039
I234527890
aI234531779
aS'-'
asS'LINC01355'
p3040
(lp3041
I23281308
aI23285518
aS'-'
asS'LINC01352'
p3042
(lp3043
I220829254
aI220832428
aS'+'
asS'LINC01353'
p3044
(lp3045
I203287151
aI203288796
aS'+'
asS'TP73'
p3046
(lp3047
I3652564
aI3736201
aS'+'
asS'LINC01351'
p3048
(lp3049
I190478259
aI190481394
aS'+'
asS'LOC102724919'
p3050
(lp3051
I186435160
aI186470291
aS'+'
asS'AKR7L'
p3052
(lp3053
I19265981
aI19274122
aS'-'
asS'RNVU1-8'
p3054
(lp3055
I147084615
aI147084756
aS'-'
asS'RPS10P7'
p3056
(lp3057
I201519903
aI201520592
aS'+'
asS'GJA9'
p3058
(lp3059
I38874066
aI38881626
aS'-'
asS'RNVU1-4'
p3060
(lp3061
I120942599
aI120942763
aS'+'
asS'RNVU1-6'
p3062
(lp3063
I146052080
aI146052244
aS'-'
asS'RNVU1-7'
p3064
(lp3065
I148038752
aI148038916
aS'-'
asS'LMOD1'
p3066
(lp3067
I201896455
aI201946588
aS'-'
asS'RNVU1-1'
p3068
(lp3069
I148362369
aI148362533
aS'-'
asS'IL23R'
p3070
(lp3071
I67166485
aI67259967
aS'+'
asS'ARL8A'
p3072
(lp3073
I202133403
aI202144743
aS'-'
asS'LOC101927787'
p3074
(lp3075
I234646288
aI234660924
aS'+'
asS'C1orf68'
p3076
(lp3077
I152719521
aI152720429
aS'+'
asS'C1orf61'
p3078
(lp3079
I156404251
aI156429548
aS'-'
asS'MIR3659'
p3080
(lp3081
I38089230
aI38089329
aS'+'
asS'MIR3658'
p3082
(lp3083
I165907920
aI165907976
aS'+'
asS'PGD'
p3084
(lp3085
I10398991
aI10420511
aS'+'
asS'KAZN'
p3086
(lp3087
I14598716
aI15118048
aS'+'
asS'B3GALT2'
p3088
(lp3089
I193178729
aI193186613
aS'-'
asS'ATP13A2'
p3090
(lp3091
I16985957
aI17011972
aS'-'
asS'NUDC'
p3092
(lp3093
I26921721
aI26946871
aS'+'
asS'UHMK1'
p3094
(lp3095
I162497173
aI162529629
aS'+'
asS'LINC01770'
p3096
(lp3097
I1430156
aI1434573
aS'-'
asS'LINC01771'
p3098
(lp3099
I53328232
aI53336509
aS'+'
asS'LINC01772'
p3100
(lp3101
I16460947
aI16468481
aS'+'
asS'LINC01774'
p3102
(lp3103
I208972453
aI208975307
aS'+'
asS'LINC01776'
p3104
(lp3105
I98210710
aI98272658
aS'+'
asS'LINC01777'
p3106
(lp3107
I4412050
aI4424684
aS'+'
asS'LINC01778'
p3108
(lp3109
I30824651
aI30834284
aS'+'
asS'LRRIQ3'
p3110
(lp3111
I74026017
aI74198187
aS'-'
asS'IVNS1ABP'
p3112
(lp3113
I185296387
aI185317329
aS'-'
asS'LOC101926964'
p3114
(lp3115
I60659630
aI60825584
aS'-'
asS'PTPN22'
p3116
(lp3117
I113813810
aI113871759
aS'-'
asS'LOC101927560'
p3118
(lp3119
I83801515
aI83860546
aS'-'
asS'C1orf115'
p3120
(lp3121
I220690285
aI220699157
aS'+'
asS'COA7'
p3122
(lp3123
I52686341
aI52698366
aS'-'
asS'COA6'
p3124
(lp3125
I234373436
aI234384049
aS'+'
asS'PDIK1L'
p3126
(lp3127
I26111164
aI26125548
aS'+'
asS'PLEKHO1'
p3128
(lp3129
I150149433
aI150160065
aS'+'
asS'LYPLAL1-AS1'
p3130
(lp3131
I219435157
aI219557324
aS'-'
asS'E2F2'
p3132
(lp3133
I23506427
aI23531220
aS'-'
asS'EXOC8'
p3134
(lp3135
I231332730
aI231337872
aS'-'
asS'LOC105378663'
p3136
(lp3137
I38873400
aI38876226
aS'+'
asS'CEPT1'
p3138
(lp3139
I111139382
aI111185104
aS'+'
asS'CA6'
p3140
(lp3141
I8945833
aI8975089
aS'+'
asS'ACBD3'
p3142
(lp3143
I226144678
aI226186722
aS'-'
asS'ACBD6'
p3144
(lp3145
I180288216
aI180502887
aS'-'
asS'LOC101927143'
p3146
(lp3147
I224208747
aI224213279
aS'-'
asS'CAMK2N1'
p3148
(lp3149
I20482390
aI20486235
aS'-'
asS'GJA9-MYCBP'
p3150
(lp3151
I38862489
aI38881626
aS'-'
asS'MIR7846'
p3152
(lp3153
I12166942
aI12167038
aS'+'
asS'NFIA-AS1'
p3154
(lp3155
I61248944
aI61253518
aS'-'
asS'EVA1B'
p3156
(lp3157
I36322029
aI36324154
aS'-'
asS'UFC1'
p3158
(lp3159
I161153743
aI161158856
aS'+'
asS'VTCN1'
p3160
(lp3161
I117143586
aI117210960
aS'-'
asS'PYCR2'
p3162
(lp3163
I225919876
aI225924340
aS'-'
asS'DAB1'
p3164
(lp3165
I56994777
aI58250547
aS'-'
asS'USP24'
p3166
(lp3167
I55066358
aI55215366
aS'-'
asS'USP21'
p3168
(lp3169
I161159463
aI161165726
aS'+'
asS'ADAMTS4'
p3170
(lp3171
I161189728
aI161199053
aS'-'
asS'CTBS'
p3172
(lp3173
I84553120
aI84574480
aS'-'
asS'ARHGEF2'
p3174
(lp3175
I155946838
aI155979560
aS'-'
asS'GNG12'
p3176
(lp3177
I67701465
aI67833472
aS'-'
asS'LOC100129046'
p3178
(lp3179
I93591967
aI93600030
aS'+'
asS'C1orf87'
p3180
(lp3181
I59990393
aI60073770
aS'-'
asS'URB2'
p3182
(lp3183
I229626215
aI229660200
aS'+'
asS'BECN2'
p3184
(lp3185
I241957766
aI241959062
aS'+'
asS'MIR7156'
p3186
(lp3187
I77060142
aI77060202
aS'+'
asS'CENPL'
p3188
(lp3189
I173799549
aI173824639
aS'-'
asS'TSEN15'
p3190
(lp3191
I184051650
aI184097460
aS'+'
asS'HPCAL4'
p3192
(lp3193
I39678647
aI39691485
aS'-'
asS'CENPF'
p3194
(lp3195
I214603194
aI214664571
aS'+'
asS'DFFA'
p3196
(lp3197
I10460545
aI10472556
aS'-'
asS'DFFB'
p3198
(lp3199
I3857266
aI3885429
aS'+'
asS'PEX11B'
p3200
(lp3201
I145911347
aI145918924
aS'-'
asS'MIR135B'
p3202
(lp3203
I205448301
aI205448398
aS'-'
asS'RNF19B'
p3204
(lp3205
I32936445
aI32964813
aS'-'
asS'SLC41A1'
p3206
(lp3207
I205789092
aI205813196
aS'-'
asS'LIN9'
p3208
(lp3209
I226231148
aI226309748
aS'-'
asS'MIR429'
p3210
(lp3211
I1169004
aI1169087
aS'+'
asS'SFN'
p3212
(lp3213
I26863137
aI26864457
aS'+'
asS'IPP'
p3214
(lp3215
I45694325
aI45750813
aS'-'
asS'HCRTR1'
p3216
(lp3217
I31617699
aI31627318
aS'+'
asS'LOC100129138'
p3218
(lp3219
I104073022
aI104077071
aS'+'
asS'WNT2B'
p3220
(lp3221
I112466540
aI112521288
aS'+'
asS'NGF'
p3222
(lp3223
I115285915
aI115338236
aS'-'
asS'SNORD13C'
p3224
(lp3225
I150261693
aI150261797
aS'+'
asS'HSPB7'
p3226
(lp3227
I16014027
aI16019594
aS'-'
asS'TMEM35B'
p3228
(lp3229
I34981525
aI34985347
aS'-'
asS'MIR1278'
p3230
(lp3231
I193136502
aI193136583
aS'+'
asS'ZNF695'
p3232
(lp3233
I246945546
aI247008093
aS'-'
asS'ZNF697'
p3234
(lp3235
I119619376
aI119647767
aS'-'
asS'FHAD1'
p3236
(lp3237
I15247224
aI15398127
aS'+'
asS'CNTN2'
p3238
(lp3239
I205042936
aI205078272
aS'+'
asS'LOC643441'
p3240
(lp3241
I113196780
aI113206253
aS'-'
asS'LAMB3'
p3242
(lp3243
I209614872
aI209652425
aS'-'
asS'ARHGEF10L'
p3244
(lp3245
I17539834
aI17697875
aS'+'
asS'LCE1F'
p3246
(lp3247
I152776371
aI152776969
aS'+'
asS'NEK7'
p3248
(lp3249
I198156977
aI198322418
aS'+'
asS'LCE1D'
p3250
(lp3251
I152796750
aI152798181
aS'+'
asS'LCE1E'
p3252
(lp3253
I152786276
aI152788425
aS'+'
asS'LCE1B'
p3254
(lp3255
I152811970
aI152813109
aS'+'
asS'LCE1C'
p3256
(lp3257
I152804834
aI152806631
aS'-'
asS'HRNR'
p3258
(lp3259
I152212075
aI152224196
aS'-'
asS'LCE1A'
p3260
(lp3261
I152827472
aI152828097
aS'+'
asS'ADAR'
p3262
(lp3263
I154582057
aI154627997
aS'-'
asS'SCNM1'
p3264
(lp3265
I151166021
aI151170297
aS'+'
asS'FAM129A'
p3266
(lp3267
I184791031
aI184974508
aS'-'
asS'CDC42BPA'
p3268
(lp3269
I226989857
aI227318492
aS'-'
asS'SF3A3'
p3270
(lp3271
I37956979
aI37990110
aS'-'
asS'OR14A16'
p3272
(lp3273
I247814799
aI247815729
aS'-'
asS'GPR161'
p3274
(lp3275
I168079541
aI168137667
aS'-'
asS'LINC01645'
p3276
(lp3277
I177351585
aI177366458
aS'+'
asS'G0S2'
p3278
(lp3279
I209675324
aI209676390
aS'+'
asS'ZZZ3'
p3280
(lp3281
I77562415
aI77683427
aS'-'
asS'RPS7P5'
p3282
(lp3283
I240007523
aI240013260
aS'+'
asS'ASTN1'
p3284
(lp3285
I176857304
aI177164904
aS'-'
asS'SNORD76'
p3286
(lp3287
I173866634
aI173866715
aS'-'
asS'SHE'
p3288
(lp3289
I154479482
aI154502412
aS'-'
asS'SNORD74'
p3290
(lp3291
I173867673
aI173867745
aS'-'
asS'SNORD75'
p3292
(lp3293
I173866878
aI173866938
aS'-'
asS'SNORD78'
p3294
(lp3295
I173865621
aI173865686
aS'-'
asS'SNORD79'
p3296
(lp3297
I173865349
aI173865430
aS'-'
asS'LOC100287497'
p3298
(lp3299
I223992729
aI224033859
aS'+'
asS'JTB'
p3300
(lp3301
I153974268
aI153977975
aS'-'
asS'NASP'
p3302
(lp3303
I45583987
aI45618906
aS'+'
asS'OR2M2'
p3304
(lp3305
I248179985
aI248181029
aS'+'
asS'LOC100505795'
p3306
(lp3307
I164769115
aI164774641
aS'-'
asS'SASS6'
p3308
(lp3309
I100083545
aI100133095
aS'-'
asS'ADSS'
p3310
(lp3311
I244408491
aI244452060
aS'-'
asS'UBL4B'
p3312
(lp3313
I110112439
aI110113947
aS'+'
asS'TPM3'
p3314
(lp3315
I154155303
aI154192100
aS'-'
asS'FOXE3'
p3316
(lp3317
I47416284
aI47418052
aS'+'
asS'RNPEP'
p3318
(lp3319
I201982637
aI202006147
aS'+'
asS'LOC105373159'
p3320
(lp3321
I229256891
aI229271154
aS'-'
asS'INTS11'
p3322
(lp3323
I1311584
aI1324687
aS'-'
asS'MGC34796'
p3324
(lp3325
I61654241
aI61656128
aS'+'
asS'FAM167B'
p3326
(lp3327
I32247216
aI32248860
aS'+'
asS'LOC101929224'
p3328
(lp3329
I200669506
aI200694250
aS'+'
asS'KIAA1614-AS1'
p3330
(lp3331
I180949690
aI180954887
aS'-'
asS'ZNF436'
p3332
(lp3333
I23359447
aI23369864
aS'-'
asS'TBX15'
p3334
(lp3335
I118883042
aI118989556
aS'-'
asS'TBX19'
p3336
(lp3337
I168281039
aI168314428
aS'+'
asS'FBXO28'
p3338
(lp3339
I224114086
aI224162047
aS'+'
asS'CADM3'
p3340
(lp3341
I159171563
aI159203313
aS'+'
asS'LURAP1'
p3342
(lp3343
I46203333
aI46221256
aS'+'
asS'TNFSF18'
p3344
(lp3345
I173041219
aI173050963
aS'-'
asS'CCDC190'
p3346
(lp3347
I162854296
aI162868815
aS'-'
asS'GNRHR2'
p3348
(lp3349
I145919012
aI145925341
aS'+'
asS'GNB1'
p3350
(lp3351
I1785284
aI1891117
aS'-'
asS'LOC729970'
p3352
(lp3353
I94928027
aI94963270
aS'+'
asS'SNORD167'
p3354
(lp3355
I1304728
aI1304812
aS'-'
asS'TMEM9'
p3356
(lp3357
I201134770
aI201171582
aS'-'
asS'TENT5C'
p3358
(lp3359
I117605981
aI117628389
aS'+'
asS'MIG7'
p3360
(lp3361
I93752923
aI93775383
aS'-'
asS'NUDT17'
p3362
(lp3363
I145845629
aI145848953
aS'+'
asS'CTSK'
p3364
(lp3365
I150796207
aI150808260
aS'-'
asS'SNORD160'
p3366
(lp3367
I44762034
aI44762107
aS'+'
asS'LGALS8-AS1'
p3368
(lp3369
I236523068
aI236524508
aS'-'
asS'LINC01562'
p3370
(lp3371
I51195094
aI51235096
aS'-'
asS'ARNT'
p3372
(lp3373
I150809704
aI150876768
aS'-'
asS'IFI6'
p3374
(lp3375
I27666060
aI27672213
aS'-'
asS'HHLA3'
p3376
(lp3377
I70354809
aI70368022
aS'+'
asS'RTCA'
p3378
(lp3379
I100266157
aI100292769
aS'+'
asS'ACTL8'
p3380
(lp3381
I17755312
aI17827063
aS'+'
asS'STX6'
p3382
(lp3383
I180972712
aI181023121
aS'-'
asS'SNHG28'
p3384
(lp3385
I159834477
aI159855037
aS'-'
asS'OR2T29'
p3386
(lp3387
I248558543
aI248559491
aS'-'
asS'SLAMF9'
p3388
(lp3389
I159951491
aI159954254
aS'-'
asS'SLAMF8'
p3390
(lp3391
I159826688
aI159837492
aS'+'
asS'SLAMF7'
p3392
(lp3393
I160739056
aI160754818
aS'+'
asS'SLAMF6'
p3394
(lp3395
I160485029
aI160523262
aS'-'
asS'OR2T27'
p3396
(lp3397
I248649930
aI248650884
aS'-'
asS'ZBTB8OS'
p3398
(lp3399
I32620822
aI32650932
aS'-'
asS'SLAMF1'
p3400
(lp3401
I160608099
aI160647311
aS'-'
asS'CFHR2'
p3402
(lp3403
I196943737
aI196959620
aS'+'
asS'TGFB2'
p3404
(lp3405
I218345283
aI218444619
aS'+'
asS'PHF13'
p3406
(lp3407
I6613695
aI6624033
aS'+'
asS'TP73-AS1'
p3408
(lp3409
I3735983
aI3747373
aS'-'
asS'PLPP3'
p3410
(lp3411
I56494746
aI56579584
aS'-'
asS'CFHR1'
p3412
(lp3413
I196819730
aI196832189
aS'+'
asS'ECE1'
p3414
(lp3415
I21217246
aI21345541
aS'-'
asS'SLC5A9'
p3416
(lp3417
I48222684
aI48248644
aS'+'
asS'MEGF6'
p3418
(lp3419
I3487941
aI3611495
aS'-'
asS'IQGAP3'
p3420
(lp3421
I156525404
aI156572604
aS'-'
asS'GBAP1'
p3422
(lp3423
I155213824
aI155227534
aS'-'
asS'LINC01362'
p3424
(lp3425
I82903182
aI83166815
aS'+'
asS'LINC01361'
p3426
(lp3427
I82973882
aI82986208
aS'-'
asS'LINC01360'
p3428
(lp3429
I73306169
aI73338877
aS'+'
asS'CASQ1'
p3430
(lp3431
I160190494
aI160201886
aS'+'
asS'CFHR4'
p3432
(lp3433
I196888013
aI196918713
aS'+'
asS'RAVER2'
p3434
(lp3435
I64744972
aI64833231
aS'+'
asS'CASQ2'
p3436
(lp3437
I115700004
aI115768805
aS'-'
asS'ALX3'
p3438
(lp3439
I110059869
aI110070672
aS'-'
asS'LINC01160'
p3440
(lp3441
I111599006
aI111608318
aS'-'
asS'FCRL1'
p3442
(lp3443
I157794403
aI157820150
aS'-'
asS'FCRL2'
p3444
(lp3445
I157745732
aI157777132
aS'-'
asS'FCRL3'
p3446
(lp3447
I157676480
aI157700872
aS'-'
asS'AQP10'
p3448
(lp3449
I154321115
aI154325325
aS'+'
asS'FCRL5'
p3450
(lp3451
I157513376
aI157552520
aS'-'
asS'FCRL6'
p3452
(lp3453
I159800510
aI159816257
aS'+'
asS'OPRD1'
p3454
(lp3455
I28812141
aI28863696
aS'+'
asS'LINC01389'
p3456
(lp3457
I47380795
aI47437317
aS'-'
asS'ATAD3C'
p3458
(lp3459
I1449688
aI1470158
aS'+'
asS'ATAD3B'
p3460
(lp3461
I1471754
aI1496204
aS'+'
asS'ATAD3A'
p3462
(lp3463
I1512142
aI1534687
aS'+'
asS'LOC653513'
p3464
(lp3465
I149197558
aI149201146
aS'-'
asS'FCRLB'
p3466
(lp3467
I161721543
aI161728143
aS'+'
asS'CHRM3'
p3468
(lp3469
I239386929
aI239915449
aS'+'
asS'TXLNA'
p3470
(lp3471
I32179743
aI32198285
aS'+'
asS'CELSR2'
p3472
(lp3473
I109250018
aI109275756
aS'+'
asS'COL24A1'
p3474
(lp3475
I85729232
aI86157036
aS'-'
asS'AIM2'
p3476
(lp3477
I159062483
aI159076901
aS'-'
asS'VAMP3'
p3478
(lp3479
I7771268
aI7781432
aS'+'
asS'VAMP4'
p3480
(lp3481
I171700155
aI171742239
aS'-'
asS'SKINT1L'
p3482
(lp3483
I48101714
aI48182428
aS'-'
asS'SCARNA18B'
p3484
(lp3485
I193057280
aI193057415
aS'-'
asS'LINC01704'
p3486
(lp3487
I158132043
aI158140640
aS'-'
asS'LINC01707'
p3488
(lp3489
I69055897
aI69185002
aS'+'
asS'DNM3OS'
p3490
(lp3491
I172136878
aI172144835
aS'-'
asS'LINC01703'
p3492
(lp3493
I226083574
aI226090289
aS'+'
asS'BOLA1'
p3494
(lp3495
I149899581
aI149900795
aS'+'
asS'ILF2'
p3496
(lp3497
I153661787
aI153671028
aS'-'
asS'LINC01708'
p3498
(lp3499
I99472419
aI99487804
aS'-'
asS'LOC284577'
p3500
(lp3501
I205456057
aI205469024
aS'+'
asS'POU2F1'
p3502
(lp3503
I167220828
aI167427345
aS'+'
asS'C1orf127'
p3504
(lp3505
I10946472
aI10982037
aS'-'
asS'C1orf122'
p3506
(lp3507
I37807800
aI37809454
aS'+'
asS'TMOD4'
p3508
(lp3509
I151169986
aI151176071
aS'-'
asS'SLC6A9'
p3510
(lp3511
I43996482
aI44031492
aS'-'
asS'IL20'
p3512
(lp3513
I206865808
aI206869223
aS'+'
asS'IL24'
p3514
(lp3515
I206897442
aI206904139
aS'+'
asS'PDIA3P1'
p3516
(lp3517
I147177850
aI147179949
aS'+'
asS'KIF2C'
p3518
(lp3519
I44739817
aI44767766
aS'+'
asS'KNCN'
p3520
(lp3521
I46545637
aI46551657
aS'-'
asS'CYMP'
p3522
(lp3523
I110480765
aI110491269
aS'+'
asS'SERPINC1'
p3524
(lp3525
I173903518
aI173917327
aS'-'
asS'IL12RB2'
p3526
(lp3527
I67307363
aI67396900
aS'+'
asS'IRF2BP2'
p3528
(lp3529
I234604268
aI234609525
aS'-'
asS'NEXN'
p3530
(lp3531
I77888514
aI77943893
aS'+'
asS'DIO1'
p3532
(lp3533
I53894186
aI53911086
aS'+'
asS'ANKRD45'
p3534
(lp3535
I173608335
aI173669862
aS'-'
asS'MIR1295A'
p3536
(lp3537
I171101727
aI171101806
aS'-'
asS'LOC102724450'
p3538
(lp3539
I6204839
aI6205780
aS'-'
asS'LRRC7'
p3540
(lp3541
I69567921
aI70144363
aS'+'
asS'ACOT7'
p3542
(lp3543
I6264271
aI6393766
aS'-'
asS'USP33'
p3544
(lp3545
I77695988
aI77759879
aS'-'
asS'SCARNA3'
p3546
(lp3547
I175968396
aI175968540
aS'-'
asS'SCARNA2'
p3548
(lp3549
I109100192
aI109100612
aS'+'
asS'SCARNA1'
p3550
(lp3551
I27834400
aI27834566
aS'+'
asS'TOR1AIP2'
p3552
(lp3553
I179839966
aI179877806
aS'-'
asS'PLD5'
p3554
(lp3555
I242088386
aI242524696
aS'-'
asS'TOR1AIP1'
p3556
(lp3557
I179882041
aI179920077
aS'+'
asS'EMC1-AS1'
p3558
(lp3559
I19210385
aI19240704
aS'+'
asS'RNF187'
p3560
(lp3561
I228487366
aI228496188
aS'+'
asS'RNF186'
p3562
(lp3563
I19814028
aI19815278
aS'-'
asS'RBBP5'
p3564
(lp3565
I205086141
aI205122022
aS'-'
asS'RBBP4'
p3566
(lp3567
I32651147
aI32686211
aS'+'
asS'RUNX3'
p3568
(lp3569
I24899510
aI24965010
aS'-'
asS'RAB42'
p3570
(lp3571
I28592199
aI28595443
aS'+'
asS'SNHG3'
p3572
(lp3573
I28505942
aI28510892
aS'+'
asS'APOBEC4'
p3574
(lp3575
I183646275
aI183653313
aS'-'
asS'HIST3H3'
p3576
(lp3577
I228424844
aI228425325
aS'-'
asS'PIP5K1A'
p3578
(lp3579
I151198543
aI151249531
aS'+'
asS'CHRM3-AS2'
p3580
(lp3581
I239707125
aI239719119
aS'-'
asS'HHIPL2'
p3582
(lp3583
I222522259
aI222548102
aS'-'
asS'DDI2'
p3584
(lp3585
I15617457
aI15661057
aS'+'
asS'ADORA1'
p3586
(lp3587
I203127725
aI203167405
aS'+'
asS'ENAH'
p3588
(lp3589
I225486829
aI225653143
aS'-'
asS'DOCK7'
p3590
(lp3591
I62454725
aI62688368
aS'-'
asS'KIF26B'
p3592
(lp3593
I245154984
aI245709432
aS'+'
asS'LEPROT'
p3594
(lp3595
I65420447
aI65436007
aS'+'
asS'FMO6P'
p3596
(lp3597
I171137739
aI171161563
aS'+'
asS'CC2D1B'
p3598
(lp3599
I52350592
aI52366205
aS'-'
asS'SKI'
p3600
(lp3601
I2228694
aI2310213
aS'+'
asS'FNBP1L'
p3602
(lp3603
I93448130
aI93554661
aS'+'
asS'SLC9A1'
p3604
(lp3605
I27098808
aI27155130
aS'-'
asS'UBAP2L'
p3606
(lp3607
I154220848
aI154271510
aS'+'
asS'JUN'
p3608
(lp3609
I58780790
aI58784113
aS'-'
asS'RBM34'
p3610
(lp3611
I235131182
aI235161616
aS'-'
asS'SCNN1D'
p3612
(lp3613
I1280435
aI1292029
aS'+'
asS'ZNF669'
p3614
(lp3615
I247099961
aI247104372
aS'-'
asS'SYT14'
p3616
(lp3617
I209938173
aI210164288
aS'+'
asS'MIR181A1'
p3618
(lp3619
I198859043
aI198859153
aS'-'
asS'EPHB2'
p3620
(lp3621
I22710837
aI22921500
aS'+'
asS'MIR1262'
p3622
(lp3623
I68183517
aI68183610
aS'-'
asS'NEGR1-IT1'
p3624
(lp3625
I71794231
aI71837012
aS'-'
asS'CYP4Z1'
p3626
(lp3627
I47067487
aI47118320
aS'+'
asS'RALGPS2'
p3628
(lp3629
I178725146
aI178921842
aS'+'
asS'MIER1'
p3630
(lp3631
I66924894
aI66988619
aS'+'
asS'PARP1'
p3632
(lp3633
I226360690
aI226408100
aS'-'
asS'ESPNP'
p3634
(lp3635
I16691217
aI16720157
aS'-'
asS'MT1HL1'
p3636
(lp3637
I237004102
aI237004418
aS'-'
asS'LAMC2'
p3638
(lp3639
I183186038
aI183245127
aS'+'
asS'LAMC1'
p3640
(lp3641
I183023459
aI183145592
aS'+'
asS'KIF26B-AS1'
p3642
(lp3643
I245206443
aI245234517
aS'-'
asS'ALDH4A1'
p3644
(lp3645
I18871429
aI18902799
aS'-'
asS'RWDD3'
p3646
(lp3647
I95234154
aI95247225
aS'+'
asS'CDC14A'
p3648
(lp3649
I100352466
aI100520277
aS'+'
asS'MRPS21'
p3650
(lp3651
I150293841
aI150308979
aS'+'
asS'ATP6V1G3'
p3652
(lp3653
I198523221
aI198540945
aS'-'
asS'LOC101928118'
p3654
(lp3655
I95163218
aI95233982
aS'-'
asS'LAMTOR5'
p3656
(lp3657
I110401254
aI110407924
aS'-'
asS'NVL'
p3658
(lp3659
I224227333
aI224330189
aS'-'
asS'PPP2R5A'
p3660
(lp3661
I212285536
aI212361863
aS'+'
asS'LAMTOR2'
p3662
(lp3663
I156054725
aI156058510
aS'+'
asS'NADK'
p3664
(lp3665
I1751231
aI1780147
aS'-'
asS'SMIM12'
p3666
(lp3667
I34850361
aI34859816
aS'-'
asS'C2CD4D'
p3668
(lp3669
I151837862
aI151840557
aS'-'
asS'LAX1'
p3670
(lp3671
I203765155
aI203776352
aS'+'
asS'MOB3C'
p3672
(lp3673
I46607714
aI46616891
aS'-'
asS'FBXO2'
p3674
(lp3675
I11648360
aI11654831
aS'-'
asS'CHIAP2'
p3676
(lp3677
I111280523
aI111286108
aS'+'
asS'MIR921'
p3678
(lp3679
I166154742
aI166154798
aS'-'
asS'FBXO6'
p3680
(lp3681
I11664199
aI11674352
aS'+'
asS'KCNA2'
p3682
(lp3683
I110593579
aI110631474
aS'-'
asS'KCNA3'
p3684
(lp3685
I110653560
aI110673454
aS'-'
asS'SNORD81'
p3686
(lp3687
I173864145
aI173864222
aS'-'
asS'SNORD80'
p3688
(lp3689
I173864832
aI173864903
aS'-'
asS'MIR2682'
p3690
(lp3691
I98045242
aI98045351
aS'-'
asS'JMJD4'
p3692
(lp3693
I227731188
aI227735411
aS'-'
asS'XCL2'
p3694
(lp3695
I168540764
aI168543997
aS'-'
asS'OPTC'
p3696
(lp3697
I203494142
aI203508949
aS'+'
asS'FHL3'
p3698
(lp3699
I37996769
aI38005515
aS'-'
asS'OVAAL'
p3700
(lp3701
I180558973
aI180566518
aS'+'
asS'RPS27'
p3702
(lp3703
I153990754
aI153992155
aS'+'
asS'TAL1'
p3704
(lp3705
I47216289
aI47232335
aS'-'
asS'CCDC30'
p3706
(lp3707
I42456069
aI42654190
aS'+'
asS'FOXD2'
p3708
(lp3709
I47436016
aI47440691
aS'+'
asS'FOXD3'
p3710
(lp3711
I63323058
aI63325126
aS'+'
asS'PYHIN1'
p3712
(lp3713
I158931546
aI158977059
aS'+'
asS'PLA2G2A'
p3714
(lp3715
I19975430
aI19980439
aS'-'
asS'PLA2G2C'
p3716
(lp3717
I20163091
aI20177364
aS'-'
asS'PLA2G2E'
p3718
(lp3719
I19920306
aI19923617
aS'-'
asS'PLA2G2D'
p3720
(lp3721
I20112649
aI20119566
aS'-'
asS'PINK1-AS'
p3722
(lp3723
I20642656
aI20652193
aS'-'
asS'PLA2G2F'
p3724
(lp3725
I20139329
aI20150386
aS'+'
asS'UCHL5'
p3726
(lp3727
I193012252
aI193060107
aS'-'
asS'LCE2C'
p3728
(lp3729
I152675314
aI152676573
aS'+'
asS'AGRN'
p3730
(lp3731
I1020122
aI1056119
aS'+'
asS'LCE2A'
p3732
(lp3733
I152698363
aI152699442
aS'+'
asS'SCARNA26B'
p3734
(lp3735
I155783684
aI155783832
aS'-'
asS'LCE2D'
p3736
(lp3737
I152663410
aI152664659
aS'+'
asS'MAGOH'
p3738
(lp3739
I53226899
aI53238518
aS'-'
asS'RUSC1'
p3740
(lp3741
I155320848
aI155331118
aS'+'
asS'LOC101928324'
p3742
(lp3743
I26462756
aI26467537
aS'-'
asS'PPIH'
p3744
(lp3745
I42658376
aI42676758
aS'+'
asS'GATAD2B'
p3746
(lp3747
I153804906
aI153922975
aS'-'
asS'PPIE'
p3748
(lp3749
I39738844
aI39763914
aS'+'
asS'GPSM2'
p3750
(lp3751
I108876980
aI108934335
aS'+'
asS'GPA33'
p3752
(lp3753
I167052835
aI167090631
aS'-'
asS'TGFB2-AS1'
p3754
(lp3755
I218344195
aI218345678
aS'-'
asS'C1orf189'
p3756
(lp3757
I154199085
aI154206365
aS'-'
asS'NECAP2'
p3758
(lp3759
I16440671
aI16460089
aS'+'
asS'RPL31P11'
p3760
(lp3761
I161683702
aI161685252
aS'-'
asS'HYI'
p3762
(lp3763
I43451002
aI43453989
aS'-'
asS'LOC284581'
p3764
(lp3765
I205862078
aI205896087
aS'+'
asS'GBP1P1'
p3766
(lp3767
I89407678
aI89424934
aS'+'
asS'SNAP47'
p3768
(lp3769
I227728167
aI227781231
aS'+'
asS'DCLRE1B'
p3770
(lp3771
I113904618
aI113914086
aS'+'
asS'H6PD'
p3772
(lp3773
I9234803
aI9271335
aS'+'
asS'SCAMP3'
p3774
(lp3775
I155255978
aI155262385
aS'-'
asS'CLCNKB'
p3776
(lp3777
I16043735
aI16057326
aS'+'
asS'WASF2'
p3778
(lp3779
I27404225
aI27490187
aS'-'
asS'NBPF18P'
p3780
(lp3781
I152018277
aI152022509
aS'+'
asS'CFAP45'
p3782
(lp3783
I159872363
aI159900116
aS'-'
asS'THEMIS2'
p3784
(lp3785
I27872542
aI27886685
aS'+'
asS'OR2T10'
p3786
(lp3787
I248592829
aI248593768
aS'-'
asS'OR2T11'
p3788
(lp3789
I248626177
aI248627128
aS'-'
asS'CYP4A22'
p3790
(lp3791
I47137424
aI47148854
aS'+'
asS'OR2C3'
p3792
(lp3793
I247530131
aI247533839
aS'-'
asS'PDZK1'
p3794
(lp3795
I145670852
aI145707400
aS'-'
asS'RSRP1'
p3796
(lp3797
I25242236
aI25338254
aS'-'
asS'RPS15AP10'
p3798
(lp3799
I45645780
aI45646685
aS'-'
asS'GPX7'
p3800
(lp3801
I52602370
aI52609051
aS'+'
asS'AMY2B'
p3802
(lp3803
I103554643
aI103579534
aS'+'
asS'OR2M5'
p3804
(lp3805
I248145147
aI248146086
aS'+'
asS'OR2M4'
p3806
(lp3807
I248238928
aI248239864
aS'+'
asS'OR2M7'
p3808
(lp3809
I248323629
aI248324568
aS'-'
asS'OR2M3'
p3810
(lp3811
I248203067
aI248204006
aS'+'
asS'TP53BP2'
p3812
(lp3813
I223779892
aI223845972
aS'-'
asS'HES2'
p3814
(lp3815
I6415233
aI6419919
aS'-'
asS'LZIC'
p3816
(lp3817
I9922112
aI9943427
aS'-'
asS'NEGR1'
p3818
(lp3819
I71395942
aI72282539
aS'-'
asS'SNRNP40'
p3820
(lp3821
I31259567
aI31296797
aS'-'
asS'BPNT1'
p3822
(lp3823
I220057481
aI220089853
aS'-'
asS'PITHD1'
p3824
(lp3825
I23778385
aI23788232
aS'+'
asS'C1orf140'
p3826
(lp3827
I221329927
aI221336296
aS'-'
asS'LINC01364'
p3828
(lp3829
I87353525
aI87371655
aS'-'
asS'LINC02574'
p3830
(lp3831
I27660327
aI27662722
aS'-'
asS'BCL9'
p3832
(lp3833
I147541500
aI147626219
aS'+'
asS'FASLG'
p3834
(lp3835
I172659007
aI172666872
aS'+'
asS'C1orf143'
p3836
(lp3837
I218510094
aI218525978
aS'+'
asS'HECTD3'
p3838
(lp3839
I45002547
aI45011355
aS'-'
asS'LINC01398'
p3840
(lp3841
I46446672
aI46449704
aS'-'
asS'BCL2L15'
p3842
(lp3843
I113876813
aI113887547
aS'-'
asS'ADPRHL2'
p3844
(lp3845
I36088851
aI36093932
aS'+'
asS'LYPLA2'
p3846
(lp3847
I23791155
aI23795539
aS'+'
asS'LINC01397'
p3848
(lp3849
I110082687
aI110109719
aS'+'
asS'GLRX2'
p3850
(lp3851
I193096466
aI193106535
aS'-'
asS'SLC25A3P1'
p3852
(lp3853
I53438369
aI53440020
aS'-'
asS'CCDC28B'
p3854
(lp3855
I32200385
aI32205390
aS'+'
asS'AKT3'
p3856
(lp3857
I243488232
aI243843282
aS'-'
asS'LOC101929901'
p3858
(lp3859
I41375003
aI41375669
aS'-'
asS'S100A11'
p3860
(lp3861
I152032505
aI152037035
aS'-'
asS'KLHL21'
p3862
(lp3863
I6590723
aI6602898
aS'-'
asS'S100A13'
p3864
(lp3865
I153618799
aI153634092
aS'-'
asS'S100A12'
p3866
(lp3867
I153373707
aI153375599
aS'-'
asS'FAM110D'
p3868
(lp3869
I26159019
aI26162628
aS'+'
asS'S100A16'
p3870
(lp3871
I153606882
aI153613168
aS'-'
asS'LINC00623'
p3872
(lp3873
I120912237
aI120955811
aS'+'
asS'TRMT13'
p3874
(lp3875
I100133149
aI100150498
aS'+'
asS'AHCYL1'
p3876
(lp3877
I109984764
aI110023742
aS'+'
asS'LINC00624'
p3878
(lp3879
I147382191
aI147517875
aS'-'
asS'LINC00626'
p3880
(lp3881
I168786940
aI168792888
aS'+'
asS'LINC00628'
p3882
(lp3883
I204368429
aI204369719
aS'-'
asS'MIR4454'
p3884
(lp3885
I229174682
aI229174801
aS'-'
asS'DNM3-IT1'
p3886
(lp3887
I171864191
aI171864687
aS'+'
asS'BRINP2'
p3888
(lp3889
I177171387
aI177282422
aS'+'
asS'LOC100996263'
p3890
(lp3891
I117596831
aI117605770
aS'-'
asS'LINC01714'
p3892
(lp3893
I8208671
aI8215208
aS'+'
asS'LINC01715'
p3894
(lp3895
I28643255
aI28648799
aS'+'
asS'PRXL2B'
p3896
(lp3897
I2586459
aI2591469
aS'+'
asS'CAPN2'
p3898
(lp3899
I223701592
aI223776018
aS'+'
asS'LINC01710'
p3900
(lp3901
I218912756
aI218918511
aS'-'
asS'LOC100506985'
p3902
(lp3903
I24539273
aI24556024
aS'-'
asS'CAPN9'
p3904
(lp3905
I230747383
aI230801772
aS'+'
asS'CAPN8'
p3906
(lp3907
I223541608
aI223665734
aS'-'
asS'NBPF4'
p3908
(lp3909
I108223340
aI108244081
aS'-'
asS'NUF2'
p3910
(lp3911
I163321932
aI163355763
aS'+'
asS'PRRC2C'
p3912
(lp3913
I171485526
aI171593511
aS'+'
asS'COG2'
p3914
(lp3915
I230642455
aI230693985
aS'+'
asS'CHTOP'
p3916
(lp3917
I153633981
aI153646306
aS'+'
asS'HTR6'
p3918
(lp3919
I19665286
aI19680966
aS'+'
asS'WASH7P'
p3920
(lp3921
I14361
aI29370
aS'-'
asS'TDRD5'
p3922
(lp3923
I179591612
aI179691273
aS'+'
asS'GPR25'
p3924
(lp3925
I200872954
aI200874178
aS'+'
asS'SPTA1'
p3926
(lp3927
I158610705
aI158686715
aS'-'
asS'FAM76A'
p3928
(lp3929
I27725978
aI27762912
aS'+'
asS'PMF1-BGLAP'
p3930
(lp3931
I156212987
aI156243332
aS'+'
asS'LOC729930'
p3932
(lp3933
I89289257
aI89290362
aS'-'
asS'HORMAD1'
p3934
(lp3935
I150698059
aI150720895
aS'-'
asS'LCE3D'
p3936
(lp3937
I152579380
aI152580516
aS'-'
asS'ATP8B2'
p3938
(lp3939
I154327799
aI154351304
aS'+'
asS'LOC101927164'
p3940
(lp3941
I224219612
aI224228043
aS'+'
asS'LINC00538'
p3942
(lp3943
I213924748
aI213926653
aS'+'
asS'TRIM58'
p3944
(lp3945
I247857186
aI247880136
aS'+'
asS'NRDC'
p3946
(lp3947
I51789193
aI51878937
aS'-'
asS'MATN1-AS1'
p3948
(lp3949
I30718771
aI30726746
aS'+'
asS'LOC101927434'
p3950
(lp3951
I81513879
aI81557702
aS'-'
asS'MIR9-1'
p3952
(lp3953
I156420340
aI156420429
aS'-'
asS'FH'
p3954
(lp3955
I241497556
aI241519785
aS'-'
asS'AKR1A1'
p3956
(lp3957
I45550782
aI45570051
aS'+'
asS'KLHDC9'
p3958
(lp3959
I161098360
aI161100348
aS'+'
asS'MIR1537'
p3960
(lp3961
I235852999
aI235853060
aS'-'
asS'PTGFRN'
p3962
(lp3963
I116909915
aI116990352
aS'+'
asS'SHCBP1L'
p3964
(lp3965
I182899862
aI182953525
aS'-'
asS'EEF1AKNMT'
p3966
(lp3967
I171781620
aI171797716
aS'+'
asS'LOC653160'
p3968
(lp3969
I34975698
aI34978706
aS'-'
asS'UQCRHL'
p3970
(lp3971
I15807161
aI15807699
aS'-'
asS'FCRLA'
p3972
(lp3973
I161706957
aI161714352
aS'+'
asS'RNF220'
p3974
(lp3975
I44405159
aI44651724
aS'+'
asS'RNF223'
p3976
(lp3977
I1071745
aI1074307
aS'-'
asS'C1orf137'
p3978
(lp3979
I116694111
aI116706603
aS'+'
asS'RAB7B'
p3980
(lp3981
I205976739
aI206003466
aS'-'
asS'SPATA17'
p3982
(lp3983
I217631323
aI217868153
aS'+'
asS'LOC647070'
p3984
(lp3985
I182833671
aI182839591
aS'-'
asS'PKN2-AS1'
p3986
(lp3987
I88537512
aI88685204
aS'-'
asS'FCGR2C'
p3988
(lp3989
I161581338
aI161601220
aS'+'
asS'TRIM46'
p3990
(lp3991
I155173786
aI155184971
aS'+'
asS'TRIM45'
p3992
(lp3993
I117111054
aI117121789
aS'-'
asS'IVL'
p3994
(lp3995
I152908544
aI152911886
aS'+'
asS'RNF2'
p3996
(lp3997
I185045557
aI185102603
aS'+'
asS'REG4'
p3998
(lp3999
I119794017
aI119811580
aS'-'
asS'ECHDC2'
p4000
(lp4001
I52895909
aI52921785
aS'-'
asS'MSTO1'
p4002
(lp4003
I155610169
aI155614967
aS'+'
asS'FMO9P'
p4004
(lp4005
I166603915
aI166625236
aS'+'
asS'MIR137'
p4006
(lp4007
I98046069
aI98046171
aS'-'
asS'ACTG1P20'
p4008
(lp4009
I27323873
aI27326525
aS'+'
asS'NCF2'
p4010
(lp4011
I183555561
aI183590921
aS'-'
asS'EPHA8'
p4012
(lp4013
I22563501
aI22603594
aS'+'
asS'CLDN19'
p4014
(lp4015
I42733092
aI42740254
aS'-'
asS'EPHA2'
p4016
(lp4017
I16124336
aI16156109
aS'-'
asS'ZNF687-AS1'
p4018
(lp4019
I151280024
aI151281929
aS'-'
asS'MUTYH'
p4020
(lp4021
I45329241
aI45340470
aS'-'
asS'ZNF683'
p4022
(lp4023
I26361633
aI26372794
aS'-'
asS'CSMD2-AS1'
p4024
(lp4025
I33868955
aI33885458
aS'+'
asS'OR10X1'
p4026
(lp4027
I158578918
aI158579899
aS'-'
asS'GNAI3'
p4028
(lp4029
I109548563
aI109595832
aS'+'
asS'LOC101928404'
p4030
(lp4031
I163161674
aI163213023
aS'+'
asS'LOC728989'
p4032
(lp4033
I147019335
aI147043039
aS'-'
asS'MPZL1'
p4034
(lp4035
I167721949
aI167791919
aS'+'
asS'AURKAIP1'
p4036
(lp4037
I1373729
aI1375438
aS'-'
asS'LCE3E'
p4038
(lp4039
I152565698
aI152566753
aS'-'
asS'LCE3A'
p4040
(lp4041
I152622833
aI152623103
aS'-'
asS'LCE3B'
p4042
(lp4043
I152613810
aI152614098
aS'+'
asS'LCE3C'
p4044
(lp4045
I152600661
aI152601086
aS'+'
asS'LOC105376805'
p4046
(lp4047
I16888537
aI16889666
aS'-'
asS'AGTRAP'
p4048
(lp4049
I11736084
aI11750771
aS'+'
asS'RUSC1-AS1'
p4050
(lp4051
I155316853
aI155324176
aS'-'
asS'RAB4A'
p4052
(lp4053
I229271061
aI229305893
aS'+'
asS'CITED4'
p4054
(lp4055
I40861055
aI40862346
aS'-'
asS'GLIS1'
p4056
(lp4057
I53506232
aI53734204
aS'-'
asS'SNORD103C'
p4058
(lp4059
I30968162
aI30968237
aS'-'
asS'SNORD103B'
p4060
(lp4061
I30935688
aI30935776
aS'-'
asS'SNORD103A'
p4062
(lp4063
I30935688
aI30935776
aS'-'
asS'MTHFR'
p4064
(lp4065
I11785729
aI11806103
aS'-'
asS'COL9A2'
p4066
(lp4067
I40300490
aI40317267
aS'-'
asS'SNORD99'
p4068
(lp4069
I28578742
aI28578822
aS'-'
asS'MINOS1'
p4070
(lp4071
I19596976
aI19629821
aS'+'
asS'KIAA2013'
p4072
(lp4073
I11919587
aI11926428
aS'-'
asS'CSF1'
p4074
(lp4075
I109910610
aI109930994
aS'+'
asS'DEGS1'
p4076
(lp4077
I224183207
aI224193440
aS'+'
asS'PAPPA2'
p4078
(lp4079
I176463170
aI176842834
aS'+'
asS'LOC105378933'
p4080
(lp4081
I119000343
aI119001405
aS'-'
asS'PDE4DIP'
p4082
(lp4083
I148808180
aI149033019
aS'+'
asS'MIR199A2'
p4084
(lp4085
I172144534
aI172144644
aS'-'
asS'LACTBL1'
p4086
(lp4087
I22953042
aI22972866
aS'-'
asS'KIF21B'
p4088
(lp4089
I200969385
aI201023700
aS'-'
asS'OLFML3'
p4090
(lp4091
I113979390
aI113982254
aS'+'
asS'DNM3'
p4092
(lp4093
I171841477
aI172418463
aS'+'
asS'CCDC24'
p4094
(lp4095
I43991595
aI43996526
aS'+'
asS'CCDC27'
p4096
(lp4097
I3752400
aI3771645
aS'+'
asS'SLC16A4'
p4098
(lp4099
I110362850
aI110391082
aS'-'
asS'CRCT1'
p4100
(lp4101
I152514481
aI152516008
aS'+'
asS'DDOST'
p4102
(lp4103
I20651766
aI20661544
aS'-'
asS'LOC101929592'
p4104
(lp4105
I43709404
aI43727343
aS'-'
asS'FOXD2-AS1'
p4106
(lp4107
I47432134
aI47434641
aS'-'
asS'ZC3H12A'
p4108
(lp4109
I37474517
aI37484377
aS'+'
asS'PUSL1'
p4110
(lp4111
I1308579
aI1311677
aS'+'
asS'SPRR1B'
p4112
(lp4113
I153031202
aI153032900
aS'+'
asS'BROX'
p4114
(lp4115
I222712552
aI222735196
aS'+'
asS'ARHGAP30'
p4116
(lp4117
I161046941
aI161069970
aS'-'
asS'FOXD3-AS1'
p4118
(lp4119
I63320883
aI63324441
aS'-'
asS'CRABP2'
p4120
(lp4121
I156699607
aI156705816
aS'-'
asS'GRHL3'
p4122
(lp4123
I24319321
aI24364480
aS'+'
asS'SNORD38B'
p4124
(lp4125
I44778389
aI44778458
aS'+'
asS'SNORD38A'
p4126
(lp4127
I44777841
aI44777912
aS'+'
asS'WARS2'
p4128
(lp4129
I119031215
aI119140672
aS'-'
asS'LSM10'
p4130
(lp4131
I36393419
aI36397959
aS'-'
asS'LOC646471'
p4132
(lp4133
I25819953
aI25823606
aS'-'
asS'LOC101928626'
p4134
(lp4135
I627379
aI629009
aS'-'
asS'MIR5087'
p4136
(lp4137
I148334478
aI148334554
aS'-'
asS'PRAMEF1'
p4138
(lp4139
I12791396
aI12796628
aS'+'
asS'KCNJ10'
p4140
(lp4141
I160037466
aI160070160
aS'-'
asS'MIR4689'
p4142
(lp4143
I5862671
aI5862741
aS'-'
asS'DISC1-IT1'
p4144
(lp4145
I231925833
aI231945205
aS'+'
asS'RRAGC'
p4146
(lp4147
I38838196
aI38859823
aS'-'
asS'TNR'
p4148
(lp4149
I175315194
aI175743595
aS'-'
asS'SNORD145'
p4150
(lp4151
I44670956
aI44671056
aS'-'
asS'MIR4684'
p4152
(lp4153
I22719516
aI22719598
aS'+'
asS'MAP7D1'
p4154
(lp4155
I36155964
aI36180849
aS'+'
asS'MAN1C1'
p4156
(lp4157
I25617467
aI25786207
aS'+'
asS'MCOLN3'
p4158
(lp4159
I85018081
aI85048540
aS'-'
asS'MCOLN2'
p4160
(lp4161
I84925582
aI84997122
aS'-'
asS'LOC100129620'
p4162
(lp4163
I99004275
aI99148852
aS'+'
asS'TNN'
p4164
(lp4165
I175067857
aI175148066
aS'+'
asS'NEXN-AS1'
p4166
(lp4167
I77881347
aI77889539
aS'-'
asS'ACTN2'
p4168
(lp4169
I236686453
aI236764627
aS'+'
asS'PTPRU'
p4170
(lp4171
I29236515
aI29326813
aS'+'
asS'DCAF8'
p4172
(lp4173
I160215714
aI160262560
aS'-'
asS'CYP4A11'
p4174
(lp4175
I46929173
aI46941485
aS'-'
asS'OR2M1P'
p4176
(lp4177
I248122135
aI248122780
aS'+'
asS'FAM138C'
p4178
(lp4179
I34610
aI36081
aS'-'
asS'PRPF38A'
p4180
(lp4181
I52404601
aI52420835
aS'+'
asS'FAM138A'
p4182
(lp4183
I34610
aI36081
aS'-'
asS'TMEM39B'
p4184
(lp4185
I32072030
aI32102866
aS'+'
asS'FAM138F'
p4186
(lp4187
I34610
aI36081
aS'-'
asS'FAM138D'
p4188
(lp4189
I205128
aI206597
aS'-'
asS'PTPRF'
p4190
(lp4191
I43526036
aI43623672
aS'+'
asS'KCNT2'
p4192
(lp4193
I196225780
aI196608576
aS'-'
asS'PTPRC'
p4194
(lp4195
I198638967
aI198757476
aS'+'
asS'CREB3L4'
p4196
(lp4197
I153967838
aI153974364
aS'+'
asS'GORAB'
p4198
(lp4199
I170532121
aI170553833
aS'+'
asS'WLS'
p4200
(lp4201
I68098458
aI68232546
aS'-'
asS'MIR1302-2'
p4202
(lp4203
I30365
aI30503
aS'+'
asS'OR2L5'
p4204
(lp4205
I248021947
aI248022886
aS'+'
asS'SRSF11'
p4206
(lp4207
I70205681
aI70253049
aS'+'
asS'MFAP2'
p4208
(lp4209
I16974503
aI16981586
aS'-'
asS'MIR1302-9'
p4210
(lp4211
I30365
aI30503
aS'+'
asS'MIR4260'
p4212
(lp4213
I209623443
aI209623510
aS'-'
asS'OR2L8'
p4214
(lp4215
I247948857
aI247949796
aS'+'
asS'LINC02567'
p4216
(lp4217
I76758123
aI76779267
aS'-'
asS'CDC42SE1'
p4218
(lp4219
I151050970
aI151059649
aS'-'
asS'LINC01145'
p4220
(lp4221
I145164098
aI145216052
aS'-'
asS'LINC01144'
p4222
(lp4223
I45303909
aI45305619
aS'+'
asS'SLC27A3'
p4224
(lp4225
I153775406
aI153780160
aS'+'
asS'LINC01141'
p4226
(lp4227
I20359800
aI20428794
aS'-'
asS'LINC01140'
p4228
(lp4229
I87129764
aI87169203
aS'+'
asS'SV2A'
p4230
(lp4231
I149903319
aI149917882
aS'-'
asS'ASH1L-AS1'
p4232
(lp4233
I155562041
aI155563944
aS'+'
asS'KHDC4'
p4234
(lp4235
I155913044
aI155934413
aS'-'
asS'WDR3'
p4236
(lp4237
I117929748
aI117960426
aS'+'
asS'FNDC10'
p4238
(lp4239
I1598007
aI1600096
aS'-'
asS'LOC100507564'
p4240
(lp4241
I53238609
aI53242783
aS'+'
asS'TGFB2-OT1'
p4242
(lp4243
I218442625
aI218443995
aS'+'
asS'OR2T35'
p4244
(lp4245
I248638286
aI248639258
aS'-'
asS'LAMTOR5-AS1'
p4246
(lp4247
I110407808
aI110416274
aS'+'
asS'ELK4'
p4248
(lp4249
I205607942
aI205632872
aS'-'
asS'LINC01720'
p4250
(lp4251
I190624889
aI190801658
aS'+'
asS'LINC01725'
p4252
(lp4253
I83575788
aI83860996
aS'-'
asS'LINC01724'
p4254
(lp4255
I196044879
aI196088715
aS'-'
asS'HES5'
p4256
(lp4257
I2528744
aI2530245
aS'-'
asS'CSRP1'
p4258
(lp4259
I201483529
aI201507259
aS'-'
asS'MIR548AC'
p4260
(lp4261
I116560023
aI116560111
aS'-'
asS'PLPPR4'
p4262
(lp4263
I99264291
aI99309582
aS'+'
asS'HMGN2'
p4264
(lp4265
I26472410
aI26476642
aS'+'
asS'DIRAS3'
p4266
(lp4267
I68045961
aI68051631
aS'-'
asS'DTL'
p4268
(lp4269
I212035552
aI212105006
aS'+'
asS'ERO1B'
p4270
(lp4271
I236215121
aI236282039
aS'-'
asS'UOX'
p4272
(lp4273
I84364957
aI84384801
aS'-'
asS'RC3H1'
p4274
(lp4275
I173931083
aI173993072
aS'-'
asS'PUM1'
p4276
(lp4277
I30931505
aI31065717
aS'-'
asS'UROD'
p4278
(lp4279
I45012132
aI45015669
aS'+'
asS'AK4'
p4280
(lp4281
I65147548
aI65232145
aS'+'
asS'LOC100505918'
p4282
(lp4283
I168400187
aI168422656
aS'-'
asS'TNNT2'
p4284
(lp4285
I201359007
aI201377700
aS'-'
asS'PANK4'
p4286
(lp4287
I2508530
aI2526596
aS'-'
asS'CCT3'
p4288
(lp4289
I156308960
aI156338415
aS'-'
asS'SOX13'
p4290
(lp4291
I204073117
aI204127743
aS'+'
asS'ISG15'
p4292
(lp4293
I1013496
aI1014539
aS'+'
asS'DMAP1'
p4294
(lp4295
I44213452
aI44220679
aS'+'
asS'LINC01037'
p4296
(lp4297
I187443627
aI187477222
aS'+'
asS'LINC01036'
p4298
(lp4299
I187092841
aI187360244
aS'+'
asS'MAP1LC3C'
p4300
(lp4301
I241995489
aI241999083
aS'-'
asS'LINC01032'
p4302
(lp4303
I192935743
aI192948257
aS'-'
asS'LINC01031'
p4304
(lp4305
I193304744
aI193365953
aS'+'
asS'HNRNPCL1'
p4306
(lp4307
I12847376
aI12848756
aS'-'
asS'HNRNPCL3'
p4308
(lp4309
I13061231
aI13062237
aS'+'
asS'HNRNPCL2'
p4310
(lp4311
I13115487
aI13116854
aS'-'
asS'HNRNPCL4'
p4312
(lp4313
I13061309
aI13062237
aS'+'
asS'OR14C36'
p4314
(lp4315
I248348774
aI248349713
aS'+'
asS'NFASC'
p4316
(lp4317
I204828651
aI205022822
aS'+'
asS'EIF2D'
p4318
(lp4319
I206591642
aI206612551
aS'-'
asS'RPRD2'
p4320
(lp4321
I150364110
aI150476565
aS'+'
asS'MIR3115'
p4322
(lp4323
I23044304
aI23044372
aS'+'
asS'PAFAH2'
p4324
(lp4325
I25959766
aI25998157
aS'-'
asS'MIR3117'
p4326
(lp4327
I66628439
aI66628517
aS'+'
asS'SGIP1'
p4328
(lp4329
I66533568
aI66751139
aS'+'
asS'CRYZL2P'
p4330
(lp4331
I178006139
aI178038007
aS'-'
asS'PRAMEF34P'
p4332
(lp4333
I13127068
aI13132274
aS'+'
asS'PRDM2'
p4334
(lp4335
I13700239
aI13825079
aS'+'
asS'GABRD'
p4336
(lp4337
I2019328
aI2030753
aS'+'
asS'EFCAB7'
p4338
(lp4339
I63523524
aI63572693
aS'+'
asS'HES3'
p4340
(lp4341
I6244191
aI6245578
aS'+'
asS'HES4'
p4342
(lp4343
I998961
aI1000172
aS'-'
asS'C1orf141'
p4344
(lp4345
I67092175
aI67134971
aS'-'
asS'EFCAB2'
p4346
(lp4347
I244970328
aI245125228
aS'+'
asS'CYP2J2'
p4348
(lp4349
I59893307
aI59926798
aS'-'
asS'ZMYM4-AS1'
p4350
(lp4351
I35358823
aI35366077
aS'-'
asS'KLHL20'
p4352
(lp4353
I173714940
aI173786703
aS'+'
asS'NBPF9'
p4354
(lp4355
I149054032
aI149082311
aS'-'
asS'NBPF8'
p4356
(lp4357
I120415026
aI120469670
aS'+'
asS'MIR34A'
p4358
(lp4359
I9151667
aI9151777
aS'-'
asS'NBPF6'
p4360
(lp4361
I108450281
aI108470638
aS'+'
asS'RCAN3'
p4362
(lp4363
I24502350
aI24537020
aS'+'
asS'TMEM82'
p4364
(lp4365
I15742491
aI15747797
aS'+'
asS'NBPF3'
p4366
(lp4367
I21440089
aI21484900
aS'+'
asS'NBPF1'
p4368
(lp4369
I16562426
aI16613605
aS'-'
asS'KCNH1-IT1'
p4370
(lp4371
I211132278
aI211133374
aS'-'
asS'TAF13'
p4372
(lp4373
I109064375
aI109076002
aS'-'
asS'TAF12'
p4374
(lp4375
I28603095
aI28643092
aS'-'
asS'AUNIP'
p4376
(lp4377
I25831912
aI25859458
aS'-'
asS'LINC00853'
p4378
(lp4379
I47179249
aI47180339
aS'+'
asS'CLCA2'
p4380
(lp4381
I86424170
aI86456553
aS'+'
asS'CLCA1'
p4382
(lp4383
I86468842
aI86500291
aS'+'
asS'ZFP69B'
p4384
(lp4385
I40450664
aI40463718
aS'+'
asS'CLCA4'
p4386
(lp4387
I86547075
aI86580749
aS'+'
asS'CDC7'
p4388
(lp4389
I91500846
aI91525764
aS'+'
asS'PKLR'
p4390
(lp4391
I155289292
aI155301438
aS'-'
asS'IBA57-DT'
p4392
(lp4393
I228164085
aI228165512
aS'-'
asS'LOC100130331'
p4394
(lp4395
I237862174
aI237928319
aS'+'
asS'ASPM'
p4396
(lp4397
I197084126
aI197146694
aS'-'
asS'CROCCP3'
p4398
(lp4399
I16467435
aI16492701
aS'-'
asS'CROCCP2'
p4400
(lp4401
I16618255
aI16630906
aS'-'
asS'HFM1'
p4402
(lp4403
I91260765
aI91404837
aS'-'
asS'SLC25A44'
p4404
(lp4405
I156193931
aI156212796
aS'+'
asS'RBM15'
p4406
(lp4407
I110339322
aI110346681
aS'+'
asS'HS2ST1'
p4408
(lp4409
I86914634
aI87109982
aS'+'
asS'ADGRB2'
p4410
(lp4411
I31727104
aI31764063
aS'-'
asS'ENSA'
p4412
(lp4413
I150622122
aI150629622
aS'-'
asS'BEND5'
p4414
(lp4415
I48727522
aI48776969
aS'-'
asS'OSCP1'
p4416
(lp4417
I36417905
aI36450485
aS'-'
asS'TCEANC2'
p4418
(lp4419
I54053571
aI54112519
aS'+'
asS'RXRG'
p4420
(lp4421
I165400921
aI165445355
aS'-'
asS'MIR6742'
p4422
(lp4423
I228397047
aI228397109
aS'-'
asS'MIR6740'
p4424
(lp4425
I202003123
aI202003236
aS'+'
asS'MIR6741'
p4426
(lp4427
I225922079
aI225922142
aS'-'
asS'LOC101928436'
p4428
(lp4429
I103417080
aI103525511
aS'-'
asS'ADGRL4'
p4430
(lp4431
I78889763
aI79006810
aS'-'
asS'DNTTIP2'
p4432
(lp4433
I93869457
aI93879206
aS'-'
asS'ADGRL2'
p4434
(lp4435
I81306191
aI81993932
aS'+'
asS'ALDH9A1'
p4436
(lp4437
I165662211
aI165698663
aS'-'
asS'FLJ39095'
p4438
(lp4439
I247104510
aI247109561
aS'+'
asS'MXRA8'
p4440
(lp4441
I1352688
aI1363541
aS'-'
asS'ENO1-AS1'
p4442
(lp4443
I8878834
aI8879884
aS'+'
asS'FAM41C'
p4444
(lp4445
I868070
aI876802
aS'-'
asS'LOC100996318'
p4446
(lp4447
I121090288
aI121098265
aS'-'
asS'GPR153'
p4448
(lp4449
I6247345
aI6260975
aS'-'
asS'TAF1A'
p4450
(lp4451
I222557901
aI222589933
aS'-'
asS'F3'
p4452
(lp4453
I94529175
aI94541857
aS'-'
asS'GPR157'
p4454
(lp4455
I9104416
aI9129170
aS'-'
asS'F5'
p4456
(lp4457
I169511953
aI169586531
aS'-'
asS'UBIAD1'
p4458
(lp4459
I11273197
aI11299571
aS'+'
asS'SLC16A1-AS1'
p4460
(lp4461
I112956414
aI112964068
aS'+'
asS'OR2G6'
p4462
(lp4463
I248521646
aI248522597
aS'+'
asS'KRTCAP2'
p4464
(lp4465
I155169407
aI155173328
aS'-'
asS'ABCA4'
p4466
(lp4467
I93992837
aI94121149
aS'-'
asS'BSND'
p4468
(lp4469
I54998932
aI55017172
aS'+'
asS'FAM89A'
p4470
(lp4471
I231018957
aI231040249
aS'-'
asS'RNU6ATAC35P'
p4472
(lp4473
I220824270
aI220826063
aS'+'
asS'LDLRAP1'
p4474
(lp4475
I25543584
aI25568886
aS'+'
asS'KCNC4'
p4476
(lp4477
I110210713
aI110234052
aS'+'
asS'IGSF8'
p4478
(lp4479
I160091338
aI160098828
aS'-'
asS'IGSF9'
p4480
(lp4481
I159927040
aI159945613
aS'-'
asS'FCAMR'
p4482
(lp4483
I206957966
aI206970625
aS'-'
asS'PSMD4'
p4484
(lp4485
I151254699
aI151267478
aS'+'
asS'FLAD1'
p4486
(lp4487
I154983293
aI154993111
aS'+'
asS'IGSF3'
p4488
(lp4489
I116574397
aI116667755
aS'-'
asS'LOC100507634'
p4490
(lp4491
I55215407
aI55217455
aS'+'
asS'MYOC'
p4492
(lp4493
I171635416
aI171652633
aS'-'
asS'MIR4253'
p4494
(lp4495
I22863158
aI22863226
aS'-'
asS'MYOG'
p4496
(lp4497
I203083128
aI203086038
aS'-'
asS'FYB2'
p4498
(lp4499
I56718803
aI56819696
aS'-'
asS'EPS15'
p4500
(lp4501
I51354262
aI51519323
aS'-'
asS'PPFIA4'
p4502
(lp4503
I203026520
aI203078736
aS'+'
asS'OR14A2'
p4504
(lp4505
I247722956
aI247748158
aS'-'
asS'HIST2H4B'
p4506
(lp4507
I149860763
aI149861159
aS'-'
asS'MYBPHL'
p4508
(lp4509
I109292364
aI109307041
aS'-'
asS'MAB21L3'
p4510
(lp4511
I116111754
aI116135240
aS'+'
asS'C1orf229'
p4512
(lp4513
I247110159
aI247112417
aS'-'
asS'LOC440700'
p4514
(lp4515
I165698749
aI165709962
aS'+'
asS'ZNF648'
p4516
(lp4517
I182054569
aI182061712
aS'-'
asS'APCS'
p4518
(lp4519
I159587825
aI159588871
aS'+'
asS'ZNF644'
p4520
(lp4521
I90915299
aI91022255
aS'-'
asS'HIST2H4A'
p4522
(lp4523
I149832656
aI149833052
aS'+'
asS'HSD17B7'
p4524
(lp4525
I162790701
aI162812818
aS'+'
asS'TTLL7'
p4526
(lp4527
I83865031
aI83999187
aS'-'
asS'TMEM51-AS1'
p4528
(lp4529
I15111814
aI15152464
aS'-'
asS'DDX11L1'
p4530
(lp4531
I11873
aI14409
aS'+'
asS'ELOVL1'
p4532
(lp4533
I43363396
aI43368074
aS'-'
asS'MIR5187'
p4534
(lp4535
I161227185
aI161227261
aS'+'
asS'ST6GALNAC5'
p4536
(lp4537
I76867407
aI77067538
aS'+'
asS'ST6GALNAC3'
p4538
(lp4539
I76074683
aI76637316
aS'+'
asS'TCHH'
p4540
(lp4541
I152106316
aI152115454
aS'-'
asS'LOC100287049'
p4542
(lp4543
I160261748
aI160262778
aS'+'
asS'MIR4666A'
p4544
(lp4545
I228462073
aI228462152
aS'+'
asS'SLC35F3'
p4546
(lp4547
I233904675
aI234324511
aS'+'
asS'LCE4A'
p4548
(lp4549
I152709046
aI152709434
aS'+'
asS'IER5'
p4550
(lp4551
I181088501
aI181090843
aS'+'
asS'RABGGTB'
p4552
(lp4553
I75786193
aI75795090
aS'+'
asS'AMY1C'
p4554
(lp4555
I103687414
aI103696454
aS'-'
asS'PQLC2'
p4556
(lp4557
I19312245
aI19332428
aS'+'
asS'KCNA10'
p4558
(lp4559
I110517216
aI110519175
aS'-'
asS'CYB561D1'
p4560
(lp4561
I109494035
aI109500441
aS'+'
asS'AMY1B'
p4562
(lp4563
I103687418
aI103696267
aS'-'
asS'AVPR1B'
p4564
(lp4565
I206106936
aI206117050
aS'-'
asS'GORAB-AS1'
p4566
(lp4567
I170461316
aI170532609
aS'-'
asS'MPC2'
p4568
(lp4569
I167916674
aI167937069
aS'-'
asS'COL11A1'
p4570
(lp4571
I102876472
aI103108522
aS'-'
asS'MIR4695'
p4572
(lp4573
I18883201
aI18883275
aS'-'
asS'LINC01555'
p4574
(lp4575
I84628229
aI84635020
aS'-'
asS'INSRR'
p4576
(lp4577
I156840872
aI156858920
aS'-'
asS'PKP1'
p4578
(lp4579
I201283451
aI201332993
aS'+'
asS'STUM'
p4580
(lp4581
I226548799
aI226609214
aS'+'
asS'RASAL2'
p4582
(lp4583
I178093728
aI178479513
aS'+'
asS'LIX1L-AS1'
p4584
(lp4585
I145926830
aI145941203
aS'+'
asS'FGR'
p4586
(lp4587
I27612063
aI27635185
aS'-'
asS'CCDC17'
p4588
(lp4589
I45620043
aI45624059
aS'-'
asS'LAD1'
p4590
(lp4591
I201380837
aI201399541
aS'-'
asS'P3H1'
p4592
(lp4593
I42746334
aI42767084
aS'-'
asS'CCDC18'
p4594
(lp4595
I93180715
aI93278730
aS'+'
asS'MIR320B2'
p4596
(lp4597
I224257003
aI224257141
aS'-'
asS'MIR320B1'
p4598
(lp4599
I116671748
aI116671827
aS'+'
asS'TSNAX'
p4600
(lp4601
I231528652
aI231566523
aS'+'
asS'LOC148696'
p4602
(lp4603
I207818378
aI207822596
aS'+'
asS'POU5F1P4'
p4604
(lp4605
I155433179
aI155434262
aS'+'
asS'ATP1B1'
p4606
(lp4607
I169106708
aI169132722
aS'+'
asS'TNFRSF25'
p4608
(lp4609
I6461153
aI6466195
aS'-'
asS'MORN1'
p4610
(lp4611
I2321252
aI2391751
aS'-'
asS'CACHD1'
p4612
(lp4613
I64470128
aI64693058
aS'+'
asS'KIRREL1'
p4614
(lp4615
I157993272
aI158100262
aS'+'
asS'TESK2'
p4616
(lp4617
I45343882
aI45491168
aS'-'
asS'LINC02593'
p4618
(lp4619
I916817
aI919692
aS'-'
asS'SIPA1L2'
p4620
(lp4621
I232397965
aI232515608
aS'-'
asS'ZC3H11A'
p4622
(lp4623
I203795536
aI203854128
aS'+'
asS'ZC3H11B'
p4624
(lp4625
I219609644
aI219613145
aS'-'
asS'ARID1A'
p4626
(lp4627
I26696032
aI26782110
aS'+'
asS'C1QC'
p4628
(lp4629
I22643616
aI22648111
aS'+'
asS'C1QB'
p4630
(lp4631
I22652980
aI22661636
aS'+'
asS'C1QA'
p4632
(lp4633
I22636505
aI22639682
aS'+'
asS'RNPC3'
p4634
(lp4635
I103525955
aI103555237
aS'+'
asS'GNG4'
p4636
(lp4637
I235547684
aI235650754
aS'-'
asS'GNG5'
p4638
(lp4639
I84498322
aI84506579
aS'-'
asS'LINC02607'
p4640
(lp4641
I95510115
aI95515464
aS'+'
asS'LINC02606'
p4642
(lp4643
I9425093
aI9428996
aS'-'
asS'YIPF1'
p4644
(lp4645
I53851718
aI53889831
aS'-'
asS'LINC02608'
p4646
(lp4647
I212225277
aI212285021
aS'-'
asS'DDAH1'
p4648
(lp4649
I85318484
aI85578363
aS'-'
asS'SNX7'
p4650
(lp4651
I98661679
aI98760500
aS'+'
asS'VSIG8'
p4652
(lp4653
I159854315
aI159862657
aS'-'
asS'ALG6'
p4654
(lp4655
I63367626
aI63438552
aS'+'
asS'TMEM88B'
p4656
(lp4657
I1426127
aI1427787
aS'+'
asS'MASP2'
p4658
(lp4659
I11026522
aI11047239
aS'-'
asS'BTF3L4'
p4660
(lp4661
I52056184
aI52090716
aS'+'
asS'MIR4677'
p4662
(lp4663
I243346175
aI243346255
aS'+'
asS'LINC01739'
p4664
(lp4665
I63000496
aI63012471
aS'-'
asS'ERI3-IT1'
p4666
(lp4667
I44222594
aI44244283
aS'-'
asS'INSL5'
p4668
(lp4669
I66797740
aI66801259
aS'-'
asS'LINC01736'
p4670
(lp4671
I230002716
aI230007162
aS'+'
asS'LINC01737'
p4672
(lp4673
I230592659
aI230595583
aS'-'
asS'RSC1A1'
p4674
(lp4675
I15659712
aI15662030
aS'+'
asS'LINC01732'
p4676
(lp4677
I181174483
aI181182206
aS'+'
asS'ITPKB'
p4678
(lp4679
I226631689
aI226739175
aS'-'
asS'L1TD1'
p4680
(lp4681
I62194801
aI62212328
aS'+'
asS'TTC13'
p4682
(lp4683
I230906240
aI230978872
aS'-'
asS'SNORA70H'
p4684
(lp4685
I201978460
aI201978595
aS'+'
asS'AMY2A'
p4686
(lp4687
I103617331
aI103625780
aS'+'
asS'NUCKS1'
p4688
(lp4689
I205712818
aI205750244
aS'-'
asS'TMED5'
p4690
(lp4691
I93149741
aI93180689
aS'-'
asS'MLLT11'
p4692
(lp4693
I151059674
aI151068497
aS'+'
asS'DAP3'
p4694
(lp4695
I155689090
aI155739009
aS'+'
asS'MIR4794'
p4696
(lp4697
I64579846
aI64579921
aS'+'
asS'SMYD2'
p4698
(lp4699
I214281221
aI214337134
aS'+'
asS'SMYD3'
p4700
(lp4701
I245749339
aI246507342
aS'-'
asS'LINC00210'
p4702
(lp4703
I217892899
aI217920804
aS'+'
asS'GALNT2'
p4704
(lp4705
I230057788
aI230282130
aS'+'
asS'PCNX2'
p4706
(lp4707
I232984135
aI233295713
aS'-'
asS'IRF6'
p4708
(lp4709
I209785622
aI209806175
aS'-'
asS'CEP170'
p4710
(lp4711
I243124427
aI243255406
aS'-'
asS'FAM78B'
p4712
(lp4713
I166055917
aI166166755
aS'-'
asS'S100A7A'
p4714
(lp4715
I153416523
aI153423225
aS'+'
asS'CLK2'
p4716
(lp4717
I155262867
aI155273529
aS'-'
asS'CYB5RL'
p4718
(lp4719
I54172150
aI54200101
aS'-'
asS'TNFRSF14-AS1'
p4720
(lp4721
I2549919
aI2557011
aS'-'
asS'SNX27'
p4722
(lp4723
I151612185
aI151699083
aS'+'
asS'C1QTNF12'
p4724
(lp4725
I1242445
aI1246722
aS'-'
asS'HDAC1'
p4726
(lp4727
I32292106
aI32333623
aS'+'
asS'LOC101927417'
p4728
(lp4729
I15326679
aI15343883
aS'-'
asS'PI4KB'
p4730
(lp4731
I151291796
aI151327715
aS'-'
asS'MRPL24'
p4732
(lp4733
I156737301
aI156741131
aS'-'
asS'LOC105378683'
p4734
(lp4735
I42776665
aI42784895
aS'-'
asS'LOC100505824'
p4736
(lp4737
I148162709
aI148163412
aS'+'
asS'KIF17'
p4738
(lp4739
I20664013
aI20718017
aS'-'
asS'FABP3'
p4740
(lp4741
I31365252
aI31373288
aS'-'
asS'NHLH1'
p4742
(lp4743
I160367070
aI160372848
aS'+'
asS'GTF2IP20'
p4744
(lp4745
I223951265
aI223992644
aS'-'
asS'PLA2G4A'
p4746
(lp4747
I186828899
aI186988981
aS'+'
asS'LRRC52-AS1'
p4748
(lp4749
I165476841
aI165582155
aS'-'
asS'MIR3121'
p4750
(lp4751
I180438313
aI180438390
aS'-'
asS'MIR3120'
p4752
(lp4753
I172138807
aI172138888
aS'+'
asS'MIR3123'
p4754
(lp4755
I241132271
aI241132346
aS'+'
asS'MIR3122'
p4756
(lp4757
I212077612
aI212077685
aS'+'
asS'ZBTB17'
p4758
(lp4759
I15941868
aI15976132
aS'-'
asS'MIR3124'
p4760
(lp4761
I248826376
aI248826443
aS'+'
asS'NLRP3'
p4762
(lp4763
I247416155
aI247449104
aS'+'
asS'PSEN2'
p4764
(lp4765
I226870571
aI226896103
aS'+'
asS'ZBTB18'
p4766
(lp4767
I244048938
aI244057478
aS'+'
asS'ZRANB2-AS1'
p4768
(lp4769
I71046505
aI71067182
aS'+'
asS'ZRANB2-AS2'
p4770
(lp4771
I71081323
aI71237723
aS'+'
asS'WDR26'
p4772
(lp4773
I224385142
aI224434299
aS'-'
asS'C1orf159'
p4774
(lp4775
I1081817
aI1116356
aS'-'
asS'C1orf158'
p4776
(lp4777
I12746185
aI12761169
aS'+'
asS'LINC00467'
p4778
(lp4779
I211382754
aI211432535
aS'+'
asS'LINC00466'
p4780
(lp4781
I63159082
aI63317257
aS'-'
asS'RAB13'
p4782
(lp4783
I153981616
aI153986377
aS'-'
asS'LYST'
p4784
(lp4785
I235661030
aI235883708
aS'-'
asS'ADORA3'
p4786
(lp4787
I111499428
aI111504121
aS'-'
asS'TNFSF4'
p4788
(lp4789
I173183730
aI173207313
aS'-'
asS'ATP6V0B'
p4790
(lp4791
I43974647
aI43978300
aS'+'
asS'KLHL12'
p4792
(lp4793
I202891095
aI202928644
aS'-'
asS'KLHL17'
p4794
(lp4795
I960586
aI965719
aS'+'
asS'LINC00862'
p4796
(lp4797
I200342543
aI200373792
aS'-'
asS'ASCL5'
p4798
(lp4799
I201113952
aI201115372
aS'-'
asS'SUMO1P3'
p4800
(lp4801
I160317264
aI160318470
aS'+'
asS'MTOR'
p4802
(lp4803
I11106530
aI11262551
aS'-'
asS'LNCTAM34A'
p4804
(lp4805
I9182203
aI9192085
aS'+'
asS'TRIM62'
p4806
(lp4807
I33145401
aI33182070
aS'-'
asS'TRIM63'
p4808
(lp4809
I26051304
aI26067634
aS'-'
asS'TRIM67'
p4810
(lp4811
I231162927
aI231221568
aS'+'
asS'TDRKH'
p4812
(lp4813
I151771564
aI151790534
aS'-'
asS'TRIT1'
p4814
(lp4815
I39841030
aI39883511
aS'-'
asS'LOC91548'
p4816
(lp4817
I211675761
aI211687459
aS'+'
asS'KIF1B'
p4818
(lp4819
I10210569
aI10381603
aS'+'
asS'PRCC'
p4820
(lp4821
I156767534
aI156800814
aS'+'
asS'AMIGO1'
p4822
(lp4823
I109504177
aI109509727
aS'-'
asS'FAM102B'
p4824
(lp4825
I108560348
aI108639327
aS'+'
asS'MIR6739'
p4826
(lp4827
I201863372
aI201863447
aS'+'
asS'MICOS10'
p4828
(lp4829
I19596976
aI19629821
aS'+'
asS'OR10Z1'
p4830
(lp4831
I158606438
aI158607380
aS'+'
asS'MIR6733'
p4832
(lp4833
I43171651
aI43171712
aS'-'
asS'MIR6732'
p4834
(lp4835
I37480229
aI37480289
aS'+'
asS'MIR6731'
p4836
(lp4837
I24919344
aI24919416
aS'-'
asS'MIR6730'
p4838
(lp4839
I12578956
aI12579023
aS'-'
asS'MIR6737'
p4840
(lp4841
I153962350
aI153962420
aS'-'
asS'MIR6736'
p4842
(lp4843
I145850586
aI145850645
aS'-'
asS'KDF1'
p4844
(lp4845
I26949555
aI26960410
aS'-'
asS'MIR6734'
p4846
(lp4847
I43364647
aI43364715
aS'-'
asS'CD244'
p4848
(lp4849
I160830159
aI160862902
aS'-'
asS'MRPS15'
p4850
(lp4851
I36455760
aI36464439
aS'-'
asS'CD247'
p4852
(lp4853
I167430639
aI167518610
aS'-'
asS'PATJ'
p4854
(lp4855
I61742465
aI62163919
aS'+'
asS'EMBP1'
p4856
(lp4857
I121519111
aI121571888
aS'+'
asS'PRR9'
p4858
(lp4859
I153217583
aI153219317
aS'+'
asS'SERTAD4'
p4860
(lp4861
I210232801
aI210246631
aS'+'
asS'PYGO2'
p4862
(lp4863
I154957025
aI154961782
aS'-'
asS'SNHG12'
p4864
(lp4865
I28578537
aI28582983
aS'-'
asS'RAD54L'
p4866
(lp4867
I46247694
aI46278473
aS'+'
asS'LRRC8B'
p4868
(lp4869
I89524837
aI89597861
aS'+'
asS'LOC100131107'
p4870
(lp4871
I152079412
aI152080924
aS'-'
asS'KDM4A'
p4872
(lp4873
I43650125
aI43705518
aS'+'
asS'PPIEL'
p4874
(lp4875
I39522279
aI39559698
aS'-'
asS'FAM229A'
p4876
(lp4877
I32361269
aI32362243
aS'-'
asS'MIR664A'
p4878
(lp4879
I220200541
aI220200619
aS'-'
asS'TNNI1'
p4880
(lp4881
I201403766
aI201421746
aS'-'
asS'MED18'
p4882
(lp4883
I28329001
aI28335967
aS'+'
asS'INTS3'
p4884
(lp4885
I153728066
aI153774808
aS'+'
asS'KCND3'
p4886
(lp4887
I111775831
aI111989155
aS'-'
asS'INTS7'
p4888
(lp4889
I211940398
aI212035660
aS'-'
asS'PYDC5'
p4890
(lp4891
I158999970
aI159000312
aS'-'
asS'TMEM240'
p4892
(lp4893
I1534777
aI1540360
aS'-'
asS'THEM5'
p4894
(lp4895
I151847100
aI151853697
aS'-'
asS'TTC39A'
p4896
(lp4897
I51287257
aI51345116
aS'-'
asS'CRNN'
p4898
(lp4899
I152409242
aI152414274
aS'-'
asS'LOC100996740'
p4900
(lp4901
I145214850
aI145216577
aS'+'
asS'MTFR1L'
p4902
(lp4903
I25819905
aI25832942
aS'+'
asS'USP48'
p4904
(lp4905
I21678578
aI21783199
aS'-'
asS'MEAF6'
p4906
(lp4907
I37489960
aI37514819
aS'-'
asS'NOTCH2'
p4908
(lp4909
I119911552
aI120069703
aS'-'
asS'AZIN2'
p4910
(lp4911
I33081152
aI33123492
aS'+'
asS'SCARNA26A'
p4912
(lp4913
I155679107
aI155679255
aS'-'
asS'SSR2'
p4914
(lp4915
I156009047
aI156020967
aS'-'
asS'NCDN'
p4916
(lp4917
I35557791
aI35566779
aS'+'
asS'TCTEX1D1'
p4918
(lp4919
I66752456
aI66779047
aS'+'
asS'CTTNBP2NL'
p4920
(lp4921
I112396177
aI112461164
aS'+'
asS'TCTEX1D4'
p4922
(lp4923
I44805909
aI44807285
aS'-'
asS'MIR205HG'
p4924
(lp4925
I209428819
aI209432547
aS'+'
asS'PP2672'
p4926
(lp4927
I234757618
aI234760056
aS'-'
asS'C1orf74'
p4928
(lp4929
I209779207
aI209784559
aS'-'
asS'SLC30A7'
p4930
(lp4931
I100896075
aI100981755
aS'+'
asS'SLC30A1'
p4932
(lp4933
I211575038
aI211578757
aS'-'
asS'SLC30A2'
p4934
(lp4935
I26038021
aI26046138
aS'-'
asS'MIR1290'
p4936
(lp4937
I18897070
aI18897148
aS'-'
asS'MIR551A'
p4938
(lp4939
I3560695
aI3560790
aS'-'
asS'CERS2'
p4940
(lp4941
I150965172
aI150975003
aS'-'
asS'SELENBP1'
p4942
(lp4943
I151364301
aI151372734
aS'-'
asS'GADD45A'
p4944
(lp4945
I67685176
aI67688338
aS'+'
asS'PARK7'
p4946
(lp4947
I7961653
aI7985282
aS'+'
asS'RORC'
p4948
(lp4949
I151806070
aI151831872
aS'-'
asS'COX20'
p4950
(lp4951
I244835305
aI244845063
aS'+'
asS'YARS'
p4952
(lp4953
I32775238
aI32818032
aS'-'
asS'MAGI3'
p4954
(lp4955
I113390852
aI113685923
aS'+'
asS'MST1P2'
p4956
(lp4957
I16645573
aI16650420
aS'+'
asS'ZYG11B'
p4958
(lp4959
I52726458
aI52827341
aS'+'
asS'TAGLN2'
p4960
(lp4961
I159918106
aI159925542
aS'-'
asS'ZYG11A'
p4962
(lp4963
I52842510
aI52894575
aS'+'
asS'TAF1A-AS1'
p4964
(lp4965
I222589919
aI222592633
aS'+'
asS'EXTL1'
p4966
(lp4967
I26021779
aI26036463
aS'+'
asS'EXTL2'
p4968
(lp4969
I100872371
aI100895179
aS'-'
asS'MIR4423'
p4970
(lp4971
I85133793
aI85133873
aS'+'
asS'RGSL1'
p4972
(lp4973
I182450120
aI182560598
aS'+'
asS'CFAP74'
p4974
(lp4975
I1921950
aI2003837
aS'-'
asS'SRGAP2-AS1'
p4976
(lp4977
I144641368
aI144919902
aS'+'
asS'SLC25A24'
p4978
(lp4979
I108134721
aI108200358
aS'-'
asS'MDM4'
p4980
(lp4981
I204516378
aI204558120
aS'+'
asS'LOC105371433'
p4982
(lp4983
I150160727
aI150181228
aS'+'
asS'ROR1'
p4984
(lp4985
I63774016
aI64181496
aS'+'
asS'RSPO1'
p4986
(lp4987
I37611349
aI37634923
aS'-'
asS'HJV'
p4988
(lp4989
I146017467
aI146021822
aS'-'
asS'MIR4427'
p4990
(lp4991
I233624151
aI233624219
aS'+'
asS'CNN3'
p4992
(lp4993
I94896948
aI94927223
aS'-'
asS'LRRC40'
p4994
(lp4995
I70144804
aI70205579
aS'-'
asS'MIR4426'
p4996
(lp4997
I192716327
aI192716390
aS'+'
asS'KPNA6'
p4998
(lp4999
I32108042
aI32176567
aS'+'
asS'MIR5191'
p5000
(lp5001
I201719507
aI201719627
aS'+'
asS'FCGR1B'
p5002
(lp5003
I121087344
aI121097161
aS'+'
asS'KCND3-AS1'
p5004
(lp5005
I111909656
aI111910930
aS'+'
asS'CRP'
p5006
(lp5007
I159712288
aI159714589
aS'-'
asS'ISG20L2'
p5008
(lp5009
I156721890
aI156728439
aS'-'
asS'MMP23A'
p5010
(lp5011
I1632779
aI1634651
aS'+'
asS'TSHB'
p5012
(lp5013
I115029823
aI115034309
aS'+'
asS'MIR3916'
p5014
(lp5015
I247201966
aI247202060
aS'-'
asS'MIR3917'
p5016
(lp5017
I25906361
aI25906454
aS'-'
asS'SYNC'
p5018
(lp5019
I32679905
aI32702760
aS'-'
asS'XKR8'
p5020
(lp5021
I27959461
aI27968096
aS'+'
asS'NBPF25P'
p5022
(lp5023
I145572344
aI145607858
aS'-'
asS'GOLT1A'
p5024
(lp5025
I204198162
aI204213988
aS'-'
asS'CRTC2'
p5026
(lp5027
I153947671
aI153958656
aS'-'
asS'CZIB'
p5028
(lp5029
I53214099
aI53220639
aS'-'
asS'LOC101928977'
p5030
(lp5031
I115922572
aI115977276
aS'-'
asS'AP4B1'
p5032
(lp5033
I113894194
aI113905124
aS'-'
asS'MIIP'
p5034
(lp5035
I12019497
aI12032045
aS'+'
asS'TNFRSF18'
p5036
(lp5037
I1203507
aI1206709
aS'-'
asS'LOC100506730'
p5038
(lp5039
I19293246
aI19295736
aS'-'
asS'LINC02586'
p5040
(lp5041
I110208450
aI110209987
aS'-'
asS'LINC01128'
p5042
(lp5043
I827590
aI859446
aS'+'
asS'LINC01341'
p5044
(lp5045
I246789616
aI246791486
aS'+'
asS'SNORA80E'
p5046
(lp5047
I155919908
aI155920042
aS'-'
asS'B4GALT3'
p5048
(lp5049
I161171309
aI161177968
aS'-'
asS'B4GALT2'
p5050
(lp5051
I43979201
aI43991171
aS'+'
asS'FCN3'
p5052
(lp5053
I27369109
aI27374852
aS'-'
asS'EIF3I'
p5054
(lp5055
I32221583
aI32231604
aS'+'
asS'GBP3'
p5056
(lp5057
I89006676
aI89022866
aS'-'
asS'GBP2'
p5058
(lp5059
I89106132
aI89126159
aS'-'
asS'GBP1'
p5060
(lp5061
I89052320
aI89065208
aS'-'
asS'GBP7'
p5062
(lp5063
I89131750
aI89176040
aS'-'
asS'GBP6'
p5064
(lp5065
I89363876
aI89388160
aS'+'
asS'GBP5'
p5066
(lp5067
I89258950
aI89272861
aS'-'
asS'GBP4'
p5068
(lp5069
I89181144
aI89198942
aS'-'
asS'LBR'
p5070
(lp5071
I225401501
aI225428855
aS'-'
asS'GPR89B'
p5072
(lp5073
I147928373
aI147993592
aS'+'
asS'ARV1'
p5074
(lp5075
I230979048
aI231000733
aS'+'
asS'GPR89A'
p5076
(lp5077
I145607987
aI145670650
aS'+'
asS'MIR3605'
p5078
(lp5079
I33332392
aI33332492
aS'-'
asS'CR2'
p5080
(lp5081
I207454299
aI207489895
aS'+'
asS'CR1'
p5082
(lp5083
I207496127
aI207641765
aS'+'
asS'TNFRSF1B'
p5084
(lp5085
I12167002
aI12209220
aS'+'
asS'SH3BGRL3'
p5086
(lp5087
I26279721
aI26281522
aS'+'
asS'ATP1A1-AS1'
p5088
(lp5089
I116392864
aI116418622
aS'-'
asS'RPAP2'
p5090
(lp5091
I92298964
aI92388175
aS'+'
asS'LINC01762'
p5092
(lp5093
I116423723
aI116478826
aS'-'
asS'VHLL'
p5094
(lp5095
I156298623
aI156299637
aS'-'
asS'WARS2-AS1'
p5096
(lp5097
I119140395
aI119275973
aS'+'
asS'FNDC5'
p5098
(lp5099
I32862267
aI32872492
aS'-'
asS'SVBP'
p5100
(lp5101
I42807051
aI42817397
aS'-'
asS'OR6N2'
p5102
(lp5103
I158776681
aI158777635
aS'-'
asS'GSTM3'
p5104
(lp5105
I109733931
aI109741038
aS'-'
asS'LCK'
p5106
(lp5107
I32251238
aI32286167
aS'+'
asS'C1orf100'
p5108
(lp5109
I244352634
aI244389086
aS'+'
asS'FNDC7'
p5110
(lp5111
I108712933
aI108742745
aS'+'
asS'LINC00184'
p5112
(lp5113
I234629310
aI234634780
aS'+'
asS'AP4B1-AS1'
p5114
(lp5115
I113812611
aI113901237
aS'+'
asS'TINAGL1'
p5116
(lp5117
I31576484
aI31587686
aS'+'
asS'PRAMEF26'
p5118
(lp5119
I13073677
aI13077884
aS'+'
asS'OLFM3'
p5120
(lp5121
I101802566
aI101997234
aS'-'
asS'DARS2'
p5122
(lp5123
I173824672
aI173858546
aS'+'
asS'CD2'
p5124
(lp5125
I116754429
aI116769229
aS'+'
asS'CNIH4'
p5126
(lp5127
I224356810
aI224379451
aS'+'
asS'EGLN1'
p5128
(lp5129
I231363750
aI231425044
aS'-'
asS'GMEB1'
p5130
(lp5131
I28668727
aI28715603
aS'+'
asS'BCAS2'
p5132
(lp5133
I114567559
aI114581615
aS'-'
asS'DIPK1A'
p5134
(lp5135
I92832728
aI92961522
aS'-'
asS'APH1A'
p5136
(lp5137
I150265398
aI150269209
aS'-'
asS'DRAM2'
p5138
(lp5139
I111117169
aI111140216
aS'-'
asS'ADIPOR1'
p5140
(lp5141
I202940824
aI202958572
aS'-'
asS'NBPF26'
p5142
(lp5143
I120805555
aI120842215
aS'+'
asS'CHRNB2'
p5144
(lp5145
I154567780
aI154579877
aS'+'
asS'CD84'
p5146
(lp5147
I160541093
aI160579516
aS'-'
asS'NBPF20'
p5148
(lp5149
I145289899
aI145405778
aS'-'
asS'MARK1'
p5150
(lp5151
I220528182
aI220664457
aS'+'
asS'LOC103021295'
p5152
(lp5153
I205957924
aI205958388
aS'+'
asS'DPM3'
p5154
(lp5155
I155139890
aI155140520
aS'-'
asS'MARCKSL1'
p5156
(lp5157
I32333828
aI32336239
aS'-'
asS'LOC105378696'
p5158
(lp5159
I46532993
aI46535515
aS'-'
asS'ZBED6'
p5160
(lp5161
I203797522
aI203801072
aS'+'
asS'SLC26A9-AS1'
p5162
(lp5163
I205934912
aI205978095
aS'+'
asS'LOC101927468'
p5164
(lp5165
I148208092
aI148247071
aS'-'
asS'HAX1'
p5166
(lp5167
I154272562
aI154275878
aS'+'
asS'EFNA4'
p5168
(lp5169
I155063736
aI155069553
aS'+'
asS'EFNA3'
p5170
(lp5171
I155078871
aI155087538
aS'+'
asS'EFNA1'
p5172
(lp5173
I155127872
aI155134910
aS'+'
asS'SELE'
p5174
(lp5175
I169722639
aI169734079
aS'-'
asS'OCLM'
p5176
(lp5177
I186400571
aI186401455
aS'+'
asS'EBNA1BP2'
p5178
(lp5179
I43164173
aI43172570
aS'-'
asS'TYW3'
p5180
(lp5181
I74733151
aI74766676
aS'+'
asS'GPR37L1'
p5182
(lp5183
I202122840
aI202133588
aS'+'
asS'CDA'
p5184
(lp5185
I20588950
aI20618907
aS'+'
asS'PLXNA2'
p5186
(lp5187
I208022242
aI208244320
aS'-'
asS'LRP8'
p5188
(lp5189
I53242369
aI53328149
aS'-'
asS'PRAMEF36P'
p5190
(lp5191
I13127068
aI13132274
aS'+'
asS'MIR215'
p5192
(lp5193
I220117852
aI220117962
aS'-'
asS'MIR214'
p5194
(lp5195
I172138797
aI172138907
aS'-'
asS'C1orf162'
p5196
(lp5197
I111473868
aI111478512
aS'+'
asS'MIR1976'
p5198
(lp5199
I26554541
aI26554593
aS'+'
asS'C1orf167'
p5200
(lp5201
I11762192
aI11789585
aS'+'
asS'PDE4B'
p5202
(lp5203
I65792509
aI66374579
aS'+'
asS'CLCC1'
p5204
(lp5205
I108929507
aI108963499
aS'-'
asS'CREG1'
p5206
(lp5207
I167541013
aI167553819
aS'-'
asS'C1orf210'
p5208
(lp5209
I43281885
aI43285617
aS'-'
asS'SPATA21'
p5210
(lp5211
I16395680
aI16437424
aS'-'
asS'C1orf216'
p5212
(lp5213
I35713875
aI35719189
aS'-'
asS'C8A'
p5214
(lp5215
I56854769
aI56918221
aS'+'
asS'C8B'
p5216
(lp5217
I56929209
aI56966140
aS'-'
asS'ZMYND12'
p5218
(lp5219
I42430329
aI42456267
aS'-'
asS'C1orf185'
p5220
(lp5221
I51102227
aI51148085
aS'+'
asS'MIR6500'
p5222
(lp5223
I51060017
aI51060103
aS'+'
asS'RAP1GAP'
p5224
(lp5225
I21596220
aI21669380
aS'-'
asS'RNU11'
p5226
(lp5227
I28648599
aI28648734
aS'+'
asS'CHIT1'
p5228
(lp5229
I203216078
aI203229732
aS'-'
asS'PCP4L1'
p5230
(lp5231
I161258726
aI161285450
aS'+'
asS'LINC00982'
p5232
(lp5233
I3059616
aI3067725
aS'-'
asS'EFCAB14-AS1'
p5234
(lp5235
I46674035
aI46692097
aS'+'
asS'SPOCD1'
p5236
(lp5237
I31790421
aI31816051
aS'-'
asS'CFHR3'
p5238
(lp5239
I196774799
aI196794073
aS'+'
asS'MIR6728'
p5240
(lp5241
I8866501
aI8866590
aS'-'
asS'MIR6729'
p5242
(lp5243
I12029157
aI12029222
aS'+'
asS'ESRRG'
p5244
(lp5245
I216503245
aI217137755
aS'-'
asS'GS1-279B7.1'
p5246
(lp5247
I185323846
aI185335039
aS'-'
asS'MTR'
p5248
(lp5249
I236795280
aI236903981
aS'+'
asS'PKN2'
p5250
(lp5251
I88684143
aI88836255
aS'+'
asS'MIR6726'
p5252
(lp5253
I1296109
aI1296170
aS'-'
asS'MIR6727'
p5254
(lp5255
I1312501
aI1312566
aS'-'
asS'EPHA10'
p5256
(lp5257
I37715973
aI37765152
aS'-'
asS'PLK3'
p5258
(lp5259
I44800224
aI44805995
aS'+'
asS'TIE1'
p5260
(lp5261
I43300894
aI43323110
aS'+'
asS'FAM43B'
p5262
(lp5263
I20552572
aI20555020
aS'+'
asS'DMRTA2'
p5264
(lp5265
I50417549
aI50423443
aS'-'
asS'S100A2'
p5266
(lp5267
I153561108
aI153565844
aS'-'
asS'YY1AP1'
p5268
(lp5269
I155659441
aI155689032
aS'-'
asS'MIR1255B2'
p5270
(lp5271
I167998659
aI167998726
aS'+'
asS'CMPK1'
p5272
(lp5273
I47333789
aI47378839
aS'+'
asS'HTR1D'
p5274
(lp5275
I23191894
aI23194729
aS'-'
asS'HAO2'
p5276
(lp5277
I119368775
aI119394130
aS'+'
asS'MIR3116-2'
p5278
(lp5279
I62078788
aI62078856
aS'-'
asS'MIR3116-1'
p5280
(lp5281
I62078785
aI62078859
aS'+'
asS'TPR'
p5282
(lp5283
I186311653
aI186375253
aS'-'
asS'DNAH14'
p5284
(lp5285
I224929653
aI225399294
aS'+'
asS'MYOM3'
p5286
(lp5287
I24056040
aI24112175
aS'-'
asS'OR2T4'
p5288
(lp5289
I248361580
aI248362627
aS'+'
asS'ASB17'
p5290
(lp5291
I75918872
aI75932431
aS'-'
asS'HLX-AS1'
p5292
(lp5293
I220832762
aI220880140
aS'-'
asS'LDLRAD1'
p5294
(lp5295
I54007297
aI54018186
aS'-'
asS'LDLRAD2'
p5296
(lp5297
I21812264
aI21825221
aS'+'
asS'HPCA'
p5298
(lp5299
I32886496
aI32894646
aS'+'
asS'TATDN3'
p5300
(lp5301
I212791827
aI212816825
aS'+'
asS'CHRM3-AS1'
p5302
(lp5303
I239898018
aI239899872
aS'-'
asS'PBXIP1'
p5304
(lp5305
I154944082
aI154956163
aS'-'
asS'LOC101928565'
p5306
(lp5307
I168464113
aI168495644
aS'-'
asS'NES'
p5308
(lp5309
I156668762
aI156677407
aS'-'
asS'RYR2'
p5310
(lp5311
I237042401
aI237833988
aS'+'
asS'TCHHL1'
p5312
(lp5313
I152084143
aI152089064
aS'-'
asS'NAV1'
p5314
(lp5315
I201648321
aI201826974
aS'+'
asS'KMO'
p5316
(lp5317
I241532133
aI241595647
aS'+'
asS'XCL1'
p5318
(lp5319
I168576604
aI168582069
aS'+'
asS'CEP350'
p5320
(lp5321
I179954772
aI180114880
aS'+'
asS'CRYZL2P-SEC16B'
p5322
(lp5323
I177928787
aI178038007
aS'-'
asS'PTBP2'
p5324
(lp5325
I96721604
aI96815049
aS'+'
asS'EDN2'
p5326
(lp5327
I41478774
aI41484683
aS'-'
asS'DNAJA1P5'
p5328
(lp5329
I101872011
aI101894743
aS'+'
asS'NTPCR'
p5330
(lp5331
I232950530
aI232978802
aS'+'
asS'FAM19A3'
p5332
(lp5333
I112720566
aI112727234
aS'+'
asS'CELA3B'
p5334
(lp5335
I21976893
aI21989354
aS'+'
asS'LOC100506747'
p5336
(lp5337
I202986451
aI203007265
aS'-'
asS'CELA3A'
p5338
(lp5339
I22001655
aI22012542
aS'+'
asS'TSPAN2'
p5340
(lp5341
I115048010
aI115089500
aS'-'
asS'MIR200A'
p5342
(lp5343
I1167862
aI1167952
aS'+'
asS'TSPAN1'
p5344
(lp5345
I46175076
aI46185962
aS'+'
asS'GIPC2'
p5346
(lp5347
I78044961
aI78138449
aS'+'
asS'ATP2B4'
p5348
(lp5349
I203626786
aI203744081
aS'+'
asS'OR2T3'
p5350
(lp5351
I248473350
aI248474307
aS'+'
asS'CENPS'
p5352
(lp5353
I10430432
aI10442808
aS'+'
asS'FDPS'
p5354
(lp5355
I155308747
aI155320666
aS'+'
asS'BARHL2'
p5356
(lp5357
I90712021
aI90717237
aS'-'
asS'FLJ37453'
p5358
(lp5359
I15834214
aI15848147
aS'-'
asS'RPL21P28'
p5360
(lp5361
I212051485
aI212052051
aS'-'
asS'MIR1302-10'
p5362
(lp5363
I30365
aI30503
aS'+'
asS'MIR1302-11'
p5364
(lp5365
I30365
aI30503
aS'+'
asS'RBM15-AS1'
p5366
(lp5367
I110286375
aI110339171
aS'-'
asS'LCE6A'
p5368
(lp5369
I152842853
aI152843983
aS'+'
asS'LOC101928163'
p5370
(lp5371
I23521929
aI23528419
aS'+'
asS'SLC2A5'
p5372
(lp5373
I9036945
aI9072227
aS'-'
asS'KDM5B'
p5374
(lp5375
I202725184
aI202809470
aS'-'
asS'ADCY10'
p5376
(lp5377
I167809387
aI167914226
aS'-'
asS'MACF1'
p5378
(lp5379
I39084166
aI39487138
aS'+'
asS'PABPC4'
p5380
(lp5381
I39560812
aI39576849
aS'-'
asS'LOC100288069'
p5382
(lp5383
I764864
aI778688
aS'-'
asS'SLC25A34'
p5384
(lp5385
I15736257
aI15741392
aS'+'
asS'GLUL'
p5386
(lp5387
I182378092
aI182392206
aS'-'
asS'SYT6'
p5388
(lp5389
I114089291
aI114153869
aS'-'
asS'SLC25A33'
p5390
(lp5391
I9539468
aI9582773
aS'+'
asS'MAPKAPK2'
p5392
(lp5393
I206685019
aI206734285
aS'+'
asS'THBS3'
p5394
(lp5395
I155195587
aI155207981
aS'-'
asS'AJAP1'
p5396
(lp5397
I4655044
aI4783791
aS'+'
asS'PIK3R3'
p5398
(lp5399
I46040139
aI46174901
aS'-'
asS'LOC101060524'
p5400
(lp5401
I144274552
aI144276762
aS'-'
asS'MFSD4A'
p5402
(lp5403
I205568983
aI205602918
aS'+'
asS'ZNF281'
p5404
(lp5405
I200404946
aI200410058
aS'-'
asS'MIR4252'
p5406
(lp5407
I6429833
aI6429896
aS'-'
asS'PLPPR5'
p5408
(lp5409
I98890244
aI99004893
aS'-'
asS'MIR4251'
p5410
(lp5411
I3127974
aI3128035
aS'+'
asS'MIR4256'
p5412
(lp5413
I112461769
aI112461833
aS'-'
asS'MIR4257'
p5414
(lp5415
I150551928
aI150552014
aS'+'
asS'MIR4254'
p5416
(lp5417
I31758659
aI31758735
aS'-'
asS'MIR4255'
p5418
(lp5419
I37161562
aI37161634
aS'+'
asS'MIR4258'
p5420
(lp5421
I154975692
aI154975783
aS'+'
asS'MIR4259'
p5422
(lp5423
I159899978
aI159900079
aS'-'
asS'CPLANE2'
p5424
(lp5425
I16231686
aI16237164
aS'-'
asS'RIMKLA'
p5426
(lp5427
I42380796
aI42424229
aS'+'
asS'MIR3972'
p5428
(lp5429
I17277888
aI17277975
aS'+'
asS'NPHS2'
p5430
(lp5431
I179550538
aI179575952
aS'-'
asS'KIAA0040'
p5432
(lp5433
I175156986
aI175193093
aS'-'
asS'ORC1'
p5434
(lp5435
I52372828
aI52404471
aS'-'
asS'LOC284632'
p5436
(lp5437
I24200239
aI24211690
aS'+'
asS'ETV3'
p5438
(lp5439
I157121190
aI157138591
aS'-'
asS'LINC01138'
p5440
(lp5441
I148432958
aI148459920
aS'-'
asS'LINC01139'
p5442
(lp5443
I238480383
aI238486017
aS'-'
asS'LINC01136'
p5444
(lp5445
I203298757
aI203305325
aS'-'
asS'LINC01137'
p5446
(lp5447
I37454878
aI37474443
aS'-'
asS'LINC01134'
p5448
(lp5449
I3900403
aI3915447
aS'+'
asS'LINC01135'
p5450
(lp5451
I58785150
aI58899712
aS'+'
asS'LINC01132'
p5452
(lp5453
I234724041
aI234731643
aS'+'
asS'LINC01133'
p5454
(lp5455
I159961223
aI159979086
aS'+'
asS'TMEM50A'
p5456
(lp5457
I25338297
aI25362361
aS'+'
asS'BTBD8'
p5458
(lp5459
I92080304
aI92147841
aS'+'
asS'OR10J1'
p5460
(lp5461
I159397464
aI159440963
aS'+'
asS'RAB3B'
p5462
(lp5463
I51907955
aI51990700
aS'-'
asS'TOMM40L'
p5464
(lp5465
I161225938
aI161230746
aS'+'
asS'RPE65'
p5466
(lp5467
I68428823
aI68449959
aS'-'
asS'GON4L'
p5468
(lp5469
I155749657
aI155859400
aS'-'
asS'DAB1-AS1'
p5470
(lp5471
I57860580
aI57863216
aS'+'
asS'ABL2'
p5472
(lp5473
I179099326
aI179229684
aS'-'
asS'PRKCZ-AS1'
p5474
(lp5475
I2181793
aI2183875
aS'-'
asS'SMIM1'
p5476
(lp5477
I3772760
aI3775982
aS'+'
asS'CYB5R1'
p5478
(lp5479
I202961872
aI202967276
aS'-'
asS'CGN'
p5480
(lp5481
I151511386
aI151538691
aS'+'
asS'HNRNPR'
p5482
(lp5483
I23304689
aI23344364
aS'-'
asS'HNRNPU'
p5484
(lp5485
I244850299
aI244864525
aS'-'
asS'BCL10'
p5486
(lp5487
I85265775
aI85276904
aS'-'
asS'LINC01222'
p5488
(lp5489
I198992588
aI199018964
aS'-'
asS'LINC01221'
p5490
(lp5491
I199016132
aI199076735
aS'+'
asS'LINC01226'
p5492
(lp5493
I31518434
aI31524245
aS'+'
asS'MGAT4EP'
p5494
(lp5495
I202820256
aI202827213
aS'+'
asS'LINC01225'
p5496
(lp5497
I31500084
aI31508566
aS'+'
asS'PPIAL4E'
p5498
(lp5499
I144372874
aI144373659
aS'-'
asS'SNRPE'
p5500
(lp5501
I203861584
aI203871152
aS'+'
asS'DUSP5P1'
p5502
(lp5503
I228644909
aI228652412
aS'+'
asS'OR2T2'
p5504
(lp5505
I248452797
aI248453772
aS'+'
asS'FMO1'
p5506
(lp5507
I171248470
aI171285978
aS'+'
asS'TMEM206'
p5508
(lp5509
I212364473
aI212414925
aS'-'
asS'SEC22B'
p5510
(lp5511
I120155941
aI120176521
aS'-'
asS'PSMA5'
p5512
(lp5513
I109399030
aI109426486
aS'-'
asS'SYDE2'
p5514
(lp5515
I85157672
aI85201045
aS'-'
asS'NFIA'
p5516
(lp5517
I61077273
aI61462788
aS'+'
asS'TNNI3K'
p5518
(lp5519
I74235386
aI74544426
aS'+'
asS'GFI1'
p5520
(lp5521
I92473042
aI92486925
aS'-'
asS'RGS16'
p5522
(lp5523
I182598622
aI182604413
aS'-'
asS'FAAH'
p5524
(lp5525
I46394266
aI46413848
aS'+'
asS'RGS13'
p5526
(lp5527
I192636137
aI192660310
aS'+'
asS'FAAHP1'
p5528
(lp5529
I46433826
aI46445702
aS'+'
asS'HIST2H2AA4'
p5530
(lp5531
I149842217
aI149842751
aS'-'
asS'FCMR'
p5532
(lp5533
I206903285
aI206922033
aS'-'
asS'ID3'
p5534
(lp5535
I23557929
aI23559794
aS'-'
asS'RGS18'
p5536
(lp5537
I192158461
aI192185815
aS'+'
asS'LINC00260'
p5538
(lp5539
I203730576
aI203731851
aS'+'
asS'OXCT2'
p5540
(lp5541
I39769524
aI39771348
aS'-'
asS'TADA1'
p5542
(lp5543
I166856511
aI166876417
aS'-'
asS'SLFNL1'
p5544
(lp5545
I41015596
aI41021755
aS'-'
asS'CD52'
p5546
(lp5547
I26317919
aI26320523
aS'+'
asS'CD53'
p5548
(lp5549
I110871198
aI110899936
aS'+'
asS'HP1BP3'
p5550
(lp5551
I20742677
aI20786688
aS'-'
asS'CD55'
p5552
(lp5553
I207321471
aI207360966
aS'+'
asS'CD58'
p5554
(lp5555
I116514533
aI116571093
aS'-'
asS'LOC101927478'
p5556
(lp5557
I229508429
aI229514087
aS'+'
asS'SCP2'
p5558
(lp5559
I52927228
aI53051617
aS'+'
asS'ITPKB-IT1'
p5560
(lp5561
I226656079
aI226675068
aS'-'
asS'LENEP'
p5562
(lp5563
I154993585
aI154994315
aS'+'
asS'CACYBP'
p5564
(lp5565
I174999434
aI175012027
aS'+'
asS'ELF3'
p5566
(lp5567
I202010561
aI202017187
aS'+'
asS'LOC105378591'
p5568
(lp5569
I2049200
aI2050070
aS'-'
asS'FLG-AS1'
p5570
(lp5571
I152313458
aI152366692
aS'+'
asS'PDE4DIPP1'
p5572
(lp5573
I148049301
aI148094777
aS'+'
asS'SYT11'
p5574
(lp5575
I155859468
aI155885199
aS'+'
asS'AHDC1'
p5576
(lp5577
I27534244
aI27603494
aS'-'
asS'C1orf174'
p5578
(lp5579
I3889132
aI3900293
aS'-'
asS'TTLL10'
p5580
(lp5581
I1173905
aI1197933
aS'+'
asS'NFYC-AS1'
p5582
(lp5583
I40689079
aI40692261
aS'-'
asS'DISP1'
p5584
(lp5585
I222815080
aI223005995
aS'+'
asS'DISP3'
p5586
(lp5587
I11479237
aI11537583
aS'+'
asS'OBSCN-AS1'
p5588
(lp5589
I228203505
aI228213655
aS'-'
asS'PEF1'
p5590
(lp5591
I31629861
aI31645237
aS'-'
asS'COL8A2'
p5592
(lp5593
I36095238
aI36125222
aS'-'
asS'ODF2L'
p5594
(lp5595
I86346823
aI86396342
aS'-'
asS'ACAP3'
p5596
(lp5597
I1292383
aI1307889
aS'-'
asS'OR10J4'
p5598
(lp5599
I159432191
aI159433314
aS'+'
asS'OR10J5'
p5600
(lp5601
I159535077
aI159536007
aS'-'
asS'C1orf198'
p5602
(lp5603
I230837118
aI230869589
aS'-'
asS'LUZP1'
p5604
(lp5605
I23084022
aI23168858
aS'-'
asS'OR10J3'
p5606
(lp5607
I159313669
aI159314659
aS'-'
asS'MIR488'
p5608
(lp5609
I177029362
aI177029445
aS'-'
asS'C1orf195'
p5610
(lp5611
I15164195
aI15171624
aS'-'
asS'C1orf194'
p5612
(lp5613
I109105950
aI109113857
aS'-'
asS'SELL'
p5614
(lp5615
I169690666
aI169711620
aS'-'
asS'RCC1'
p5616
(lp5617
I28505942
aI28539196
aS'+'
asS'RCC2'
p5618
(lp5619
I17406754
aI17439754
aS'-'
asS'PLEKHG5'
p5620
(lp5621
I6466091
aI6520061
aS'-'
asS'CD160'
p5622
(lp5623
I145719445
aI145739288
aS'+'
asS'SPATA6'
p5624
(lp5625
I48295371
aI48472208
aS'-'
asS'METTL11B'
p5626
(lp5627
I170146046
aI170167782
aS'+'
asS'MIR194-1'
p5628
(lp5629
I220118156
aI220118241
aS'-'
asS'SPATA1'
p5630
(lp5631
I84506300
aI84556495
aS'+'
asS'SELP'
p5632
(lp5633
I169588849
aI169630139
aS'-'
asS'NPPA-AS1'
p5634
(lp5635
I11840318
aI11847616
aS'+'
asS'CD5L'
p5636
(lp5637
I157827070
aI157841844
aS'-'
as.