(dp1
S'MIR140'
p2
(lp3
I69933080
aI69933180
aS'+'
asS'ZCCHC14'
p4
(lp5
I87406245
aI87491854
aS'-'
asS'MIR6770-3'
p6
(lp7
I14930819
aI14930879
aS'+'
asS'JPH3'
p8
(lp9
I87601834
aI87698155
aS'+'
asS'NAA60'
p10
(lp11
I3443610
aI3486963
aS'+'
asS'PMM2'
p12
(lp13
I8797838
aI8849325
aS'+'
asS'EEF2K'
p14
(lp15
I22206270
aI22288745
aS'+'
asS'LINC02186'
p16
(lp17
I14018879
aI14021077
aS'-'
asS'FENDRR'
p18
(lp19
I86474524
aI86508860
aS'-'
asS'SMG1'
p20
(lp21
I18804852
aI18926404
aS'-'
asS'VN1R3'
p22
(lp23
I31807584
aI31808853
aS'-'
asS'HBQ1'
p24
(lp25
I180333
aI181179
aS'+'
asS'VPS35L'
p26
(lp27
I19555702
aI19701124
aS'+'
asS'PPP4C'
p28
(lp29
I30075975
aI30085377
aS'+'
asS'PABPN1L'
p30
(lp31
I88863339
aI88866660
aS'-'
asS'NOB1'
p32
(lp33
I69741853
aI69754968
aS'-'
asS'LINC02185'
p34
(lp35
I14009275
aI14016018
aS'-'
asS'SPN'
p36
(lp37
I29662949
aI29670872
aS'+'
asS'IRX5'
p38
(lp39
I54931198
aI54934483
aS'+'
asS'ZC3H18'
p40
(lp41
I88570380
aI88631964
aS'+'
asS'IRX6'
p42
(lp43
I55324558
aI55330760
aS'+'
asS'VAC14'
p44
(lp45
I70687438
aI70801176
aS'-'
asS'DUS2'
p46
(lp47
I68022943
aI68079323
aS'+'
asS'PRSS36'
p48
(lp49
I31138925
aI31150094
aS'-'
asS'UNKL'
p50
(lp51
I1363204
aI1414720
aS'-'
asS'HCCAT5'
p52
(lp53
I73092348
aI73093773
aS'+'
asS'ZNF688'
p54
(lp55
I30569700
aI30572407
aS'-'
asS'ZNF689'
p56
(lp57
I30602557
aI30610775
aS'-'
asS'LOC102724927'
p58
(lp59
I3947625
aI3950444
aS'-'
asS'CASC22'
p60
(lp61
I52258563
aI52280299
aS'+'
asS'NUP93'
p62
(lp63
I56730104
aI56844949
aS'+'
asS'SLC38A8'
p64
(lp65
I84009666
aI84042157
aS'-'
asS'ZNF48'
p66
(lp67
I30378311
aI30400108
aS'+'
asS'APRT'
p68
(lp69
I88809468
aI88811934
aS'-'
asS'TGFB1I1'
p70
(lp71
I31472154
aI31477960
aS'+'
asS'IQCK'
p72
(lp73
I19716455
aI19858467
aS'+'
asS'RAB40C'
p74
(lp75
I589356
aI629273
aS'+'
asS'MT1F'
p76
(lp77
I56657942
aI56659303
aS'+'
asS'COX6A2'
p78
(lp79
I31427730
aI31428428
aS'-'
asS'SNORD13H'
p80
(lp81
I69708571
aI69708675
aS'-'
asS'LINC01081'
p82
(lp83
I86225579
aI86286247
aS'-'
asS'IST1'
p84
(lp85
I71894407
aI71930637
aS'+'
asS'ZNF174'
p86
(lp87
I3401189
aI3409366
aS'+'
asS'CDH15'
p88
(lp89
I89171754
aI89195492
aS'+'
asS'LITAF'
p90
(lp91
I11547721
aI11587466
aS'-'
asS'ERI2'
p92
(lp93
I20780192
aI20806473
aS'-'
asS'GINS2'
p94
(lp95
I85677673
aI85688982
aS'-'
asS'ATF7IP2'
p96
(lp97
I10385998
aI10483643
aS'+'
asS'MT1A'
p98
(lp99
I56638665
aI56640088
aS'+'
asS'FUS'
p100
(lp101
I31180109
aI31194871
aS'+'
asS'SNRNP25'
p102
(lp103
I53828
aI57669
aS'+'
asS'EEF2KMT'
p104
(lp105
I5084299
aI5097820
aS'-'
asS'PRR14'
p106
(lp107
I30650701
aI30656440
aS'+'
asS'LOC652276'
p108
(lp109
I2603383
aI2630494
aS'+'
asS'LAT'
p110
(lp111
I28984825
aI28990783
aS'+'
asS'ZSCAN10'
p112
(lp113
I3088890
aI3099317
aS'-'
asS'NPW'
p114
(lp115
I2019519
aI2020755
aS'+'
asS'LINC02189'
p116
(lp117
I86720683
aI86721959
aS'-'
asS'CTCF'
p118
(lp119
I67562406
aI67639185
aS'+'
asS'ZNF771'
p120
(lp121
I30407413
aI30418595
aS'+'
asS'MMP15'
p122
(lp123
I58025565
aI58046900
aS'+'
asS'IL21R'
p124
(lp125
I27402161
aI27452042
aS'+'
asS'ATP2A1'
p126
(lp127
I28878487
aI28904509
aS'+'
asS'ORAI3'
p128
(lp129
I30949083
aI30954938
aS'+'
asS'ANKS4B'
p130
(lp131
I21233694
aI21252429
aS'+'
asS'CCDC113'
p132
(lp133
I58249935
aI58283830
aS'+'
asS'TSNAXIP1'
p134
(lp135
I67806764
aI67828068
aS'+'
asS'TANGO6'
p136
(lp137
I68843605
aI69085182
aS'+'
asS'GTF3C1'
p138
(lp139
I27460612
aI27549930
aS'-'
asS'SNORD60'
p140
(lp141
I2155022
aI2155105
aS'-'
asS'EDC4'
p142
(lp143
I67873022
aI67884514
aS'+'
asS'LOC388242'
p144
(lp145
I30204315
aI30206927
aS'-'
asS'CRISPLD2'
p146
(lp147
I84819980
aI84909510
aS'+'
asS'MIR3182'
p148
(lp149
I83508345
aI83508408
aS'+'
asS'MIR3181'
p150
(lp151
I50742304
aI50742377
aS'+'
asS'ZG16B'
p152
(lp153
I2830171
aI2832284
aS'+'
asS'MTHFSD'
p154
(lp155
I86530175
aI86555235
aS'-'
asS'XPO6'
p156
(lp157
I28097975
aI28211918
aS'-'
asS'PKD1P3-NPIPA1'
p158
(lp159
I14911761
aI14952060
aS'+'
asS'LOC100287175'
p160
(lp161
I636951
aI639205
aS'+'
asS'PAM16'
p162
(lp163
I4340248
aI4351399
aS'-'
asS'ANKS3'
p164
(lp165
I4696509
aI4734377
aS'-'
asS'ABCA17P'
p166
(lp167
I2340921
aI2426699
aS'+'
asS'LRRC29'
p168
(lp169
I67207138
aI67226998
aS'-'
asS'TBC1D24'
p170
(lp171
I2475145
aI2505733
aS'+'
asS'FBXL19'
p172
(lp173
I30923054
aI30948783
aS'+'
asS'RRN3P2'
p174
(lp175
I29074841
aI29116717
aS'+'
asS'RRN3P1'
p176
(lp177
I21796629
aI21819174
aS'-'
asS'LINC02167'
p178
(lp179
I35746551
aI35756624
aS'+'
asS'LOC106660606'
p180
(lp181
I2268662
aI2273072
aS'+'
asS'ABCA3'
p182
(lp183
I2275880
aI2340728
aS'-'
asS'NDUFAB1'
p184
(lp185
I23581013
aI23596316
aS'-'
asS'RSPRY1'
p186
(lp187
I57186283
aI57240475
aS'+'
asS'MT1JP'
p188
(lp189
I56635738
aI56637086
aS'+'
asS'PRSS53'
p190
(lp191
I31083423
aI31088809
aS'-'
asS'NMRAL1'
p192
(lp193
I4461679
aI4476337
aS'-'
asS'DNASE1L2'
p194
(lp195
I2236466
aI2238711
aS'+'
asS'AKTIP'
p196
(lp197
I53491039
aI53503304
aS'-'
asS'CMTR2'
p198
(lp199
I71282299
aI71289715
aS'-'
asS'CHST5'
p200
(lp201
I75528529
aI75535170
aS'-'
asS'UBALD1'
p202
(lp203
I4608882
aI4614926
aS'-'
asS'FTO'
p204
(lp205
I53704155
aI54121941
aS'+'
asS'GDPD3'
p206
(lp207
I30104809
aI30113557
aS'-'
asS'ITGAX'
p208
(lp209
I31355133
aI31382997
aS'+'
asS'MMP25-AS1'
p210
(lp211
I3052124
aI3059370
aS'-'
asS'ZNRF1'
p212
(lp213
I74999016
aI75110994
aS'+'
asS'TFAP4'
p214
(lp215
I4257185
aI4273000
aS'-'
asS'ACSM1'
p216
(lp217
I20623236
aI20697788
aS'-'
asS'OTOAP1'
p218
(lp219
I22545697
aI22576865
aS'+'
asS'LINC02130'
p220
(lp221
I14363108
aI14370266
aS'-'
asS'ITGAL'
p222
(lp223
I30472661
aI30523185
aS'+'
asS'ITGAM'
p224
(lp225
I31259966
aI31332892
aS'+'
asS'TK2'
p226
(lp227
I66508002
aI66550412
aS'-'
asS'COTL1'
p228
(lp229
I84565597
aI84618096
aS'-'
asS'LOC105371083'
p230
(lp231
I11341809
aI11345212
aS'-'
asS'FOXC2'
p232
(lp233
I86566828
aI86569727
aS'+'
asS'CD19'
p234
(lp235
I28931938
aI28939347
aS'+'
asS'MYH11'
p236
(lp237
I15703134
aI15857030
aS'-'
asS'LOC101928035'
p238
(lp239
I74192391
aI74215521
aS'-'
asS'POLR2C'
p240
(lp241
I57462638
aI57472009
aS'+'
asS'CAPNS2'
p242
(lp243
I55566671
aI55567684
aS'+'
asS'LOC390705'
p244
(lp245
I32289546
aI32289981
aS'-'
asS'LINC02134'
p246
(lp247
I47965688
aI47971687
aS'+'
asS'CDH13'
p248
(lp249
I82626793
aI83796610
aS'+'
asS'CKLF-CMTM1'
p250
(lp251
I66552562
aI66579135
aS'+'
asS'LINC2194'
p252
(lp253
I24236103
aI24252860
aS'+'
asS'WFDC1'
p254
(lp255
I84294705
aI84329851
aS'+'
asS'LINC00311'
p256
(lp257
I85282957
aI85288079
aS'+'
asS'LINC00919'
p258
(lp259
I52083064
aI52085109
aS'-'
asS'NUDT16L1'
p260
(lp261
I4693692
aI4695859
aS'+'
asS'SNORA64'
p262
(lp263
I1962972
aI1963106
aS'-'
asS'LOC100505942'
p264
(lp265
I67517705
aI67528745
aS'-'
asS'TSC2'
p266
(lp267
I2047894
aI2088720
aS'+'
asS'GPRC5B'
p268
(lp269
I19858970
aI19885634
aS'-'
asS'LINC00921'
p270
(lp271
I3263767
aI3267566
aS'+'
asS'ATP2C2-AS1'
p272
(lp273
I84459258
aI84467361
aS'-'
asS'LOC100129617'
p274
(lp275
I81665353
aI81667274
aS'+'
asS'TP53TG3F'
p276
(lp277
I32673518
aI32676110
aS'-'
asS'CIITA'
p278
(lp279
I10877197
aI10924983
aS'+'
asS'TP53TG3D'
p280
(lp281
I32253323
aI32255928
aS'+'
asS'TP53TG3E'
p282
(lp283
I32673520
aI32676110
aS'-'
asS'PTX4'
p284
(lp285
I1485938
aI1488909
aS'-'
asS'TP53TG3C'
p286
(lp287
I32673520
aI32676110
aS'-'
asS'LOC105371335'
p288
(lp289
I71513810
aI71517846
aS'+'
asS'FAHD1'
p290
(lp291
I1827223
aI1840202
aS'+'
asS'APOOP5'
p292
(lp293
I59754140
aI59755191
aS'-'
asS'SNN'
p294
(lp295
I11668432
aI11679161
aS'+'
asS'RNF151'
p296
(lp297
I1966822
aI1968976
aS'+'
asS'PSMD7'
p298
(lp299
I74296774
aI74306288
aS'+'
asS'LOC400553'
p300
(lp301
I88099408
aI88100985
aS'-'
asS'KIAA0513'
p302
(lp303
I85027750
aI85094222
aS'+'
asS'MVP'
p304
(lp305
I29820393
aI29848039
aS'+'
asS'FBXO31'
p306
(lp307
I87326986
aI87392107
aS'-'
asS'MIR1538'
p308
(lp309
I69565807
aI69565868
aS'-'
asS'HERC2P4'
p310
(lp311
I32170042
aI32188113
aS'-'
asS'CTF1'
p312
(lp313
I30896606
aI30903560
aS'+'
asS'LOC112694756'
p314
(lp315
I30053089
aI30070420
aS'+'
asS'SULT1A4'
p316
(lp317
I30199227
aI30204329
aS'+'
asS'BCAR4'
p318
(lp319
I11819834
aI11828832
aS'-'
asS'MBTPS1'
p320
(lp321
I84053760
aI84116943
aS'-'
asS'SULT1A1'
p322
(lp323
I28605586
aI28623586
aS'-'
asS'MYLK3'
p324
(lp325
I46702281
aI46763246
aS'-'
asS'SULT1A3'
p326
(lp327
I30199227
aI30204329
aS'+'
asS'SULT1A2'
p328
(lp329
I28591942
aI28597070
aS'-'
asS'CCNYL3'
p330
(lp331
I34351499
aI34381480
aS'-'
asS'FLJ30679'
p332
(lp333
I86555319
aI86557299
aS'+'
asS'COX4I1'
p334
(lp335
I85799566
aI85807003
aS'+'
asS'MVD'
p336
(lp337
I88651939
aI88663149
aS'-'
asS'BFAR'
p338
(lp339
I14632810
aI14669236
aS'+'
asS'CHTF18'
p340
(lp341
I788621
aI798074
aS'+'
asS'SH2B1'
p342
(lp343
I28846599
aI28874213
aS'+'
asS'NOL3'
p344
(lp345
I67170496
aI67175737
aS'+'
asS'CPHXL'
p346
(lp347
I75714130
aI75726490
aS'-'
asS'RAB11FIP3'
p348
(lp349
I425667
aI522481
aS'+'
asS'THAP11'
p350
(lp351
I67842309
aI67844195
aS'+'
asS'LOC101927814'
p352
(lp353
I21589697
aI21599385
aS'-'
asS'LOC101927817'
p354
(lp355
I89430917
aI89454494
aS'+'
asS'NTN3'
p356
(lp357
I2471498
aI2474145
aS'+'
asS'ADGRG1'
p358
(lp359
I57619692
aI57665039
aS'+'
asS'MIR3935'
p360
(lp361
I56245519
aI56245623
aS'+'
asS'METTL22'
p362
(lp363
I8621639
aI8646222
aS'+'
asS'C16orf58'
p364
(lp365
I31489474
aI31508419
aS'-'
asS'CORO1A'
p366
(lp367
I30183409
aI30189076
aS'+'
asS'SSTR5'
p368
(lp369
I1072755
aI1081454
aS'+'
asS'METTL26'
p370
(lp371
I634426
aI636366
aS'-'
asS'RIPOR1'
p372
(lp373
I67528813
aI67546788
aS'+'
asS'TMEM8A'
p374
(lp375
I370775
aI381950
aS'-'
asS'LINC01195'
p376
(lp377
I9446012
aI9455505
aS'-'
asS'CDIP1'
p378
(lp379
I4510675
aI4538815
aS'-'
asS'MGRN1'
p380
(lp381
I4624823
aI4690974
aS'+'
asS'FLJ42627'
p382
(lp383
I2638981
aI2646129
aS'+'
asS'WASIR2'
p384
(lp385
I22915
aI25112
aS'+'
asS'ZNF19'
p386
(lp387
I71474072
aI71489351
aS'-'
asS'NRN1L'
p388
(lp389
I67884877
aI67888853
aS'+'
asS'DOC2A'
p390
(lp391
I30005513
aI30013596
aS'-'
asS'AHSP'
p392
(lp393
I31527851
aI31528804
aS'+'
asS'IRF8'
p394
(lp395
I85898802
aI85922609
aS'+'
asS'MT2A'
p396
(lp397
I56608532
aI56609497
aS'+'
asS'MLKL'
p398
(lp399
I74671854
aI74701148
aS'-'
asS'MARF1'
p400
(lp401
I15594368
aI15643166
aS'-'
asS'SLC6A10P'
p402
(lp403
I32877475
aI32885142
aS'-'
asS'IGSF6'
p404
(lp405
I21641283
aI21652666
aS'-'
asS'TENT4B'
p406
(lp407
I50152917
aI50235308
aS'+'
asS'SLC38A7'
p408
(lp409
I58665108
aI58684777
aS'-'
asS'CHP2'
p410
(lp411
I23754626
aI23758951
aS'+'
asS'SPNS1'
p412
(lp413
I28974774
aI28984548
aS'+'
asS'PLCG2'
p414
(lp415
I81779257
aI81962693
aS'+'
asS'MAZ'
p416
(lp417
I29806095
aI29811183
aS'+'
asS'SYCE1L'
p418
(lp419
I77199396
aI77213004
aS'+'
asS'ABAT'
p420
(lp421
I8674586
aI8784575
aS'+'
asS'NDE1'
p422
(lp423
I15643266
aI15726351
aS'+'
asS'MIR6859-4'
p424
(lp425
I17051
aI17119
aS'-'
asS'MIR6859-2'
p426
(lp427
I17051
aI17119
aS'-'
asS'MIR6859-3'
p428
(lp429
I17051
aI17119
aS'-'
asS'CRYM-AS1'
p430
(lp431
I21300848
aI21318591
aS'+'
asS'MIR6859-1'
p432
(lp433
I17051
aI17119
aS'-'
asS'HERPUD1'
p434
(lp435
I56932141
aI56944864
aS'+'
asS'LOC107984813'
p436
(lp437
I67561410
aI67562309
aS'-'
asS'LOC102724163'
p438
(lp439
I83797235
aI83803976
aS'-'
asS'ZNF200'
p440
(lp441
I3222324
aI3235457
aS'-'
asS'GAS8'
p442
(lp443
I90019628
aI90044971
aS'+'
asS'NPIPB4'
p444
(lp445
I21834562
aI21857756
aS'-'
asS'CDK10'
p446
(lp447
I89686667
aI89696364
aS'+'
asS'CNEP1R1'
p448
(lp449
I50025205
aI50037088
aS'+'
asS'LOC283856'
p450
(lp451
I56092986
aI56191094
aS'-'
asS'SNX29'
p452
(lp453
I11976733
aI12574289
aS'+'
asS'LOC106699570'
p454
(lp455
I66751751
aI66754742
aS'+'
asS'PGP'
p456
(lp457
I2211601
aI2214821
aS'-'
asS'MIR548AI'
p458
(lp459
I50878772
aI51409868
aS'+'
asS'ZNF646'
p460
(lp461
I31074421
aI31083512
aS'+'
asS'RPGRIP1L'
p462
(lp463
I53599238
aI53703938
aS'-'
asS'HSD17B2'
p464
(lp465
I82035252
aI82098534
aS'+'
asS'NLRC3'
p466
(lp467
I3539035
aI3577404
aS'-'
asS'N4BP1'
p468
(lp469
I48538725
aI48610209
aS'-'
asS'MTRNR2L4'
p470
(lp471
I3371052
aI3372283
aS'-'
asS'MIR5189'
p472
(lp473
I88468917
aI88469031
aS'+'
asS'HEATR3'
p474
(lp475
I50065940
aI50107272
aS'+'
asS'VAC14-AS1'
p476
(lp477
I70755094
aI70773251
aS'+'
asS'ADAT1'
p478
(lp479
I75596878
aI75623323
aS'-'
asS'SNORD111B'
p480
(lp481
I70529498
aI70529599
aS'+'
asS'ACSM2A'
p482
(lp483
I20451460
aI20487669
aS'+'
asS'E4F1'
p484
(lp485
I2223487
aI2235742
aS'+'
asS'RRN3'
p486
(lp487
I15060021
aI15094335
aS'-'
asS'IL34'
p488
(lp489
I70579894
aI70660682
aS'+'
asS'IL32'
p490
(lp491
I3065311
aI3069667
aS'+'
asS'ACSM2B'
p492
(lp493
I20536760
aI20576373
aS'-'
asS'MMP25'
p494
(lp495
I3046680
aI3060723
aS'+'
asS'TPSAB1'
p496
(lp497
I1240676
aI1242554
aS'+'
asS'TP53TG3'
p498
(lp499
I32673518
aI32676129
aS'-'
asS'LINC02177'
p500
(lp501
I9355587
aI9408093
aS'+'
asS'LINC02175'
p502
(lp503
I25066886
aI25068955
aS'+'
asS'E2F4'
p504
(lp505
I67192164
aI67198918
aS'+'
asS'CKLF'
p506
(lp507
I66552562
aI66566287
aS'+'
asS'RAB26'
p508
(lp509
I2148143
aI2154161
aS'+'
asS'GPT2'
p510
(lp511
I46884379
aI46931297
aS'+'
asS'SLX1A-SULT1A3'
p512
(lp513
I30194432
aI30204329
aS'+'
asS'CA7'
p514
(lp515
I66844413
aI66854146
aS'+'
asS'CYB5B'
p516
(lp517
I69424594
aI69466264
aS'+'
asS'LINC02178'
p518
(lp519
I50390915
aI50395133
aS'-'
asS'LOC101928595'
p520
(lp521
I30096429
aI30105456
aS'+'
asS'CHST4'
p522
(lp523
I71526119
aI71538590
aS'+'
asS'ZNF469'
p524
(lp525
I88427470
aI88440757
aS'+'
asS'TPSD1'
p526
(lp527
I1256271
aI1258493
aS'+'
asS'CMTM2'
p528
(lp529
I66579447
aI66588274
aS'+'
asS'CMTM3'
p530
(lp531
I66603995
aI66613892
aS'+'
asS'CMTM1'
p532
(lp533
I66566390
aI66579135
aS'+'
asS'PSKH1'
p534
(lp535
I67893271
aI67929678
aS'+'
asS'LOC100288162'
p536
(lp537
I14925749
aI14927283
aS'-'
asS'DEXI'
p538
(lp539
I10928890
aI10942400
aS'-'
asS'SF3B3'
p540
(lp541
I70523787
aI70577668
aS'+'
asS'LOC101928659'
p542
(lp543
I87317508
aI87318043
aS'+'
asS'NTAN1'
p544
(lp545
I15037852
aI15056079
aS'-'
asS'ZFPM1'
p546
(lp547
I88453605
aI88535166
aS'+'
asS'LOC102723385'
p548
(lp549
I19062753
aI19067691
aS'-'
asS'NQO1'
p550
(lp551
I69709400
aI69726668
aS'-'
asS'LINC02136'
p552
(lp553
I71410440
aI71426464
aS'-'
asS'C16orf95'
p554
(lp555
I87302797
aI87317420
aS'-'
asS'REXO5'
p556
(lp557
I20806444
aI20849668
aS'+'
asS'TNRC6A'
p558
(lp559
I24610208
aI24826226
aS'+'
asS'LOC105371328'
p560
(lp561
I70188321
aI70189252
aS'+'
asS'NUDT21'
p562
(lp563
I56429135
aI56451349
aS'-'
asS'FAM234A'
p564
(lp565
I234545
aI269943
aS'+'
asS'RFWD3'
p566
(lp567
I74621398
aI74666877
aS'-'
asS'TEPP'
p568
(lp569
I57976434
aI57988113
aS'+'
asS'SLX1A'
p570
(lp571
I29454500
aI29458224
aS'+'
asS'EIF3C'
p572
(lp573
I28688557
aI28735729
aS'+'
asS'FRG2KP'
p574
(lp575
I31563221
aI31567715
aS'-'
asS'B3GNT9'
p576
(lp577
I67148101
aI67150999
aS'-'
asS'MOSMO'
p578
(lp579
I22008134
aI22084651
aS'+'
asS'GNG13'
p580
(lp581
I798040
aI800734
aS'-'
asS'LINC02135'
p582
(lp583
I86286430
aI86293389
aS'+'
asS'CDH8'
p584
(lp585
I61652010
aI62036835
aS'-'
asS'ZNF267'
p586
(lp587
I31873757
aI31917308
aS'+'
asS'CCL22'
p588
(lp589
I57358782
aI57366190
aS'+'
asS'SLC12A3'
p590
(lp591
I56865206
aI56915850
aS'+'
asS'ZNF263'
p592
(lp593
I3283486
aI3291459
aS'+'
asS'CDH1'
p594
(lp595
I68737289
aI68835542
aS'+'
asS'NPIPB5'
p596
(lp597
I22513522
aI22536520
aS'+'
asS'CDH3'
p598
(lp599
I68644835
aI68699067
aS'+'
asS'SETD6'
p600
(lp601
I58515478
aI58520532
aS'+'
asS'CDH5'
p602
(lp603
I66366606
aI66404786
aS'+'
asS'MAPK3'
p604
(lp605
I30114104
aI30123309
aS'-'
asS'LINC00304'
p606
(lp607
I89159219
aI89163675
aS'+'
asS'MIR3670-1'
p608
(lp609
I14907716
aI14907781
aS'+'
asS'ARL2BP'
p610
(lp611
I57245125
aI57253633
aS'+'
asS'KAT8'
p612
(lp613
I31117663
aI31131393
aS'+'
asS'SLC7A6OS'
p614
(lp615
I68300614
aI68310965
aS'-'
asS'NPIPB6'
p616
(lp617
I28342517
aI28362860
aS'-'
asS'NOMO2'
p618
(lp619
I16232594
aI16294811
aS'+'
asS'HAGHL'
p620
(lp621
I726935
aI729715
aS'+'
asS'XYLT1'
p622
(lp623
I17102323
aI17470881
aS'-'
asS'DYNLRB2'
p624
(lp625
I80540733
aI80550809
aS'+'
asS'LINC01227'
p626
(lp627
I80567102
aI80572808
aS'-'
asS'FAM92B'
p628
(lp629
I85098351
aI85112508
aS'-'
asS'TBL3'
p630
(lp631
I1972062
aI1978750
aS'+'
asS'CCDC154'
p632
(lp633
I1434387
aI1444489
aS'-'
asS'SNAI3'
p634
(lp635
I88677681
aI88686474
aS'-'
asS'VPS9D1-AS1'
p636
(lp637
I89711855
aI89718165
aS'+'
asS'CENPT'
p638
(lp639
I67828156
aI67847458
aS'-'
asS'KIFC3'
p640
(lp641
I57758216
aI57803024
aS'-'
asS'PDXDC1'
p642
(lp643
I14974962
aI15139410
aS'+'
asS'PKD1P6-NPIPP1'
p644
(lp645
I15104301
aI15136959
aS'-'
asS'TMEM219'
p646
(lp647
I29962029
aI29973052
aS'+'
asS'MPV17L'
p648
(lp649
I15395753
aI15409686
aS'+'
asS'FA2H'
p650
(lp651
I74712957
aI74774831
aS'-'
asS'CCDC189'
p652
(lp653
I30757422
aI30762244
aS'-'
asS'RHBDL1'
p654
(lp655
I675665
aI678268
aS'+'
asS'C16orf96'
p656
(lp657
I4556489
aI4600317
aS'+'
asS'C16orf97'
p658
(lp659
I52026351
aI52073935
aS'-'
asS'ADGRG5'
p660
(lp661
I57542636
aI57577188
aS'+'
asS'HSD3B7'
p662
(lp663
I30985197
aI30989152
aS'+'
asS'ADGRG3'
p664
(lp665
I57668244
aI57689378
aS'+'
asS'C16orf90'
p666
(lp667
I3493483
aI3496652
aS'-'
asS'C16orf91'
p668
(lp669
I1419751
aI1420747
aS'-'
asS'NETO2'
p670
(lp671
I47081519
aI47144025
aS'-'
asS'UQCRC2'
p672
(lp673
I21953063
aI21983660
aS'+'
asS'MIR1273H'
p674
(lp675
I24203115
aI24203231
aS'+'
asS'CLUAP1'
p676
(lp677
I3500930
aI3539051
aS'+'
asS'CD2BP2'
p678
(lp679
I30350765
aI30355361
aS'-'
asS'MIR6775'
p680
(lp681
I87834591
aI87834660
aS'-'
asS'NFATC3'
p682
(lp683
I68085365
aI68229259
aS'+'
asS'MIR6773'
p684
(lp685
I68233425
aI68233499
aS'-'
asS'TIGD7'
p686
(lp687
I3298807
aI3305430
aS'-'
asS'MIR6771'
p688
(lp689
I50292615
aI50292675
aS'+'
asS'RRAD'
p690
(lp691
I66921678
aI66925536
aS'-'
asS'ALG1'
p692
(lp693
I5071808
aI5087379
aS'+'
asS'KCNG4'
p694
(lp695
I84221134
aI84239750
aS'-'
asS'RBBP6'
p696
(lp697
I24539586
aI24572862
aS'+'
asS'DHX38'
p698
(lp699
I72093715
aI72112912
aS'+'
asS'PKD1P5-LOC105376752'
p700
(lp701
I18358104
aI18401925
aS'-'
asS'NPIPB11'
p702
(lp703
I29381317
aI29403802
aS'-'
asS'SRRM2-AS1'
p704
(lp705
I2737075
aI2752600
aS'-'
asS'NPIPB13'
p706
(lp707
I30222734
aI30248413
aS'-'
asS'NPIPB12'
p708
(lp709
I30222873
aI30245855
aS'-'
asS'ZNF598'
p710
(lp711
I1997653
aI2009821
aS'-'
asS'KIF22'
p712
(lp713
I29790712
aI29805385
aS'+'
asS'EXOSC6'
p714
(lp715
I70250230
aI70251930
aS'-'
asS'FUK'
p716
(lp717
I70454594
aI70480274
aS'+'
asS'HSBP1'
p718
(lp719
I83807902
aI83813002
aS'+'
asS'GFER'
p720
(lp721
I1984148
aI1987749
aS'+'
asS'ZNF843'
p722
(lp723
I31435437
aI31443160
aS'-'
asS'MT1X'
p724
(lp725
I56682469
aI56684196
aS'+'
asS'YPEL3'
p726
(lp727
I30092315
aI30096216
aS'-'
asS'ARHGAP17'
p728
(lp729
I24919383
aI25015378
aS'-'
asS'LINC00235'
p730
(lp731
I526846
aI527407
aS'-'
asS'MPHOSPH6'
p732
(lp733
I82148161
aI82170224
aS'-'
asS'MT1L'
p734
(lp735
I56617460
aI56618818
aS'+'
asS'CLDN9'
p736
(lp737
I3012455
aI3014505
aS'+'
asS'MT1H'
p738
(lp739
I56669813
aI56671129
aS'+'
asS'ZNF768'
p740
(lp741
I30524000
aI30526589
aS'-'
asS'HPR'
p742
(lp743
I72063225
aI72077246
aS'+'
asS'DRC7'
p744
(lp745
I57694800
aI57731455
aS'+'
asS'ZNF764'
p746
(lp747
I30553763
aI30558321
aS'-'
asS'PRR25'
p748
(lp749
I805442
aI813861
aS'+'
asS'MT1G'
p750
(lp751
I56666734
aI56668065
aS'-'
asS'PHKG2'
p752
(lp753
I30748298
aI30761181
aS'+'
asS'CLDN6'
p754
(lp755
I3014711
aI3018183
aS'-'
asS'LINC02190'
p756
(lp757
I31546697
aI31553567
aS'-'
asS'ZNF747'
p758
(lp759
I30530366
aI30534970
aS'-'
asS'LOC101927131'
p760
(lp761
I11465259
aI11473174
aS'+'
asS'SNORA70D'
p762
(lp763
I71698566
aI71698701
aS'-'
asS'RNPS1'
p764
(lp765
I2253115
aI2268412
aS'-'
asS'LINC02138'
p766
(lp767
I89166382
aI89169147
aS'+'
asS'MAFTRR'
p768
(lp769
I79721311
aI79770532
aS'-'
asS'NUPR1'
p770
(lp771
I28537340
aI28539174
aS'-'
asS'LOC105369266'
p772
(lp773
I33469230
aI33485662
aS'-'
asS'KIAA0895L'
p774
(lp775
I67175601
aI67183980
aS'-'
asS'NUDT7'
p776
(lp777
I77722491
aI77742260
aS'+'
asS'LINC02133'
p778
(lp779
I47858580
aI47908431
aS'+'
asS'ATMIN'
p780
(lp781
I81035852
aI81047346
aS'+'
asS'MIR3180-4'
p782
(lp783
I15154849
aI15155002
aS'-'
asS'MIR3180-5'
p784
(lp785
I2135976
aI2136129
aS'-'
asS'MIR3180-2'
p786
(lp787
I14911223
aI14911311
aS'+'
asS'MIR3180-3'
p788
(lp789
I14911219
aI14911313
aS'+'
asS'ZNF23'
p790
(lp791
I71447599
aI71462252
aS'-'
asS'MIR3180-1'
p792
(lp793
I14911219
aI14911313
aS'+'
asS'TELO2'
p794
(lp795
I1493350
aI1510459
aS'+'
asS'LINC02139'
p796
(lp797
I85137149
aI85149443
aS'+'
asS'MIR6511A2'
p798
(lp799
I14925936
aI14926003
aS'+'
asS'BCAR1'
p800
(lp801
I75228186
aI75268053
aS'-'
asS'NTHL1'
p802
(lp803
I2039814
aI2047869
aS'-'
asS'DNAH3'
p804
(lp805
I20933110
aI21159441
aS'-'
asS'MIR1910'
p806
(lp807
I85741620
aI85741700
aS'-'
asS'GAS8-AS1'
p808
(lp809
I90028907
aI90029901
aS'-'
asS'PLA2G10'
p810
(lp811
I14672547
aI14694573
aS'-'
asS'FBXL19-AS1'
p812
(lp813
I30919318
aI30923269
aS'-'
asS'ERVK13-1'
p814
(lp815
I2658388
aI2673439
aS'-'
asS'SNAI3-AS1'
p816
(lp817
I88663372
aI88687188
aS'+'
asS'MIR6770-2'
p818
(lp819
I14930819
aI14930879
aS'+'
asS'DERPC'
p820
(lp821
I69118008
aI69132588
aS'-'
asS'LOC100130283'
p822
(lp823
I8849468
aI8860417
aS'+'
asS'LINC00514'
p824
(lp825
I2989053
aI2994509
aS'+'
asS'NUBP2'
p826
(lp827
I1782922
aI1789191
aS'+'
asS'FBRS'
p828
(lp829
I30659518
aI30670810
aS'+'
asS'CIAO2B'
p830
(lp831
I66932054
aI66934423
aS'-'
asS'NUBP1'
p832
(lp833
I10743785
aI10769351
aS'+'
asS'LOC100190986'
p834
(lp835
I21864299
aI21866735
aS'-'
asS'ZNF821'
p836
(lp837
I71859679
aI71884190
aS'-'
asS'TAT'
p838
(lp839
I71566850
aI71577095
aS'-'
asS'ZNF500'
p840
(lp841
I4748391
aI4767218
aS'-'
asS'MSLN'
p842
(lp843
I760764
aI768865
aS'+'
asS'MIR6770-1'
p844
(lp845
I14930819
aI14930879
aS'+'
asS'SHISA9'
p846
(lp847
I12901619
aI13240416
aS'+'
asS'CREBBP'
p848
(lp849
I3725054
aI3880120
aS'-'
asS'MIR762'
p850
(lp851
I30893902
aI30893985
aS'+'
asS'NUTF2'
p852
(lp853
I67846731
aI67872566
aS'+'
asS'TMC5'
p854
(lp855
I19410538
aI19499112
aS'+'
asS'TMC7'
p856
(lp857
I18983933
aI19063940
aS'+'
asS'PSMB10'
p858
(lp859
I67934503
aI67936877
aS'-'
asS'PRSS30P'
p860
(lp861
I2839572
aI2842751
aS'-'
asS'VKORC1'
p862
(lp863
I31090841
aI31094999
aS'-'
asS'NOXO1'
p864
(lp865
I1978916
aI1981549
aS'-'
asS'CBFA2T3'
p866
(lp867
I88874854
aI88977096
aS'-'
asS'BOLA2-SMG1P6'
p868
(lp869
I29442904
aI29454964
aS'-'
asS'ZFHX3'
p870
(lp871
I72782886
aI73058635
aS'-'
asS'LOC100129697'
p872
(lp873
I88940036
aI88951524
aS'+'
asS'RPS15A'
p874
(lp875
I18781294
aI18790334
aS'-'
asS'CDT1'
p876
(lp877
I88803777
aI88809258
aS'+'
asS'ELOB'
p878
(lp879
I2771413
aI2777296
aS'-'
asS'SMPD3'
p880
(lp881
I68358326
aI68448508
aS'-'
asS'NHLRC4'
p882
(lp883
I566994
aI569495
aS'+'
asS'CFAP20'
p884
(lp885
I58113587
aI58129425
aS'-'
asS'LOC100128882'
p886
(lp887
I88512958
aI88531053
aS'-'
asS'QPRT'
p888
(lp889
I29679007
aI29698699
aS'+'
asS'IFT140'
p890
(lp891
I1510426
aI1612108
aS'-'
asS'GSG1L'
p892
(lp893
I27787528
aI28063509
aS'-'
asS'SLX4'
p894
(lp895
I3581182
aI3611606
aS'-'
asS'LOC102724084'
p896
(lp897
I80155957
aI80563135
aS'-'
asS'FAM157C'
p898
(lp899
I90102263
aI90177606
aS'+'
asS'LOC729652'
p900
(lp901
I2464949
aI2468213
aS'-'
asS'AMDHD2'
p902
(lp903
I2520361
aI2530954
aS'+'
asS'TRADD'
p904
(lp905
I67154185
aI67159909
aS'-'
asS'CYLD'
p906
(lp907
I50742049
aI50801935
aS'+'
asS'WDR24'
p908
(lp909
I684621
aI690424
aS'-'
asS'PRM2'
p910
(lp911
I11275635
aI11276480
aS'-'
asS'SNX20'
p912
(lp913
I50666299
aI50681353
aS'-'
asS'FANCA'
p914
(lp915
I89737548
aI89816658
aS'-'
asS'ZNF75A'
p916
(lp917
I3305405
aI3318576
aS'+'
asS'ARLNC1'
p918
(lp919
I80828734
aI80892596
aS'-'
asS'DDX19B'
p920
(lp921
I70289766
aI70335279
aS'+'
asS'HAS3'
p922
(lp923
I69106225
aI69118716
aS'+'
asS'MIR8058'
p924
(lp925
I82688930
aI82689019
aS'+'
asS'ATP6V0C'
p926
(lp927
I2513725
aI2520223
aS'+'
asS'CA5A'
p928
(lp929
I87881548
aI87936529
aS'-'
asS'LOC730183'
p930
(lp931
I30697703
aI30698961
aS'-'
asS'ATP2A1-AS1'
p932
(lp933
I28878956
aI28879921
aS'-'
asS'SEPHS2'
p934
(lp935
I30443624
aI30445975
aS'-'
asS'ANKRD26P1'
p936
(lp937
I46469336
aI46569097
aS'-'
asS'TP53TG3HP'
p938
(lp939
I35505087
aI35507170
aS'-'
asS'LINC01569'
p940
(lp941
I4245824
aI4253789
aS'-'
asS'LINC01568'
p942
(lp943
I73386804
aI73421396
aS'+'
asS'SNORD71'
p944
(lp945
I71758401
aI71758487
aS'-'
asS'NAE1'
p946
(lp947
I66802877
aI66830976
aS'-'
asS'PDF'
p948
(lp949
I69326912
aI69330588
aS'-'
asS'LINC01567'
p950
(lp951
I24661421
aI24671062
aS'-'
asS'CMC2'
p952
(lp953
I80975794
aI81006919
aS'-'
asS'ZNF778'
p954
(lp955
I89217702
aI89229557
aS'+'
asS'TAOK2'
p956
(lp957
I29973866
aI29992261
aS'+'
asS'ATXN2L'
p958
(lp959
I28823047
aI28837237
aS'+'
asS'LINC01229'
p960
(lp961
I79770470
aI79801343
aS'+'
asS'ADAM3B'
p962
(lp963
I49517645
aI49518585
aS'-'
asS'MIR365A'
p964
(lp965
I14309284
aI14309371
aS'+'
asS'GSPT1'
p966
(lp967
I11868127
aI11916662
aS'-'
asS'DNAJA2'
p968
(lp969
I46955361
aI46973714
aS'-'
asS'STX4'
p970
(lp971
I31033094
aI31040167
aS'+'
asS'LRRC36'
p972
(lp973
I67326843
aI67385206
aS'+'
asS'MIR6511A1'
p974
(lp975
I14925936
aI14926003
aS'+'
asS'NSMCE1'
p976
(lp977
I27224993
aI27268792
aS'-'
asS'PKD1P1'
p978
(lp979
I16317608
aI16350608
aS'+'
asS'LOC400541'
p980
(lp981
I70156339
aI70173448
aS'-'
asS'SRCAP'
p982
(lp983
I30699140
aI30740129
aS'+'
asS'SMG1P7'
p984
(lp985
I70219580
aI70226033
aS'-'
asS'NAGPA'
p986
(lp987
I5024843
aI5033941
aS'-'
asS'EXOC3L1'
p988
(lp989
I67184378
aI67190136
aS'-'
asS'NPIPB15'
p990
(lp991
I74377951
aI74392114
aS'+'
asS'COQ7'
p992
(lp993
I19067594
aI19080095
aS'+'
asS'CRNDE'
p994
(lp995
I54918862
aI54929189
aS'-'
asS'ERCC4'
p996
(lp997
I13920156
aI13952348
aS'+'
asS'AGRP'
p998
(lp999
I67482570
aI67483813
aS'-'
asS'USP7'
p1000
(lp1001
I8892093
aI8963484
aS'-'
asS'SOX8'
p1002
(lp1003
I981769
aI986979
aS'+'
asS'MIR4426'
p1004
(lp1005
I61055706
aI61055766
aS'-'
asS'AFG3L1P'
p1006
(lp1007
I89972579
aI90000787
aS'+'
asS'PRSS8'
p1008
(lp1009
I31131432
aI31135727
aS'-'
asS'SPIRE2'
p1010
(lp1011
I89828474
aI89871319
aS'+'
asS'UBN1'
p1012
(lp1013
I4847630
aI4882401
aS'+'
asS'ZNF720'
p1014
(lp1015
I31713228
aI31761565
aS'+'
asS'NSMCE1-DT'
p1016
(lp1017
I27268204
aI27290468
aS'+'
asS'ITFG1-AS1'
p1018
(lp1019
I47144067
aI47162746
aS'+'
asS'AXIN1'
p1020
(lp1021
I287439
aI352676
aS'-'
asS'GABARAPL2'
p1022
(lp1023
I75566350
aI75577881
aS'+'
asS'SEPT1'
p1024
(lp1025
I30378132
aI30382815
aS'-'
asS'SNHG19'
p1026
(lp1027
I2154781
aI2155358
aS'-'
asS'PHKB'
p1028
(lp1029
I47461298
aI47701523
aS'+'
asS'CES1P2'
p1030
(lp1031
I55724924
aI55750211
aS'+'
asS'ARHGDIG'
p1032
(lp1033
I280590
aI283010
aS'+'
asS'CES1P1'
p1034
(lp1035
I55760598
aI55774914
aS'+'
asS'PMFBP1'
p1036
(lp1037
I72119096
aI72172450
aS'-'
asS'NOD2'
p1038
(lp1039
I50697138
aI50733077
aS'+'
asS'C16orf45'
p1040
(lp1041
I15434467
aI15588259
aS'+'
asS'C16orf47'
p1042
(lp1043
I73126637
aI73144447
aS'-'
asS'C16orf46'
p1044
(lp1045
I81053496
aI81077267
aS'-'
asS'LINC01177'
p1046
(lp1047
I9441293
aI9444985
aS'-'
asS'ST3GAL2'
p1048
(lp1049
I70379434
aI70439088
aS'-'
asS'VASN'
p1050
(lp1051
I4371847
aI4383528
aS'+'
asS'ZC3H7A'
p1052
(lp1053
I11750585
aI11797258
aS'-'
asS'GNPTG'
p1054
(lp1055
I1351898
aI1363351
aS'+'
asS'MIR6126'
p1056
(lp1057
I3485380
aI3485469
aS'-'
asS'JPT2'
p1058
(lp1059
I1678276
aI1702072
aS'+'
asS'PRKCB'
p1060
(lp1061
I23835978
aI24220611
aS'+'
asS'GALNS'
p1062
(lp1063
I88813733
aI88856970
aS'-'
asS'PYDC1'
p1064
(lp1065
I31215961
aI31217093
aS'-'
asS'LOC101927793'
p1066
(lp1067
I88883514
aI88887136
aS'+'
asS'CES1'
p1068
(lp1069
I55802851
aI55833163
aS'-'
asS'DEF8'
p1070
(lp1071
I89948730
aI89968060
aS'+'
asS'LOC105371049'
p1072
(lp1073
I2091435
aI2095017
aS'+'
asS'CES2'
p1074
(lp1075
I66934470
aI66945091
aS'+'
asS'SPATA33'
p1076
(lp1077
I89657743
aI89670458
aS'+'
asS'LOC105376772'
p1078
(lp1079
I74406288
aI74407219
aS'-'
asS'HBA1'
p1080
(lp1081
I176679
aI177522
aS'+'
asS'MIR1225'
p1082
(lp1083
I2090194
aI2090284
aS'-'
asS'KDM8'
p1084
(lp1085
I27203485
aI27221768
aS'+'
asS'HBA2'
p1086
(lp1087
I172875
aI173710
aS'+'
asS'LOC105371046'
p1088
(lp1089
I1580526
aI1610328
aS'+'
asS'LOC105371045'
p1090
(lp1091
I1428818
aI1434502
aS'+'
asS'LOC283922'
p1092
(lp1093
I74332405
aI74368255
aS'-'
asS'CTU2'
p1094
(lp1095
I88706462
aI88715378
aS'+'
asS'WFIKKN1'
p1096
(lp1097
I631011
aI634116
aS'+'
asS'CDIPTOSP'
p1098
(lp1099
I29863682
aI29868053
aS'+'
asS'OR1F2P'
p1100
(lp1101
I3215561
aI3216546
aS'+'
asS'KATNB1'
p1102
(lp1103
I57735769
aI57757244
aS'+'
asS'AMFR'
p1104
(lp1105
I56361451
aI56425538
aS'-'
asS'MAP1LC3B'
p1106
(lp1107
I87392194
aI87404774
aS'+'
asS'CTRB1'
p1108
(lp1109
I75218985
aI75224927
aS'+'
asS'CMTM4'
p1110
(lp1111
I66614749
aI66696707
aS'-'
asS'LOC388282'
p1112
(lp1113
I57810636
aI57816927
aS'+'
asS'CACNG3'
p1114
(lp1115
I24255552
aI24362416
aS'+'
asS'GPR139'
p1116
(lp1117
I20031484
aI20073778
aS'-'
asS'ZSCAN32'
p1118
(lp1119
I3382080
aI3401065
aS'-'
asS'TUFM'
p1120
(lp1121
I28842410
aI28846408
aS'-'
asS'TRAPPC2L'
p1122
(lp1123
I88856219
aI88862686
aS'+'
asS'SLC6A2'
p1124
(lp1125
I55656643
aI55706192
aS'+'
asS'WWP2'
p1126
(lp1127
I69762283
aI69941741
aS'+'
asS'HSF4'
p1128
(lp1129
I67163384
aI67169945
aS'+'
asS'TAF1C'
p1130
(lp1131
I84177846
aI84187070
aS'-'
asS'MIR5587'
p1132
(lp1133
I535315
aI535368
aS'+'
asS'FOXL1'
p1134
(lp1135
I86578508
aI86581698
aS'+'
asS'MIR138-2'
p1136
(lp1137
I56858517
aI56858601
aS'+'
asS'LINC02168'
p1138
(lp1139
I50806671
aI50807629
aS'+'
asS'LINC02169'
p1140
(lp1141
I54245545
aI54270879
aS'-'
asS'POLR3E'
p1142
(lp1143
I22297374
aI22335103
aS'+'
asS'IL27'
p1144
(lp1145
I28499361
aI28506834
aS'-'
asS'ATP2C2'
p1146
(lp1147
I84368522
aI84464187
aS'+'
asS'RANBP10'
p1148
(lp1149
I67723065
aI67806652
aS'-'
asS'AQP8'
p1150
(lp1151
I25216963
aI25228932
aS'+'
asS'POLR3K'
p1152
(lp1153
I46978
aI53632
aS'-'
asS'CPPED1'
p1154
(lp1155
I12659798
aI12803887
aS'-'
asS'CACNA1H'
p1156
(lp1157
I1153240
aI1221772
aS'+'
asS'LINC01566'
p1158
(lp1159
I35363415
aI35391713
aS'+'
asS'USB1'
p1160
(lp1161
I57999598
aI58021618
aS'+'
asS'CNGB1'
p1162
(lp1163
I57882339
aI57971116
aS'-'
asS'ACSM3'
p1164
(lp1165
I20763989
aI20797157
aS'+'
asS'ZNF276'
p1166
(lp1167
I89720984
aI89740924
aS'+'
asS'ACSM5'
p1168
(lp1169
I20409533
aI20441332
aS'+'
asS'EMC8'
p1170
(lp1171
I85778624
aI85799542
aS'-'
asS'PARD6A'
p1172
(lp1173
I67660947
aI67662778
aS'+'
asS'TPSG1'
p1174
(lp1175
I1221650
aI1225254
aS'-'
asS'TMEM265'
p1176
(lp1177
I30740190
aI30745196
aS'+'
asS'CLN3'
p1178
(lp1179
I28466652
aI28492082
aS'-'
asS'MARVELD3'
p1180
(lp1181
I71626152
aI71641965
aS'+'
asS'ATP6V0D1'
p1182
(lp1183
I67438018
aI67481157
aS'-'
asS'VWA3A'
p1184
(lp1185
I22092537
aI22156966
aS'+'
asS'GP2'
p1186
(lp1187
I20309573
aI20327620
aS'-'
asS'SYT17'
p1188
(lp1189
I19167833
aI19268334
aS'+'
asS'MC1R'
p1190
(lp1191
I89917878
aI89920977
aS'+'
asS'ZNF205'
p1192
(lp1193
I3112561
aI3120517
aS'+'
asS'CETP'
p1194
(lp1195
I56961922
aI56983844
aS'+'
asS'APOBR'
p1196
(lp1197
I28494648
aI28498970
aS'+'
asS'BICDL2'
p1198
(lp1199
I3027866
aI3035541
aS'-'
asS'FHOD1'
p1200
(lp1201
I67229388
aI67247522
aS'-'
asS'LOC440346'
p1202
(lp1203
I22374886
aI22378180
aS'+'
asS'FBXL16'
p1204
(lp1205
I692499
aI705801
aS'-'
asS'CLCN7'
p1206
(lp1207
I1444932
aI1475084
aS'-'
asS'SNORA10'
p1208
(lp1209
I1962333
aI1962466
aS'-'
asS'CCDC78'
p1210
(lp1211
I722581
aI726473
aS'-'
asS'RRN3P3'
p1212
(lp1213
I22419545
aI22437715
aS'-'
asS'RPL13'
p1214
(lp1215
I89560656
aI89566829
aS'+'
asS'USP31'
p1216
(lp1217
I23061406
aI23149270
aS'-'
asS'BRD7'
p1218
(lp1219
I50319017
aI50368934
aS'-'
asS'CARHSP1'
p1220
(lp1221
I8852941
aI8869012
aS'-'
asS'NME4'
p1222
(lp1223
I396754
aI400754
aS'+'
asS'DNAJA3'
p1224
(lp1225
I4425804
aI4456774
aS'+'
asS'ADCY7'
p1226
(lp1227
I50266539
aI50310529
aS'+'
asS'NME3'
p1228
(lp1229
I1770319
aI1771709
aS'-'
asS'DHODH'
p1230
(lp1231
I72008743
aI72025417
aS'+'
asS'CCL17'
p1232
(lp1233
I57404766
aI57416062
aS'+'
asS'ADCY9'
p1234
(lp1235
I3962648
aI4116185
aS'-'
asS'MCRIP2'
p1236
(lp1237
I641803
aI648474
aS'+'
asS'PRSS27'
p1238
(lp1239
I2712417
aI2720551
aS'-'
asS'LOC105371267'
p1240
(lp1241
I53035689
aI53052873
aS'-'
asS'PRSS21'
p1242
(lp1243
I2817162
aI2821722
aS'+'
asS'PRSS22'
p1244
(lp1245
I2852729
aI2858170
aS'-'
asS'LINC02192'
p1246
(lp1247
I47849313
aI47887130
aS'-'
asS'DCTPP1'
p1248
(lp1249
I30423697
aI30430052
aS'-'
asS'MAF'
p1250
(lp1251
I79593837
aI79600737
aS'-'
asS'SNHG9'
p1252
(lp1253
I1964995
aI1965504
aS'+'
asS'PKD1'
p1254
(lp1255
I2088709
aI2135898
aS'-'
asS'EME2'
p1256
(lp1257
I1773227
aI1776238
aS'+'
asS'C16orf74'
p1258
(lp1259
I85707517
aI85751083
aS'-'
asS'OSGIN1'
p1260
(lp1261
I83953221
aI83966332
aS'+'
asS'C16orf70'
p1262
(lp1263
I67109892
aI67148544
aS'+'
asS'C16orf71'
p1264
(lp1265
I4734287
aI4749396
aS'+'
asS'C16orf72'
p1266
(lp1267
I9091679
aI9119698
aS'+'
asS'PRSS54'
p1268
(lp1269
I58279996
aI58295047
aS'-'
asS'TRIM72'
p1270
(lp1271
I31214020
aI31225189
aS'+'
asS'GNAO1'
p1272
(lp1273
I56191338
aI56357444
aS'+'
asS'CNOT1'
p1274
(lp1275
I58519945
aI58629886
aS'-'
asS'C16orf78'
p1276
(lp1277
I49373807
aI49399431
aS'+'
asS'MRPL28'
p1278
(lp1279
I367383
aI370569
aS'-'
asS'TNFRSF17'
p1280
(lp1281
I11965106
aI11968068
aS'+'
asS'CIAO3'
p1282
(lp1283
I729754
aI741038
aS'-'
asS'CDYL2'
p1284
(lp1285
I80597906
aI80804598
aS'-'
asS'ZFP90'
p1286
(lp1287
I68539212
aI68576072
aS'+'
asS'MIR6769A'
p1288
(lp1289
I4671317
aI4671390
aS'+'
asS'GLYR1'
p1290
(lp1291
I4803202
aI4847388
aS'-'
asS'CMIP'
p1292
(lp1293
I81445169
aI81711763
aS'+'
asS'TNFRSF12A'
p1294
(lp1295
I3020311
aI3022382
aS'+'
asS'TEDC2'
p1296
(lp1297
I2460113
aI2464963
aS'+'
asS'INO80E'
p1298
(lp1299
I29996208
aI30005794
aS'+'
asS'SNORD111'
p1300
(lp1301
I70538004
aI70538098
aS'+'
asS'C16orf89'
p1302
(lp1303
I5044121
aI5066145
aS'-'
asS'SLC9A5'
p1304
(lp1305
I67248871
aI67272204
aS'+'
asS'SMG1P5'
p1306
(lp1307
I30285017
aI30335374
aS'-'
asS'SMG1P2'
p1308
(lp1309
I29545010
aI29613717
aS'-'
asS'SMG1P3'
p1310
(lp1311
I21446682
aI21502281
aS'-'
asS'SMG1P1'
p1312
(lp1313
I22437007
aI22492220
aS'+'
asS'C16orf82'
p1314
(lp1315
I27066897
aI27069166
aS'+'
asS'TEKT5'
p1316
(lp1317
I10627503
aI10694945
aS'-'
asS'C16orf87'
p1318
(lp1319
I46796606
aI46831407
aS'-'
asS'C16orf86'
p1320
(lp1321
I67666813
aI67668754
aS'+'
asS'SCNN1G'
p1322
(lp1323
I23182718
aI23216879
aS'+'
asS'PDPR'
p1324
(lp1325
I70113625
aI70162537
aS'+'
asS'SNORA80C'
p1326
(lp1327
I30419624
aI30419759
aS'-'
asS'SCNN1B'
p1328
(lp1329
I23302269
aI23381299
aS'+'
asS'TP53TG3B'
p1330
(lp1331
I32673518
aI32676129
aS'-'
asS'CX3CL1'
p1332
(lp1333
I57372457
aI57385048
aS'+'
asS'PRM1'
p1334
(lp1335
I11280835
aI11281335
aS'-'
asS'LOC100506281'
p1336
(lp1337
I75226382
aI75228203
aS'+'
asS'LINC02188'
p1338
(lp1339
I86722090
aI86737826
aS'+'
asS'TMEM114'
p1340
(lp1341
I8526548
aI8589838
aS'-'
asS'MIR6767'
p1342
(lp1343
I2445391
aI2445457
aS'+'
asS'GFOD2'
p1344
(lp1345
I67674532
aI67719370
aS'-'
asS'METRN'
p1346
(lp1347
I715172
aI719655
aS'+'
asS'MIR4516'
p1348
(lp1349
I2133118
aI2133204
aS'+'
asS'ACSF3'
p1350
(lp1351
I89093808
aI89155846
aS'+'
asS'MIR6768'
p1352
(lp1353
I2463966
aI2464038
aS'+'
asS'TUBB3'
p1354
(lp1355
I89922008
aI89936097
aS'+'
asS'PDP2'
p1356
(lp1357
I66880360
aI66891099
aS'+'
asS'RSL1D1'
p1358
(lp1359
I11834195
aI11851585
aS'-'
asS'RPUSD1'
p1360
(lp1361
I784973
aI788383
aS'-'
asS'CCP110'
p1362
(lp1363
I19523856
aI19553406
aS'+'
asS'LOC101928417'
p1364
(lp1365
I82953229
aI82990298
aS'-'
asS'UBE2I'
p1366
(lp1367
I1309152
aI1327018
aS'+'
asS'GINS3'
p1368
(lp1369
I58392393
aI58406144
aS'+'
asS'TNP2'
p1370
(lp1371
I11267856
aI11269303
aS'-'
asS'MIR4517'
p1372
(lp1373
I28958582
aI28958661
aS'+'
asS'RBFOX1'
p1374
(lp1375
I6019023
aI7713343
aS'+'
asS'MIR4519'
p1376
(lp1377
I30875265
aI30875323
aS'-'
asS'OTOA'
p1378
(lp1379
I21663967
aI21760729
aS'+'
asS'PALB2'
p1380
(lp1381
I23603161
aI23641357
aS'-'
asS'LOC100289580'
p1382
(lp1383
I88731179
aI88741425
aS'+'
asS'UBE2MP1'
p1384
(lp1385
I35169430
aI35170391
aS'-'
asS'RHBDF1'
p1386
(lp1387
I58058
aI72631
aS'-'
asS'MIR6774'
p1388
(lp1389
I85918346
aI85918416
aS'+'
asS'KNOP1'
p1390
(lp1391
I19706351
aI19718170
aS'-'
asS'MIR328'
p1392
(lp1393
I67202320
aI67202395
aS'-'
asS'VAT1L'
p1394
(lp1395
I77788563
aI77980107
aS'+'
asS'MIR6511B2'
p1396
(lp1397
I2106677
aI2106748
aS'-'
asS'PRR35'
p1398
(lp1399
I560421
aI565529
aS'+'
asS'THOC6'
p1400
(lp1401
I3024018
aI3027755
aS'+'
asS'MIR6511B1'
p1402
(lp1403
I2106668
aI2106753
aS'-'
asS'LCMT1'
p1404
(lp1405
I25111725
aI25178230
aS'+'
asS'MEIOB'
p1406
(lp1407
I1833982
aI1872178
aS'-'
asS'LOC100128079'
p1408
(lp1409
I27708420
aI27719029
aS'-'
asS'SLX1B'
p1410
(lp1411
I29454500
aI29458224
aS'+'
asS'LOC101928557'
p1412
(lp1413
I85792414
aI85792933
aS'+'
asS'LOC100134368'
p1414
(lp1415
I382240
aI392960
aS'+'
asS'MIR1972-2'
p1416
(lp1417
I15010320
aI15010397
aS'-'
asS'CIAPIN1'
p1418
(lp1419
I57428168
aI57447528
aS'-'
asS'MSRB1'
p1420
(lp1421
I1938228
aI1943326
aS'-'
asS'SEC14L5'
p1422
(lp1423
I4958316
aI5019155
aS'+'
asS'TERB1'
p1424
(lp1425
I66754975
aI66801620
aS'-'
asS'LINC02124'
p1426
(lp1427
I1889113
aI1890433
aS'+'
asS'LINC02125'
p1428
(lp1429
I76634997
aI76658478
aS'+'
asS'LINC02126'
p1430
(lp1431
I65141755
aI65176573
aS'-'
asS'LINC02127'
p1432
(lp1433
I51017757
aI51035777
aS'+'
asS'TBX6'
p1434
(lp1435
I30085793
aI30091884
aS'-'
asS'RPS2'
p1436
(lp1437
I1962057
aI1964826
aS'-'
asS'RHOT2'
p1438
(lp1439
I668082
aI674174
aS'+'
asS'CLEC18A'
p1440
(lp1441
I69950704
aI69964347
aS'+'
asS'DNAAF1'
p1442
(lp1443
I84145259
aI84177920
aS'+'
asS'CLEC18C'
p1444
(lp1445
I70174172
aI70186895
aS'+'
asS'FAM173A'
p1446
(lp1447
I721141
aI722590
aS'+'
asS'HSDL1'
p1448
(lp1449
I84122138
aI84145195
aS'-'
asS'GSE1'
p1450
(lp1451
I85611422
aI85676206
aS'+'
asS'ATXN1L'
p1452
(lp1453
I71845990
aI71857333
aS'+'
asS'SLC12A4'
p1454
(lp1455
I67943473
aI67968694
aS'-'
asS'LOC105371038'
p1456
(lp1457
I648457
aI649313
aS'-'
asS'SMG1P6'
p1458
(lp1459
I29425410
aI29447026
aS'-'
asS'CBLN1'
p1460
(lp1461
I49277917
aI49281831
aS'-'
asS'MIR6772'
p1462
(lp1463
I57772288
aI57772352
aS'-'
asS'ABCC6P1'
p1464
(lp1465
I18571247
aI18598285
aS'+'
asS'ABCC6P2'
p1466
(lp1467
I14822426
aI14824702
aS'-'
asS'CBFB'
p1468
(lp1469
I67029146
aI67101055
aS'+'
asS'TMEM204'
p1470
(lp1471
I1528740
aI1555580
aS'+'
asS'BEAN1'
p1472
(lp1473
I66427296
aI66495288
aS'+'
asS'TMEM208'
p1474
(lp1475
I67227112
aI67229279
aS'+'
asS'CHST6'
p1476
(lp1477
I75472051
aI75495441
aS'-'
asS'BCL7C'
p1478
(lp1479
I30834040
aI30894302
aS'-'
asS'ERN2'
p1480
(lp1481
I23690304
aI23713500
aS'-'
asS'FOXF1'
p1482
(lp1483
I86510526
aI86514464
aS'+'
asS'ZDHHC1'
p1484
(lp1485
I67394418
aI67416494
aS'-'
asS'LOC102723753'
p1486
(lp1487
I32152111
aI32188113
aS'-'
asS'ITPRIPL2'
p1488
(lp1489
I19113931
aI19121630
aS'+'
asS'FRG2DP'
p1490
(lp1491
I35477413
aI35480596
aS'-'
asS'MTSS1L'
p1492
(lp1493
I70661203
aI70686051
aS'-'
asS'LCAT'
p1494
(lp1495
I67939883
aI67944112
aS'-'
asS'CENPBD1'
p1496
(lp1497
I89969774
aI89972832
aS'-'
asS'SRL'
p1498
(lp1499
I4189373
aI4242080
aS'-'
asS'MIR662'
p1500
(lp1501
I770182
aI770277
aS'+'
asS'LOC102723692'
p1502
(lp1503
I17134503
aI17138732
aS'+'
asS'MMP2-AS1'
p1504
(lp1505
I55426796
aI55462297
aS'-'
asS'SALL1'
p1506
(lp1507
I51135974
aI51151272
aS'-'
asS'VPS4A'
p1508
(lp1509
I69311383
aI69325043
aS'+'
asS'MIR6863'
p1510
(lp1511
I56904263
aI56904353
aS'+'
asS'CHMP1A'
p1512
(lp1513
I89644430
aI89657785
aS'-'
asS'UTP4'
p1514
(lp1515
I69132595
aI69169034
aS'+'
asS'PLA2G15'
p1516
(lp1517
I68245343
aI68261058
aS'+'
asS'ENKD1'
p1518
(lp1519
I67662944
aI67666756
aS'-'
asS'LOC339059'
p1520
(lp1521
I88742766
aI88745748
aS'+'
asS'SHCBP1'
p1522
(lp1523
I46578592
aI46621402
aS'-'
asS'FAM192A'
p1524
(lp1525
I57152465
aI57186116
aS'-'
asS'CAPN15'
p1526
(lp1527
I527855
aI554636
aS'+'
asS'OR1F1'
p1528
(lp1529
I3204246
aI3205185
aS'+'
asS'LOC101928737'
p1530
(lp1531
I87494186
aI87515630
aS'+'
asS'PRRT2'
p1532
(lp1533
I29812087
aI29815881
aS'+'
asS'MIR5093'
p1534
(lp1535
I85306225
aI85306325
aS'-'
asS'SNORA46'
p1536
(lp1537
I58548498
aI58548633
aS'-'
asS'LOC101928682'
p1538
(lp1539
I87271905
aI87292452
aS'-'
asS'LOC554206'
p1540
(lp1541
I25031740
aI25032777
aS'+'
asS'CDH11'
p1542
(lp1543
I64943752
aI65122137
aS'-'
asS'HS3ST6'
p1544
(lp1545
I1911463
aI1918323
aS'-'
asS'LMF1'
p1546
(lp1547
I853635
aI981598
aS'-'
asS'HS3ST4'
p1548
(lp1549
I25691958
aI26137685
aS'+'
asS'SNTB2'
p1550
(lp1551
I69187146
aI69309052
aS'+'
asS'HS3ST2'
p1552
(lp1553
I22814161
aI22916338
aS'+'
asS'CDH16'
p1554
(lp1555
I66908121
aI66918984
aS'-'
asS'LINC01082'
p1556
(lp1557
I86196180
aI86199718
aS'+'
asS'LOC102724467'
p1558
(lp1559
I87766330
aI87779148
aS'-'
asS'ROGDI'
p1560
(lp1561
I4796961
aI4802950
aS'-'
asS'DDX19A'
p1562
(lp1563
I70346828
aI70373383
aS'+'
asS'SNORA119'
p1564
(lp1565
I89953376
aI89953520
aS'+'
asS'BRICD5'
p1566
(lp1567
I2209252
aI2211068
aS'-'
asS'MYLPF'
p1568
(lp1569
I30370933
aI30377991
aS'+'
asS'NIP7'
p1570
(lp1571
I69339511
aI69343110
aS'+'
asS'NLRC5'
p1572
(lp1573
I56989484
aI57083524
aS'+'
asS'TXNL4B'
p1574
(lp1575
I72084856
aI72094316
aS'-'
asS'LINC01572'
p1576
(lp1577
I72280901
aI72664970
aS'-'
asS'TMEM159'
p1578
(lp1579
I21158376
aI21180616
aS'+'
asS'LINC01570'
p1580
(lp1581
I5601168
aI5616250
aS'-'
asS'ANKRD11'
p1582
(lp1583
I89267620
aI89490561
aS'-'
asS'THUMPD1'
p1584
(lp1585
I20733665
aI20741964
aS'-'
asS'MIR6504'
p1586
(lp1587
I81611347
aI81611408
aS'+'
asS'MIR6506'
p1588
(lp1589
I15611029
aI15611095
aS'-'
asS'MT3'
p1590
(lp1591
I56589336
aI56591088
aS'+'
asS'CLEC3A'
p1592
(lp1593
I78022547
aI78032104
aS'+'
asS'TCF25'
p1594
(lp1595
I89873591
aI89911379
aS'+'
asS'MT4'
p1596
(lp1597
I56565048
aI56568957
aS'+'
asS'PPL'
p1598
(lp1599
I4882506
aI4937135
aS'-'
asS'MIR3670-4'
p1600
(lp1601
I14907716
aI14907781
aS'+'
asS'GAN'
p1602
(lp1603
I81314965
aI81380198
aS'+'
asS'NPIPB3'
p1604
(lp1605
I21402128
aI21425378
aS'-'
asS'NPIPB2'
p1606
(lp1607
I11927264
aI11964438
aS'-'
asS'LPCAT2'
p1608
(lp1609
I55509000
aI55586670
aS'+'
asS'RMI2'
p1610
(lp1611
I11345437
aI11351763
aS'+'
asS'MIR3670-2'
p1612
(lp1613
I14907716
aI14907781
aS'+'
asS'MIR3670-3'
p1614
(lp1615
I14907716
aI14907781
aS'+'
asS'NPIPB9'
p1616
(lp1617
I28752434
aI28772823
aS'+'
asS'NPIPB8'
p1618
(lp1619
I28638360
aI28658630
aS'+'
asS'PYCARD-AS1'
p1620
(lp1621
I31201884
aI31203452
aS'+'
asS'OR2C1'
p1622
(lp1623
I3355888
aI3356924
aS'+'
asS'ZNF423'
p1624
(lp1625
I49487530
aI49857919
aS'-'
asS'ZDHHC7'
p1626
(lp1627
I84974460
aI85011535
aS'-'
asS'CRAMP1'
p1628
(lp1629
I1614639
aI1677908
aS'+'
asS'MIR548W'
p1630
(lp1631
I26025236
aI26025310
aS'+'
asS'FTO-IT1'
p1632
(lp1633
I54039392
aI54040373
aS'+'
asS'ZG16'
p1634
(lp1635
I29778239
aI29781648
aS'+'
asS'PIEZO1'
p1636
(lp1637
I88715337
aI88785220
aS'-'
asS'BANP'
p1638
(lp1639
I87951431
aI88077318
aS'+'
asS'MIR762HG'
p1640
(lp1641
I30875459
aI30895218
aS'+'
asS'NOMO3'
p1642
(lp1643
I16232531
aI16294811
aS'+'
asS'PDXDC2P-NPIPB14P'
p1644
(lp1645
I69976298
aI70065948
aS'-'
asS'PIGQ'
p1646
(lp1647
I569967
aI584136
aS'+'
asS'SNORA50A'
p1648
(lp1649
I58559795
aI58559931
aS'-'
asS'CDR2'
p1650
(lp1651
I22345935
aI22374619
aS'-'
asS'NFATC2IP'
p1652
(lp1653
I28950996
aI28966446
aS'+'
asS'ALDOA'
p1654
(lp1655
I30065759
aI30072216
aS'+'
asS'MIR6862-1'
p1656
(lp1657
I28390981
aI28391051
aS'-'
asS'MIR6862-2'
p1658
(lp1659
I28390981
aI28391051
aS'-'
asS'NOMO1'
p1660
(lp1661
I14833720
aI14896157
aS'+'
asS'SLC7A5P2'
p1662
(lp1663
I21517908
aI21520444
aS'-'
asS'MIR3680-1'
p1664
(lp1665
I21506048
aI21506135
aS'-'
asS'MIR3680-2'
p1666
(lp1667
I21506048
aI21506135
aS'-'
asS'LOC102723373'
p1668
(lp1669
I53373492
aI53384259
aS'+'
asS'CDIPT'
p1670
(lp1671
I29858355
aI29863288
aS'-'
asS'ITGAD'
p1672
(lp1673
I31393311
aI31426505
aS'+'
asS'SRRM2'
p1674
(lp1675
I2752637
aI2771412
aS'+'
asS'VPS9D1'
p1676
(lp1677
I89707132
aI89720986
aS'-'
asS'DDX28'
p1678
(lp1679
I68021273
aI68023867
aS'-'
asS'MIR8065'
p1680
(lp1681
I5632466
aI5632566
aS'+'
asS'NAGPA-AS1'
p1682
(lp1683
I5033701
aI5042971
aS'+'
asS'FOXC2-AS1'
p1684
(lp1685
I86565144
aI86567761
aS'-'
asS'COQ9'
p1686
(lp1687
I57447478
aI57461270
aS'+'
asS'CFDP1'
p1688
(lp1689
I75293709
aI75433489
aS'-'
asS'SPATA2L'
p1690
(lp1691
I89696356
aI89701713
aS'-'
asS'CPNE2'
p1692
(lp1693
I57092542
aI57147966
aS'+'
asS'ABCC6'
p1694
(lp1695
I16149564
aI16223471
aS'-'
asS'DUXB'
p1696
(lp1697
I75693892
aI75701459
aS'-'
asS'ABCC1'
p1698
(lp1699
I15949576
aI16143073
aS'+'
asS'TERF2IP'
p1700
(lp1701
I75647736
aI75657443
aS'+'
asS'HBM'
p1702
(lp1703
I165973
aI166768
aS'+'
asS'LOC100287036'
p1704
(lp1705
I89321132
aI89325348
aS'+'
asS'MT1IP'
p1706
(lp1707
I56676115
aI56677877
aS'+'
asS'CTRL'
p1708
(lp1709
I67929573
aI67931862
aS'-'
asS'PLK1'
p1710
(lp1711
I23678771
aI23690367
aS'+'
asS'PARN'
p1712
(lp1713
I14435699
aI14630271
aS'-'
asS'MIR193B'
p1714
(lp1715
I14303966
aI14304049
aS'+'
asS'PKMYT1'
p1716
(lp1717
I2972790
aI2980539
aS'-'
asS'SETD1A'
p1718
(lp1719
I30957293
aI30984662
aS'+'
asS'GLG1'
p1720
(lp1721
I74447427
aI74607144
aS'-'
asS'LYRM1'
p1722
(lp1723
I20899867
aI20925011
aS'+'
asS'STX1B'
p1724
(lp1725
I30989255
aI31010638
aS'-'
asS'IL21R-AS1'
p1726
(lp1727
I27447669
aI27453393
aS'-'
asS'MIR3677'
p1728
(lp1729
I2270712
aI2270772
aS'+'
asS'HBZ'
p1730
(lp1731
I152854
aI154505
aS'+'
asS'CARMIL2'
p1732
(lp1733
I67644939
aI67657569
aS'+'
asS'LINC00917'
p1734
(lp1735
I86331849
aI86345679
aS'-'
asS'ADAD2'
p1736
(lp1737
I84191116
aI84197166
aS'+'
asS'LOC101928446'
p1738
(lp1739
I82773318
aI82829638
aS'+'
asS'PRDM7'
p1740
(lp1741
I90056565
aI90075930
aS'-'
asS'EARS2'
p1742
(lp1743
I23522012
aI23557375
aS'-'
asS'PKD1L2'
p1744
(lp1745
I81100876
aI81220394
aS'-'
asS'PKD1L3'
p1746
(lp1747
I71929537
aI71999978
aS'-'
asS'STUB1'
p1748
(lp1749
I680110
aI682768
aS'+'
asS'MIR4518'
p1750
(lp1751
I30503918
aI30504001
aS'+'
asS'ZP2'
p1752
(lp1753
I21197451
aI21214510
aS'-'
asS'LINC00254'
p1754
(lp1755
I1878284
aI1884231
aS'-'
asS'ZFP1'
p1756
(lp1757
I75148440
aI75172234
aS'+'
asS'NDUFB10'
p1758
(lp1759
I1959515
aI1961975
aS'+'
asS'ZNF668'
p1760
(lp1761
I31060842
aI31074320
aS'-'
asS'TPPP3'
p1762
(lp1763
I67389806
aI67393535
aS'-'
asS'CEMP1'
p1764
(lp1765
I2530034
aI2531408
aS'-'
asS'ZNF785'
p1766
(lp1767
I30580672
aI30585771
aS'-'
asS'GOT2'
p1768
(lp1769
I58707130
aI58734357
aS'-'
asS'ZC3H18-AS1'
p1770
(lp1771
I88560102
aI88561983
aS'-'
asS'PLLP'
p1772
(lp1773
I57256096
aI57284672
aS'-'
asS'NECAB2'
p1774
(lp1775
I83968631
aI84002774
aS'+'
asS'SEPT12'
p1776
(lp1777
I4777613
aI4788521
aS'-'
asS'EIF3CL'
p1778
(lp1779
I28711419
aI28735729
aS'+'
asS'MLYCD'
p1780
(lp1781
I83899124
aI83916182
aS'+'
asS'COG8'
p1782
(lp1783
I69328620
aI69339623
aS'-'
asS'FBXL8'
p1784
(lp1785
I67159987
aI67164174
aS'+'
asS'IRX3'
p1786
(lp1787
I54283299
aI54286466
aS'-'
asS'COG7'
p1788
(lp1789
I23388492
aI23453191
aS'-'
asS'COG4'
p1790
(lp1791
I70480568
aI70523554
aS'-'
asS'ZNF213-AS1'
p1792
(lp1793
I3125528
aI3134882
aS'-'
asS'MIR3176'
p1794
(lp1795
I543276
aI543366
aS'+'
asS'MIR3177'
p1796
(lp1797
I1734984
aI1735066
aS'+'
asS'SMIM22'
p1798
(lp1799
I4788396
aI4796491
aS'+'
asS'MT1M'
p1800
(lp1801
I56632621
aI56633986
aS'+'
asS'MIR3178'
p1802
(lp1803
I2531921
aI2532005
aS'-'
asS'PRMT7'
p1804
(lp1805
I68310950
aI68358563
aS'+'
asS'CSNK2A2'
p1806
(lp1807
I58157902
aI58197920
aS'-'
asS'KCTD13'
p1808
(lp1809
I29906335
aI29926232
aS'-'
asS'NFAT5'
p1810
(lp1811
I69565965
aI69704666
aS'+'
asS'SOCS1'
p1812
(lp1813
I11254416
aI11256182
aS'-'
asS'CASP16P'
p1814
(lp1815
I3144290
aI3149946
aS'+'
asS'LOC613038'
p1816
(lp1817
I30204315
aI30206927
aS'-'
asS'TAT-AS1'
p1818
(lp1819
I71565015
aI71572438
aS'+'
asS'MIR548H2'
p1820
(lp1821
I11306439
aI11306527
aS'-'
asS'WDR59'
p1822
(lp1823
I74873572
aI74985119
aS'-'
asS'TERF2'
p1824
(lp1825
I69355560
aI69385988
aS'-'
asS'CCNF'
p1826
(lp1827
I2429390
aI2458854
aS'+'
asS'ZKSCAN2'
p1828
(lp1829
I25236000
aI25257534
aS'-'
asS'CHTF8'
p1830
(lp1831
I69118008
aI69132588
aS'-'
asS'DYNC1LI2'
p1832
(lp1833
I66720892
aI66751828
aS'-'
asS'KCTD19'
p1834
(lp1835
I67289431
aI67326771
aS'-'
asS'HIRIP3'
p1836
(lp1837
I29992320
aI29996096
aS'-'
asS'ASPHD1'
p1838
(lp1839
I29900487
aI29906056
aS'+'
asS'CORO7-PAM16'
p1840
(lp1841
I4340250
aI4416961
aS'-'
asS'ZNF213'
p1842
(lp1843
I3135055
aI3142804
aS'+'
asS'PRSS41'
p1844
(lp1845
I2789524
aI2805286
aS'+'
asS'GLIS2'
p1846
(lp1847
I4314760
aI4339597
aS'+'
asS'HP'
p1848
(lp1849
I72054591
aI72061056
aS'+'
asS'MIR4718'
p1850
(lp1851
I12720320
aI12720371
aS'+'
asS'YBX3P1'
p1852
(lp1853
I31567766
aI31569524
aS'-'
asS'SPSB3'
p1854
(lp1855
I1776711
aI1782571
aS'-'
asS'ADAMTS18'
p1856
(lp1857
I77282127
aI77435114
aS'-'
asS'KREMEN2'
p1858
(lp1859
I2964215
aI2968383
aS'+'
asS'KLHDC4'
p1860
(lp1861
I87707811
aI87765992
aS'-'
asS'URAHP'
p1862
(lp1863
I90039760
aI90047625
aS'-'
asS'LUC7L'
p1864
(lp1865
I188968
aI229482
aS'-'
asS'DPEP1'
p1866
(lp1867
I89613307
aI89638431
aS'+'
asS'NPRL3'
p1868
(lp1869
I85804
aI138698
aS'-'
asS'DPEP3'
p1870
(lp1871
I67975662
aI67980549
aS'-'
asS'MIR4719'
p1872
(lp1873
I76868935
aI76869019
aS'+'
asS'CLEC18B'
p1874
(lp1875
I74408630
aI74421470
aS'-'
asS'MIR4720'
p1876
(lp1877
I81385017
aI81385093
aS'+'
asS'TRAP1'
p1878
(lp1879
I3658036
aI3717597
aS'-'
asS'CHD9'
p1880
(lp1881
I53054992
aI53327502
aS'+'
asS'MIR4721'
p1882
(lp1883
I28843918
aI28844007
aS'-'
asS'MEFV'
p1884
(lp1885
I3242027
aI3256627
aS'-'
asS'PRSS33'
p1886
(lp1887
I2783952
aI2786707
aS'-'
asS'BEAN1-AS1'
p1888
(lp1889
I66469795
aI66476402
aS'-'
asS'SLC5A11'
p1890
(lp1891
I24845862
aI24911628
aS'+'
asS'LINC02182'
p1892
(lp1893
I88194280
aI88195217
aS'+'
asS'TMEM186'
p1894
(lp1895
I8795179
aI8797648
aS'-'
asS'LINC02180'
p1896
(lp1897
I52085280
aI52099067
aS'+'
asS'LINC02181'
p1898
(lp1899
I87057783
aI87063991
aS'+'
asS'LOC101928708'
p1900
(lp1901
I87212114
aI87226429
aS'+'
asS'C16orf92'
p1902
(lp1903
I30023333
aI30027736
aS'+'
asS'DCTN5'
p1904
(lp1905
I23641365
aI23673747
aS'+'
asS'FLYWCH2'
p1906
(lp1907
I2883194
aI2899382
aS'+'
asS'SLC5A2'
p1908
(lp1909
I31483117
aI31490770
aS'+'
asS'FLYWCH1'
p1910
(lp1911
I2911978
aI2951208
aS'+'
asS'KLHL36'
p1912
(lp1913
I84648510
aI84667686
aS'+'
asS'TMEM170A'
p1914
(lp1915
I75443053
aI75464689
aS'-'
asS'LOC101927272'
p1916
(lp1917
I50668854
aI50671639
aS'+'
asS'IL4R'
p1918
(lp1919
I27313908
aI27364778
aS'+'
asS'CES4A'
p1920
(lp1921
I66988588
aI67010417
aS'+'
asS'LOC100505915'
p1922
(lp1923
I15094410
aI15109197
aS'+'
asS'LCMT1-AS2'
p1924
(lp1925
I25140570
aI25149032
aS'-'
asS'LCMT1-AS1'
p1926
(lp1927
I25100563
aI25111555
aS'-'
asS'CENPN'
p1928
(lp1929
I81006497
aI81033104
aS'+'
asS'MT1DP'
p1930
(lp1931
I56643686
aI56644941
aS'+'
asS'CCDC102A'
p1932
(lp1933
I57512177
aI57536565
aS'-'
asS'RNF40'
p1934
(lp1935
I30761611
aI30776307
aS'+'
asS'MIR3179-2'
p1936
(lp1937
I14901507
aI14901591
aS'+'
asS'MIR3179-3'
p1938
(lp1939
I14901507
aI14901591
aS'+'
asS'GLIS2-AS1'
p1940
(lp1941
I4324647
aI4328340
aS'-'
asS'MIR3179-1'
p1942
(lp1943
I14901507
aI14901591
aS'+'
asS'MIR3179-4'
p1944
(lp1945
I14901507
aI14901591
aS'+'
asS'SNORA78'
p1946
(lp1947
I1965183
aI1965310
aS'+'
asS'LINC00922'
p1948
(lp1949
I65284498
aI65576300
aS'-'
asS'LINC00920'
p1950
(lp1951
I66408523
aI66410900
aS'+'
asS'SBK1'
p1952
(lp1953
I28292518
aI28323849
aS'+'
asS'SEZ6L2'
p1954
(lp1955
I29871158
aI29899264
aS'-'
asS'MIR4717'
p1956
(lp1957
I2274619
aI2274691
aS'+'
asS'FAM57B'
p1958
(lp1959
I30024422
aI30036693
aS'-'
asS'MPG'
p1960
(lp1961
I77018
aI85851
aS'+'
asS'LOC654780'
p1962
(lp1963
I84192557
aI84197053
aS'-'
asS'AP1G1'
p1964
(lp1965
I71729001
aI71809073
aS'-'
asS'C16orf54'
p1966
(lp1967
I29742464
aI29746019
aS'-'
asS'CES3'
p1968
(lp1969
I66961228
aI66975149
aS'+'
asS'HMOX2'
p1970
(lp1971
I4474702
aI4510347
aS'+'
asS'SNORD68'
p1972
(lp1973
I89561429
aI89561501
aS'+'
asS'ECI1'
p1974
(lp1975
I2239402
aI2251587
aS'-'
asS'CYBA'
p1976
(lp1977
I88643288
aI88651084
aS'-'
asS'TOX3'
p1978
(lp1979
I52436415
aI52547802
aS'-'
asS'DCUN1D3'
p1980
(lp1981
I20854924
aI20900358
aS'-'
asS'CASKIN1'
p1982
(lp1983
I2177182
aI2196464
aS'-'
asS'BAIAP3'
p1984
(lp1985
I1333604
aI1349441
aS'+'
asS'MFSD13B'
p1986
(lp1987
I22385768
aI22407597
aS'+'
asS'ELMO3'
p1988
(lp1989
I67199130
aI67204029
aS'+'
asS'JMJD8'
p1990
(lp1991
I681665
aI684334
aS'-'
asS'PDZD9'
p1992
(lp1993
I21983864
aI22001116
aS'-'
asS'GCSH'
p1994
(lp1995
I81081946
aI81096375
aS'-'
asS'MIR193BHG'
p1996
(lp1997
I14302287
aI14326517
aS'+'
asS'MIR484'
p1998
(lp1999
I15643293
aI15643372
aS'+'
asS'MT1B'
p2000
(lp2001
I56651885
aI56653204
aS'+'
asS'ACD'
p2002
(lp2003
I67657511
aI67660260
aS'-'
asS'ZNF205-AS1'
p2004
(lp2005
I3110459
aI3115598
aS'-'
asS'GDE1'
p2006
(lp2007
I19501692
aI19522145
aS'-'
asS'LINC01290'
p2008
(lp2009
I10514842
aI10528198
aS'-'
asS'LOC100128770'
p2010
(lp2011
I3032480
aI3039132
aS'+'
asS'MIR940'
p2012
(lp2013
I2271746
aI2271840
aS'+'
asS'DDX11L10'
p2014
(lp2015
I11554
aI14090
aS'+'
asS'SSTR5-AS1'
p2016
(lp2017
I1064080
aI1078731
aS'-'
asS'HYDIN'
p2018
(lp2019
I70802083
aI71230722
aS'-'
asS'SNX29P1'
p2020
(lp2021
I21349362
aI21385933
aS'+'
asS'TMED6'
p2022
(lp2023
I69343245
aI69351809
aS'-'
asS'SNX29P2'
p2024
(lp2025
I29302286
aI29365059
aS'+'
asS'OGFOD1'
p2026
(lp2027
I56451479
aI56477495
aS'+'
asS'ZNF629'
p2028
(lp2029
I30778454
aI30787219
aS'-'
asS'SDR42E2'
p2030
(lp2031
I22162530
aI22190444
aS'+'
asS'MRPS34'
p2032
(lp2033
I1771894
aI1773139
aS'-'
asS'HCFC1R1'
p2034
(lp2035
I3022619
aI3024286
aS'-'
asS'SDR42E1'
p2036
(lp2037
I81997645
aI82011488
aS'-'
asS'MIR6511A3'
p2038
(lp2039
I14925936
aI14926003
aS'+'
asS'SLC7A6'
p2040
(lp2041
I68264515
aI68301823
aS'+'
asS'MRTFB'
p2042
(lp2043
I14071312
aI14266779
aS'+'
asS'CLUHP3'
p2044
(lp2045
I31700612
aI31707424
aS'+'
asS'CES5A'
p2046
(lp2047
I55846153
aI55956031
aS'-'
asS'BCO1'
p2048
(lp2049
I81238690
aI81291142
aS'+'
asS'MIR6511A4'
p2050
(lp2051
I14925936
aI14926003
aS'+'
asS'RABEP2'
p2052
(lp2053
I28904420
aI28925211
aS'-'
asS'LOC606724'
p2054
(lp2055
I29449344
aI29449915
aS'+'
asS'LOC101927480'
p2056
(lp2057
I54847250
aI54848233
aS'-'
asS'BOLA2B'
p2058
(lp2059
I29453587
aI29454324
aS'-'
asS'NKD1'
p2060
(lp2061
I50548395
aI50649249
aS'+'
asS'SLC7A5'
p2062
(lp2063
I87830015
aI87869499
aS'-'
asS'SIAH1'
p2064
(lp2065
I48360535
aI48385413
aS'-'
asS'RBL2'
p2066
(lp2067
I53434419
aI53491648
aS'+'
asS'PDILT'
p2068
(lp2069
I20359169
aI20404711
aS'-'
asS'MT1E'
p2070
(lp2071
I56625672
aI56627113
aS'+'
asS'LMF1-AS1'
p2072
(lp2073
I921032
aI934524
aS'+'
asS'PAQR4'
p2074
(lp2075
I2969244
aI2973489
aS'+'
asS'ARL6IP1'
p2076
(lp2077
I18791668
aI18801549
aS'-'
asS'CTRB2'
p2078
(lp2079
I75204095
aI75207174
aS'-'
asS'LOC105371184'
p2080
(lp2081
I678517
aI679777
aS'-'
asS'GGA2'
p2082
(lp2083
I23463541
aI23510494
aS'-'
asS'LINC01571'
p2084
(lp2085
I51762518
aI51772646
aS'+'
asS'DPEP2NB'
p2086
(lp2087
I68013435
aI68015911
aS'-'
asS'PHLPP2'
p2088
(lp2089
I71644925
aI71724701
aS'-'
asS'MLST8'
p2090
(lp2091
I2205176
aI2209454
aS'+'
asS'MAPK8IP3'
p2092
(lp2093
I1706182
aI1770317
aS'+'
asS'METTL9'
p2094
(lp2095
I21597220
aI21657473
aS'+'
asS'TPSB2'
p2096
(lp2097
I1228335
aI1230184
aS'-'
asS'VPS35'
p2098
(lp2099
I46657978
aI46689232
aS'-'
asS'LOC643802'
p2100
(lp2101
I53365391
aI53371212
aS'-'
asS'ITFG1'
p2102
(lp2103
I47154387
aI47461274
aS'-'
asS'RGS11'
p2104
(lp2105
I268300
aI275943
aS'-'
asS'SYNGR3'
p2106
(lp2107
I1989969
aI1994275
aS'+'
asS'WDR90'
p2108
(lp2109
I649362
aI667829
aS'+'
asS'IGFALS'
p2110
(lp2111
I1790412
aI1794908
aS'-'
asS'EMP2'
p2112
(lp2113
I10528421
aI10580716
aS'-'
asS'CASC16'
p2114
(lp2115
I52552086
aI52606975
aS'-'
asS'PRM3'
p2116
(lp2117
I11273198
aI11273595
aS'-'
asS'WWOX'
p2118
(lp2119
I78099412
aI79212667
aS'+'
asS'DECR2'
p2120
(lp2121
I401857
aI412487
aS'+'
asS'TMEM231'
p2122
(lp2123
I75536740
aI75556252
aS'-'
asS'MON1B'
p2124
(lp2125
I77190918
aI77199646
aS'+'
asS'ZNF597'
p2126
(lp2127
I3432413
aI3443504
aS'-'
asS'KARS'
p2128
(lp2129
I75627723
aI75647687
aS'-'
asS'MIR1972-1'
p2130
(lp2131
I15010320
aI15010397
aS'-'
asS'AARS'
p2132
(lp2133
I70252393
aI70289509
aS'-'
asS'BCKDK'
p2134
(lp2135
I31108293
aI31112791
aS'+'
asS'KCTD5'
p2136
(lp2137
I2682493
aI2709031
aS'+'
asS'SPG7'
p2138
(lp2139
I89508387
aI89557768
aS'+'
asS'ZNF319'
p2140
(lp2141
I57994667
aI57999858
aS'-'
asS'CLEC16A'
p2142
(lp2143
I10944563
aI11182186
aS'+'
asS'SLC22A31'
p2144
(lp2145
I89195760
aI89200537
aS'-'
asS'UBFD1'
p2146
(lp2147
I23557726
aI23574389
aS'+'
asS'RPL3L'
p2148
(lp2149
I1944578
aI1954678
aS'-'
asS'DBNDD1'
p2150
(lp2151
I90004864
aI90020131
aS'-'
asS'CNTNAP4'
p2152
(lp2153
I76277216
aI76560750
aS'+'
asS'SLX1B-SULT1A4'
p2154
(lp2155
I30194432
aI30204329
aS'+'
asS'FOPNL'
p2156
(lp2157
I15865718
aI15888649
aS'-'
asS'MEAK7'
p2158
(lp2159
I84476359
aI84504682
aS'-'
asS'NDRG4'
p2160
(lp2161
I58463644
aI58513619
aS'+'
asS'LOC101929613'
p2162
(lp2163
I2998954
aI3000813
aS'+'
asS'CORO7'
p2164
(lp2165
I4354541
aI4416961
aS'-'
asS'PKD1P4-NPIPA8'
p2166
(lp2167
I16316221
aI16393972
aS'+'
asS'LINC02140'
p2168
(lp2169
I54366006
aI54370699
aS'-'
asS'LINC02141'
p2170
(lp2171
I59855352
aI60053971
aS'+'
asS'HAGH'
p2172
(lp2173
I1809097
aI1827194
aS'-'
asS'SLC9A3R2'
p2174
(lp2175
I2026867
aI2039026
aS'+'
asS'TSR3'
p2176
(lp2177
I1349239
aI1351878
aS'-'
asS'IL17C'
p2178
(lp2179
I88638592
aI88640474
aS'+'
asS'CPNE7'
p2180
(lp2181
I89575767
aI89597246
aS'+'
asS'LOC100506083'
p2182
(lp2183
I70315639
aI70346747
aS'-'
asS'SGF29'
p2184
(lp2185
I28553927
aI28591790
aS'+'
asS'SNORA3C'
p2186
(lp2187
I2796407
aI2796532
aS'-'
asS'DNASE1'
p2188
(lp2189
I3652938
aI3658095
aS'+'
asS'DPEP2'
p2190
(lp2191
I67987389
aI68000586
aS'-'
asS'DOK4'
p2192
(lp2193
I57471960
aI57486493
aS'-'
asS'LDHD'
p2194
(lp2195
I75111859
aI75116772
aS'-'
asS'PYCARD'
p2196
(lp2197
I31201485
aI31202776
aS'-'
asS'HSD11B2'
p2198
(lp2199
I67431120
aI67437551
aS'+'
asS'DKFZP434H168'
p2200
(lp2201
I56192616
aI56194525
aS'-'
asS'LONP2'
p2202
(lp2203
I48244166
aI48362999
aS'+'
asS'SNORA30'
p2204
(lp2205
I30710536
aI30710665
aS'+'
asS'MIR4722'
p2206
(lp2207
I88716277
aI88716337
aS'-'
asS'SNORD148'
p2208
(lp2209
I46886420
aI46886474
aS'-'
asS'KIAA0556'
p2210
(lp2211
I27550146
aI27780371
aS'+'
asS'TRAF7'
p2212
(lp2213
I2155797
aI2178129
aS'+'
asS'ORC6'
p2214
(lp2215
I46689645
aI46698394
aS'+'
asS'UMOD'
p2216
(lp2217
I20333050
aI20352878
aS'-'
asS'PDIA2'
p2218
(lp2219
I283136
aI287215
aS'+'
asS'CALB2'
p2220
(lp2221
I71358712
aI71390438
aS'+'
asS'CRYM'
p2222
(lp2223
I21258517
aI21303136
aS'-'
asS'USP10'
p2224
(lp2225
I84699948
aI84779921
aS'+'
asS'ESRP2'
p2226
(lp2227
I68229032
aI68236127
aS'-'
asS'TVP23A'
p2228
(lp2229
I10760918
aI10818794
aS'-'
asS'NPIPA5'
p2230
(lp2231
I15363623
aI15378294
aS'-'
asS'ARMC5'
p2232
(lp2233
I31458272
aI31467167
aS'+'
asS'ABCC12'
p2234
(lp2235
I48082972
aI48146770
aS'-'
asS'MIR7854'
p2236
(lp2237
I81533901
aI81533966
aS'+'
asS'ABCC11'
p2238
(lp2239
I48166910
aI48235177
aS'-'
asS'C1QTNF8'
p2240
(lp2241
I1088225
aI1096244
aS'-'
asS'BOLA2'
p2242
(lp2243
I29453587
aI29454964
aS'-'
asS'LOC105371414'
p2244
(lp2245
I89296127
aI89298317
aS'+'
asS'RNF166'
p2246
(lp2247
I88696494
aI88706421
aS'-'
asS'PLEKHG4'
p2248
(lp2249
I67278156
aI67289500
aS'+'
asS'CLEC19A'
p2250
(lp2251
I19285782
aI19310947
aS'+'
asS'MMP2'
p2252
(lp2253
I55478829
aI55506691
aS'+'
asS'BBS2'
p2254
(lp2255
I56484346
aI56520096
aS'-'
asS'TXNDC11'
p2256
(lp2257
I11679079
aI11742878
aS'-'
asS'LOC112268173'
p2258
(lp2259
I35195758
aI35197548
aS'+'
asS'TBC1D10B'
p2260
(lp2261
I30357100
aI30370201
aS'-'
asS'GRIN2A'
p2262
(lp2263
I9753404
aI10182754
aS'-'
asS'NPIPA8'
p2264
(lp2265
I18317918
aI18335860
aS'-'
asS'PAGR1'
p2266
(lp2267
I29816151
aI29822489
aS'+'
asS'NPAP1L'
p2268
(lp2269
I60357684
aI60359793
aS'-'
asS'PDPK1'
p2270
(lp2271
I2537963
aI2603190
aS'+'
asS'NPIPA7'
p2272
(lp2273
I18317918
aI18332662
aS'-'
asS'ENPP7P13'
p2274
(lp2275
I33769376
aI33784275
aS'+'
asS'NPIPA1'
p2276
(lp2277
I16335929
aI16350594
aS'+'
asS'NPIPA2'
p2278
(lp2279
I14711688
aI14726328
aS'+'
asS'NPIPA3'
p2280
(lp2281
I14711688
aI14726338
aS'+'
as.