(dp1
S'OR52B2'
p2
(lp3
I6169354
aI6170326
aS'-'
asS'PGM2L1'
p4
(lp5
I74330311
aI74398465
aS'-'
asS'OR52B6'
p6
(lp7
I5580876
aI5581884
aS'+'
asS'OR52B4'
p8
(lp9
I4367262
aI4368386
aS'-'
asS'HSPA8'
p10
(lp11
I123057491
aI123062335
aS'-'
asS'MRGPRG-AS1'
p12
(lp13
I3218331
aI3223131
aS'+'
asS'LOC387810'
p14
(lp15
I112534220
aI112555802
aS'-'
asS'MRGPRF-AS1'
p16
(lp17
I69012353
aI69018447
aS'+'
asS'CASP17P'
p18
(lp19
I104901548
aI104918175
aS'-'
asS'DRAP1'
p20
(lp21
I65919425
aI65921563
aS'+'
asS'KDM2A'
p22
(lp23
I67119268
aI67258079
aS'+'
asS'OR9I1'
p24
(lp25
I58118499
aI58119444
aS'-'
asS'C2CD3'
p26
(lp27
I74012713
aI74171019
aS'-'
asS'JRKL'
p28
(lp29
I96389993
aI96393563
aS'+'
asS'NUP98'
p30
(lp31
I3675009
aI3797792
aS'-'
asS'MUC2'
p32
(lp33
I1074874
aI1110508
aS'+'
asS'AASDHPPT'
p34
(lp35
I106077564
aI106098692
aS'+'
asS'MUC6'
p36
(lp37
I1012823
aI1036706
aS'-'
asS'MEN1'
p38
(lp39
I64803513
aI64811294
aS'-'
asS'JAML'
p40
(lp41
I118193726
aI118225094
aS'-'
asS'PRRG4'
p42
(lp43
I32829934
aI32858123
aS'+'
asS'OVCH2'
p44
(lp45
I7689923
aI7706394
aS'-'
asS'MIR6716'
p46
(lp47
I118643999
aI118644079
aS'+'
asS'LOC103611081'
p48
(lp49
I130866248
aI130870247
aS'-'
asS'TSG101'
p50
(lp51
I18480310
aI18526956
aS'-'
asS'OR5D18'
p52
(lp53
I55819629
aI55820571
aS'+'
asS'LOC102724957'
p54
(lp55
I15643884
aI15705368
aS'+'
asS'APOA4'
p56
(lp57
I116820701
aI116823295
aS'-'
asS'APOA5'
p58
(lp59
I116789369
aI116792420
aS'-'
asS'SWAP70'
p60
(lp61
I9664076
aI9752992
aS'+'
asS'OR5D14'
p62
(lp63
I55795555
aI55796500
aS'+'
asS'PHLDA2'
p64
(lp65
I2928272
aI2929420
aS'-'
asS'LOC100507283'
p66
(lp67
I124800427
aI124834487
aS'+'
asS'DGAT2'
p68
(lp69
I75768732
aI75801536
aS'+'
asS'PAMR1'
p70
(lp71
I35431828
aI35530300
aS'-'
asS'TMEM262'
p72
(lp73
I65088371
aI65089109
aS'-'
asS'H19'
p74
(lp75
I1995175
aI2001466
aS'-'
asS'KIRREL3-AS2'
p76
(lp77
I126940745
aI126945090
aS'+'
asS'KIRREL3-AS3'
p78
(lp79
I127002909
aI127006058
aS'+'
asS'MOGAT2'
p80
(lp81
I75717818
aI75732958
aS'+'
asS'CHST1'
p82
(lp83
I45647688
aI45665656
aS'-'
asS'RPS6KA4'
p84
(lp85
I64359152
aI64372215
aS'+'
asS'MIR6860'
p86
(lp87
I67045642
aI67045708
aS'+'
asS'TP53I11'
p88
(lp89
I44932347
aI44951306
aS'-'
asS'PSMD13'
p90
(lp91
I236807
aI252984
aS'+'
asS'TCIRG1'
p92
(lp93
I68038994
aI68050899
aS'+'
asS'DLAT'
p94
(lp95
I112024813
aI112064278
aS'+'
asS'SIGIRR'
p96
(lp97
I405715
aI417397
aS'-'
asS'LOC100287896'
p98
(lp99
I74493384
aI74498533
aS'+'
asS'GANAB'
p100
(lp101
I62624825
aI62646726
aS'-'
asS'SESN3'
p102
(lp103
I95165512
aI95232541
aS'-'
asS'MUS81'
p104
(lp105
I65860400
aI65867652
aS'+'
asS'LOC100128386'
p106
(lp107
I100684160
aI100687955
aS'-'
asS'PELI3'
p108
(lp109
I66466326
aI66477337
aS'+'
asS'SLC36A4'
p110
(lp111
I93144170
aI93197975
aS'-'
asS'LOC101928008'
p112
(lp113
I9839141
aI9929261
aS'+'
asS'LOC101929538'
p114
(lp115
I128681239
aI128686922
aS'-'
asS'ART1'
p116
(lp117
I3645130
aI3664416
aS'+'
asS'ART5'
p118
(lp119
I3638505
aI3642316
aS'-'
asS'MYEOV'
p120
(lp121
I69294137
aI69297287
aS'+'
asS'BARX2'
p122
(lp123
I129375985
aI129452279
aS'+'
asS'LINC00678'
p124
(lp125
I27617625
aI27634627
aS'-'
asS'MOB2'
p126
(lp127
I1469447
aI1486779
aS'-'
asS'GVINP1'
p128
(lp129
I6713145
aI6721879
aS'-'
asS'NFRKB'
p130
(lp131
I129863774
aI129895595
aS'-'
asS'BGLT3'
p132
(lp133
I5244553
aI5245546
aS'-'
asS'CFAP300'
p134
(lp135
I102047437
aI102084560
aS'+'
asS'CRTAM'
p136
(lp137
I122838497
aI122872639
aS'+'
asS'LINC01219'
p138
(lp139
I1991095
aI1993469
aS'+'
asS'NADSYN1'
p140
(lp141
I71453170
aI71501535
aS'+'
asS'RBMXL2'
p142
(lp143
I7088933
aI7091148
aS'+'
asS'ACRV1'
p144
(lp145
I125672333
aI125680898
aS'-'
asS'FAM86C2P'
p146
(lp147
I67791766
aI67805336
aS'-'
asS'OLFM5P'
p148
(lp149
I5518309
aI5521785
aS'-'
asS'CDCA5'
p150
(lp151
I65077454
aI65084143
aS'-'
asS'CNTF'
p152
(lp153
I58622664
aI58625732
aS'+'
asS'CD44'
p154
(lp155
I35138869
aI35232402
aS'+'
asS'RSF1'
p156
(lp157
I77666228
aI77820834
aS'-'
asS'HIKESHI'
p158
(lp159
I86302210
aI86345943
aS'+'
asS'LOC100506258'
p160
(lp161
I7437635
aI7465835
aS'-'
asS'RNF214'
p162
(lp163
I117232624
aI117285688
aS'+'
asS'PHOX2A'
p164
(lp165
I72239076
aI72244176
aS'-'
asS'MIR3159'
p166
(lp167
I18387786
aI18387860
aS'+'
asS'UPK2'
p168
(lp169
I118956297
aI118958559
aS'+'
asS'OR5P3'
p170
(lp171
I7825036
aI7825972
aS'-'
asS'OR5P2'
p172
(lp173
I7795973
aI7796942
aS'-'
asS'FAR1'
p174
(lp175
I13668667
aI13732346
aS'+'
asS'CHID1'
p176
(lp177
I867858
aI915058
aS'-'
asS'WDR74'
p178
(lp179
I62832904
aI62840156
aS'-'
asS'SYTL2'
p180
(lp181
I85694220
aI85811159
aS'-'
asS'OR51Q1'
p182
(lp183
I5422110
aI5423206
aS'+'
asS'SIDT2'
p184
(lp185
I117179222
aI117197445
aS'+'
asS'MUC15'
p186
(lp187
I26559031
aI26572268
aS'-'
asS'LOC649133'
p188
(lp189
I120249758
aI120265932
aS'-'
asS'RELT'
p190
(lp191
I73376359
aI73397474
aS'+'
asS'PCF11'
p192
(lp193
I83157094
aI83185793
aS'+'
asS'NAALAD2'
p194
(lp195
I90134662
aI90192894
aS'+'
asS'RELA'
p196
(lp197
I65653595
aI65662972
aS'-'
asS'LINC00301'
p198
(lp199
I60615750
aI60687148
aS'+'
asS'MIR6090'
p200
(lp201
I128522389
aI128522449
aS'+'
asS'ARL14EP'
p202
(lp203
I30323098
aI30338223
aS'+'
asS'OR10G8'
p204
(lp205
I124029622
aI124030558
aS'+'
asS'OR7E14P'
p206
(lp207
I17051885
aI17053044
aS'+'
asS'NRXN2'
p208
(lp209
I64606173
aI64723188
aS'-'
asS'LOC100128242'
p210
(lp211
I123430462
aI123435718
aS'+'
asS'TRIM6-TRIM34'
p212
(lp213
I5596634
aI5644395
aS'+'
asS'TMEM179B'
p214
(lp215
I62787401
aI62790400
aS'+'
asS'PAK1'
p216
(lp217
I77322014
aI77474063
aS'-'
asS'IL10RA'
p218
(lp219
I117986390
aI118001483
aS'+'
asS'LOC105369486'
p220
(lp221
I110355113
aI110406908
aS'+'
asS'LBHD1'
p222
(lp223
I62662816
aI62671769
aS'-'
asS'SAA4'
p224
(lp225
I18231354
aI18236837
aS'-'
asS'SAA2'
p226
(lp227
I18238232
aI18248674
aS'-'
asS'SAA1'
p228
(lp229
I18266224
aI18269976
aS'+'
asS'TRAPPC4'
p230
(lp231
I119018468
aI119023674
aS'+'
asS'THYN1'
p232
(lp233
I134248278
aI134253366
aS'-'
asS'CARS-AS1'
p234
(lp235
I3029393
aI3041260
aS'+'
asS'OR4C15'
p236
(lp237
I55554306
aI55555419
aS'+'
asS'OR4C16'
p238
(lp239
I55572127
aI55573060
aS'+'
asS'OR4C11'
p240
(lp241
I55603353
aI55604398
aS'-'
asS'OR4C13'
p242
(lp243
I49952390
aI49953419
aS'+'
asS'OR4C12'
p244
(lp245
I49981472
aI49982535
aS'-'
asS'CCDC90B'
p246
(lp247
I83259092
aI83286407
aS'-'
asS'TMEM45B'
p248
(lp249
I129815780
aI129859511
aS'+'
asS'IGF2'
p250
(lp251
I2129111
aI2149603
aS'-'
asS'C11orf1'
p252
(lp253
I111879223
aI111884073
aS'+'
asS'OR4D9'
p254
(lp255
I59514912
aI59515857
aS'+'
asS'MRE11'
p256
(lp257
I94417300
aI94493908
aS'-'
asS'OR8D4'
p258
(lp259
I123906431
aI123907376
aS'+'
asS'NLRP6'
p260
(lp261
I278569
aI285388
aS'+'
asS'HBE1'
p262
(lp263
I5268349
aI5270143
aS'-'
asS'OR8D1'
p264
(lp265
I124309839
aI124310766
aS'-'
asS'OR8D2'
p266
(lp267
I124319261
aI124320197
aS'-'
asS'PHLDB1'
p268
(lp269
I118606497
aI118658038
aS'+'
asS'EPS8L2'
p270
(lp271
I706230
aI727727
aS'+'
asS'CYP2R1'
p272
(lp273
I14878009
aI14892205
aS'-'
asS'KLC2'
p274
(lp275
I66257293
aI66267860
aS'+'
asS'ABTB2'
p276
(lp277
I34150986
aI34358008
aS'-'
asS'FDX1'
p278
(lp279
I110429947
aI110464884
aS'+'
asS'APLNR'
p280
(lp281
I57233577
aI57237453
aS'-'
asS'LOC100652768'
p282
(lp283
I117195612
aI117201914
aS'-'
asS'ARL2-SNX15'
p284
(lp285
I65014112
aI65040572
aS'+'
asS'TMEM216'
p286
(lp287
I61392359
aI61398863
aS'+'
asS'TRIM3'
p288
(lp289
I6448612
aI6474459
aS'-'
asS'GAS2'
p290
(lp291
I22666613
aI22813001
aS'+'
asS'TRIM5'
p292
(lp293
I5663194
aI5685109
aS'-'
asS'TRIM6'
p294
(lp295
I5596100
aI5612958
aS'+'
asS'LOC338694'
p296
(lp297
I69147227
aI69171562
aS'-'
asS'ANKRD13D'
p298
(lp299
I67289290
aI67302484
aS'+'
asS'APIP'
p300
(lp301
I34882295
aI34916411
aS'-'
asS'LOC101928812'
p302
(lp303
I45355370
aI45356657
aS'+'
asS'FAM168A'
p304
(lp305
I73400477
aI73598189
aS'-'
asS'AMPD3'
p306
(lp307
I10450320
aI10507579
aS'+'
asS'RPLP2'
p308
(lp309
I809966
aI812876
aS'+'
asS'TEX12'
p310
(lp311
I112167371
aI112172556
aS'+'
asS'MALAT1'
p312
(lp313
I65497737
aI65506512
aS'+'
asS'HINFP'
p314
(lp315
I119121522
aI119135055
aS'+'
asS'LOC729305'
p316
(lp317
I134735944
aI134763811
aS'+'
asS'MIR6879'
p318
(lp319
I65018504
aI65018570
aS'+'
asS'LOC100507384'
p320
(lp321
I45722307
aI45724555
aS'+'
asS'RPS6KB2'
p322
(lp323
I67428463
aI67435408
aS'+'
asS'PKNOX2-AS1'
p324
(lp325
I125158460
aI125164609
aS'-'
asS'MRGPRX4'
p326
(lp327
I18172836
aI18174280
aS'+'
asS'MRGPRX1'
p328
(lp329
I18933812
aI18935002
aS'-'
asS'MRGPRX3'
p330
(lp331
I18120954
aI18138480
aS'+'
asS'SIPA1'
p332
(lp333
I65638106
aI65650920
aS'+'
asS'TAGLN'
p334
(lp335
I117199293
aI117207465
aS'+'
asS'DPAGT1'
p336
(lp337
I119096502
aI119102075
aS'-'
asS'MIR8052'
p338
(lp339
I130666734
aI130666803
aS'+'
asS'MIR8054'
p340
(lp341
I23419104
aI23419190
aS'-'
asS'API5'
p342
(lp343
I43311954
aI43344530
aS'+'
asS'BUD13'
p344
(lp345
I116748169
aI116772998
aS'-'
asS'LRRC32'
p346
(lp347
I76657523
aI76670747
aS'-'
asS'LOC101929653'
p348
(lp349
I131533856
aI131540867
aS'-'
asS'OR5AN1'
p350
(lp351
I59364458
aI59365394
aS'+'
asS'ANAPC15'
p352
(lp353
I72106375
aI72112780
aS'-'
asS'TUB'
p354
(lp355
I8038632
aI8106107
aS'+'
asS'PRDX5'
p356
(lp357
I64318087
aI64321823
aS'+'
asS'SVIP'
p358
(lp359
I22820262
aI22829862
aS'-'
asS'OTUB1'
p360
(lp361
I63985852
aI63998420
aS'+'
asS'OR5D13'
p362
(lp363
I55773437
aI55774382
aS'+'
asS'LOC100506675'
p364
(lp365
I32035978
aI32041318
aS'-'
asS'APOA1'
p366
(lp367
I116835750
aI116837950
aS'-'
asS'C11orf16'
p368
(lp369
I8920075
aI8933006
aS'-'
asS'OR5D16'
p370
(lp371
I55838751
aI55839738
aS'+'
asS'RAB1B'
p372
(lp373
I66268584
aI66277492
aS'+'
asS'ST3GAL4'
p374
(lp375
I126355644
aI126414641
aS'+'
asS'MASCRNA'
p376
(lp377
I65506116
aI65506174
aS'+'
asS'AP2A2'
p378
(lp379
I925808
aI1012245
aS'+'
asS'LINC00900'
p380
(lp381
I115755332
aI115760200
aS'-'
asS'ARHGAP32'
p382
(lp383
I128965059
aI129192198
aS'-'
asS'LOC101927708'
p384
(lp385
I3507979
aI3571987
aS'-'
asS'CALCB'
p386
(lp387
I15073599
aI15078631
aS'+'
asS'LYVE1'
p388
(lp389
I10557865
aI10568818
aS'-'
asS'KCNQ1DN'
p390
(lp391
I2870032
aI2872106
aS'+'
asS'KMT5B'
p392
(lp393
I68154862
aI68213772
aS'-'
asS'RAD9A'
p394
(lp395
I67391951
aI67398412
aS'+'
asS'MIR3165'
p396
(lp397
I72072227
aI72072302
aS'-'
asS'MIR3164'
p398
(lp399
I69083175
aI69083258
aS'+'
asS'RBM4B'
p400
(lp401
I66664993
aI66677921
aS'-'
asS'MIR3166'
p402
(lp403
I88176501
aI88176593
aS'+'
asS'MIR3161'
p404
(lp405
I48096781
aI48096858
aS'+'
asS'MIR3163'
p406
(lp407
I66934433
aI66934506
aS'-'
asS'MIR3162'
p408
(lp409
I59595076
aI59595158
aS'-'
asS'OR51B5'
p410
(lp411
I5340882
aI5505652
aS'-'
asS'OR51B4'
p412
(lp413
I5301013
aI5301946
aS'-'
asS'B3GAT1'
p414
(lp415
I134378503
aI134411918
aS'-'
asS'OR51B6'
p416
(lp417
I5351507
aI5352446
aS'+'
asS'OR51B2'
p418
(lp419
I5323297
aI5324352
aS'-'
asS'PLET1'
p420
(lp421
I112248152
aI112260860
aS'-'
asS'LOC100129203'
p422
(lp423
I95230185
aI95234404
aS'+'
asS'NPAT'
p424
(lp425
I108157214
aI108222638
aS'-'
asS'TUT1'
p426
(lp427
I62575044
aI62591637
aS'-'
asS'CUL5'
p428
(lp429
I108008732
aI108107776
aS'+'
asS'ASRGL1'
p430
(lp431
I62337301
aI62393415
aS'+'
asS'SIRT3'
p432
(lp433
I215029
aI236362
aS'-'
asS'TRIM29'
p434
(lp435
I120111285
aI120138155
aS'-'
asS'PRMT3'
p436
(lp437
I20387529
aI20509333
aS'+'
asS'TRIM21'
p438
(lp439
I4384896
aI4393696
aS'-'
asS'TRIM22'
p440
(lp441
I5689586
aI5710863
aS'+'
asS'FLRT1'
p442
(lp443
I64103889
aI64119173
aS'+'
asS'CALCA'
p444
(lp445
I14966668
aI14972286
aS'-'
asS'SLC15A3'
p446
(lp447
I60937083
aI60952176
aS'-'
asS'OR10D3'
p448
(lp449
I124185215
aI124186245
aS'+'
asS'KAT5'
p450
(lp451
I65712001
aI65719606
aS'+'
asS'ARCN1'
p452
(lp453
I118572386
aI118603032
aS'+'
asS'TTC17'
p454
(lp455
I43358884
aI43494933
aS'+'
asS'TTC12'
p456
(lp457
I113314528
aI113373296
aS'+'
asS'CD3D'
p458
(lp459
I118339073
aI118342744
aS'-'
asS'CD3E'
p460
(lp461
I118304579
aI118316175
aS'+'
asS'CD3G'
p462
(lp463
I118344343
aI118353782
aS'+'
asS'MRPL21'
p464
(lp465
I68891277
aI68903835
aS'-'
asS'MRPL23'
p466
(lp467
I1947271
aI1956609
aS'+'
asS'OR10V1'
p468
(lp469
I59712915
aI59713845
aS'-'
asS'DNAJC24'
p470
(lp471
I31369829
aI31432835
aS'+'
asS'GAB2'
p472
(lp473
I78215289
aI78417822
aS'-'
asS'ZFP91'
p474
(lp475
I58579062
aI58621550
aS'+'
asS'SNORA88'
p476
(lp477
I32143741
aI32143912
aS'-'
asS'ARHGAP1'
p478
(lp479
I46677074
aI46700619
aS'-'
asS'USP47'
p480
(lp481
I11841422
aI11959325
aS'+'
asS'SRSF8'
p482
(lp483
I95066876
aI95071224
aS'+'
asS'DNAJB13'
p484
(lp485
I73950318
aI73970287
aS'+'
asS'OR4D10'
p486
(lp487
I59477429
aI59478365
aS'+'
asS'OR4D11'
p488
(lp489
I59503575
aI59504511
aS'+'
asS'LOC100506282'
p490
(lp491
I83184490
aI83193669
aS'-'
asS'CHEK1'
p492
(lp493
I125625135
aI125676255
aS'+'
asS'CLNS1A'
p494
(lp495
I77616150
aI77637806
aS'-'
asS'RPUSD4'
p496
(lp497
I126202093
aI126211692
aS'-'
asS'PAX6'
p498
(lp499
I31784791
aI31817961
aS'-'
asS'CASP1P2'
p500
(lp501
I105062601
aI105071530
aS'-'
asS'NCAPD3'
p502
(lp503
I134152441
aI134224532
aS'-'
asS'PTPN5'
p504
(lp505
I18727927
aI18792721
aS'-'
asS'RCE1'
p506
(lp507
I66843411
aI66846532
aS'+'
asS'SLC3A2'
p508
(lp509
I62856011
aI62888883
aS'+'
asS'UEVLD'
p510
(lp511
I18529605
aI18588838
aS'-'
asS'MS4A18'
p512
(lp513
I60724008
aI60744213
aS'+'
asS'B4GAT1'
p514
(lp515
I66345373
aI66347629
aS'-'
asS'OR8U8'
p516
(lp517
I56375623
aI56376499
aS'+'
asS'NTM-AS1'
p518
(lp519
I131662128
aI131663556
aS'-'
asS'MS4A10'
p520
(lp521
I60785347
aI60801305
aS'+'
asS'OR8U1'
p522
(lp523
I56375623
aI56376553
aS'+'
asS'MS4A13'
p524
(lp525
I60515412
aI60542718
aS'+'
asS'MS4A14'
p526
(lp527
I60396013
aI60417755
aS'+'
asS'MS4A15'
p528
(lp529
I60756866
aI60776731
aS'+'
asS'PTDSS2'
p530
(lp531
I448267
aI491400
aS'+'
asS'AGBL2'
p532
(lp533
I47659590
aI47715376
aS'-'
asS'RPS3'
p534
(lp535
I75399490
aI75422301
aS'+'
asS'ARRB1'
p536
(lp537
I75260121
aI75351831
aS'-'
asS'OR52N4'
p538
(lp539
I5754692
aI5755729
aS'+'
asS'OR52N5'
p540
(lp541
I5777633
aI5778667
aS'-'
asS'OR52N2'
p542
(lp543
I5820335
aI5821301
aS'+'
asS'OR52N1'
p544
(lp545
I5787853
aI5788816
aS'-'
asS'SIAE'
p546
(lp547
I124635788
aI124676303
aS'-'
asS'PSMA1'
p548
(lp549
I14504875
aI14643634
aS'-'
asS'CYB561A3'
p550
(lp551
I61348747
aI61362283
aS'-'
asS'SLC22A18AS'
p552
(lp553
I2887344
aI2903945
aS'-'
asS'EXPH5'
p554
(lp555
I108505430
aI108593738
aS'-'
asS'STT3A-AS1'
p556
(lp557
I125570289
aI125592568
aS'-'
asS'NTM-IT'
p558
(lp559
I132284301
aI132288459
aS'+'
asS'KCNJ1'
p560
(lp561
I128838013
aI128867373
aS'-'
asS'KCNJ5'
p562
(lp563
I128891331
aI128921163
aS'+'
asS'FAM86C1'
p564
(lp565
I71787510
aI71801234
aS'+'
asS'LOC101928424'
p566
(lp567
I102452918
aI102462038
aS'+'
asS'LDHAL6A'
p568
(lp569
I18455826
aI18479600
aS'+'
asS'PEX16'
p570
(lp571
I45909668
aI45918123
aS'-'
asS'RAB3IL1'
p572
(lp573
I61897295
aI61920269
aS'-'
asS'LOC102723838'
p574
(lp575
I102467254
aI102498799
aS'+'
asS'CD248'
p576
(lp577
I66314486
aI66317044
aS'-'
asS'NAP1L4'
p578
(lp579
I2944429
aI2992377
aS'-'
asS'CATSPER1'
p580
(lp581
I66016751
aI66026517
aS'-'
asS'WTAPP1'
p582
(lp583
I102783675
aI102836766
aS'+'
asS'HPX'
p584
(lp585
I6431037
aI6441024
aS'-'
asS'CATSPERZ'
p586
(lp587
I64300390
aI64304767
aS'+'
asS'MIR548L'
p588
(lp589
I94466494
aI94466580
aS'-'
asS'PGA3'
p590
(lp591
I61203512
aI61212869
aS'+'
asS'PGA4'
p592
(lp593
I61222348
aI61231695
aS'+'
asS'PGA5'
p594
(lp595
I61241175
aI61251443
aS'+'
asS'MIR548K'
p596
(lp597
I70283954
aI70284070
aS'+'
asS'CCDC179'
p598
(lp599
I22846922
aI22860426
aS'-'
asS'LOC100126784'
p600
(lp601
I19710933
aI19714672
aS'-'
asS'PPP1CA'
p602
(lp603
I67398180
aI67401905
aS'-'
asS'MPPED2'
p604
(lp605
I30384492
aI30586383
aS'-'
asS'C11orf21'
p606
(lp607
I2295639
aI2303049
aS'-'
asS'C11orf24'
p608
(lp609
I68261334
aI68272001
aS'-'
asS'MIR8068'
p610
(lp611
I28477480
aI28477548
aS'-'
asS'FXYD6'
p612
(lp613
I117836975
aI117877486
aS'-'
asS'FXYD2'
p614
(lp615
I117820074
aI117828092
aS'-'
asS'CDK2AP2'
p616
(lp617
I67506489
aI67508728
aS'-'
asS'SLC39A13'
p618
(lp619
I47407275
aI47416500
aS'+'
asS'CEP126'
p620
(lp621
I101915014
aI102001065
aS'+'
asS'EIF1AD'
p622
(lp623
I65996544
aI66002166
aS'-'
asS'ARHGAP20'
p624
(lp625
I110577034
aI110713189
aS'-'
asS'LOC728196'
p626
(lp627
I111510601
aI111513888
aS'+'
asS'NUCB2'
p628
(lp629
I17276713
aI17331865
aS'+'
asS'FXYD6-FXYD2'
p630
(lp631
I117820074
aI117877031
aS'-'
asS'MICALCL'
p632
(lp633
I12286899
aI12362138
aS'+'
asS'KDM4D'
p634
(lp635
I94973680
aI94999512
aS'+'
asS'ATG2A'
p636
(lp637
I64894531
aI64917250
aS'-'
asS'MIR708'
p638
(lp639
I79402021
aI79402109
aS'-'
asS'OR51A2'
p640
(lp641
I4954771
aI4955713
aS'-'
asS'OR51A4'
p642
(lp643
I4946158
aI4947100
aS'-'
asS'OR51A7'
p644
(lp645
I4907369
aI4908308
aS'+'
asS'SC5D'
p646
(lp647
I121292678
aI121313410
aS'+'
asS'EEF1G'
p648
(lp649
I62559600
aI62573988
aS'-'
asS'OR5R1'
p650
(lp651
I56417257
aI56418232
aS'-'
asS'FAT3'
p652
(lp653
I92352095
aI92896469
aS'+'
asS'NCAM1-AS1'
p654
(lp655
I113269531
aI113273901
aS'-'
asS'EIF4G2'
p656
(lp657
I10797045
aI10809035
aS'-'
asS'UQCC3'
p658
(lp659
I62671653
aI62673690
aS'+'
asS'OLFML1'
p660
(lp661
I7485368
aI7511375
aS'+'
asS'PTPMT1'
p662
(lp663
I47565429
aI47573461
aS'+'
asS'KCNQ1OT1'
p664
(lp665
I2608327
aI2699998
aS'-'
asS'RASSF7'
p666
(lp667
I560970
aI564025
aS'+'
asS'TRIM34'
p668
(lp669
I5619943
aI5644395
aS'+'
asS'MIR4300'
p670
(lp671
I81890740
aI81890836
aS'-'
asS'FEN1'
p672
(lp673
I61792636
aI61797242
aS'+'
asS'THAP12'
p674
(lp675
I76349956
aI76381132
aS'-'
asS'PTH'
p676
(lp677
I13492044
aI13496175
aS'-'
asS'ETS1-AS1'
p678
(lp679
I128526141
aI128530383
aS'+'
asS'IGF2-AS'
p680
(lp681
I2140511
aI2148666
aS'+'
asS'SCT'
p682
(lp683
I626315
aI627240
aS'-'
asS'PTS'
p684
(lp685
I112226364
aI112233972
aS'+'
asS'MRPL11'
p686
(lp687
I66435074
aI66438848
aS'-'
asS'MRPL16'
p688
(lp689
I59806139
aI59810778
aS'-'
asS'MRPL17'
p690
(lp691
I6680384
aI6683401
aS'-'
asS'OR52A1'
p692
(lp693
I5151430
aI5152369
aS'-'
asS'OR52A5'
p694
(lp695
I5131691
aI5132642
aS'-'
asS'MIR6073'
p696
(lp697
I15969532
aI15969621
aS'-'
asS'TMPRSS13'
p698
(lp699
I117900640
aI117929453
aS'-'
asS'POLR2G'
p700
(lp701
I62761538
aI62766715
aS'+'
asS'DCUN1D5'
p702
(lp703
I103050683
aI103092215
aS'-'
asS'POLR2L'
p704
(lp705
I839720
aI842529
aS'-'
asS'RHOG'
p706
(lp707
I3826977
aI3840959
aS'-'
asS'RHOD'
p708
(lp709
I67056817
aI67072017
aS'+'
asS'ELP4'
p710
(lp711
I31509728
aI31784525
aS'+'
asS'ABCG4'
p712
(lp713
I119149039
aI119162665
aS'+'
asS'PRDM10'
p714
(lp715
I129899705
aI130002835
aS'-'
asS'PRDM11'
p716
(lp717
I45094012
aI45225088
aS'+'
asS'LOC100131626'
p718
(lp719
I118381219
aI118418815
aS'-'
asS'BATF2'
p720
(lp721
I64987944
aI64997045
aS'-'
asS'LRRC10B'
p722
(lp723
I61508799
aI61511018
aS'+'
asS'DSCAML1'
p724
(lp725
I117427771
aI117797261
aS'-'
asS'OR5B21'
p726
(lp727
I58507175
aI58508105
aS'-'
asS'FJX1'
p728
(lp729
I35618186
aI35620873
aS'+'
asS'TUB-AS1'
p730
(lp731
I8060037
aI8069373
aS'+'
asS'FLJ42102'
p732
(lp733
I71405745
aI71423354
aS'-'
asS'OR1S1'
p734
(lp735
I58214744
aI58215722
aS'+'
asS'OR1S2'
p736
(lp737
I58203203
aI58204181
aS'-'
asS'MUC5B'
p738
(lp739
I1223064
aI1262176
aS'+'
asS'UCP2'
p740
(lp741
I73974670
aI73982844
aS'-'
asS'KRTAP5-10'
p742
(lp743
I71565562
aI71566620
aS'+'
asS'KRTAP5-11'
p744
(lp745
I71581854
aI71582875
aS'-'
asS'BTG4'
p746
(lp747
I111467530
aI111512354
aS'-'
asS'FZD4'
p748
(lp749
I86945674
aI86955398
aS'-'
asS'NECTIN1'
p750
(lp751
I119638097
aI119728725
aS'-'
asS'OR10W1'
p752
(lp753
I58266791
aI58268260
aS'-'
asS'TBRG1'
p754
(lp755
I124622845
aI124635926
aS'+'
asS'UVRAG-DT'
p756
(lp757
I75813513
aI75814797
aS'-'
asS'OR8B2'
p758
(lp759
I124382401
aI124383343
aS'-'
asS'OR8B3'
p760
(lp761
I124396409
aI124397351
aS'-'
asS'OR8B4'
p762
(lp763
I124423941
aI124424871
aS'-'
asS'OR8B8'
p764
(lp765
I124440149
aI124441085
aS'-'
asS'ADM'
p766
(lp767
I10304979
aI10307402
aS'+'
asS'DDX25'
p768
(lp769
I125903375
aI125923403
aS'+'
asS'CD151'
p770
(lp771
I832951
aI838835
aS'+'
asS'LOC100128494'
p772
(lp773
I72014290
aI72020910
aS'+'
asS'JRKL-AS1'
p774
(lp775
I96443280
aI96506877
aS'-'
asS'LOC101928837'
p776
(lp777
I76782580
aI76783062
aS'-'
asS'LPXN'
p778
(lp779
I58526870
aI58578239
aS'-'
asS'TALDO1'
p780
(lp781
I747463
aI765012
aS'+'
asS'OVOL1'
p782
(lp783
I65787062
aI65797214
aS'+'
asS'OOSP1'
p784
(lp785
I59942878
aI59995845
aS'+'
asS'OOSP2'
p786
(lp787
I60040408
aI60048043
aS'+'
asS'RAPSN'
p788
(lp789
I47437756
aI47449178
aS'-'
asS'SNORD22'
p790
(lp791
I62852909
aI62853035
aS'-'
asS'SNORD25'
p792
(lp793
I62855564
aI62855631
aS'-'
asS'SNORD27'
p794
(lp795
I62855011
aI62855083
aS'-'
asS'SNORD26'
p796
(lp797
I62855291
aI62855366
aS'-'
asS'KCNK4'
p798
(lp799
I64291301
aI64300028
aS'+'
asS'SNORD28'
p800
(lp801
I62854620
aI62854695
aS'-'
asS'KCNK7'
p802
(lp803
I65592854
aI65595996
aS'-'
asS'GPR137'
p804
(lp805
I64284338
aI64289500
aS'+'
asS'CRY2'
p806
(lp807
I45847117
aI45883248
aS'+'
asS'SNORD6'
p808
(lp809
I93731502
aI93731573
aS'-'
asS'SNORD5'
p810
(lp811
I93733227
aI93733300
aS'-'
asS'OR2AT4'
p812
(lp813
I75088750
aI75089713
aS'-'
asS'TRAF6'
p814
(lp815
I36483766
aI36510313
aS'-'
asS'GTF2H1'
p816
(lp817
I18322268
aI18367043
aS'+'
asS'TMPRSS4'
p818
(lp819
I118077011
aI118119841
aS'+'
asS'TMPRSS5'
p820
(lp821
I113687545
aI113706373
aS'-'
asS'APOA1-AS'
p822
(lp823
I116836116
aI116855729
aS'+'
asS'LRRC56'
p824
(lp825
I537521
aI554916
aS'+'
asS'LRRC55'
p826
(lp827
I57181952
aI57191714
aS'+'
asS'OR9G9'
p828
(lp829
I56700387
aI56701305
aS'+'
asS'OR5AL1'
p830
(lp831
I56412596
aI56413781
aS'+'
asS'DBX1'
p832
(lp833
I20156154
aI20160324
aS'-'
asS'LOC101928053'
p834
(lp835
I10809296
aI10822931
aS'+'
asS'TBC1D10C'
p836
(lp837
I67403912
aI67410090
aS'+'
asS'SDHD'
p838
(lp839
I112086823
aI112095801
aS'+'
asS'SBF2'
p840
(lp841
I9778666
aI10294207
aS'-'
asS'SNORD131'
p842
(lp843
I1949330
aI1949476
aS'+'
asS'DLG2'
p844
(lp845
I83455012
aI85628337
aS'-'
asS'MFRP'
p846
(lp847
I119338941
aI119346705
aS'-'
asS'MIR8070'
p848
(lp849
I11783134
aI11783222
aS'-'
asS'LOC101929473'
p850
(lp851
I127067001
aI127101306
aS'+'
asS'WEE1'
p852
(lp853
I9573669
aI9589985
aS'+'
asS'MIR4298'
p854
(lp855
I1859463
aI1859536
aS'-'
asS'METTL15'
p856
(lp857
I28108250
aI28333507
aS'+'
asS'MACROD1'
p858
(lp859
I63998557
aI64166113
aS'-'
asS'LMNTD2'
p860
(lp861
I554849
aI560779
aS'-'
asS'SEC14L1P1'
p862
(lp863
I43897302
aI43899874
aS'+'
asS'OSBPL5'
p864
(lp865
I3087115
aI3165352
aS'-'
asS'SNORD13I'
p866
(lp867
I100934273
aI100934378
aS'+'
asS'UBE4A'
p868
(lp869
I118359580
aI118399211
aS'+'
asS'SNORD13F'
p870
(lp871
I66053143
aI66053228
aS'+'
asS'OR5A2'
p872
(lp873
I59421978
aI59422953
aS'-'
asS'OR5A1'
p874
(lp875
I59443168
aI59444116
aS'+'
asS'ODF3'
p876
(lp877
I196760
aI200258
aS'+'
asS'ANO9'
p878
(lp879
I417929
aI442011
aS'-'
asS'ANO5'
p880
(lp881
I22193175
aI22283367
aS'+'
asS'LOC283194'
p882
(lp883
I58933642
aI59058452
aS'-'
asS'ANO1'
p884
(lp885
I70078301
aI70189546
aS'+'
asS'CELF1'
p886
(lp887
I47465936
aI47553240
aS'-'
asS'ANO3'
p888
(lp889
I26189122
aI26663289
aS'+'
asS'STIP1'
p890
(lp891
I64185271
aI64204548
aS'+'
asS'TMEM132A'
p892
(lp893
I60924440
aI60937159
aS'+'
asS'CHKA'
p894
(lp895
I68052858
aI68121391
aS'-'
asS'SPTY2D1OS'
p896
(lp897
I18599786
aI18610255
aS'+'
asS'RCN1'
p898
(lp899
I32090930
aI32105726
aS'+'
asS'MIR1908'
p900
(lp901
I61815160
aI61815240
aS'-'
asS'GRM5'
p902
(lp903
I88504575
aI89063678
aS'-'
asS'PCF11-AS1'
p904
(lp905
I83185520
aI83187484
aS'-'
asS'NR1H3'
p906
(lp907
I47248299
aI47269033
aS'+'
asS'PHRF1'
p908
(lp909
I576445
aI612222
aS'+'
asS'DCDC1'
p910
(lp911
I30864943
aI31369810
aS'-'
asS'GLYATL2'
p912
(lp913
I58834065
aI58844524
aS'-'
asS'GLYATL1'
p914
(lp915
I58905397
aI58957074
aS'+'
asS'CLPB'
p916
(lp917
I72292425
aI72434684
aS'-'
asS'INS'
p918
(lp919
I2159778
aI2161209
aS'-'
asS'OR10V2P'
p920
(lp921
I59748811
aI59749581
aS'+'
asS'TTC36'
p922
(lp923
I118527432
aI118531197
aS'+'
asS'RBM7'
p924
(lp925
I114400528
aI114410610
aS'+'
asS'MIR192'
p926
(lp927
I64891136
aI64891246
aS'-'
asS'ACP2'
p928
(lp929
I47239301
aI47248847
aS'-'
asS'NELL1'
p930
(lp931
I20669550
aI21575683
aS'+'
asS'BSX'
p932
(lp933
I122977648
aI122981671
aS'-'
asS'TMEM9B-AS1'
p934
(lp935
I8964674
aI8976283
aS'+'
asS'SLC22A25'
p936
(lp937
I63163169
aI63229652
aS'-'
asS'SLC22A24'
p938
(lp939
I63079939
aI63144221
aS'-'
asS'OR51V1'
p940
(lp941
I5199734
aI5200700
aS'-'
asS'ACAT1'
p942
(lp943
I108121530
aI108148164
aS'+'
asS'DDB2'
p944
(lp945
I47214941
aI47239218
aS'+'
asS'TRIM51EP'
p946
(lp947
I89981444
aI89991670
aS'-'
asS'DDB1'
p948
(lp949
I61299446
aI61333212
aS'-'
asS'OR4C46'
p950
(lp951
I54603068
aI54603998
aS'-'
asS'OR4C45'
p952
(lp953
I50032873
aI50033794
aS'+'
asS'MCAM'
p954
(lp955
I119308523
aI119317130
aS'-'
asS'TPCN2'
p956
(lp957
I69048881
aI69090604
aS'+'
asS'LMO1'
p958
(lp959
I8224303
aI8268635
aS'-'
asS'SLC17A6'
p960
(lp961
I22338120
aI22379500
aS'+'
asS'CTTN'
p962
(lp963
I70398505
aI70436584
aS'+'
asS'AP5B1'
p964
(lp965
I65773897
aI65780591
aS'-'
asS'BAD'
p966
(lp967
I64269827
aI64284704
aS'-'
asS'MIR1237'
p968
(lp969
I64368601
aI64368703
aS'+'
asS'OR8A1'
p970
(lp971
I124569996
aI124571374
aS'+'
asS'SLC37A2'
p972
(lp973
I125063116
aI125090516
aS'+'
asS'OR52L1'
p974
(lp975
I5985891
aI5986985
aS'-'
asS'MYOD1'
p976
(lp977
I17719562
aI17722131
aS'+'
asS'DDX10'
p978
(lp979
I108665068
aI108940926
aS'+'
asS'LOC101928132'
p980
(lp981
I13921446
aI13924863
aS'-'
asS'ST5'
p982
(lp983
I8693351
aI8910951
aS'-'
asS'MIR548AL'
p984
(lp985
I74399236
aI74399333
aS'+'
asS'MTRNR2L8'
p986
(lp987
I10507886
aI10509176
aS'-'
asS'VWCE'
p988
(lp989
I61258285
aI61295316
aS'-'
asS'TMEM223'
p990
(lp991
I62790314
aI62792014
aS'-'
asS'PSMC3'
p992
(lp993
I47418768
aI47426473
aS'-'
asS'TMEM225'
p994
(lp995
I123882925
aI123885642
aS'-'
asS'ARFIP2'
p996
(lp997
I6474682
aI6481479
aS'-'
asS'LOC105369509'
p998
(lp999
I115333576
aI115340439
aS'+'
asS'LOC105369507'
p1000
(lp1001
I115396755
aI115397658
aS'+'
asS'FOLR2'
p1002
(lp1003
I72216774
aI72221950
aS'+'
asS'KIF18A'
p1004
(lp1005
I28020615
aI28108199
aS'-'
asS'KRT8P41'
p1006
(lp1007
I9094362
aI9096190
aS'+'
asS'TPH1'
p1008
(lp1009
I18020536
aI18040788
aS'-'
asS'P2RY2'
p1010
(lp1011
I73218297
aI73242427
aS'+'
asS'MMP27'
p1012
(lp1013
I102691683
aI102705737
aS'-'
asS'MMP26'
p1014
(lp1015
I4988190
aI4992429
aS'+'
asS'P2RY6'
p1016
(lp1017
I73264504
aI73298625
aS'+'
asS'MMP20'
p1018
(lp1019
I102576834
aI102625332
aS'-'
asS'ARAP1-AS2'
p1020
(lp1021
I72700473
aI72705607
aS'+'
asS'LTO1'
p1022
(lp1023
I69665563
aI69675397
aS'-'
asS'ENDOD1'
p1024
(lp1025
I95089809
aI95132651
aS'+'
asS'SNORD30'
p1026
(lp1027
I62853662
aI62853732
aS'-'
asS'SNORD31'
p1028
(lp1029
I62853325
aI62853393
aS'-'
asS'MAP3K11'
p1030
(lp1031
I65597754
aI65614249
aS'-'
asS'LOC101928591'
p1032
(lp1033
I42001721
aI42085458
aS'-'
asS'RNF121'
p1034
(lp1035
I71928721
aI71997597
aS'+'
asS'SLC1A2'
p1036
(lp1037
I35251204
aI35420063
aS'-'
asS'LIN7C'
p1038
(lp1039
I27494417
aI27506769
aS'-'
asS'OR2D2'
p1040
(lp1041
I6891573
aI6892500
aS'-'
asS'OR2D3'
p1042
(lp1043
I6921001
aI6921994
aS'+'
asS'TRIM53AP'
p1044
(lp1045
I89841996
aI89850968
aS'+'
asS'CAND1.11'
p1046
(lp1047
I10308312
aI10430673
aS'+'
asS'B3GNT6'
p1048
(lp1049
I77034340
aI77041958
aS'+'
asS'EIF3M'
p1050
(lp1051
I32583766
aI32602873
aS'+'
asS'MIR6756'
p1052
(lp1053
I119312949
aI119313012
aS'-'
asS'EIF3F'
p1054
(lp1055
I7987319
aI7996171
aS'+'
asS'FADD'
p1056
(lp1057
I70203162
aI70207402
aS'+'
asS'MTMR2'
p1058
(lp1059
I95832879
aI95924207
aS'-'
asS'LOC101928823'
p1060
(lp1061
I112482231
aI112541916
aS'+'
asS'WT1'
p1062
(lp1063
I32387775
aI32435539
aS'-'
asS'LOC101929089'
p1064
(lp1065
I118511917
aI118530775
aS'-'
asS'IZUMO1R'
p1066
(lp1067
I94305636
aI94307692
aS'+'
asS'CCDC153'
p1068
(lp1069
I119190253
aI119195874
aS'-'
asS'FCHSD2'
p1070
(lp1071
I72836744
aI73142098
aS'-'
asS'YIF1A'
p1072
(lp1073
I66284579
aI66289167
aS'-'
asS'SYT8'
p1074
(lp1075
I1834309
aI1837521
aS'+'
asS'SYT9'
p1076
(lp1077
I7251949
aI7469045
aS'+'
asS'LRRC4C'
p1078
(lp1079
I40114200
aI41459636
aS'-'
asS'MRPL23-AS1'
p1080
(lp1081
I1983208
aI1989920
aS'-'
asS'MTCH2'
p1082
(lp1083
I47617305
aI47642654
aS'-'
asS'OR6T1'
p1084
(lp1085
I123942866
aI123943838
aS'-'
asS'SYT7'
p1086
(lp1087
I61513715
aI61581076
aS'-'
asS'SLC22A20P'
p1088
(lp1089
I65213839
aI65242757
aS'+'
asS'DIXDC1'
p1090
(lp1091
I111937202
aI112022650
aS'+'
asS'MIR8087'
p1092
(lp1093
I27514969
aI27515047
aS'-'
asS'MIR3973'
p1094
(lp1095
I36010097
aI36010204
aS'+'
asS'CAVIN3'
p1096
(lp1097
I6318945
aI6320510
aS'-'
asS'LOC283214'
p1098
(lp1099
I75758454
aI75768647
aS'-'
asS'MADD'
p1100
(lp1101
I47269375
aI47330031
aS'+'
asS'NNMT'
p1102
(lp1103
I114295812
aI114312516
aS'+'
asS'DEFB108B'
p1104
(lp1105
I71833199
aI71837562
aS'+'
asS'TCP11L1'
p1106
(lp1107
I33039416
aI33073563
aS'+'
asS'OR5B3'
p1108
(lp1109
I58402464
aI58403409
aS'-'
asS'OR5B2'
p1110
(lp1111
I58422264
aI58423313
aS'-'
asS'PPP1R14B'
p1112
(lp1113
I64244478
aI64246941
aS'-'
asS'OR2AG2'
p1114
(lp1115
I6768006
aI6768957
aS'-'
asS'OR2AG1'
p1116
(lp1117
I6785016
aI6786014
aS'+'
asS'OR51G2'
p1118
(lp1119
I4914718
aI4915663
aS'-'
asS'INCENP'
p1120
(lp1121
I62123972
aI62153163
aS'+'
asS'OR51G1'
p1122
(lp1123
I4923373
aI4924339
aS'-'
asS'FBXO3-DT'
p1124
(lp1125
I33774698
aI33775670
aS'+'
asS'OR5T1'
p1126
(lp1127
I56275638
aI56276619
aS'+'
asS'OR5T3'
p1128
(lp1129
I56252199
aI56253222
aS'+'
asS'OR5T2'
p1130
(lp1131
I56232105
aI56233185
aS'-'
asS'DEPDC7'
p1132
(lp1133
I33015877
aI33033582
aS'+'
asS'ALKBH8'
p1134
(lp1135
I107502726
aI107565735
aS'-'
asS'VPS51'
p1136
(lp1137
I65096114
aI65111860
aS'+'
asS'ALKBH3'
p1138
(lp1139
I43880806
aI43920275
aS'+'
asS'OR10G7'
p1140
(lp1141
I124038065
aI124039001
aS'-'
asS'OR10G6'
p1142
(lp1143
I123994162
aI123995161
aS'-'
asS'OR10G4'
p1144
(lp1145
I124015574
aI124016510
aS'+'
asS'TMEM126A'
p1146
(lp1147
I85647918
aI85656553
aS'+'
asS'TMEM126B'
p1148
(lp1149
I85628572
aI85636540
aS'+'
asS'ATM'
p1150
(lp1151
I108222831
aI108369099
aS'+'
asS'OR10G9'
p1152
(lp1153
I124023012
aI124023948
aS'+'
asS'SCYL1'
p1154
(lp1155
I65525076
aI65538711
aS'+'
asS'RCOR2'
p1156
(lp1157
I63911220
aI63916844
aS'-'
asS'TIGD3'
p1158
(lp1159
I65354810
aI65357611
aS'+'
asS'SMPD1'
p1160
(lp1161
I6390413
aI6394998
aS'+'
asS'MIR612'
p1162
(lp1163
I65444457
aI65444557
aS'+'
asS'MIR611'
p1164
(lp1165
I61792494
aI61792561
aS'-'
asS'MIR610'
p1166
(lp1167
I28056814
aI28056910
aS'+'
asS'SSSCA1-AS1'
p1168
(lp1169
I65569219
aI65570413
aS'-'
asS'PTPRCAP'
p1170
(lp1171
I67435509
aI67437682
aS'-'
asS'INS-IGF2'
p1172
(lp1173
I2129111
aI2161209
aS'-'
asS'OR4D5'
p1174
(lp1175
I123939616
aI123940573
aS'+'
asS'OR4D6'
p1176
(lp1177
I59456960
aI59457905
aS'+'
asS'FANCF'
p1178
(lp1179
I22622532
aI22625841
aS'-'
asS'PATL1'
p1180
(lp1181
I59636715
aI59669038
aS'-'
asS'PGGHG'
p1182
(lp1183
I289137
aI295688
aS'+'
asS'CARS'
p1184
(lp1185
I3000921
aI3057451
aS'-'
asS'ELMOD1'
p1186
(lp1187
I107591090
aI107666779
aS'+'
asS'SNORA52'
p1188
(lp1189
I811680
aI811814
aS'+'
asS'SNORA54'
p1190
(lp1191
I2963770
aI2963893
aS'-'
asS'SNORA57'
p1192
(lp1193
I62665421
aI62665570
aS'+'
asS'SLC22A18'
p1194
(lp1195
I2899720
aI2925246
aS'+'
asS'LOC283140'
p1196
(lp1197
I112270748
aI112362534
aS'+'
asS'GRIK4'
p1198
(lp1199
I120511745
aI120988804
aS'+'
asS'SLC22A10'
p1200
(lp1201
I63289946
aI63311774
aS'+'
asS'SLC22A11'
p1202
(lp1203
I64555600
aI64572875
aS'+'
asS'MIR4300HG'
p1204
(lp1205
I81879850
aI82403913
aS'-'
asS'RNF141'
p1206
(lp1207
I10511677
aI10541227
aS'-'
asS'AMOTL1'
p1208
(lp1209
I94768341
aI94876753
aS'+'
asS'LOC105369443'
p1210
(lp1211
I96508424
aI96514750
aS'+'
asS'CEP57'
p1212
(lp1213
I95790460
aI95832693
aS'+'
asS'SERGEF'
p1214
(lp1215
I17788049
aI18013162
aS'-'
asS'SF3B2'
p1216
(lp1217
I66052344
aI66068911
aS'+'
asS'SLC22A12'
p1218
(lp1219
I64590809
aI64602353
aS'+'
asS'GAL3ST3'
p1220
(lp1221
I66040764
aI66049180
aS'-'
asS'CSTF3-DT'
p1222
(lp1223
I33161656
aI33191596
aS'+'
asS'ACCS'
p1224
(lp1225
I44066178
aI44084019
aS'+'
asS'CNIH2'
p1226
(lp1227
I66278200
aI66284214
aS'+'
asS'INPPL1'
p1228
(lp1229
I72224837
aI72239144
aS'+'
asS'TRIM49D1'
p1230
(lp1231
I89911471
aI89917710
aS'-'
asS'ATG16L2'
p1232
(lp1233
I72814405
aI72829635
aS'+'
asS'OR10Q1'
p1234
(lp1235
I58227881
aI58228918
aS'-'
asS'SCN2B'
p1236
(lp1237
I118162803
aI118176622
aS'-'
asS'USH1C'
p1238
(lp1239
I17493894
aI17544416
aS'-'
asS'PACSIN3'
p1240
(lp1241
I47177521
aI47186459
aS'-'
asS'KCTD21-AS1'
p1242
(lp1243
I78139792
aI78173977
aS'+'
asS'MIR6128'
p1244
(lp1245
I56743872
aI56743981
aS'+'
asS'MIR6124'
p1246
(lp1247
I12163682
aI12163767
aS'+'
asS'LOC105376671'
p1248
(lp1249
I27471730
aI27482433
aS'+'
asS'MS4A6A'
p1250
(lp1251
I60171606
aI60184666
aS'-'
asS'MS4A6E'
p1252
(lp1253
I60334881
aI60340968
aS'+'
asS'RBM14-RBM4'
p1254
(lp1255
I66616581
aI66646473
aS'+'
asS'UCP3'
p1256
(lp1257
I74000276
aI74009085
aS'-'
asS'OR10AG1'
p1258
(lp1259
I55967557
aI55968463
aS'-'
asS'OR52M1'
p1260
(lp1261
I4545190
aI4546144
aS'+'
asS'NRIP3'
p1262
(lp1263
I8980575
aI9004049
aS'-'
asS'GSTP1'
p1264
(lp1265
I67583594
aI67586653
aS'+'
asS'OR4X1'
p1266
(lp1267
I48263860
aI48264778
aS'+'
asS'OR4X2'
p1268
(lp1269
I48245103
aI48246015
aS'+'
asS'SAC3D1'
p1270
(lp1271
I65040903
aI65044828
aS'+'
asS'MIR7847'
p1272
(lp1273
I1880044
aI1880147
aS'+'
asS'LOC105369532'
p1274
(lp1275
I120811344
aI120819115
aS'-'
asS'MIR5582'
p1276
(lp1277
I46753124
aI46753192
aS'-'
asS'LINC00958'
p1278
(lp1279
I12979533
aI12989548
aS'-'
asS'SNORA25'
p1280
(lp1281
I93730514
aI93730646
aS'-'
asS'LOC646029'
p1282
(lp1283
I77571088
aI77575662
aS'+'
asS'DEAF1'
p1284
(lp1285
I644219
aI695754
aS'-'
asS'LOC100132078'
p1286
(lp1287
I111414241
aI111418186
aS'-'
asS'ALKBH3-AS1'
p1288
(lp1289
I43909289
aI43920944
aS'-'
asS'ZNF202'
p1290
(lp1291
I123723926
aI123741683
aS'-'
asS'CCDC73'
p1292
(lp1293
I32602079
aI32794658
aS'-'
asS'SMCO4'
p1294
(lp1295
I93478472
aI93543380
aS'-'
asS'CTSC'
p1296
(lp1297
I88293591
aI88337787
aS'-'
asS'CTSD'
p1298
(lp1299
I1752754
aI1763927
aS'-'
asS'LOC101928535'
p1300
(lp1301
I106251406
aI106264905
aS'+'
asS'CTSF'
p1302
(lp1303
I66563463
aI66568576
aS'-'
asS'TMEM109'
p1304
(lp1305
I60913898
aI60923443
aS'+'
asS'PPP1R32'
p1306
(lp1307
I61481112
aI61490928
aS'+'
asS'MIR5691'
p1308
(lp1309
I9090311
aI9090379
aS'-'
asS'CTSW'
p1310
(lp1311
I65879836
aI65883741
aS'+'
asS'HEPN1'
p1312
(lp1313
I124919249
aI124920677
aS'+'
asS'VSIG10L2'
p1314
(lp1315
I125946055
aI125956319
aS'+'
asS'TPBGL'
p1316
(lp1317
I75240904
aI75243704
aS'+'
asS'PRSS23'
p1318
(lp1319
I86800541
aI86952903
aS'+'
asS'MSANTD4'
p1320
(lp1321
I106007920
aI106022287
aS'-'
asS'MSANTD2'
p1322
(lp1323
I124766497
aI124800404
aS'-'
asS'GRM5-AS1'
p1324
(lp1325
I88504575
aI88524054
aS'+'
asS'NUDT8'
p1326
(lp1327
I67627937
aI67629937
aS'-'
asS'TIMM8B'
p1328
(lp1329
I112084810
aI112086798
aS'-'
asS'LINC01537'
p1330
(lp1331
I72570655
aI72573222
aS'+'
asS'AHNAK'
p1332
(lp1333
I62433541
aI62546860
aS'-'
asS'VPS37C'
p1334
(lp1335
I61130255
aI61161444
aS'-'
asS'PNPLA2'
p1336
(lp1337
I818900
aI825571
aS'+'
asS'LOC103312105'
p1338
(lp1339
I38618263
aI38646356
aS'-'
asS'THRSP'
p1340
(lp1341
I78063860
aI78068357
aS'+'
asS'LARGE2'
p1342
(lp1343
I45921620
aI45929096
aS'+'
asS'IGSF9B'
p1344
(lp1345
I133908624
aI133956754
aS'-'
asS'PAX6-AS1'
p1346
(lp1347
I31816565
aI31887041
aS'+'
asS'ATG13'
p1348
(lp1349
I46617275
aI46676018
aS'+'
asS'FRMD8'
p1350
(lp1351
I65386569
aI65413524
aS'+'
asS'IMMP1L'
p1352
(lp1353
I31432398
aI31509628
aS'-'
asS'PKNOX2'
p1354
(lp1355
I125164662
aI125433389
aS'+'
asS'HYOU1'
p1356
(lp1357
I119044184
aI119057246
aS'-'
asS'CDHR5'
p1358
(lp1359
I616564
aI625067
aS'-'
asS'OR51F1'
p1360
(lp1361
I4768978
aI4769917
aS'-'
asS'OR51F2'
p1362
(lp1363
I4821320
aI4822456
aS'+'
asS'LIPT2'
p1364
(lp1365
I74490510
aI74493713
aS'-'
asS'ILK'
p1366
(lp1367
I6603707
aI6610874
aS'+'
asS'BTBD18'
p1368
(lp1369
I57743513
aI57751781
aS'-'
asS'CEND1'
p1370
(lp1371
I787114
aI790090
aS'-'
asS'NLRX1'
p1372
(lp1373
I119168333
aI119184016
aS'+'
asS'MIR4485'
p1374
(lp1375
I10508269
aI10508326
aS'-'
asS'SIK3'
p1376
(lp1377
I116843401
aI117098428
aS'-'
asS'SIK2'
p1378
(lp1379
I111602390
aI111726917
aS'+'
asS'PDE3B'
p1380
(lp1381
I14643722
aI14872058
aS'+'
asS'GPR83'
p1382
(lp1383
I94377310
aI94401423
aS'-'
asS'FOXR1'
p1384
(lp1385
I118971706
aI118981285
aS'+'
asS'RPLP0P2'
p1386
(lp1387
I61615035
aI61639449
aS'+'
asS'SLC43A3'
p1388
(lp1389
I57406953
aI57427580
aS'-'
asS'BACE1-AS'
p1390
(lp1391
I117291345
aI117292170
aS'+'
asS'SLC43A1'
p1392
(lp1393
I57484530
aI57515719
aS'-'
asS'IL18'
p1394
(lp1395
I112143250
aI112164117
aS'-'
asS'LOC101927495'
p1396
(lp1397
I61588493
aI61607546
aS'+'
asS'LOC101927120'
p1398
(lp1399
I56848477
aI56878078
aS'+'
asS'DTX4'
p1400
(lp1401
I59171429
aI59208587
aS'+'
asS'MIR7154'
p1402
(lp1403
I45691703
aI45691776
aS'-'
asS'INSC'
p1404
(lp1405
I15112423
aI15247208
aS'+'
asS'SPINDOC'
p1406
(lp1407
I63813373
aI63827718
aS'+'
asS'SNORA40'
p1408
(lp1409
I93735109
aI93735236
aS'-'
asS'MIR7155'
p1410
(lp1411
I64341848
aI64341904
aS'-'
asS'BIRC3'
p1412
(lp1413
I102317449
aI102339403
aS'+'
asS'BIRC2'
p1414
(lp1415
I102347181
aI102378670
aS'+'
asS'GLYATL1B'
p1416
(lp1417
I59086306
aI59094786
aS'+'
asS'OR9G4'
p1418
(lp1419
I56742827
aI56743811
aS'-'
asS'OR9G1'
p1420
(lp1421
I56700387
aI56701305
aS'+'
asS'JHY'
p1422
(lp1423
I122882527
aI122959722
aS'+'
asS'SHANK2-AS3'
p1424
(lp1425
I70862789
aI70865115
aS'+'
asS'SHANK2-AS1'
p1426
(lp1427
I70631093
aI70635490
aS'+'
asS'RAB30-AS1'
p1428
(lp1429
I83072065
aI83073712
aS'+'
asS'FIBIN'
p1430
(lp1431
I26994080
aI26997085
aS'+'
asS'LOC102724064'
p1432
(lp1433
I66347990
aI66363764
aS'+'
asS'OR51T1'
p1434
(lp1435
I4881818
aI4882883
aS'+'
asS'DPP3'
p1436
(lp1437
I66480012
aI66509659
aS'+'
asS'OR7E2P'
p1438
(lp1439
I86856930
aI86857954
aS'-'
asS'CPT1A'
p1440
(lp1441
I68754619
aI68841931
aS'-'
asS'LOC399975'
p1442
(lp1443
I129233777
aI129283164
aS'-'
asS'OR5B12'
p1444
(lp1445
I58439119
aI58440173
aS'-'
asS'OR5B17'
p1446
(lp1447
I58358124
aI58359069
aS'-'
asS'ZDHHC24'
p1448
(lp1449
I66521081
aI66546238
aS'-'
asS'HOTS'
p1450
(lp1451
I1992407
aI1996294
aS'+'
asS'SNORD29'
p1452
(lp1453
I62853903
aI62853968
aS'-'
asS'NDUFS3'
p1454
(lp1455
I47579009
aI47584563
aS'+'
asS'UBTFL1'
p1456
(lp1457
I90085949
aI90087131
aS'+'
asS'NDUFS8'
p1458
(lp1459
I68030616
aI68036647
aS'+'
asS'HEPACAM'
p1460
(lp1461
I124919204
aI124936047
aS'-'
asS'DPF2'
p1462
(lp1463
I65333753
aI65354260
aS'+'
asS'HBD'
p1464
(lp1465
I5232828
aI5234628
aS'-'
asS'HBB'
p1466
(lp1467
I5225463
aI5227071
aS'-'
asS'SBF2-AS1'
p1468
(lp1469
I9758292
aI9811319
aS'+'
asS'MS4A8'
p1470
(lp1471
I60699611
aI60715807
aS'+'
asS'MS4A7'
p1472
(lp1473
I60378484
aI60395953
aS'+'
asS'MS4A5'
p1474
(lp1475
I60429588
aI60447792
aS'+'
asS'MS4A2'
p1476
(lp1477
I60088663
aI60098467
aS'+'
asS'MS4A3'
p1478
(lp1479
I60056627
aI60071115
aS'+'
asS'MS4A1'
p1480
(lp1481
I60455808
aI60470752
aS'+'
asS'ZNF143'
p1482
(lp1483
I9460964
aI9528524
aS'+'
asS'LOC101928443'
p1484
(lp1485
I70056229
aI70065371
aS'-'
asS'OR52J3'
p1486
(lp1487
I5046525
aI5047461
aS'+'
asS'CCDC88B'
p1488
(lp1489
I64340203
aI64357534
aS'+'
asS'MICAL2'
p1490
(lp1491
I12110575
aI12263790
aS'+'
asS'TP53AIP1'
p1492
(lp1493
I128934731
aI128943399
aS'-'
asS'COX8A'
p1494
(lp1495
I63974606
aI63976543
aS'+'
asS'PAFAH1B2'
p1496
(lp1497
I117144283
aI117178173
aS'+'
asS'PYGM'
p1498
(lp1499
I64746388
aI64760715
aS'-'
asS'MPEG1'
p1500
(lp1501
I59208509
aI59213021
aS'-'
asS'GSEC'
p1502
(lp1503
I126341715
aI126355587
aS'-'
asS'OR8B12'
p1504
(lp1505
I124542721
aI124543654
aS'-'
asS'CWC15'
p1506
(lp1507
I94962621
aI94973612
aS'-'
asS'CCDC89'
p1508
(lp1509
I85683843
aI85686277
aS'-'
asS'BRSK2'
p1510
(lp1511
I1389898
aI1462689
aS'+'
asS'CCDC83'
p1512
(lp1513
I85855100
aI85920020
aS'+'
asS'TSSC2'
p1514
(lp1515
I3380960
aI3409148
aS'+'
asS'CCDC81'
p1516
(lp1517
I86374735
aI86423109
aS'+'
asS'CCDC87'
p1518
(lp1519
I66590168
aI66593083
aS'-'
asS'CCDC86'
p1520
(lp1521
I60841955
aI60851088
aS'+'
asS'CCDC84'
p1522
(lp1523
I118998132
aI119015792
aS'+'
asS'LOC105376599'
p1524
(lp1525
I26285584
aI26288007
aS'-'
asS'CTR9'
p1526
(lp1527
I10750986
aI10779755
aS'+'
asS'BRMS1'
p1528
(lp1529
I66337332
aI66345111
aS'-'
asS'SCN3B'
p1530
(lp1531
I123629186
aI123654607
aS'-'
asS'OR5AS1'
p1532
(lp1533
I56030418
aI56031393
aS'+'
asS'ZNF215'
p1534
(lp1535
I6926360
aI6988830
aS'+'
asS'ZNF214'
p1536
(lp1537
I6997084
aI7020358
aS'-'
asS'LOC100132686'
p1538
(lp1539
I112260264
aI112261396
aS'+'
asS'PHF21A'
p1540
(lp1541
I45929318
aI46121434
aS'-'
asS'NOX4'
p1542
(lp1543
I89324353
aI89589611
aS'-'
asS'LOC101928069'
p1544
(lp1545
I66473489
aI66480249
aS'-'
asS'DKFZP434K028'
p1546
(lp1547
I61754028
aI61757664
aS'-'
asS'HEPHL1'
p1548
(lp1549
I94021211
aI94114208
aS'+'
asS'CDON'
p1550
(lp1551
I125956817
aI126063292
aS'-'
asS'BTBD10'
p1552
(lp1553
I13387995
aI13463297
aS'-'
asS'SLC5A12'
p1554
(lp1555
I26667020
aI26722060
aS'-'
asS'LOC101928847'
p1556
(lp1557
I112959279
aI112963460
aS'-'
asS'SNORD147'
p1558
(lp1559
I16925937
aI16926022
aS'-'
asS'LOC646813'
p1560
(lp1561
I50409146
aI50420631
aS'+'
asS'NXF1'
p1562
(lp1563
I62792125
aI62805492
aS'-'
asS'FAM118B'
p1564
(lp1565
I126211723
aI126262987
aS'+'
asS'SART1'
p1566
(lp1567
I65961688
aI65980136
aS'+'
asS'FGF4'
p1568
(lp1569
I69771015
aI69775403
aS'-'
asS'FGF3'
p1570
(lp1571
I69809967
aI69819221
aS'-'
asS'SLC25A45'
p1572
(lp1573
I65375191
aI65383701
aS'-'
asS'LOC101929427'
p1574
(lp1575
I126652777
aI126682103
aS'+'
asS'SRPRA'
p1576
(lp1577
I126262918
aI126268982
aS'-'
asS'MIR5579'
p1578
(lp1579
I79422168
aI79422226
aS'-'
asS'PDZD3'
p1580
(lp1581
I119185456
aI119190223
aS'+'
asS'IPO7'
p1582
(lp1583
I9384621
aI9448127
aS'+'
asS'BEST1'
p1584
(lp1585
I61949820
aI61964463
aS'+'
asS'OR52Z1'
p1586
(lp1587
I5177620
aI5178711
aS'-'
asS'CD82'
p1588
(lp1589
I44565590
aI44619765
aS'+'
asS'LOC100133315'
p1590
(lp1591
I71865508
aI71928447
aS'-'
asS'CWF19L2'
p1592
(lp1593
I107326345
aI107457846
aS'-'
asS'LINC01616'
p1594
(lp1595
I29980120
aI29982393
aS'-'
asS'SPA17'
p1596
(lp1597
I124673843
aI124694791
aS'+'
asS'SYVN1'
p1598
(lp1599
I65127278
aI65134532
aS'-'
asS'DUSP8'
p1600
(lp1601
I1554050
aI1571920
aS'-'
asS'BCO2'
p1602
(lp1603
I112175484
aI112218926
aS'+'
asS'LOC440040'
p1604
(lp1605
I49558527
aI49810417
aS'+'
asS'OR51E1'
p1606
(lp1607
I4643925
aI4655486
aS'+'
asS'OR51E2'
p1608
(lp1609
I4680170
aI4697846
aS'-'
asS'FERMT3'
p1610
(lp1611
I64206679
aI64223891
aS'+'
asS'FADS1'
p1612
(lp1613
I61799624
aI61817003
aS'-'
asS'FADS3'
p1614
(lp1615
I61873522
aI61891545
aS'-'
asS'FADS2'
p1616
(lp1617
I61816202
aI61867354
aS'+'
asS'COLCA1'
p1618
(lp1619
I111293388
aI111305048
aS'-'
asS'COLCA2'
p1620
(lp1621
I111298545
aI111308735
aS'+'
asS'CLP1'
p1622
(lp1623
I57657743
aI57661865
aS'+'
asS'PRR5L'
p1624
(lp1625
I36296287
aI36465204
aS'+'
asS'PITPNM1'
p1626
(lp1627
I67491767
aI67505372
aS'-'
asS'OR56B4'
p1628
(lp1629
I6107683
aI6108835
aS'+'
asS'OR10A3'
p1630
(lp1631
I7938575
aI7939520
aS'-'
asS'OR10A2'
p1632
(lp1633
I6869754
aI6870666
aS'+'
asS'OR10A5'
p1634
(lp1635
I6845682
aI6846636
aS'+'
asS'OR10A4'
p1636
(lp1637
I6876624
aI6877619
aS'+'
asS'NUMA1'
p1638
(lp1639
I72002863
aI72080693
aS'-'
asS'MIR670'
p1640
(lp1641
I43559655
aI43559753
aS'+'
asS'MIR675'
p1642
(lp1643
I1996758
aI1996831
aS'-'
asS'TOLLIP-AS1'
p1644
(lp1645
I1309707
aI1310707
aS'+'
asS'C1QTNF5'
p1646
(lp1647
I119338933
aI119346673
aS'-'
asS'CARNS1'
p1648
(lp1649
I67415677
aI67425607
aS'+'
asS'DGKZ'
p1650
(lp1651
I46332904
aI46380554
aS'+'
asS'SNORA3B'
p1652
(lp1653
I8685438
aI8685569
aS'+'
asS'SNORA3A'
p1654
(lp1655
I8684226
aI8684356
aS'+'
asS'ATP5MG'
p1656
(lp1657
I118401388
aI118409847
aS'+'
asS'PANO1'
p1658
(lp1659
I797510
aI799185
aS'+'
asS'SNORA32'
p1660
(lp1661
I93730978
aI93731099
aS'-'
asS'MIR302E'
p1662
(lp1663
I7234765
aI7234837
aS'+'
asS'PACS1'
p1664
(lp1665
I66070352
aI66244747
aS'+'
asS'LOC102724784'
p1666
(lp1667
I8768777
aI8810276
aS'+'
asS'RNF169'
p1668
(lp1669
I74748867
aI74842413
aS'+'
asS'TMEM25'
p1670
(lp1671
I118531087
aI118546598
aS'+'
asS'PDE2A'
p1672
(lp1673
I72576139
aI72674453
aS'-'
asS'OR8G2P'
p1674
(lp1675
I124224638
aI124225663
aS'+'
asS'ZBTB44'
p1676
(lp1677
I130226678
aI130314712
aS'-'
asS'IFITM10'
p1678
(lp1679
I1732409
aI1750594
aS'-'
asS'ZDHHC13'
p1680
(lp1681
I19117144
aI19176420
aS'+'
asS'RIC3'
p1682
(lp1683
I8092964
aI8169094
aS'-'
asS'HIPK3'
p1684
(lp1685
I33256671
aI33357022
aS'+'
asS'P4HA3'
p1686
(lp1687
I74266648
aI74311676
aS'-'
asS'CBLIF'
p1688
(lp1689
I59829272
aI59845501
aS'-'
asS'LOC105369438'
p1690
(lp1691
I94545331
aI94740355
aS'-'
asS'THY1'
p1692
(lp1693
I119417940
aI119424985
aS'-'
asS'SCN4B'
p1694
(lp1695
I118133376
aI118152915
aS'-'
asS'ARHGEF12'
p1696
(lp1697
I120336412
aI120489937
aS'+'
asS'ARHGEF17'
p1698
(lp1699
I73308617
aI73369380
aS'+'
asS'MIR4697HG'
p1700
(lp1701
I133896434
aI133901740
aS'-'
asS'CD81-AS1'
p1702
(lp1703
I2328748
aI2377992
aS'-'
asS'PIK3C2A'
p1704
(lp1705
I17086575
aI17207996
aS'-'
asS'NEAT1'
p1706
(lp1707
I65422797
aI65445538
aS'+'
asS'MS4A4A'
p1708
(lp1709
I60280540
aI60308972
aS'+'
asS'MS4A4E'
p1710
(lp1711
I60201252
aI60243088
aS'-'
asS'OR52K1'
p1712
(lp1713
I4488878
aI4489908
aS'+'
asS'OR52K2'
p1714
(lp1715
I4449294
aI4450361
aS'+'
asS'ANGPTL5'
p1716
(lp1717
I101890673
aI101916522
aS'-'
asS'OR7E5P'
p1718
(lp1719
I55978702
aI55986405
aS'-'
asS'LOC105369423'
p1720
(lp1721
I87718353
aI87719411
aS'-'
asS'RASGRP2'
p1722
(lp1723
I64726910
aI64745456
aS'-'
asS'LGR4'
p1724
(lp1725
I27365960
aI27472775
aS'-'
asS'ZNF195'
p1726
(lp1727
I3357926
aI3379222
aS'-'
asS'MMP10'
p1728
(lp1729
I102770501
aI102780628
aS'-'
asS'MMP12'
p1730
(lp1731
I102862728
aI102875034
aS'-'
asS'MMP13'
p1732
(lp1733
I102942991
aI102955734
aS'-'
asS'CDKN1C'
p1734
(lp1735
I2883217
aI2885765
aS'-'
asS'SNORD67'
p1736
(lp1737
I46762388
aI46762499
aS'-'
asS'PRG3'
p1738
(lp1739
I57376768
aI57381150
aS'-'
asS'PRG2'
p1740
(lp1741
I57386786
aI57390657
aS'-'
asS'SMIM35'
p1742
(lp1743
I118013747
aI118086793
aS'-'
asS'TRPT1'
p1744
(lp1745
I64223798
aI64226254
aS'-'
asS'OR5AR1'
p1746
(lp1747
I56663685
aI56664618
aS'+'
asS'TECTA'
p1748
(lp1749
I121102665
aI121190806
aS'+'
asS'TMEM123'
p1750
(lp1751
I102396333
aI102452765
aS'-'
asS'KCNQ1'
p1752
(lp1753
I2444990
aI2849110
aS'+'
asS'COMMD9'
p1754
(lp1755
I36272291
aI36289449
aS'-'
asS'VEGFB'
p1756
(lp1757
I64234583
aI64239264
aS'+'
asS'SENCR'
p1758
(lp1759
I128691671
aI128696023
aS'-'
asS'CABP4'
p1760
(lp1761
I67452414
aI67461774
aS'+'
asS'TCN1'
p1762
(lp1763
I59852807
aI59866568
aS'-'
asS'CABP2'
p1764
(lp1765
I67518946
aI67523428
aS'-'
asS'LOC101928894'
p1766
(lp1767
I46171954
aI46177105
aS'+'
asS'MIR4301'
p1768
(lp1769
I113450022
aI113450088
aS'-'
asS'LOC101928896'
p1770
(lp1771
I78533175
aI78558565
aS'+'
asS'HMBS'
p1772
(lp1773
I119084876
aI119093549
aS'+'
asS'SPI1'
p1774
(lp1775
I47354857
aI47378576
aS'-'
asS'LOC100507144'
p1776
(lp1777
I35132649
aI35138032
aS'-'
asS'TESMIN'
p1778
(lp1779
I68707439
aI68751520
aS'-'
asS'ROM1'
p1780
(lp1781
I62612740
aI62615121
aS'+'
asS'AIP'
p1782
(lp1783
I67483028
aI67491108
aS'+'
asS'TNKS1BP1'
p1784
(lp1785
I57299628
aI57324939
aS'-'
asS'GUCY2EP'
p1786
(lp1787
I76680165
aI76721789
aS'-'
asS'LRP4-AS1'
p1788
(lp1789
I46846410
aI46874416
aS'+'
asS'MIR4491'
p1790
(lp1791
I111347756
aI111347822
aS'+'
asS'BANF1'
p1792
(lp1793
I66002078
aI66004146
aS'+'
asS'LINC02551'
p1794
(lp1795
I130844192
aI130862110
aS'-'
asS'LINC02550'
p1796
(lp1797
I111091931
aI111097318
aS'-'
asS'LINC02552'
p1798
(lp1799
I104568488
aI104609302
aS'-'
asS'ZBED5-AS1'
p1800
(lp1801
I10858216
aI10879276
aS'+'
asS'B4GALNT4'
p1802
(lp1803
I369794
aI382117
aS'+'
asS'RBM4'
p1804
(lp1805
I66638616
aI66668386
aS'+'
asS'SPCS2'
p1806
(lp1807
I74949265
aI74979033
aS'+'
asS'OR51D1'
p1808
(lp1809
I4639714
aI4640838
aS'+'
asS'CAT'
p1810
(lp1811
I34438924
aI34472060
aS'+'
asS'MIR3654'
p1812
(lp1813
I62560162
aI62560306
aS'-'
asS'WT1-AS'
p1814
(lp1815
I32435517
aI32458769
aS'+'
asS'OR5W2'
p1816
(lp1817
I55913649
aI55914582
aS'-'
asS'ACER3'
p1818
(lp1819
I76860872
aI77026797
aS'+'
asS'SPTBN2'
p1820
(lp1821
I66682495
aI66721399
aS'-'
asS'PGR'
p1822
(lp1823
I101029623
aI101129813
aS'-'
asS'CXCR5'
p1824
(lp1825
I118883765
aI118896271
aS'+'
asS'FOLH1'
p1826
(lp1827
I49145093
aI49208670
aS'-'
asS'NDUFC2'
p1828
(lp1829
I78068346
aI78080219
aS'-'
asS'COA4'
p1830
(lp1831
I73872667
aI73876845
aS'-'
asS'BDNF-AS'
p1832
(lp1833
I27506851
aI27698171
aS'+'
asS'TMEM218'
p1834
(lp1835
I125094370
aI125111763
aS'-'
asS'E2F8'
p1836
(lp1837
I19224062
aI19241655
aS'-'
asS'FUT4'
p1838
(lp1839
I94543850
aI94549898
aS'+'
asS'LOC102724265'
p1840
(lp1841
I69425670
aI69429621
aS'+'
asS'LOC100996455'
p1842
(lp1843
I64449056
aI64451656
aS'+'
asS'SNORA23'
p1844
(lp1845
I9428765
aI9428954
aS'+'
asS'FAM99A'
p1846
(lp1847
I1665598
aI1667856
aS'+'
asS'FAM99B'
p1848
(lp1849
I1683269
aI1685629
aS'-'
asS'PCSK7'
p1850
(lp1851
I117205070
aI117232525
aS'-'
asS'HYLS1'
p1852
(lp1853
I125883613
aI125900646
aS'+'
asS'SF1'
p1854
(lp1855
I64764603
aI64778844
aS'-'
asS'LOC100128239'
p1856
(lp1857
I134032271
aI134041341
aS'+'
asS'USP28'
p1858
(lp1859
I113797874
aI113875570
aS'-'
asS'AKIP1'
p1860
(lp1861
I8911153
aI8920079
aS'+'
asS'OR51J1'
p1862
(lp1863
I5402396
aI5403771
aS'+'
asS'LOC283177'
p1864
(lp1865
I134436481
aI134505661
aS'+'
asS'NDUFC2-KCTD14'
p1866
(lp1867
I78015714
aI78080219
aS'-'
asS'ADAMTS8'
p1868
(lp1869
I130404922
aI130428993
aS'-'
asS'IFITM3'
p1870
(lp1871
I319672
aI320914
aS'-'
asS'IFITM2'
p1872
(lp1873
I308106
aI309410
aS'+'
asS'IFITM1'
p1874
(lp1875
I313990
aI315272
aS'+'
asS'IFITM5'
p1876
(lp1877
I298200
aI299526
aS'-'
asS'CLCF1'
p1878
(lp1879
I67364167
aI67374177
aS'-'
asS'OVOL1-AS1'
p1880
(lp1881
I65789000
aI65790868
aS'-'
asS'SSH3'
p1882
(lp1883
I67303447
aI67312607
aS'+'
asS'OR4A47'
p1884
(lp1885
I48488792
aI48489722
aS'+'
asS'LOC341056'
p1886
(lp1887
I123017565
aI123019611
aS'+'
asS'PLEKHA7'
p1888
(lp1889
I16777296
aI17014416
aS'-'
asS'MRPL49'
p1890
(lp1891
I65122182
aI65127369
aS'+'
asS'MRPL48'
p1892
(lp1893
I73787871
aI73864611
aS'+'
asS'STARD10'
p1894
(lp1895
I72754728
aI72793705
aS'-'
asS'LOC441601'
p1896
(lp1897
I50279827
aI50298462
aS'-'
asS'KMT2A'
p1898
(lp1899
I118436489
aI118526824
aS'+'
asS'LOC100507205'
p1900
(lp1901
I42187742
aI42253690
aS'-'
asS'LRRN4CL'
p1902
(lp1903
I62686401
aI62689899
aS'-'
asS'LOC692247'
p1904
(lp1905
I559261
aI560106
aS'+'
asS'ARFGAP2'
p1906
(lp1907
I47164297
aI47177125
aS'-'
asS'OR52H1'
p1908
(lp1909
I5544560
aI5545523
aS'-'
asS'CNTN5'
p1910
(lp1911
I99020975
aI100358885
aS'+'
asS'UNC93B1'
p1912
(lp1913
I67991099
aI68004125
aS'-'
asS'HSPB2'
p1914
(lp1915
I111912735
aI111914093
aS'+'
asS'LAYN'
p1916
(lp1917
I111540279
aI111561745
aS'+'
asS'MIR130A'
p1918
(lp1919
I57641197
aI57641286
aS'+'
asS'CDC42BPG'
p1920
(lp1921
I64823051
aI64844653
aS'-'
asS'LOC105369431'
p1922
(lp1923
I92913238
aI92915628
aS'-'
asS'CNGA4'
p1924
(lp1925
I6239091
aI6244477
aS'+'
asS'MIR1304'
p1926
(lp1927
I93733673
aI93733764
aS'-'
asS'DYNC2H1'
p1928
(lp1929
I103109425
aI103479863
aS'+'
asS'CSRP3'
p1930
(lp1931
I19182029
aI19210571
aS'-'
asS'PLA2G16'
p1932
(lp1933
I63574470
aI63614469
aS'-'
asS'C11orf45'
p1934
(lp1935
I128899564
aI128906231
aS'-'
asS'SNORA8'
p1936
(lp1937
I93732360
aI93732499
aS'-'
asS'ZPR1'
p1938
(lp1939
I116773800
aI116788023
aS'-'
asS'MYBPC3'
p1940
(lp1941
I47331405
aI47352702
aS'-'
asS'SNORA1'
p1942
(lp1943
I93732003
aI93732133
aS'-'
asS'LOC143666'
p1944
(lp1945
I573807
aI575885
aS'-'
asS'TMEM136'
p1946
(lp1947
I120325128
aI120333679
aS'+'
asS'TMEM134'
p1948
(lp1949
I67464347
aI67469277
aS'-'
asS'TMEM135'
p1950
(lp1951
I87037843
aI87328834
aS'+'
asS'TMEM138'
p1952
(lp1953
I61362000
aI61369503
aS'+'
asS'TRPC2'
p1954
(lp1955
I3626459
aI3637559
aS'+'
asS'TRPC6'
p1956
(lp1957
I101451563
aI101583928
aS'-'
asS'ALG1L9P'
p1958
(lp1959
I71794362
aI71813859
aS'-'
asS'RASSF10'
p1960
(lp1961
I13009422
aI13012106
aS'+'
asS'LOC101929227'
p1962
(lp1963
I120867932
aI120894797
aS'-'
asS'TBX10'
p1964
(lp1965
I67631302
aI67639560
aS'-'
asS'LOC101928865'
p1966
(lp1967
I78423982
aI78429836
aS'-'
asS'OR8K1'
p1968
(lp1969
I56346038
aI56346998
aS'+'
asS'OR8K3'
p1970
(lp1971
I56318306
aI56319245
aS'+'
asS'OR8K5'
p1972
(lp1973
I56159393
aI56160317
aS'-'
asS'CADM1'
p1974
(lp1975
I115173624
aI115504523
aS'-'
asS'KRTAP5-4'
p1976
(lp1977
I1620957
aI1622138
aS'-'
asS'KRTAP5-5'
p1978
(lp1979
I1629802
aI1630929
aS'+'
asS'KRTAP5-6'
p1980
(lp1981
I1697194
aI1697755
aS'+'
asS'KRTAP5-7'
p1982
(lp1983
I71527266
aI71528164
aS'+'
asS'KRTAP5-1'
p1984
(lp1985
I1584341
aI1585283
aS'-'
asS'KRTAP5-2'
p1986
(lp1987
I1597176
aI1598294
aS'-'
asS'KRTAP5-3'
p1988
(lp1989
I1607564
aI1608463
aS'-'
asS'AMBRA1'
p1990
(lp1991
I46396411
aI46594069
aS'-'
asS'MRGPRX2'
p1992
(lp1993
I19054455
aI19060681
aS'-'
asS'KRTAP5-8'
p1994
(lp1995
I71538024
aI71539207
aS'+'
asS'KRTAP5-9'
p1996
(lp1997
I71548419
aI71549607
aS'+'
asS'LOC644656'
p1998
(lp1999
I9459555
aI9460698
aS'-'
asS'SNORD164'
p2000
(lp2001
I35162949
aI35163010
aS'+'
asS'C11orf88'
p2002
(lp2003
I111514784
aI111537031
aS'+'
asS'ZW10'
p2004
(lp2005
I113733182
aI113773763
aS'-'
asS'C11orf87'
p2006
(lp2007
I109422119
aI109429167
aS'+'
asS'C11orf80'
p2008
(lp2009
I66744735
aI66843516
aS'+'
asS'OR6X1'
p2010
(lp2011
I123753579
aI123754518
aS'-'
asS'STX3'
p2012
(lp2013
I59755058
aI59805882
aS'+'
asS'STX5'
p2014
(lp2015
I62806859
aI62832091
aS'-'
asS'GDPD4'
p2016
(lp2017
I77216557
aI77301666
aS'-'
asS'GDPD5'
p2018
(lp2019
I75434639
aI75525573
aS'-'
asS'LINC02098'
p2020
(lp2021
I128208765
aI128241441
aS'+'
asS'SLC35C1'
p2022
(lp2023
I45804071
aI45813016
aS'+'
asS'POLA2'
p2024
(lp2025
I65261851
aI65298685
aS'+'
asS'TBCEL'
p2026
(lp2027
I121024071
aI121090776
aS'+'
asS'LOC100287837'
p2028
(lp2029
I73307510
aI73309361
aS'-'
asS'PUS3'
p2030
(lp2031
I125893484
aI125903221
aS'-'
asS'IRF7'
p2032
(lp2033
I612550
aI615950
aS'-'
asS'IL18BP'
p2034
(lp2035
I71998911
aI72002804
aS'+'
asS'ARHGAP42'
p2036
(lp2037
I100687239
aI100993945
aS'+'
asS'SCGB1D1'
p2038
(lp2039
I62190237
aI62193537
aS'+'
asS'NAA40'
p2040
(lp2041
I63938969
aI63957319
aS'+'
asS'SCGB1D2'
p2042
(lp2043
I62242251
aI62244808
aS'+'
asS'SCGB1D4'
p2044
(lp2045
I62296281
aI62299064
aS'-'
asS'OR5F1'
p2046
(lp2047
I55993680
aI55994625
aS'-'
asS'ALX4'
p2048
(lp2049
I44260439
aI44310139
aS'-'
asS'LINC02546'
p2050
(lp2051
I29594412
aI29630674
aS'+'
asS'LINC02547'
p2052
(lp2053
I12030874
aI12061785
aS'+'
asS'ETS1'
p2054
(lp2055
I128458760
aI128587558
aS'-'
asS'USP2-AS1'
p2056
(lp2057
I119381777
aI119499233
aS'+'
asS'AQP11'
p2058
(lp2059
I77589634
aI77610356
aS'+'
asS'LINC02548'
p2060
(lp2061
I13784385
aI13848002
aS'+'
asS'ZBTB3'
p2062
(lp2063
I62750962
aI62754184
aS'-'
asS'CARD18'
p2064
(lp2065
I105137720
aI105139734
aS'-'
asS'CDC42EP2'
p2066
(lp2067
I65314817
aI65322429
aS'+'
asS'CHRM4'
p2068
(lp2069
I46383790
aI46391668
aS'-'
asS'CARD17'
p2070
(lp2071
I105092468
aI105101431
aS'-'
asS'CARD16'
p2072
(lp2073
I105041325
aI105045324
aS'-'
asS'CHRM1'
p2074
(lp2075
I62908678
aI62921540
aS'-'
asS'LOC100507548'
p2076
(lp2077
I134985351
aI134986799
aS'+'
asS'HRASLS5'
p2078
(lp2079
I63461403
aI63491208
aS'-'
asS'HRASLS2'
p2080
(lp2081
I63552769
aI63563379
aS'-'
asS'LOC102724301'
p2082
(lp2083
I119729582
aI119739623
aS'+'
asS'FEZ1'
p2084
(lp2085
I125445744
aI125496310
aS'-'
asS'LINC00167'
p2086
(lp2087
I130002623
aI130005486
aS'+'
asS'FIBP'
p2088
(lp2089
I65883739
aI65888539
aS'-'
asS'CSTF3'
p2090
(lp2091
I33084583
aI33161491
aS'-'
asS'MMP8'
p2092
(lp2093
I102711794
aI102724954
aS'-'
asS'MMP7'
p2094
(lp2095
I102520507
aI102530753
aS'-'
asS'MMP3'
p2096
(lp2097
I102835796
aI102843689
aS'-'
asS'MMP1'
p2098
(lp2099
I102789909
aI102798235
aS'-'
asS'PAUPAR'
p2100
(lp2101
I31826566
aI31829303
aS'+'
asS'SLC6A5'
p2102
(lp2103
I20599399
aI20655064
aS'+'
asS'NCR3LG1'
p2104
(lp2105
I17351761
aI17377321
aS'+'
asS'FAM160A2'
p2106
(lp2107
I6211333
aI6234711
aS'-'
asS'CAPRIN1'
p2108
(lp2109
I34051682
aI34102610
aS'+'
asS'C11orf86'
p2110
(lp2111
I66975276
aI66977001
aS'+'
asS'NAALADL1'
p2112
(lp2113
I65044822
aI65058537
aS'-'
asS'CREBZF'
p2114
(lp2115
I85657563
aI85665138
aS'-'
asS'DISC1FP1'
p2116
(lp2117
I90251231
aI90915052
aS'+'
asS'P4HA3-AS1'
p2118
(lp2119
I74311361
aI74324705
aS'+'
asS'SNORA18'
p2120
(lp2121
I93733465
aI93733597
aS'-'
asS'ANKRD42'
p2122
(lp2123
I83193738
aI83256099
aS'+'
asS'ANKRD49'
p2124
(lp2125
I94493986
aI94499578
aS'+'
asS'MIR125B1'
p2126
(lp2127
I122099756
aI122099844
aS'-'
asS'OR10S1'
p2128
(lp2129
I123976695
aI123977691
aS'-'
asS'SCARNA9'
p2130
(lp2131
I93721513
aI93721866
aS'+'
asS'USP35'
p2132
(lp2133
I78188811
aI78215232
aS'+'
asS'OR51I1'
p2134
(lp2135
I5440541
aI5441553
aS'-'
asS'OR51I2'
p2136
(lp2137
I5453407
aI5454477
aS'+'
asS'PPFIBP2'
p2138
(lp2139
I7513764
aI7653765
aS'+'
asS'RPL23AP64'
p2140
(lp2141
I119002960
aI119003593
aS'-'
asS'SNHG1'
p2142
(lp2143
I62851977
aI62855885
aS'-'
asS'PRPF19'
p2144
(lp2145
I60890547
aI60906589
aS'-'
asS'DDI1'
p2146
(lp2147
I104036579
aI104039194
aS'+'
asS'RRP8'
p2148
(lp2149
I6595071
aI6603616
aS'-'
asS'HRAS'
p2150
(lp2151
I532241
aI535567
aS'-'
asS'GRIA4'
p2152
(lp2153
I105610072
aI105982092
aS'+'
asS'SAAL1'
p2154
(lp2155
I18080342
aI18106091
aS'-'
asS'APLP2'
p2156
(lp2157
I130069820
aI130144811
aS'+'
asS'EMSY'
p2158
(lp2159
I76445024
aI76552899
aS'+'
asS'SYT12'
p2160
(lp2161
I67022718
aI67050863
aS'+'
asS'SYT13'
p2162
(lp2163
I45240301
aI45286333
aS'-'
asS'MIR1261'
p2164
(lp2165
I90869120
aI90869202
aS'-'
asS'LOC105376633'
p2166
(lp2167
I37938600
aI37954663
aS'+'
asS'PLCB3'
p2168
(lp2169
I64251522
aI64269452
aS'+'
asS'OR52I2'
p2170
(lp2171
I4586790
aI4587905
aS'+'
asS'OR52I1'
p2172
(lp2173
I4594038
aI4595013
aS'+'
asS'SCUBE2'
p2174
(lp2175
I9019499
aI9091607
aS'-'
asS'TOLLIP'
p2176
(lp2177
I1274367
aI1309662
aS'-'
asS'LOC105369391'
p2178
(lp2179
I75583195
aI75594665
aS'+'
asS'AAMDC'
p2180
(lp2181
I77821113
aI77900785
aS'+'
asS'LOC221122'
p2182
(lp2183
I44973901
aI44978027
aS'+'
asS'MIR326'
p2184
(lp2185
I75335091
aI75335186
aS'-'
asS'LAMTOR1'
p2186
(lp2187
I72097291
aI72103387
aS'-'
asS'PPP2R5B'
p2188
(lp2189
I64924670
aI64934478
aS'+'
asS'OR52W1'
p2190
(lp2191
I6199223
aI6200186
aS'+'
asS'FBXO3'
p2192
(lp2193
I33740943
aI33774525
aS'-'
asS'CTNND1'
p2194
(lp2195
I57761761
aI57819180
aS'+'
asS'KCNA4'
p2196
(lp2197
I30009730
aI30017030
aS'-'
asS'OR5AP2'
p2198
(lp2199
I56641488
aI56642439
aS'-'
asS'FTH1'
p2200
(lp2201
I61964284
aI61967660
aS'-'
asS'QSER1'
p2202
(lp2203
I32893177
aI32980268
aS'+'
asS'CCDC34'
p2204
(lp2205
I27338513
aI27363248
aS'-'
asS'HBBP1'
p2206
(lp2207
I5241954
aI5243592
aS'-'
asS'ATL3'
p2208
(lp2209
I63624081
aI63671974
aS'-'
asS'RARRES3'
p2210
(lp2211
I63536800
aI63546458
aS'+'
asS'HNRNPUL2-BSCL2'
p2212
(lp2213
I62690261
aI62727384
aS'-'
asS'DNAJC4'
p2214
(lp2215
I64230280
aI64234281
aS'+'
asS'ZNF408'
p2216
(lp2217
I46700766
aI46705916
aS'+'
asS'OR8J3'
p2218
(lp2219
I56136770
aI56137718
aS'-'
asS'OR8J1'
p2220
(lp2221
I56360214
aI56361288
aS'+'
asS'CCDC85B'
p2222
(lp2223
I65890403
aI65891635
aS'+'
asS'SNORD153'
p2224
(lp2225
I134151287
aI134151363
aS'-'
asS'SNORD150'
p2226
(lp2227
I119190566
aI119190641
aS'-'
asS'CORO1B'
p2228
(lp2229
I67438046
aI67443821
aS'-'
asS'C11orf98'
p2230
(lp2231
I62662816
aI62665216
aS'-'
asS'C11orf97'
p2232
(lp2233
I94512528
aI94532123
aS'+'
asS'C11orf96'
p2234
(lp2235
I43942555
aI43943883
aS'+'
asS'C11orf95'
p2236
(lp2237
I63759891
aI63768641
aS'-'
asS'C11orf94'
p2238
(lp2239
I45906534
aI45907282
aS'-'
asS'C11orf91'
p2240
(lp2241
I33698107
aI33700740
aS'-'
asS'DCPS'
p2242
(lp2243
I126303751
aI126350005
aS'+'
asS'CHORDC1'
p2244
(lp2245
I90200429
aI90223364
aS'-'
asS'NPAS4'
p2246
(lp2247
I66421003
aI66426706
aS'+'
asS'UVRAG'
p2248
(lp2249
I75815166
aI76144238
aS'+'
asS'FAU'
p2250
(lp2251
I65120629
aI65122134
aS'-'
asS'ZNHIT2'
p2252
(lp2253
I65116402
aI65117738
aS'-'
asS'MRGPRD'
p2254
(lp2255
I68980020
aI68980986
aS'-'
asS'MRGPRE'
p2256
(lp2257
I3227652
aI3232386
aS'-'
asS'MRGPRF'
p2258
(lp2259
I69004393
aI69013382
aS'-'
asS'MRGPRG'
p2260
(lp2261
I3217943
aI3218813
aS'-'
asS'PPP6R3'
p2262
(lp2263
I68460717
aI68615333
aS'+'
asS'CASP4'
p2264
(lp2265
I104942866
aI104968598
aS'-'
asS'CASP5'
p2266
(lp2267
I104994234
aI105023168
aS'-'
asS'CASP1'
p2268
(lp2269
I105025509
aI105035157
aS'-'
asS'MIR670HG'
p2270
(lp2271
I43569305
aI43570400
aS'+'
asS'DRD4'
p2272
(lp2273
I637304
aI640705
aS'+'
asS'DRD2'
p2274
(lp2275
I113409594
aI113475279
aS'-'
asS'LOC101929340'
p2276
(lp2277
I124759133
aI124765920
aS'+'
asS'SNORD15B'
p2278
(lp2279
I75404420
aI75404566
aS'+'
asS'SNORD15A'
p2280
(lp2281
I75400390
aI75400538
aS'+'
asS'PICALM'
p2282
(lp2283
I85957170
aI86069881
aS'-'
asS'OAF'
p2284
(lp2285
I120210974
aI120230332
aS'+'
asS'BLID'
p2286
(lp2287
I122115353
aI122116215
aS'-'
asS'OR5I1'
p2288
(lp2289
I55935455
aI55936400
aS'-'
asS'CCS'
p2290
(lp2291
I66593218
aI66606019
aS'+'
asS'LINC01395'
p2292
(lp2293
I129612120
aI129617269
aS'-'
asS'PIH1D2'
p2294
(lp2295
I112064009
aI112074171
aS'-'
asS'CLMP'
p2296
(lp2297
I123072005
aI123195305
aS'-'
asS'LRFN4'
p2298
(lp2299
I66857086
aI66860475
aS'+'
asS'TTC9C'
p2300
(lp2301
I62728072
aI62738636
aS'+'
asS'ZP1'
p2302
(lp2303
I60867541
aI60875691
aS'+'
asS'GRK2'
p2304
(lp2305
I67266472
aI67286556
aS'+'
asS'OR6M1'
p2306
(lp2307
I123805407
aI123806349
aS'-'
asS'CAPN5'
p2308
(lp2309
I77066944
aI77126152
aS'+'
asS'LINC02545'
p2310
(lp2311
I13844862
aI13870616
aS'-'
asS'CAPN1'
p2312
(lp2313
I65181214
aI65212006
aS'+'
asS'LOC101927503'
p2314
(lp2315
I1049777
aI1055764
aS'+'
asS'POU2F3'
p2316
(lp2317
I120236639
aI120319944
aS'+'
asS'FLI1'
p2318
(lp2319
I128686534
aI128813267
aS'+'
asS'P2RX3'
p2320
(lp2321
I57338351
aI57372399
aS'+'
asS'IGHMBP2'
p2322
(lp2323
I68903850
aI68940601
aS'+'
asS'TIMM10B'
p2324
(lp2325
I6481446
aI6484681
aS'+'
asS'ANKK1'
p2326
(lp2327
I113387790
aI113400418
aS'+'
asS'OR9Q2'
p2328
(lp2329
I58190433
aI58191518
aS'+'
asS'FAM76B'
p2330
(lp2331
I95768941
aI95789791
aS'-'
asS'OR9Q1'
p2332
(lp2333
I58023880
aI58181566
aS'+'
asS'CCDC82'
p2334
(lp2335
I96352764
aI96389919
aS'-'
asS'LINC01001'
p2336
(lp2337
I127133
aI139117
aS'-'
asS'ROBO3'
p2338
(lp2339
I124865408
aI124881474
aS'+'
asS'PATE4'
p2340
(lp2341
I125833315
aI125840072
aS'+'
asS'PATE1'
p2342
(lp2343
I125746292
aI125749848
aS'+'
asS'PATE3'
p2344
(lp2345
I125788110
aI125791600
aS'+'
asS'PATE2'
p2346
(lp2347
I125776130
aI125778819
aS'-'
asS'H2AFX'
p2348
(lp2349
I119093874
aI119095467
aS'-'
asS'ROBO4'
p2350
(lp2351
I124884217
aI124897935
aS'-'
asS'ST14'
p2352
(lp2353
I130159781
aI130210362
aS'+'
asS'KBTBD4'
p2354
(lp2355
I47572196
aI47579015
aS'-'
asS'KBTBD3'
p2356
(lp2357
I106051097
aI106077738
aS'-'
asS'DDX6'
p2358
(lp2359
I118747763
aI118791164
aS'-'
asS'OR51H1'
p2360
(lp2361
I4859518
aI4860663
aS'-'
asS'GUCY1A2'
p2362
(lp2363
I106674011
aI107018445
aS'-'
asS'TRIM64B'
p2364
(lp2365
I89870586
aI89876017
aS'-'
asS'TMEM9B'
p2366
(lp2367
I8947200
aI8965011
aS'-'
asS'DCHS1'
p2368
(lp2369
I6621323
aI6655849
aS'-'
asS'KLHL35'
p2370
(lp2371
I75422393
aI75430629
aS'-'
asS'SPATA19'
p2372
(lp2373
I133840621
aI133845538
aS'-'
asS'EFEMP2'
p2374
(lp2375
I65866440
aI65872934
aS'-'
asS'TRIM48'
p2376
(lp2377
I55262181
aI55271119
aS'+'
asS'TRIM49'
p2378
(lp2379
I89797654
aI89808575
aS'-'
asS'MTNR1B'
p2380
(lp2381
I92969622
aI92982782
aS'+'
asS'LOC102723330'
p2382
(lp2383
I17695266
aI17696939
aS'-'
asS'TRIM44'
p2384
(lp2385
I35662751
aI35811053
aS'+'
asS'BSCL2'
p2386
(lp2387
I62690261
aI62709619
aS'-'
asS'TKFC'
p2388
(lp2389
I61333181
aI61353426
aS'+'
asS'ESAM'
p2390
(lp2391
I124753122
aI124762327
aS'-'
asS'MIR139'
p2392
(lp2393
I72615062
aI72615130
aS'-'
asS'MIR6751'
p2394
(lp2395
I65129915
aI65129978
aS'-'
asS'MIR6750'
p2396
(lp2397
I64898362
aI64898437
aS'-'
asS'MIR6753'
p2398
(lp2399
I68044793
aI68044957
aS'+'
asS'MIR6752'
p2400
(lp2401
I67490244
aI67490315
aS'+'
asS'MIR6755'
p2402
(lp2403
I86278332
aI86278398
aS'+'
asS'MIR6754'
p2404
(lp2405
I71473502
aI71473568
aS'+'
asS'FNBP4'
p2406
(lp2407
I47716493
aI47767478
aS'-'
asS'ME3'
p2408
(lp2409
I86441107
aI86672636
aS'-'
asS'TENM4'
p2410
(lp2411
I78653282
aI79440651
aS'-'
asS'MPZL2'
p2412
(lp2413
I118253415
aI118264536
aS'-'
asS'MPZL3'
p2414
(lp2415
I118226689
aI118252368
aS'-'
asS'OR4S1'
p2416
(lp2417
I48306222
aI48307152
aS'+'
asS'OR4S2'
p2418
(lp2419
I55650903
aI55651839
aS'+'
asS'FGF19'
p2420
(lp2421
I69698237
aI69704338
aS'-'
asS'DNHD1'
p2422
(lp2423
I6497295
aI6572024
aS'+'
asS'DAGLA'
p2424
(lp2425
I61680432
aI61747002
aS'+'
asS'SNORD97'
p2426
(lp2427
I10801466
aI10801608
aS'-'
asS'HNRNPUL2'
p2428
(lp2429
I62712624
aI62727385
aS'-'
asS'GLB1L2'
p2430
(lp2431
I134331873
aI134376324
aS'+'
asS'GLB1L3'
p2432
(lp2433
I134276380
aI134319564
aS'+'
asS'RIN1'
p2434
(lp2435
I66332070
aI66336774
aS'-'
asS'RNH1'
p2436
(lp2437
I494511
aI507283
aS'-'
asS'RPS13'
p2438
(lp2439
I17074391
aI17077673
aS'-'
asS'ARL2'
p2440
(lp2441
I65014112
aI65022185
aS'+'
asS'VPS11'
p2442
(lp2443
I119067751
aI119081978
aS'+'
asS'RRM1'
p2444
(lp2445
I4094684
aI4138925
aS'+'
asS'CSKMT'
p2446
(lp2447
I62665306
aI62667451
aS'+'
asS'LOC105369473'
p2448
(lp2449
I106112459
aI106132116
aS'-'
asS'ZC3H12C'
p2450
(lp2451
I110093360
aI110171841
aS'+'
asS'UBXN1'
p2452
(lp2453
I62676497
aI62679117
aS'-'
asS'UBASH3B'
p2454
(lp2455
I122655689
aI122814479
aS'+'
asS'OR8I2'
p2456
(lp2457
I56093307
aI56094240
aS'+'
asS'UBQLN3'
p2458
(lp2459
I5507299
aI5509985
aS'-'
asS'LOC101929208'
p2460
(lp2461
I120940554
aI120958039
aS'-'
asS'TH'
p2462
(lp2463
I2163928
aI2171805
aS'-'
asS'SNORD14E'
p2464
(lp2465
I123058076
aI123058156
aS'-'
asS'SNORD14D'
p2466
(lp2467
I123058908
aI123058995
aS'-'
asS'TSSC4'
p2468
(lp2469
I2400487
aI2403878
aS'+'
asS'KCTD21'
p2470
(lp2471
I78171243
aI78188629
aS'-'
asS'SNORD14A'
p2472
(lp2473
I17074652
aI17074744
aS'-'
asS'SNORD14C'
p2474
(lp2475
I123059334
aI123059422
aS'-'
asS'SNORD14B'
p2476
(lp2477
I17075777
aI17075868
aS'-'
asS'KCNJ11'
p2478
(lp2479
I17385248
aI17389331
aS'-'
asS'MIR6745'
p2480
(lp2481
I47179610
aI47179737
aS'-'
asS'MIR4688'
p2482
(lp2483
I46376401
aI46376484
aS'+'
asS'ZFPL1'
p2484
(lp2485
I65084221
aI65088402
aS'+'
asS'MIR4687'
p2486
(lp2487
I3856061
aI3856141
aS'+'
asS'MIR4686'
p2488
(lp2489
I2173062
aI2173138
aS'+'
asS'SSSCA1'
p2490
(lp2491
I65570458
aI65571888
aS'+'
asS'UBQLNL'
p2492
(lp2493
I5514392
aI5516726
aS'-'
asS'TMX2'
p2494
(lp2495
I57712522
aI57740973
aS'+'
asS'RTN4RL2'
p2496
(lp2497
I57460527
aI57477534
aS'+'
asS'ACTN3'
p2498
(lp2499
I66546394
aI66563329
aS'+'
asS'MAJIN'
p2500
(lp2501
I64938229
aI64972091
aS'-'
asS'FOLH1B'
p2502
(lp2503
I89659296
aI89698718
aS'+'
asS'C1QTNF4'
p2504
(lp2505
I47589663
aI47594409
aS'-'
asS'OR56B1'
p2506
(lp2507
I5736447
aI5737538
aS'+'
asS'CREB3L1'
p2508
(lp2509
I46277637
aI46321422
aS'+'
asS'GLYAT'
p2510
(lp2511
I58708756
aI58731974
aS'-'
asS'MYO7A'
p2512
(lp2513
I77128263
aI77215241
aS'+'
asS'PTPRJ'
p2514
(lp2515
I47980557
aI48170842
aS'+'
asS'PGAP2'
p2516
(lp2517
I3797723
aI3826371
aS'+'
asS'FKBP2'
p2518
(lp2519
I64240940
aI64244135
aS'+'
asS'SAA2-SAA4'
p2520
(lp2521
I18231354
aI18248674
aS'-'
asS'APBB1'
p2522
(lp2523
I6395123
aI6419472
aS'-'
asS'LINC01495'
p2524
(lp2525
I22445671
aI22492019
aS'-'
asS'OR5AK2'
p2526
(lp2527
I56988913
aI56989843
aS'+'
asS'LINC01493'
p2528
(lp2529
I38648857
aI38655249
aS'+'
asS'LINC01499'
p2530
(lp2531
I41714567
aI41836442
aS'+'
asS'OR5J2'
p2532
(lp2533
I56176617
aI56177556
aS'+'
asS'CASC23'
p2534
(lp2535
I8011277
aI8016509
aS'-'
asS'EHF'
p2536
(lp2537
I34621040
aI34663287
aS'+'
asS'MIR3664'
p2538
(lp2539
I70872269
aI70872368
aS'-'
asS'POU2AF1'
p2540
(lp2541
I111352255
aI111379432
aS'-'
asS'CCND1'
p2542
(lp2543
I69641104
aI69654474
aS'+'
asS'CEP295'
p2544
(lp2545
I93661649
aI93730356
aS'+'
asS'MIR3167'
p2546
(lp2547
I126988457
aI126988542
aS'-'
asS'FDXACB1'
p2548
(lp2549
I111874055
aI111879457
aS'-'
asS'PIDD1'
p2550
(lp2551
I799178
aI805250
aS'-'
asS'C11orf49'
p2552
(lp2553
I46936688
aI47164380
aS'+'
asS'C11orf40'
p2554
(lp2555
I4571422
aI4577820
aS'-'
asS'C11orf42'
p2556
(lp2557
I6205567
aI6211135
aS'+'
asS'C11orf44'
p2558
(lp2559
I130672955
aI130717352
aS'+'
asS'LMO2'
p2560
(lp2561
I33858575
aI33892289
aS'-'
asS'HSD17B12'
p2562
(lp2563
I43680737
aI43856612
aS'+'
asS'BBOX1'
p2564
(lp2565
I27040814
aI27127809
aS'+'
asS'XRRA1'
p2566
(lp2567
I74840909
aI74949187
aS'-'
asS'RAB6A'
p2568
(lp2569
I73675637
aI73761156
aS'-'
asS'CHRNA10'
p2570
(lp2571
I3665586
aI3671384
aS'-'
asS'B3GAT3'
p2572
(lp2573
I62615295
aI62622175
aS'-'
asS'LOC100506368'
p2574
(lp2575
I86955620
aI87000947
aS'+'
asS'ARNTL'
p2576
(lp2577
I13276651
aI13387265
aS'+'
asS'TNNT3'
p2578
(lp2579
I1919568
aI1938709
aS'+'
asS'LOC283299'
p2580
(lp2581
I7850750
aI7905955
aS'-'
asS'TIMM10'
p2582
(lp2583
I57528462
aI57530759
aS'-'
asS'HTR3B'
p2584
(lp2585
I113904795
aI113946561
aS'+'
asS'OPCML'
p2586
(lp2587
I132414664
aI133532612
aS'-'
asS'SNX32'
p2588
(lp2589
I65833938
aI65853701
aS'+'
asS'KRTAP5-AS1'
p2590
(lp2591
I1572740
aI1599184
aS'+'
asS'TMX2-CTNND1'
p2592
(lp2593
I57712522
aI57819180
aS'+'
asS'ZDHHC5'
p2594
(lp2595
I57668001
aI57701187
aS'+'
asS'CBL'
p2596
(lp2597
I119206275
aI119308149
aS'+'
asS'SLC22A6'
p2598
(lp2599
I62976596
aI62985023
aS'-'
asS'SLC22A8'
p2600
(lp2601
I62992823
aI63015845
aS'-'
asS'SLC22A9'
p2602
(lp2603
I63369788
aI63410240
aS'+'
asS'DENND5A'
p2604
(lp2605
I9138825
aI9265326
aS'-'
asS'TMEM80'
p2606
(lp2607
I695590
aI705028
aS'+'
asS'MIR34C'
p2608
(lp2609
I111513438
aI111513515
aS'+'
asS'MIR34B'
p2610
(lp2611
I111512937
aI111513021
aS'+'
asS'TAF10'
p2612
(lp2613
I6610816
aI6612244
aS'-'
asS'TRIM51'
p2614
(lp2615
I55883296
aI55891808
aS'+'
asS'STT3A'
p2616
(lp2617
I125592794
aI125622759
aS'+'
asS'MDK'
p2618
(lp2619
I46380783
aI46383837
aS'+'
asS'NDUFV1'
p2620
(lp2621
I67606851
aI67612541
aS'+'
asS'NAV2-AS2'
p2622
(lp2623
I20043774
aI20049303
aS'-'
asS'NAV2-AS4'
p2624
(lp2625
I19510892
aI19524078
aS'-'
asS'NAV2-AS5'
p2626
(lp2627
I19502672
aI19507229
aS'-'
asS'RBM14'
p2628
(lp2629
I66616581
aI66629926
aS'+'
asS'PARVA'
p2630
(lp2631
I12377570
aI12535356
aS'+'
asS'NKAPD1'
p2632
(lp2633
I112074243
aI112085150
aS'+'
asS'MIR6748'
p2634
(lp2635
I62789814
aI62789885
aS'+'
asS'MIR6749'
p2636
(lp2637
I64902386
aI64902455
aS'-'
asS'MIR6746'
p2638
(lp2639
I61878215
aI61878278
aS'-'
asS'MIR6747'
p2640
(lp2641
I62567010
aI62567071
aS'-'
asS'MIR6744'
p2642
(lp2643
I1256604
aI1256670
aS'+'
asS'MIR129-2'
p2644
(lp2645
I43581393
aI43581483
aS'+'
asS'MIR6743'
p2646
(lp2647
I209335
aI209406
aS'+'
asS'CHRDL2'
p2648
(lp2649
I74696427
aI74731385
aS'-'
asS'GRAMD1B'
p2650
(lp2651
I123509878
aI123627771
aS'+'
asS'RNF26'
p2652
(lp2653
I119334499
aI119337314
aS'+'
asS'YAP1'
p2654
(lp2655
I102110460
aI102233423
aS'+'
asS'GPR152'
p2656
(lp2657
I67451300
aI67452729
aS'-'
asS'F2'
p2658
(lp2659
I46719165
aI46739508
aS'+'
asS'TAF1D'
p2660
(lp2661
I93730193
aI93741537
aS'-'
asS'LSP1'
p2662
(lp2663
I1852969
aI1892263
aS'+'
asS'NTM'
p2664
(lp2665
I131370475
aI132336822
aS'+'
asS'HTR3A'
p2666
(lp2667
I113975074
aI113990312
aS'+'
asS'FAM89B'
p2668
(lp2669
I65572348
aI65574198
aS'+'
asS'TMEM151A'
p2670
(lp2671
I66291901
aI66296664
aS'+'
asS'HARBI1'
p2672
(lp2673
I46603305
aI46617227
aS'-'
asS'KCNC1'
p2674
(lp2675
I17735947
aI17783055
aS'+'
asS'C2CD2L'
p2676
(lp2677
I119107349
aI119117124
aS'+'
asS'TMEM258'
p2678
(lp2679
I61789129
aI61792613
aS'-'
asS'EI24'
p2680
(lp2681
I125569386
aI125584689
aS'+'
asS'CPSF7'
p2682
(lp2683
I61402647
aI61429992
aS'-'
asS'PPFIA1'
p2684
(lp2685
I70270699
aI70384501
aS'+'
asS'TMEM41B'
p2686
(lp2687
I9280654
aI9314768
aS'-'
asS'ZFP91-CNTF'
p2688
(lp2689
I58579113
aI58625732
aS'+'
asS'ALDH3B2'
p2690
(lp2691
I67662161
aI67681224
aS'-'
asS'SPON1'
p2692
(lp2693
I13962636
aI14268133
aS'+'
asS'LTBP3'
p2694
(lp2695
I65538558
aI65558228
aS'-'
asS'SLC37A4'
p2696
(lp2697
I119024111
aI119030877
aS'-'
asS'SAA3P'
p2698
(lp2699
I18112471
aI18116132
aS'-'
asS'RTN3'
p2700
(lp2701
I63681449
aI63759891
aS'+'
asS'OR8H1'
p2702
(lp2703
I56290126
aI56291062
aS'-'
asS'OR8H2'
p2704
(lp2705
I56105042
aI56105981
aS'+'
asS'OR8H3'
p2706
(lp2707
I56122372
aI56123311
aS'+'
asS'OR5E1P'
p2708
(lp2709
I7849050
aI7849571
aS'+'
asS'LOC399886'
p2710
(lp2711
I45371396
aI45388508
aS'+'
asS'SLC35F2'
p2712
(lp2713
I107790990
aI107858787
aS'-'
asS'DKK3'
p2714
(lp2715
I11962995
aI12009370
aS'-'
asS'PRCP'
p2716
(lp2717
I82822940
aI82901740
aS'-'
asS'TSPAN18'
p2718
(lp2719
I44764425
aI44932426
aS'+'
asS'GATD1'
p2720
(lp2721
I767222
aI777502
aS'-'
asS'MIR4692'
p2722
(lp2723
I72783529
aI72783592
aS'+'
asS'MIR4693'
p2724
(lp2725
I103849905
aI103849980
aS'+'
asS'MIR4690'
p2726
(lp2727
I65636309
aI65636369
aS'+'
asS'MIR4691'
p2728
(lp2729
I68033896
aI68033981
aS'+'
asS'MIR4696'
p2730
(lp2731
I74720267
aI74720337
aS'-'
asS'MIR4697'
p2732
(lp2733
I133898503
aI133898581
aS'-'
asS'MIR4694'
p2734
(lp2735
I19760003
aI19760083
aS'-'
asS'HPS5'
p2736
(lp2737
I18278669
aI18322174
aS'-'
asS'REXO2'
p2738
(lp2739
I114439385
aI114450278
aS'+'
asS'PKP3'
p2740
(lp2741
I392598
aI404908
aS'+'
asS'NUDT22'
p2742
(lp2743
I64226257
aI64230016
aS'+'
asS'CCDC15'
p2744
(lp2745
I124954120
aI125041491
aS'+'
asS'SELENOH'
p2746
(lp2747
I57741249
aI57743554
aS'+'
asS'ZNF705E'
p2748
(lp2749
I71814044
aI71821547
aS'-'
asS'MRVI1'
p2750
(lp2751
I10573090
aI10693988
aS'-'
asS'DKFZp779M0652'
p2752
(lp2753
I45771431
aI45772358
aS'+'
asS'EXT2'
p2754
(lp2755
I44095548
aI44245430
aS'+'
asS'SCGB1C1'
p2756
(lp2757
I193079
aI194573
aS'+'
asS'KIRREL3'
p2758
(lp2759
I126423500
aI127000870
aS'-'
asS'HTATIP2'
p2760
(lp2761
I20363684
aI20383783
aS'+'
asS'LINC01150'
p2762
(lp2763
I1896758
aI1908359
aS'+'
asS'GNG3'
p2764
(lp2765
I62707593
aI62709206
aS'+'
asS'SPTY2D1'
p2766
(lp2767
I18606400
aI18634473
aS'-'
asS'TYR'
p2768
(lp2769
I89177871
aI89295759
aS'+'
asS'ALG8'
p2770
(lp2771
I78100941
aI78139653
aS'-'
asS'ALG9'
p2772
(lp2773
I111782194
aI111871581
aS'-'
asS'CYB5R2'
p2774
(lp2775
I7665094
aI7674243
aS'-'
asS'RPL27A'
p2776
(lp2777
I8682791
aI8689872
aS'+'
asS'VSIG2'
p2778
(lp2779
I124747471
aI124752272
aS'-'
asS'ALDH3B1'
p2780
(lp2781
I68008546
aI68029282
aS'+'
asS'SLC29A2'
p2782
(lp2783
I66362520
aI66372476
aS'-'
asS'YPEL4'
p2784
(lp2785
I57645086
aI57649944
aS'-'
asS'TIRAP'
p2786
(lp2787
I126283086
aI126294933
aS'+'
asS'MIR3160-1'
p2788
(lp2789
I46451804
aI46451889
aS'-'
asS'MIR3160-2'
p2790
(lp2791
I46451806
aI46451887
aS'+'
asS'NCAM1'
p2792
(lp2793
I112961246
aI113278436
aS'+'
asS'C11orf58'
p2794
(lp2795
I16738600
aI16758354
aS'+'
asS'C11orf53'
p2796
(lp2797
I111255981
aI111286404
aS'+'
asS'C11orf52'
p2798
(lp2799
I111918912
aI111926871
aS'+'
asS'C11orf54'
p2800
(lp2801
I93741593
aI93763102
aS'+'
asS'SNORA70E'
p2802
(lp2803
I83041463
aI83041598
aS'-'
asS'JAM3'
p2804
(lp2805
I134068924
aI134151757
aS'+'
asS'RAG2'
p2806
(lp2807
I36591942
aI36598279
aS'-'
asS'LOC728975'
p2808
(lp2809
I65179870
aI65181834
aS'-'
asS'RAG1'
p2810
(lp2811
I36568012
aI36579760
aS'+'
asS'OR6A2'
p2812
(lp2813
I6794524
aI6795908
aS'-'
asS'PCNX3'
p2814
(lp2815
I65616311
aI65637439
aS'+'
asS'PAAF1'
p2816
(lp2817
I73876698
aI73927736
aS'+'
asS'RNASEH2C'
p2818
(lp2819
I65717672
aI65720938
aS'-'
asS'TRIM49B'
p2820
(lp2821
I49031599
aI49037977
aS'+'
asS'TRIM49C'
p2822
(lp2823
I90031105
aI90042025
aS'+'
asS'PIWIL4'
p2824
(lp2825
I94567367
aI94621421
aS'+'
asS'PANX1'
p2826
(lp2827
I94128927
aI94181971
aS'+'
asS'PANX3'
p2828
(lp2829
I124611556
aI124620355
aS'+'
asS'KIAA1549L'
p2830
(lp2831
I33542330
aI33674100
aS'+'
asS'PTGDR2'
p2832
(lp2833
I60850924
aI60855971
aS'-'
asS'ZBTB16'
p2834
(lp2835
I114059588
aI114256770
aS'+'
asS'SPDYC'
p2836
(lp2837
I65170153
aI65173244
aS'+'
asS'POLD3'
p2838
(lp2839
I74592529
aI74643060
aS'+'
asS'CST6'
p2840
(lp2841
I66012007
aI66013505
aS'+'
asS'MRVI1-AS1'
p2842
(lp2843
I10541235
aI10599932
aS'+'
asS'RRAS2'
p2844
(lp2845
I14277919
aI14364506
aS'-'
asS'BACE1'
p2846
(lp2847
I117285685
aI117316256
aS'-'
asS'ASCL2'
p2848
(lp2849
I2268497
aI2270952
aS'-'
asS'ASCL3'
p2850
(lp2851
I8937571
aI8943033
aS'-'
asS'GPHA2'
p2852
(lp2853
I64934470
aI64935888
aS'-'
asS'MIR100HG'
p2854
(lp2855
I122089102
aI122422871
aS'-'
asS'TRIM68'
p2856
(lp2857
I4598671
aI4608259
aS'-'
asS'MUC5AC'
p2858
(lp2859
I1157952
aI1201141
aS'+'
asS'TRIM64'
p2860
(lp2861
I89968503
aI89974072
aS'+'
asS'TRIM66'
p2862
(lp2863
I8612036
aI8658836
aS'-'
asS'NAT10'
p2864
(lp2865
I34105563
aI34146911
aS'+'
asS'MIR210HG'
p2866
(lp2867
I565656
aI568457
aS'-'
asS'MIR6514'
p2868
(lp2869
I62792701
aI62792771
aS'-'
asS'OMP'
p2870
(lp2871
I77102839
aI77103331
aS'+'
asS'OR4C5'
p2872
(lp2873
I48365296
aI48366488
aS'-'
asS'OR4C6'
p2874
(lp2875
I55665166
aI55666096
aS'+'
asS'OR4C3'
p2876
(lp2877
I48324919
aI48325955
aS'+'
asS'NEU3'
p2878
(lp2879
I74988932
aI75010907
aS'+'
asS'USP2'
p2880
(lp2881
I119355214
aI119381726
aS'-'
asS'NLRP14'
p2882
(lp2883
I7020468
aI7071526
aS'+'
asS'NLRP10'
p2884
(lp2885
I7959608
aI7963512
aS'-'
asS'VSTM5'
p2886
(lp2887
I93820568
aI93850502
aS'-'
asS'OR52D1'
p2888
(lp2889
I5488684
aI5489748
aS'+'
asS'SOX6'
p2890
(lp2891
I15966448
aI16476388
aS'-'
asS'ARAP1'
p2892
(lp2893
I72685068
aI72752389
aS'-'
asS'TNNI2'
p2894
(lp2895
I1839002
aI1841680
aS'+'
asS'LOC100130987'
p2896
(lp2897
I67317838
aI67391687
aS'+'
asS'KDM4E'
p2898
(lp2899
I95025257
aI95027596
aS'+'
asS'MED17'
p2900
(lp2901
I93784281
aI93814963
aS'+'
asS'MED19'
p2902
(lp2903
I57703708
aI57712323
aS'-'
asS'CRACR2B'
p2904
(lp2905
I828259
aI831991
aS'+'
asS'MIR1343'
p2906
(lp2907
I34941836
aI34941920
aS'+'
asS'LOC105369340'
p2908
(lp2909
I64245865
aI64248214
aS'+'
asS'INTS5'
p2910
(lp2911
I62646847
aI62653302
aS'-'
asS'INTS4'
p2912
(lp2913
I77878719
aI77994671
aS'-'
asS'TPP1'
p2914
(lp2915
I6612765
aI6619461
aS'-'
asS'RDX'
p2916
(lp2917
I110174879
aI110296712
aS'-'
asS'SLN'
p2918
(lp2919
I107707374
aI107712061
aS'-'
asS'MIRLET7A2'
p2920
(lp2921
I122146521
aI122146593
aS'-'
asS'LOC101928510'
p2922
(lp2923
I36063283
aI36077901
aS'-'
asS'FAM181B'
p2924
(lp2925
I82729939
aI82733864
aS'-'
asS'TRMT112'
p2926
(lp2927
I64316491
aI64318084
aS'-'
asS'TM7SF2'
p2928
(lp2929
I65111853
aI65116235
aS'+'
asS'APOC3'
p2930
(lp2931
I116829906
aI116833072
aS'+'
asS'PLEKHB1'
p2932
(lp2933
I73646177
aI73662819
aS'+'
asS'OR8G5'
p2934
(lp2935
I124264826
aI124265867
aS'+'
asS'EML3'
p2936
(lp2937
I62602218
aI62612765
aS'-'
asS'OR8G1'
p2938
(lp2939
I124249675
aI124250611
aS'+'
asS'NXPE1'
p2940
(lp2941
I114518935
aI114559895
aS'-'
asS'NXPE2'
p2942
(lp2943
I114678477
aI114706930
aS'+'
asS'OR52R1'
p2944
(lp2945
I4803432
aI4804380
aS'-'
asS'NXPE4'
p2946
(lp2947
I114570590
aI114595762
aS'-'
asS'MYRF'
p2948
(lp2949
I61752636
aI61788518
aS'+'
asS'NARS2'
p2950
(lp2951
I78435960
aI78574864
aS'-'
asS'SLC25A22'
p2952
(lp2953
I790474
aI798269
aS'-'
asS'LOC440028'
p2954
(lp2955
I9754769
aI9759533
aS'-'
asS'KCNQ1-AS1'
p2956
(lp2957
I2840134
aI2861569
aS'-'
asS'PGR-AS1'
p2958
(lp2959
I101129076
aI101159270
aS'+'
asS'COPB1'
p2960
(lp2961
I14457502
aI14499895
aS'-'
asS'FAM111A-DT'
p2962
(lp2963
I59133972
aI59142808
aS'-'
asS'IFT46'
p2964
(lp2965
I118544527
aI118566076
aS'-'
asS'KDELC2'
p2966
(lp2967
I108472105
aI108498432
aS'-'
asS'RIC8A'
p2968
(lp2969
I207510
aI215175
aS'+'
asS'LOC171391'
p2970
(lp2971
I777577
aI784284
aS'+'
asS'OR5M10'
p2972
(lp2973
I56576773
aI56577721
aS'-'
asS'OR5M11'
p2974
(lp2975
I56542339
aI56543257
aS'-'
asS'TRIM49D2'
p2976
(lp2977
I89911410
aI89920408
aS'-'
asS'CCKBR'
p2978
(lp2979
I6259673
aI6272127
aS'+'
asS'SDHAF2'
p2980
(lp2981
I61430124
aI61446767
aS'+'
asS'MAML2'
p2982
(lp2983
I95976592
aI96343180
aS'-'
asS'LINC02584'
p2984
(lp2985
I70072433
aI70075348
aS'-'
asS'TSGA10IP'
p2986
(lp2987
I65945643
aI65959963
aS'+'
asS'PC'
p2988
(lp2989
I66848525
aI66958376
aS'-'
asS'LOC646522'
p2990
(lp2991
I133783670
aI133810376
aS'-'
asS'TRPM5'
p2992
(lp2993
I2404515
aI2423045
aS'-'
asS'OR5L1'
p2994
(lp2995
I55811366
aI55812476
aS'+'
asS'TRIM64C'
p2996
(lp2997
I49053713
aI49059112
aS'-'
asS'OR5L2'
p2998
(lp2999
I55827218
aI55828154
aS'+'
asS'MIR4489'
p3000
(lp3001
I65649191
aI65649253
aS'+'
asS'MIR4488'
p3002
(lp3003
I61508595
aI61508657
aS'+'
asS'MIR4487'
p3004
(lp3005
I47400969
aI47401042
aS'+'
asS'MIR4486'
p3006
(lp3007
I19575309
aI19575372
aS'+'
asS'DEUP1'
p3008
(lp3009
I93330716
aI93438471
aS'+'
asS'SMTNL1'
p3010
(lp3011
I57542640
aI57550274
aS'+'
asS'VWA5A'
p3012
(lp3013
I124115403
aI124146911
aS'+'
asS'OTOG'
p3014
(lp3015
I17547372
aI17645944
aS'+'
asS'STK33'
p3016
(lp3017
I8391865
aI8594289
aS'-'
asS'C11orf68'
p3018
(lp3019
I65916811
aI65919060
aS'-'
asS'SLCO2B1'
p3020
(lp3021
I75150986
aI75206400
aS'+'
asS'C11orf65'
p3022
(lp3023
I108308518
aI108467531
aS'-'
asS'ACCSL'
p3024
(lp3025
I44047980
aI44059977
aS'+'
asS'CD5'
p3026
(lp3027
I61093962
aI61127851
aS'+'
asS'CD6'
p3028
(lp3029
I60971640
aI61020376
aS'+'
asS'SERPING1'
p3030
(lp3031
I57597553
aI57614853
aS'+'
asS'CEP164'
p3032
(lp3033
I117321777
aI117413266
aS'+'
asS'SNX15'
p3034
(lp3035
I65027407
aI65040572
aS'+'
asS'CD81'
p3036
(lp3037
I2376176
aI2397419
aS'+'
asS'OR10A6'
p3038
(lp3039
I7927717
aI7928662
aS'-'
asS'SNX19'
p3040
(lp3041
I130875870
aI130916487
aS'-'
asS'LOC101928985'
p3042
(lp3043
I115731944
aI115734762
aS'-'
asS'FOSL1'
p3044
(lp3045
I65892135
aI65900526
aS'-'
asS'MARK2'
p3046
(lp3047
I63838927
aI63911020
aS'+'
asS'LINC00294'
p3048
(lp3049
I33076149
aI33079454
aS'+'
asS'TALAM1'
p3050
(lp3051
I65499311
aI65507432
aS'-'
asS'ZBED5'
p3052
(lp3053
I10852703
aI10858073
aS'-'
asS'LRTOMT'
p3054
(lp3055
I72080330
aI72110782
aS'+'
asS'OR51M1'
p3056
(lp3057
I5389376
aI5390434
aS'+'
asS'DEFB131B'
p3058
(lp3059
I71878452
aI71884561
aS'+'
asS'LRP4'
p3060
(lp3061
I46856716
aI46918622
aS'-'
asS'LRP5'
p3062
(lp3063
I68312608
aI68449275
aS'+'
asS'MIR210'
p3064
(lp3065
I568088
aI568198
aS'-'
asS'GALNT18'
p3066
(lp3067
I11270873
aI11622014
aS'-'
asS'ACAD8'
p3068
(lp3069
I134253539
aI134265852
aS'+'
asS'TRIM77'
p3070
(lp3071
I89710298
aI89717872
aS'+'
asS'STIM1'
p3072
(lp3073
I3855702
aI4093210
aS'+'
asS'PPP2R1B'
p3074
(lp3075
I111726907
aI111766445
aS'-'
asS'MAP4K2'
p3076
(lp3077
I64789100
aI64803254
aS'-'
asS'OR4A16'
p3078
(lp3079
I55343200
aI55344187
aS'+'
asS'OR4A15'
p3080
(lp3081
I55367883
aI55368918
aS'+'
asS'OR51S1'
p3082
(lp3083
I4848236
aI4849208
aS'-'
asS'LOC403312'
p3084
(lp3085
I125495213
aI125499526
aS'+'
asS'MAP6'
p3086
(lp3087
I75586917
aI75668434
aS'-'
asS'KCNK4-TEX40'
p3088
(lp3089
I64291721
aI64304769
aS'+'
asS'BCL9L'
p3090
(lp3091
I118896140
aI118910904
aS'-'
asS'TEAD1'
p3092
(lp3093
I12674421
aI12944737
aS'+'
asS'FAM180B'
p3094
(lp3095
I47586677
aI47589194
aS'+'
asS'MIR6503'
p3096
(lp3097
I60209070
aI60209156
aS'-'
asS'MIR100'
p3098
(lp3099
I122152228
aI122152308
aS'-'
asS'MIR7113'
p3100
(lp3101
I68032863
aI68032922
aS'+'
asS'GAL'
p3102
(lp3103
I68684474
aI68691175
aS'+'
asS'ACY3'
p3104
(lp3105
I67642554
aI67650730
aS'-'
asS'OR4B1'
p3106
(lp3107
I48216809
aI48217739
aS'+'
asS'OR52E6'
p3108
(lp3109
I5840955
aI5841897
aS'-'
asS'OR52E5'
p3110
(lp3111
I5900764
aI5901760
aS'+'
asS'OR52E4'
p3112
(lp3113
I5884292
aI5885231
aS'+'
asS'ESRRA'
p3114
(lp3115
I64305527
aI64316740
aS'+'
asS'OR52E2'
p3116
(lp3117
I5058649
aI5059627
aS'-'
asS'OR52E1'
p3118
(lp3119
I5069371
aI5070696
aS'+'
asS'NRGN'
p3120
(lp3121
I124739932
aI124747206
aS'+'
asS'OR5AK4P'
p3122
(lp3123
I57037533
aI57038460
aS'+'
asS'CLDN25'
p3124
(lp3125
I113779795
aI113780485
aS'+'
asS'OR52E8'
p3126
(lp3127
I5856748
aI5857702
aS'-'
asS'OR4P4'
p3128
(lp3129
I55638357
aI55639296
aS'+'
asS'MS4A12'
p3130
(lp3131
I60492777
aI60507428
aS'+'
asS'OR7E12P'
p3132
(lp3133
I3390706
aI3391915
aS'-'
asS'FSHB'
p3134
(lp3135
I30231015
aI30235277
aS'+'
asS'NUP160'
p3136
(lp3137
I47778082
aI47848544
aS'-'
asS'ABCC8'
p3138
(lp3139
I17392884
aI17476845
aS'-'
asS'CKAP5'
p3140
(lp3141
I46743533
aI46846308
aS'-'
asS'KCNE3'
p3142
(lp3143
I74454840
aI74467555
aS'-'
asS'LOC105369332'
p3144
(lp3145
I62832233
aI62834041
aS'+'
asS'DHCR7'
p3146
(lp3147
I71434410
aI71448431
aS'-'
asS'CASP12'
p3148
(lp3149
I104885717
aI104898670
aS'-'
asS'LDLRAD3'
p3150
(lp3151
I35943980
aI36232136
aS'+'
asS'BDNF'
p3152
(lp3153
I27654894
aI27722058
aS'-'
asS'FOXRED1'
p3154
(lp3155
I126269039
aI126278132
aS'+'
asS'NAV2'
p3156
(lp3157
I19350723
aI20121601
aS'+'
asS'EHBP1L1'
p3158
(lp3159
I65576037
aI65592650
aS'+'
asS'TRIM51HP'
p3160
(lp3161
I55293702
aI55298232
aS'-'
asS'TSPAN4'
p3162
(lp3163
I842823
aI867116
aS'+'
asS'CSNK2A3'
p3164
(lp3165
I11351941
aI11353357
aS'-'
asS'MIR1260B'
p3166
(lp3167
I96341437
aI96341526
aS'+'
asS'TREH'
p3168
(lp3169
I118658231
aI118679672
aS'-'
asS'KCTD14'
p3170
(lp3171
I78015714
aI78046191
aS'-'
asS'SCGB2A1'
p3172
(lp3173
I62208667
aI62213939
aS'+'
asS'SCGB2A2'
p3174
(lp3175
I62270157
aI62273157
aS'+'
asS'HBG2'
p3176
(lp3177
I5253190
aI5254781
aS'-'
asS'HBG1'
p3178
(lp3179
I5248271
aI5249857
aS'-'
asS'ADAMTS15'
p3180
(lp3181
I130448973
aI130476645
aS'+'
asS'BBOX1-AS1'
p3182
(lp3183
I27047185
aI27218768
aS'-'
asS'LOC646383'
p3184
(lp3185
I130314992
aI130403657
aS'+'
asS'UBE2L6'
p3186
(lp3187
I57551654
aI57568330
aS'-'
asS'OR56A5'
p3188
(lp3189
I5967552
aI5968494
aS'-'
asS'OR56A4'
p3190
(lp3191
I6002050
aI6003148
aS'-'
asS'OR56A3'
p3192
(lp3193
I5947346
aI5948294
aS'+'
asS'OR56A1'
p3194
(lp3195
I6026670
aI6027741
aS'-'
asS'EED'
p3196
(lp3197
I86244383
aI86278810
aS'+'
asS'LOC101929497'
p3198
(lp3199
I127271069
aI127337033
aS'+'
asS'PDHX'
p3200
(lp3201
I34916129
aI34996128
aS'+'
asS'MIR4299'
p3202
(lp3203
I11656650
aI11656722
aS'-'
asS'PPME1'
p3204
(lp3205
I74171062
aI74254703
aS'+'
asS'BET1L'
p3206
(lp3207
I202923
aI207422
aS'-'
asS'MUC5B-AS1'
p3208
(lp3209
I1242260
aI1249676
aS'-'
asS'MIR3920'
p3210
(lp3211
I101519819
aI101519905
aS'-'
asS'LOC101929295'
p3212
(lp3213
I95150538
aI95159148
aS'+'
asS'LOC494141'
p3214
(lp3215
I18209137
aI18213564
aS'+'
asS'LOC101928943'
p3216
(lp3217
I47270656
aI47272110
aS'-'
asS'LOC101928940'
p3218
(lp3219
I114360634
aI114380039
aS'-'
asS'SCGB1A1'
p3220
(lp3221
I62419034
aI62423206
aS'+'
asS'LOC101928944'
p3222
(lp3223
I80751200
aI80762803
aS'-'
asS'OSBP'
p3224
(lp3225
I59574397
aI59616144
aS'-'
asS'TSPAN32'
p3226
(lp3227
I2302012
aI2318200
aS'+'
asS'LINC01488'
p3228
(lp3229
I69485560
aI69493543
aS'+'
asS'LOC101929011'
p3230
(lp3231
I116639421
aI116658252
aS'+'
asS'FAM111B'
p3232
(lp3233
I59107184
aI59127416
aS'+'
asS'MIR194-2HG'
p3234
(lp3235
I64888457
aI64893449
aS'-'
asS'FAM111A'
p3236
(lp3237
I59142745
aI59155038
aS'+'
asS'DDIAS'
p3238
(lp3239
I82901694
aI82934657
aS'+'
asS'OR5M8'
p3240
(lp3241
I56490434
aI56491370
aS'-'
asS'OR5M9'
p3242
(lp3243
I56462468
aI56463401
aS'-'
asS'LUZP2'
p3244
(lp3245
I24496969
aI25082640
aS'+'
asS'EHD1'
p3246
(lp3247
I64852726
aI64879713
aS'-'
asS'OR5M3'
p3248
(lp3249
I56469487
aI56470538
aS'-'
asS'OR5M1'
p3250
(lp3251
I56612554
aI56613502
aS'-'
asS'MIR4490'
p3252
(lp3253
I90555773
aI90555857
aS'-'
asS'TMEM86A'
p3254
(lp3255
I18698734
aI18704785
aS'+'
asS'MIR4492'
p3256
(lp3257
I118910707
aI118910787
aS'+'
asS'MIR4493'
p3258
(lp3259
I123381439
aI123381512
aS'-'
asS'SORL1'
p3260
(lp3261
I121452202
aI121633762
aS'+'
asS'LGALS12'
p3262
(lp3263
I63506051
aI63516774
aS'+'
asS'OR6Q1'
p3264
(lp3265
I58030952
aI58031906
aS'+'
asS'IGSF22'
p3266
(lp3267
I18704304
aI18726230
aS'-'
asS'SHANK2'
p3268
(lp3269
I70467855
aI71224796
aS'-'
asS'C11orf71'
p3270
(lp3271
I114391447
aI114400550
aS'-'
asS'C11orf72'
p3272
(lp3273
I67602879
aI67606706
aS'-'
asS'POLD4'
p3274
(lp3275
I67350764
aI67353596
aS'-'
asS'C11orf74'
p3276
(lp3277
I36594492
aI36659291
aS'+'
asS'TSKU'
p3278
(lp3279
I76782312
aI76798154
aS'+'
asS'HNRNPKP3'
p3280
(lp3281
I43261503
aI43269369
aS'-'
asS'MAPK8IP1'
p3282
(lp3283
I45885650
aI45906465
aS'+'
asS'VPS26B'
p3284
(lp3285
I134224670
aI134247788
aS'+'
asS'GVQW3'
p3286
(lp3287
I76381302
aI76414621
aS'+'
asS'HSPB2-C11orf52'
p3288
(lp3289
I111912735
aI111926871
aS'+'
asS'RAB39A'
p3290
(lp3291
I107928474
aI107963482
aS'+'
asS'SSRP1'
p3292
(lp3293
I57325984
aI57335877
aS'-'
asS'CD59'
p3294
(lp3295
I33703009
aI33736479
aS'-'
asS'CRYAB'
p3296
(lp3297
I111908619
aI111913213
aS'-'
asS'OR51L1'
p3298
(lp3299
I4998982
aI4999930
aS'+'
asS'RPS25'
p3300
(lp3301
I119015712
aI119018347
aS'-'
asS'ELF5'
p3302
(lp3303
I34478794
aI34513800
aS'-'
asS'TAF6L'
p3304
(lp3305
I62771302
aI62787341
aS'+'
asS'RAB30'
p3306
(lp3307
I82973132
aI83071923
aS'-'
asS'LOC100506082'
p3308
(lp3309
I4187151
aI4202653
aS'+'
asS'RAB38'
p3310
(lp3311
I88113246
aI88175467
aS'-'
asS'LDHA'
p3312
(lp3313
I18394388
aI18408218
aS'+'
asS'MTA2'
p3314
(lp3315
I62593202
aI62601840
aS'-'
asS'LDHC'
p3316
(lp3317
I18412305
aI18451246
aS'+'
asS'PDGFD'
p3318
(lp3319
I103907185
aI104164299
aS'-'
asS'MIR483'
p3320
(lp3321
I2134133
aI2134209
aS'-'
asS'CFL1'
p3322
(lp3323
I65854813
aI65858333
aS'-'
asS'DOC2GP'
p3324
(lp3325
I67613523
aI67615664
aS'-'
asS'BBS1'
p3326
(lp3327
I66510647
aI66533613
aS'+'
asS'OR4A5'
p3328
(lp3329
I54706831
aI54707902
aS'+'
asS'SERPINH1'
p3330
(lp3331
I75562055
aI75572804
aS'+'
asS'MIR194-2'
p3332
(lp3333
I64891354
aI64891439
aS'-'
asS'FOLR1'
p3334
(lp3335
I72189557
aI72196323
aS'+'
asS'WNT11'
p3336
(lp3337
I76186325
aI76206530
aS'-'
asS'FOLR3'
p3338
(lp3339
I72135709
aI72139892
aS'+'
as.