(dp1
S'HIF3A'
p2
(lp3
I46297045
aI46343433
aS'+'
asS'LOC100996349'
p4
(lp5
I22608015
aI22608501
aS'+'
asS'ELANE'
p6
(lp7
I852302
aI856243
aS'+'
asS'CCNE1'
p8
(lp9
I29811993
aI29824317
aS'+'
asS'MIR6088'
p10
(lp11
I45436653
aI45436704
aS'+'
asS'ZNF709'
p12
(lp13
I12461183
aI12484818
aS'-'
asS'ZNF708'
p14
(lp15
I21291159
aI21329439
aS'-'
asS'ZNF878'
p16
(lp17
I12043804
aI12052967
aS'-'
asS'ZNF701'
p18
(lp19
I52570272
aI52587174
aS'+'
asS'ZNF700'
p20
(lp21
I11925067
aI11950773
aS'+'
asS'ZSWIM4'
p22
(lp23
I13795459
aI13832230
aS'+'
asS'ZSWIM9'
p24
(lp25
I48170691
aI48197620
aS'+'
asS'CBLC'
p26
(lp27
I44777868
aI44800646
aS'+'
asS'DNASE2'
p28
(lp29
I12875208
aI12881449
aS'-'
asS'ZNF45'
p30
(lp31
I43912623
aI43935282
aS'-'
asS'ZNF44'
p32
(lp33
I12271809
aI12294899
aS'-'
asS'ZNF43'
p34
(lp35
I21804948
aI21852068
aS'-'
asS'MIR6885'
p36
(lp37
I6389637
aI6389703
aS'-'
asS'MIR6887'
p38
(lp39
I35122699
aI35122764
aS'+'
asS'MIR6886'
p40
(lp41
I11113473
aI11113534
aS'+'
asS'CRB3'
p42
(lp43
I6463776
aI6467219
aS'+'
asS'CEP89'
p44
(lp45
I32878997
aI32972029
aS'-'
asS'OPA3'
p46
(lp47
I45527766
aI45584864
aS'-'
asS'ZNF677'
p48
(lp49
I53235380
aI53254903
aS'-'
asS'ZNF676'
p50
(lp51
I22179100
aI22196951
aS'-'
asS'ZNF675'
p52
(lp53
I23652905
aI23687215
aS'-'
asS'PRRG2'
p54
(lp55
I49581329
aI49591008
aS'+'
asS'TRAPPC5'
p56
(lp57
I7680820
aI7682862
aS'+'
asS'MAG'
p58
(lp59
I35292085
aI35313806
aS'+'
asS'SPPL2B'
p60
(lp61
I2328629
aI2355102
aS'+'
asS'MIR6719'
p62
(lp63
I39829715
aI39829802
aS'-'
asS'ZSCAN18'
p64
(lp65
I58083841
aI58118426
aS'-'
asS'LOC100505715'
p66
(lp67
I43891803
aI43901803
aS'-'
asS'MFSD12'
p68
(lp69
I3544198
aI3557586
aS'-'
asS'LOC102724958'
p70
(lp71
I28968467
aI28970672
aS'+'
asS'LILRB5'
p72
(lp73
I54250404
aI54257308
aS'-'
asS'LILRB4'
p74
(lp75
I54662818
aI54670359
aS'+'
asS'LILRB3'
p76
(lp77
I54216277
aI54223087
aS'-'
asS'LILRB2'
p78
(lp79
I54273820
aI54281178
aS'-'
asS'ZNF426-DT'
p80
(lp81
I9538665
aI9539730
aS'+'
asS'KIR2DS4'
p82
(lp83
I54832675
aI54848569
aS'+'
asS'KIR2DS5'
p84
(lp85
I54724463
aI54867216
aS'+'
asS'KIR2DS2'
p86
(lp87
I54738510
aI54848566
aS'+'
asS'KIR2DS3'
p88
(lp89
I54724485
aI54848130
aS'+'
asS'KIR2DS1'
p90
(lp91
I54755009
aI54848116
aS'+'
asS'FBXL12'
p92
(lp93
I9810266
aI9819103
aS'-'
asS'LSR'
p94
(lp95
I35248655
aI35267964
aS'+'
asS'PRSS57'
p96
(lp97
I685520
aI695461
aS'-'
asS'CHST8'
p98
(lp99
I33621954
aI33773509
aS'+'
asS'EPS15L1'
p100
(lp101
I16355243
aI16472012
aS'-'
asS'VN1R4'
p102
(lp103
I53266759
aI53267665
aS'-'
asS'TMEM190'
p104
(lp105
I55376825
aI55378246
aS'+'
asS'ZNF296'
p106
(lp107
I45071499
aI45076588
aS'-'
asS'LEUTX'
p108
(lp109
I39776593
aI39786135
aS'+'
asS'SARS2'
p110
(lp111
I38915263
aI38930896
aS'-'
asS'LIN37'
p112
(lp113
I35748360
aI35754519
aS'+'
asS'MIR4324'
p114
(lp115
I49308796
aI49308868
aS'-'
asS'AP3D1'
p116
(lp117
I2100987
aI2151626
aS'-'
asS'ERICH4'
p118
(lp119
I41443148
aI41444765
aS'+'
asS'FAM71E1'
p120
(lp121
I50466784
aI50476746
aS'-'
asS'FAM71E2'
p122
(lp123
I55354907
aI55363252
aS'-'
asS'C19orf18'
p124
(lp125
I57958436
aI57974534
aS'-'
asS'C19orf12'
p126
(lp127
I29698885
aI29715789
aS'-'
asS'CCDC114'
p128
(lp129
I48296451
aI48321971
aS'-'
asS'ATP1A3'
p130
(lp131
I41966581
aI41994276
aS'-'
asS'CLPTM1'
p132
(lp133
I44954584
aI44993346
aS'+'
asS'WTIP'
p134
(lp135
I34481974
aI34501180
aS'+'
asS'SPHK2'
p136
(lp137
I48619290
aI48630406
aS'+'
asS'PGLYRP2'
p138
(lp139
I15468645
aI15479501
aS'-'
asS'PGLYRP1'
p140
(lp141
I46019154
aI46023298
aS'-'
asS'CHAF1A'
p142
(lp143
I4402662
aI4443397
aS'+'
asS'ZNF780A'
p144
(lp145
I40069151
aI40090938
aS'-'
asS'ZNF780B'
p146
(lp147
I40028259
aI40056208
aS'-'
asS'ZNF793-AS1'
p148
(lp149
I37497160
aI37507087
aS'-'
asS'RDH8'
p150
(lp151
I10013482
aI10022278
aS'+'
asS'MIR4530'
p152
(lp153
I39409622
aI39409678
aS'-'
asS'CLIP3'
p154
(lp155
I36014659
aI36032895
aS'-'
asS'ZNF682'
p156
(lp157
I20004417
aI20039468
aS'-'
asS'LINC01859'
p158
(lp159
I23015074
aI23023697
aS'-'
asS'LINC01858'
p160
(lp161
I23054822
aI23061265
aS'-'
asS'LINC01855'
p162
(lp163
I16065686
aI16066303
aS'+'
asS'TIMM50'
p164
(lp165
I39480411
aI39493784
aS'+'
asS'ZNF8-ERVK3-1'
p166
(lp167
I58278965
aI58315657
aS'+'
asS'KISS1R'
p168
(lp169
I917332
aI921005
aS'+'
asS'CA11'
p170
(lp171
I48637941
aI48646312
aS'-'
asS'ATG4D'
p172
(lp173
I10543893
aI10553423
aS'+'
asS'MIR769'
p174
(lp175
I46018931
aI46019049
aS'+'
asS'RPL28'
p176
(lp177
I55385931
aI55403342
aS'+'
asS'THAP8'
p178
(lp179
I36034984
aI36054762
aS'-'
asS'CFD'
p180
(lp181
I859658
aI863569
aS'+'
asS'MIR371B'
p182
(lp183
I53787676
aI53787742
aS'-'
asS'MIR371A'
p184
(lp185
I53787674
aI53787741
aS'+'
asS'HAMP'
p186
(lp187
I35282345
aI35285142
aS'+'
asS'SPRED3'
p188
(lp189
I38390199
aI38399883
aS'+'
asS'CYP4F8'
p190
(lp191
I15615217
aI15629637
aS'+'
asS'APOC4-APOC2'
p192
(lp193
I44942237
aI44949565
aS'+'
asS'MIR498'
p194
(lp195
I53674196
aI53674320
aS'+'
asS'CYP4F2'
p196
(lp197
I15878023
aI15898120
aS'-'
asS'CYP4F3'
p198
(lp199
I15640896
aI15662825
aS'+'
asS'SIX5'
p200
(lp201
I45764784
aI45769239
aS'-'
asS'CD177'
p202
(lp203
I43353685
aI43363172
aS'+'
asS'FKBP1AP1'
p204
(lp205
I57825298
aI57827462
aS'-'
asS'ZNF587B'
p206
(lp207
I57830293
aI57846238
aS'+'
asS'RELB'
p208
(lp209
I45001448
aI45038198
aS'+'
asS'PRX'
p210
(lp211
I40393763
aI40413364
aS'-'
asS'HMG20B'
p212
(lp213
I3572944
aI3579083
aS'+'
asS'MRPL34'
p214
(lp215
I17305667
aI17306843
aS'+'
asS'CLEC17A'
p216
(lp217
I14583083
aI14611144
aS'+'
asS'LOC100996351'
p218
(lp219
I3141575
aI3155175
aS'-'
asS'ARRDC5'
p220
(lp221
I4891004
aI4902896
aS'-'
asS'KLK2'
p222
(lp223
I50873432
aI50880567
aS'+'
asS'KLK3'
p224
(lp225
I50854914
aI50860764
aS'+'
asS'KLK4'
p226
(lp227
I50906351
aI50910738
aS'-'
asS'KLK5'
p228
(lp229
I50943302
aI50953088
aS'-'
asS'DMRTC2'
p230
(lp231
I41845022
aI41852329
aS'+'
asS'ZFP82'
p232
(lp233
I36383101
aI36418674
aS'-'
asS'KLK8'
p234
(lp235
I50996007
aI51001702
aS'-'
asS'KLK9'
p236
(lp237
I51002512
aI51009634
aS'-'
asS'RFPL4AL1'
p238
(lp239
I55771804
aI55773179
aS'+'
asS'ZNF671'
p240
(lp241
I57719746
aI57727624
aS'-'
asS'ZNF841'
p242
(lp243
I52058099
aI52094271
aS'-'
asS'ZNF844'
p244
(lp245
I12064698
aI12077816
aS'+'
asS'ZNF845'
p246
(lp247
I53333718
aI53356119
aS'+'
asS'RFX2'
p248
(lp249
I5993163
aI6110653
aS'-'
asS'PAK4'
p250
(lp251
I39125779
aI39179406
aS'+'
asS'DBP'
p252
(lp253
I48630559
aI48637550
aS'-'
asS'UQCRFS1'
p254
(lp255
I29207259
aI29213229
aS'-'
asS'ZNF56'
p256
(lp257
I19776566
aI19836179
aS'+'
asS'ZNF57'
p258
(lp259
I2900897
aI2918476
aS'+'
asS'ZNF599'
p260
(lp261
I34758073
aI34773229
aS'-'
asS'ZNF600'
p262
(lp263
I52764812
aI52786791
aS'-'
asS'ZNF606'
p264
(lp265
I57977052
aI58003346
aS'-'
asS'ZNF607'
p266
(lp267
I37696362
aI37719790
aS'-'
asS'ZFR2'
p268
(lp269
I3804023
aI3869029
aS'-'
asS'GEMIN7-AS1'
p270
(lp271
I45085328
aI45090391
aS'-'
asS'KXD1'
p272
(lp273
I18557761
aI18569387
aS'+'
asS'MIR525'
p274
(lp275
I53697532
aI53697617
aS'+'
asS'TCF3'
p276
(lp277
I1609283
aI1652329
aS'-'
asS'ZNF776'
p278
(lp279
I57746795
aI57758161
aS'+'
asS'EPS8L1'
p280
(lp281
I55075852
aI55087923
aS'+'
asS'PHLDB3'
p282
(lp283
I43475102
aI43504833
aS'-'
asS'MIR524'
p284
(lp285
I53711001
aI53711088
aS'+'
asS'ATP5F1D'
p286
(lp287
I1241749
aI1244825
aS'+'
asS'PPP5C'
p288
(lp289
I46346993
aI46390975
aS'+'
asS'MEF2B'
p290
(lp291
I19145566
aI19170263
aS'-'
asS'SHISA7'
p292
(lp293
I55428737
aI55442863
aS'-'
asS'ZNF114'
p294
(lp295
I48270098
aI48287608
aS'+'
asS'ZNF112'
p296
(lp297
I44326552
aI44367215
aS'-'
asS'TMC4'
p298
(lp299
I54160095
aI54173250
aS'-'
asS'MIR527'
p300
(lp301
I53754017
aI53754102
aS'+'
asS'EPHX3'
p302
(lp303
I15226921
aI15233047
aS'-'
asS'ZNF333'
p304
(lp305
I14690039
aI14733746
aS'+'
asS'ZNF331'
p306
(lp307
I53520922
aI53580269
aS'+'
asS'CATSPERD'
p308
(lp309
I5720676
aI5778731
aS'+'
asS'NUP62'
p310
(lp311
I49906825
aI49929731
aS'-'
asS'TPM4'
p312
(lp313
I16067506
aI16103003
aS'+'
asS'CIB3'
p314
(lp315
I16161367
aI16173525
aS'-'
asS'ARID3A'
p316
(lp317
I926036
aI972803
aS'+'
asS'PLPP2'
p318
(lp319
I281039
aI291435
aS'-'
asS'NTF4'
p320
(lp321
I49061139
aI49063867
aS'-'
asS'TPM3P9'
p322
(lp323
I53431973
aI53444672
aS'+'
asS'TMEM147'
p324
(lp325
I35545599
aI35547527
aS'+'
asS'TMEM145'
p326
(lp327
I42313308
aI42325064
aS'+'
asS'TMEM143'
p328
(lp329
I48332355
aI48364237
aS'-'
asS'TRIR'
p330
(lp331
I12730639
aI12734775
aS'-'
asS'TJP3'
p332
(lp333
I3708336
aI3750813
aS'+'
asS'SNORA104'
p334
(lp335
I14622212
aI14622351
aS'+'
asS'PPAN'
p336
(lp337
I10106222
aI10112003
aS'+'
asS'OR7A5'
p338
(lp339
I14826326
aI14828464
aS'-'
asS'BABAM1'
p340
(lp341
I17267375
aI17279353
aS'+'
asS'F2RL3'
p342
(lp343
I16888859
aI16892600
aS'+'
asS'SNORD88A'
p344
(lp345
I50799438
aI50799535
aS'-'
asS'FAM32A'
p346
(lp347
I16185400
aI16192046
aS'+'
asS'SNORD88C'
p348
(lp349
I50802324
aI50802421
aS'-'
asS'XAB2'
p350
(lp351
I7619524
aI7629553
aS'-'
asS'PRDX2'
p352
(lp353
I12796819
aI12801910
aS'-'
asS'C19orf24'
p354
(lp355
I1275520
aI1279244
aS'+'
asS'C19orf25'
p356
(lp357
I1473200
aI1479229
aS'-'
asS'MIR181D'
p358
(lp359
I13874874
aI13875011
aS'+'
asS'MIR181C'
p360
(lp361
I13874698
aI13874808
aS'+'
asS'SYCN'
p362
(lp363
I39202830
aI39204266
aS'-'
asS'ZNF8'
p364
(lp365
I58278951
aI58295888
aS'+'
asS'MIR3940'
p366
(lp367
I6416409
aI6416511
aS'-'
asS'MIR8061'
p368
(lp369
I54645308
aI54645383
aS'+'
asS'ZNF559-ZNF177'
p370
(lp371
I9324225
aI9382617
aS'+'
asS'SULT2A1'
p372
(lp373
I47870465
aI47886397
aS'-'
asS'AP2A1'
p374
(lp375
I49766922
aI49807112
aS'+'
asS'PBX4'
p376
(lp377
I19561706
aI19618916
aS'-'
asS'CYTH2'
p378
(lp379
I48469207
aI48482314
aS'+'
asS'IGLON5'
p380
(lp381
I51311847
aI51330868
aS'+'
asS'LILRB1'
p382
(lp383
I54616929
aI54637530
aS'+'
asS'LOC100128568'
p384
(lp385
I5978402
aI6020363
aS'+'
asS'DEDD2'
p386
(lp387
I42198592
aI42220152
aS'-'
asS'ARHGAP33'
p388
(lp389
I35775514
aI35788822
aS'+'
asS'ARHGAP35'
p390
(lp391
I46918675
aI47005076
aS'+'
asS'BCKDHA'
p392
(lp393
I41397788
aI41425005
aS'+'
asS'ZNF808'
p394
(lp395
I52527655
aI52556050
aS'+'
asS'LINC01842'
p396
(lp397
I14333742
aI14343913
aS'+'
asS'TIMM44'
p398
(lp399
I7926717
aI7943666
aS'-'
asS'LINC01841'
p400
(lp401
I14305457
aI14363990
aS'-'
asS'CKM'
p402
(lp403
I45306412
aI45322875
aS'-'
asS'KMT5C'
p404
(lp405
I55339875
aI55348121
aS'+'
asS'CD33'
p406
(lp407
I51225078
aI51240019
aS'+'
asS'MAMSTR'
p408
(lp409
I48712997
aI48719719
aS'-'
asS'CD37'
p410
(lp411
I49335419
aI49340604
aS'+'
asS'ZNF321P'
p412
(lp413
I52927134
aI52942594
aS'-'
asS'DM1-AS'
p414
(lp415
I45767795
aI45771883
aS'+'
asS'NAT14'
p416
(lp417
I55485189
aI55487568
aS'+'
asS'CALM3'
p418
(lp419
I46601073
aI46610782
aS'+'
asS'CACNA1A'
p420
(lp421
I13206442
aI13506460
aS'-'
asS'DNMT1'
p422
(lp423
I10133343
aI10195135
aS'-'
asS'UPK1A'
p424
(lp425
I35666515
aI35678485
aS'+'
asS'WDR62'
p426
(lp427
I36054880
aI36105110
aS'+'
asS'A1BG'
p428
(lp429
I58346805
aI58353499
aS'-'
asS'FCAR'
p430
(lp431
I54874092
aI54891420
aS'+'
asS'TRIM28'
p432
(lp433
I58544468
aI58550715
aS'+'
asS'PNKP'
p434
(lp435
I49861203
aI49867576
aS'-'
asS'R3HDM4'
p436
(lp437
I896502
aI913225
aS'-'
asS'PRMT1'
p438
(lp439
I49677151
aI49688450
aS'+'
asS'BRD4'
p440
(lp441
I15252994
aI15332543
aS'-'
asS'RBM42'
p442
(lp443
I35629015
aI35637686
aS'+'
asS'FCER2'
p444
(lp445
I7688756
aI7702146
aS'-'
asS'MIR150'
p446
(lp447
I49500784
aI49500868
aS'-'
asS'AKT2'
p448
(lp449
I40230316
aI40285395
aS'-'
asS'PIH1D1'
p450
(lp451
I49446297
aI49451814
aS'-'
asS'AES'
p452
(lp453
I3052909
aI3062966
aS'-'
asS'CD209'
p454
(lp455
I7739994
aI7747578
aS'-'
asS'LAIR1'
p456
(lp457
I54353623
aI54370556
aS'-'
asS'OR10H4'
p458
(lp459
I15949007
aI15949958
aS'+'
asS'ZNF850'
p460
(lp461
I36743477
aI36772814
aS'-'
asS'TDRD12'
p462
(lp463
I32719766
aI32829579
aS'+'
asS'ZSCAN1'
p464
(lp465
I58034065
aI58054631
aS'+'
asS'PPM1N'
p466
(lp467
I45498472
aI45502506
aS'+'
asS'MADCAM1'
p468
(lp469
I496485
aI505343
aS'+'
asS'ZFP30'
p470
(lp471
I37631008
aI37656261
aS'-'
asS'TSHZ3'
p472
(lp473
I31149869
aI31349525
aS'-'
asS'ZNF581'
p474
(lp475
I55643619
aI55645623
aS'+'
asS'ZNF580'
p476
(lp477
I55641025
aI55643470
aS'+'
asS'MRPL4'
p478
(lp479
I10251963
aI10260060
aS'+'
asS'ZNF582'
p480
(lp481
I56382750
aI56393601
aS'-'
asS'ZNF584'
p482
(lp483
I58408648
aI58418325
aS'+'
asS'BORCS8-MEF2B'
p484
(lp485
I19145566
aI19192591
aS'-'
asS'ZNF586'
p486
(lp487
I57769651
aI57780616
aS'+'
asS'PTH2'
p488
(lp489
I49422413
aI49423441
aS'-'
asS'ZNF611'
p490
(lp491
I52702812
aI52735054
aS'-'
asS'ZNF610'
p492
(lp493
I52336244
aI52367123
aS'+'
asS'ZNF613'
p494
(lp495
I51927471
aI51946621
aS'+'
asS'ZNF615'
p496
(lp497
I51991333
aI52008230
aS'-'
asS'ZNF614'
p498
(lp499
I52013323
aI52028379
aS'-'
asS'ZNF616'
p500
(lp501
I52113090
aI52139938
aS'-'
asS'NANOS3'
p502
(lp503
I13862062
aI13880757
aS'+'
asS'NANOS2'
p504
(lp505
I45913214
aI45914778
aS'-'
asS'ZNF350-AS1'
p506
(lp507
I51949133
aI51981367
aS'+'
asS'MYDGF'
p508
(lp509
I4657544
aI4670403
aS'-'
asS'MBD3L1'
p510
(lp511
I8842592
aI8843340
aS'+'
asS'MBD3L2'
p512
(lp513
I7049339
aI7051735
aS'+'
asS'MBD3L3'
p514
(lp515
I7056204
aI7058634
aS'-'
asS'MBD3L4'
p516
(lp517
I7037743
aI7040173
aS'-'
asS'MBD3L5'
p518
(lp519
I7030582
aI7033011
aS'+'
asS'MYO1F'
p520
(lp521
I8520789
aI8577447
aS'-'
asS'EVI5L'
p522
(lp523
I7830274
aI7864976
aS'+'
asS'ADAMTS10'
p524
(lp525
I8580239
aI8610715
aS'-'
asS'RPS5'
p526
(lp527
I58387268
aI58394804
aS'+'
asS'DHDH'
p528
(lp529
I48933681
aI48944969
aS'+'
asS'CYP2S1'
p530
(lp531
I41193206
aI41207539
aS'+'
asS'MIR24-2'
p532
(lp533
I13836286
aI13836359
aS'-'
asS'RPS9'
p534
(lp535
I54200857
aI54207647
aS'+'
asS'CD79A'
p536
(lp537
I41877119
aI41881372
aS'+'
asS'CNTD2'
p538
(lp539
I40222207
aI40226690
aS'-'
asS'GMFG'
p540
(lp541
I39328356
aI39336086
aS'-'
asS'NAPA-AS1'
p542
(lp543
I47484281
aI47501597
aS'+'
asS'AKAP8L'
p544
(lp545
I15380047
aI15419121
aS'-'
asS'TMEM205'
p546
(lp547
I11342775
aI11346305
aS'-'
asS'ERCC1'
p548
(lp549
I45407332
aI45423919
aS'-'
asS'C3'
p550
(lp551
I6677834
aI6720682
aS'-'
asS'ZNF101'
p552
(lp553
I19668152
aI19683506
aS'+'
asS'ZNF100'
p554
(lp555
I21722770
aI21767579
aS'-'
asS'TSSK6'
p556
(lp557
I19514218
aI19515660
aS'-'
asS'ZNF324'
p558
(lp559
I58467044
aI58473578
aS'+'
asS'LOC101928804'
p560
(lp561
I54785868
aI54835292
aS'-'
asS'GALP'
p562
(lp563
I56176019
aI56185775
aS'+'
asS'ZNF320'
p564
(lp565
I52859490
aI52897694
aS'-'
asS'ZNF329'
p566
(lp567
I58126327
aI58150781
aS'-'
asS'IGSF23'
p568
(lp569
I44613629
aI44636781
aS'+'
asS'LGALS7'
p570
(lp571
I38770967
aI38773517
aS'-'
asS'LGALS4'
p572
(lp573
I38801670
aI38813100
aS'-'
asS'CYP4F22'
p574
(lp575
I15508524
aI15552317
aS'+'
asS'MIR526B'
p576
(lp577
I53694392
aI53694475
aS'+'
asS'RFPL4A'
p578
(lp579
I55759140
aI55763175
aS'+'
asS'PLAUR'
p580
(lp581
I43646094
aI43670346
aS'-'
asS'NLRP12'
p582
(lp583
I53793600
aI53824403
aS'-'
asS'SNORA118'
p584
(lp585
I17092234
aI17092365
aS'+'
asS'LRRC25'
p586
(lp587
I18391143
aI18397605
aS'-'
asS'GCDH'
p588
(lp589
I12891128
aI12899999
aS'+'
asS'KIR2DL3'
p590
(lp591
I54738508
aI54753052
aS'+'
asS'LYPD4'
p592
(lp593
I41837073
aI41844673
aS'-'
asS'LYPD5'
p594
(lp595
I43795926
aI43820656
aS'-'
asS'LYPD3'
p596
(lp597
I43460793
aI43465679
aS'-'
asS'ERVK3-1'
p598
(lp599
I58305373
aI58315657
aS'+'
asS'MBD3L2B'
p600
(lp601
I7049339
aI7051612
aS'+'
asS'SNORA68B'
p602
(lp603
I32608336
aI32608469
aS'-'
asS'ZNF350'
p604
(lp605
I51964339
aI51986826
aS'-'
asS'MPND'
p606
(lp607
I4343526
aI4360086
aS'+'
asS'PEAK3'
p608
(lp609
I2274631
aI2282182
aS'-'
asS'CEBPA'
p610
(lp611
I33299933
aI33302564
aS'-'
asS'HPN'
p612
(lp613
I35040505
aI35066573
aS'+'
asS'C19orf33'
p614
(lp615
I38304160
aI38305006
aS'+'
asS'LINC01785'
p616
(lp617
I22615556
aI22623971
aS'-'
asS'CATSPERG'
p618
(lp619
I38335786
aI38370949
aS'+'
asS'C19orf38'
p620
(lp621
I10848414
aI10869790
aS'+'
asS'LINC01782'
p622
(lp623
I32102090
aI32105916
aS'-'
asS'ANKLE1'
p624
(lp625
I17281644
aI17287646
aS'+'
asS'MZF1'
p626
(lp627
I58561916
aI58573575
aS'-'
asS'RHPN2'
p628
(lp629
I32978591
aI33064918
aS'-'
asS'LOC105372397'
p630
(lp631
I38596346
aI38601694
aS'+'
asS'MIR373'
p632
(lp633
I53788704
aI53788773
aS'+'
asS'SRRM5'
p634
(lp635
I43612100
aI43614498
aS'+'
asS'OAZ1'
p636
(lp637
I2269485
aI2273488
aS'+'
asS'KLKP1'
p638
(lp639
I50882095
aI50896398
aS'-'
asS'KANK2'
p640
(lp641
I11164266
aI11197567
aS'-'
asS'KANK3'
p642
(lp643
I8322583
aI8343262
aS'-'
asS'RDH13'
p644
(lp645
I55044323
aI55069546
aS'-'
asS'RSPH6A'
p646
(lp647
I45795712
aI45815308
aS'-'
asS'FXYD7'
p648
(lp649
I35143249
aI35154302
aS'+'
asS'FXYD5'
p650
(lp651
I35154721
aI35169885
aS'+'
asS'FXYD3'
p652
(lp653
I35115827
aI35124324
aS'+'
asS'FXYD1'
p654
(lp655
I35138788
aI35143055
aS'+'
asS'KLK12'
p656
(lp657
I51029091
aI51034892
aS'-'
asS'KLK13'
p658
(lp659
I51055625
aI51065110
aS'-'
asS'KLK10'
p660
(lp661
I51012743
aI51020175
aS'-'
asS'KLK11'
p662
(lp663
I51022230
aI51028034
aS'-'
asS'KLK14'
p664
(lp665
I51077493
aI51084210
aS'-'
asS'KLK15'
p666
(lp667
I50825288
aI50831523
aS'-'
asS'PLIN4'
p668
(lp669
I4502179
aI4517704
aS'-'
asS'PLIN5'
p670
(lp671
I4522530
aI4535196
aS'-'
asS'PLIN3'
p672
(lp673
I4838333
aI4867768
aS'-'
asS'PLVAP'
p674
(lp675
I17351447
aI17377349
aS'-'
asS'LINC01872'
p676
(lp677
I51271265
aI51281234
aS'+'
asS'ZSCAN22'
p678
(lp679
I58327018
aI58342346
aS'+'
asS'CYP2A13'
p680
(lp681
I41088450
aI41096195
aS'+'
asS'CD22'
p682
(lp683
I35329168
aI35347361
aS'+'
asS'IFI30'
p684
(lp685
I18173779
aI18178124
aS'+'
asS'ABHD8'
p686
(lp687
I17292130
aI17303473
aS'-'
asS'NUCB1'
p688
(lp689
I48900049
aI48923283
aS'+'
asS'URI1'
p690
(lp691
I29923643
aI30016612
aS'+'
asS'GPR4'
p692
(lp693
I45589764
aI45602208
aS'-'
asS'PSG8'
p694
(lp695
I42752686
aI42765679
aS'-'
asS'PSG9'
p696
(lp697
I43253281
aI43269563
aS'-'
asS'PSG6'
p698
(lp699
I42902081
aI42917924
aS'-'
asS'PSG7'
p700
(lp701
I42924131
aI42937178
aS'-'
asS'PSG4'
p702
(lp703
I43192701
aI43205774
aS'-'
asS'PSG5'
p704
(lp705
I43167742
aI43186536
aS'-'
asS'PSG2'
p706
(lp707
I43064208
aI43082701
aS'-'
asS'PSG3'
p708
(lp709
I42721641
aI42740516
aS'-'
asS'PSG1'
p710
(lp711
I42866460
aI42879822
aS'-'
asS'PTOV1'
p712
(lp713
I49850704
aI49860744
aS'+'
asS'USHBP1'
p714
(lp715
I17250020
aI17264796
aS'-'
asS'HCST'
p716
(lp717
I35902479
aI35904271
aS'+'
asS'MIR639'
p718
(lp719
I14529542
aI14529640
aS'+'
asS'MIR638'
p720
(lp721
I10718403
aI10718503
aS'+'
asS'PLEKHJ1'
p722
(lp723
I2229951
aI2236353
aS'-'
asS'MIR637'
p724
(lp725
I3961413
aI3961512
aS'-'
asS'ZNF585A'
p726
(lp727
I37147437
aI37172741
aS'-'
asS'LSM4'
p728
(lp729
I18306229
aI18323191
aS'-'
asS'ZNF585B'
p730
(lp731
I37181578
aI37210549
aS'-'
asS'PEG3-AS1'
p732
(lp733
I56812479
aI56813793
aS'+'
asS'RCN3'
p734
(lp735
I49527617
aI49543633
aS'+'
asS'CENPBD1P1'
p736
(lp737
I58575398
aI58584395
aS'+'
asS'LOC93429'
p738
(lp739
I46210241
aI46214837
aS'+'
asS'CAPS'
p740
(lp741
I5914253
aI5916211
aS'+'
asS'POLR2E'
p742
(lp743
I1086578
aI1095392
aS'-'
asS'ZNF823'
p744
(lp745
I11721264
aI11739009
aS'-'
asS'ANKRD24'
p746
(lp747
I4183353
aI4224814
aS'+'
asS'ZNF829'
p748
(lp749
I36888123
aI36916291
aS'-'
asS'POLR2I'
p750
(lp751
I36113708
aI36114875
aS'-'
asS'ETHE1'
p752
(lp753
I43506718
aI43527256
aS'-'
asS'NUCB1-AS1'
p754
(lp755
I48910929
aI48918891
aS'-'
asS'POLRMT'
p756
(lp757
I617222
aI633568
aS'-'
asS'CEACAM19'
p758
(lp759
I44671451
aI44684355
aS'+'
asS'MIR523'
p760
(lp761
I53698384
aI53698471
aS'+'
asS'MIR522'
p762
(lp763
I53751210
aI53751297
aS'+'
asS'ZNF137P'
p764
(lp765
I52596683
aI52600152
aS'+'
asS'MATK'
p766
(lp767
I3777968
aI3801812
aS'-'
asS'DDA1'
p768
(lp769
I17309527
aI17323297
aS'+'
asS'GAMT'
p770
(lp771
I1397025
aI1401570
aS'-'
asS'TGFBR3L'
p772
(lp773
I7916146
aI7919095
aS'+'
asS'SHKBP1'
p774
(lp775
I40576850
aI40591399
aS'+'
asS'ZNF71'
p776
(lp777
I56595295
aI56624176
aS'+'
asS'FFAR1'
p778
(lp779
I35351541
aI35352464
aS'+'
asS'ZNF628'
p780
(lp781
I55476331
aI55484487
aS'+'
asS'ZNF625'
p782
(lp783
I12144893
aI12156731
aS'-'
asS'ZNF626'
p784
(lp785
I20619938
aI20661571
aS'-'
asS'ZNF627'
p786
(lp787
I11597419
aI11619159
aS'+'
asS'CYP2B6'
p788
(lp789
I40991281
aI41018398
aS'+'
asS'NECTIN2'
p790
(lp791
I44846135
aI44889228
aS'+'
asS'ZNF571-AS1'
p792
(lp793
I37548948
aI37587347
aS'+'
asS'ZNF66'
p794
(lp795
I20776303
aI20809995
aS'+'
asS'MIR1283-1'
p796
(lp797
I53688480
aI53688567
aS'+'
asS'MIR1283-2'
p798
(lp799
I53758231
aI53758318
aS'+'
asS'OR1M1'
p800
(lp801
I9093244
aI9094186
aS'+'
asS'CEACAM22P'
p802
(lp803
I44537057
aI44556917
aS'-'
asS'ATCAY'
p804
(lp805
I3880619
aI3928082
aS'+'
asS'ZNF480'
p806
(lp807
I52297168
aI52325927
aS'+'
asS'ZNF486'
p808
(lp809
I20167213
aI20200490
aS'+'
asS'PRKACA'
p810
(lp811
I14091694
aI14117747
aS'-'
asS'TMEM238'
p812
(lp813
I55379243
aI55384259
aS'-'
asS'PIAS4'
p814
(lp815
I4007597
aI4039386
aS'+'
asS'ZNF132'
p816
(lp817
I58432813
aI58440222
aS'-'
asS'ZNF134'
p818
(lp819
I57614218
aI57624717
aS'+'
asS'ZNF135'
p820
(lp821
I58059238
aI58069742
aS'+'
asS'ZNF136'
p822
(lp823
I12163046
aI12189881
aS'+'
asS'ZNF317'
p824
(lp825
I9140379
aI9163415
aS'+'
asS'JUNB'
p826
(lp827
I12791495
aI12793311
aS'+'
asS'JUND'
p828
(lp829
I18279693
aI18281656
aS'-'
asS'OVOL3'
p830
(lp831
I36111202
aI36113711
aS'+'
asS'SWSAP1'
p832
(lp833
I11374706
aI11376951
aS'+'
asS'HSPBP1'
p834
(lp835
I55262222
aI55280383
aS'-'
asS'SNORD23'
p836
(lp837
I47755852
aI47755962
aS'+'
asS'BCL2L12'
p838
(lp839
I49665141
aI49673916
aS'+'
asS'TMIGD2'
p840
(lp841
I4292227
aI4302431
aS'-'
asS'KCNK6'
p842
(lp843
I38319844
aI38329009
aS'+'
asS'ZNF556'
p844
(lp845
I2867334
aI2878505
aS'+'
asS'ZNF557'
p846
(lp847
I7069459
aI7087967
aS'+'
asS'ZNF554'
p848
(lp849
I2819873
aI2836735
aS'+'
asS'ZNF555'
p850
(lp851
I2841434
aI2860474
aS'+'
asS'ZNF552'
p852
(lp853
I57807081
aI57814913
aS'-'
asS'ZNF550'
p854
(lp855
I57541835
aI57559863
aS'-'
asS'ZNF551'
p856
(lp857
I57681976
aI57690648
aS'+'
asS'ZNF790'
p858
(lp859
I36818321
aI36850787
aS'-'
asS'NACC1'
p860
(lp861
I13118263
aI13141147
aS'+'
asS'SIN3B'
p862
(lp863
I16829386
aI16880353
aS'+'
asS'ZNF558'
p864
(lp865
I8809575
aI8832304
aS'-'
asS'ZNF91'
p866
(lp867
I23357695
aI23395560
aS'-'
asS'TMPRSS9'
p868
(lp869
I2389770
aI2426258
aS'+'
asS'ISYNA1'
p870
(lp871
I18434387
aI18438301
aS'-'
asS'PPAN-P2RY11'
p872
(lp873
I10106222
aI10115388
aS'+'
asS'HOOK2'
p874
(lp875
I12763002
aI12775620
aS'-'
asS'ZNF93'
p876
(lp877
I19900912
aI19935573
aS'+'
asS'TMEM160'
p878
(lp879
I47045908
aI47048624
aS'-'
asS'DENND1C'
p880
(lp881
I6467203
aI6481808
aS'-'
asS'RPL36'
p882
(lp883
I5690294
aI5691875
aS'+'
asS'ZNF799'
p884
(lp885
I12390013
aI12401274
aS'-'
asS'GNA15'
p886
(lp887
I3136031
aI3163769
aS'+'
asS'ZNF653'
p888
(lp889
I11483426
aI11505923
aS'-'
asS'GRIN2D'
p890
(lp891
I48394874
aI48444931
aS'+'
asS'GNA11'
p892
(lp893
I3094409
aI3124002
aS'+'
asS'ATF5'
p894
(lp895
I49928701
aI49933936
aS'+'
asS'PSG11'
p896
(lp897
I43007656
aI43026479
aS'-'
asS'AP1M2'
p898
(lp899
I10572670
aI10587315
aS'-'
asS'AP1M1'
p900
(lp901
I16197853
aI16235345
aS'+'
asS'TARM1'
p902
(lp903
I54069946
aI54081365
aS'-'
asS'MIR519E'
p904
(lp905
I53679939
aI53680023
aS'+'
asS'ZIM2-AS1'
p906
(lp907
I56765321
aI56799646
aS'+'
asS'MIR519B'
p908
(lp909
I53695212
aI53695293
aS'+'
asS'SNORD135'
p910
(lp911
I12703596
aI12703671
aS'-'
asS'LINC01791'
p912
(lp913
I31167509
aI31207663
aS'+'
asS'BLOC1S3'
p914
(lp915
I45178744
aI45181801
aS'+'
asS'SMIM17'
p916
(lp917
I56643158
aI56657246
aS'+'
asS'LOC105372383'
p918
(lp919
I35947114
aI35964070
aS'+'
asS'SMG9'
p920
(lp921
I43727996
aI43755036
aS'-'
asS'PTGER1'
p922
(lp923
I14472465
aI14475362
aS'-'
asS'GRWD1'
p924
(lp925
I48445772
aI48453907
aS'+'
asS'MIR8077'
p926
(lp927
I42351130
aI42351205
aS'+'
asS'MIR8074'
p928
(lp929
I51206928
aI51207009
aS'-'
asS'LHB'
p930
(lp931
I49015979
aI49017090
aS'-'
asS'BCAT2'
p932
(lp933
I48795061
aI48811063
aS'-'
asS'ZNF417'
p934
(lp935
I57905773
aI57916616
aS'-'
asS'COQ8B'
p936
(lp937
I40691528
aI40716885
aS'-'
asS'GMIP'
p938
(lp939
I19629472
aI19643667
aS'-'
asS'CXCL17'
p940
(lp941
I42428537
aI42443048
aS'-'
asS'GTF2F1'
p942
(lp943
I6379568
aI6393280
aS'-'
asS'CD3EAP'
p944
(lp945
I45406208
aI45410766
aS'+'
asS'TUBB4A'
p946
(lp947
I6494318
aI6502848
aS'-'
asS'HCN2'
p948
(lp949
I589892
aI617159
aS'+'
asS'AKAP8'
p950
(lp951
I15353520
aI15379801
aS'-'
asS'LINC01864'
p952
(lp953
I56066683
aI56078800
aS'+'
asS'ZNF416'
p954
(lp955
I57571565
aI57578927
aS'-'
asS'LOC284412'
p956
(lp957
I37265938
aI37269010
aS'-'
asS'CYP4F24P'
p958
(lp959
I15759333
aI15779988
aS'-'
asS'LINC01869'
p960
(lp961
I50817680
aI50818878
aS'+'
asS'ANO8'
p962
(lp963
I17323222
aI17334829
aS'-'
asS'NOVA2'
p964
(lp965
I45933733
aI45973399
aS'-'
asS'CELF5'
p966
(lp967
I3224702
aI3297075
aS'+'
asS'RLN3'
p968
(lp969
I14028147
aI14031558
aS'+'
asS'MIR3189'
p970
(lp971
I18386561
aI18386634
aS'+'
asS'MIR3188'
p972
(lp973
I18282076
aI18282161
aS'+'
asS'MIR3187'
p974
(lp975
I813583
aI813653
aS'+'
asS'NKG7'
p976
(lp977
I51371619
aI51372706
aS'-'
asS'MIR1909'
p978
(lp979
I1816158
aI1816238
aS'-'
asS'PEPD'
p980
(lp981
I33386948
aI33521893
aS'-'
asS'SNAR-G1'
p982
(lp983
I49037019
aI49037147
aS'+'
asS'SNAR-G2'
p984
(lp985
I49031668
aI49031787
aS'-'
asS'JAK3'
p986
(lp987
I17824783
aI17848032
aS'-'
asS'MRI1'
p988
(lp989
I13764513
aI13774282
aS'+'
asS'CCL25'
p990
(lp991
I8052761
aI8062663
aS'+'
asS'NR1H2'
p992
(lp993
I50376456
aI50383028
aS'+'
asS'MAU2'
p994
(lp995
I19320820
aI19358754
aS'+'
asS'LOC100631378'
p996
(lp997
I37823722
aI37855196
aS'-'
asS'ZNF383'
p998
(lp999
I37217925
aI37243924
aS'+'
asS'ANKRD27'
p1000
(lp1001
I32597000
aI32675196
aS'-'
asS'CAMSAP3'
p1002
(lp1003
I7595901
aI7618310
aS'+'
asS'LOC728485'
p1004
(lp1005
I36773117
aI36777078
aS'+'
asS'PRPF31'
p1006
(lp1007
I54115409
aI54131719
aS'+'
asS'WDR83OS'
p1008
(lp1009
I12668072
aI12669415
aS'-'
asS'ACP4'
p1010
(lp1011
I50790414
aI50795224
aS'+'
asS'ACP5'
p1012
(lp1013
I11574659
aI11579008
aS'-'
asS'CBARP'
p1014
(lp1015
I1229947
aI1237991
aS'-'
asS'SNORA68'
p1016
(lp1017
I17862587
aI17862720
aS'+'
asS'ZNF837'
p1018
(lp1019
I58367622
aI58381022
aS'-'
asS'ZNF836'
p1020
(lp1021
I52154106
aI52171683
aS'-'
asS'MIR516B2'
p1022
(lp1023
I53725441
aI53725526
aS'+'
asS'NR2F6'
p1024
(lp1025
I17231884
aI17245342
aS'-'
asS'CIRBP-AS1'
p1026
(lp1027
I1267470
aI1270260
aS'-'
asS'MIR516B1'
p1028
(lp1029
I53736844
aI53736934
aS'+'
asS'RAB11B-AS1'
p1030
(lp1031
I8374375
aI8390691
aS'-'
asS'MIR99B'
p1032
(lp1033
I51692611
aI51692681
aS'+'
asS'BSG'
p1034
(lp1035
I571276
aI583493
aS'+'
asS'OR4F17'
p1036
(lp1037
I110678
aI111596
aS'+'
asS'ZNF83'
p1038
(lp1039
I52612364
aI52690581
aS'-'
asS'ZNF85'
p1040
(lp1041
I20923252
aI20950697
aS'+'
asS'LDLR'
p1042
(lp1043
I11089361
aI11133829
aS'+'
asS'ZNF470'
p1044
(lp1045
I56567520
aI56582894
aS'+'
asS'SLC27A5'
p1046
(lp1047
I58498332
aI58512065
aS'-'
asS'JSRP1'
p1048
(lp1049
I2252250
aI2256423
aS'-'
asS'PRAM1'
p1050
(lp1051
I8490055
aI8502654
aS'-'
asS'GP6'
p1052
(lp1053
I55013706
aI55038264
aS'-'
asS'SLC17A7'
p1054
(lp1055
I49429397
aI49441551
aS'-'
asS'TBCB'
p1056
(lp1057
I36114985
aI36125948
aS'+'
asS'EDDM13'
p1058
(lp1059
I56272768
aI56310426
aS'+'
asS'FIZ1'
p1060
(lp1061
I55591370
aI55599527
aS'-'
asS'EBI3'
p1062
(lp1063
I4229542
aI4237527
aS'+'
asS'PRKD2'
p1064
(lp1065
I46674315
aI46717127
aS'-'
asS'BAX'
p1066
(lp1067
I48954859
aI48961798
aS'+'
asS'ZNF497'
p1068
(lp1069
I58354356
aI58362848
aS'-'
asS'ERF'
p1070
(lp1071
I42247560
aI42255164
aS'-'
asS'ZNF493'
p1072
(lp1073
I21397118
aI21427494
aS'+'
asS'ZNF492'
p1074
(lp1075
I22634323
aI22667670
aS'+'
asS'ZNF491'
p1076
(lp1077
I11798575
aI11808491
aS'+'
asS'MIR1238'
p1078
(lp1079
I10552121
aI10552204
aS'+'
asS'GIPR'
p1080
(lp1081
I45668243
aI45683724
aS'+'
asS'MZF1-AS1'
p1082
(lp1083
I58559185
aI58574797
aS'+'
asS'SHC2'
p1084
(lp1085
I416582
aI460996
aS'-'
asS'ZNF121'
p1086
(lp1087
I9565727
aI9584533
aS'-'
asS'SELENOW'
p1088
(lp1089
I47778571
aI47784681
aS'+'
asS'SELENOV'
p1090
(lp1091
I39515112
aI39520686
aS'+'
asS'GRIN3B'
p1092
(lp1093
I1000418
aI1009732
aS'+'
asS'KLF2'
p1094
(lp1095
I16324825
aI16328662
aS'+'
asS'KLF1'
p1096
(lp1097
I12884422
aI12887203
aS'-'
asS'FPR1'
p1098
(lp1099
I51745769
aI51751897
aS'-'
asS'TMEM221'
p1100
(lp1101
I17435508
aI17448668
aS'-'
asS'PSMC4'
p1102
(lp1103
I39971004
aI39981764
aS'+'
asS'ZNF304'
p1104
(lp1105
I57351273
aI57359897
aS'+'
asS'FBN3'
p1106
(lp1107
I8065401
aI8149846
aS'-'
asS'NCR1'
p1108
(lp1109
I54906149
aI54913071
aS'+'
asS'OR2Z1'
p1110
(lp1111
I8730953
aI8732009
aS'+'
asS'RNF126'
p1112
(lp1113
I647525
aI663233
aS'-'
asS'TRIP10'
p1114
(lp1115
I6739681
aI6751526
aS'+'
asS'MEX3D'
p1116
(lp1117
I1554668
aI1568058
aS'-'
asS'MIR4999'
p1118
(lp1119
I8389289
aI8389380
aS'-'
asS'MIR4531'
p1120
(lp1121
I44653685
aI44653732
aS'-'
asS'SNORD37'
p1122
(lp1123
I3982506
aI3982572
aS'-'
asS'SNORD34'
p1124
(lp1125
I49490906
aI49490972
aS'+'
asS'SNORD33'
p1126
(lp1127
I49490616
aI49490699
aS'+'
asS'NCLN'
p1128
(lp1129
I3185876
aI3209575
aS'+'
asS'MAP3K10'
p1130
(lp1131
I40191743
aI40215575
aS'+'
asS'ZNF544'
p1132
(lp1133
I58228680
aI58277492
aS'+'
asS'ZNF547'
p1134
(lp1135
I57363434
aI57379557
aS'+'
asS'ZNF546'
p1136
(lp1137
I39997035
aI40021041
aS'+'
asS'ZNF541'
p1138
(lp1139
I47520684
aI47573112
aS'-'
asS'ZNF540'
p1140
(lp1141
I37551370
aI37614178
aS'+'
asS'PET100'
p1142
(lp1143
I7629784
aI7631624
aS'+'
asS'SLC1A5'
p1144
(lp1145
I46774882
aI46788594
aS'-'
asS'SLC1A6'
p1146
(lp1147
I14950032
aI15010643
aS'-'
asS'ZNF549'
p1148
(lp1149
I57527324
aI57540876
aS'+'
asS'MIR516A2'
p1150
(lp1151
I53761132
aI53761222
aS'+'
asS'MIR516A1'
p1152
(lp1153
I53756740
aI53756830
aS'+'
asS'MIR4752'
p1154
(lp1155
I54282108
aI54282180
aS'+'
asS'MIR4751'
p1156
(lp1157
I49933063
aI49933137
aS'+'
asS'LIN7B'
p1158
(lp1159
I49114360
aI49118460
aS'+'
asS'MIR4754'
p1160
(lp1161
I58386769
aI58386858
aS'-'
asS'MARCH2'
p1162
(lp1163
I8413302
aI8439015
aS'+'
asS'ZNF702P'
p1164
(lp1165
I52968250
aI52993531
aS'-'
asS'EIF3K'
p1166
(lp1167
I38619071
aI38636959
aS'+'
asS'B3GNT3'
p1168
(lp1169
I17795109
aI17813576
aS'+'
asS'RPL18'
p1170
(lp1171
I48615326
aI48619418
aS'-'
asS'B3GNT8'
p1172
(lp1173
I41425358
aI41428730
aS'-'
asS'EIF3G'
p1174
(lp1175
I10115013
aI10119924
aS'-'
asS'ADGRE4P'
p1176
(lp1177
I6952499
aI6990846
aS'-'
asS'DYRK1B'
p1178
(lp1179
I39825346
aI39834233
aS'-'
asS'ELSPBP1'
p1180
(lp1181
I47994650
aI48025153
aS'+'
asS'YIPF2'
p1182
(lp1183
I10922767
aI10929012
aS'-'
asS'CDKN2D'
p1184
(lp1185
I10566461
aI10568979
aS'-'
asS'CCDC151'
p1186
(lp1187
I11420604
aI11435782
aS'-'
asS'YIF1B'
p1188
(lp1189
I38303559
aI38315966
aS'-'
asS'CCDC155'
p1190
(lp1191
I49388217
aI49417999
aS'+'
asS'CCDC159'
p1192
(lp1193
I11346518
aI11354944
aS'+'
asS'HOMER3'
p1194
(lp1195
I18929200
aI18941232
aS'-'
asS'HRC'
p1196
(lp1197
I49151198
aI49155424
aS'-'
asS'LRRC4B'
p1198
(lp1199
I50516892
aI50568045
aS'-'
asS'LINC01529'
p1200
(lp1201
I35788875
aI35797909
aS'-'
asS'SYT3'
p1202
(lp1203
I50621976
aI50639835
aS'-'
asS'SYT5'
p1204
(lp1205
I55173100
aI55180352
aS'-'
asS'UBA52'
p1206
(lp1207
I18571729
aI18577460
aS'+'
asS'CNFN'
p1208
(lp1209
I42387018
aI42390292
aS'-'
asS'MIR8085'
p1210
(lp1211
I44758656
aI44758721
aS'+'
asS'TNFAIP8L1'
p1212
(lp1213
I4639514
aI4655568
aS'+'
asS'LOC644189'
p1214
(lp1215
I36421173
aI36422897
aS'+'
asS'MIR7-3HG'
p1216
(lp1217
I4769104
aI4772556
aS'+'
asS'IGFL3'
p1218
(lp1219
I46120070
aI46124674
aS'-'
asS'IGFL2'
p1220
(lp1221
I46147781
aI46161304
aS'+'
asS'IGFL1'
p1222
(lp1223
I46229751
aI46231243
aS'+'
asS'EXOSC5'
p1224
(lp1225
I41386370
aI41397351
aS'-'
asS'YJEFN3'
p1226
(lp1227
I19528860
aI19537584
aS'+'
asS'ADAMTSL5'
p1228
(lp1229
I1505017
aI1513189
aS'-'
asS'TULP2'
p1230
(lp1231
I48880964
aI48898739
aS'-'
asS'MIR512-2'
p1232
(lp1233
I53669156
aI53669254
aS'+'
asS'CEACAM1'
p1234
(lp1235
I42507305
aI42528509
aS'-'
asS'CEACAM3'
p1236
(lp1237
I41796589
aI41811553
aS'+'
asS'CEACAM5'
p1238
(lp1239
I41708584
aI41730421
aS'+'
asS'CEACAM4'
p1240
(lp1241
I41618970
aI41627074
aS'-'
asS'CEACAM7'
p1242
(lp1243
I41673306
aI41688277
aS'-'
asS'CEACAM6'
p1244
(lp1245
I41755519
aI41772208
aS'+'
asS'CEACAM8'
p1246
(lp1247
I42580242
aI42594930
aS'-'
asS'PPP1R14A'
p1248
(lp1249
I38251236
aI38256591
aS'-'
asS'PALM3'
p1250
(lp1251
I14053366
aI14062076
aS'-'
asS'SSC5D'
p1252
(lp1253
I55488502
aI55519099
aS'+'
asS'ZNF274'
p1254
(lp1255
I58182988
aI58213562
aS'+'
asS'ZNF582-AS1'
p1256
(lp1257
I56393675
aI56399175
aS'+'
asS'MIR3190'
p1258
(lp1259
I47226941
aI47227021
aS'+'
asS'MIR3191'
p1260
(lp1261
I47226943
aI47227019
aS'-'
asS'HDGFL2'
p1262
(lp1263
I4472195
aI4502220
aS'+'
asS'ALKBH6'
p1264
(lp1265
I36009115
aI36014243
aS'-'
asS'ALKBH7'
p1266
(lp1267
I6372432
aI6375250
aS'+'
asS'STXBP2'
p1268
(lp1269
I7637100
aI7647874
aS'+'
asS'PVR'
p1270
(lp1271
I44643797
aI44666160
aS'+'
asS'S1PR2'
p1272
(lp1273
I10221432
aI10231272
aS'-'
asS'DNAJB1'
p1274
(lp1275
I14514763
aI14529322
aS'-'
asS'S1PR5'
p1276
(lp1277
I10512741
aI10517992
aS'-'
asS'S1PR4'
p1278
(lp1279
I3178737
aI3180332
aS'+'
asS'ZNF528-AS1'
p1280
(lp1281
I52388839
aI52397757
aS'-'
asS'DOT1L'
p1282
(lp1283
I2164148
aI2232578
aS'+'
asS'SUGP2'
p1284
(lp1285
I18990886
aI19034052
aS'-'
asS'HAS1'
p1286
(lp1287
I51713111
aI51723992
aS'-'
asS'SUGP1'
p1288
(lp1289
I19276512
aI19320512
aS'-'
asS'CLC'
p1290
(lp1291
I39731254
aI39738029
aS'-'
asS'LINC00904'
p1292
(lp1293
I34892028
aI34898943
aS'-'
asS'LINC00905'
p1294
(lp1295
I16033712
aI16042135
aS'+'
asS'LINC00906'
p1296
(lp1297
I28965130
aI28969148
aS'+'
asS'ZNF805'
p1298
(lp1299
I57240631
aI57262728
aS'+'
asS'ZNF807'
p1300
(lp1301
I34541715
aI34545386
aS'-'
asS'MCEMP1'
p1302
(lp1303
I7677056
aI7679833
aS'+'
asS'BISPR'
p1304
(lp1305
I17405685
aI17415736
aS'+'
asS'GRIK5'
p1306
(lp1307
I41998315
aI42065805
aS'-'
asS'TRAPPC6A'
p1308
(lp1309
I45162927
aI45178243
aS'-'
asS'LPAR2'
p1310
(lp1311
I19623655
aI19628230
aS'-'
asS'HAPLN4'
p1312
(lp1313
I19255640
aI19262787
aS'-'
asS'CALR'
p1314
(lp1315
I12938599
aI12944490
aS'+'
asS'ZNF765-ZNF761'
p1316
(lp1317
I53395132
aI53458261
aS'+'
asS'SEMA6B'
p1318
(lp1319
I4542587
aI4559759
aS'-'
asS'CD320'
p1320
(lp1321
I8302126
aI8308356
aS'-'
asS'LOC100505585'
p1322
(lp1323
I41928819
aI41930136
aS'+'
asS'RGL3'
p1324
(lp1325
I11394055
aI11419342
aS'-'
asS'CTXN1'
p1326
(lp1327
I7924495
aI7926166
aS'-'
asS'RTBDN'
p1328
(lp1329
I12825476
aI12835428
aS'-'
asS'ASF1B'
p1330
(lp1331
I14119508
aI14136628
aS'-'
asS'FEM1A'
p1332
(lp1333
I4791715
aI4795559
aS'+'
asS'LOC102724908'
p1334
(lp1335
I28606687
aI28615229
aS'+'
asS'COPE'
p1336
(lp1337
I18899510
aI18919403
aS'-'
asS'LINC01530'
p1338
(lp1339
I51591782
aI51594380
aS'-'
asS'PRKCG'
p1340
(lp1341
I53882183
aI53907647
aS'+'
asS'LOC100505622'
p1342
(lp1343
I42132628
aI42137099
aS'+'
asS'FFAR2'
p1344
(lp1345
I35449714
aI35451767
aS'+'
asS'FFAR3'
p1346
(lp1347
I35358459
aI35360487
aS'+'
asS'MIR1227'
p1348
(lp1349
I2234061
aI2234149
aS'-'
asS'ZNF154'
p1350
(lp1351
I57696274
aI57709211
aS'-'
asS'ZNF155'
p1352
(lp1353
I43984169
aI43998325
aS'+'
asS'SAE1'
p1354
(lp1355
I47130822
aI47210636
aS'+'
asS'ZNF90'
p1356
(lp1357
I20077999
aI20121161
aS'+'
asS'ZNF791'
p1358
(lp1359
I12610917
aI12629862
aS'+'
asS'ZNF792'
p1360
(lp1361
I34956353
aI34964049
aS'-'
asS'ZNF793'
p1362
(lp1363
I37506938
aI37543337
aS'+'
asS'ZNF98'
p1364
(lp1365
I22391096
aI22422346
aS'-'
asS'ZNF99'
p1366
(lp1367
I22752182
aI22784171
aS'-'
asS'MIR5589'
p1368
(lp1369
I10038353
aI10038413
aS'+'
asS'SNAR-F'
p1370
(lp1371
I50604962
aI50605085
aS'+'
asS'SNAR-E'
p1372
(lp1373
I46830584
aI46830704
aS'-'
asS'SNAR-D'
p1374
(lp1375
I50140201
aI50140320
aS'-'
asS'FBXO17'
p1376
(lp1377
I38941400
aI38975813
aS'-'
asS'CYP4F12'
p1378
(lp1379
I15673017
aI15697174
aS'+'
asS'SNORD41'
p1380
(lp1381
I12706448
aI12706518
aS'-'
asS'CCDC97'
p1382
(lp1383
I41310162
aI41324883
aS'+'
asS'ZNF570'
p1384
(lp1385
I37467771
aI37488652
aS'+'
asS'ZNF571'
p1386
(lp1387
I37564252
aI37594792
aS'-'
asS'ZNF573'
p1388
(lp1389
I37738301
aI37779590
aS'-'
asS'ZNF574'
p1390
(lp1391
I42068476
aI42081567
aS'+'
asS'ZNF575'
p1392
(lp1393
I43533187
aI43536132
aS'+'
asS'ZNF576'
p1394
(lp1395
I43596391
aI43600435
aS'+'
asS'ZNF577'
p1396
(lp1397
I51855802
aI51887936
aS'-'
asS'ZNF578'
p1398
(lp1399
I52453552
aI52516878
aS'+'
asS'ZNF579'
p1400
(lp1401
I55577524
aI55580845
aS'-'
asS'TPGS1'
p1402
(lp1403
I507496
aI519654
aS'+'
asS'DPP9-AS1'
p1404
(lp1405
I4679281
aI4685948
aS'+'
asS'PRTN3'
p1406
(lp1407
I840984
aI848175
aS'+'
asS'MIR4745'
p1408
(lp1409
I804939
aI805001
aS'+'
asS'MIR4746'
p1410
(lp1411
I4445977
aI4446048
aS'+'
asS'MIR4747'
p1412
(lp1413
I4932686
aI4932740
aS'+'
asS'MIR4748'
p1414
(lp1415
I10780253
aI10780335
aS'+'
asS'MIR4749'
p1416
(lp1417
I49854590
aI49854651
aS'+'
asS'FPR2'
p1418
(lp1419
I51761179
aI51770531
aS'+'
asS'FPR3'
p1420
(lp1421
I51795145
aI51826190
aS'+'
asS'ZNF208'
p1422
(lp1423
I21939765
aI22010943
aS'-'
asS'PPP1R37'
p1424
(lp1425
I45093172
aI45147285
aS'+'
asS'MIA-RAB4B'
p1426
(lp1427
I40775536
aI40796944
aS'+'
asS'CHERP'
p1428
(lp1429
I16517888
aI16542452
aS'-'
asS'MIR5695'
p1430
(lp1431
I12920319
aI12920404
aS'+'
asS'GPATCH1'
p1432
(lp1433
I33080879
aI33130412
aS'+'
asS'LGALS17A'
p1434
(lp1435
I39679373
aI39686373
aS'+'
asS'THEG5'
p1436
(lp1437
I31588188
aI31593781
aS'+'
asS'MYADM'
p1438
(lp1439
I53865583
aI53876435
aS'+'
asS'LINC01532'
p1440
(lp1441
I29002554
aI29013955
aS'+'
asS'LINC01533'
p1442
(lp1443
I32025861
aI32048899
aS'+'
asS'AP2S1'
p1444
(lp1445
I46838157
aI46850995
aS'-'
asS'LINC01531'
p1446
(lp1447
I35405606
aI35416840
aS'+'
asS'LINC01534'
p1448
(lp1449
I36685438
aI36687449
aS'-'
asS'LINC01535'
p1450
(lp1451
I37251884
aI37265535
aS'+'
asS'PTOV1-AS2'
p1452
(lp1453
I49856464
aI49859289
aS'-'
asS'PTOV1-AS1'
p1454
(lp1455
I49838645
aI49851676
aS'-'
asS'ECH1'
p1456
(lp1457
I38815421
aI38831857
aS'-'
asS'CARD8'
p1458
(lp1459
I48203147
aI48255946
aS'-'
asS'PNPLA6'
p1460
(lp1461
I7534151
aI7561767
aS'+'
asS'ALDH16A1'
p1462
(lp1463
I49453215
aI49471048
aS'+'
asS'ZGLP1'
p1464
(lp1465
I10304802
aI10309557
aS'-'
asS'PINLYP'
p1466
(lp1467
I43576799
aI43582104
aS'+'
asS'TINCR'
p1468
(lp1469
I5558166
aI5568034
aS'-'
asS'PCAT19'
p1470
(lp1471
I41454169
aI41500649
aS'-'
asS'MAP1S'
p1472
(lp1473
I17719479
aI17734513
aS'+'
asS'UBA2'
p1474
(lp1475
I34428362
aI34469893
aS'+'
asS'UBE2M'
p1476
(lp1477
I58555711
aI58558976
aS'-'
asS'SAFB2'
p1478
(lp1479
I5586998
aI5622927
aS'-'
asS'LENG8-AS1'
p1480
(lp1481
I54444815
aI54449038
aS'-'
asS'PWWP3A'
p1482
(lp1483
I1354958
aI1378431
aS'+'
asS'UBE2S'
p1484
(lp1485
I55399744
aI55407788
aS'-'
asS'DUXA'
p1486
(lp1487
I57151725
aI57167488
aS'-'
asS'DPF1'
p1488
(lp1489
I38211005
aI38229714
aS'-'
asS'MIR7-3'
p1490
(lp1491
I4770669
aI4770779
aS'+'
asS'VSTM2B'
p1492
(lp1493
I29526583
aI29564319
aS'+'
asS'RPL18A'
p1494
(lp1495
I17859909
aI17863319
aS'+'
asS'UPF1'
p1496
(lp1497
I18831934
aI18868232
aS'+'
asS'DACT3'
p1498
(lp1499
I46647611
aI46661138
aS'-'
asS'BORCS8'
p1500
(lp1501
I19176903
aI19192591
aS'-'
asS'C19orf84'
p1502
(lp1503
I51388288
aI51390574
aS'-'
asS'SNAR-A9'
p1504
(lp1505
I47923778
aI47923899
aS'+'
asS'SNAR-A8'
p1506
(lp1507
I47923778
aI47923899
aS'+'
asS'C19orf81'
p1508
(lp1509
I50649444
aI50659310
aS'+'
asS'SNAR-A3'
p1510
(lp1511
I47923778
aI47923899
aS'+'
asS'SNAR-A2'
p1512
(lp1513
I47918428
aI47918550
aS'+'
asS'TPRX1'
p1514
(lp1515
I47801242
aI47803604
aS'-'
asS'SNAR-A7'
p1516
(lp1517
I47923778
aI47923899
aS'+'
asS'SNAR-A6'
p1518
(lp1519
I47923778
aI47923899
aS'+'
asS'SNAR-A5'
p1520
(lp1521
I47923778
aI47923899
aS'+'
asS'SNAR-A4'
p1522
(lp1523
I47923778
aI47923899
aS'+'
asS'NDUFA7'
p1524
(lp1525
I8308602
aI8321413
aS'-'
asS'NDUFA3'
p1526
(lp1527
I54102851
aI54106974
aS'+'
asS'COMP'
p1528
(lp1529
I18782772
aI18791305
aS'-'
asS'NCCRP1'
p1530
(lp1531
I39196963
aI39201884
aS'+'
asS'MAST1'
p1532
(lp1533
I12838444
aI12874952
aS'+'
asS'MAST3'
p1534
(lp1535
I18097792
aI18151689
aS'+'
asS'FLT3LG'
p1536
(lp1537
I49474208
aI49486231
aS'+'
asS'USE1'
p1538
(lp1539
I17215345
aI17219829
aS'+'
asS'IL11'
p1540
(lp1541
I55364381
aI55370463
aS'-'
asS'PPP1R15A'
p1542
(lp1543
I48872391
aI48876062
aS'+'
asS'STX10'
p1544
(lp1545
I13144057
aI13150375
aS'-'
asS'FARSA'
p1546
(lp1547
I12922478
aI12933711
aS'-'
asS'COLGALT1'
p1548
(lp1549
I17555593
aI17583162
aS'+'
asS'BIRC8'
p1550
(lp1551
I53289600
aI53291622
aS'-'
asS'ADGRE5'
p1552
(lp1553
I14381143
aI14408725
aS'+'
asS'ADGRE1'
p1554
(lp1555
I6887548
aI6940453
aS'+'
asS'ADGRE3'
p1556
(lp1557
I14619116
aI14674918
aS'-'
asS'ADGRE2'
p1558
(lp1559
I14732696
aI14778541
aS'-'
asS'INSR'
p1560
(lp1561
I7112254
aI7294302
aS'-'
asS'ZNF813'
p1562
(lp1563
I53467734
aI53494292
aS'+'
asS'SPTBN4'
p1564
(lp1565
I40467218
aI40576459
aS'+'
asS'ZNF816'
p1566
(lp1567
I52949378
aI52962911
aS'-'
asS'ZNF814'
p1568
(lp1569
I57869380
aI57889037
aS'-'
asS'KLF16'
p1570
(lp1571
I1852398
aI1863565
aS'-'
asS'GDF1'
p1572
(lp1573
I18868545
aI18896144
aS'-'
asS'KRTDAP'
p1574
(lp1575
I35487323
aI35490531
aS'-'
asS'DPP9'
p1576
(lp1577
I4675223
aI4723842
aS'-'
asS'SLC44A2'
p1578
(lp1579
I10602444
aI10644559
aS'+'
asS'ZBTB7A'
p1580
(lp1581
I4043303
aI4066945
aS'-'
asS'CYP2A7'
p1582
(lp1583
I40875438
aI40882752
aS'-'
asS'CYP2A6'
p1584
(lp1585
I40843537
aI40850447
aS'-'
asS'OR7E24'
p1586
(lp1587
I9251043
aI9252063
aS'+'
asS'KLK1'
p1588
(lp1589
I50819145
aI50823787
aS'-'
asS'PCP2'
p1590
(lp1591
I7631614
aI7633748
aS'-'
asS'ZNF818P'
p1592
(lp1593
I53212947
aI53216102
aS'+'
asS'NDUFS7'
p1594
(lp1595
I1383906
aI1395589
aS'+'
asS'SIGLEC12'
p1596
(lp1597
I51491226
aI51501789
aS'-'
asS'ILF3'
p1598
(lp1599
I10654260
aI10692419
aS'+'
asS'ZNF548'
p1600
(lp1601
I57389849
aI57402551
aS'+'
asS'ARRDC2'
p1602
(lp1603
I18001131
aI18014102
aS'+'
asS'ELOF1'
p1604
(lp1605
I11553042
aI11559236
aS'-'
asS'KLK7'
p1606
(lp1607
I50976478
aI50984064
aS'-'
asS'CHMP2A'
p1608
(lp1609
I58551565
aI58555124
aS'-'
asS'INAFM1'
p1610
(lp1611
I47274401
aI47275723
aS'+'
asS'ASNA1'
p1612
(lp1613
I12737458
aI12748324
aS'+'
asS'SCGB2B3P'
p1614
(lp1615
I34645872
aI34646052
aS'+'
asS'ZNF146'
p1616
(lp1617
I36214601
aI36238773
aS'+'
asS'RABAC1'
p1618
(lp1619
I41956680
aI41959376
aS'-'
asS'MKNK2'
p1620
(lp1621
I2037470
aI2051244
aS'-'
asS'ZNF781'
p1622
(lp1623
I37667750
aI37692315
aS'-'
asS'SYCE2'
p1624
(lp1625
I12899079
aI12919272
aS'-'
asS'ZNF787'
p1626
(lp1627
I56087365
aI56121295
aS'-'
asS'ZNF784'
p1628
(lp1629
I55620740
aI55624575
aS'-'
asS'GPR108'
p1630
(lp1631
I6729913
aI6737622
aS'-'
asS'SAFB'
p1632
(lp1633
I5623034
aI5668478
aS'+'
asS'FCGBP'
p1634
(lp1635
I39863322
aI39934626
aS'-'
asS'MIR6805'
p1636
(lp1637
I55388180
aI55388242
aS'+'
asS'MIR6804'
p1638
(lp1639
I55230884
aI55230952
aS'-'
asS'MIR6807'
p1640
(lp1641
I58550284
aI58550376
aS'+'
asS'KCNN4'
p1642
(lp1643
I43766532
aI43781257
aS'-'
asS'MIR6801'
p1644
(lp1645
I52222019
aI52222098
aS'+'
asS'MIR6800'
p1646
(lp1647
I49832017
aI49832099
aS'+'
asS'KCNN1'
p1648
(lp1649
I17951301
aI17999121
aS'+'
asS'QTRT1'
p1650
(lp1651
I10701435
aI10713367
aS'+'
asS'SMIM24'
p1652
(lp1653
I3474406
aI3480542
aS'-'
asS'BRSK1'
p1654
(lp1655
I55284165
aI55312535
aS'+'
asS'SIGLECL1'
p1656
(lp1657
I51251077
aI51269328
aS'+'
asS'ZNF569'
p1658
(lp1659
I37411141
aI37467458
aS'-'
asS'ZNF568'
p1660
(lp1661
I36916328
aI36997932
aS'+'
asS'ZNF567'
p1662
(lp1663
I36687611
aI36721336
aS'+'
asS'ZNF566'
p1664
(lp1665
I36445118
aI36489902
aS'-'
asS'ZNF565'
p1666
(lp1667
I36182284
aI36245928
aS'-'
asS'ZNF564'
p1668
(lp1669
I12525369
aI12551542
aS'-'
asS'ZNF563'
p1670
(lp1671
I12317489
aI12333720
aS'-'
asS'ZNF562'
p1672
(lp1673
I9648661
aI9675100
aS'-'
asS'ZNF561'
p1674
(lp1675
I9607325
aI9621263
aS'-'
asS'ZNF560'
p1676
(lp1677
I9466354
aI9498603
aS'-'
asS'MIR5684'
p1678
(lp1679
I12787127
aI12787192
aS'+'
asS'CCDC61'
p1680
(lp1681
I45995460
aI46018616
aS'+'
asS'SLC7A9'
p1682
(lp1683
I32830510
aI32869777
aS'-'
asS'NFKBIB'
p1684
(lp1685
I38899699
aI38908894
aS'+'
asS'NFKBID'
p1686
(lp1687
I35887951
aI35902303
aS'-'
asS'RFX1'
p1688
(lp1689
I13961529
aI14006322
aS'-'
asS'DPY19L3'
p1690
(lp1691
I32405748
aI32485893
aS'+'
asS'ZNF846'
p1692
(lp1693
I9752389
aI9786183
aS'-'
asS'TMEM59L'
p1694
(lp1695
I18612871
aI18621039
aS'+'
asS'MIR6792'
p1696
(lp1697
I7617438
aI7617505
aS'+'
asS'PLEKHA4'
p1698
(lp1699
I48837096
aI48868627
aS'-'
asS'HAUS8'
p1700
(lp1701
I17049760
aI17075533
aS'-'
asS'LOC101928063'
p1702
(lp1703
I43996895
aI44002870
aS'-'
asS'HAUS5'
p1704
(lp1705
I35612743
aI35625349
aS'+'
asS'TEX45'
p1706
(lp1707
I7497558
aI7508450
aS'+'
asS'UBXN6'
p1708
(lp1709
I4445005
aI4457794
aS'-'
asS'LOC101928844'
p1710
(lp1711
I5847466
aI5858239
aS'+'
asS'SNORD32A'
p1712
(lp1713
I49489965
aI49490047
aS'+'
asS'ZNF812P'
p1714
(lp1715
I9688859
aI9700776
aS'-'
asS'SNORD105'
p1716
(lp1717
I10107650
aI10107735
aS'+'
asS'SBK2'
p1718
(lp1719
I55529732
aI55536294
aS'-'
asS'SBK3'
p1720
(lp1721
I55540655
aI55545543
aS'-'
asS'HAVCR1P1'
p1722
(lp1723
I24162192
aI24163447
aS'-'
asS'MISP'
p1724
(lp1725
I751112
aI764319
aS'+'
asS'SLC25A41'
p1726
(lp1727
I6426036
aI6433779
aS'-'
asS'SLC25A42'
p1728
(lp1729
I19063960
aI19113031
aS'+'
asS'BCAM'
p1730
(lp1731
I44809058
aI44821421
aS'+'
asS'VAV1'
p1732
(lp1733
I6772667
aI6857366
aS'+'
asS'MIR517A'
p1734
(lp1735
I53712267
aI53712354
aS'+'
asS'MIR517B'
p1736
(lp1737
I53721075
aI53721142
aS'+'
asS'MIR517C'
p1738
(lp1739
I53741312
aI53741407
aS'+'
asS'RNU6-8'
p1740
(lp1741
I893483
aI893589
aS'+'
asS'RNU6-9'
p1742
(lp1743
I893483
aI893590
aS'+'
asS'BEST2'
p1744
(lp1745
I12752592
aI12758457
aS'+'
asS'RNU6-7'
p1746
(lp1747
I893483
aI893589
aS'+'
asS'RNU6-1'
p1748
(lp1749
I893483
aI893589
aS'+'
asS'REX1BD'
p1750
(lp1751
I18588684
aI18592337
aS'+'
asS'LOC100505555'
p1752
(lp1753
I9787405
aI9793180
aS'-'
asS'MIR1270'
p1754
(lp1755
I20399271
aI20399354
aS'-'
asS'TNPO2'
p1756
(lp1757
I12699193
aI12723996
aS'-'
asS'RAB8A'
p1758
(lp1759
I16111888
aI16134234
aS'+'
asS'TECR'
p1760
(lp1761
I14529559
aI14565980
aS'+'
asS'PIK3R2'
p1762
(lp1763
I18153177
aI18170533
aS'+'
asS'PPP1R12C'
p1764
(lp1765
I55090912
aI55117600
aS'-'
asS'SNRNP70'
p1766
(lp1767
I49085139
aI49108613
aS'+'
asS'CACTIN-AS1'
p1768
(lp1769
I3607246
aI3613930
aS'+'
asS'LRRC8E'
p1770
(lp1771
I7888504
aI7902023
aS'+'
asS'LYL1'
p1772
(lp1773
I13099027
aI13103160
aS'-'
asS'ELL'
p1774
(lp1775
I18442662
aI18522127
aS'-'
asS'DUS3L'
p1776
(lp1777
I5785141
aI5791238
aS'-'
asS'SNAR-A1'
p1778
(lp1779
I47918428
aI47918550
aS'+'
asS'MIR320E'
p1780
(lp1781
I46709292
aI46709345
aS'-'
asS'SYNGR4'
p1782
(lp1783
I48364393
aI48376377
aS'+'
asS'FARSA-AS1'
p1784
(lp1785
I12930521
aI12933296
aS'+'
asS'MIR515-1'
p1786
(lp1787
I53679002
aI53679085
aS'+'
asS'MIR515-2'
p1788
(lp1789
I53685008
aI53685091
aS'+'
asS'ZIM2'
p1790
(lp1791
I56774555
aI56840729
aS'-'
asS'LINC01766'
p1792
(lp1793
I35597894
aI35601501
aS'+'
asS'ZIM3'
p1794
(lp1795
I57134095
aI57145202
aS'-'
asS'CARD8-AS1'
p1796
(lp1797
I48255674
aI48258193
aS'+'
asS'FBL'
p1798
(lp1799
I39834452
aI39846414
aS'-'
asS'LOC101927572'
p1800
(lp1801
I36014498
aI36051117
aS'+'
asS'MIR27A'
p1802
(lp1803
I13836439
aI13836517
aS'-'
asS'CACTIN'
p1804
(lp1805
I3610628
aI3626815
aS'-'
asS'FAM83E'
p1806
(lp1807
I48600599
aI48613437
aS'-'
asS'RAB4B-EGLN2'
p1808
(lp1809
I40778218
aI40808441
aS'+'
asS'LOC101927151'
p1810
(lp1811
I27793430
aI28024969
aS'+'
asS'FAAP24'
p1812
(lp1813
I32972216
aI32977495
aS'+'
asS'PTGIR'
p1814
(lp1815
I46620467
aI46625097
aS'-'
asS'ZNF561-AS1'
p1816
(lp1817
I9621481
aI9634862
aS'+'
asS'U2AF1L4'
p1818
(lp1819
I35742526
aI35745442
aS'-'
asS'MIR7850'
p1820
(lp1821
I2630714
aI2630793
aS'+'
asS'SNRPA'
p1822
(lp1823
I40750853
aI40765392
aS'+'
asS'SSBP4'
p1824
(lp1825
I18419335
aI18434562
aS'+'
asS'SHANK1'
p1826
(lp1827
I50659256
aI50719783
aS'-'
asS'SBNO2'
p1828
(lp1829
I1107633
aI1174283
aS'-'
asS'IL27RA'
p1830
(lp1831
I14031739
aI14052905
aS'+'
asS'RGS9BP'
p1832
(lp1833
I32675406
aI32678300
aS'+'
asS'ZNF253'
p1834
(lp1835
I19865829
aI19893484
aS'+'
asS'ZNF790-AS1'
p1836
(lp1837
I36797549
aI36828111
aS'+'
asS'ZBTB45'
p1838
(lp1839
I58513529
aI58541712
aS'-'
asS'U2AF2'
p1840
(lp1841
I55654049
aI55674716
aS'+'
asS'MYPOP'
p1842
(lp1843
I45890022
aI45902604
aS'-'
asS'DAND5'
p1844
(lp1845
I12969617
aI12974753
aS'+'
asS'PCSK4'
p1846
(lp1847
I1481427
aI1490450
aS'-'
asS'HIPK4'
p1848
(lp1849
I40379270
aI40390221
aS'-'
asS'TYK2'
p1850
(lp1851
I10350527
aI10380572
aS'-'
asS'VN1R2'
p1852
(lp1853
I53258291
aI53259602
aS'+'
asS'BHMG1'
p1854
(lp1855
I45733250
aI45764539
aS'+'
asS'NCAN'
p1856
(lp1857
I19211972
aI19252252
aS'+'
asS'KIR3DX1'
p1858
(lp1859
I54532691
aI54545741
aS'+'
asS'SUPT5H'
p1860
(lp1861
I39445545
aI39476668
aS'+'
asS'RETN'
p1862
(lp1863
I7669048
aI7670455
aS'+'
asS'MRPL54'
p1864
(lp1865
I3762666
aI3767565
aS'+'
asS'NAPA'
p1866
(lp1867
I47487633
aI47515258
aS'-'
asS'FAM129C'
p1868
(lp1869
I17523300
aI17553839
aS'+'
asS'ARHGEF18'
p1870
(lp1871
I7395112
aI7472485
aS'+'
asS'ZNF681'
p1872
(lp1873
I23739194
aI23758891
aS'-'
asS'MUC16'
p1874
(lp1875
I8848843
aI8981342
aS'-'
asS'PLA2G4C-AS1'
p1876
(lp1877
I48061370
aI48064945
aS'+'
asS'IQCN'
p1878
(lp1879
I18257095
aI18274509
aS'-'
asS'DDX49'
p1880
(lp1881
I18919674
aI18928633
aS'+'
asS'MIR1268A'
p1882
(lp1883
I3002812
aI3064714
aS'-'
asS'ZNF175'
p1884
(lp1885
I51571236
aI51589738
aS'+'
asS'ZNF177'
p1886
(lp1887
I9363019
aI9382617
aS'+'
asS'ANGPTL6'
p1888
(lp1889
I10092336
aI10102749
aS'-'
asS'GADD45GIP1'
p1890
(lp1891
I12954155
aI12957254
aS'-'
asS'ANGPTL4'
p1892
(lp1893
I8364126
aI8374375
aS'+'
asS'POP4'
p1894
(lp1895
I29606262
aI29617255
aS'+'
asS'FDX2'
p1896
(lp1897
I10310210
aI10316015
aS'-'
asS'KLC3'
p1898
(lp1899
I45340739
aI45351520
aS'+'
asS'ZNF772'
p1900
(lp1901
I57469585
aI57477570
aS'-'
asS'ZNF773'
p1902
(lp1903
I57499853
aI57516423
aS'+'
asS'ANGPTL8'
p1904
(lp1905
I11239618
aI11241943
aS'+'
asS'ELAVL1'
p1906
(lp1907
I7958572
aI8005645
aS'-'
asS'RASGRP4'
p1908
(lp1909
I38409057
aI38426305
aS'-'
asS'ELAVL3'
p1910
(lp1911
I11451327
aI11480988
aS'-'
asS'LSM14A'
p1912
(lp1913
I34172446
aI34229515
aS'+'
asS'SNORD35A'
p1914
(lp1915
I49491174
aI49491260
aS'+'
asS'SNORD35B'
p1916
(lp1917
I49497718
aI49497805
aS'+'
asS'ECSIT'
p1918
(lp1919
I11505915
aI11529172
aS'-'
asS'PRG1'
p1920
(lp1921
I43349055
aI43349548
aS'+'
asS'APOE'
p1922
(lp1923
I44905748
aI44909395
aS'+'
asS'NR2C2AP'
p1924
(lp1925
I19201410
aI19203429
aS'-'
asS'OR1I1'
p1926
(lp1927
I15087065
aI15088133
aS'+'
asS'GDF15'
p1928
(lp1929
I18386157
aI18389176
aS'+'
asS'ZNF221'
p1930
(lp1931
I43951222
aI43967600
aS'+'
asS'ZNF222'
p1932
(lp1933
I44025341
aI44033109
aS'+'
asS'ZNF223'
p1934
(lp1935
I44052010
aI44067994
aS'+'
asS'ZNF224'
p1936
(lp1937
I44094328
aI44109830
aS'+'
asS'ZNF225'
p1938
(lp1939
I44113361
aI44134816
aS'+'
asS'ZNF226'
p1940
(lp1941
I44165061
aI44177685
aS'+'
asS'ZNF227'
p1942
(lp1943
I44212527
aI44237268
aS'+'
asS'ZNF229'
p1944
(lp1945
I44426250
aI44448578
aS'-'
asS'SNAR-A14'
p1946
(lp1947
I47923778
aI47923899
aS'+'
asS'SNAR-A13'
p1948
(lp1949
I47907677
aI47907799
aS'+'
asS'SNAR-A12'
p1950
(lp1951
I47907677
aI47907799
aS'+'
asS'SNAR-A11'
p1952
(lp1953
I47923778
aI47923899
aS'+'
asS'SNAR-A10'
p1954
(lp1955
I47923778
aI47923899
aS'+'
asS'LOC390937'
p1956
(lp1957
I41907548
aI41928721
aS'-'
asS'SLC39A3'
p1958
(lp1959
I2732524
aI2740076
aS'-'
asS'PDE4C'
p1960
(lp1961
I18207960
aI18248200
aS'-'
asS'LOC102725254'
p1962
(lp1963
I18204729
aI18205563
aS'+'
asS'GZMM'
p1964
(lp1965
I544033
aI549920
aS'+'
asS'CABP5'
p1966
(lp1967
I48029382
aI48044054
aS'-'
asS'ZNF426'
p1968
(lp1969
I9523223
aI9538645
aS'-'
asS'KIR2DL2'
p1970
(lp1971
I54738516
aI54784324
aS'+'
asS'KIR2DL1'
p1972
(lp1973
I54724458
aI54767884
aS'+'
asS'ILF3-DT'
p1974
(lp1975
I10651861
aI10653872
aS'-'
asS'ZNF420'
p1976
(lp1977
I37078221
aI37130366
aS'+'
asS'KIR2DL4'
p1978
(lp1979
I54803609
aI54814517
aS'+'
asS'PNMA8B'
p1980
(lp1981
I46491190
aI46495912
aS'-'
asS'PNMA8A'
p1982
(lp1983
I46466490
aI46471563
aS'-'
asS'ZNF358'
p1984
(lp1985
I7516117
aI7521025
aS'+'
asS'ZNF428'
p1986
(lp1987
I43607223
aI43619862
aS'-'
asS'ZNF429'
p1988
(lp1989
I21505551
aI21540667
aS'+'
asS'MYH14'
p1990
(lp1991
I50203627
aI50310544
aS'+'
asS'KIAA0355'
p1992
(lp1993
I34254550
aI34355566
aS'+'
asS'SNORD175'
p1994
(lp1995
I39468221
aI39468293
aS'+'
asS'MBOAT7'
p1996
(lp1997
I54173411
aI54189882
aS'-'
asS'BLVRB'
p1998
(lp1999
I40447783
aI40465818
aS'-'
asS'ZSCAN5A'
p2000
(lp2001
I56221302
aI56368383
aS'-'
asS'ZSCAN5C'
p2002
(lp2003
I56205913
aI56209200
aS'+'
asS'ZSCAN5B'
p2004
(lp2005
I56189688
aI56193052
aS'-'
asS'CDC34'
p2006
(lp2007
I531732
aI542087
aS'+'
asS'P2RY11'
p2008
(lp2009
I10111692
aI10115372
aS'+'
asS'CDC37'
p2010
(lp2011
I10391132
aI10403595
aS'-'
asS'SPIB'
p2012
(lp2013
I50418937
aI50431052
aS'+'
asS'SCAF1'
p2014
(lp2015
I49642124
aI49658649
aS'+'
asS'MIR520D'
p2016
(lp2017
I53720095
aI53720182
aS'+'
asS'LOC102725023'
p2018
(lp2019
I54738545
aI54847943
aS'+'
asS'APBA3'
p2020
(lp2021
I3750772
aI3761675
aS'-'
asS'PGLS'
p2022
(lp2023
I17511622
aI17521288
aS'+'
asS'NTN5'
p2024
(lp2025
I48661406
aI48673081
aS'-'
asS'LOC641367'
p2026
(lp2027
I21750744
aI21753438
aS'+'
asS'MIR520E'
p2028
(lp2029
I53675710
aI53675797
aS'+'
asS'WDR87'
p2030
(lp2031
I37884822
aI37906706
aS'-'
asS'WDR83'
p2032
(lp2033
I12666803
aI12675832
aS'+'
asS'WDR88'
p2034
(lp2035
I33132091
aI33175797
aS'+'
asS'SNAR-C5'
p2036
(lp2037
I47913050
aI47913170
aS'+'
asS'SNAR-C4'
p2038
(lp2039
I47939540
aI47939660
aS'+'
asS'ACER1'
p2040
(lp2041
I6306498
aI6333629
aS'-'
asS'SNAR-C1'
p2042
(lp2043
I47913050
aI47913170
aS'+'
asS'ZNF559'
p2044
(lp2045
I9323771
aI9343845
aS'+'
asS'SNAR-C3'
p2046
(lp2047
I47950295
aI47950414
aS'+'
asS'SNAR-C2'
p2048
(lp2049
I47913050
aI47913170
aS'+'
asS'ATP13A1'
p2050
(lp2051
I19645200
aI19663676
aS'-'
asS'LOC284344'
p2052
(lp2053
I43211790
aI43248646
aS'-'
asS'LINC01775'
p2054
(lp2055
I2458936
aI2462185
aS'-'
asS'NUMBL'
p2056
(lp2057
I40665905
aI40690658
aS'-'
asS'LOC105447645'
p2058
(lp2059
I48702449
aI48703848
aS'-'
asS'ADAT3'
p2060
(lp2061
I1905213
aI1913447
aS'+'
asS'LOC100134317'
p2062
(lp2063
I36311342
aI36312668
aS'+'
asS'MIR640'
p2064
(lp2065
I19435062
aI19435158
aS'+'
asS'MIR641'
p2066
(lp2067
I40282542
aI40282641
aS'-'
asS'GPR42'
p2068
(lp2069
I35371094
aI35372453
aS'+'
asS'MIR643'
p2070
(lp2071
I52281796
aI52281890
aS'+'
asS'NKPD1'
p2072
(lp2073
I45149749
aI45160150
aS'-'
asS'FUT6'
p2074
(lp2075
I5830625
aI5839731
aS'-'
asS'FUT5'
p2076
(lp2077
I5865825
aI5870540
aS'-'
asS'FUT3'
p2078
(lp2079
I5842887
aI5851474
aS'-'
asS'FUT2'
p2080
(lp2081
I48695970
aI48705934
aS'+'
asS'FUT1'
p2082
(lp2083
I48748010
aI48755390
aS'-'
asS'PPP1R13L'
p2084
(lp2085
I45379633
aI45406349
aS'-'
asS'EEF2'
p2086
(lp2087
I3976055
aI3985463
aS'-'
asS'MIA'
p2088
(lp2089
I40775176
aI40777493
aS'+'
asS'C5AR2'
p2090
(lp2091
I47332146
aI47342015
aS'+'
asS'IZUMO1'
p2092
(lp2093
I48740887
aI48746909
aS'-'
asS'IZUMO2'
p2094
(lp2095
I50152547
aI50163281
aS'-'
asS'C5AR1'
p2096
(lp2097
I47309860
aI47322065
aS'+'
asS'IZUMO4'
p2098
(lp2099
I2096868
aI2099584
aS'+'
asS'USP29'
p2100
(lp2101
I57120140
aI57131925
aS'+'
asS'DDX39A'
p2102
(lp2103
I14408797
aI14419383
aS'-'
asS'GNG14'
p2104
(lp2105
I12687997
aI12688420
aS'+'
asS'ARHGEF1'
p2106
(lp2107
I41883199
aI41907452
aS'+'
asS'DMAC2'
p2108
(lp2109
I41431317
aI41439938
aS'-'
asS'LIPE'
p2110
(lp2111
I42401513
aI42427388
aS'-'
asS'MIR1470'
p2112
(lp2113
I15449547
aI15449608
aS'+'
asS'DPRX'
p2114
(lp2115
I53632055
aI53637009
aS'+'
asS'SIGLEC16'
p2116
(lp2117
I49969663
aI49975814
aS'+'
asS'SIGLEC14'
p2118
(lp2119
I51642552
aI51646879
aS'-'
asS'PALM'
p2120
(lp2121
I708952
aI748330
aS'+'
asS'PEX11G'
p2122
(lp2123
I7476874
aI7489400
aS'-'
asS'SIGLEC11'
p2124
(lp2125
I49948992
aI49961172
aS'-'
asS'LMTK3'
p2126
(lp2127
I48485270
aI48513189
aS'-'
asS'PAFAH1B3'
p2128
(lp2129
I42297032
aI42302800
aS'-'
asS'KPTN'
p2130
(lp2131
I47475140
aI47484264
aS'-'
asS'MIR6799'
p2132
(lp2133
I49791865
aI49791934
aS'+'
asS'MIR6798'
p2134
(lp2135
I49009905
aI49009972
aS'+'
asS'MIR6795'
p2136
(lp2137
I15179282
aI15179350
aS'-'
asS'MIR6794'
p2138
(lp2139
I12852259
aI12852327
aS'+'
asS'UCA1'
p2140
(lp2141
I15828946
aI15836321
aS'+'
asS'MIR6796'
p2142
(lp2143
I40369845
aI40369907
aS'+'
asS'MIR6791'
p2144
(lp2145
I6736711
aI6736778
aS'-'
asS'MIR6790'
p2146
(lp2147
I6392920
aI6392983
aS'-'
asS'MIR6793'
p2148
(lp2149
I10828972
aI10829035
aS'+'
asS'AZU1'
p2150
(lp2151
I827836
aI832018
aS'+'
asS'PSG8-AS1'
p2152
(lp2153
I42821862
aI42826878
aS'+'
asS'EID2'
p2154
(lp2155
I39538805
aI39540198
aS'-'
asS'ZNF699'
p2156
(lp2157
I9291139
aI9309714
aS'-'
asS'ZNF833P'
p2158
(lp2159
I11673997
aI11686569
aS'+'
asS'NMRK2'
p2160
(lp2161
I3933102
aI3942416
aS'+'
asS'RRAS'
p2162
(lp2163
I49635291
aI49640143
aS'-'
asS'DHX34'
p2164
(lp2165
I47349280
aI47382704
aS'+'
asS'RUVBL2'
p2166
(lp2167
I48993447
aI49015995
aS'+'
asS'OSCAR'
p2168
(lp2169
I54094667
aI54102686
aS'-'
asS'ZNF160'
p2170
(lp2171
I53066613
aI53103434
aS'-'
asS'MIR330'
p2172
(lp2173
I45638993
aI45639087
aS'-'
asS'MCOLN1'
p2174
(lp2175
I7522609
aI7534009
aS'+'
asS'VN1R1'
p2176
(lp2177
I57455173
aI57456739
aS'-'
asS'SF3A2'
p2178
(lp2179
I2236816
aI2248679
aS'+'
asS'ZNF765'
p2180
(lp2181
I53395132
aI53427321
aS'+'
asS'ZNF766'
p2182
(lp2183
I52269570
aI52292723
aS'+'
asS'ZNF761'
p2184
(lp2185
I53431973
aI53458261
aS'+'
asS'ZNF763'
p2186
(lp2187
I11965039
aI11980625
aS'+'
asS'DHPS'
p2188
(lp2189
I12675716
aI12681887
aS'-'
asS'ZNF181'
p2190
(lp2191
I34734574
aI34742869
aS'+'
asS'ZNF180'
p2192
(lp2193
I44474427
aI44500523
aS'-'
asS'C3P1'
p2194
(lp2195
I10041355
aI10074137
aS'+'
asS'MIR935'
p2196
(lp2197
I53982306
aI53982397
aS'+'
asS'SHD'
p2198
(lp2199
I4278600
aI4290723
aS'+'
asS'ZNF20'
p2200
(lp2201
I12131352
aI12140407
aS'-'
asS'COX7A1'
p2202
(lp2203
I36150921
aI36152869
aS'-'
asS'CCDC8'
p2204
(lp2205
I46410328
aI46413564
aS'-'
asS'CCDC9'
p2206
(lp2207
I47256524
aI47271953
aS'+'
asS'HOMER3-AS1'
p2208
(lp2209
I18940253
aI18946831
aS'+'
asS'ZNF28'
p2210
(lp2211
I52797407
aI52821669
aS'-'
asS'EPOR'
p2212
(lp2213
I11377204
aI11384342
aS'-'
asS'EGLN2'
p2214
(lp2215
I40799142
aI40808441
aS'+'
asS'CILP2'
p2216
(lp2217
I19538264
aI19546659
aS'+'
asS'MIR520H'
p2218
(lp2219
I53742511
aI53742599
aS'+'
asS'MYBPC2'
p2220
(lp2221
I50432902
aI50466326
aS'+'
asS'MIMT1'
p2222
(lp2223
I56840901
aI56848556
aS'+'
asS'MIR520B'
p2224
(lp2225
I53701226
aI53701287
aS'+'
asS'MIR520C'
p2226
(lp2227
I53707452
aI53707539
aS'+'
asS'MIR520A'
p2228
(lp2229
I53690880
aI53690965
aS'+'
asS'MIR520F'
p2230
(lp2231
I53682158
aI53682245
aS'+'
asS'MIR520G'
p2232
(lp2233
I53722165
aI53722255
aS'+'
asS'ZNF507'
p2234
(lp2235
I32345607
aI32387667
aS'+'
asS'ZNF506'
p2236
(lp2237
I19792710
aI19821751
aS'-'
asS'ZNF235'
p2238
(lp2239
I44286347
aI44305025
aS'-'
asS'ZNF234'
p2240
(lp2241
I44141556
aI44160309
aS'+'
asS'ZNF233'
p2242
(lp2243
I44259879
aI44275317
aS'+'
asS'ZNF230'
p2244
(lp2245
I44002924
aI44013920
aS'+'
asS'EID2B'
p2246
(lp2247
I39531532
aI39532867
aS'-'
asS'SAMD4B'
p2248
(lp2249
I39342458
aI39384897
aS'+'
asS'FBXW9'
p2250
(lp2251
I12688915
aI12696631
aS'-'
asS'USF2'
p2252
(lp2253
I35268977
aI35279821
aS'+'
asS'FBXO27'
p2254
(lp2255
I39024020
aI39032596
aS'-'
asS'ZNF430'
p2256
(lp2257
I21020619
aI21060046
aS'+'
asS'ZNF433'
p2258
(lp2259
I12014716
aI12035741
aS'-'
asS'ZNF432'
p2260
(lp2261
I52031378
aI52049124
aS'-'
asS'ZNF431'
p2262
(lp2263
I21142009
aI21196056
aS'+'
asS'CADM4'
p2264
(lp2265
I43622367
aI43639850
aS'-'
asS'ZNF439'
p2266
(lp2267
I11848732
aI11869491
aS'+'
asS'RANBP3'
p2268
(lp2269
I5916140
aI5978309
aS'-'
asS'CPT1C'
p2270
(lp2271
I49691107
aI49713731
aS'+'
asS'ZNF345'
p2272
(lp2273
I36850885
aI36893218
aS'+'
asS'TMEM147-AS1'
p2274
(lp2275
I35540737
aI35546029
aS'-'
asS'DLL3'
p2276
(lp2277
I39498916
aI39508481
aS'+'
asS'NUDT19'
p2278
(lp2279
I32691960
aI32713796
aS'+'
asS'UHRF1'
p2280
(lp2281
I4903079
aI4962154
aS'+'
asS'TM6SF2'
p2282
(lp2283
I19264364
aI19273265
aS'-'
asS'PIP5K1C'
p2284
(lp2285
I3630180
aI3700479
aS'-'
asS'ACTL9'
p2286
(lp2287
I8697396
aI8698830
aS'-'
asS'KEAP1'
p2288
(lp2289
I10486119
aI10503378
aS'-'
asS'LOC100288123'
p2290
(lp2291
I1822088
aI1824545
aS'+'
asS'TGFB1'
p2292
(lp2293
I41330322
aI41353883
aS'-'
asS'LOC400682'
p2294
(lp2295
I21649667
aI21658608
aS'+'
asS'LOC400684'
p2296
(lp2297
I32390049
aI32405539
aS'-'
asS'LGI4'
p2298
(lp2299
I35124512
aI35135274
aS'-'
asS'MEGF8'
p2300
(lp2301
I42325608
aI42378769
aS'+'
asS'ETFB'
p2302
(lp2303
I51345154
aI51366418
aS'-'
asS'SLC5A5'
p2304
(lp2305
I17871972
aI17895174
aS'+'
asS'LOC105372480'
p2306
(lp2307
I58314949
aI58327248
aS'-'
asS'FKRP'
p2308
(lp2309
I46746045
aI46758575
aS'+'
asS'ZNF788P'
p2310
(lp2311
I12092262
aI12114752
aS'+'
asS'RAVER1'
p2312
(lp2313
I10316212
aI10333529
aS'-'
asS'NOP53'
p2314
(lp2315
I47745535
aI47757066
aS'+'
asS'AURKC'
p2316
(lp2317
I57231008
aI57235548
aS'+'
asS'KRI1'
p2318
(lp2319
I10553077
aI10566010
aS'-'
asS'CDC42EP5'
p2320
(lp2321
I54465024
aI54473290
aS'-'
asS'SNAR-B2'
p2322
(lp2323
I50139117
aI50139237
aS'-'
asS'LOC284379'
p2324
(lp2325
I53599630
aI53603497
aS'-'
asS'SNAR-B1'
p2326
(lp2327
I50139117
aI50139237
aS'-'
asS'UBE2CP5'
p2328
(lp2329
I57867759
aI57869011
aS'+'
asS'POU2F2'
p2330
(lp2331
I42086109
aI42132473
aS'-'
asS'UPK1A-AS1'
p2332
(lp2333
I35667947
aI35673291
aS'-'
asS'RAB4B'
p2334
(lp2335
I40778218
aI40796944
aS'+'
asS'NDUFB7'
p2336
(lp2337
I14566077
aI14572077
aS'-'
asS'SYMPK'
p2338
(lp2339
I45815441
aI45863290
aS'-'
asS'FCHO1'
p2340
(lp2341
I17747717
aI17788568
aS'+'
asS'GPR32'
p2342
(lp2343
I50770463
aI50771732
aS'+'
asS'AXL'
p2344
(lp2345
I41219198
aI41261767
aS'+'
asS'IL12RB1'
p2346
(lp2347
I18058994
aI18098816
aS'-'
asS'STAP2'
p2348
(lp2349
I4324042
aI4338850
aS'-'
asS'IRF2BP1'
p2350
(lp2351
I45883606
aI45886170
aS'-'
asS'QPCTL'
p2352
(lp2353
I45692482
aI45703990
aS'+'
asS'MIR519A1'
p2354
(lp2355
I53752396
aI53752481
aS'+'
asS'MIR519A2'
p2356
(lp2357
I53762343
aI53762430
aS'+'
asS'CTU1'
p2358
(lp2359
I51097605
aI51108390
aS'-'
asS'VRK3'
p2360
(lp2361
I49976466
aI50025548
aS'-'
asS'PLD3'
p2362
(lp2363
I40348424
aI40378490
aS'+'
asS'MED29'
p2364
(lp2365
I39391377
aI39400637
aS'+'
asS'ERVV-1'
p2366
(lp2367
I53014090
aI53016580
aS'+'
asS'DOCK6'
p2368
(lp2369
I11199292
aI11262492
aS'-'
asS'FLJ25758'
p2370
(lp2371
I7004952
aI7006415
aS'-'
asS'MED26'
p2372
(lp2373
I16574906
aI16628204
aS'-'
asS'CC2D1A'
p2374
(lp2375
I13906142
aI13930880
aS'+'
asS'ACSBG2'
p2376
(lp2377
I6135632
aI6193103
aS'+'
asS'XRCC1'
p2378
(lp2379
I43543311
aI43575578
aS'-'
asS'MIR6789'
p2380
(lp2381
I2235828
aI2235926
aS'-'
asS'LIM2'
p2382
(lp2383
I51379908
aI51387956
aS'-'
asS'SEC1P'
p2384
(lp2385
I48638038
aI48682245
aS'+'
asS'MEIS3'
p2386
(lp2387
I47403117
aI47422233
aS'-'
asS'CLDND2'
p2388
(lp2389
I51367097
aI51369003
aS'-'
asS'CCER2'
p2390
(lp2391
I38908979
aI38912158
aS'-'
asS'MYO9B'
p2392
(lp2393
I17075780
aI17213295
aS'+'
asS'FAM98C'
p2394
(lp2395
I38403134
aI38409088
aS'+'
asS'MIER2'
p2396
(lp2397
I305574
aI344841
aS'-'
asS'EPN1'
p2398
(lp2399
I55675194
aI55695767
aS'+'
asS'KIR3DL1'
p2400
(lp2401
I54816437
aI54830778
aS'+'
asS'KIR3DL2'
p2402
(lp2403
I54850442
aI54867215
aS'+'
asS'KIR3DL3'
p2404
(lp2405
I54724446
aI54736536
aS'+'
asS'DACT3-AS1'
p2406
(lp2407
I46660363
aI46677456
aS'+'
asS'SNORD88B'
p2408
(lp2409
I50799028
aI50799125
aS'-'
asS'LMNB2'
p2410
(lp2411
I2428164
aI2456968
aS'-'
asS'RPSAP58'
p2412
(lp2413
I23762943
aI23835146
aS'+'
asS'FGF22'
p2414
(lp2415
I639894
aI643703
aS'+'
asS'FGF21'
p2416
(lp2417
I48755558
aI48758330
aS'+'
asS'C2CD4C'
p2418
(lp2419
I405444
aI409147
aS'-'
asS'RASIP1'
p2420
(lp2421
I48720584
aI48740713
aS'-'
asS'MOB3A'
p2422
(lp2423
I2071035
aI2096270
aS'-'
asS'ZNF30'
p2424
(lp2425
I34926902
aI34945172
aS'+'
asS'KCNA7'
p2426
(lp2427
I49067417
aI49072941
aS'-'
asS'SH3GL1'
p2428
(lp2429
I4360366
aI4400568
aS'-'
asS'TMEM38A'
p2430
(lp2431
I16661126
aI16689005
aS'+'
asS'ZNF536'
p2432
(lp2433
I30372392
aI30713586
aS'+'
asS'CEACAM20'
p2434
(lp2435
I44506158
aI44529525
aS'-'
asS'CEACAM21'
p2436
(lp2437
I41549517
aI41586844
aS'+'
asS'RPS28'
p2438
(lp2439
I8321495
aI8323340
aS'+'
asS'MVB12A'
p2440
(lp2441
I17405685
aI17425339
aS'+'
asS'ZNF649-AS1'
p2442
(lp2443
I51888024
aI51900464
aS'+'
asS'HSD11B1L'
p2444
(lp2445
I5680764
aI5688523
aS'+'
asS'CAPN12'
p2446
(lp2447
I38730191
aI38744474
aS'-'
asS'ZNF404'
p2448
(lp2449
I43872362
aI43880136
aS'-'
asS'LENG1'
p2450
(lp2451
I54155640
aI54159743
aS'-'
asS'GATAD2A'
p2452
(lp2453
I19385802
aI19508932
aS'+'
asS'LOC105372483'
p2454
(lp2455
I58362625
aI58366578
aS'+'
asS'MIR4322'
p2456
(lp2457
I10230412
aI10230485
aS'+'
asS'MIR4323'
p2458
(lp2459
I42133444
aI42133513
aS'-'
asS'MIR4321'
p2460
(lp2461
I2250638
aI2250718
aS'+'
asS'LOC729966'
p2462
(lp2463
I18249949
aI18255419
aS'-'
asS'SNORD152'
p2464
(lp2465
I38163095
aI38163149
aS'+'
asS'SNORD157'
p2466
(lp2467
I55402589
aI55402657
aS'-'
asS'HSH2D'
p2468
(lp2469
I16134027
aI16158573
aS'+'
asS'SMARCA4'
p2470
(lp2471
I10960921
aI11062282
aS'+'
asS'MLLT1'
p2472
(lp2473
I6210380
aI6279948
aS'-'
asS'NPAS1'
p2474
(lp2475
I47019843
aI47045775
aS'+'
asS'LOC101929124'
p2476
(lp2477
I22520994
aI22527949
aS'-'
asS'ARHGAP45'
p2478
(lp2479
I1065922
aI1087831
aS'+'
asS'GTPBP3'
p2480
(lp2481
I17334981
aI17342731
aS'+'
asS'PPP6R1'
p2482
(lp2483
I55229778
aI55258670
aS'-'
asS'EMC10'
p2484
(lp2485
I50476476
aI50483526
aS'+'
asS'MIDN'
p2486
(lp2487
I1248552
aI1259143
aS'+'
asS'TSEN34'
p2488
(lp2489
I54190267
aI54194536
aS'+'
asS'MIR6806'
p2490
(lp2491
I58334687
aI58334751
aS'+'
asS'OR7G2'
p2492
(lp2493
I9102268
aI9103306
aS'-'
asS'OR7G3'
p2494
(lp2495
I9126011
aI9126950
aS'-'
asS'BCL3'
p2496
(lp2497
I44748720
aI44760044
aS'+'
asS'OR7G1'
p2498
(lp2499
I9114827
aI9115763
aS'-'
asS'MIR6803'
p2500
(lp2501
I55245185
aI55245250
aS'-'
asS'MAN2B1'
p2502
(lp2503
I12646507
aI12666777
aS'-'
asS'MIR6802'
p2504
(lp2505
I55239911
aI55239976
aS'-'
asS'PLK5'
p2506
(lp2507
I1524073
aI1535456
aS'+'
asS'LRFN3'
p2508
(lp2509
I35937119
aI35945195
aS'+'
asS'LRFN1'
p2510
(lp2511
I39306816
aI39315336
aS'-'
asS'ACP7'
p2512
(lp2513
I39084304
aI39111488
aS'+'
asS'CYP2B7P'
p2514
(lp2515
I40924264
aI40950660
aS'+'
asS'LOC100507551'
p2516
(lp2517
I17488989
aI17511889
aS'-'
asS'TTC9B'
p2518
(lp2519
I40216057
aI40218399
aS'-'
asS'NOSIP'
p2520
(lp2521
I49555467
aI49580572
aS'-'
asS'C19orf44'
p2522
(lp2523
I16496310
aI16521369
aS'+'
asS'C19orf47'
p2524
(lp2525
I40321059
aI40348527
aS'-'
asS'C19orf48'
p2526
(lp2527
I50797692
aI50804853
aS'-'
asS'FSTL3'
p2528
(lp2529
I676388
aI683392
aS'+'
asS'IPO5P1'
p2530
(lp2531
I23255053
aI23274251
aS'-'
asS'TTYH1'
p2532
(lp2533
I54415430
aI54436719
aS'+'
asS'CSNK1G2'
p2534
(lp2535
I1941161
aI1981337
aS'+'
asS'SNAPC2'
p2536
(lp2537
I7920308
aI7923251
aS'+'
asS'CSNK1G2-AS1'
p2538
(lp2539
I1952526
aI1954549
aS'-'
asS'ZNF442'
p2540
(lp2541
I12345945
aI12365683
aS'-'
asS'GSK3A'
p2542
(lp2543
I42230190
aI42242602
aS'-'
asS'ATP8B3'
p2544
(lp2545
I1782074
aI1812276
aS'-'
asS'CYP4F11'
p2546
(lp2547
I15912369
aI15934866
aS'-'
asS'HPN-AS1'
p2548
(lp2549
I35059058
aI35106304
aS'-'
asS'LINC01002'
p2550
(lp2551
I197015
aI202209
aS'-'
asS'ZNF835'
p2552
(lp2553
I56662651
aI56671755
aS'-'
asS'LIPE-AS1'
p2554
(lp2555
I42397147
aI42652355
aS'+'
asS'KDELR1'
p2556
(lp2557
I48382569
aI48391553
aS'-'
asS'SPC24'
p2558
(lp2559
I11145493
aI11155812
aS'-'
asS'ZFP14'
p2560
(lp2561
I36334452
aI36379203
aS'-'
asS'AMH'
p2562
(lp2563
I2249278
aI2252073
aS'+'
asS'AKT1S1'
p2564
(lp2565
I49869032
aI49878356
aS'-'
asS'ZBTB32'
p2566
(lp2567
I35704486
aI35717038
aS'+'
asS'RNF225'
p2568
(lp2569
I58396089
aI58397079
aS'+'
asS'SIRT2'
p2570
(lp2571
I38878554
aI38899862
aS'-'
asS'SIRT6'
p2572
(lp2573
I4174108
aI4182604
aS'-'
asS'TMEM91'
p2574
(lp2575
I41363965
aI41384082
aS'+'
asS'BICRA'
p2576
(lp2577
I47608195
aI47703277
aS'+'
asS'SGTA'
p2578
(lp2579
I2754713
aI2783356
aS'-'
asS'FSD1'
p2580
(lp2581
I4304593
aI4323846
aS'+'
asS'NWD1'
p2582
(lp2583
I16719975
aI16817963
aS'+'
asS'KLK6'
p2584
(lp2585
I50958630
aI50969673
aS'-'
asS'HNRNPA1P10'
p2586
(lp2587
I11665735
aI11667089
aS'-'
asS'MIR6797'
p2588
(lp2589
I41869626
aI41869698
aS'+'
asS'RINL'
p2590
(lp2591
I38867831
aI38878279
aS'-'
asS'ZNF211'
p2592
(lp2593
I57633166
aI57644046
aS'+'
asS'VASP'
p2594
(lp2595
I45507429
aI45526982
aS'+'
asS'MIR512-1'
p2596
(lp2597
I53666678
aI53666762
aS'+'
asS'ZNF749'
p2598
(lp2599
I57435324
aI57447097
aS'+'
asS'ODF3L2'
p2600
(lp2601
I463345
aI474983
aS'-'
asS'TRMT1'
p2602
(lp2603
I13104899
aI13116771
aS'-'
asS'LILRA5'
p2604
(lp2605
I54307069
aI54313139
aS'-'
asS'TBXA2R'
p2606
(lp2607
I3594505
aI3606833
aS'-'
asS'CGB8'
p2608
(lp2609
I49047637
aI49049111
aS'-'
asS'CGB5'
p2610
(lp2611
I49043844
aI49045311
aS'+'
asS'CGB7'
p2612
(lp2613
I49054273
aI49055740
aS'-'
asS'CGB1'
p2614
(lp2615
I49035568
aI49036934
aS'-'
asS'CGB2'
p2616
(lp2617
I49031872
aI49033238
aS'+'
asS'CGB3'
p2618
(lp2619
I49022868
aI49024375
aS'-'
asS'MPV17L2'
p2620
(lp2621
I18193229
aI18196740
aS'+'
asS'UNC13A'
p2622
(lp2623
I17601327
aI17688199
aS'-'
asS'MIR1323'
p2624
(lp2625
I53671967
aI53672040
aS'+'
asS'FAM187B'
p2626
(lp2627
I35224800
aI35228725
aS'-'
asS'SYNE4'
p2628
(lp2629
I36003298
aI36008793
aS'-'
asS'HNRNPUL1'
p2630
(lp2631
I41262475
aI41307783
aS'+'
asS'ZNF527'
p2632
(lp2633
I37371156
aI37393064
aS'+'
asS'ZNF526'
p2634
(lp2635
I42220270
aI42227053
aS'+'
asS'ZNF525'
p2636
(lp2637
I53365692
aI53386588
aS'+'
asS'ZNF524'
p2638
(lp2639
I55600287
aI55603138
aS'+'
asS'ZNF529'
p2640
(lp2641
I36543614
aI36605276
aS'-'
asS'ZNF528'
p2642
(lp2643
I52397867
aI52418404
aS'+'
asS'EMP3'
p2644
(lp2645
I48325371
aI48330553
aS'+'
asS'MIR125A'
p2646
(lp2647
I51693253
aI51693339
aS'+'
asS'RPS11'
p2648
(lp2649
I49496364
aI49499712
aS'+'
asS'RPS16'
p2650
(lp2651
I39433136
aI39436020
aS'-'
asS'RPS15'
p2652
(lp2653
I1438363
aI1440497
aS'+'
asS'LOC100129935'
p2654
(lp2655
I39638684
aI39642401
aS'+'
asS'CLPP'
p2656
(lp2657
I6361451
aI6368904
aS'+'
asS'RPS19'
p2658
(lp2659
I41859917
aI41871416
aS'+'
asS'ZNF254'
p2660
(lp2661
I24033404
aI24129967
aS'+'
asS'ZNF257'
p2662
(lp2663
I22052447
aI22091101
aS'+'
asS'ZNF256'
p2664
(lp2665
I57940832
aI57947709
aS'-'
asS'DCAF15'
p2666
(lp2667
I13952473
aI13961449
aS'+'
asS'ZNF433-AS1'
p2668
(lp2669
I11987616
aI12046275
aS'+'
asS'SIGLEC10'
p2670
(lp2671
I51410020
aI51417803
aS'-'
asS'C19orf57'
p2672
(lp2673
I13882347
aI13906165
aS'-'
asS'ZNF419'
p2674
(lp2675
I57487710
aI57494680
aS'+'
asS'ZNF418'
p2676
(lp2677
I57921883
aI57935387
aS'-'
asS'MIR5088'
p2678
(lp2679
I49682116
aI49682195
aS'+'
asS'SLC35E1'
p2680
(lp2681
I16549836
aI16572415
aS'-'
asS'ZNF415'
p2682
(lp2683
I53107878
aI53132920
aS'-'
asS'ZNF414'
p2684
(lp2685
I8510577
aI8514164
aS'-'
asS'DAPK3'
p2686
(lp2687
I3958452
aI3971123
aS'-'
asS'RAX2'
p2688
(lp2689
I3769090
aI3772221
aS'-'
asS'RFXANK'
p2690
(lp2691
I19192198
aI19201869
aS'+'
asS'IGFLR1'
p2692
(lp2693
I35738800
aI35742452
aS'-'
asS'ZNF667-AS1'
p2694
(lp2695
I56477873
aI56495436
aS'+'
asS'KCNJ14'
p2696
(lp2697
I48455706
aI48466110
aS'+'
asS'ZNF30-AS1'
p2698
(lp2699
I34923014
aI34926826
aS'-'
asS'LOC390877'
p2700
(lp2701
I6396358
aI6412404
aS'+'
asS'DAZAP1'
p2702
(lp2703
I1407568
aI1435687
aS'+'
asS'PTPRS'
p2704
(lp2705
I5205507
aI5340803
aS'-'
asS'ACTN4'
p2706
(lp2707
I38647615
aI38730532
aS'+'
asS'FAM138C'
p2708
(lp2709
I76219
aI77690
aS'-'
asS'FAM138A'
p2710
(lp2711
I76219
aI77690
aS'-'
asS'FAM138F'
p2712
(lp2713
I76219
aI77690
aS'-'
asS'LILRP2'
p2714
(lp2715
I54707915
aI54713452
aS'+'
asS'CREB3L3'
p2716
(lp2717
I4153600
aI4173054
aS'+'
asS'PTPRH'
p2718
(lp2719
I55181246
aI55209506
aS'-'
asS'UBL5'
p2720
(lp2721
I9827879
aI9830121
aS'+'
asS'STK11'
p2722
(lp2723
I1205798
aI1228435
aS'+'
asS'MIR1302-2'
p2724
(lp2725
I71972
aI72110
aS'+'
asS'MIR1302-9'
p2726
(lp2727
I71972
aI72110
aS'+'
asS'FKBP8'
p2728
(lp2729
I18531751
aI18543596
aS'-'
asS'NAPSA'
p2730
(lp2731
I50358471
aI50365830
aS'-'
asS'NAPSB'
p2732
(lp2733
I50333799
aI50344748
aS'-'
asS'TYROBP'
p2734
(lp2735
I35904400
aI35908309
aS'-'
asS'SLC27A1'
p2736
(lp2737
I17470443
aI17506168
aS'+'
asS'LINC02560'
p2738
(lp2739
I58400202
aI58400679
aS'+'
asS'DMPK'
p2740
(lp2741
I45769708
aI45782557
aS'-'
asS'OR7D2'
p2742
(lp2743
I9185593
aI9188817
aS'+'
asS'OR7D4'
p2744
(lp2745
I9213849
aI9214871
aS'-'
asS'TRAPPC2B'
p2746
(lp2747
I57363434
aI57365402
aS'+'
asS'C19orf53'
p2748
(lp2749
I13774442
aI13778772
aS'+'
asS'LOC284395'
p2750
(lp2751
I29287010
aI29525752
aS'-'
asS'C19orf54'
p2752
(lp2753
I40740855
aI40750553
aS'-'
asS'PRR12'
p2754
(lp2755
I49591642
aI49626439
aS'+'
asS'PRR19'
p2756
(lp2757
I42302131
aI42310821
aS'+'
asS'DIRAS1'
p2758
(lp2759
I2714566
aI2721392
aS'-'
asS'HSD17B14'
p2760
(lp2761
I48813016
aI48836677
aS'-'
asS'TNFSF14'
p2762
(lp2763
I6661252
aI6670588
aS'-'
asS'LOC100128398'
p2764
(lp2765
I58002893
aI58007206
aS'+'
asS'GEMIN7'
p2766
(lp2767
I45079259
aI45091524
aS'+'
asS'MIR23A'
p2768
(lp2769
I13836586
aI13836659
aS'-'
asS'TNNT1'
p2770
(lp2771
I55132697
aI55149354
aS'-'
asS'IFNL1'
p2772
(lp2773
I39296406
aI39298673
aS'+'
asS'IFNL2'
p2774
(lp2775
I39268516
aI39270092
aS'+'
asS'IFNL3'
p2776
(lp2777
I39243605
aI39245077
aS'-'
asS'IFNL4'
p2778
(lp2779
I39246313
aI39248856
aS'-'
asS'TIMM13'
p2780
(lp2781
I2425624
aI2427586
aS'-'
asS'ZNF347'
p2782
(lp2783
I53138703
aI53159069
aS'-'
asS'LOC105372440'
p2784
(lp2785
I50776145
aI50786210
aS'-'
asS'LOC105372441'
p2786
(lp2787
I50830529
aI50851143
aS'+'
asS'IRGQ'
p2788
(lp2789
I43584366
aI43596135
aS'-'
asS'ERVV-2'
p2790
(lp2791
I53044737
aI53051127
aS'+'
asS'ZFP28'
p2792
(lp2793
I56538947
aI56556801
aS'+'
asS'IRGC'
p2794
(lp2795
I43716061
aI43720017
aS'+'
asS'FTL'
p2796
(lp2797
I48965308
aI48966879
aS'+'
asS'ZNRF4'
p2798
(lp2799
I5455414
aI5456856
aS'+'
asS'SBSN'
p2800
(lp2801
I35523366
aI35528351
aS'-'
asS'ZC3H4'
p2802
(lp2803
I47064189
aI47113752
aS'-'
asS'GPX4'
p2804
(lp2805
I1103925
aI1106789
aS'+'
asS'ABHD17A'
p2806
(lp2807
I1876975
aI1885519
aS'-'
asS'KLHL26'
p2808
(lp2809
I18636964
aI18670499
aS'+'
asS'CAPNS1'
p2810
(lp2811
I36139925
aI36150353
aS'+'
asS'TLE2'
p2812
(lp2813
I2997637
aI3047635
aS'-'
asS'TLE6'
p2814
(lp2815
I2977537
aI2995184
aS'+'
asS'PRKCSH'
p2816
(lp2817
I11435256
aI11450967
aS'+'
asS'ZNF816-ZNF321P'
p2818
(lp2819
I52927134
aI52962911
aS'-'
asS'LOC100128573'
p2820
(lp2821
I7472836
aI7473361
aS'-'
asS'A1BG-AS1'
p2822
(lp2823
I58351969
aI58355183
aS'+'
asS'TFPT'
p2824
(lp2825
I54107012
aI54115675
aS'-'
asS'GGN'
p2826
(lp2827
I38384351
aI38388028
aS'-'
asS'MIR199A1'
p2828
(lp2829
I10817425
aI10817496
aS'-'
asS'ETV2'
p2830
(lp2831
I35641736
aI35644871
aS'+'
asS'ADGRL1'
p2832
(lp2833
I14147736
aI14206185
aS'-'
asS'GRAMD1A'
p2834
(lp2835
I34994783
aI35026471
aS'+'
asS'ZNF730'
p2836
(lp2837
I23116974
aI23147212
aS'+'
asS'ZNF880'
p2838
(lp2839
I52369916
aI52385793
aS'+'
asS'ZNF737'
p2840
(lp2841
I20537991
aI20565820
aS'-'
asS'MISP3'
p2842
(lp2843
I14073008
aI14075062
aS'+'
asS'ZNF738'
p2844
(lp2845
I21358929
aI21388582
aS'+'
asS'ZNF888'
p2846
(lp2847
I52905892
aI52917931
aS'-'
asS'ABCA7'
p2848
(lp2849
I1040102
aI1065571
aS'+'
asS'SH2D3A'
p2850
(lp2851
I6752161
aI6767512
aS'-'
asS'PSMD8'
p2852
(lp2853
I38374549
aI38383824
aS'+'
asS'TMEM259'
p2854
(lp2855
I1009650
aI1021142
aS'-'
asS'KCNC3'
p2856
(lp2857
I50311941
aI50333515
aS'-'
asS'ZNF490'
p2858
(lp2859
I12576105
aI12610809
aS'-'
asS'ZNF14'
p2860
(lp2861
I19710471
aI19733112
aS'-'
asS'SCGB1B2P'
p2862
(lp2863
I34576732
aI34677031
aS'-'
asS'ZNF17'
p2864
(lp2865
I57411146
aI57421939
aS'+'
asS'PPFIA3'
p2866
(lp2867
I49119388
aI49151030
aS'+'
asS'SPACA6P-AS'
p2868
(lp2869
I51685362
aI51693456
aS'-'
asS'LOC101059948'
p2870
(lp2871
I49018247
aI49019484
aS'-'
asS'PPP5D1'
p2872
(lp2873
I46480787
aI46601200
aS'-'
asS'ZNF649'
p2874
(lp2875
I51889234
aI51905052
aS'-'
asS'ILVBL'
p2876
(lp2877
I15114973
aI15125799
aS'-'
asS'SIPA1L3'
p2878
(lp2879
I37907220
aI38208372
aS'+'
asS'MIR518B'
p2880
(lp2881
I53702736
aI53702819
aS'+'
asS'MIR518E'
p2882
(lp2883
I53729837
aI53729925
aS'+'
asS'MIR518D'
p2884
(lp2885
I53734876
aI53734963
aS'+'
asS'MIR518F'
p2886
(lp2887
I53700014
aI53700101
aS'+'
asS'LTBP4'
p2888
(lp2889
I40593165
aI40629820
aS'+'
asS'RTN2'
p2890
(lp2891
I45485287
aI45497055
aS'-'
asS'LOC101928295'
p2892
(lp2893
I49368704
aI49388081
aS'-'
asS'PLA2G4C'
p2894
(lp2895
I48047842
aI48110852
aS'-'
asS'ATP4A'
p2896
(lp2897
I35550192
aI35563658
aS'-'
asS'IER2'
p2898
(lp2899
I13150467
aI13154904
aS'+'
asS'ZNF468'
p2900
(lp2901
I52838531
aI52857649
aS'-'
asS'RNU6-2'
p2902
(lp2903
I893483
aI893590
aS'+'
asS'MBD3'
p2904
(lp2905
I1573595
aI1592865
aS'-'
asS'LILRA6'
p2906
(lp2907
I54236591
aI54242768
aS'-'
asS'LILRA4'
p2908
(lp2909
I54333184
aI54339169
aS'-'
asS'ZNF461'
p2910
(lp2911
I36636620
aI36666853
aS'-'
asS'LILRA2'
p2912
(lp2913
I54572996
aI54587561
aS'+'
asS'LILRA1'
p2914
(lp2915
I54593575
aI54602381
aS'+'
asS'TSPAN16'
p2916
(lp2917
I11296138
aI11326996
aS'+'
asS'REXO1'
p2918
(lp2919
I1815245
aI1848453
aS'-'
asS'KIR3DS1'
p2920
(lp2921
I54816463
aI54867095
aS'+'
asS'PSG10P'
p2922
(lp2923
I42836996
aI42855718
aS'-'
asS'RASAL3'
p2924
(lp2925
I15451624
aI15464544
aS'-'
asS'ZNF264'
p2926
(lp2927
I57191499
aI57222846
aS'+'
asS'ZNF266'
p2928
(lp2929
I9412425
aI9435578
aS'-'
asS'ZNF260'
p2930
(lp2931
I36510686
aI36528346
aS'-'
asS'NDUFA11'
p2932
(lp2933
I5891275
aI5904013
aS'-'
asS'NDUFA13'
p2934
(lp2935
I19516209
aI19528204
aS'+'
asS'IGFL2-AS1'
p2936
(lp2937
I46189028
aI46203062
aS'-'
asS'VSIG10L'
p2938
(lp2939
I51331535
aI51342124
aS'-'
asS'CNOT3'
p2940
(lp2941
I54137719
aI54155708
aS'+'
asS'GOLGA2P9'
p2942
(lp2943
I22596256
aI22603550
aS'+'
asS'KIRREL2'
p2944
(lp2945
I35856907
aI35867146
aS'+'
asS'PROSER3'
p2946
(lp2947
I35758142
aI35769175
aS'+'
asS'MIR518C'
p2948
(lp2949
I53708734
aI53708835
aS'+'
asS'LOC105372273'
p2950
(lp2951
I11203627
aI11216168
aS'+'
asS'FCGRT'
p2952
(lp2953
I49512278
aI49526428
aS'+'
asS'GNG7'
p2954
(lp2955
I2511219
aI2702748
aS'-'
asS'LINC01480'
p2956
(lp2957
I41535497
aI41536904
aS'+'
asS'BSPH1'
p2958
(lp2959
I47968045
aI47992170
aS'-'
asS'GNG8'
p2960
(lp2961
I46634075
aI46634682
aS'-'
asS'LINC01801'
p2962
(lp2963
I34816153
aI34832869
aS'-'
asS'FUZ'
p2964
(lp2965
I49806865
aI49813310
aS'-'
asS'COX6B1'
p2966
(lp2967
I35648322
aI35658782
aS'+'
asS'COX6B2'
p2968
(lp2969
I55349701
aI55354814
aS'-'
asS'C19orf66'
p2970
(lp2971
I10086118
aI10093252
aS'+'
asS'C19orf67'
p2972
(lp2973
I14081631
aI14085795
aS'-'
asS'CCDC124'
p2974
(lp2975
I17933014
aI17943985
aS'+'
asS'KHSRP'
p2976
(lp2977
I6413101
aI6424811
aS'-'
asS'INSL3'
p2978
(lp2979
I17816512
aI17821574
aS'-'
asS'ZIK1'
p2980
(lp2981
I57583975
aI57593890
aS'+'
asS'ITPKC'
p2982
(lp2983
I40717111
aI40740860
aS'+'
asS'RAB11B'
p2984
(lp2985
I8390320
aI8404433
aS'+'
asS'TMEM86B'
p2986
(lp2987
I55226633
aI55229264
aS'-'
asS'PRR22'
p2988
(lp2989
I5782959
aI5784765
aS'-'
asS'NRTN'
p2990
(lp2991
I5823801
aI5828324
aS'+'
asS'MIR518A1'
p2992
(lp2993
I53731005
aI53731090
aS'+'
asS'MIR518A2'
p2994
(lp2995
I53739332
aI53739419
aS'+'
asS'LGALS7B'
p2996
(lp2997
I38789209
aI38791754
aS'+'
asS'ZNF302'
p2998
(lp2999
I34677638
aI34686397
aS'+'
asS'CCDC105'
p3000
(lp3001
I15010726
aI15023271
aS'+'
asS'IRF3'
p3002
(lp3003
I49659568
aI49665875
aS'-'
asS'RNASEH2A'
p3004
(lp3005
I12806613
aI12813648
aS'+'
asS'CCDC106'
p3006
(lp3007
I55647587
aI55653160
aS'+'
asS'NOP53-AS1'
p3008
(lp3009
I47757035
aI47768840
aS'-'
asS'DMWD'
p3010
(lp3011
I45782946
aI45792845
aS'-'
asS'CD70'
p3012
(lp3013
I6581645
aI6591152
aS'-'
asS'ONECUT3'
p3014
(lp3015
I1753662
aI1775445
aS'+'
asS'CIRBP'
p3016
(lp3017
I1269265
aI1274809
aS'+'
asS'TMEM161A'
p3018
(lp3019
I19119615
aI19138501
aS'-'
asS'APC2'
p3020
(lp3021
I1450148
aI1473244
aS'+'
asS'LOC100129083'
p3022
(lp3023
I51415723
aI51418196
aS'+'
asS'LOC100289333'
p3024
(lp3025
I12195014
aI12207576
aS'+'
asS'NLRP5'
p3026
(lp3027
I55999725
aI56061808
aS'+'
asS'NLRP4'
p3028
(lp3029
I55836577
aI55881854
aS'+'
asS'NLRP7'
p3030
(lp3031
I54923508
aI54947505
aS'-'
asS'NLRP2'
p3032
(lp3033
I54965278
aI55001142
aS'+'
asS'NLRP9'
p3034
(lp3035
I55708431
aI55738402
aS'-'
asS'NLRP8'
p3036
(lp3037
I55947831
aI55988629
aS'+'
asS'TEX101'
p3038
(lp3039
I43388610
aI43418615
aS'+'
asS'TNFSF9'
p3040
(lp3041
I6531025
aI6535924
aS'+'
asS'TMEM150B'
p3042
(lp3043
I55312800
aI55325340
aS'-'
asS'CLASRP'
p3044
(lp3045
I45039039
aI45070956
aS'+'
asS'MIR7974'
p3046
(lp3047
I11495543
aI11495622
aS'-'
asS'MIR7975'
p3048
(lp3049
I55123224
aI55123292
aS'-'
asS'MED25'
p3050
(lp3051
I49818278
aI49836980
aS'+'
asS'PAF1'
p3052
(lp3053
I39385629
aI39391195
aS'-'
asS'COL5A3'
p3054
(lp3055
I9959560
aI10010471
aS'-'
asS'JOSD2'
p3056
(lp3057
I50505996
aI50511355
aS'-'
asS'MIR6515'
p3058
(lp3059
I12940483
aI12940540
aS'+'
asS'OR10H2'
p3060
(lp3061
I15728023
aI15729052
aS'+'
asS'OR10H3'
p3062
(lp3063
I15741392
aI15742343
aS'+'
asS'OR10H1'
p3064
(lp3065
I15807006
aI15808126
aS'-'
asS'LOC728752'
p3066
(lp3067
I36489626
aI36491040
aS'+'
asS'OR10H5'
p3068
(lp3069
I15794048
aI15794996
aS'+'
asS'ZFP36'
p3070
(lp3071
I39406846
aI39409405
aS'+'
asS'HKR1'
p3072
(lp3073
I37312836
aI37364456
aS'+'
asS'LENG9'
p3074
(lp3075
I54461731
aI54463778
aS'-'
asS'LENG8'
p3076
(lp3077
I54449161
aI54462046
aS'+'
asS'MICOS13'
p3078
(lp3079
I5678413
aI5680896
aS'-'
asS'UQCR11'
p3080
(lp3081
I1597154
aI1605484
aS'-'
asS'ERCC2'
p3082
(lp3083
I45351390
aI45370587
aS'-'
asS'LAIR2'
p3084
(lp3085
I54502796
aI54510690
aS'+'
asS'ZNF529-AS1'
p3086
(lp3087
I36573069
aI36594716
aS'+'
asS'NLRP11'
p3088
(lp3089
I55785396
aI55836762
aS'-'
asS'MRPS12'
p3090
(lp3091
I38930707
aI38933019
aS'+'
asS'NLRP13'
p3092
(lp3093
I55891694
aI55932336
aS'-'
asS'ZSCAN4'
p3094
(lp3095
I57668934
aI57679152
aS'+'
asS'BBC3'
p3096
(lp3097
I47220821
aI47232766
aS'-'
asS'VSTM1'
p3098
(lp3099
I54040825
aI54063953
aS'-'
asS'SERTAD1'
p3100
(lp3101
I40421589
aI40425992
aS'-'
asS'ZNF723'
p3102
(lp3103
I22832320
aI22858667
aS'+'
asS'SERTAD3'
p3104
(lp3105
I40440840
aI40444375
aS'-'
asS'CEBPG'
p3106
(lp3107
I33373668
aI33382686
aS'+'
asS'ZNF724'
p3108
(lp3109
I23221598
aI23250390
aS'-'
asS'MIR372'
p3110
(lp3111
I53787889
aI53787956
aS'+'
asS'ZNF726'
p3112
(lp3113
I23914881
aI23944713
aS'+'
asS'ZNF729'
p3114
(lp3115
I22286449
aI22317176
aS'+'
asS'ZNF728'
p3116
(lp3117
I22974882
aI23003208
aS'-'
asS'KDM4B'
p3118
(lp3119
I4969112
aI5153597
aS'+'
asS'TNNI3'
p3120
(lp3121
I55151767
aI55157732
aS'-'
asS'MED16'
p3122
(lp3123
I867961
aI893218
aS'-'
asS'SCN1B'
p3124
(lp3125
I35030687
aI35040449
aS'+'
asS'ZNF543'
p3126
(lp3127
I57320496
aI57330776
aS'+'
asS'LOC100507373'
p3128
(lp3129
I14137151
aI14171263
aS'+'
asS'LSM7'
p3130
(lp3131
I2321520
aI2328615
aS'-'
asS'MIR642B'
p3132
(lp3133
I45674931
aI45675008
aS'-'
asS'MIR642A'
p3134
(lp3135
I45674927
aI45675024
aS'+'
asS'THOP1'
p3136
(lp3137
I2785502
aI2815807
aS'+'
asS'ZNF69'
p3138
(lp3139
I11887783
aI11914550
aS'+'
asS'MIR1181'
p3140
(lp3141
I10403457
aI10403538
aS'-'
asS'CEACAM18'
p3142
(lp3143
I51478642
aI51490605
aS'+'
asS'LOC101928517'
p3144
(lp3145
I51152922
aI51181966
aS'-'
asS'CEACAM16'
p3146
(lp3147
I44699150
aI44710718
aS'+'
asS'ZNF460'
p3148
(lp3149
I57279966
aI57293568
aS'+'
asS'SNORD105B'
p3150
(lp3151
I10109748
aI10109840
aS'+'
asS'CLEC4M'
p3152
(lp3153
I7763148
aI7769605
aS'+'
asS'GFY'
p3154
(lp3155
I49426430
aI49428818
aS'+'
asS'CLEC4G'
p3156
(lp3157
I7728956
aI7732171
aS'-'
asS'NOTCH3'
p3158
(lp3159
I15159037
aI15200995
aS'-'
asS'CACNG8'
p3160
(lp3161
I53963035
aI53990215
aS'+'
asS'CLEC4GP1'
p3162
(lp3163
I7787483
aI7791012
aS'+'
asS'CEBPA-DT'
p3164
(lp3165
I33302820
aI33305057
aS'+'
asS'CACNG6'
p3166
(lp3167
I53991148
aI54012666
aS'+'
asS'CACNG7'
p3168
(lp3169
I53912736
aI53943715
aS'+'
asS'MIR519D'
p3170
(lp3171
I53713346
aI53713434
aS'+'
asS'TOMM40'
p3172
(lp3173
I44891219
aI44903689
aS'+'
asS'APOC1P1'
p3174
(lp3175
I44926802
aI44931386
aS'+'
asS'MIR519C'
p3176
(lp3177
I53686468
aI53686555
aS'+'
asS'CRLF1'
p3178
(lp3179
I18593236
aI18606799
aS'-'
asS'APOC4'
p3180
(lp3181
I44942237
aI44945496
aS'+'
asS'MIR4750'
p3182
(lp3183
I49888174
aI49888230
aS'+'
asS'APOC2'
p3184
(lp3185
I44945981
aI44949566
aS'+'
asS'APOC1'
p3186
(lp3187
I44914246
aI44919349
aS'+'
asS'ZNF460-AS1'
p3188
(lp3189
I57267192
aI57280334
aS'-'
asS'ASPDH'
p3190
(lp3191
I50511599
aI50514690
aS'-'
asS'CERS4'
p3192
(lp3193
I8209332
aI8262420
aS'+'
asS'LINGO3'
p3194
(lp3195
I2289774
aI2308157
aS'-'
asS'ZNF382'
p3196
(lp3197
I36605312
aI36634114
aS'+'
asS'CERS1'
p3198
(lp3199
I18868545
aI18896144
aS'-'
asS'EML2'
p3200
(lp3201
I45609399
aI45645629
aS'-'
asS'GADD45B'
p3202
(lp3203
I2476124
aI2478259
aS'+'
asS'PRODH2'
p3204
(lp3205
I35799989
aI35813299
aS'-'
asS'SCGB2B2'
p3206
(lp3207
I34590624
aI34594585
aS'-'
asS'ZNF471'
p3208
(lp3209
I56507842
aI56530214
aS'+'
asS'ADM5'
p3210
(lp3211
I49688684
aI49690990
aS'+'
asS'ZNF473'
p3212
(lp3213
I50025892
aI50048774
aS'+'
asS'ZNF542P'
p3214
(lp3215
I56368098
aI56379827
aS'+'
asS'GPI'
p3216
(lp3217
I34364739
aI34402413
aS'+'
asS'ZNF826P'
p3218
(lp3219
I20398657
aI20424965
aS'-'
asS'SLC25A23'
p3220
(lp3221
I6440063
aI6459770
aS'-'
asS'FAM90A27P'
p3222
(lp3223
I53282289
aI53284349
aS'+'
asS'CNN1'
p3224
(lp3225
I11538716
aI11550323
aS'+'
asS'SNRPD2'
p3226
(lp3227
I45687453
aI45692316
aS'-'
asS'CNN2'
p3228
(lp3229
I1026274
aI1039068
aS'+'
asS'MIR5196'
p3230
(lp3231
I35345512
aI35345627
aS'+'
asS'FOXA3'
p3232
(lp3233
I45864259
aI45873797
aS'+'
asS'BST2'
p3234
(lp3235
I17402938
aI17405648
aS'-'
asS'CRX'
p3236
(lp3237
I47821839
aI47843329
aS'+'
asS'CARM1'
p3238
(lp3239
I10871576
aI10922772
aS'+'
asS'CRTC1'
p3240
(lp3241
I18683614
aI18782333
aS'+'
asS'EXOC3L2'
p3242
(lp3243
I45212376
aI45234211
aS'-'
asS'B9D2'
p3244
(lp3245
I41354416
aI41364149
aS'-'
asS'SDHAF1'
p3246
(lp3247
I35995187
aI35996318
aS'+'
asS'TRPM4'
p3248
(lp3249
I49157740
aI49211841
aS'+'
asS'LINC01835'
p3250
(lp3251
I15851993
aI15864904
aS'-'
asS'LOC101930071'
p3252
(lp3253
I42397127
aI42408452
aS'+'
asS'LOC100420587'
p3254
(lp3255
I28435388
aI28727694
aS'-'
asS'LINC01838'
p3256
(lp3257
I34905314
aI34908190
aS'+'
asS'C19orf71'
p3258
(lp3259
I3539156
aI3544030
aS'+'
asS'C19orf70'
p3260
(lp3261
I5678413
aI5680896
aS'-'
asS'C19orf73'
p3262
(lp3263
I49118396
aI49119140
aS'-'
asS'LOC400710'
p3264
(lp3265
I50050588
aI50075583
aS'+'
asS'SPACA4'
p3266
(lp3267
I48606742
aI48607714
aS'+'
asS'SPACA6'
p3268
(lp3269
I51689433
aI51705190
aS'+'
asS'CCDC130'
p3270
(lp3271
I13731759
aI13763298
aS'+'
asS'ZNF583'
p3272
(lp3273
I56404013
aI56425031
aS'+'
asS'TBC1D17'
p3274
(lp3275
I49877424
aI49888750
aS'+'
asS'LINC01233'
p3276
(lp3277
I22532625
aI22533494
aS'+'
asS'SULT2B1'
p3278
(lp3279
I48552171
aI48599427
aS'+'
asS'NXNL1'
p3280
(lp3281
I17455424
aI17460916
aS'-'
asS'PRR36'
p3282
(lp3283
I7868718
aI7874441
aS'-'
asS'VMAC'
p3284
(lp3285
I5904840
aI5910252
aS'+'
asS'ZNF587'
p3286
(lp3287
I57849812
aI57865123
aS'+'
asS'THEG'
p3288
(lp3289
I362056
aI376013
aS'-'
asS'DOHH'
p3290
(lp3291
I3490820
aI3500940
aS'-'
asS'OLFM2'
p3292
(lp3293
I9853717
aI9936552
aS'-'
asS'DNAAF3'
p3294
(lp3295
I55158660
aI55166722
aS'-'
asS'MARK4'
p3296
(lp3297
I45251257
aI45305283
aS'+'
asS'RPL13A'
p3298
(lp3299
I49487553
aI49492307
aS'+'
asS'ICAM5'
p3300
(lp3301
I10289951
aI10296778
aS'+'
asS'ICAM4'
p3302
(lp3303
I10286966
aI10288584
aS'+'
asS'ICAM3'
p3304
(lp3305
I10333775
aI10339834
aS'-'
asS'ICAM1'
p3306
(lp3307
I10270840
aI10286615
aS'+'
asS'SLC8A2'
p3308
(lp3309
I47428016
aI47471893
aS'-'
asS'EFNA2'
p3310
(lp3311
I1286153
aI1301430
aS'+'
asS'PODNL1'
p3312
(lp3313
I13931186
aI13953392
aS'-'
asS'LRP3'
p3314
(lp3315
I33194692
aI33208867
aS'+'
asS'ISOC2'
p3316
(lp3317
I55452978
aI55461682
aS'-'
asS'LYPLA2P2'
p3318
(lp3319
I7878630
aI7880232
aS'-'
asS'OR7A10'
p3320
(lp3321
I14840947
aI14841877
aS'-'
asS'YJU2'
p3322
(lp3323
I4247069
aI4269093
aS'+'
asS'OR7A17'
p3324
(lp3325
I14880425
aI14881355
aS'-'
asS'PDE4A'
p3326
(lp3327
I10416772
aI10469631
aS'+'
asS'WDR18'
p3328
(lp3329
I984327
aI994570
aS'+'
asS'CALR3'
p3330
(lp3331
I16479056
aI16496192
aS'-'
asS'PEG3'
p3332
(lp3333
I56810076
aI56840726
aS'-'
asS'MAP4K1'
p3334
(lp3335
I38587639
aI38618035
aS'-'
asS'PPP2R1A'
p3336
(lp3337
I52189801
aI52226425
aS'+'
asS'WASH5P'
p3338
(lp3339
I60950
aI70966
aS'-'
asS'MAP2K2'
p3340
(lp3341
I4090321
aI4124129
aS'-'
asS'MAP2K7'
p3342
(lp3343
I7903779
aI7914483
aS'+'
asS'OCEL1'
p3344
(lp3345
I17226225
aI17229219
aS'+'
asS'TEAD2'
p3346
(lp3347
I49340595
aI49362457
aS'-'
asS'PDCD2L'
p3348
(lp3349
I34404397
aI34426167
aS'+'
asS'PLEKHF1'
p3350
(lp3351
I29665419
aI29675476
aS'+'
asS'PIN1'
p3352
(lp3353
I9835206
aI9849689
aS'+'
asS'HSPB6'
p3354
(lp3355
I35754565
aI35757029
aS'-'
asS'KMT2B'
p3356
(lp3357
I35718018
aI35738880
aS'+'
asS'PKN1'
p3358
(lp3359
I14433305
aI14471872
aS'+'
asS'CLEC11A'
p3360
(lp3361
I50723347
aI50725724
aS'+'
asS'ZNF714'
p3362
(lp3363
I21082146
aI21125080
aS'+'
asS'MIR521-1'
p3364
(lp3365
I53748635
aI53748722
aS'+'
asS'ZNF865'
p3366
(lp3367
I55613592
aI55618541
aS'+'
asS'CYP2G1P'
p3368
(lp3369
I40890825
aI40900508
aS'+'
asS'MIR521-2'
p3370
(lp3371
I53716593
aI53716680
aS'+'
asS'ZNF625-ZNF20'
p3372
(lp3373
I12131352
aI12156731
aS'-'
asS'MIRLET7E'
p3374
(lp3375
I51692785
aI51692864
aS'+'
asS'LOC100379224'
p3376
(lp3377
I44105338
aI44113183
aS'-'
asS'CASP14'
p3378
(lp3379
I15049479
aI15058292
aS'+'
asS'APLP1'
p3380
(lp3381
I35868444
aI35879797
aS'+'
asS'MIR1199'
p3382
(lp3383
I14073360
aI14073479
aS'+'
asS'ZNF77'
p3384
(lp3385
I2933217
aI2944971
aS'-'
asS'SPINT2'
p3386
(lp3387
I38264457
aI38292614
aS'+'
asS'CYP2F1'
p3388
(lp3389
I41114431
aI41128381
aS'+'
asS'RYR1'
p3390
(lp3391
I38433699
aI38587564
aS'+'
asS'LIG1'
p3392
(lp3393
I48115444
aI48170603
aS'-'
asS'PTBP1'
p3394
(lp3395
I797391
aI812327
aS'+'
asS'ZNF665'
p3396
(lp3397
I53163298
aI53193425
aS'-'
asS'ZNF667'
p3398
(lp3399
I56439323
aI56477401
aS'-'
asS'SCAMP4'
p3400
(lp3401
I1905213
aI1926017
aS'+'
asS'GIPC1'
p3402
(lp3403
I14477758
aI14496149
aS'-'
asS'GIPC3'
p3404
(lp3405
I3585570
aI3593541
aS'+'
asS'ZNF444'
p3406
(lp3407
I56141165
aI56160893
aS'+'
asS'ZNF446'
p3408
(lp3409
I58477178
aI58489533
aS'+'
asS'ZNF440'
p3410
(lp3411
I11814291
aI11835201
aS'+'
asS'ZNF441'
p3412
(lp3413
I11766999
aI11784078
aS'+'
asS'KCTD15'
p3414
(lp3415
I33796845
aI33815761
aS'+'
asS'ZNF443'
p3416
(lp3417
I12429705
aI12441112
aS'-'
asS'FZR1'
p3418
(lp3419
I3506296
aI3536757
aS'+'
asS'MIR1302-10'
p3420
(lp3421
I71972
aI72110
aS'+'
asS'MIR1302-11'
p3422
(lp3423
I71972
aI72110
aS'+'
asS'DKKL1'
p3424
(lp3425
I49363729
aI49375116
aS'+'
asS'MIR526A2'
p3426
(lp3427
I53726921
aI53726986
aS'+'
asS'MIR526A1'
p3428
(lp3429
I53706251
aI53706336
aS'+'
asS'CYP2T1P'
p3430
(lp3431
I40808442
aI40811100
aS'-'
asS'DNM2'
p3432
(lp3433
I10718052
aI10831910
aS'+'
asS'PSENEN'
p3434
(lp3435
I35745576
aI35747519
aS'+'
asS'SAMD1'
p3436
(lp3437
I14087845
aI14090575
aS'-'
asS'ZNF284'
p3438
(lp3439
I44072143
aI44089613
aS'+'
asS'ZNF285'
p3440
(lp3441
I44385645
aI44401611
aS'-'
asS'ZNF283'
p3442
(lp3443
I43827291
aI43848898
aS'+'
asS'ZNF534'
p3444
(lp3445
I52428970
aI52452263
aS'+'
asS'PLPPR2'
p3446
(lp3447
I11355385
aI11365698
aS'+'
asS'PLPPR3'
p3448
(lp3449
I812487
aI821952
aS'-'
asS'STRN4'
p3450
(lp3451
I46719510
aI46746463
aS'-'
asS'GYS1'
p3452
(lp3453
I48968124
aI48993353
aS'-'
asS'LOC100505851'
p3454
(lp3455
I23949518
aI23957953
aS'-'
asS'NPHS1'
p3456
(lp3457
I35825371
aI35851993
aS'-'
asS'ZNF530'
p3458
(lp3459
I57599884
aI57612721
aS'+'
asS'OR7C2'
p3460
(lp3461
I14941488
aI14942448
aS'+'
asS'ZNF324B'
p3462
(lp3463
I58451603
aI58457832
aS'+'
asS'OR7C1'
p3464
(lp3465
I14799173
aI14800136
aS'-'
asS'BTBD2'
p3466
(lp3467
I1985447
aI2015703
aS'-'
asS'EHD2'
p3468
(lp3469
I47713343
aI47743134
aS'+'
asS'RAD23A'
p3470
(lp3471
I12945813
aI12953643
aS'+'
asS'FOSB'
p3472
(lp3473
I45467994
aI45475179
aS'+'
asS'SIGLEC17P'
p3474
(lp3475
I51167327
aI51173524
aS'+'
asS'LOC400706'
p3476
(lp3477
I46057677
aI46077629
aS'-'
asS'LINC00665'
p3478
(lp3479
I36313060
aI36331718
aS'-'
asS'LINC00664'
p3480
(lp3481
I21483714
aI21503238
aS'+'
asS'LINC00661'
p3482
(lp3483
I16015633
aI16027462
aS'+'
asS'LINC00663'
p3484
(lp3485
I19756371
aI19776413
aS'-'
asS'LINC00662'
p3486
(lp3487
I27790492
aI27793940
aS'-'
asS'LGALS13'
p3488
(lp3489
I39602528
aI39607474
aS'+'
asS'TICAM1'
p3490
(lp3491
I4815923
aI4831742
aS'-'
asS'SMIM7'
p3492
(lp3493
I16646147
aI16660157
aS'-'
asS'LGALS16'
p3494
(lp3495
I39655893
aI39660647
aS'+'
asS'TMED1'
p3496
(lp3497
I10832066
aI10836212
aS'-'
asS'LGALS14'
p3498
(lp3499
I39704305
aI39709448
aS'+'
asS'MIR7108'
p3500
(lp3501
I2434913
aI2435000
aS'-'
asS'POLD1'
p3502
(lp3503
I50384322
aI50418018
aS'+'
asS'HNRNPL'
p3504
(lp3505
I38836387
aI38852339
aS'-'
asS'HNRNPM'
p3506
(lp3507
I8444827
aI8489118
aS'+'
asS'LINC01224'
p3508
(lp3509
I23399235
aI23416074
aS'-'
asS'IL4I1'
p3510
(lp3511
I49889655
aI49929539
aS'-'
asS'PDCD5'
p3512
(lp3513
I32581189
aI32587453
aS'+'
asS'REEP6'
p3514
(lp3515
I1491004
aI1497927
aS'+'
asS'NFIC'
p3516
(lp3517
I3359562
aI3469217
aS'+'
asS'TSKS'
p3518
(lp3519
I49739753
aI49763258
aS'-'
asS'EML2-AS1'
p3520
(lp3521
I45641493
aI45642834
aS'+'
asS'SYDE1'
p3522
(lp3523
I15107363
aI15114988
aS'+'
asS'PSPN'
p3524
(lp3525
I6375147
aI6375916
aS'-'
asS'PGPEP1'
p3526
(lp3527
I18340586
aI18369953
aS'+'
asS'SLC6A16'
p3528
(lp3529
I49289634
aI49325217
aS'-'
asS'TIMM29'
p3530
(lp3531
I10928810
aI10930254
aS'+'
asS'LOC644554'
p3532
(lp3533
I37817410
aI37826638
aS'+'
asS'WIZ'
p3534
(lp3535
I15421506
aI15449951
aS'-'
asS'LOC284454'
p3536
(lp3537
I13834515
aI13842918
aS'-'
asS'CIC'
p3538
(lp3539
I42268536
aI42295796
aS'+'
asS'CPAMD8'
p3540
(lp3541
I16892946
aI17026810
aS'-'
asS'FBXO46'
p3542
(lp3543
I45710628
aI45733171
aS'-'
asS'IGFL4'
p3544
(lp3545
I46039747
aI46041016
aS'-'
asS'LONP1'
p3546
(lp3547
I5691833
aI5720452
aS'-'
asS'GAPDHS'
p3548
(lp3549
I35533411
aI35545319
aS'+'
asS'DMKN'
p3550
(lp3551
I35497216
aI35513658
aS'-'
asS'RAB3D'
p3552
(lp3553
I11322045
aI11339668
aS'-'
asS'RAB3A'
p3554
(lp3555
I18196800
aI18204064
aS'-'
asS'ARMC6'
p3556
(lp3557
I19033577
aI19058178
aS'+'
asS'LRG1'
p3558
(lp3559
I4537214
aI4540024
aS'-'
asS'PLEKHG2'
p3560
(lp3561
I39413109
aI39428415
aS'+'
asS'SIGLEC7'
p3562
(lp3563
I51142300
aI51153526
aS'+'
asS'SLC7A10'
p3564
(lp3565
I33208663
aI33225850
aS'-'
asS'SIGLEC8'
p3566
(lp3567
I51450996
aI51458454
aS'-'
asS'SIGLEC9'
p3568
(lp3569
I51124879
aI51136263
aS'+'
asS'SIGLEC5'
p3570
(lp3571
I51611502
aI51630474
aS'-'
asS'SIGLEC6'
p3572
(lp3573
I51517818
aI51531856
aS'-'
asS'NFIX'
p3574
(lp3575
I12995474
aI13098796
aS'+'
as.