(dp1
S'SSPN'
p2
(lp3
I26195335
aI26234775
aS'+'
asS'FGFR1OP2'
p4
(lp5
I26938371
aI26966648
aS'+'
asS'RNF10'
p6
(lp7
I120534329
aI120577594
aS'+'
asS'LOC100506869'
p8
(lp9
I58591701
aI58812668
aS'+'
asS'RITA1'
p10
(lp11
I113185525
aI113192368
aS'+'
asS'SPX'
p12
(lp13
I21526256
aI21532951
aS'+'
asS'GRASP-AS1'
p14
(lp15
I52006249
aI52007655
aS'-'
asS'LINC02398'
p16
(lp17
I20014684
aI20098868
aS'+'
asS'FLJ12825'
p18
(lp19
I54058253
aI54122234
aS'+'
asS'GPR182'
p20
(lp21
I56994491
aI56998447
aS'+'
asS'ZC3H10'
p22
(lp23
I56118219
aI56122496
aS'+'
asS'KDM2B'
p24
(lp25
I121429095
aI121581015
aS'-'
asS'PPHLN1'
p26
(lp27
I42326144
aI42448620
aS'+'
asS'C2CD5'
p28
(lp29
I22448545
aI22544546
aS'-'
asS'SP1'
p30
(lp31
I53380194
aI53416442
aS'+'
asS'MIR6880'
p32
(lp33
I124337180
aI124337242
aS'-'
asS'SP7'
p34
(lp35
I53326575
aI53344793
aS'-'
asS'SPPL3'
p36
(lp37
I120762509
aI120904352
aS'-'
asS'CEP83'
p38
(lp39
I94306393
aI94459988
aS'-'
asS'CLEC2A'
p40
(lp41
I9898672
aI9932381
aS'-'
asS'CLEC2B'
p42
(lp43
I9852368
aI9869859
aS'-'
asS'CLEC2D'
p44
(lp45
I9669707
aI9699555
aS'+'
asS'OVCH1'
p46
(lp47
I29438025
aI29499693
aS'-'
asS'PARP11'
p48
(lp49
I3808860
aI3873448
aS'-'
asS'MYRFL'
p50
(lp51
I69825322
aI69958725
aS'+'
asS'LOC105369747'
p52
(lp53
I47305916
aI47307399
aS'-'
asS'ATP2A2'
p54
(lp55
I110281226
aI110351092
aS'+'
asS'LOC105369921'
p56
(lp57
I95795344
aI95858839
aS'-'
asS'NOP2'
p58
(lp59
I6556869
aI6568332
aS'-'
asS'ITGA5'
p60
(lp61
I54395260
aI54419266
aS'-'
asS'ITGA7'
p62
(lp63
I55684569
aI55712305
aS'-'
asS'CISTR'
p64
(lp65
I53750446
aI53757034
aS'-'
asS'MGST1'
p66
(lp67
I16347642
aI16377189
aS'+'
asS'IQSEC3'
p68
(lp69
I66882
aI178459
aS'+'
asS'PHLDA1'
p70
(lp71
I76025446
aI76031776
aS'-'
asS'FBXL14'
p72
(lp73
I1565992
aI1594581
aS'-'
asS'WSB2'
p74
(lp75
I118032690
aI118062174
aS'-'
asS'KSR2'
p76
(lp77
I117453011
aI117968223
aS'-'
asS'LOC105369632'
p78
(lp79
I6875764
aI6889358
aS'-'
asS'XPOT'
p80
(lp81
I64404347
aI64451128
aS'+'
asS'PYM1'
p82
(lp83
I55901412
aI55927913
aS'-'
asS'ANAPC5'
p84
(lp85
I121308244
aI121354209
aS'-'
asS'ANAPC7'
p86
(lp87
I110372899
aI110403730
aS'-'
asS'KCNH3'
p88
(lp89
I49539029
aI49558334
aS'+'
asS'PPTC7'
p90
(lp91
I110534431
aI110583259
aS'-'
asS'GIT2'
p92
(lp93
I109929791
aI109996389
aS'-'
asS'TMEM198B'
p94
(lp95
I55829607
aI55836246
aS'+'
asS'UHRF1BP1L'
p96
(lp97
I100037084
aI100142864
aS'-'
asS'FOXM1'
p98
(lp99
I2857680
aI2877155
aS'-'
asS'ARF3'
p100
(lp101
I48936208
aI48957469
aS'-'
asS'PRIM1'
p102
(lp103
I56731579
aI56752323
aS'-'
asS'HTR7P1'
p104
(lp105
I13000441
aI13004830
aS'+'
asS'ART4'
p106
(lp107
I14825568
aI14843533
aS'-'
asS'GLTP'
p108
(lp109
I109850942
aI109880488
aS'-'
asS'SH2B3'
p110
(lp111
I111405947
aI111451623
aS'+'
asS'ABCD2'
p112
(lp113
I39550032
aI39619803
aS'-'
asS'LINC02258'
p114
(lp115
I87768811
aI87805749
aS'+'
asS'METTL25'
p116
(lp117
I82358496
aI82479237
aS'+'
asS'LOC101928937'
p118
(lp119
I99093358
aI99105011
aS'+'
asS'MYL6B'
p120
(lp121
I56152419
aI56157987
aS'+'
asS'HMGA2-AS1'
p122
(lp123
I65851226
aI65882325
aS'-'
asS'SKP1P2'
p124
(lp125
I16988746
aI16990628
aS'+'
asS'RHEBL1'
p126
(lp127
I49064675
aI49070025
aS'-'
asS'IFT81'
p128
(lp129
I110124334
aI110218795
aS'+'
asS'EEA1'
p130
(lp131
I92772508
aI92929331
aS'-'
asS'RDH5'
p132
(lp133
I55720366
aI55724742
aS'+'
asS'CDCA3'
p134
(lp135
I6846724
aI6851930
aS'-'
asS'CLIP1'
p136
(lp137
I122271433
aI122422569
aS'-'
asS'ETNK1'
p138
(lp139
I22625141
aI22690674
aS'+'
asS'H1FNT'
p140
(lp141
I48328979
aI48330279
aS'+'
asS'ATP6V0A2'
p142
(lp143
I123712352
aI123761754
aS'+'
asS'RAB21'
p144
(lp145
I71754862
aI71793476
aS'+'
asS'THAP2'
p146
(lp147
I71663896
aI71680648
aS'+'
asS'FAR2'
p148
(lp149
I29149277
aI29335616
aS'+'
asS'AAAS'
p150
(lp151
I53307455
aI53321628
aS'-'
asS'TAC3'
p152
(lp153
I57009996
aI57016560
aS'-'
asS'MIR492'
p154
(lp155
I94834397
aI94834513
aS'+'
asS'PLBD1-AS1'
p156
(lp157
I14567731
aI14619755
aS'+'
asS'HDAC7'
p158
(lp159
I47782710
aI47819980
aS'-'
asS'SNORA9B'
p160
(lp161
I123616709
aI123616840
aS'+'
asS'ASB8'
p162
(lp163
I48147787
aI48157595
aS'-'
asS'CLEC1A'
p164
(lp165
I10069553
aI10099065
aS'-'
asS'CLEC1B'
p166
(lp167
I9993060
aI9999300
aS'-'
asS'PIP4K2C'
p168
(lp169
I57591158
aI57603428
aS'+'
asS'SCYL2'
p170
(lp171
I100267139
aI100341724
aS'+'
asS'CHFR'
p172
(lp173
I132840351
aI132887618
aS'-'
asS'RFX4'
p174
(lp175
I106582906
aI106762804
aS'+'
asS'CSAD'
p176
(lp177
I53157662
aI53180909
aS'-'
asS'ELK3'
p178
(lp179
I96194381
aI96269835
aS'+'
asS'PXN-AS1'
p180
(lp181
I120201290
aI120212828
aS'+'
asS'LOC100130268'
p182
(lp183
I75234739
aI75251865
aS'+'
asS'MIR1178'
p184
(lp185
I119713633
aI119713724
aS'-'
asS'PRPH'
p186
(lp187
I49295125
aI49298698
aS'+'
asS'GTSF1'
p188
(lp189
I54455951
aI54473602
aS'-'
asS'PARPBP'
p190
(lp191
I102120170
aI102197520
aS'+'
asS'TNS2'
p192
(lp193
I53047025
aI53064378
aS'+'
asS'LOC105370024'
p194
(lp195
I119174065
aI119176484
aS'-'
asS'IGF1'
p196
(lp197
I102395866
aI102480645
aS'-'
asS'ARID2'
p198
(lp199
I45729708
aI45908040
aS'+'
asS'NUDT4'
p200
(lp201
I93377922
aI93403248
aS'+'
asS'IGFBP6'
p202
(lp203
I53097666
aI53102340
aS'+'
asS'MIR4304'
p204
(lp205
I123010666
aI123010728
aS'-'
asS'ATP5F1B'
p206
(lp207
I56638174
aI56645984
aS'-'
asS'COX14'
p208
(lp209
I50111980
aI50120457
aS'+'
asS'NXPH4'
p210
(lp211
I57216794
aI57226449
aS'+'
asS'ANKRD13A'
p212
(lp213
I109999429
aI110039430
aS'+'
asS'RPLP0'
p214
(lp215
I120196699
aI120201211
aS'-'
asS'EIF2B1'
p216
(lp217
I123621022
aI123633776
aS'-'
asS'RACGAP1P'
p218
(lp219
I45062617
aI45065411
aS'-'
asS'MLF2'
p220
(lp221
I6747991
aI6753470
aS'-'
asS'PRPF40B'
p222
(lp223
I49623413
aI49644669
aS'+'
asS'FBXW8'
p224
(lp225
I116910955
aI117031148
aS'+'
asS'LETMD1'
p226
(lp227
I51048298
aI51068938
aS'+'
asS'NUP107'
p228
(lp229
I68686950
aI68745814
aS'+'
asS'AGAP2-AS1'
p230
(lp231
I57726239
aI57728356
aS'+'
asS'SLCO1A2'
p232
(lp233
I21264599
aI21395437
aS'-'
asS'MIR4700'
p234
(lp235
I120723192
aI120723266
aS'+'
asS'MIR4701'
p236
(lp237
I48771974
aI48772037
aS'-'
asS'OLR1'
p238
(lp239
I10158299
aI10172191
aS'-'
asS'TMEM52B'
p240
(lp241
I10170598
aI10191804
aS'+'
asS'LOC645177'
p242
(lp243
I24997561
aI25052446
aS'+'
asS'LOC101928030'
p244
(lp245
I9371781
aI9381422
aS'-'
asS'NFYB'
p246
(lp247
I104117085
aI104138210
aS'-'
asS'EP400P1'
p248
(lp249
I132084282
aI132126340
aS'+'
asS'FAM90A1'
p250
(lp251
I8221259
aI8227618
aS'-'
asS'RESF1'
p252
(lp253
I31959418
aI31993107
aS'+'
asS'PPP1R1A'
p254
(lp255
I54579239
aI54588659
aS'-'
asS'SNORA105C'
p256
(lp257
I56512864
aI56512980
aS'+'
asS'NEMP1'
p258
(lp259
I57055642
aI57078791
aS'-'
asS'LOC100652999'
p260
(lp261
I53513983
aI53517608
aS'+'
asS'NINJ2'
p262
(lp263
I564295
aI663741
aS'-'
asS'LOC101927318'
p264
(lp265
I49951511
aI49962783
aS'-'
asS'SLC16A7'
p266
(lp267
I59596039
aI59789854
aS'+'
asS'CMKLR1'
p268
(lp269
I108288043
aI108339317
aS'-'
asS'DYNLL1'
p270
(lp271
I120469856
aI120498495
aS'+'
asS'RAD9B'
p272
(lp273
I110502199
aI110532086
aS'+'
asS'KMT5A'
p274
(lp275
I123384115
aI123409353
aS'+'
asS'ERGIC2'
p276
(lp277
I29337352
aI29381172
aS'-'
asS'POLR3B'
p278
(lp279
I106357657
aI106510198
aS'+'
asS'PAH'
p280
(lp281
I102836885
aI102958410
aS'-'
asS'FAM66C'
p282
(lp283
I8180208
aI8201000
aS'+'
asS'DCN'
p284
(lp285
I91143276
aI91183124
aS'-'
asS'LOC100130075'
p286
(lp287
I68804436
aI68805494
aS'-'
asS'DCD'
p288
(lp289
I54644590
aI54648493
aS'-'
asS'CACNA1C'
p290
(lp291
I2053249
aI2697949
aS'+'
asS'ACSM4'
p292
(lp293
I7304331
aI7328373
aS'+'
asS'SYCP3'
p294
(lp295
I101728647
aI101739472
aS'-'
asS'MIR196A2'
p296
(lp297
I53991737
aI53991847
aS'+'
asS'WDR66'
p298
(lp299
I121918556
aI122003926
aS'+'
asS'TMEM263'
p300
(lp301
I106955721
aI106974037
aS'+'
asS'PRMT8'
p302
(lp303
I3381348
aI3593972
aS'+'
asS'SLC25A3'
p304
(lp305
I98593624
aI98602000
aS'+'
asS'HOTAIR'
p306
(lp307
I53962307
aI53974956
aS'-'
asS'R3HDM2'
p308
(lp309
I57253763
aI57431005
aS'-'
asS'SLC15A4'
p310
(lp311
I128793193
aI128823996
aS'-'
asS'SLC15A5'
p312
(lp313
I16188484
aI16277685
aS'-'
asS'ORMDL2'
p314
(lp315
I55818021
aI55821175
aS'+'
asS'KIF5A'
p316
(lp317
I57549991
aI57586633
aS'+'
asS'PTPN11'
p318
(lp319
I112418897
aI112509918
aS'+'
asS'MIR620'
p320
(lp321
I116148559
aI116148654
aS'-'
asS'FAM222A'
p322
(lp323
I109714381
aI109770507
aS'+'
asS'GLT1D1'
p324
(lp325
I128853433
aI128984964
aS'+'
asS'HNF1A-AS1'
p326
(lp327
I120969837
aI120972292
aS'-'
asS'ACADS'
p328
(lp329
I120725737
aI120740008
aS'+'
asS'GIHCG'
p330
(lp331
I57931448
aI57936164
aS'-'
asS'LLPH-DT'
p332
(lp333
I66130750
aI66134449
aS'+'
asS'GAPDH'
p334
(lp335
I6534516
aI6538375
aS'+'
asS'REP15'
p336
(lp337
I27696518
aI27697589
aS'+'
asS'LINC00939'
p338
(lp339
I125958685
aI125983374
aS'-'
asS'LINC00938'
p340
(lp341
I45725719
aI45727921
aS'-'
asS'ARHGAP9'
p342
(lp343
I57472254
aI57488814
aS'-'
asS'LINC00934'
p344
(lp345
I119283824
aI119303380
aS'-'
asS'LINC00937'
p346
(lp347
I8356963
aI8390752
aS'-'
asS'OR9K2'
p348
(lp349
I55129768
aI55130776
aS'+'
asS'USP44'
p350
(lp351
I95516559
aI95551476
aS'-'
asS'LOC100128253'
p352
(lp353
I3298513
aI3366122
aS'-'
asS'OVOS'
p354
(lp355
I9511659
aI9576268
aS'+'
asS'PPM1H'
p356
(lp357
I62643983
aI62934885
aS'-'
asS'NFE2'
p358
(lp359
I54292106
aI54301037
aS'-'
asS'LOC102724020'
p360
(lp361
I10015351
aI10030606
aS'-'
asS'MIR4472-2'
p362
(lp363
I116428251
aI116428318
aS'-'
asS'ATP2B1-AS1'
p364
(lp365
I89708954
aI89711952
aS'+'
asS'PRKAB1'
p366
(lp367
I119667955
aI119681624
aS'+'
asS'NCAPD2'
p368
(lp369
I6494131
aI6531966
aS'+'
asS'MIR135A2'
p370
(lp371
I97563811
aI97563911
aS'+'
asS'PTPN6'
p372
(lp373
I6946576
aI6961316
aS'+'
asS'SMIM10L1'
p374
(lp375
I11171180
aI11176020
aS'+'
asS'CAMKK2'
p376
(lp377
I121237691
aI121298308
aS'-'
asS'MYO1H'
p378
(lp379
I109388718
aI109448371
aS'+'
asS'MYO1A'
p380
(lp381
I57028516
aI57050765
aS'-'
asS'ALG10B'
p382
(lp383
I38316754
aI38329726
aS'+'
asS'LOC105369781'
p384
(lp385
I56010091
aI56025091
aS'-'
asS'ZNF385A'
p386
(lp387
I54369128
aI54391305
aS'-'
asS'MIR200CHG'
p388
(lp389
I6963244
aI6964447
aS'+'
asS'SLC6A13'
p390
(lp391
I220620
aI262873
aS'-'
asS'SLC6A12'
p392
(lp393
I190076
aI214205
aS'-'
asS'SLC6A15'
p394
(lp395
I84859487
aI84912829
aS'-'
asS'LOC100049716'
p396
(lp397
I630890
aI645878
aS'+'
asS'CS'
p398
(lp399
I56271698
aI56300391
aS'-'
asS'LOC105369879'
p400
(lp401
I87330738
aI87332321
aS'+'
asS'TRAFD1'
p402
(lp403
I112125544
aI112153604
aS'+'
asS'MIR6861'
p404
(lp405
I112163257
aI112163321
aS'-'
asS'LOC101928731'
p406
(lp407
I93707790
aI93737823
aS'-'
asS'KCNJ8'
p408
(lp409
I21764954
aI21774706
aS'-'
asS'TDG'
p410
(lp411
I103965803
aI103988878
aS'+'
asS'SCARNA12'
p412
(lp413
I6967336
aI6967606
aS'-'
asS'SCARNA11'
p414
(lp415
I6581472
aI6581609
aS'-'
asS'SCARNA10'
p416
(lp417
I6510221
aI6510551
aS'+'
asS'RILPL1'
p418
(lp419
I123471085
aI123533718
aS'-'
asS'RILPL2'
p420
(lp421
I123415038
aI123436733
aS'-'
asS'TMPO'
p422
(lp423
I98515572
aI98550379
aS'+'
asS'ATG101'
p424
(lp425
I52069973
aI52077495
aS'+'
asS'SLCO1B1'
p426
(lp427
I21131193
aI21239796
aS'+'
asS'SLCO1B3'
p428
(lp429
I20810703
aI20916909
aS'+'
asS'LACRT'
p430
(lp431
I54630838
aI54634879
aS'-'
asS'LRRC23'
p432
(lp433
I6904732
aI6914242
aS'+'
asS'CABP1'
p434
(lp435
I120640618
aI120667324
aS'+'
asS'SLCO1B7'
p436
(lp437
I21015695
aI21090106
aS'+'
asS'RNU4-2'
p438
(lp439
I120291762
aI120291903
aS'-'
asS'SNORA113'
p440
(lp441
I69515439
aI69515593
aS'+'
asS'RNU4-1'
p442
(lp443
I120293093
aI120293237
aS'-'
asS'PRICKLE1'
p444
(lp445
I42458337
aI42589770
aS'-'
asS'HIST4H4'
p446
(lp447
I14770719
aI14771131
aS'-'
asS'KRT87P'
p448
(lp449
I52250543
aI52258508
aS'-'
asS'NAP1L1'
p450
(lp451
I76044744
aI76085033
aS'-'
asS'AMHR2'
p452
(lp453
I53423854
aI53431672
aS'+'
asS'SLC48A1'
p454
(lp455
I47773183
aI47782753
aS'+'
asS'LINC01479'
p456
(lp457
I67929234
aI67970017
aS'+'
asS'LPCAT3'
p458
(lp459
I6976184
aI7018538
aS'-'
asS'PRH1-TAS2R14'
p460
(lp461
I10937405
aI11171623
aS'-'
asS'UTP20'
p462
(lp463
I101280104
aI101386618
aS'+'
asS'LOC642846'
p464
(lp465
I9283656
aI9314088
aS'+'
asS'MIR548Z'
p466
(lp467
I64622508
aI64622605
aS'-'
asS'MIR548C'
p468
(lp469
I64622508
aI64622605
aS'+'
asS'PCBP2-OT1'
p470
(lp471
I53464467
aI53465057
aS'+'
asS'HPD'
p472
(lp473
I121839526
aI121888611
aS'-'
asS'ANKLE2'
p474
(lp475
I132725666
aI132761888
aS'-'
asS'PPP1CC'
p476
(lp477
I110719807
aI110742978
aS'-'
asS'LOC100506606'
p478
(lp479
I29280415
aI29317848
aS'-'
asS'SRRM4'
p480
(lp481
I118981494
aI119163051
aS'+'
asS'RDH16'
p482
(lp483
I56951430
aI56959374
aS'-'
asS'VEZT'
p484
(lp485
I95217745
aI95302790
aS'+'
asS'FAM71C'
p486
(lp487
I99647749
aI99650114
aS'+'
asS'CREBL2'
p488
(lp489
I12611832
aI12645108
aS'+'
asS'CDK2AP1'
p490
(lp491
I123260969
aI123272316
aS'-'
asS'VSIG10'
p492
(lp493
I118063592
aI118104005
aS'-'
asS'BCDIN3D-AS1'
p494
(lp495
I49828542
aI49841154
aS'+'
asS'SNRNP35'
p496
(lp497
I123458103
aI123472362
aS'+'
asS'DDIT3'
p498
(lp499
I57516587
aI57520517
aS'-'
asS'TRHDE'
p500
(lp501
I72272748
aI72665642
aS'+'
asS'CD27'
p502
(lp503
I6444884
aI6451718
aS'+'
asS'RBP5'
p504
(lp505
I7123680
aI7130014
aS'-'
asS'PA2G4'
p506
(lp507
I56104318
aI56113910
aS'+'
asS'KRAS'
p508
(lp509
I25204788
aI25250931
aS'-'
asS'TWF1'
p510
(lp511
I43793722
aI43806375
aS'-'
asS'GRIN2B'
p512
(lp513
I13537336
aI13980356
aS'-'
asS'SOCS2'
p514
(lp515
I93569821
aI93576745
aS'+'
asS'HOXC9'
p516
(lp517
I54000118
aI54003336
aS'+'
asS'RASSF8'
p518
(lp519
I25959030
aI26079892
aS'+'
asS'RPL6'
p520
(lp521
I112405180
aI112418843
aS'-'
asS'RASSF3'
p522
(lp523
I64610494
aI64697564
aS'+'
asS'TMEM120B'
p524
(lp525
I121712751
aI121782068
aS'+'
asS'HOXC4'
p526
(lp527
I54016851
aI54056030
aS'+'
asS'HOXC6'
p528
(lp529
I54016851
aI54030823
aS'+'
asS'GPRC5D'
p530
(lp531
I12940774
aI12950384
aS'-'
asS'CHD4'
p532
(lp533
I6570081
aI6607476
aS'-'
asS'LRRK2'
p534
(lp535
I40225010
aI40369284
aS'+'
asS'GPRC5A'
p536
(lp537
I12891021
aI12913666
aS'+'
asS'MIR141'
p538
(lp539
I6964096
aI6964191
aS'+'
asS'TROAP'
p540
(lp541
I49323187
aI49331731
aS'+'
asS'ARPC3'
p542
(lp543
I110434890
aI110450411
aS'-'
asS'MFSD5'
p544
(lp545
I53251585
aI53254406
aS'+'
asS'RNF41'
p546
(lp547
I56202503
aI56221969
aS'-'
asS'TMPRSS12'
p548
(lp549
I50842917
aI50887880
aS'+'
asS'ITPR2'
p550
(lp551
I26335351
aI26833194
aS'-'
asS'RHOF'
p552
(lp553
I121777753
aI121793688
aS'-'
asS'LRIG3'
p554
(lp555
I58872154
aI58920538
aS'-'
asS'UNC119B'
p556
(lp557
I120710434
aI120723640
aS'+'
asS'KLHL42'
p558
(lp559
I27780253
aI27803040
aS'+'
asS'RASSF9'
p560
(lp561
I85804552
aI85836540
aS'-'
asS'HOXC8'
p562
(lp563
I54008984
aI54012769
aS'+'
asS'GRASP'
p564
(lp565
I52006944
aI52015889
aS'+'
asS'NCOR2'
p566
(lp567
I124324410
aI124567464
aS'-'
asS'BTG1'
p568
(lp569
I92140277
aI92145897
aS'-'
asS'OGFOD2'
p570
(lp571
I122974702
aI122980041
aS'+'
asS'CACNB3'
p572
(lp573
I48814431
aI48828943
aS'+'
asS'GPN3'
p574
(lp575
I110452485
aI110468721
aS'-'
asS'APAF1'
p576
(lp577
I98645299
aI98735433
aS'+'
asS'CACNA1C-AS4'
p578
(lp579
I2220536
aI2223481
aS'-'
asS'HOXC5'
p580
(lp581
I54016851
aI54035360
aS'+'
asS'TMPO-AS1'
p582
(lp583
I98512972
aI98516226
aS'-'
asS'CACNA1C-AS1'
p584
(lp585
I2676000
aI2691157
aS'-'
asS'CACNA1C-AS2'
p586
(lp587
I2668499
aI2672220
aS'-'
asS'MLXIP'
p588
(lp589
I122078727
aI122147347
aS'+'
asS'LOC100507250'
p590
(lp591
I68674370
aI68686859
aS'-'
asS'PDZRN4'
p592
(lp593
I41188447
aI41574590
aS'+'
asS'ITFG2'
p594
(lp595
I2812621
aI2859795
aS'+'
asS'MIR148B'
p596
(lp597
I54337215
aI54337314
aS'+'
asS'DDX12P'
p598
(lp599
I9417690
aI9448172
aS'-'
asS'TMEM233'
p600
(lp601
I119593458
aI119643066
aS'+'
asS'LMBR1L'
p602
(lp603
I49097139
aI49110900
aS'-'
asS'P2RX2'
p604
(lp605
I132618779
aI132622386
aS'+'
asS'P2RX4'
p606
(lp607
I121209860
aI121234106
aS'+'
asS'P2RX7'
p608
(lp609
I121132818
aI121186551
aS'+'
asS'BCL2L14'
p610
(lp611
I12070943
aI12099693
aS'+'
asS'PPFIA2-AS1'
p612
(lp613
I81279188
aI81312422
aS'+'
asS'CRY1'
p614
(lp615
I106991364
aI107093857
aS'-'
asS'HIGD1C'
p616
(lp617
I50952543
aI50970700
aS'+'
asS'SCAF11'
p618
(lp619
I45919130
aI45990618
aS'-'
asS'GTF2H3'
p620
(lp621
I123633738
aI123662604
aS'+'
asS'FOXN4'
p622
(lp623
I109277977
aI109309220
aS'-'
asS'LINC01465'
p624
(lp625
I62601750
aI62603434
aS'-'
asS'SLCO1C1'
p626
(lp627
I20695354
aI20753386
aS'+'
asS'DBX2'
p628
(lp629
I45014755
aI45051099
aS'-'
asS'LOC101929058'
p630
(lp631
I103151841
aI103168308
aS'+'
asS'LINC02461'
p632
(lp633
I43155314
aI43163110
aS'+'
asS'TARBP2'
p634
(lp635
I53500920
aI53506431
aS'+'
asS'LOC645485'
p636
(lp637
I30755073
aI30780739
aS'+'
asS'EMG1'
p638
(lp639
I6970780
aI6997428
aS'+'
asS'LINC02468'
p640
(lp641
I20120979
aI20127901
aS'-'
asS'ATF7'
p642
(lp643
I53506687
aI53626382
aS'-'
asS'ATF1'
p644
(lp645
I50764005
aI50821160
aS'+'
asS'IFFO1'
p646
(lp647
I6539527
aI6556083
aS'-'
asS'SNORD133'
p648
(lp649
I50456570
aI50456786
aS'+'
asS'ZBTB39'
p650
(lp651
I56998832
aI57006513
aS'-'
asS'LHX5'
p652
(lp653
I113462888
aI113472072
aS'-'
asS'BLOC1S1'
p654
(lp655
I55716033
aI55719707
aS'+'
asS'FKBP11'
p656
(lp657
I48921958
aI48925547
aS'-'
asS'MIR8072'
p658
(lp659
I123364763
aI123364843
aS'-'
asS'LOC100288798'
p660
(lp661
I46383675
aI46652579
aS'+'
asS'RPL13AP20'
p662
(lp663
I12875476
aI12876136
aS'+'
asS'SLC38A4'
p664
(lp665
I46764760
aI46825997
aS'-'
asS'SLC38A1'
p666
(lp667
I46183055
aI46269425
aS'-'
asS'TAS2R19'
p668
(lp669
I11021618
aI11022620
aS'-'
asS'SLC38A2'
p670
(lp671
I46358187
aI46372862
aS'-'
asS'IFNG'
p672
(lp673
I68154767
aI68159740
aS'-'
asS'TAS2R10'
p674
(lp675
I10825345
aI10826269
aS'-'
asS'BCAT1'
p676
(lp677
I24810023
aI24949459
aS'-'
asS'TAS2R13'
p678
(lp679
I10907925
aI10909562
aS'-'
asS'OSBPL8'
p680
(lp681
I76351797
aI76559809
aS'-'
asS'LMNTD1'
p682
(lp683
I25496315
aI25648562
aS'-'
asS'PHETA1'
p684
(lp685
I111360650
aI111369121
aS'-'
asS'AKAP3'
p686
(lp687
I4615507
aI4649047
aS'-'
asS'LINC01089'
p688
(lp689
I121795266
aI121802946
aS'-'
asS'YBX3'
p690
(lp691
I10699076
aI10723354
aS'-'
asS'ANO4'
p692
(lp693
I100794595
aI101128641
aS'+'
asS'NUAK1'
p694
(lp695
I106063346
aI106140033
aS'-'
asS'ANO6'
p696
(lp697
I45215986
aI45440404
aS'+'
asS'ANO2'
p698
(lp699
I5562650
aI5946232
aS'-'
asS'KRR1'
p700
(lp701
I75497638
aI75511638
aS'-'
asS'TMEM132D'
p702
(lp703
I129071725
aI129903667
aS'-'
asS'FZD10'
p704
(lp705
I130162458
aI130165740
aS'+'
asS'TMEM132C'
p706
(lp707
I128267402
aI128707915
aS'+'
asS'TMEM132B'
p708
(lp709
I125186385
aI125662369
aS'+'
asS'LOC101927583'
p710
(lp711
I57618404
aI57621903
aS'-'
asS'BCDIN3D'
p712
(lp713
I49836042
aI49843129
aS'-'
asS'MIR6074'
p714
(lp715
I66023619
aI66023726
aS'-'
asS'H3F3C'
p716
(lp717
I31791184
aI31792241
aS'-'
asS'NR1H4'
p718
(lp719
I100473772
aI100563867
aS'+'
asS'GUCY2C'
p720
(lp721
I14612633
aI14696585
aS'-'
asS'SENP1'
p722
(lp723
I48042897
aI48106308
aS'-'
asS'CUX2'
p724
(lp725
I111034164
aI111350554
aS'+'
asS'ZNF384'
p726
(lp727
I6666476
aI6689572
aS'-'
asS'ING4'
p728
(lp729
I6650537
aI6663142
aS'-'
asS'POC1B'
p730
(lp731
I89419720
aI89526262
aS'-'
asS'MAGOHB'
p732
(lp733
I10604189
aI10613609
aS'-'
asS'SLC2A14'
p734
(lp735
I7812511
aI7891196
aS'-'
asS'SLC2A13'
p736
(lp737
I39755020
aI40105859
aS'-'
asS'RAP1B'
p738
(lp739
I68610898
aI68671901
aS'+'
asS'DYRK2'
p740
(lp741
I67648731
aI67662664
aS'+'
asS'DYRK4'
p742
(lp743
I4590071
aI4613888
aS'+'
asS'ANKRD33'
p744
(lp745
I51888008
aI51891721
aS'+'
asS'LOC100128276'
p746
(lp747
I128849170
aI128853095
aS'-'
asS'TMEM19'
p748
(lp749
I71686097
aI71704059
aS'+'
asS'POU6F1'
p750
(lp751
I51186935
aI51217755
aS'-'
asS'LOC100130238'
p752
(lp753
I132275390
aI132280900
aS'+'
asS'KIF21A'
p754
(lp755
I39293227
aI39443390
aS'-'
asS'GSG1'
p756
(lp757
I13083536
aI13103696
aS'-'
asS'ZNF84'
p758
(lp759
I133037285
aI133063304
aS'+'
asS'LOC643711'
p760
(lp761
I97713411
aI97753598
aS'-'
asS'SINHCAF'
p762
(lp763
I31280585
aI31326225
aS'-'
asS'CAPZA3'
p764
(lp765
I18738110
aI18739188
aS'+'
asS'SLC17A8'
p766
(lp767
I100357078
aI100422059
aS'+'
asS'TPCN1'
p768
(lp769
I113221437
aI113298584
aS'+'
asS'TAS2R8'
p770
(lp771
I10806050
aI10806980
aS'-'
asS'TAS2R9'
p772
(lp773
I10809093
aI10810168
aS'-'
asS'TAS2R7'
p774
(lp775
I10801531
aI10802627
aS'-'
asS'LMO3'
p776
(lp777
I16548371
aI16608214
aS'-'
asS'OR10P1'
p778
(lp779
I55636891
aI55637833
aS'+'
asS'NCKAP1L'
p780
(lp781
I54497710
aI54543115
aS'+'
asS'MYF5'
p782
(lp783
I80716928
aI80719668
aS'+'
asS'MYF6'
p784
(lp785
I80707633
aI80709474
aS'+'
asS'CCDC77'
p786
(lp787
I389349
aI442640
aS'+'
asS'ERC1'
p788
(lp789
I991207
aI1495933
aS'+'
asS'THCAT155'
p790
(lp791
I3483711
aI3492819
aS'-'
asS'EPS8'
p792
(lp793
I15620140
aI15789576
aS'-'
asS'ATP5MC2'
p794
(lp795
I53665159
aI53676330
aS'-'
asS'DDX11'
p796
(lp797
I31073844
aI31104791
aS'+'
asS'OVCH1-AS1'
p798
(lp799
I29389293
aI29487324
aS'+'
asS'CDK17'
p800
(lp801
I96278260
aI96400588
aS'-'
asS'MIR548AQ'
p802
(lp803
I121596528
aI121596600
aS'+'
asS'BIN2'
p804
(lp805
I51281037
aI51324668
aS'-'
asS'TPH2'
p806
(lp807
I71938845
aI72032441
aS'+'
asS'FAM216A'
p808
(lp809
I110468844
aI110490385
aS'+'
asS'SFSWAP'
p810
(lp811
I131711086
aI131799738
aS'+'
asS'LOC105369691'
p812
(lp813
I22589006
aI22625046
aS'-'
asS'KLRK1'
p814
(lp815
I10372352
aI10390054
aS'-'
asS'C3AR1'
p816
(lp817
I8056843
aI8066471
aS'-'
asS'HVCN1'
p818
(lp819
I110648685
aI110689812
aS'-'
asS'NUP37'
p820
(lp821
I102074188
aI102120131
aS'-'
asS'RND1'
p822
(lp823
I48857132
aI48865870
aS'-'
asS'MAP3K12'
p824
(lp825
I53480491
aI53499660
aS'-'
asS'KLRA1P'
p826
(lp827
I10588477
aI10599835
aS'-'
asS'LIN7A'
p828
(lp829
I80792520
aI80937915
aS'-'
asS'STYK1'
p830
(lp831
I10618922
aI10674052
aS'-'
asS'OVOS2'
p832
(lp833
I31111651
aI31201235
aS'-'
asS'LRRC43'
p834
(lp835
I122167718
aI122203471
aS'+'
asS'MIR1244-3'
p836
(lp837
I9239469
aI9239551
aS'-'
asS'MIR1244-2'
p838
(lp839
I9239469
aI9239551
aS'-'
asS'MIR1244-1'
p840
(lp841
I9239469
aI9239551
aS'-'
asS'ITFG2-AS1'
p842
(lp843
I2742625
aI2812924
aS'-'
asS'MARCH9'
p844
(lp845
I57755097
aI57760410
aS'+'
asS'CLSTN3'
p846
(lp847
I7130370
aI7158934
aS'+'
asS'B3GNT4'
p848
(lp849
I122203680
aI122208952
aS'+'
asS'RARG'
p850
(lp851
I53210565
aI53232256
aS'-'
asS'TSFM'
p852
(lp853
I57782744
aI57802856
aS'+'
asS'LOC100507065'
p854
(lp855
I65466818
aI65642372
aS'-'
asS'LINC02470'
p856
(lp857
I9936578
aI9943495
aS'-'
asS'LINC02471'
p858
(lp859
I40156238
aI40167847
aS'+'
asS'NABP2'
p860
(lp861
I56224340
aI56229854
aS'+'
asS'KRT7-AS'
p862
(lp863
I52245042
aI52247448
aS'-'
asS'KCCAT198'
p864
(lp865
I105304866
aI105327017
aS'-'
asS'KITLG'
p866
(lp867
I88492792
aI88580473
aS'-'
asS'NDUFA4L2'
p868
(lp869
I57234902
aI57240692
aS'-'
asS'LINC01252'
p870
(lp871
I11548029
aI11564401
aS'+'
asS'LINC01257'
p872
(lp873
I131165010
aI131212931
aS'+'
asS'PTGES3'
p874
(lp875
I56663340
aI56688408
aS'-'
asS'SYT1'
p876
(lp877
I78863992
aI79452008
aS'+'
asS'SLC2A3'
p878
(lp879
I7919227
aI7936296
aS'-'
asS'MIR3974'
p880
(lp881
I17673298
aI17673394
aS'+'
asS'PCED1B'
p882
(lp883
I47079602
aI47236663
aS'+'
asS'TAS2R20'
p884
(lp885
I10995961
aI10998304
aS'-'
asS'MIR1827'
p886
(lp887
I100189883
aI100189949
aS'+'
asS'TULP3'
p888
(lp889
I2890866
aI2941140
aS'+'
asS'TCP11L2'
p890
(lp891
I106302732
aI106347003
aS'+'
asS'TEX52'
p892
(lp893
I2849042
aI2857039
aS'-'
asS'MANSC4'
p894
(lp895
I27762426
aI27771582
aS'-'
asS'MANSC1'
p896
(lp897
I12329251
aI12350541
aS'-'
asS'SDSL'
p898
(lp899
I113422389
aI113438276
aS'+'
asS'PITPNM2-AS1'
p900
(lp901
I123081383
aI123084744
aS'+'
asS'TBC1D30'
p902
(lp903
I64759496
aI64881018
aS'+'
asS'DEPDC4'
p904
(lp905
I100203668
aI100267079
aS'-'
asS'ALKBH2'
p906
(lp907
I109088187
aI109093488
aS'-'
asS'KRT75'
p908
(lp909
I52424069
aI52434371
aS'-'
asS'KRT74'
p910
(lp911
I52565818
aI52573825
aS'-'
asS'KRT77'
p912
(lp913
I52689625
aI52703463
aS'-'
asS'KRT76'
p914
(lp915
I52768154
aI52777345
aS'-'
asS'KRT71'
p916
(lp917
I52543908
aI52553147
aS'-'
asS'KRT73'
p918
(lp919
I52607569
aI52618559
aS'-'
asS'KRT72'
p920
(lp921
I52585588
aI52601538
aS'-'
asS'PLCZ1'
p922
(lp923
I18683175
aI18738059
aS'-'
asS'KRT79'
p924
(lp925
I52821446
aI52834293
aS'-'
asS'KRT78'
p926
(lp927
I52837803
aI52848994
aS'-'
asS'MIR617'
p928
(lp929
I80832532
aI80832629
aS'-'
asS'MIR616'
p930
(lp931
I57519164
aI57519259
aS'-'
asS'MIR615'
p932
(lp933
I54033949
aI54034045
aS'+'
asS'MIR614'
p934
(lp935
I12915828
aI12915918
aS'+'
asS'MIR613'
p936
(lp937
I12764648
aI12764743
aS'+'
asS'MIR619'
p938
(lp939
I108836907
aI108837006
aS'-'
asS'MIR618'
p940
(lp941
I80935735
aI80935833
aS'-'
asS'AMDHD1'
p942
(lp943
I95943292
aI95968592
aS'+'
asS'SDR9C7'
p944
(lp945
I56923132
aI56934408
aS'-'
asS'HNRNPA1'
p946
(lp947
I54280689
aI54287088
aS'+'
asS'FIGNL2'
p948
(lp949
I51817891
aI51831917
aS'-'
asS'ADGRD1'
p950
(lp951
I130953906
aI131141468
aS'+'
asS'ENO2'
p952
(lp953
I6914449
aI6923696
aS'+'
asS'SNORA53'
p954
(lp955
I98599634
aI98599884
aS'+'
asS'SOX5-AS1'
p956
(lp957
I24223270
aI24237965
aS'+'
asS'TAOK3'
p958
(lp959
I118149800
aI118372945
aS'-'
asS'USP30-AS1'
p960
(lp961
I109052040
aI109053965
aS'-'
asS'KLRC4-KLRK1'
p962
(lp963
I10372352
aI10410146
aS'-'
asS'CDK2'
p964
(lp965
I55966768
aI55972789
aS'+'
asS'CDK4'
p966
(lp967
I57747726
aI57752447
aS'-'
asS'LPAR5'
p968
(lp969
I6618834
aI6636131
aS'-'
asS'PHB2'
p970
(lp971
I6965351
aI6970753
aS'-'
asS'RERG'
p972
(lp973
I15107781
aI15221477
aS'-'
asS'LOC105370068'
p974
(lp975
I127648895
aI127655588
aS'-'
asS'CLEC12A-AS1'
p976
(lp977
I9948136
aI9953337
aS'-'
asS'DNAJC14'
p978
(lp979
I55820959
aI55829636
aS'-'
asS'ARHGDIB'
p980
(lp981
I14942014
aI14961770
aS'-'
asS'DHH'
p982
(lp983
I49086655
aI49094801
aS'-'
asS'MIR6125'
p984
(lp985
I62260358
aI62260454
aS'+'
asS'MIR1228'
p986
(lp987
I57194503
aI57194576
aS'+'
asS'ENDOU'
p988
(lp989
I47709734
aI47725572
aS'-'
asS'DDX23'
p990
(lp991
I48829755
aI48852174
aS'-'
asS'LOC101928100'
p992
(lp993
I10363768
aI10398506
aS'+'
asS'NRIP2'
p994
(lp995
I2825347
aI2835055
aS'-'
asS'RAB3IP'
p996
(lp997
I69738685
aI69823204
aS'+'
asS'ATF7IP'
p998
(lp999
I14365631
aI14502935
aS'+'
asS'TPI1'
p1000
(lp1001
I6867419
aI6870946
aS'+'
asS'BRI3BP'
p1002
(lp1003
I124993647
aI125025803
aS'+'
asS'LTBR'
p1004
(lp1005
I6375367
aI6391571
aS'+'
asS'CCDC91'
p1006
(lp1007
I28190426
aI28550166
aS'+'
asS'CCDC92'
p1008
(lp1009
I123936408
aI123972985
aS'-'
asS'TRPV4'
p1010
(lp1011
I109783086
aI109833407
aS'-'
asS'CACNA1C-IT3'
p1012
(lp1013
I2269775
aI2288745
aS'+'
asS'CACNA1C-IT2'
p1014
(lp1015
I2048351
aI2049462
aS'+'
asS'SMCO3'
p1016
(lp1017
I14804649
aI14814182
aS'-'
asS'ERBB3'
p1018
(lp1019
I56080024
aI56103507
aS'+'
asS'HAL'
p1020
(lp1021
I95972661
aI95996365
aS'-'
asS'LINC01405'
p1022
(lp1023
I110936601
aI110937446
aS'+'
asS'LINC02446'
p1024
(lp1025
I10553378
aI10575688
aS'+'
asS'LINC02444'
p1026
(lp1027
I73159189
aI73208317
aS'+'
asS'LINC02443'
p1028
(lp1029
I5233995
aI5243151
aS'-'
asS'LINC02441'
p1030
(lp1031
I128023787
aI128027166
aS'-'
asS'LINC02449'
p1032
(lp1033
I8235414
aI8242564
aS'+'
asS'HELB'
p1034
(lp1035
I66302544
aI66343643
aS'+'
asS'VPS37B'
p1036
(lp1037
I122865327
aI122896165
aS'-'
asS'RPL13P5'
p1038
(lp1039
I6883980
aI6884604
aS'+'
asS'ERP27'
p1040
(lp1041
I14914026
aI14938549
aS'-'
asS'ERP29'
p1042
(lp1043
I112013347
aI112023220
aS'+'
asS'LINC00592'
p1044
(lp1045
I52210929
aI52223881
aS'+'
asS'PWP1'
p1046
(lp1047
I107685731
aI107713162
aS'+'
asS'EEF1AKMT3'
p1048
(lp1049
I57772599
aI57782541
aS'+'
asS'LOC100506125'
p1050
(lp1051
I48789146
aI48790535
aS'+'
asS'UBE2N'
p1052
(lp1053
I93408311
aI93442250
aS'-'
asS'MED13L'
p1054
(lp1055
I115958575
aI116277186
aS'-'
asS'ST8SIA1'
p1056
(lp1057
I22193390
aI22334714
aS'-'
asS'KRT3'
p1058
(lp1059
I52789684
aI52796108
aS'-'
asS'KRT2'
p1060
(lp1061
I52644557
aI52652211
aS'-'
asS'KRT1'
p1062
(lp1063
I52674735
aI52680407
aS'-'
asS'KRT7'
p1064
(lp1065
I52233169
aI52248925
aS'+'
asS'CCND2-AS1'
p1066
(lp1067
I4248766
aI4276184
aS'-'
asS'KRT5'
p1068
(lp1069
I52514574
aI52520394
aS'-'
asS'KRT4'
p1070
(lp1071
I52806548
aI52814116
aS'-'
asS'KRT8'
p1072
(lp1073
I52897186
aI52949866
aS'-'
asS'BTBD11'
p1074
(lp1075
I107318419
aI107659642
aS'+'
asS'BORCS5'
p1076
(lp1077
I12357077
aI12471232
aS'+'
asS'KRT80'
p1078
(lp1079
I52168995
aI52192000
aS'-'
asS'KRT81'
p1080
(lp1081
I52285912
aI52291515
aS'-'
asS'KRT82'
p1082
(lp1083
I52393950
aI52406392
aS'-'
asS'KRT83'
p1084
(lp1085
I52314300
aI52321398
aS'-'
asS'PDE3A'
p1086
(lp1087
I20369244
aI20684107
aS'+'
asS'KRT85'
p1088
(lp1089
I52360005
aI52367525
aS'-'
asS'KRT86'
p1090
(lp1091
I52274644
aI52309163
aS'+'
asS'TMCC3'
p1092
(lp1093
I94567123
aI94650562
aS'-'
asS'KRT6B'
p1094
(lp1095
I52446650
aI52452126
aS'-'
asS'KRT6C'
p1096
(lp1097
I52468515
aI52473785
aS'-'
asS'TAS2R30'
p1098
(lp1099
I11133284
aI11134244
aS'-'
asS'TAS2R31'
p1100
(lp1101
I11030386
aI11031407
aS'-'
asS'GPR84'
p1102
(lp1103
I54362444
aI54364486
aS'-'
asS'PUS1'
p1104
(lp1105
I131929199
aI131943861
aS'+'
asS'CNPY2'
p1106
(lp1107
I56309841
aI56316348
aS'-'
asS'ACSS3'
p1108
(lp1109
I81078017
aI81256758
aS'+'
asS'WBP11'
p1110
(lp1111
I14786477
aI14803467
aS'-'
asS'NDUFA9'
p1112
(lp1113
I4649097
aI4687554
aS'+'
asS'WNT1'
p1114
(lp1115
I48978452
aI48982613
aS'+'
asS'C12orf80'
p1116
(lp1117
I52205580
aI52210855
aS'-'
asS'GLYCAM1'
p1118
(lp1119
I54608186
aI54610462
aS'-'
asS'GNS'
p1120
(lp1121
I64713441
aI64759446
aS'-'
asS'DTX1'
p1122
(lp1123
I113057856
aI113098028
aS'+'
asS'IL23A'
p1124
(lp1125
I56338878
aI56340410
aS'+'
asS'DTX3'
p1126
(lp1127
I57604621
aI57609804
aS'+'
asS'HOXC13-AS'
p1128
(lp1129
I53935327
aI53939643
aS'-'
asS'SNORA49'
p1130
(lp1131
I132031223
aI132031360
aS'+'
asS'ADGRD1-AS1'
p1132
(lp1133
I130990625
aI130993976
aS'-'
asS'RBMS2'
p1134
(lp1135
I56521824
aI56596196
aS'+'
asS'LTA4H'
p1136
(lp1137
I96000752
aI96043520
aS'-'
asS'PAN2'
p1138
(lp1139
I56316222
aI56334053
aS'-'
asS'GDF3'
p1140
(lp1141
I7689783
aI7695775
aS'-'
asS'MIR26A2'
p1142
(lp1143
I57824608
aI57824692
aS'-'
asS'DSTNP2'
p1144
(lp1145
I6884681
aI6885786
aS'+'
asS'SUOX'
p1146
(lp1147
I55997258
aI56005525
aS'+'
asS'LOC105369187'
p1148
(lp1149
I65544237
aI65557311
aS'-'
asS'DDX11-AS1'
p1150
(lp1151
I31020762
aI31073847
aS'-'
asS'MSI1'
p1152
(lp1153
I120341329
aI120369164
aS'-'
asS'COQ10A'
p1154
(lp1155
I56266857
aI56270966
aS'+'
asS'DUSP16'
p1156
(lp1157
I12473281
aI12562514
aS'-'
asS'SDS'
p1158
(lp1159
I113392445
aI113403887
aS'-'
asS'RNFT2'
p1160
(lp1161
I116738290
aI116853631
aS'+'
asS'LOC728739'
p1162
(lp1163
I107903149
aI107903771
aS'-'
asS'COQ5'
p1164
(lp1165
I120503278
aI120529158
aS'-'
asS'C1R'
p1166
(lp1167
I7080200
aI7092445
aS'-'
asS'M6PR'
p1168
(lp1169
I8940360
aI8949761
aS'-'
asS'CALCOCO1'
p1170
(lp1171
I53711117
aI53727523
aS'-'
asS'ZNF140'
p1172
(lp1173
I133080202
aI133107672
aS'+'
asS'LOC101928441'
p1174
(lp1175
I23175635
aI23191587
aS'+'
asS'LYZ'
p1176
(lp1177
I69348353
aI69354233
aS'+'
asS'PHC1'
p1178
(lp1179
I8914719
aI8941464
aS'+'
asS'SLC26A10'
p1180
(lp1181
I57619909
aI57626151
aS'+'
asS'PRH2'
p1182
(lp1183
I10929235
aI10934845
aS'+'
asS'PRH1'
p1184
(lp1185
I10880960
aI11171623
aS'-'
asS'PIANP'
p1186
(lp1187
I6693790
aI6700843
aS'-'
asS'LHX5-AS1'
p1188
(lp1189
I113472002
aI113480481
aS'+'
asS'ATXN7L3B'
p1190
(lp1191
I74537770
aI74541452
aS'+'
asS'PMEL'
p1192
(lp1193
I55954104
aI55966712
aS'-'
asS'MIR3913-2'
p1194
(lp1195
I69584722
aI69584822
aS'+'
asS'MIR3913-1'
p1196
(lp1197
I69584721
aI69584823
aS'-'
asS'GRIP1'
p1198
(lp1199
I66347430
aI66804269
aS'-'
asS'LOC105369980'
p1200
(lp1201
I110951682
aI110957818
aS'-'
asS'H2AFJ'
p1202
(lp1203
I14774335
aI14778002
aS'+'
asS'CCDC65'
p1204
(lp1205
I48904109
aI48921576
aS'+'
asS'VDR'
p1206
(lp1207
I47841536
aI47905031
aS'-'
asS'CCDC60'
p1208
(lp1209
I119334711
aI119541047
aS'+'
asS'CCDC63'
p1210
(lp1211
I110846959
aI110907535
aS'+'
asS'CCDC62'
p1212
(lp1213
I122774508
aI122827380
aS'+'
asS'IKBIP'
p1214
(lp1215
I98613403
aI98645051
aS'-'
asS'ACRBP'
p1216
(lp1217
I6638075
aI6647414
aS'-'
asS'LOC283335'
p1218
(lp1219
I53043188
aI53054438
aS'-'
asS'TMEM119'
p1220
(lp1221
I108589845
aI108598118
aS'-'
asS'EP400'
p1222
(lp1223
I131949919
aI132080466
aS'+'
asS'TMEM116'
p1224
(lp1225
I111931282
aI112013219
aS'-'
asS'TMEM117'
p1226
(lp1227
I43835860
aI44389762
aS'+'
asS'LINC02458'
p1228
(lp1229
I89011125
aI89019692
aS'-'
asS'LINC02459'
p1230
(lp1231
I114238970
aI114241770
aS'-'
asS'SNORA2A'
p1232
(lp1233
I48656647
aI48656782
aS'-'
asS'UBE3B'
p1234
(lp1235
I109477622
aI109536705
aS'+'
asS'LINC02451'
p1236
(lp1237
I42646582
aI42686701
aS'+'
asS'LINC02453'
p1238
(lp1239
I98485543
aI98503855
aS'-'
asS'LINC02454'
p1240
(lp1241
I65602868
aI65612987
aS'+'
asS'OTOGL'
p1242
(lp1243
I80209452
aI80379090
aS'+'
asS'TEX49'
p1244
(lp1245
I48727434
aI48765788
aS'+'
asS'EID3'
p1246
(lp1247
I104303731
aI104305204
aS'+'
asS'NACA'
p1248
(lp1249
I56712426
aI56725542
aS'-'
asS'ASIC1'
p1250
(lp1251
I50057636
aI50083622
aS'+'
asS'DENND5B-AS1'
p1252
(lp1253
I31589922
aI31615351
aS'+'
asS'RECQL'
p1254
(lp1255
I21468909
aI21501669
aS'-'
asS'SART3'
p1256
(lp1257
I108522213
aI108561173
aS'-'
asS'FGF6'
p1258
(lp1259
I4434141
aI4445614
aS'-'
asS'CEP83-DT'
p1260
(lp1261
I94460002
aI94462568
aS'+'
asS'LINC02231'
p1262
(lp1263
I64920844
aI64992291
aS'-'
asS'IPO8'
p1264
(lp1265
I30628980
aI30695995
aS'-'
asS'BEST3'
p1266
(lp1267
I69643507
aI69699416
aS'-'
asS'ACTR6'
p1268
(lp1269
I100200086
aI100224424
aS'+'
asS'TAPBPL'
p1270
(lp1271
I6451673
aI6462322
aS'+'
asS'KRT84'
p1272
(lp1273
I52377811
aI52385633
aS'-'
asS'DIABLO'
p1274
(lp1275
I122207661
aI122227534
aS'-'
asS'LINC01619'
p1276
(lp1277
I91984975
aI92142831
aS'-'
asS'NANOG'
p1278
(lp1279
I7789395
aI7796061
aS'+'
asS'NAA25'
p1280
(lp1281
I112026688
aI112108831
aS'-'
asS'MIR3685'
p1282
(lp1283
I95309922
aI95309984
aS'+'
asS'DUSP6'
p1284
(lp1285
I89347824
aI89352859
aS'-'
asS'KRT6A'
p1286
(lp1287
I52487175
aI52493257
aS'-'
asS'ANKS1B'
p1288
(lp1289
I98734790
aI99984654
aS'-'
asS'METTL1'
p1290
(lp1291
I57768567
aI57772131
aS'-'
asS'DGKA'
p1292
(lp1293
I55931161
aI55954023
aS'+'
asS'TAS2R43'
p1294
(lp1295
I11091286
aI11092313
aS'-'
asS'TAS2R42'
p1296
(lp1297
I11185992
aI11186937
aS'-'
asS'BCL7A'
p1298
(lp1299
I122021885
aI122062044
aS'+'
asS'PITPNM2'
p1300
(lp1301
I122983479
aI123110489
aS'-'
asS'ETFRF1'
p1302
(lp1303
I25195215
aI25205015
aS'+'
asS'TBC1D15'
p1304
(lp1305
I71839706
aI71926849
aS'+'
asS'OR10A7'
p1306
(lp1307
I55221024
aI55221975
aS'+'
asS'ACAD10'
p1308
(lp1309
I111686052
aI111757107
aS'+'
asS'LRCOL1'
p1310
(lp1311
I132603149
aI132610451
aS'-'
asS'C12orf71'
p1312
(lp1313
I27081056
aI27082522
aS'-'
asS'C12orf73'
p1314
(lp1315
I103950201
aI103957215
aS'-'
asS'C12orf74'
p1316
(lp1317
I92702842
aI92708549
aS'+'
asS'C12orf75'
p1318
(lp1319
I105330635
aI105371518
aS'+'
asS'C12orf76'
p1320
(lp1321
I110041176
aI110073639
aS'-'
asS'C12orf77'
p1322
(lp1323
I24993430
aI24997439
aS'-'
asS'NRAV'
p1324
(lp1325
I120490337
aI120495946
aS'-'
asS'LOC100996671'
p1326
(lp1327
I126652945
aI126690318
aS'-'
asS'PXN'
p1328
(lp1329
I120210438
aI120265771
aS'-'
asS'LOC374443'
p1330
(lp1331
I9617283
aI9658414
aS'+'
asS'MIR200C'
p1332
(lp1333
I6963698
aI6963766
aS'+'
asS'DHX37'
p1334
(lp1335
I124946825
aI124989131
aS'-'
asS'MPHOSPH9'
p1336
(lp1337
I123156395
aI123233238
aS'-'
asS'TMEM106C'
p1338
(lp1339
I47963546
aI47968878
aS'+'
asS'APOLD1'
p1340
(lp1341
I12725916
aI12791465
aS'+'
asS'USP15'
p1342
(lp1343
I62260339
aI62409721
aS'+'
asS'MIR7851'
p1344
(lp1345
I42323699
aI42323859
aS'-'
asS'SNRPF'
p1346
(lp1347
I95858930
aI95866461
aS'+'
asS'ADAM1A'
p1348
(lp1349
I111899062
aI111901902
aS'+'
asS'SBNO1'
p1350
(lp1351
I123289108
aI123365209
aS'-'
asS'BRAP'
p1352
(lp1353
I111642145
aI111685996
aS'-'
asS'ZNF605'
p1354
(lp1355
I132921432
aI132956306
aS'-'
asS'FLJ13224'
p1356
(lp1357
I31324315
aI31325945
aS'+'
asS'ZDHHC17'
p1358
(lp1359
I76764073
aI76853701
aS'+'
asS'PRKAG1'
p1360
(lp1361
I49002271
aI49018846
aS'-'
asS'FAM86FP'
p1362
(lp1363
I8231048
aI8242946
aS'-'
asS'ANP32D'
p1364
(lp1365
I48472664
aI48473060
aS'+'
asS'DDX54'
p1366
(lp1367
I113157172
aI113185479
aS'-'
asS'DDX55'
p1368
(lp1369
I123602076
aI123620943
aS'+'
asS'LEMD3'
p1370
(lp1371
I65169570
aI65248361
aS'+'
asS'ESPL1'
p1372
(lp1373
I53268298
aI53293643
aS'+'
asS'MRPL51'
p1374
(lp1375
I6492149
aI6493305
aS'-'
asS'CELA1'
p1376
(lp1377
I51328442
aI51346679
aS'-'
asS'YAF2'
p1378
(lp1379
I42157104
aI42238368
aS'-'
asS'LARP4'
p1380
(lp1381
I50400808
aI50480005
aS'+'
asS'PIK3C2G'
p1382
(lp1383
I18261539
aI18648418
aS'+'
asS'MUC19'
p1384
(lp1385
I40393393
aI40570755
aS'+'
asS'IQCD'
p1386
(lp1387
I113195440
aI113221094
aS'-'
asS'DDX47'
p1388
(lp1389
I12813345
aI12829981
aS'+'
asS'POP5'
p1390
(lp1391
I120579044
aI120581398
aS'-'
asS'TXNRD1'
p1392
(lp1393
I104215778
aI104350307
aS'+'
asS'STK38L'
p1394
(lp1395
I27244285
aI27325957
aS'+'
asS'LGR5'
p1396
(lp1397
I71439769
aI71586308
aS'+'
asS'MMP17'
p1398
(lp1399
I131828392
aI131851771
aS'+'
asS'CDKN1B'
p1400
(lp1401
I12717269
aI12722382
aS'+'
asS'MMP19'
p1402
(lp1403
I55835429
aI55842983
aS'-'
asS'BAZ2A'
p1404
(lp1405
I56595595
aI56636379
aS'-'
asS'APOF'
p1406
(lp1407
I56360569
aI56362857
aS'-'
asS'GDF11'
p1408
(lp1409
I55743279
aI55753370
aS'+'
asS'PUS7L'
p1410
(lp1411
I43728608
aI43758817
aS'-'
asS'FOXJ2'
p1412
(lp1413
I8032762
aI8055522
aS'+'
asS'CCDC59'
p1414
(lp1415
I82352303
aI82358805
aS'-'
asS'OR2AP1'
p1416
(lp1417
I55574414
aI55575344
aS'+'
asS'IAPP'
p1418
(lp1419
I21354959
aI21379980
aS'+'
asS'HOXC11'
p1420
(lp1421
I53973125
aI53976419
aS'+'
asS'HOXC10'
p1422
(lp1423
I53985161
aI53990278
aS'+'
asS'HOXC13'
p1424
(lp1425
I53938830
aI53946544
aS'+'
asS'HOXC12'
p1426
(lp1427
I53954867
aI53956606
aS'+'
asS'SLC39A5'
p1428
(lp1429
I56230035
aI56237845
aS'+'
asS'LINC02425'
p1430
(lp1431
I66027725
aI66031066
aS'-'
asS'LINC02424'
p1432
(lp1433
I78326679
aI78359746
aS'-'
asS'LINC02426'
p1434
(lp1435
I81953718
aI81993133
aS'+'
asS'LINC02421'
p1436
(lp1437
I67709046
aI67729475
aS'-'
asS'LINC02420'
p1438
(lp1439
I67440997
aI67442559
aS'-'
asS'LINC02423'
p1440
(lp1441
I118758753
aI118761679
aS'-'
asS'LINC02422'
p1442
(lp1443
I31876968
aI31887203
aS'-'
asS'SNORD59B'
p1444
(lp1445
I56643679
aI56643754
aS'-'
asS'VWF'
p1446
(lp1447
I5948873
aI6124675
aS'-'
asS'SNORD59A'
p1448
(lp1449
I56645026
aI56645101
aS'-'
asS'ATXN2'
p1450
(lp1451
I111452213
aI111599676
aS'-'
asS'NAB2'
p1452
(lp1453
I57088893
aI57095476
aS'+'
asS'SOAT2'
p1454
(lp1455
I53103489
aI53124539
aS'+'
asS'SRGAP1'
p1456
(lp1457
I63844752
aI64147863
aS'+'
asS'SPSB2'
p1458
(lp1459
I6870935
aI6873357
aS'-'
asS'MIR4302'
p1460
(lp1461
I25874019
aI25874079
aS'-'
asS'MIR4303'
p1462
(lp1463
I97995382
aI97995448
aS'-'
asS'COL2A1'
p1464
(lp1465
I47972964
aI48004502
aS'-'
asS'CCDC184'
p1466
(lp1467
I48183582
aI48185926
aS'+'
asS'PRH1-PRR4'
p1468
(lp1469
I10845848
aI11171625
aS'-'
asS'NEDD1'
p1470
(lp1471
I96907222
aI96953691
aS'+'
asS'LINC02368'
p1472
(lp1473
I128118216
aI128121952
aS'+'
asS'PYROXD1'
p1474
(lp1475
I21437603
aI21471252
aS'+'
asS'FICD'
p1476
(lp1477
I108515273
aI108519603
aS'+'
asS'SCAT2'
p1478
(lp1479
I54262614
aI54279062
aS'+'
asS'SMARCC2'
p1480
(lp1481
I56162358
aI56189574
aS'-'
asS'LOC101593348'
p1482
(lp1483
I122226441
aI122228792
aS'+'
asS'SPIC'
p1484
(lp1485
I101475420
aI101486997
aS'+'
asS'IRAK3'
p1486
(lp1487
I66189197
aI66254614
aS'+'
asS'ALG10'
p1488
(lp1489
I34022495
aI34028301
aS'+'
asS'TMEM132D-AS1'
p1490
(lp1491
I129109689
aI129113298
aS'+'
asS'NTN4'
p1492
(lp1493
I95657806
aI95791206
aS'-'
asS'LINC01498'
p1494
(lp1495
I108459424
aI108473689
aS'-'
asS'GPD1'
p1496
(lp1497
I50103818
aI50111320
aS'+'
asS'GLS2'
p1498
(lp1499
I56470943
aI56488414
aS'-'
asS'B4GALNT1'
p1500
(lp1501
I57625894
aI57633239
aS'-'
asS'B4GALNT3'
p1502
(lp1503
I460376
aI561892
aS'+'
asS'AEBP2'
p1504
(lp1505
I19439491
aI19522227
aS'+'
asS'MIR3657'
p1506
(lp1507
I112037598
aI112037715
aS'-'
asS'MIR3652'
p1508
(lp1509
I103930424
aI103930555
aS'+'
asS'LINC00485'
p1510
(lp1511
I102809282
aI102824399
aS'-'
asS'GPRC5D-AS1'
p1512
(lp1513
I12927725
aI13022498
aS'+'
asS'PDE1B'
p1514
(lp1515
I54549392
aI54579239
aS'+'
asS'VPS29'
p1516
(lp1517
I110491522
aI110502140
aS'-'
asS'ESYT1'
p1518
(lp1519
I56128201
aI56144676
aS'+'
asS'LINC00173'
p1520
(lp1521
I116533434
aI116536513
aS'+'
asS'TAS2R50'
p1522
(lp1523
I10985912
aI10986912
aS'-'
asS'TAS2R14'
p1524
(lp1525
I10938253
aI10939207
aS'-'
asS'HNF1A'
p1526
(lp1527
I120978567
aI121002511
aS'+'
asS'LRRIQ1'
p1528
(lp1529
I85036320
aI85245105
aS'+'
asS'OR6C65'
p1530
(lp1531
I55400528
aI55401467
aS'+'
asS'OR6C68'
p1532
(lp1533
I55492377
aI55493316
aS'+'
asS'IL31'
p1534
(lp1535
I122172029
aI122174199
aS'-'
asS'E2F7'
p1536
(lp1537
I77021250
aI77065569
aS'-'
asS'C12orf60'
p1538
(lp1539
I14803571
aI14823857
aS'+'
asS'C12orf66'
p1540
(lp1541
I64186311
aI64222296
aS'-'
asS'C12orf65'
p1542
(lp1543
I123233296
aI123257959
aS'+'
asS'MGAT4C'
p1544
(lp1545
I85973293
aI86839006
aS'-'
asS'MIR7844'
p1546
(lp1547
I94571230
aI94571352
aS'-'
asS'SLC9A7P1'
p1548
(lp1549
I98453840
aI98457145
aS'-'
asS'LOC112268105'
p1550
(lp1551
I123364947
aI123365804
aS'+'
asS'FAM234B'
p1552
(lp1553
I13044380
aI13083449
aS'+'
asS'MIP'
p1554
(lp1555
I56449501
aI56454657
aS'-'
asS'C1RL-AS1'
p1556
(lp1557
I7108307
aI7121851
aS'+'
asS'WNT10B'
p1558
(lp1559
I48965339
aI48971858
aS'-'
asS'STRAP'
p1560
(lp1561
I15882353
aI15903476
aS'+'
asS'RAB5B'
p1562
(lp1563
I55973912
aI55996683
aS'+'
asS'SSH1'
p1564
(lp1565
I108778190
aI108857583
aS'-'
asS'SLC41A2'
p1566
(lp1567
I104802552
aI104958744
aS'-'
asS'POC1B-AS1'
p1568
(lp1569
I89525569
aI89541542
aS'+'
asS'SCARB1'
p1570
(lp1571
I124777627
aI124863973
aS'-'
asS'PLEKHA5'
p1572
(lp1573
I19129691
aI19376399
aS'+'
asS'SNORA2B'
p1574
(lp1575
I48667456
aI48667593
aS'-'
asS'SNORA2C'
p1576
(lp1577
I48654381
aI48654518
aS'-'
asS'LOC728715'
p1578
(lp1579
I9397056
aI9407414
aS'-'
asS'MIR1279'
p1580
(lp1581
I69273156
aI69273218
aS'-'
asS'EIF2S3B'
p1582
(lp1583
I10505892
aI10523135
aS'+'
asS'LOC105369728'
p1584
(lp1585
I9647012
aI9647988
aS'-'
asS'CNTN1'
p1586
(lp1587
I40692441
aI41072411
aS'+'
asS'PLA2G1B'
p1588
(lp1589
I120322110
aI120327789
aS'-'
asS'CRADD'
p1590
(lp1591
I93677370
aI93894840
aS'+'
asS'NCKAP5L'
p1592
(lp1593
I49791145
aI49828425
aS'-'
asS'COPZ1'
p1594
(lp1595
I54325089
aI54351851
aS'+'
asS'DENR'
p1596
(lp1597
I122752820
aI122771064
aS'+'
asS'DDX51'
p1598
(lp1599
I132136594
aI132144335
aS'-'
asS'CSRNP2'
p1600
(lp1601
I51061204
aI51083671
aS'-'
asS'OR10AD1'
p1602
(lp1603
I48202338
aI48203292
aS'-'
asS'MIR331'
p1604
(lp1605
I95308419
aI95308513
aS'+'
asS'GPR162'
p1606
(lp1607
I6821796
aI6827418
aS'+'
asS'GATC'
p1608
(lp1609
I120446437
aI120463753
aS'+'
asS'PMCH'
p1610
(lp1611
I102196458
aI102197833
aS'-'
asS'ZNF26'
p1612
(lp1613
I132986347
aI133012568
aS'+'
asS'KLRG1'
p1614
(lp1615
I8950043
aI9010744
aS'+'
asS'LOC102723544'
p1616
(lp1617
I253441
aI257299
aS'-'
asS'BBS10'
p1618
(lp1619
I76344473
aI76348415
aS'-'
asS'MGP'
p1620
(lp1621
I14880863
aI14886062
aS'-'
asS'MYBPC1'
p1622
(lp1623
I101594930
aI101685880
aS'+'
asS'PGAM1P5'
p1624
(lp1625
I95649254
aI95673994
aS'+'
asS'LAG3'
p1626
(lp1627
I6772503
aI6778455
aS'+'
asS'LOC100506551'
p1628
(lp1629
I116977439
aI116987337
aS'-'
asS'LOC105369945'
p1630
(lp1631
I103496039
aI103497695
aS'+'
asS'LUM'
p1632
(lp1633
I91103454
aI91111765
aS'-'
asS'RPL41'
p1634
(lp1635
I56116589
aI56117832
aS'+'
asS'INTS13'
p1636
(lp1637
I26905178
aI26938321
aS'-'
asS'GAS2L3'
p1638
(lp1639
I100573660
aI100628288
aS'+'
asS'LINC02439'
p1640
(lp1641
I118818805
aI118833536
aS'-'
asS'RACGAP1'
p1642
(lp1643
I49989161
aI50025557
aS'-'
asS'FBXO21'
p1644
(lp1645
I117143779
aI117190495
aS'-'
asS'LOC440084'
p1646
(lp1647
I11430209
aI11486678
aS'-'
asS'FGD4'
p1648
(lp1649
I32485971
aI32646051
aS'+'
asS'FGD6'
p1650
(lp1651
I95076748
aI95217464
aS'-'
asS'EPYC'
p1652
(lp1653
I90963678
aI91005026
aS'-'
asS'LOC100287944'
p1654
(lp1655
I106496409
aI106774831
aS'-'
asS'GNB3'
p1656
(lp1657
I6840853
aI6847395
aS'+'
asS'GCN1'
p1658
(lp1659
I120127209
aI120194710
aS'-'
asS'AGAP2'
p1660
(lp1661
I57724292
aI57742161
aS'-'
asS'HSP90B1'
p1662
(lp1663
I103930333
aI103947930
aS'+'
asS'STX2'
p1664
(lp1665
I130789600
aI130839274
aS'-'
asS'MUCL1'
p1666
(lp1667
I54854514
aI54858390
aS'+'
asS'STAB2'
p1668
(lp1669
I103587290
aI103766724
aS'+'
asS'MTERF2'
p1670
(lp1671
I106977290
aI106987166
aS'-'
asS'FBRSL1'
p1672
(lp1673
I132490570
aI132585187
aS'+'
asS'LOH12CR2'
p1674
(lp1675
I12355407
aI12357067
aS'-'
asS'NTF3'
p1676
(lp1677
I5432113
aI5495299
aS'+'
asS'SLC5A8'
p1678
(lp1679
I101156215
aI101210274
aS'-'
asS'ALX1'
p1680
(lp1681
I85280257
aI85301783
aS'+'
asS'HIP1R'
p1682
(lp1683
I122835437
aI122862960
aS'+'
asS'NR4A1'
p1684
(lp1685
I52022831
aI52059507
aS'+'
asS'C1S'
p1686
(lp1687
I7060660
aI7071031
aS'+'
asS'CASC1'
p1688
(lp1689
I25108288
aI25195162
aS'-'
asS'PXMP2'
p1690
(lp1691
I132687605
aI132704991
aS'+'
asS'MIR3649'
p1692
(lp1693
I1660314
aI1660380
aS'-'
asS'CHST11'
p1694
(lp1695
I104456913
aI104762014
aS'+'
asS'TESC'
p1696
(lp1697
I117038922
aI117099446
aS'-'
asS'GXYLT1'
p1698
(lp1699
I42081845
aI42144871
aS'-'
asS'OR6C75'
p1700
(lp1701
I55365110
aI55366049
aS'+'
asS'OR6C74'
p1702
(lp1703
I55247287
aI55248226
aS'+'
asS'OR6C76'
p1704
(lp1705
I55426253
aI55427192
aS'+'
asS'OR6C70'
p1706
(lp1707
I55469199
aI55470138
aS'-'
asS'GNPTAB'
p1708
(lp1709
I101745496
aI101830867
aS'-'
asS'IL22'
p1710
(lp1711
I68248241
aI68253604
aS'-'
asS'CAPRIN2'
p1712
(lp1713
I30709551
aI30754950
aS'-'
asS'IL26'
p1714
(lp1715
I68201348
aI68225791
aS'-'
asS'CCNT1'
p1716
(lp1717
I48688457
aI48716998
aS'-'
asS'LOC643339'
p1718
(lp1719
I93003757
aI93377736
aS'-'
asS'C12orf56'
p1720
(lp1721
I64266982
aI64390565
aS'-'
asS'C12orf57'
p1722
(lp1723
I6943437
aI6946003
aS'+'
asS'C12orf54'
p1724
(lp1725
I48482502
aI48496514
aS'+'
asS'C12orf50'
p1726
(lp1727
I87980038
aI88029412
aS'-'
asS'FMNL3'
p1728
(lp1729
I49637940
aI49707414
aS'-'
asS'PZP'
p1730
(lp1731
I9148839
aI9208370
aS'-'
asS'AQP6'
p1732
(lp1733
I49972836
aI49977139
aS'+'
asS'AQP5'
p1734
(lp1735
I49961495
aI49965682
aS'+'
asS'AQP2'
p1736
(lp1737
I49950740
aI49958881
aS'+'
asS'BICDL1'
p1738
(lp1739
I119989843
aI120094495
aS'+'
asS'LINC00944'
p1740
(lp1741
I126730700
aI126772262
aS'-'
asS'WNK1'
p1742
(lp1743
I752922
aI911452
aS'+'
asS'LINC00940'
p1744
(lp1745
I1929201
aI1936576
aS'-'
asS'LINC00941'
p1746
(lp1747
I30795680
aI30802711
aS'+'
asS'LINC00942'
p1748
(lp1749
I1500490
aI1504424
aS'+'
asS'LINC00943'
p1750
(lp1751
I126737006
aI126746254
aS'+'
asS'NR2C1'
p1752
(lp1753
I95020228
aI95073628
aS'-'
asS'USP30'
p1754
(lp1755
I109023088
aI109088026
aS'+'
asS'SHMT2'
p1756
(lp1757
I57229572
aI57234935
aS'+'
asS'ADCY6'
p1758
(lp1759
I48766190
aI48789096
aS'-'
asS'MORN3'
p1760
(lp1761
I121651386
aI121672649
aS'-'
asS'LOC102724050'
p1762
(lp1763
I54353690
aI54467030
aS'+'
asS'PPFIBP1'
p1764
(lp1765
I27524111
aI27695564
aS'+'
asS'APOBEC1'
p1766
(lp1767
I7649399
aI7670599
aS'-'
asS'SARNP'
p1768
(lp1769
I55752462
aI55817756
aS'-'
asS'LOC574538'
p1770
(lp1771
I137410
aI149169
aS'-'
asS'MED21'
p1772
(lp1773
I27022521
aI27030673
aS'+'
asS'C12orf4'
p1774
(lp1775
I4487729
aI4538508
aS'-'
asS'KANSL2'
p1776
(lp1777
I48653210
aI48682252
aS'-'
asS'CLEC7A'
p1778
(lp1779
I10116780
aI10130269
aS'-'
asS'TRIAP1'
p1780
(lp1781
I120443963
aI120446384
aS'-'
asS'CLIP1-AS1'
p1782
(lp1783
I122395541
aI122399944
aS'+'
asS'SYT10'
p1784
(lp1785
I33375412
aI33439819
aS'-'
asS'HOXC-AS3'
p1786
(lp1787
I53983950
aI53985519
aS'-'
asS'HOXC-AS2'
p1788
(lp1789
I53995207
aI53996785
aS'-'
asS'HOXC-AS1'
p1790
(lp1791
I53999021
aI54000010
aS'-'
asS'CCER1'
p1792
(lp1793
I90952214
aI90955176
aS'-'
asS'RIC8B'
p1794
(lp1795
I106774555
aI106889316
aS'+'
asS'MIR6760'
p1796
(lp1797
I111304141
aI111304209
aS'+'
asS'MIR6761'
p1798
(lp1799
I111799833
aI111799905
aS'+'
asS'MIR6762'
p1800
(lp1801
I113291522
aI113291608
aS'+'
asS'MIR6763'
p1802
(lp1803
I132581996
aI132582061
aS'+'
asS'CLEC9A'
p1804
(lp1805
I10030676
aI10066030
aS'+'
asS'DDN'
p1806
(lp1807
I48995149
aI48999305
aS'-'
asS'AMN1'
p1808
(lp1809
I31671136
aI31729174
aS'-'
asS'LOC101928416'
p1810
(lp1811
I132329849
aI132331575
aS'+'
asS'RPSAP52'
p1812
(lp1813
I65758020
aI65826974
aS'-'
asS'FGF23'
p1814
(lp1815
I4368226
aI4379728
aS'-'
asS'TCHP'
p1816
(lp1817
I109900273
aI109918069
aS'+'
asS'GAU1'
p1818
(lp1819
I4700416
aI4720102
aS'-'
asS'TBX3'
p1820
(lp1821
I114670254
aI114684175
aS'-'
asS'MCRS1'
p1822
(lp1823
I49558293
aI49568145
aS'-'
asS'MIR920'
p1824
(lp1825
I24212420
aI24212495
aS'+'
asS'TBX5'
p1826
(lp1827
I114353929
aI114408442
aS'-'
asS'KCNA6'
p1828
(lp1829
I4809175
aI4851112
aS'+'
asS'KCNA5'
p1830
(lp1831
I5043918
aI5046788
aS'+'
asS'KLRF2'
p1832
(lp1833
I9881488
aI9895833
aS'+'
asS'A2M'
p1834
(lp1835
I9067707
aI9116229
aS'-'
asS'KCNA1'
p1836
(lp1837
I4909904
aI4918256
aS'+'
asS'TESC-AS1'
p1838
(lp1839
I117099466
aI117141489
aS'+'
asS'RPS26'
p1840
(lp1841
I56041917
aI56044697
aS'+'
asS'CCDC38'
p1842
(lp1843
I95867047
aI95942614
aS'-'
asS'RIMBP2'
p1844
(lp1845
I130396135
aI130716305
aS'-'
asS'ACACB'
p1846
(lp1847
I109139396
aI109268225
aS'+'
asS'LINC02393'
p1848
(lp1849
I127881616
aI127898639
aS'+'
asS'LINC02392'
p1850
(lp1851
I90293317
aI90300698
aS'+'
asS'APPL2'
p1852
(lp1853
I105173296
aI105236230
aS'-'
asS'LINC02397'
p1854
(lp1855
I92466678
aI92483947
aS'+'
asS'LINC02396'
p1856
(lp1857
I49908882
aI49911863
aS'-'
asS'LINC02395'
p1858
(lp1859
I49911952
aI49926339
aS'+'
asS'PAWR'
p1860
(lp1861
I79584878
aI79690964
aS'-'
asS'LOC105369971'
p1862
(lp1863
I51848222
aI51852729
aS'+'
asS'NT5DC3'
p1864
(lp1865
I103772302
aI103841197
aS'-'
asS'LINC02403'
p1866
(lp1867
I58087891
aI58093360
aS'+'
asS'LINC02402'
p1868
(lp1869
I42615502
aI42646498
aS'-'
asS'LINC02401'
p1870
(lp1871
I103547793
aI103559815
aS'+'
asS'LINC02400'
p1872
(lp1873
I41764188
aI41765581
aS'+'
asS'LINC02405'
p1874
(lp1875
I126915227
aI127060397
aS'-'
asS'LINC02156'
p1876
(lp1877
I47415007
aI47420179
aS'+'
asS'LINC02408'
p1878
(lp1879
I67520081
aI67567131
aS'+'
asS'NECAP1'
p1880
(lp1881
I8082210
aI8097777
aS'+'
asS'DIP2B'
p1882
(lp1883
I50504984
aI50748667
aS'+'
asS'CORO1C'
p1884
(lp1885
I108645110
aI108731550
aS'-'
asS'PTHLH'
p1886
(lp1887
I27958083
aI27971983
aS'-'
asS'VPS33A'
p1888
(lp1889
I122229560
aI122266823
aS'-'
asS'ZCCHC8'
p1890
(lp1891
I122471598
aI122501073
aS'-'
asS'LLPH'
p1892
(lp1893
I66123068
aI66130753
aS'-'
asS'GLT8D2'
p1894
(lp1895
I103988982
aI104064177
aS'-'
asS'RMST'
p1896
(lp1897
I97462775
aI97565015
aS'+'
asS'KERA'
p1898
(lp1899
I91050493
aI91058354
aS'-'
asS'STAC3'
p1900
(lp1901
I57243454
aI57251193
aS'-'
asS'LRP1-AS'
p1902
(lp1903
I57144619
aI57147619
aS'-'
asS'TMBIM6'
p1904
(lp1905
I49741509
aI49764934
aS'+'
asS'TMBIM4'
p1906
(lp1907
I66136935
aI66170072
aS'-'
asS'RNU7-1'
p1908
(lp1909
I6943815
aI6943878
aS'+'
asS'LINC02378'
p1910
(lp1911
I17581822
aI17589078
aS'-'
asS'LINC02370'
p1912
(lp1913
I131347469
aI131367555
aS'+'
asS'LINC02372'
p1914
(lp1915
I126869493
aI126874690
aS'-'
asS'LINC02375'
p1916
(lp1917
I127324154
aI127340072
aS'-'
asS'LINC02376'
p1918
(lp1919
I127274270
aI127284283
aS'-'
asS'HECTD4'
p1920
(lp1921
I112160187
aI112382092
aS'-'
asS'ADAMTS20'
p1922
(lp1923
I43353865
aI43551971
aS'-'
asS'SETD1B'
p1924
(lp1925
I121804723
aI121832656
aS'+'
asS'ARNTL2-AS1'
p1926
(lp1927
I27389788
aI27446634
aS'-'
asS'OAS1'
p1928
(lp1929
I112906776
aI112932190
aS'+'
asS'OAS3'
p1930
(lp1931
I112938473
aI112973251
aS'+'
asS'OAS2'
p1932
(lp1933
I112978468
aI113011723
aS'+'
asS'TESPA1'
p1934
(lp1935
I54948302
aI54984746
aS'-'
asS'OASL'
p1936
(lp1937
I121020291
aI121039242
aS'-'
asS'C12orf49'
p1938
(lp1939
I116713319
aI116738100
aS'-'
asS'C12orf40'
p1940
(lp1941
I39626166
aI39908300
aS'+'
asS'C12orf43'
p1942
(lp1943
I121002421
aI121016502
aS'-'
asS'C12orf42'
p1944
(lp1945
I103237590
aI103496010
aS'-'
asS'C12orf45'
p1946
(lp1947
I104986319
aI104994727
aS'+'
asS'KCNMB4'
p1948
(lp1949
I70366289
aI70434292
aS'+'
asS'LNCOG'
p1950
(lp1951
I76259882
aI76305969
aS'+'
asS'UBC'
p1952
(lp1953
I124911644
aI124915041
aS'-'
asS'ANKRD52'
p1954
(lp1955
I56237806
aI56258359
aS'-'
asS'LOC102724421'
p1956
(lp1957
I67077625
aI67096284
aS'-'
asS'CLEC12B'
p1958
(lp1959
I10010626
aI10018800
aS'+'
asS'CLEC12A'
p1960
(lp1961
I9951315
aI9985595
aS'+'
asS'METAP2'
p1962
(lp1963
I95474045
aI95515837
aS'+'
asS'DPPA3'
p1964
(lp1965
I7711453
aI7717556
aS'+'
asS'SPRYD3'
p1966
(lp1967
I53064315
aI53079420
aS'-'
asS'SPRYD4'
p1968
(lp1969
I56468516
aI56470983
aS'+'
asS'TCTN2'
p1970
(lp1971
I123671112
aI123708403
aS'+'
asS'TCTN1'
p1972
(lp1973
I110614026
aI110649131
aS'+'
asS'CMAS'
p1974
(lp1975
I22046173
aI22065672
aS'+'
asS'PCBP2'
p1976
(lp1977
I53452101
aI53481162
aS'+'
asS'C1QL4'
p1978
(lp1979
I49332416
aI49337188
aS'-'
asS'SIRT4'
p1980
(lp1981
I120302320
aI120313242
aS'+'
asS'LINC01481'
p1982
(lp1983
I70222190
aI70243360
aS'-'
asS'RHNO1'
p1984
(lp1985
I2876257
aI2889525
aS'+'
asS'LRMP'
p1986
(lp1987
I25052227
aI25108335
aS'+'
asS'NELL2'
p1988
(lp1989
I44508274
aI44913928
aS'-'
asS'PEX5'
p1990
(lp1991
I7189162
aI7218573
aS'+'
asS'WNT5B'
p1992
(lp1993
I1617055
aI1647211
aS'+'
asS'TRHDE-AS1'
p1994
(lp1995
I72253506
aI72273509
aS'-'
asS'MIR6757'
p1996
(lp1997
I53056943
aI53057012
aS'+'
asS'MIR6759'
p1998
(lp1999
I57748617
aI57748682
aS'-'
asS'MIR6758'
p2000
(lp2001
I57512687
aI57512750
aS'+'
asS'FAM222A-AS1'
p2002
(lp2003
I109734208
aI109773487
aS'-'
asS'MIR1251'
p2004
(lp2005
I97491908
aI97491978
aS'+'
asS'MIR1252'
p2006
(lp2007
I79419256
aI79419321
aS'+'
asS'TBK1'
p2008
(lp2009
I64452119
aI64502113
aS'+'
asS'ZNF740'
p2010
(lp2011
I53180721
aI53195142
aS'+'
asS'MRPS35'
p2012
(lp2013
I27710772
aI27756304
aS'+'
asS'RSRC2'
p2014
(lp2015
I122504642
aI122527013
aS'-'
asS'VAMP1'
p2016
(lp2017
I6462237
aI6470899
aS'-'
asS'WASH8P'
p2018
(lp2019
I14476
aI32015
aS'-'
asS'PFDN5'
p2020
(lp2021
I53295450
aI53299451
aS'+'
asS'PRB1'
p2022
(lp2023
I11351822
aI11355590
aS'-'
asS'PRB2'
p2024
(lp2025
I11391539
aI11395567
aS'-'
asS'PRB3'
p2026
(lp2027
I11265913
aI11269707
aS'-'
asS'PRB4'
p2028
(lp2029
I11307080
aI11310435
aS'-'
asS'WSCD2'
p2030
(lp2031
I108129470
aI108250536
aS'+'
asS'ZCRB1'
p2032
(lp2033
I42312085
aI42326130
aS'-'
asS'CLEC6A'
p2034
(lp2035
I8455994
aI8478330
aS'+'
asS'LOC101928530'
p2036
(lp2037
I132887841
aI132888571
aS'+'
asS'EMP1'
p2038
(lp2039
I13196667
aI13216774
aS'+'
asS'ARHGEF25'
p2040
(lp2041
I57610179
aI57617245
aS'+'
asS'LALBA'
p2042
(lp2043
I48567683
aI48570046
aS'-'
asS'ARL1'
p2044
(lp2045
I101393119
aI101407820
aS'-'
asS'LINC02384'
p2046
(lp2047
I68431841
aI68451484
aS'-'
asS'LINC02387'
p2048
(lp2049
I31363480
aI31369301
aS'-'
asS'LINC02381'
p2050
(lp2051
I54126070
aI54132842
aS'+'
asS'ETFBKMT'
p2052
(lp2053
I31647159
aI31669082
aS'+'
asS'LINC02388'
p2054
(lp2055
I58565958
aI58781716
aS'-'
asS'LINC02389'
p2056
(lp2057
I64883773
aI64977522
aS'+'
asS'DERA'
p2058
(lp2059
I15911171
aI16037381
aS'+'
asS'LINC02414'
p2060
(lp2061
I131645917
aI131648121
aS'-'
asS'LINC02415'
p2062
(lp2063
I131296112
aI131297972
aS'-'
asS'LINC02417'
p2064
(lp2065
I3368107
aI3371601
aS'+'
asS'LINC02410'
p2066
(lp2067
I95803096
aI95823314
aS'+'
asS'LINC02411'
p2068
(lp2069
I127631268
aI127636467
aS'-'
asS'LINC02412'
p2070
(lp2071
I93174365
aI93181832
aS'+'
asS'LINC02418'
p2072
(lp2073
I130033811
aI130042342
aS'-'
asS'LINC02419'
p2074
(lp2075
I130071334
aI130072685
aS'+'
asS'SLC35E3'
p2076
(lp2077
I68746085
aI68768690
aS'+'
asS'DPY19L2'
p2078
(lp2079
I63558912
aI63668574
aS'-'
asS'ULK1'
p2080
(lp2081
I131894733
aI131923162
aS'+'
asS'GLIPR1'
p2082
(lp2083
I75480732
aI75501936
aS'+'
asS'TBX5-AS1'
p2084
(lp2085
I114408194
aI114412832
aS'+'
asS'DAZAP2'
p2086
(lp2087
I51238723
aI51246717
aS'+'
asS'PTPRR'
p2088
(lp2089
I70638072
aI70920804
aS'-'
asS'PTPRQ'
p2090
(lp2091
I80444345
aI80680189
aS'+'
asS'CFAP54'
p2092
(lp2093
I96489570
aI96875555
aS'+'
asS'LINC02399'
p2094
(lp2095
I89947692
aI89949726
aS'+'
asS'FAM138D'
p2096
(lp2097
I36660
aI38133
aS'-'
asS'LINC02450'
p2098
(lp2099
I42692215
aI42717119
aS'+'
asS'PTPRB'
p2100
(lp2101
I70515870
aI70637440
aS'-'
asS'LOC101929162'
p2102
(lp2103
I107736554
aI107759968
aS'+'
asS'PTPRO'
p2104
(lp2105
I15322256
aI15598331
aS'+'
asS'CPM'
p2106
(lp2107
I68851175
aI68963240
aS'-'
asS'FKBP4'
p2108
(lp2109
I2794969
aI2805421
aS'+'
asS'MIR1302-1'
p2110
(lp2111
I112695033
aI112695176
aS'-'
asS'MFAP5'
p2112
(lp2113
I8645942
aI8662888
aS'-'
asS'DDN-AS1'
p2114
(lp2115
I48998346
aI49019240
aS'+'
asS'ZNF664-RFLNA'
p2116
(lp2117
I123973183
aI124316024
aS'+'
asS'LINC02369'
p2118
(lp2119
I128086982
aI128118141
aS'-'
asS'LINC01490'
p2120
(lp2121
I80763153
aI80770715
aS'+'
asS'TMEM132D-AS2'
p2122
(lp2123
I129208600
aI129212660
aS'+'
asS'HEBP1'
p2124
(lp2125
I12974869
aI13000265
aS'-'
asS'RERGL'
p2126
(lp2127
I18080868
aI18090193
aS'-'
asS'LINC02366'
p2128
(lp2129
I10750233
aI10777451
aS'+'
asS'LINC02367'
p2130
(lp2131
I9367463
aI9397617
aS'+'
asS'IRAK4'
p2132
(lp2133
I43758943
aI43789543
aS'+'
asS'OR8S1'
p2134
(lp2135
I48525631
aI48528103
aS'+'
asS'TIGAR'
p2136
(lp2137
I4321192
aI4360024
aS'+'
asS'MON2'
p2138
(lp2139
I62466816
aI62597583
aS'+'
asS'SMARCD1'
p2140
(lp2141
I50085199
aI50100711
aS'+'
asS'COX6A1'
p2142
(lp2143
I120438089
aI120440742
aS'+'
asS'CCND2'
p2144
(lp2145
I4273761
aI4305352
aS'+'
asS'CEP290'
p2146
(lp2147
I88049012
aI88142216
aS'-'
asS'PRR13'
p2148
(lp2149
I53441648
aI53446643
aS'+'
asS'CSRP2'
p2150
(lp2151
I76858714
aI76879040
aS'-'
asS'RASSF8-AS1'
p2152
(lp2153
I25954654
aI25959442
aS'-'
asS'ACVR1B'
p2154
(lp2155
I51951666
aI51997079
aS'+'
asS'GPR19'
p2156
(lp2157
I12661060
aI12696187
aS'-'
asS'ACVRL1'
p2158
(lp2159
I51907417
aI51923361
aS'+'
asS'CD27-AS1'
p2160
(lp2161
I6439000
aI6451517
aS'-'
asS'CCT2'
p2162
(lp2163
I69585427
aI69601577
aS'+'
asS'ANHX'
p2164
(lp2165
I133218311
aI133235836
aS'-'
asS'PLXNC1'
p2166
(lp2167
I94148722
aI94307675
aS'+'
asS'PRDM4'
p2168
(lp2169
I107732865
aI107761137
aS'-'
asS'RIMKLB'
p2170
(lp2171
I8681676
aI8783098
aS'+'
asS'PDE6H'
p2172
(lp2173
I14973021
aI14981866
aS'+'
asS'KRT18'
p2174
(lp2175
I52948870
aI52952901
aS'+'
asS'LOC100335030'
p2176
(lp2177
I49389173
aI49392333
aS'+'
asS'MIR7107'
p2178
(lp2179
I121444272
aI121444352
aS'-'
asS'MIR7106'
p2180
(lp2181
I113159112
aI113159177
aS'-'
asS'POLE'
p2182
(lp2183
I132623761
aI132687524
aS'-'
asS'DCTN2'
p2184
(lp2185
I57530049
aI57547331
aS'-'
asS'SLC4A8'
p2186
(lp2187
I51391316
aI51515763
aS'+'
asS'FAM186B'
p2188
(lp2189
I49582874
aI49605627
aS'-'
asS'FAM186A'
p2190
(lp2191
I50327308
aI50396622
aS'-'
asS'KNTC1'
p2192
(lp2193
I122527245
aI122626399
aS'+'
asS'RAD51AP1'
p2194
(lp2195
I4538783
aI4560047
aS'+'
asS'RBM19'
p2196
(lp2197
I113816737
aI113966371
aS'-'
asS'MVK'
p2198
(lp2199
I109573694
aI109597270
aS'+'
asS'FAIM2'
p2200
(lp2201
I49866895
aI49903977
aS'-'
asS'POC1B-GALNT4'
p2202
(lp2203
I89519412
aI89526262
aS'-'
asS'NTS'
p2204
(lp2205
I85874294
aI85882992
aS'+'
asS'CLLU1OS'
p2206
(lp2207
I92420102
aI92432999
aS'-'
asS'A2ML1'
p2208
(lp2209
I8822471
aI8876781
aS'+'
asS'MARS'
p2210
(lp2211
I57488067
aI57516652
aS'+'
asS'PSMD9'
p2212
(lp2213
I121888730
aI121917865
aS'+'
asS'KLRD1'
p2214
(lp2215
I10238960
aI10317251
aS'+'
asS'KCNC2'
p2216
(lp2217
I75040077
aI75209748
aS'-'
asS'CPSF6'
p2218
(lp2219
I69239536
aI69274358
aS'+'
asS'ZNF10'
p2220
(lp2221
I133130627
aI133159463
aS'+'
asS'CLLU1'
p2222
(lp2223
I92421530
aI92431002
aS'+'
asS'PPFIA2'
p2224
(lp2225
I81257974
aI81759330
aS'-'
asS'SELPLG'
p2226
(lp2227
I108621903
aI108633894
aS'-'
asS'CNOT2'
p2228
(lp2229
I70242993
aI70354993
aS'+'
asS'HSD17B6'
p2230
(lp2231
I56763217
aI56787790
aS'+'
asS'ZNF641'
p2232
(lp2233
I48334587
aI48350919
aS'-'
asS'NOS1'
p2234
(lp2235
I117208141
aI117361802
aS'-'
asS'ITGB7'
p2236
(lp2237
I53191317
aI53207307
aS'-'
asS'SCN8A'
p2238
(lp2239
I51591235
aI51812864
aS'+'
asS'LOC105369911'
p2240
(lp2241
I93894964
aI93943606
aS'-'
asS'YARS2'
p2242
(lp2243
I32746543
aI32755953
aS'-'
asS'ATN1'
p2244
(lp2245
I6924462
aI6942321
aS'+'
asS'KRT19P2'
p2246
(lp2247
I94834453
aI94835028
aS'+'
asS'COPS7A'
p2248
(lp2249
I6723983
aI6731875
aS'+'
asS'LOC101928617'
p2250
(lp2251
I92146084
aI92185784
aS'+'
asS'LOC105369595'
p2252
(lp2253
I585698
aI586486
aS'-'
asS'MBD6'
p2254
(lp2255
I57522823
aI57530148
aS'+'
asS'AICDA'
p2256
(lp2257
I8602165
aI8612867
aS'-'
asS'TSPAN19'
p2258
(lp2259
I85014314
aI85036277
aS'-'
asS'MIR4698'
p2260
(lp2261
I47187811
aI47187891
aS'+'
asS'MIR4699'
p2262
(lp2263
I81158387
aI81158461
aS'+'
asS'TSPAN11'
p2264
(lp2265
I30926903
aI30996602
aS'+'
asS'LOC100506691'
p2266
(lp2267
I122063289
aI122068560
aS'+'
asS'PKP2'
p2268
(lp2269
I32790745
aI32896846
aS'-'
asS'RASAL1'
p2270
(lp2271
I113098818
aI113136239
aS'-'
asS'LOC414300'
p2272
(lp2273
I105102471
aI105107642
aS'-'
asS'LINC01559'
p2274
(lp2275
I13370670
aI13376745
aS'-'
asS'PEBP1'
p2276
(lp2277
I118136123
aI118145584
aS'+'
asS'SMAGP'
p2278
(lp2279
I51244557
aI51270415
aS'-'
asS'RAN'
p2280
(lp2281
I130871993
aI130877678
aS'+'
asS'P3H3'
p2282
(lp2283
I6828372
aI6839854
aS'+'
asS'NDUFA12'
p2284
(lp2285
I94971327
aI95003713
aS'-'
asS'ZNF268'
p2286
(lp2287
I133181408
aI133207111
aS'+'
asS'METTL7A'
p2288
(lp2289
I50924750
aI50932517
aS'+'
asS'ZNF705A'
p2290
(lp2291
I8172553
aI8180046
aS'+'
asS'PLBD2'
p2292
(lp2293
I113358586
aI113391629
aS'+'
asS'PLBD1'
p2294
(lp2295
I14503662
aI14567857
aS'-'
asS'MIR3908'
p2296
(lp2297
I123536408
aI123536534
aS'+'
asS'POU5F1P3'
p2298
(lp2299
I8133768
aI8134852
aS'-'
asS'RFLNA'
p2300
(lp2301
I124289163
aI124316024
aS'+'
asS'RPH3A'
p2302
(lp2303
I112575096
aI112898879
aS'+'
asS'GOLGA2P5'
p2304
(lp2305
I100156395
aI100173343
aS'-'
asS'BLOC1S1-RDH5'
p2306
(lp2307
I55716033
aI55724742
aS'+'
asS'CLECL1'
p2308
(lp2309
I9715859
aI9733299
aS'-'
asS'ALDH1L2'
p2310
(lp2311
I105019783
aI105084563
aS'-'
asS'LINC01486'
p2312
(lp2313
I109354186
aI109359488
aS'-'
asS'YEATS4'
p2314
(lp2315
I69359709
aI69390870
aS'+'
asS'LIMA1'
p2316
(lp2317
I50175779
aI50283570
aS'-'
asS'GLIPR1L1'
p2318
(lp2319
I75334638
aI75370389
aS'+'
asS'MMAB'
p2320
(lp2321
I109553715
aI109573553
aS'-'
asS'LINC01489'
p2322
(lp2323
I15001832
aI15006683
aS'+'
asS'MIR5188'
p2324
(lp2325
I124915546
aI124915659
aS'+'
asS'SUDS3'
p2326
(lp2327
I118376554
aI118418033
aS'+'
asS'WIF1'
p2328
(lp2329
I65050625
aI65121305
aS'-'
asS'IKZF4'
p2330
(lp2331
I56007711
aI56038435
aS'+'
asS'MIR3612'
p2332
(lp2333
I128294091
aI128294178
aS'+'
asS'SLC11A2'
p2334
(lp2335
I50979782
aI51026416
aS'-'
asS'TIMELESS'
p2336
(lp2337
I56416372
aI56449465
aS'-'
asS'ORAI1'
p2338
(lp2339
I121626549
aI121642040
aS'+'
asS'SNORA70G'
p2340
(lp2341
I68627233
aI68627375
aS'-'
asS'GALNT8'
p2342
(lp2343
I4720585
aI4772726
aS'+'
asS'GALNT9'
p2344
(lp2345
I132196371
aI132329319
aS'-'
asS'C12orf29'
p2346
(lp2347
I88035490
aI88050160
aS'+'
asS'GALNT4'
p2348
(lp2349
I89519412
aI89524806
aS'-'
asS'GALNT6'
p2350
(lp2351
I51352048
aI51391416
aS'-'
asS'EIF4B'
p2352
(lp2353
I53006257
aI53042215
aS'+'
asS'AVIL'
p2354
(lp2355
I57797375
aI57816069
aS'-'
asS'TTC41P'
p2356
(lp2357
I103843748
aI103930211
aS'-'
asS'LOC101927415'
p2358
(lp2359
I123581065
aI123584327
aS'-'
asS'PIWIL1'
p2360
(lp2361
I130337887
aI130372332
aS'+'
asS'RFC5'
p2362
(lp2363
I118016660
aI118032237
aS'+'
asS'PGAM5'
p2364
(lp2365
I132710806
aI132722737
aS'+'
asS'CBX5'
p2366
(lp2367
I54230941
aI54280122
aS'-'
asS'ADIPOR2'
p2368
(lp2369
I1691080
aI1788679
aS'+'
asS'CHPT1'
p2370
(lp2371
I101697639
aI101729074
aS'+'
asS'LOC729291'
p2372
(lp2373
I28185624
aI28190738
aS'-'
asS'PPP1R12A'
p2374
(lp2375
I79773562
aI79935455
aS'-'
asS'PPP1R12A-AS1'
p2376
(lp2377
I79935280
aI79941395
aS'+'
asS'ASCL1'
p2378
(lp2379
I102957673
aI102960516
aS'+'
asS'ASCL4'
p2380
(lp2381
I107774384
aI107776644
aS'+'
asS'DNAJC22'
p2382
(lp2383
I49346916
aI49353684
aS'+'
asS'UNG'
p2384
(lp2385
I109097593
aI109110993
aS'+'
asS'THRIL'
p2386
(lp2387
I125025442
aI125027423
aS'-'
asS'ALDH2'
p2388
(lp2389
I111766932
aI111817531
aS'+'
asS'RAD52'
p2390
(lp2391
I911735
aI990041
aS'-'
asS'NPFF'
p2392
(lp2393
I53506687
aI53507638
aS'-'
asS'AMIGO2'
p2394
(lp2395
I47075706
aI47079951
aS'-'
asS'USP5'
p2396
(lp2397
I6852120
aI6866631
aS'+'
asS'RNF34'
p2398
(lp2399
I121400082
aI121424352
aS'+'
asS'SOX5'
p2400
(lp2401
I23529503
aI24562590
aS'-'
asS'ZNF891'
p2402
(lp2403
I133119968
aI133130473
aS'-'
asS'GABARAPL1'
p2404
(lp2405
I10212876
aI10223125
aS'+'
asS'PRR4'
p2406
(lp2407
I10845848
aI10849476
aS'-'
asS'LOC101928597'
p2408
(lp2409
I133032660
aI133037222
aS'-'
asS'LINC02361'
p2410
(lp2411
I132186734
aI132189695
aS'-'
asS'PFKM'
p2412
(lp2413
I48105252
aI48146404
aS'+'
asS'ABCB9'
p2414
(lp2415
I122920950
aI122966509
aS'-'
asS'CRACR2A'
p2416
(lp2417
I3615327
aI3753200
aS'-'
asS'KLRC1'
p2418
(lp2419
I10442263
aI10454685
aS'-'
asS'KLRC3'
p2420
(lp2421
I10412314
aI10420595
aS'-'
asS'KLRC2'
p2422
(lp2423
I10430605
aI10435993
aS'-'
asS'KLRC4'
p2424
(lp2425
I10407383
aI10409757
aS'-'
asS'LOC100507377'
p2426
(lp2427
I74133175
aI74292631
aS'-'
asS'LOC283435'
p2428
(lp2429
I126400791
aI126449327
aS'-'
asS'CLEC4E'
p2430
(lp2431
I8533304
aI8540962
aS'-'
asS'CLEC4D'
p2432
(lp2433
I8513539
aI8522364
aS'+'
asS'CLEC4C'
p2434
(lp2435
I7729414
aI7749473
aS'-'
asS'CLEC4A'
p2436
(lp2437
I8123631
aI8138607
aS'+'
asS'TM7SF3'
p2438
(lp2439
I26971583
aI27014384
aS'-'
asS'SRSF9'
p2440
(lp2441
I120461667
aI120469755
aS'-'
asS'MLEC'
p2442
(lp2443
I120687123
aI120701864
aS'+'
asS'MYL6'
p2444
(lp2445
I56158260
aI56161582
aS'+'
asS'AVPR1A'
p2446
(lp2447
I63142758
aI63152810
aS'-'
asS'MYL2'
p2448
(lp2449
I110910819
aI110920600
aS'-'
asS'RAPGEF3'
p2450
(lp2451
I47734669
aI47759106
aS'-'
asS'MIR1291'
p2452
(lp2453
I48654443
aI48654530
aS'-'
asS'MIR1293'
p2454
(lp2455
I50234141
aI50234212
aS'-'
asS'CERS5'
p2456
(lp2457
I50129305
aI50167533
aS'-'
asS'C1RL'
p2458
(lp2459
I7094549
aI7109278
aS'-'
asS'BHLHE41'
p2460
(lp2461
I26120025
aI26125070
aS'-'
asS'INHBC'
p2462
(lp2463
I57434684
aI57452062
aS'+'
asS'INHBE'
p2464
(lp2465
I57455290
aI57458013
aS'+'
asS'SCNN1A'
p2466
(lp2467
I6346842
aI6377357
aS'-'
asS'CFAP73'
p2468
(lp2469
I113149857
aI113159276
aS'+'
asS'MDM1'
p2470
(lp2471
I68294565
aI68332414
aS'-'
asS'MDM2'
p2472
(lp2473
I68808171
aI68845544
aS'+'
asS'SMUG1'
p2474
(lp2475
I54180357
aI54188994
aS'-'
asS'LRTM2'
p2476
(lp2477
I1820266
aI1836752
aS'+'
asS'RXYLT1-AS1'
p2478
(lp2479
I63808844
aI63822156
aS'-'
asS'FRS2'
p2480
(lp2481
I69470348
aI69579791
aS'+'
asS'GOLT1B'
p2482
(lp2483
I21501764
aI21518403
aS'+'
asS'RXYLT1'
p2484
(lp2485
I63779802
aI63809558
aS'+'
asS'XLOC_009911'
p2486
(lp2487
I120904694
aI120908074
aS'+'
asS'LOC100240735'
p2488
(lp2489
I54078838
aI54081823
aS'-'
asS'LOC100240734'
p2490
(lp2491
I54102208
aI54102699
aS'+'
asS'LINC02347'
p2492
(lp2493
I126442480
aI126472785
aS'+'
asS'MIR1244-4'
p2494
(lp2495
I9239469
aI9239551
aS'-'
asS'TAS2R46'
p2496
(lp2497
I11061364
aI11062294
aS'-'
asS'MKRN9P'
p2498
(lp2499
I87782885
aI87784711
aS'-'
asS'LINC00612'
p2500
(lp2501
I9055588
aI9065070
aS'-'
asS'LINC00615'
p2502
(lp2503
I90918022
aI90948669
aS'+'
asS'MAP1LC3B2'
p2504
(lp2505
I116559380
aI116576593
aS'+'
asS'TNFRSF1A'
p2506
(lp2507
I6328756
aI6342117
aS'-'
asS'RPAP3'
p2508
(lp2509
I47661931
aI47706061
aS'-'
asS'LINC01234'
p2510
(lp2511
I113744576
aI113773683
aS'-'
asS'CD4'
p2512
(lp2513
I6789471
aI6820810
aS'+'
asS'C12orf10'
p2514
(lp2515
I53299685
aI53307181
aS'+'
asS'CAPS2'
p2516
(lp2517
I75275978
aI75390937
aS'-'
asS'ARNTL2'
p2518
(lp2519
I27332853
aI27425813
aS'+'
asS'CD9'
p2520
(lp2521
I6199706
aI6238271
aS'+'
asS'DRAM1'
p2522
(lp2523
I101877326
aI101923623
aS'+'
asS'STAT6'
p2524
(lp2525
I57095404
aI57111413
aS'-'
asS'LINC00508'
p2526
(lp2527
I127883990
aI127983891
aS'-'
asS'STAT2'
p2528
(lp2529
I56341597
aI56360253
aS'-'
asS'LINC00507'
p2530
(lp2531
I127915409
aI127951552
aS'+'
asS'CTDSP2'
p2532
(lp2533
I57819926
aI57846964
aS'-'
asS'CYP27B1'
p2534
(lp2535
I57762333
aI57767193
aS'-'
asS'NANOGNB'
p2536
(lp2537
I7765215
aI7774121
aS'+'
asS'CD63'
p2538
(lp2539
I55725442
aI55729673
aS'-'
asS'CD69'
p2540
(lp2541
I9752485
aI9760901
aS'-'
asS'OR7E47P'
p2542
(lp2543
I52079695
aI52108319
aS'+'
asS'LRP1'
p2544
(lp2545
I57128498
aI57213342
aS'+'
asS'LRP6'
p2546
(lp2547
I12116025
aI12266877
aS'-'
asS'NEUROD4'
p2548
(lp2549
I55019944
aI55030017
aS'+'
asS'LOC283387'
p2550
(lp2551
I57869834
aI57896482
aS'-'
asS'TMTC3'
p2552
(lp2553
I88142295
aI88199887
aS'+'
asS'TMTC2'
p2554
(lp2555
I82687154
aI83134868
aS'+'
asS'TMTC1'
p2556
(lp2557
I29500812
aI29784759
aS'-'
asS'LINC00477'
p2558
(lp2559
I24566963
aI24584168
aS'-'
asS'LOC101927267'
p2560
(lp2561
I49292630
aI49324576
aS'-'
asS'A2M-AS1'
p2562
(lp2563
I9065176
aI9068055
aS'+'
asS'MAPKAPK5-AS1'
p2564
(lp2565
I111839766
aI111843005
aS'-'
asS'AACS'
p2566
(lp2567
I125065366
aI125143333
aS'+'
asS'NOC4L'
p2568
(lp2569
I132144426
aI132152473
aS'+'
asS'TEAD4'
p2570
(lp2571
I2959311
aI3040676
aS'+'
asS'MIR6502'
p2572
(lp2573
I66251081
aI66251157
aS'+'
asS'MIR6505'
p2574
(lp2575
I48132796
aI48132867
aS'+'
asS'LINC00987'
p2576
(lp2577
I9240002
aI9262877
aS'+'
asS'KRT73-AS1'
p2578
(lp2579
I52609850
aI52615305
aS'+'
asS'KMT2D'
p2580
(lp2581
I49018974
aI49055324
aS'-'
asS'HSPB8'
p2582
(lp2583
I119178789
aI119194746
aS'+'
asS'CPNE8'
p2584
(lp2585
I38652199
aI38905618
aS'-'
asS'MRPL42'
p2586
(lp2587
I93467489
aI93503772
aS'+'
asS'HCFC2'
p2588
(lp2589
I104064457
aI104106526
aS'+'
asS'TFCP2'
p2590
(lp2591
I51093755
aI51173143
aS'-'
asS'ABCC9'
p2592
(lp2593
I21797389
aI21936694
aS'-'
asS'CKAP4'
p2594
(lp2595
I106237880
aI106247935
aS'-'
asS'WASHC3'
p2596
(lp2597
I102012839
aI102062124
aS'-'
asS'KLRB1'
p2598
(lp2599
I9595273
aI9607901
aS'-'
asS'DNAH10'
p2600
(lp2601
I123762494
aI123935720
aS'+'
asS'HRK'
p2602
(lp2603
I116856143
aI116881427
aS'-'
asS'WASHC4'
p2604
(lp2605
I105107713
aI105169134
aS'+'
asS'MIR3198-2'
p2606
(lp2607
I54231396
aI54231476
aS'-'
asS'MIRLET7I'
p2608
(lp2609
I62603685
aI62603769
aS'+'
asS'ATP23'
p2610
(lp2611
I57941503
aI57957269
aS'+'
asS'METTL7B'
p2612
(lp2613
I55681545
aI55684610
aS'+'
asS'A2MP1'
p2614
(lp2615
I9228532
aI9234207
aS'-'
asS'NAV3'
p2616
(lp2617
I77830893
aI78213010
aS'+'
asS'GOLGA3'
p2618
(lp2619
I132768908
aI132828702
aS'-'
asS'ZNF664'
p2620
(lp2621
I123973214
aI124015439
aS'+'
asS'ISCU'
p2622
(lp2623
I108561462
aI108569384
aS'+'
asS'MRS2P2'
p2624
(lp2625
I71848293
aI71850983
aS'-'
asS'FAM19A2'
p2626
(lp2627
I61708247
aI62192839
aS'-'
asS'SOCS2-AS1'
p2628
(lp2629
I93565627
aI93571398
aS'-'
asS'MSRB3'
p2630
(lp2631
I65278642
aI65466907
aS'+'
asS'ATP2B1'
p2632
(lp2633
I89588048
aI89709366
aS'-'
asS'TSPAN8'
p2634
(lp2635
I71125096
aI71157999
aS'-'
asS'TSPAN9'
p2636
(lp2637
I3077354
aI3286564
aS'+'
asS'CACNA2D4'
p2638
(lp2639
I1791956
aI1918704
aS'-'
asS'KCTD10'
p2640
(lp2641
I109448654
aI109477544
aS'-'
asS'PTMS'
p2642
(lp2643
I6766316
aI6770952
aS'+'
asS'LOC100505978'
p2644
(lp2645
I106680757
aI106684700
aS'-'
asS'KDM5A'
p2646
(lp2647
I280056
aI389455
aS'-'
asS'DCP1B'
p2648
(lp2649
I1941590
aI2004535
aS'-'
asS'MAPKAPK5'
p2650
(lp2651
I111842227
aI111893424
aS'+'
asS'FZD10-DT'
p2652
(lp2653
I130151592
aI130161678
aS'-'
asS'TUBA1C'
p2654
(lp2655
I49227925
aI49273338
aS'+'
asS'TUBA1B'
p2656
(lp2657
I49127783
aI49131521
aS'-'
asS'TUBA1A'
p2658
(lp2659
I49184794
aI49189324
aS'-'
asS'KLRF1'
p2660
(lp2661
I9800051
aI9845004
aS'+'
asS'ZFC3H1'
p2662
(lp2663
I71609600
aI71663969
aS'-'
asS'OS9'
p2664
(lp2665
I57693954
aI57721557
aS'+'
asS'LINC02359'
p2666
(lp2667
I126095991
aI126103932
aS'+'
asS'MIR3922'
p2668
(lp2669
I104591632
aI104591716
aS'+'
asS'HCAR3'
p2670
(lp2671
I122714755
aI122716892
aS'-'
asS'HCAR2'
p2672
(lp2673
I122701292
aI122703357
aS'-'
asS'HCAR1'
p2674
(lp2675
I122727605
aI122730582
aS'-'
asS'GYS2'
p2676
(lp2677
I21536106
aI21604847
aS'-'
asS'DENND5B'
p2678
(lp2679
I31382225
aI31591136
aS'-'
asS'SNORA120'
p2680
(lp2681
I6040036
aI6040183
aS'-'
asS'LOC101929384'
p2682
(lp2683
I203644
aI205093
aS'+'
asS'ETV6'
p2684
(lp2685
I11649853
aI11895391
aS'+'
asS'LRRC10'
p2686
(lp2687
I69608564
aI69611162
aS'-'
asS'TSPAN31'
p2688
(lp2689
I57745038
aI57750219
aS'+'
asS'LINC02350'
p2690
(lp2691
I126426145
aI126434227
aS'+'
asS'SVOP'
p2692
(lp2693
I108908128
aI109021240
aS'-'
asS'MIR4498'
p2694
(lp2695
I120155433
aI120155499
aS'-'
asS'GLIPR1L2'
p2696
(lp2697
I75391069
aI75432397
aS'+'
asS'MIR4494'
p2698
(lp2699
I47364185
aI47364269
aS'-'
asS'MIR4495'
p2700
(lp2701
I97939055
aI97939121
aS'-'
asS'MIR4496'
p2702
(lp2703
I108635809
aI108635870
aS'+'
asS'MIR4497'
p2704
(lp2705
I109833347
aI109833436
aS'+'
asS'TMED2'
p2706
(lp2707
I123584551
aI123598582
aS'+'
asS'MIR5700'
p2708
(lp2709
I94561788
aI94561859
aS'+'
asS'SPATS2'
p2710
(lp2711
I49366904
aI49527426
aS'+'
asS'ARL6IP4'
p2712
(lp2713
I122980059
aI122982913
aS'+'
asS'HMGA2'
p2714
(lp2715
I65824459
aI65966291
aS'+'
asS'OR6C3'
p2716
(lp2717
I55331700
aI55332636
aS'+'
asS'OR6C2'
p2718
(lp2719
I55452213
aI55453152
aS'+'
asS'OR6C1'
p2720
(lp2721
I55320599
aI55321538
aS'+'
asS'OR6C6'
p2722
(lp2723
I55294287
aI55295232
aS'-'
asS'OR6C4'
p2724
(lp2725
I55551226
aI55552156
aS'+'
asS'SMCO2'
p2726
(lp2727
I27466809
aI27502185
aS'+'
asS'PLEKHA8P1'
p2728
(lp2729
I45173033
aI45216006
aS'-'
asS'ATXN2-AS'
p2730
(lp2731
I111599497
aI111600255
aS'+'
asS'SLC8B1'
p2732
(lp2733
I113298765
aI113335168
aS'-'
asS'RERG-AS1'
p2734
(lp2735
I15151922
aI15155281
aS'+'
asS'CASC18'
p2736
(lp2737
I105704202
aI105744063
aS'+'
asS'CIT'
p2738
(lp2739
I119685789
aI119877291
aS'-'
asS'RAB35'
p2740
(lp2741
I120095094
aI120116839
aS'-'
asS'CAND1'
p2742
(lp2743
I67269280
aI67314692
aS'+'
asS'DAO'
p2744
(lp2745
I108880080
aI108900934
aS'+'
asS'PCED1B-AS1'
p2746
(lp2747
I47208419
aI47216443
aS'-'
asS'GLI1'
p2748
(lp2749
I57460134
aI57472264
aS'+'
asS'CD163L1'
p2750
(lp2751
I7354960
aI7444185
aS'-'
asS'LDHB'
p2752
(lp2753
I21635341
aI21657855
aS'-'
asS'BICD1'
p2754
(lp2755
I32106806
aI32383633
aS'+'
asS'PLEKHG6'
p2756
(lp2757
I6310435
aI6328506
aS'+'
asS'PLEKHG7'
p2758
(lp2759
I92736488
aI92772092
aS'+'
asS'CD163'
p2760
(lp2761
I7470815
aI7503818
aS'-'
asS'IFNG-AS1'
p2762
(lp2763
I67989444
aI68021327
aS'+'
asS'DNM1L'
p2764
(lp2765
I32679199
aI32745650
aS'+'
as.