(dp1
S'SCFD1'
p2
(lp3
I30622253
aI30735827
aS'+'
asS'HSPA2'
p4
(lp5
I64540467
aI64543236
aS'+'
asS'MIR1185-2'
p6
(lp7
I101044197
aI101044282
aS'+'
asS'LTB4R2'
p8
(lp9
I24310150
aI24312053
aS'+'
asS'REM2'
p10
(lp11
I22883221
aI22887678
aS'+'
asS'GALC'
p12
(lp13
I87933013
aI87993665
aS'-'
asS'JAG2'
p14
(lp15
I105140980
aI105168824
aS'-'
asS'LGALS3'
p16
(lp17
I55129216
aI55145430
aS'+'
asS'JPH4'
p18
(lp19
I23568034
aI23578800
aS'-'
asS'FKBP3'
p20
(lp21
I45115598
aI45134529
aS'-'
asS'PPP4R3A'
p22
(lp23
I91457136
aI91510310
aS'-'
asS'SAMD15'
p24
(lp25
I77377377
aI77391300
aS'+'
asS'VRTN'
p26
(lp27
I74348470
aI74360008
aS'+'
asS'ARMH4'
p28
(lp29
I58004055
aI58152239
aS'-'
asS'CYP46A1'
p30
(lp31
I99684417
aI99727301
aS'+'
asS'SIVA1'
p32
(lp33
I104753132
aI104759659
aS'+'
asS'PTGER2'
p34
(lp35
I52314311
aI52328595
aS'+'
asS'SNORD114-16'
p36
(lp37
I100973594
aI100973663
aS'+'
asS'LINC01146'
p38
(lp39
I88024549
aI88087344
aS'+'
asS'SPTLC2'
p40
(lp41
I77505996
aI77616767
aS'-'
asS'ZC3H14'
p42
(lp43
I88562908
aI88613509
aS'+'
asS'MRPL52'
p44
(lp45
I22829882
aI22835037
aS'+'
asS'MIR411'
p46
(lp47
I101023324
aI101023420
aS'+'
asS'FOXN3-AS1'
p48
(lp49
I89417353
aI89419793
aS'+'
asS'FOXN3-AS2'
p50
(lp51
I89576215
aI89577476
aS'+'
asS'SNORD114-14'
p52
(lp53
I100972102
aI100972176
aS'+'
asS'METTL17'
p54
(lp55
I20989805
aI20997035
aS'+'
asS'LOC101929572'
p56
(lp57
I19421025
aI19424584
aS'+'
asS'LINC01148'
p58
(lp59
I86905777
aI86922755
aS'+'
asS'SNORD114-13'
p60
(lp61
I100969878
aI100969951
aS'+'
asS'LOC105370457'
p62
(lp63
I38882595
aI38919200
aS'+'
asS'SNORD114-20'
p64
(lp65
I100981003
aI100981074
aS'+'
asS'OSGEP'
p66
(lp67
I20447047
aI20455108
aS'-'
asS'MIR654'
p68
(lp69
I101040218
aI101040299
aS'+'
asS'ISM2'
p70
(lp71
I77474394
aI77498867
aS'-'
asS'ZFYVE21'
p72
(lp73
I103715743
aI103733668
aS'+'
asS'PTGR2'
p74
(lp75
I73851830
aI73885466
aS'+'
asS'AP5M1'
p76
(lp77
I57268887
aI57290079
aS'+'
asS'MEG3'
p78
(lp79
I100826107
aI100861023
aS'+'
asS'MEG9'
p80
(lp81
I101069910
aI101072936
aS'+'
asS'MEG8'
p82
(lp83
I100889648
aI100999113
aS'+'
asS'AKAP5'
p84
(lp85
I64465498
aI64474503
aS'+'
asS'AKAP6'
p86
(lp87
I32329272
aI32833062
aS'+'
asS'L2HGDH'
p88
(lp89
I50242433
aI50312229
aS'-'
asS'RNASE11'
p90
(lp91
I20582892
aI20590258
aS'-'
asS'RNASE10'
p92
(lp93
I20510471
aI20511122
aS'+'
asS'RNASE13'
p94
(lp95
I21032817
aI21034807
aS'-'
asS'RNASE12'
p96
(lp97
I20590080
aI20590823
aS'-'
asS'MIR4506'
p98
(lp99
I93948225
aI93948302
aS'-'
asS'MAX'
p100
(lp101
I65006100
aI65102544
aS'-'
asS'MIR4504'
p102
(lp103
I50299854
aI50299946
aS'-'
asS'LINC00639'
p104
(lp105
I38749338
aI38916882
aS'-'
asS'LINC00221'
p106
(lp107
I106482438
aI106495515
aS'+'
asS'MIR4503'
p108
(lp109
I36952308
aI36952391
aS'-'
asS'MIR376C'
p110
(lp111
I101039689
aI101039755
aS'+'
asS'MIR6717'
p112
(lp113
I21023313
aI21023386
aS'-'
asS'SNORD114-21'
p114
(lp115
I100981974
aI100982045
aS'+'
asS'MIR300'
p116
(lp117
I101041362
aI101041444
aS'+'
asS'KLC1'
p118
(lp119
I103629187
aI103701551
aS'+'
asS'SNORD114-11'
p120
(lp121
I100968110
aI100968184
aS'+'
asS'MIR376A2'
p122
(lp123
I101040068
aI101040148
aS'+'
asS'MIR376A1'
p124
(lp125
I101040781
aI101040849
aS'+'
asS'MMP14'
p126
(lp127
I22836532
aI22847599
aS'+'
asS'ATP6V1D'
p128
(lp129
I67337863
aI67360003
aS'-'
asS'EVL'
p130
(lp131
I99971474
aI100144236
aS'+'
asS'AK7'
p132
(lp133
I96392087
aI96489427
aS'+'
asS'NOVA1'
p134
(lp135
I26443092
aI26598033
aS'-'
asS'SNORD114-25'
p136
(lp137
I100986056
aI100986127
aS'+'
asS'LOC101929718'
p138
(lp139
I20995836
aI20999163
aS'-'
asS'CHURC1'
p140
(lp141
I64914360
aI64935366
aS'+'
asS'BBOF1'
p142
(lp143
I74019348
aI74066092
aS'+'
asS'GPR137C'
p144
(lp145
I52552835
aI52637713
aS'+'
asS'SNORD113-8'
p146
(lp147
I100943450
aI100943523
aS'+'
asS'SPTSSA'
p148
(lp149
I34432790
aI34462240
aS'-'
asS'SNORD114-28'
p150
(lp151
I100989129
aI100989200
aS'+'
asS'SNORD113-9'
p152
(lp153
I100945648
aI100945719
aS'+'
asS'SCARNA13'
p154
(lp155
I95533354
aI95533629
aS'-'
asS'FAM181A-AS1'
p156
(lp157
I93904730
aI93926372
aS'-'
asS'MIR656'
p158
(lp159
I101066723
aI101066801
aS'+'
asS'AHSA1'
p160
(lp161
I77457876
aI77469472
aS'+'
asS'LINC00524'
p162
(lp163
I101405986
aI101407922
aS'-'
asS'LINC00523'
p164
(lp165
I100657267
aI100672744
aS'+'
asS'TMEM260'
p166
(lp167
I56579792
aI56649514
aS'+'
asS'CMTM5'
p168
(lp169
I23376807
aI23379772
aS'+'
asS'MIR487A'
p170
(lp171
I101052445
aI101052525
aS'+'
asS'MIR6076'
p172
(lp173
I49966398
aI49966511
aS'+'
asS'BRMS1L'
p174
(lp175
I35826390
aI35871963
aS'+'
asS'MAPK1IP1L'
p176
(lp177
I55051643
aI55070194
aS'+'
asS'TMEM121'
p178
(lp179
I105526602
aI105530202
aS'+'
asS'HEATR5A'
p180
(lp181
I31291787
aI31420582
aS'-'
asS'PPP1R3E'
p182
(lp183
I23295920
aI23302848
aS'-'
asS'KCNK10'
p184
(lp185
I88180107
aI88326912
aS'-'
asS'SNORD113-1'
p186
(lp187
I100924820
aI100924890
aS'+'
asS'SLC39A9'
p188
(lp189
I69398378
aI69462391
aS'+'
asS'MAP3K9'
p190
(lp191
I70722525
aI70809171
aS'-'
asS'SLC39A2'
p192
(lp193
I20999254
aI21001875
aS'+'
asS'BRF1'
p194
(lp195
I105209285
aI105315577
aS'-'
asS'LRRC74A'
p196
(lp197
I76826381
aI76870302
aS'+'
asS'C14orf180'
p198
(lp199
I104579683
aI104589847
aS'+'
asS'KCNH5'
p200
(lp201
I62706576
aI63045238
aS'-'
asS'RPL13AP3'
p202
(lp203
I55766244
aI55767717
aS'+'
asS'RPS6KA5'
p204
(lp205
I90868121
aI91060649
aS'-'
asS'GZMB'
p206
(lp207
I24630955
aI24634269
aS'-'
asS'RD3L'
p208
(lp209
I103940425
aI103942308
aS'-'
asS'LINC01269'
p210
(lp211
I70698697
aI70712153
aS'+'
asS'GZMH'
p212
(lp213
I24606479
aI24609720
aS'-'
asS'OR4E2'
p214
(lp215
I21665082
aI21666024
aS'+'
asS'OR4E1'
p216
(lp217
I21669911
aI21671017
aS'-'
asS'FBXO34'
p218
(lp219
I55271302
aI55353611
aS'+'
asS'MIR544A'
p220
(lp221
I101048657
aI101048748
aS'+'
asS'EMC9'
p222
(lp223
I24138964
aI24141588
aS'-'
asS'GPX2'
p224
(lp225
I64939151
aI64942905
aS'-'
asS'SNORD114-15'
p226
(lp227
I100972669
aI100972740
aS'+'
asS'FBXO33'
p228
(lp229
I39396372
aI39432500
aS'-'
asS'NPC2'
p230
(lp231
I74479934
aI74493512
aS'-'
asS'CRIP1'
p232
(lp233
I105486919
aI105488787
aS'+'
asS'ATXN3'
p234
(lp235
I92058551
aI92106621
aS'-'
asS'CRIP2'
p236
(lp237
I105472937
aI105480170
aS'+'
asS'OR4K5'
p238
(lp239
I19920606
aI19921578
aS'+'
asS'OR4K1'
p240
(lp241
I19935607
aI19936683
aS'+'
asS'OR4K3'
p242
(lp243
I19868196
aI19869173
aS'-'
asS'OR4K2'
p244
(lp245
I19876267
aI19877212
aS'+'
asS'KLHL28'
p246
(lp247
I44924309
aI44961976
aS'-'
asS'LOC112268140'
p248
(lp249
I63542783
aI63544661
aS'+'
asS'MIR4308'
p250
(lp251
I54878112
aI54878193
aS'-'
asS'KIAA0586'
p252
(lp253
I58427718
aI58551289
aS'+'
asS'RTRAF'
p254
(lp255
I51989509
aI52004702
aS'+'
asS'MIR494'
p256
(lp257
I101029633
aI101029714
aS'+'
asS'ZNF839'
p258
(lp259
I102317376
aI102343174
aS'+'
asS'LOC101928791'
p260
(lp261
I88018604
aI88026312
aS'-'
asS'LINC00911'
p262
(lp263
I85393878
aI85420076
aS'+'
asS'MIR4307'
p264
(lp265
I26908641
aI26908725
aS'+'
asS'NEDD8'
p266
(lp267
I24216850
aI24232370
aS'-'
asS'ASPG'
p268
(lp269
I104085685
aI104112709
aS'+'
asS'PELI2'
p270
(lp271
I56118374
aI56301313
aS'+'
asS'MIR323A'
p272
(lp273
I101025731
aI101025817
aS'+'
asS'UNC79'
p274
(lp275
I93333218
aI93707876
aS'+'
asS'MIR323B'
p276
(lp277
I101056218
aI101056300
aS'+'
asS'ARF6'
p278
(lp279
I49893017
aI49897054
aS'+'
asS'OR4L1'
p280
(lp281
I20060044
aI20060983
aS'+'
asS'LINC02324'
p282
(lp283
I65212892
aI65222347
aS'-'
asS'LINC02325'
p284
(lp285
I97458815
aI97581383
aS'+'
asS'TM9SF1'
p286
(lp287
I24189142
aI24195736
aS'-'
asS'MIR410'
p288
(lp289
I101065911
aI101065991
aS'+'
asS'ELMSAN1'
p290
(lp291
I73715121
aI73787258
aS'-'
asS'PLEKHD1'
p292
(lp293
I69484753
aI69528498
aS'+'
asS'LINC02328'
p294
(lp295
I85934677
aI86129777
aS'+'
asS'C14orf119'
p296
(lp297
I23095473
aI23100456
aS'+'
asS'TOGARAM1'
p298
(lp299
I44962189
aI45074431
aS'+'
asS'LINC00226'
p300
(lp301
I106287673
aI106288372
aS'+'
asS'MIR8071-1'
p302
(lp303
I105621115
aI105621180
aS'+'
asS'TUNAR'
p304
(lp305
I95876391
aI95925571
aS'+'
asS'LINC00871'
p306
(lp307
I46064158
aI46501901
aS'+'
asS'LOC107984703'
p308
(lp309
I95715482
aI95756779
aS'+'
asS'LINC00677'
p310
(lp311
I103120848
aI103122909
aS'-'
asS'C14orf144'
p312
(lp313
I104223583
aI104288069
aS'+'
asS'BDKRB1'
p314
(lp315
I96256209
aI96264763
aS'+'
asS'TMEM63C'
p316
(lp317
I77181797
aI77259495
aS'+'
asS'BDKRB2'
p318
(lp319
I96204797
aI96244329
aS'+'
asS'ZFYVE26'
p320
(lp321
I67746519
aI67816589
aS'-'
asS'GEMIN2'
p322
(lp323
I39114283
aI39136973
aS'+'
asS'SLC25A47'
p324
(lp325
I100323336
aI100330421
aS'+'
asS'NAA30'
p326
(lp327
I57390552
aI57412748
aS'+'
asS'MIR495'
p328
(lp329
I101033754
aI101033836
aS'+'
asS'ERO1A'
p330
(lp331
I52639914
aI52695931
aS'-'
asS'SSTR1'
p332
(lp333
I38207998
aI38213063
aS'+'
asS'MIR412'
p334
(lp335
I101065446
aI101065537
aS'+'
asS'FITM1'
p336
(lp337
I24131465
aI24132849
aS'+'
asS'MIR342'
p338
(lp339
I100109654
aI100109753
aS'+'
asS'MIR345'
p340
(lp341
I100307858
aI100307956
aS'+'
asS'PRKD1'
p342
(lp343
I29576480
aI29927742
aS'-'
asS'GPATCH2L'
p344
(lp345
I76151884
aI76212803
aS'+'
asS'KTN1-AS1'
p346
(lp347
I55576156
aI55580092
aS'-'
asS'ACTR10'
p348
(lp349
I58200114
aI58235635
aS'+'
asS'CHMP4A'
p350
(lp351
I24209580
aI24213488
aS'-'
asS'TMEM253'
p352
(lp353
I21098936
aI21103724
aS'+'
asS'MIR433'
p354
(lp355
I100881885
aI100881978
aS'+'
asS'TMEM251'
p356
(lp357
I93184973
aI93188460
aS'+'
asS'BEGAIN'
p358
(lp359
I100537146
aI100569794
aS'-'
asS'RAB2B'
p360
(lp361
I21459019
aI21476973
aS'-'
asS'SLC38A6'
p362
(lp363
I60981113
aI61083733
aS'+'
asS'TTC7B'
p364
(lp365
I90540587
aI90816417
aS'-'
asS'ERH'
p366
(lp367
I69380127
aI69398299
aS'-'
asS'OR11G2'
p368
(lp369
I20197335
aI20198373
aS'+'
asS'CPSF2'
p370
(lp371
I92121953
aI92164199
aS'+'
asS'PGF'
p372
(lp373
I74941829
aI74955764
aS'-'
asS'LOC100507437'
p374
(lp375
I105417580
aI105419739
aS'-'
asS'G2E3-AS1'
p376
(lp377
I30437991
aI30577357
aS'-'
asS'LOC101928504'
p378
(lp379
I81221217
aI81223380
aS'+'
asS'LINC02322'
p380
(lp381
I60323195
aI60323907
aS'+'
asS'EIF2S1'
p382
(lp383
I67360316
aI67386516
aS'+'
asS'MIR4539'
p384
(lp385
I105857512
aI105857572
aS'-'
asS'WDR89'
p386
(lp387
I63597038
aI63641923
aS'-'
asS'LINC02292'
p388
(lp389
I95329583
aI95335504
aS'+'
asS'POTEM'
p390
(lp391
I18967433
aI19003752
aS'+'
asS'LOC100288846'
p392
(lp393
I39265702
aI39267061
aS'-'
asS'CDCA4'
p394
(lp395
I105009572
aI105021088
aS'-'
asS'POTEG'
p396
(lp397
I19402763
aI19434341
aS'-'
asS'PSMC1'
p398
(lp399
I90256549
aI90272622
aS'+'
asS'AJUBA'
p400
(lp401
I22971173
aI22982642
aS'-'
asS'PSMC6'
p402
(lp403
I52707199
aI52728590
aS'+'
asS'STON2'
p404
(lp405
I81260649
aI81436465
aS'-'
asS'TTLL5'
p406
(lp407
I75661207
aI75955082
aS'+'
asS'MIR4537'
p408
(lp409
I105859483
aI105859553
aS'-'
asS'HEATR4'
p410
(lp411
I73478483
aI73558947
aS'-'
asS'SNHG10'
p412
(lp413
I95532911
aI95534872
aS'-'
asS'LTBP2'
p414
(lp415
I74498182
aI74612331
aS'-'
asS'MIS18BP1'
p416
(lp417
I45203189
aI45253402
aS'-'
asS'SLC24A4'
p418
(lp419
I92322580
aI92501481
aS'+'
asS'RTN1'
p420
(lp421
I59595975
aI59870839
aS'-'
asS'SNORD113-4'
p422
(lp423
I100936490
aI100936564
aS'+'
asS'PTPN21'
p424
(lp425
I88465777
aI88555007
aS'-'
asS'PSMA3-AS1'
p426
(lp427
I58265364
aI58298137
aS'-'
asS'TRIP11'
p428
(lp429
I91965990
aI92040059
aS'-'
asS'PRMT5'
p430
(lp431
I22920510
aI22929585
aS'-'
asS'SNORD114-31'
p432
(lp433
I100993235
aI100993309
aS'+'
asS'IPO4'
p434
(lp435
I24180218
aI24188918
aS'-'
asS'LOC105370473'
p436
(lp437
I44507408
aI44538510
aS'+'
asS'SLC35F4'
p438
(lp439
I57563921
aI57865951
aS'-'
asS'TCL1A'
p440
(lp441
I95709966
aI95714196
aS'-'
asS'SNW1'
p442
(lp443
I77717600
aI77761154
aS'-'
asS'EXOC5'
p444
(lp445
I57202475
aI57268899
aS'-'
asS'PNP'
p446
(lp447
I20469378
aI20478006
aS'+'
asS'PIP4P1'
p448
(lp449
I20457852
aI20461612
aS'-'
asS'TSSK4'
p450
(lp451
I24205650
aI24208248
aS'+'
asS'RNU6-1'
p452
(lp453
I32202044
aI32202150
aS'+'
asS'FLRT2'
p454
(lp455
I85530024
aI85628696
aS'+'
asS'SETD3'
p456
(lp457
I99397745
aI99480889
aS'-'
asS'PPP1R13B'
p458
(lp459
I103733750
aI103847590
aS'-'
asS'PNN'
p460
(lp461
I39175182
aI39183218
aS'+'
asS'EAPP'
p462
(lp463
I34515928
aI34539737
aS'-'
asS'DNAL1'
p464
(lp465
I73644874
aI73703728
aS'+'
asS'PCK2'
p466
(lp467
I24094130
aI24104132
aS'+'
asS'TGM1'
p468
(lp469
I24249113
aI24263210
aS'-'
asS'LOC145474'
p470
(lp471
I71487860
aI71489703
aS'+'
asS'MIR7843'
p472
(lp473
I72516819
aI72516898
aS'+'
asS'SNORA28'
p474
(lp475
I103337848
aI103337974
aS'+'
asS'PPP2R3C'
p476
(lp477
I35085467
aI35122543
aS'-'
asS'SPTB'
p478
(lp479
I64746282
aI64879907
aS'-'
asS'MIR329-2'
p480
(lp481
I101027099
aI101027183
aS'+'
asS'MIR329-1'
p482
(lp483
I101026784
aI101026864
aS'+'
asS'SAV1'
p484
(lp485
I50633579
aI50668353
aS'-'
asS'MIR493'
p486
(lp487
I100869059
aI100869148
aS'+'
asS'LINC02289'
p488
(lp489
I77069179
aI77076191
aS'-'
asS'LINC01551'
p490
(lp491
I28772703
aI28794794
aS'+'
asS'TMEM179'
p492
(lp493
I104590863
aI104604760
aS'-'
asS'LINC02285'
p494
(lp495
I101120855
aI101123545
aS'+'
asS'SLC25A21-AS1'
p496
(lp497
I37172025
aI37173793
aS'+'
asS'LINC02287'
p498
(lp499
I92905696
aI92907482
aS'-'
asS'MIR4538'
p500
(lp501
I105858164
aI105858242
aS'-'
asS'LINC02294'
p502
(lp503
I26775495
aI26822120
aS'-'
asS'FBLN5'
p504
(lp505
I91869410
aI91947702
aS'-'
asS'LOC101927045'
p506
(lp507
I24442952
aI24502197
aS'+'
asS'ASB2'
p508
(lp509
I93934152
aI93976730
aS'-'
asS'DIO2-AS1'
p510
(lp511
I80211418
aI80455467
aS'+'
asS'SLC25A29'
p512
(lp513
I100291110
aI100306547
aS'-'
asS'MIR409'
p514
(lp515
I101065299
aI101065378
aS'+'
asS'SIX4'
p516
(lp517
I60709537
aI60724134
aS'-'
asS'DHRS7'
p518
(lp519
I60144119
aI60169864
aS'-'
asS'DHRS4'
p520
(lp521
I23953734
aI23969281
aS'+'
asS'SYNJ2BP'
p522
(lp523
I70366495
aI70417090
aS'-'
asS'DHRS2'
p524
(lp525
I23630114
aI23642438
aS'+'
asS'SIX1'
p526
(lp527
I60644698
aI60649437
aS'-'
asS'PLEKHH1'
p528
(lp529
I67533290
aI67589538
aS'+'
asS'DHRS1'
p530
(lp531
I24290597
aI24299780
aS'-'
asS'RNU6-9'
p532
(lp533
I32202044
aI32202150
aS'+'
asS'LMLN2'
p534
(lp535
I23099117
aI23104979
aS'-'
asS'RBM25'
p536
(lp537
I73058533
aI73123899
aS'+'
asS'LOC105370489'
p538
(lp539
I50821796
aI50823508
aS'+'
asS'ACOT1'
p540
(lp541
I73537223
aI73543794
aS'+'
asS'PLD4'
p542
(lp543
I104924815
aI104933236
aS'+'
asS'TEP1'
p544
(lp545
I20365666
aI20413420
aS'-'
asS'TCL6'
p546
(lp547
I95652096
aI95673452
aS'+'
asS'GSC-DT'
p548
(lp549
I94770641
aI94773607
aS'+'
asS'DAAM1'
p550
(lp551
I59188662
aI59371405
aS'+'
asS'SNORD113-5'
p552
(lp553
I100938186
aI100938263
aS'+'
asS'ACIN1'
p554
(lp555
I23058564
aI23095614
aS'-'
asS'BAZ1A'
p556
(lp557
I34752730
aI34875647
aS'-'
asS'SIPA1L1'
p558
(lp559
I71320469
aI71741229
aS'+'
asS'LOC105370687'
p560
(lp561
I103332918
aI103334660
aS'-'
asS'TMEM229B'
p562
(lp563
I67470265
aI67533850
aS'-'
asS'DIO3'
p564
(lp565
I101561350
aI101563452
aS'+'
asS'KHNYN'
p566
(lp567
I24429285
aI24441341
aS'+'
asS'SNORD127'
p568
(lp569
I45110874
aI45110973
aS'+'
asS'SNORD126'
p570
(lp571
I20326440
aI20326539
aS'-'
asS'LINC00637'
p572
(lp573
I103847720
aI103858049
aS'+'
asS'POMT2'
p574
(lp575
I77274955
aI77320882
aS'-'
asS'SNORD113-6'
p576
(lp577
I100939555
aI100939629
aS'+'
asS'TC2N'
p578
(lp579
I91779751
aI91867536
aS'-'
asS'NRXN3'
p580
(lp581
I78170372
aI79868291
aS'+'
asS'MIR380'
p582
(lp583
I101025016
aI101025077
aS'+'
asS'MIR382'
p584
(lp585
I101054305
aI101054381
aS'+'
asS'GNG2'
p586
(lp587
I51860303
aI51969800
aS'+'
asS'DHRS4L1'
p588
(lp589
I24007008
aI24051377
aS'+'
asS'DHRS4L2'
p590
(lp591
I23969873
aI24006408
aS'+'
asS'NOXRED1'
p592
(lp593
I77394020
aI77423056
aS'-'
asS'MIR487B'
p594
(lp595
I101046454
aI101046538
aS'+'
asS'LINC00638'
p596
(lp597
I104821200
aI104823718
aS'+'
asS'CLEC14A'
p598
(lp599
I38253999
aI38256370
aS'-'
asS'MIR2392'
p600
(lp601
I100814490
aI100814574
aS'+'
asS'SDR39U1'
p602
(lp603
I24439765
aI24442905
aS'-'
asS'LOC101928075'
p604
(lp605
I70608797
aI70641298
aS'-'
asS'NFATC4'
p606
(lp607
I24366910
aI24379606
aS'+'
asS'SNX6'
p608
(lp609
I34561092
aI34630148
aS'-'
asS'NGB'
p610
(lp611
I77265490
aI77271312
aS'-'
asS'LBHD2'
p612
(lp613
I103084209
aI103090025
aS'+'
asS'NUBPL'
p614
(lp615
I31561384
aI31861223
aS'+'
asS'MED6'
p616
(lp617
I70583220
aI70600690
aS'-'
asS'MDGA2'
p618
(lp619
I46839624
aI47674954
aS'-'
asS'MIR4507'
p620
(lp621
I105858123
aI105858175
aS'-'
asS'JKAMP'
p622
(lp623
I59484442
aI59505406
aS'+'
asS'LINC00605'
p624
(lp625
I103187220
aI103189028
aS'-'
asS'LINC00239'
p626
(lp627
I101730436
aI101732525
aS'+'
asS'CTSG'
p628
(lp629
I24573517
aI24576260
aS'-'
asS'TEX22'
p630
(lp631
I105398582
aI105413859
aS'+'
asS'LOC105370619'
p632
(lp633
I90515805
aI90517209
aS'-'
asS'LINC00609'
p634
(lp635
I36070426
aI36165288
aS'+'
asS'NEK9'
p636
(lp637
I75081378
aI75127080
aS'-'
asS'NID2'
p638
(lp639
I52004801
aI52069228
aS'-'
asS'CDC42BPB'
p640
(lp641
I102932378
aI103057405
aS'-'
asS'MIR337'
p642
(lp643
I100874492
aI100874585
aS'+'
asS'IGBP1P1'
p644
(lp645
I34939921
aI34940496
aS'+'
asS'PLEK2'
p646
(lp647
I67386983
aI67412165
aS'-'
asS'ITPK1'
p648
(lp649
I92936913
aI93115919
aS'-'
asS'TEX21P'
p650
(lp651
I64345472
aI64347611
aS'-'
asS'OR11H12'
p652
(lp653
I18601116
aI18602097
aS'+'
asS'SNORD114-9'
p654
(lp655
I100966028
aI100966099
aS'+'
asS'MIR4505'
p656
(lp657
I73758746
aI73758819
aS'+'
asS'ADSSL1'
p658
(lp659
I104724196
aI104747325
aS'+'
asS'LOC100506358'
p660
(lp661
I69811759
aI69815967
aS'+'
asS'EGLN3'
p662
(lp663
I33924214
aI33951078
aS'-'
asS'LINC00519'
p664
(lp665
I51304310
aI51328385
aS'-'
asS'PCNX1'
p666
(lp667
I70907404
aI71115382
aS'+'
asS'PCNX4'
p668
(lp669
I60091922
aI60148221
aS'+'
asS'RNU6-7'
p670
(lp671
I32202044
aI32202151
aS'+'
asS'IRF9'
p672
(lp673
I24161212
aI24166566
aS'+'
asS'LINC00517'
p674
(lp675
I37896059
aI37902124
aS'-'
asS'SNORD114-4'
p676
(lp677
I100954343
aI100954447
aS'+'
asS'TRIM9'
p678
(lp679
I50975262
aI51095704
aS'-'
asS'LOC101928143'
p680
(lp681
I73460934
aI73463642
aS'-'
asS'GSTZ1'
p682
(lp683
I77320886
aI77331597
aS'+'
asS'LOC101927620'
p684
(lp685
I53153353
aI53157528
aS'+'
asS'CIPC'
p686
(lp687
I77098234
aI77117287
aS'+'
asS'SNORA79B'
p688
(lp689
I20323178
aI20323326
aS'-'
asS'COX16'
p690
(lp691
I70325080
aI70359731
aS'-'
asS'ALKBH1'
p692
(lp693
I77672405
aI77708013
aS'-'
asS'SERPINA12'
p694
(lp695
I94487282
aI94517844
aS'-'
asS'NOP9'
p696
(lp697
I24299853
aI24309126
aS'+'
asS'SERPINA10'
p698
(lp699
I94283312
aI94293271
aS'-'
asS'SERPINA11'
p700
(lp701
I94442463
aI94452785
aS'-'
asS'OR10G3'
p702
(lp703
I21569802
aI21570744
aS'-'
asS'OR10G2'
p704
(lp705
I21633835
aI21634940
aS'-'
asS'PSMB11'
p706
(lp707
I23042166
aI23044060
aS'+'
asS'EIF2B2'
p708
(lp709
I75002908
aI75009591
aS'+'
asS'LOC101927418'
p710
(lp711
I44898907
aI44911917
aS'-'
asS'ZFHX2'
p712
(lp713
I23520854
aI23551649
aS'-'
asS'RCOR1'
p714
(lp715
I102592648
aI102730559
aS'+'
asS'IFI27L1'
p716
(lp717
I94081292
aI94102714
aS'+'
asS'IFI27L2'
p718
(lp719
I94127780
aI94129620
aS'-'
asS'STXBP6'
p720
(lp721
I24809654
aI25050297
aS'-'
asS'SAMD4A'
p722
(lp723
I54567611
aI54793315
aS'+'
asS'WDHD1'
p724
(lp725
I54938937
aI55027101
aS'-'
asS'INF2'
p726
(lp727
I104689605
aI104719610
aS'+'
asS'MYH6'
p728
(lp729
I23381989
aI23408277
aS'-'
asS'MYH7'
p730
(lp731
I23412739
aI23435660
aS'-'
asS'MIR758'
p732
(lp733
I101026019
aI101026107
aS'+'
asS'PSEN1'
p734
(lp735
I73136434
aI73223691
aS'+'
asS'CDKL1'
p736
(lp737
I50326265
aI50397298
aS'-'
asS'MIR381HG'
p738
(lp739
I101045156
aI101051795
aS'+'
asS'SNORD114-30'
p740
(lp741
I100991918
aI100991989
aS'+'
asS'WDR25'
p742
(lp743
I100376415
aI100530303
aS'+'
asS'PRIMA1'
p744
(lp745
I93718297
aI93788420
aS'-'
asS'CATSPERB'
p746
(lp747
I91580773
aI91732086
aS'-'
asS'WDR20'
p748
(lp749
I102139365
aI102223673
aS'+'
asS'LOC102724814'
p750
(lp751
I23561096
aI23568075
aS'+'
asS'FANCM'
p752
(lp753
I45135929
aI45200890
aS'+'
asS'RAB15'
p754
(lp755
I64945813
aI64972203
aS'-'
asS'FUT8-AS1'
p756
(lp757
I65410592
aI65412617
aS'-'
asS'CCDC196'
p758
(lp759
I66486370
aI66498553
aS'+'
asS'CCDC197'
p760
(lp761
I93997295
aI94011695
aS'+'
asS'SERPINA13P'
p762
(lp763
I94640724
aI94646994
aS'+'
asS'G2E3'
p764
(lp765
I30559122
aI30620061
aS'+'
asS'RPS6KL1'
p766
(lp767
I74903953
aI74922442
aS'-'
asS'TCL1B'
p768
(lp769
I95686416
aI95692643
aS'+'
asS'LINC02288'
p770
(lp771
I77041048
aI77069503
aS'+'
asS'MIR4307HG'
p772
(lp773
I26873132
aI26914743
aS'+'
asS'MIR4708'
p774
(lp775
I65335117
aI65335183
aS'-'
asS'MIR4709'
p776
(lp777
I74480132
aI74480204
aS'-'
asS'NUDT14'
p778
(lp779
I105172936
aI105181323
aS'-'
asS'FRMD6-AS1'
p780
(lp781
I51649515
aI51651744
aS'-'
asS'MIR4706'
p782
(lp783
I65044687
aI65044769
aS'+'
asS'FRMD6-AS2'
p784
(lp785
I51454511
aI51599952
aS'-'
asS'SNORD169'
p786
(lp787
I69978132
aI69978196
aS'+'
asS'DICER1-AS1'
p788
(lp789
I95157687
aI95179933
aS'+'
asS'TMEM30B'
p790
(lp791
I61277370
aI61281812
aS'-'
asS'LINC02312'
p792
(lp793
I97749263
aI97762831
aS'-'
asS'SEC23A-AS1'
p794
(lp795
I39103139
aI39103812
aS'+'
asS'LINC02313'
p796
(lp797
I31944852
aI31950294
aS'+'
asS'SLC22A17'
p798
(lp799
I23346310
aI23352912
aS'-'
asS'LINC02311'
p800
(lp801
I81734612
aI81743138
aS'-'
asS'LINC02310'
p802
(lp803
I51392128
aI51397135
aS'-'
asS'LINC02317'
p804
(lp805
I90452062
aI90455117
aS'-'
asS'SRP54-AS1'
p806
(lp807
I34916479
aI34982566
aS'-'
asS'LINC02315'
p808
(lp809
I40954710
aI41141048
aS'+'
asS'LINC02314'
p810
(lp811
I101442075
aI101444314
aS'+'
asS'ATP5MPL'
p812
(lp813
I103912287
aI103921566
aS'-'
asS'TRAPPC6B'
p814
(lp815
I39147810
aI39170430
aS'-'
asS'GON7'
p816
(lp817
I93202891
aI93207114
aS'-'
asS'ECRP'
p818
(lp819
I20919340
aI20920176
aS'+'
asS'RPL10L'
p820
(lp821
I46651015
aI46651825
aS'-'
asS'LOC102723809'
p822
(lp823
I64514150
aI64540368
aS'-'
asS'MIR369'
p824
(lp825
I101065597
aI101065667
aS'+'
asS'LOC102724153'
p826
(lp827
I75574903
aI75579588
aS'-'
asS'TGFB3'
p828
(lp829
I75958060
aI75983011
aS'-'
asS'CLBA1'
p830
(lp831
I104986278
aI104995518
aS'+'
asS'OTX2-AS1'
p832
(lp833
I56813157
aI56931308
aS'+'
asS'LINC00643'
p834
(lp835
I62117356
aI62134185
aS'+'
asS'PTGDR'
p836
(lp837
I52267712
aI52276724
aS'+'
asS'LINC00641'
p838
(lp839
I21200078
aI21206900
aS'-'
asS'LINC00640'
p840
(lp841
I51333392
aI51365557
aS'+'
asS'CCNB1IP1'
p842
(lp843
I20311367
aI20333312
aS'-'
asS'LINC00645'
p844
(lp845
I27612587
aI27639636
aS'+'
asS'TSHR'
p846
(lp847
I80955524
aI81146302
aS'+'
asS'SYNJ2BP-COX16'
p848
(lp849
I70325080
aI70417090
aS'-'
asS'SMOC1'
p850
(lp851
I69879396
aI70032366
aS'+'
asS'LINC00648'
p852
(lp853
I47764952
aI47795014
aS'-'
asS'XRCC3'
p854
(lp855
I103697616
aI103715486
aS'-'
asS'RNF31'
p856
(lp857
I24146874
aI24160661
aS'+'
asS'CNIH1'
p858
(lp859
I54426928
aI54441430
aS'-'
asS'OR6S1'
p860
(lp861
I20640695
aI20641691
aS'-'
asS'MIR377'
p862
(lp863
I101062049
aI101062118
aS'+'
asS'MIR370'
p864
(lp865
I100911138
aI100911213
aS'+'
asS'SLIRP'
p866
(lp867
I77708070
aI77717601
aS'+'
asS'CEBPE'
p868
(lp869
I23117305
aI23119611
aS'-'
asS'DDHD1'
p870
(lp871
I53036739
aI53153328
aS'-'
asS'OR4Q2'
p872
(lp873
I20002061
aI20003192
aS'+'
asS'MIR379'
p874
(lp875
I101022065
aI101022132
aS'+'
asS'ADCK1'
p876
(lp877
I77800108
aI77935014
aS'+'
asS'RABGGTA'
p878
(lp879
I24265537
aI24271627
aS'-'
asS'LINC02274'
p880
(lp881
I73822558
aI73830135
aS'-'
asS'MTHFD1'
p882
(lp883
I64388352
aI64460025
aS'+'
asS'PRKCH'
p884
(lp885
I61321442
aI61550980
aS'+'
asS'ZBTB1'
p886
(lp887
I64504573
aI64533690
aS'+'
asS'MIR432'
p888
(lp889
I100884482
aI100884576
aS'+'
asS'SUPT16H'
p890
(lp891
I21351471
aI21384266
aS'-'
asS'FCF1'
p892
(lp893
I74713146
aI74736687
aS'+'
asS'TECPR2'
p894
(lp895
I102362911
aI102502481
aS'+'
asS'C14orf39'
p896
(lp897
I60435955
aI60486046
aS'-'
asS'PSME2'
p898
(lp899
I24143364
aI24146646
aS'-'
asS'WARS'
p900
(lp901
I100333787
aI100376343
aS'-'
asS'PSME1'
p902
(lp903
I24136157
aI24138967
aS'+'
asS'HIF1A-AS1'
p904
(lp905
I61681040
aI61695823
aS'-'
asS'MGAT2'
p906
(lp907
I49620770
aI49623481
aS'+'
asS'CCDC198'
p908
(lp909
I57469299
aI57493863
aS'-'
asS'KTN1'
p910
(lp911
I55580206
aI55684584
aS'+'
asS'DYNC1H1'
p912
(lp913
I101964527
aI102050798
aS'+'
asS'ABCD4'
p914
(lp915
I74285276
aI74303064
aS'-'
asS'CIDEB'
p916
(lp917
I24305192
aI24311377
aS'-'
asS'PAPOLA'
p918
(lp919
I96502375
aI96567116
aS'+'
asS'MDP1'
p920
(lp921
I24213936
aI24216070
aS'-'
asS'BMS1P22'
p922
(lp923
I19301703
aI19316914
aS'+'
asS'LOC100289511'
p924
(lp925
I69766282
aI69767713
aS'-'
asS'NRL'
p926
(lp927
I24078685
aI24115014
aS'-'
asS'OR5AU1'
p928
(lp929
I21154866
aI21156063
aS'-'
asS'LOC105370622'
p930
(lp931
I90697332
aI90699374
aS'+'
asS'MIR203A'
p932
(lp933
I104117404
aI104117514
aS'+'
asS'GPR135'
p934
(lp935
I59463521
aI59465341
aS'-'
asS'OR6J1'
p936
(lp937
I22633565
aI22634844
aS'-'
asS'DCAF5'
p938
(lp939
I69050919
aI69153197
aS'-'
asS'VTI1B'
p940
(lp941
I67651149
aI67674885
aS'-'
asS'FUT8'
p942
(lp943
I65410591
aI65744121
aS'+'
asS'ARHGEF40'
p944
(lp945
I21070259
aI21090247
aS'+'
asS'BAG5'
p946
(lp947
I103556543
aI103562814
aS'-'
asS'FLVCR2'
p948
(lp949
I75578596
aI75648169
aS'+'
asS'LINC01629'
p950
(lp951
I76959637
aI76965802
aS'+'
asS'PPP4R4'
p952
(lp953
I94174311
aI94279735
aS'+'
asS'IFI27'
p954
(lp955
I94110735
aI94116690
aS'+'
asS'MIR5586'
p956
(lp957
I59646961
aI59647020
aS'-'
asS'MHRT'
p958
(lp959
I23415449
aI23417595
aS'+'
asS'NDUFB1'
p960
(lp961
I92116123
aI92121706
aS'-'
asS'SNORD114-22'
p962
(lp963
I100982925
aI100982996
aS'+'
asS'SNORD114-23'
p964
(lp965
I100983875
aI100983946
aS'+'
asS'GSC'
p966
(lp967
I94768222
aI94770162
aS'-'
asS'BCL2L2'
p968
(lp969
I23306761
aI23311759
aS'+'
asS'IL25'
p970
(lp971
I23372808
aI23376403
aS'+'
asS'SNORD114-27'
p972
(lp973
I100988160
aI100988229
aS'+'
asS'SNORD114-24'
p974
(lp975
I100984776
aI100984847
aS'+'
asS'DUXAP9'
p976
(lp977
I19062376
aI19107497
aS'+'
asS'SFTA3'
p978
(lp979
I36473288
aI36519521
aS'-'
asS'LOC105370401'
p980
(lp981
I22379404
aI22482959
aS'-'
asS'GPR33'
p982
(lp983
I31482943
aI31487945
aS'-'
asS'SNORD114-29'
p984
(lp985
I100990090
aI100990159
aS'+'
asS'MNAT1'
p986
(lp987
I60734740
aI60968680
aS'+'
asS'MIR655'
p988
(lp989
I101049549
aI101049646
aS'+'
asS'TMED10'
p990
(lp991
I75131468
aI75176612
aS'-'
asS'PRPF39'
p992
(lp993
I45084098
aI45115601
aS'+'
asS'MIR4707'
p994
(lp995
I22956949
aI22957029
aS'-'
asS'CALM1'
p996
(lp997
I90396501
aI90408275
aS'+'
asS'HIF1A-AS2'
p998
(lp999
I61747038
aI61749089
aS'-'
asS'EML1'
p1000
(lp1001
I99793407
aI99942058
aS'+'
asS'MPP5'
p1002
(lp1003
I67241294
aI67336061
aS'+'
asS'EML5'
p1004
(lp1005
I88612430
aI88792953
aS'-'
asS'MOAP1'
p1006
(lp1007
I93182200
aI93184897
aS'-'
asS'PROX2'
p1008
(lp1009
I74853032
aI74863834
aS'-'
asS'DLGAP5'
p1010
(lp1011
I55148115
aI55191678
aS'-'
asS'LINC02330'
p1012
(lp1013
I87634378
aI87655294
aS'-'
asS'LOC101927178'
p1014
(lp1015
I35081080
aI35113130
aS'+'
asS'VRK1'
p1016
(lp1017
I96797346
aI96881614
aS'+'
asS'LRRC9'
p1018
(lp1019
I59919712
aI60063559
aS'+'
asS'SNORA101B'
p1020
(lp1021
I35762799
aI35762931
aS'-'
asS'OR4N2'
p1022
(lp1023
I19803769
aI19828372
aS'+'
asS'TRMT61A'
p1024
(lp1025
I103529171
aI103537073
aS'+'
asS'VSX2'
p1026
(lp1027
I74239471
aI74262738
aS'+'
asS'CDH24'
p1028
(lp1029
I23047060
aI23057538
aS'-'
asS'IRF2BPL'
p1030
(lp1031
I77024542
aI77028699
aS'-'
asS'CGRRF1'
p1032
(lp1033
I54509868
aI54538616
aS'+'
asS'PPP1R36'
p1034
(lp1035
I64549960
aI64589381
aS'+'
asS'SLC25A21'
p1036
(lp1037
I36677920
aI37172660
aS'-'
asS'LINC02298'
p1038
(lp1039
I105094146
aI105099496
aS'+'
asS'LINC02299'
p1040
(lp1041
I96741190
aI96790613
aS'+'
asS'ACOT6'
p1042
(lp1043
I73610944
aI73619888
aS'+'
asS'LINC02297'
p1044
(lp1045
I18630537
aI18633634
aS'-'
asS'MIPOL1'
p1046
(lp1047
I37197912
aI37551259
aS'+'
asS'FLJ22447'
p1048
(lp1049
I61570539
aI61654713
aS'+'
asS'ACOT2'
p1050
(lp1051
I73567619
aI73575658
aS'+'
asS'LINC02293'
p1052
(lp1053
I26809347
aI26820703
aS'+'
asS'LINC02291'
p1054
(lp1055
I97632646
aI97686658
aS'-'
asS'ADCY4'
p1056
(lp1057
I24318348
aI24335071
aS'-'
asS'FAM181A'
p1058
(lp1059
I93918893
aI93929608
aS'+'
asS'NIN'
p1060
(lp1061
I50719762
aI50831121
aS'-'
asS'AKT1'
p1062
(lp1063
I104769349
aI104795743
aS'-'
asS'MIR154'
p1064
(lp1065
I101059754
aI101059838
aS'+'
asS'MIR624'
p1066
(lp1067
I31014645
aI31014742
aS'-'
asS'MIR625'
p1068
(lp1069
I65471101
aI65471186
aS'+'
asS'FAM71D'
p1070
(lp1071
I67189392
aI67228550
aS'+'
asS'FOXA1'
p1072
(lp1073
I37589551
aI37595113
aS'-'
asS'MIR8071-2'
p1074
(lp1075
I105640167
aI105640232
aS'+'
asS'MIR5195'
p1076
(lp1077
I106850884
aI106850999
aS'-'
asS'LOC728755'
p1078
(lp1079
I27321825
aI27673221
aS'-'
asS'CHURC1-FNTB'
p1080
(lp1081
I64914360
aI65062655
aS'+'
asS'LINC01550'
p1082
(lp1083
I97925609
aI97978124
aS'-'
asS'ZBTB25'
p1084
(lp1085
I64449105
aI64505213
aS'-'
asS'HHIPL1'
p1086
(lp1087
I99604496
aI99670338
aS'+'
asS'IFT43'
p1088
(lp1089
I75985752
aI76084073
aS'+'
asS'LOC101928123'
p1090
(lp1091
I73244017
aI73246001
aS'-'
asS'MIR6765'
p1092
(lp1093
I105150777
aI105150864
aS'-'
asS'LOC105370697'
p1094
(lp1095
I105531854
aI105534317
aS'+'
asS'MIR496'
p1096
(lp1097
I101060572
aI101060674
aS'+'
asS'KIF26A'
p1098
(lp1099
I104138722
aI104180898
aS'+'
asS'HIF1A'
p1100
(lp1101
I61695400
aI61748259
aS'+'
asS'DTD2'
p1102
(lp1103
I31446035
aI31457474
aS'-'
asS'GSKIP'
p1104
(lp1105
I96363451
aI96387290
aS'+'
asS'ARHGAP5'
p1106
(lp1107
I32077288
aI32159728
aS'+'
asS'NDRG2'
p1108
(lp1109
I21016762
aI21070872
aS'-'
asS'SNORA89'
p1110
(lp1111
I33708936
aI33709113
aS'+'
asS'SNORD112'
p1112
(lp1113
I100897919
aI100897996
aS'+'
asS'TEDC1'
p1114
(lp1115
I105489854
aI105499248
aS'+'
asS'SRSF5'
p1116
(lp1117
I69767086
aI69772005
aS'+'
asS'SALRNA1'
p1118
(lp1119
I60639215
aI60640416
aS'+'
asS'MIR431'
p1120
(lp1121
I100881006
aI100881120
aS'+'
asS'PPM1A'
p1122
(lp1123
I60245751
aI60299087
aS'+'
asS'LINC02588'
p1124
(lp1125
I26598646
aI26806467
aS'+'
asS'FOS'
p1126
(lp1127
I75278827
aI75282230
aS'+'
asS'LINC02280'
p1128
(lp1129
I104661119
aI104665558
aS'-'
asS'MIR539'
p1130
(lp1131
I101047320
aI101047398
aS'+'
asS'SYT16'
p1132
(lp1133
I61995822
aI62101709
aS'+'
asS'C14orf177'
p1134
(lp1135
I98711612
aI98717766
aS'+'
asS'C14orf178'
p1136
(lp1137
I77760829
aI77769742
aS'+'
asS'MIR6764'
p1138
(lp1139
I100277356
aI100277417
aS'+'
asS'LINC02282'
p1140
(lp1141
I28783490
aI28785787
aS'-'
asS'DUXAP10'
p1142
(lp1143
I19294789
aI19337674
aS'-'
asS'PTCSC3'
p1144
(lp1145
I36135709
aI36176651
aS'-'
asS'DGLUCY'
p1146
(lp1147
I91060282
aI91225396
aS'+'
asS'MIR381'
p1148
(lp1149
I101045919
aI101045994
aS'+'
asS'ADAM20P1'
p1150
(lp1151
I70468878
aI70483756
aS'-'
asS'L3HYPDH'
p1152
(lp1153
I59472605
aI59484408
aS'-'
asS'HOMEZ'
p1154
(lp1155
I23273634
aI23286100
aS'-'
asS'EFS'
p1156
(lp1157
I23356399
aI23365633
aS'-'
asS'PARP2'
p1158
(lp1159
I20343613
aI20357904
aS'+'
asS'KCNK13'
p1160
(lp1161
I90061764
aI90185857
aS'+'
asS'LINC00618'
p1162
(lp1163
I96943578
aI96945394
aS'+'
asS'ATG14'
p1164
(lp1165
I55366390
aI55411858
aS'-'
asS'FRMD6'
p1166
(lp1167
I51489120
aI51730726
aS'+'
asS'LOC100996664'
p1168
(lp1169
I68625526
aI68628787
aS'-'
asS'PAX9'
p1170
(lp1171
I36657567
aI36677806
aS'+'
asS'MIR299'
p1172
(lp1173
I101023793
aI101023856
aS'+'
asS'GPHN'
p1174
(lp1175
I66507406
aI67181808
aS'+'
asS'ANG'
p1176
(lp1177
I20684176
aI20694186
aS'+'
asS'ESR2'
p1178
(lp1179
I64226711
aI64338550
aS'-'
asS'LGMN'
p1180
(lp1181
I92703806
aI92748702
aS'-'
asS'LOC101926933'
p1182
(lp1183
I22929608
aI22954692
aS'+'
asS'NYNRIN'
p1184
(lp1185
I24399002
aI24419283
aS'+'
asS'YLPM1'
p1186
(lp1187
I74763365
aI74837310
aS'+'
asS'MOK'
p1188
(lp1189
I102224449
aI102305200
aS'-'
asS'APOPT1'
p1190
(lp1191
I103562956
aI103592173
aS'+'
asS'POLE2'
p1192
(lp1193
I49643551
aI49688380
aS'-'
asS'LINC01588'
p1194
(lp1195
I49981668
aI50007520
aS'-'
asS'EDDM3A'
p1196
(lp1197
I20745939
aI20748380
aS'+'
asS'PPP2R5E'
p1198
(lp1199
I63371355
aI63543395
aS'-'
asS'EDDM3B'
p1200
(lp1201
I20768426
aI20770948
aS'+'
asS'SIX6'
p1202
(lp1203
I60509219
aI60511807
aS'+'
asS'PPP2R5C'
p1204
(lp1205
I101760614
aI101927991
aS'+'
asS'DPF3'
p1206
(lp1207
I72619295
aI72894116
aS'-'
asS'YY1'
p1208
(lp1209
I100238764
aI100279034
aS'+'
asS'ARHGAP5-AS1'
p1210
(lp1211
I32075418
aI32076699
aS'-'
asS'OXA1L'
p1212
(lp1213
I22766687
aI22772645
aS'+'
asS'RPL36AL'
p1214
(lp1215
I49618688
aI49620685
aS'-'
asS'DNAAF2'
p1216
(lp1217
I49625173
aI49635230
aS'-'
asS'DACT1'
p1218
(lp1219
I58634067
aI58648320
aS'+'
asS'LOC105370526'
p1220
(lp1221
I61715557
aI61751097
aS'-'
asS'SLC10A1'
p1222
(lp1223
I69775834
aI69797289
aS'-'
asS'VASH1-AS1'
p1224
(lp1225
I76781732
aI76786724
aS'-'
asS'SEC23A'
p1226
(lp1227
I39031918
aI39103528
aS'-'
asS'GMFB'
p1228
(lp1229
I54474490
aI54489026
aS'-'
asS'CBLN3'
p1230
(lp1231
I24426533
aI24429525
aS'-'
asS'PSMA3'
p1232
(lp1233
I58244804
aI58272009
aS'+'
asS'PSMA6'
p1234
(lp1235
I35278557
aI35317479
aS'+'
asS'MARK3'
p1236
(lp1237
I103385363
aI103503829
aS'+'
asS'SLC8A3'
p1238
(lp1239
I70044216
aI70189070
aS'-'
asS'RPPH1'
p1240
(lp1241
I20343070
aI20343411
aS'-'
asS'COCH'
p1242
(lp1243
I30874534
aI30890616
aS'+'
asS'SNORD3P3'
p1244
(lp1245
I85271931
aI85272061
aS'+'
asS'NEMF'
p1246
(lp1247
I49783520
aI49853203
aS'-'
asS'RN7SL1'
p1248
(lp1249
I49586579
aI49586878
aS'+'
asS'RN7SL2'
p1250
(lp1251
I49862550
aI49862849
aS'-'
asS'RN7SL3'
p1252
(lp1253
I49853615
aI49853914
aS'-'
asS'MIR5694'
p1254
(lp1255
I67441854
aI67441930
aS'-'
asS'RPS29'
p1256
(lp1257
I49570983
aI49586416
aS'-'
asS'NGDN'
p1258
(lp1259
I23469688
aI23478193
aS'+'
asS'SNORD114-19'
p1260
(lp1261
I100976476
aI100976550
aS'+'
asS'GPR65'
p1262
(lp1263
I88005134
aI88014811
aS'+'
asS'ADAM21'
p1264
(lp1265
I70452156
aI70459905
aS'+'
asS'ADAM20'
p1266
(lp1267
I70522357
aI70535004
aS'-'
asS'SALL2'
p1268
(lp1269
I21521080
aI21537216
aS'-'
asS'EFCAB11'
p1270
(lp1271
I89794990
aI89954777
aS'-'
asS'SNORD114-12'
p1272
(lp1273
I100968947
aI100969021
aS'+'
asS'MIR668'
p1274
(lp1275
I101055257
aI101055323
aS'+'
asS'SNORD114-10'
p1276
(lp1277
I100967051
aI100967122
aS'+'
asS'SNORD114-17'
p1278
(lp1279
I100974805
aI100974879
aS'+'
asS'RAD51B'
p1280
(lp1281
I67819778
aI68683106
aS'+'
asS'GPR68'
p1282
(lp1283
I91232531
aI91253880
aS'-'
asS'LRR1'
p1284
(lp1285
I49598696
aI49614672
aS'+'
asS'GALNT16'
p1286
(lp1287
I69259963
aI69354473
aS'+'
asS'VASH1'
p1288
(lp1289
I76761891
aI76783020
aS'+'
asS'LINC01467'
p1290
(lp1291
I81605346
aI81623061
aS'-'
asS'C14orf93'
p1292
(lp1293
I22986900
aI23010201
aS'-'
asS'MIR5580'
p1294
(lp1295
I53948426
aI53948484
aS'-'
asS'RIPK3'
p1296
(lp1297
I24336024
aI24339991
aS'-'
asS'ATL1'
p1298
(lp1299
I50533081
aI50633066
aS'+'
asS'DLST'
p1300
(lp1301
I74881890
aI74903747
aS'+'
asS'OR4K15'
p1302
(lp1303
I19975518
aI19976565
aS'+'
asS'OR4K14'
p1304
(lp1305
I20014260
aI20015193
aS'-'
asS'OR4K17'
p1306
(lp1307
I20117406
aI20118438
aS'+'
asS'OR4K13'
p1308
(lp1309
I20033843
aI20034758
aS'-'
asS'DDX24'
p1310
(lp1311
I94050921
aI94081212
aS'-'
asS'LOC101927124'
p1312
(lp1313
I31420757
aI31452883
aS'+'
asS'CCDC85C'
p1314
(lp1315
I99511265
aI99604390
aS'-'
asS'GTF2A1'
p1316
(lp1317
I81175452
aI81221231
aS'-'
asS'MAP4K5'
p1318
(lp1319
I50418492
aI50532658
aS'-'
asS'MIR1185-1'
p1320
(lp1321
I101042976
aI101043061
aS'+'
asS'INSM2'
p1322
(lp1323
I35534163
aI35537054
aS'+'
asS'ITPK1-AS1'
p1324
(lp1325
I93067451
aI93072133
aS'+'
asS'LINC00644'
p1326
(lp1327
I62134149
aI62139973
aS'-'
asS'RNASE3'
p1328
(lp1329
I20891402
aI20892348
aS'+'
asS'DAD1'
p1330
(lp1331
I22564906
aI22589237
aS'-'
asS'ANGEL1'
p1332
(lp1333
I76787242
aI76812940
aS'-'
asS'DIO2'
p1334
(lp1335
I80197525
aI80231057
aS'-'
asS'MIR208A'
p1336
(lp1337
I23388595
aI23388666
aS'-'
asS'MIR208B'
p1338
(lp1339
I23417986
aI23418063
aS'-'
asS'LINC02308'
p1340
(lp1341
I81441986
aI81450157
aS'-'
asS'RNASE7'
p1342
(lp1343
I21042225
aI21044233
aS'+'
asS'LOC100508046'
p1344
(lp1345
I18976749
aI18980793
aS'-'
asS'LINC02304'
p1346
(lp1347
I97154856
aI97158736
aS'+'
asS'NPAS3'
p1348
(lp1349
I32939252
aI33804176
aS'+'
asS'LINC02301'
p1350
(lp1351
I82642631
aI82706825
aS'+'
asS'C14orf132'
p1352
(lp1353
I96039323
aI96093971
aS'+'
asS'LINC02303'
p1354
(lp1355
I45706257
aI45715602
aS'-'
asS'APEX1'
p1356
(lp1357
I20455130
aI20457772
aS'+'
asS'RGS6'
p1358
(lp1359
I71932099
aI72566530
aS'+'
asS'OTUB2'
p1360
(lp1361
I94026377
aI94048930
aS'+'
asS'ABHD12B'
p1362
(lp1363
I50872159
aI50904970
aS'+'
asS'ELK2AP'
p1364
(lp1365
I105669576
aI105672807
aS'-'
asS'LOC105370708'
p1366
(lp1367
I104134782
aI104138629
aS'-'
asS'ESRRB'
p1368
(lp1369
I76371346
aI76501837
aS'+'
asS'PIGH'
p1370
(lp1371
I67589305
aI67600301
aS'-'
asS'ADAM21P1'
p1372
(lp1373
I70245752
aI70247801
aS'-'
asS'MIR548Y'
p1374
(lp1375
I47760994
aI47761104
aS'-'
asS'SERPINA3'
p1376
(lp1377
I94612376
aI94624053
aS'+'
asS'NUMB'
p1378
(lp1379
I73275209
aI73458580
aS'-'
asS'ZDHHC22'
p1380
(lp1381
I77131269
aI77141791
aS'-'
asS'THTPA'
p1382
(lp1383
I23511759
aI23559581
aS'+'
asS'LOC254028'
p1384
(lp1385
I20588223
aI20607221
aS'+'
asS'SERPINA5'
p1386
(lp1387
I94581368
aI94593120
aS'+'
asS'ACTN1-AS1'
p1388
(lp1389
I68979681
aI68987463
aS'+'
asS'SERPINA6'
p1390
(lp1391
I94304247
aI94323351
aS'-'
asS'OR4N5'
p1392
(lp1393
I20143735
aI20144662
aS'+'
asS'SNORA11B'
p1394
(lp1395
I91126425
aI91126552
aS'+'
asS'SNORD113-3'
p1396
(lp1397
I100929918
aI100929989
aS'+'
asS'CCDC175'
p1398
(lp1399
I59505066
aI59576831
aS'-'
asS'RNF212B'
p1400
(lp1401
I23237917
aI23273478
aS'+'
asS'CCDC177'
p1402
(lp1403
I69569813
aI69574883
aS'-'
asS'OR4Q3'
p1404
(lp1405
I19747427
aI19748369
aS'+'
asS'REC8'
p1406
(lp1407
I24172024
aI24180257
aS'+'
asS'LOC101927690'
p1408
(lp1409
I56514330
aI56551309
aS'+'
asS'NRDE2'
p1410
(lp1411
I90267859
aI90331941
aS'-'
asS'RDH11'
p1412
(lp1413
I67676800
aI67695793
aS'-'
asS'RDH12'
p1414
(lp1415
I67701885
aI67734451
aS'+'
asS'MIR376B'
p1416
(lp1417
I101040435
aI101040535
aS'+'
asS'CKB'
p1418
(lp1419
I103519657
aI103522859
aS'-'
asS'COQ6'
p1420
(lp1421
I73949933
aI73963110
aS'+'
asS'LINC02302'
p1422
(lp1423
I44763156
aI44799126
aS'-'
asS'MIR203B'
p1424
(lp1425
I104117417
aI104117503
aS'-'
asS'HECTD1'
p1426
(lp1427
I31100116
aI31207793
aS'-'
asS'MIR889'
p1428
(lp1429
I101047900
aI101047979
aS'+'
asS'GLRX5'
p1430
(lp1431
I95535049
aI95544714
aS'+'
asS'CLMN'
p1432
(lp1433
I95181938
aI95319908
aS'-'
asS'C14orf28'
p1434
(lp1435
I44897303
aI44907257
aS'+'
asS'ANKRD9'
p1436
(lp1437
I102503648
aI102509806
aS'-'
asS'MIR1193'
p1438
(lp1439
I101030051
aI101030129
aS'+'
asS'NKX2-8'
p1440
(lp1441
I36580010
aI36582614
aS'-'
asS'MIR1197'
p1442
(lp1443
I101025563
aI101025651
aS'+'
asS'LRFN5'
p1444
(lp1445
I41606855
aI41904551
aS'+'
asS'ZFYVE1'
p1446
(lp1447
I72969444
aI73027212
aS'-'
asS'NKX2-1'
p1448
(lp1449
I36516398
aI36520225
aS'-'
asS'LINC00642'
p1450
(lp1451
I90455229
aI90458905
aS'+'
asS'CEP128'
p1452
(lp1453
I80496477
aI80941738
aS'-'
asS'BMS1P18'
p1454
(lp1455
I19306689
aI19316914
aS'+'
asS'MBIP'
p1456
(lp1457
I36298557
aI36320676
aS'-'
asS'UBR7'
p1458
(lp1459
I93207055
aI93229215
aS'+'
asS'BMS1P17'
p1460
(lp1461
I19306689
aI19316914
aS'+'
asS'CCDC88C'
p1462
(lp1463
I91271322
aI91417844
aS'-'
asS'KIAA0391'
p1464
(lp1465
I35122320
aI35274078
aS'+'
asS'SUSD6'
p1466
(lp1467
I69611595
aI69715144
aS'+'
asS'TOMM20L'
p1468
(lp1469
I58395929
aI58408702
aS'+'
asS'TPPP2'
p1470
(lp1471
I21030185
aI21032173
aS'+'
asS'COX8C'
p1472
(lp1473
I93347190
aI93348354
aS'+'
asS'GOLGA5'
p1474
(lp1475
I92794230
aI92839961
aS'+'
asS'ERG28'
p1476
(lp1477
I75650889
aI75661195
aS'-'
asS'PYGL'
p1478
(lp1479
I50905216
aI50944530
aS'-'
asS'RALGAPA1'
p1480
(lp1481
I35538351
aI35809323
aS'-'
asS'RNASE1'
p1482
(lp1483
I20801355
aI20802877
aS'-'
asS'TDRD9'
p1484
(lp1485
I103928479
aI104052667
aS'+'
asS'RNASE2'
p1486
(lp1487
I20955470
aI20956435
aS'+'
asS'MIR151B'
p1488
(lp1489
I100109418
aI100109514
aS'-'
asS'RNASE4'
p1490
(lp1491
I20684212
aI20700602
aS'+'
asS'FNTB'
p1492
(lp1493
I64986894
aI65062650
aS'+'
asS'RNASE6'
p1494
(lp1495
I20781050
aI20782467
aS'+'
asS'RNASE9'
p1496
(lp1497
I20556092
aI20560931
aS'-'
asS'RNASE8'
p1498
(lp1499
I21057821
aI21058455
aS'+'
asS'RTL1'
p1500
(lp1501
I100880654
aI100884847
aS'-'
asS'MIR3173'
p1502
(lp1503
I95137918
aI95137986
aS'-'
asS'SNAPC1'
p1504
(lp1505
I61762419
aI61796428
aS'+'
asS'MIR3171'
p1506
(lp1507
I27633204
aI27633278
aS'-'
asS'LOC102723604'
p1508
(lp1509
I51916144
aI51918571
aS'-'
asS'ATG2B'
p1510
(lp1511
I96279201
aI96363401
aS'-'
asS'MIR1260A'
p1512
(lp1513
I77266217
aI77266290
aS'+'
asS'TDP1'
p1514
(lp1515
I89955901
aI90044764
aS'+'
asS'ABHD4'
p1516
(lp1517
I22598237
aI22612359
aS'+'
asS'ADAM6'
p1518
(lp1519
I105969728
aI105972269
aS'-'
asS'SOCS4'
p1520
(lp1521
I55027125
aI55049488
aS'+'
asS'BMP4'
p1522
(lp1523
I53949735
aI53956891
aS'-'
asS'ACYP1'
p1524
(lp1525
I75053224
aI75069483
aS'-'
asS'LOC100506071'
p1526
(lp1527
I30876178
aI30889808
aS'-'
asS'LTB4R'
p1528
(lp1529
I24311501
aI24318036
aS'+'
asS'MIR548H1'
p1530
(lp1531
I64095023
aI64095125
aS'-'
asS'AP1G2'
p1532
(lp1533
I23559562
aI23567836
aS'-'
asS'MTA1'
p1534
(lp1535
I105419848
aI105470720
aS'+'
asS'ENTPD5'
p1536
(lp1537
I73957915
aI74019332
aS'-'
asS'EXD2'
p1538
(lp1539
I69191476
aI69244020
aS'+'
asS'DLK1'
p1540
(lp1541
I100726864
aI100738224
aS'+'
asS'ZNF410'
p1542
(lp1543
I73886614
aI73932288
aS'+'
asS'CINP'
p1544
(lp1545
I102348281
aI102362916
aS'-'
asS'CCNK'
p1546
(lp1547
I99481401
aI99511515
aS'+'
asS'BATF'
p1548
(lp1549
I75522440
aI75546991
aS'+'
asS'SLC7A8'
p1550
(lp1551
I23125294
aI23183660
aS'-'
asS'FOXG1-AS1'
p1552
(lp1553
I28725241
aI28765319
aS'-'
asS'SLC7A7'
p1554
(lp1555
I22773222
aI22819811
aS'-'
asS'BCL2L2-PABPN1'
p1556
(lp1557
I23306761
aI23326185
aS'+'
asS'ZNF219'
p1558
(lp1559
I21090045
aI21104704
aS'-'
asS'ZC2HC1C'
p1560
(lp1561
I75069576
aI75079987
aS'+'
asS'VCPKMT'
p1562
(lp1563
I50108631
aI50116579
aS'-'
asS'PNMA1'
p1564
(lp1565
I73711782
aI73714425
aS'-'
asS'ARID4A'
p1566
(lp1567
I58298503
aI58373733
aS'+'
asS'KLHDC2'
p1568
(lp1569
I49768068
aI49783138
aS'+'
asS'KLHDC1'
p1570
(lp1571
I49693104
aI49753152
aS'+'
asS'MIR665'
p1572
(lp1573
I100875032
aI100875104
aS'+'
asS'FAM161B'
p1574
(lp1575
I73932275
aI73950094
aS'-'
asS'FAM177A1'
p1576
(lp1577
I35044906
aI35083383
aS'+'
asS'AMN'
p1578
(lp1579
I102922655
aI102930842
aS'+'
asS'AP4S1'
p1580
(lp1581
I31025105
aI31096450
aS'+'
asS'CHD8'
p1582
(lp1583
I21385193
aI21437298
aS'-'
asS'HAUS4'
p1584
(lp1585
I22946227
aI22957142
aS'-'
asS'OTX2'
p1586
(lp1587
I56800706
aI56810476
aS'-'
asS'POTEH-AS1'
p1588
(lp1589
I19421025
aI19423994
aS'+'
asS'MIR770'
p1590
(lp1591
I100852389
aI100852487
aS'+'
asS'RPGRIP1'
p1592
(lp1593
I21287976
aI21351301
aS'+'
asS'GPR132'
p1594
(lp1595
I105049388
aI105065550
aS'-'
asS'MIR4710'
p1596
(lp1597
I104677693
aI104677749
aS'-'
asS'MIR7703'
p1598
(lp1599
I24143488
aI24143565
aS'-'
asS'GPHB5'
p1600
(lp1601
I63312834
aI63318879
aS'-'
asS'TTC5'
p1602
(lp1603
I20286226
aI20305951
aS'-'
asS'TTC6'
p1604
(lp1605
I37595198
aI37842625
aS'+'
asS'GNPNAT1'
p1606
(lp1607
I52775192
aI52791668
aS'-'
asS'KLHL33'
p1608
(lp1609
I20425854
aI20436166
aS'-'
asS'ISCA2'
p1610
(lp1611
I74493719
aI74495568
aS'+'
asS'RNU1-3'
p1612
(lp1613
I34546713
aI34546877
aS'+'
asS'RNU1-2'
p1614
(lp1615
I34546713
aI34546877
aS'+'
asS'RNU1-1'
p1616
(lp1617
I34556225
aI34556389
aS'-'
asS'SNORD113-7'
p1618
(lp1619
I100941125
aI100941201
aS'+'
asS'TTC9'
p1620
(lp1621
I70641915
aI70675366
aS'+'
asS'TTC8'
p1622
(lp1623
I88824650
aI88881078
aS'+'
asS'SNORD113-2'
p1624
(lp1625
I100927341
aI100927412
aS'+'
asS'RNU1-4'
p1626
(lp1627
I34546713
aI34546877
aS'+'
asS'RHOJ'
p1628
(lp1629
I63204383
aI63293512
aS'+'
asS'CMA1'
p1630
(lp1631
I24505354
aI24508265
aS'-'
asS'SNORA79'
p1632
(lp1633
I81202694
aI81202834
aS'-'
asS'MIA2'
p1634
(lp1635
I39265271
aI39388513
aS'+'
asS'CEP170B'
p1636
(lp1637
I104865312
aI104896770
aS'+'
asS'RNVU1-18'
p1638
(lp1639
I34546713
aI34546877
aS'+'
asS'STRN3'
p1640
(lp1641
I30893798
aI31026401
aS'-'
asS'CARMIL3'
p1642
(lp1643
I24051996
aI24069728
aS'+'
asS'TBPL2'
p1644
(lp1645
I55414210
aI55440545
aS'-'
asS'LINC01500'
p1646
(lp1647
I58828287
aI59017328
aS'+'
asS'MIR543'
p1648
(lp1649
I101031986
aI101032064
aS'+'
asS'ARG2'
p1650
(lp1651
I67619861
aI67651719
aS'+'
asS'GCH1'
p1652
(lp1653
I54842005
aI54902824
aS'-'
asS'TNFAIP2'
p1654
(lp1655
I103126326
aI103137439
aS'+'
asS'FAM30A'
p1656
(lp1657
I105917978
aI105932642
aS'+'
asS'TOX4'
p1658
(lp1659
I21477175
aI21499177
aS'+'
asS'RNU6-8'
p1660
(lp1661
I32202044
aI32202151
aS'+'
asS'RBM23'
p1662
(lp1663
I22900644
aI22919187
aS'-'
asS'OR4M1'
p1664
(lp1665
I19780322
aI19781264
aS'+'
asS'LINC02332'
p1666
(lp1667
I22556310
aI22557062
aS'-'
asS'MIR136'
p1668
(lp1669
I100884701
aI100884783
aS'+'
asS'BTBD7'
p1670
(lp1671
I93237549
aI93333092
aS'-'
asS'BTBD6'
p1672
(lp1673
I105248541
aI105251093
aS'+'
asS'LIN52'
p1674
(lp1675
I74084952
aI74200414
aS'+'
asS'RNU6-2'
p1676
(lp1677
I32203163
aI32203269
aS'-'
asS'MIR134'
p1678
(lp1679
I101054686
aI101054759
aS'+'
asS'MIR4309'
p1680
(lp1681
I102539643
aI102539726
aS'+'
asS'LINC01303'
p1682
(lp1683
I61556271
aI61570653
aS'-'
asS'DIO3OS'
p1684
(lp1685
I101552220
aI101560422
aS'-'
asS'PAPLN'
p1686
(lp1687
I73237496
aI73274639
aS'+'
asS'LINC00520'
p1688
(lp1689
I55781134
aI55796674
aS'-'
asS'NKX2-1-AS1'
p1690
(lp1691
I36519277
aI36523016
aS'+'
asS'LINC00216'
p1692
(lp1693
I58288032
aI58289152
aS'+'
asS'SNORD114-8'
p1694
(lp1695
I100964780
aI100964851
aS'+'
asS'EXOC3L4'
p1696
(lp1697
I103100143
aI103110557
aS'+'
asS'SNORD114-3'
p1698
(lp1699
I100953348
aI100953422
aS'+'
asS'SNORD114-2'
p1700
(lp1701
I100951855
aI100951932
aS'+'
asS'SNORD114-1'
p1702
(lp1703
I100949832
aI100949903
aS'+'
asS'SNORD114-7'
p1704
(lp1705
I100963053
aI100963129
aS'+'
asS'SNORD114-6'
p1706
(lp1707
I100957165
aI100957236
aS'+'
asS'SNORD114-5'
p1708
(lp1709
I100955369
aI100955438
aS'+'
asS'TMED8'
p1710
(lp1711
I77335020
aI77377109
aS'-'
asS'SNORD56B'
p1712
(lp1713
I71398336
aI71398407
aS'+'
asS'LINC01220'
p1714
(lp1715
I75294403
aI75296408
aS'+'
asS'TRMT5'
p1716
(lp1717
I60971448
aI60981690
aS'-'
asS'ACOT4'
p1718
(lp1719
I73591705
aI73595766
aS'+'
asS'LINC01599'
p1720
(lp1721
I50007312
aI50105043
aS'-'
asS'HNRNPC'
p1722
(lp1723
I21209135
aI21269479
aS'-'
asS'SGPP1'
p1724
(lp1725
I63684215
aI63728095
aS'-'
asS'LINC02323'
p1726
(lp1727
I102545253
aI102555826
aS'+'
asS'SEL1L'
p1728
(lp1729
I81471546
aI81533861
aS'-'
asS'NFKBIA'
p1730
(lp1731
I35401509
aI35404754
aS'-'
asS'FSCB'
p1732
(lp1733
I44504150
aI44507296
aS'-'
asS'ZFP36L1'
p1734
(lp1735
I68787654
aI68796243
aS'-'
asS'FERMT2'
p1736
(lp1737
I52857270
aI52951097
aS'-'
asS'OR11H2'
p1738
(lp1739
I19712903
aI19714332
aS'-'
asS'LOC646548'
p1740
(lp1741
I70187107
aI70232583
aS'+'
asS'OR11H7'
p1742
(lp1743
I20228980
aI20230749
aS'+'
asS'OR11H6'
p1744
(lp1745
I20223709
aI20224702
aS'+'
asS'OR11H4'
p1746
(lp1747
I20242791
aI20243766
aS'+'
asS'SYNE2'
p1748
(lp1749
I63852964
aI64226451
aS'+'
asS'SYNE3'
p1750
(lp1751
I95407265
aI95475835
aS'-'
asS'MIR127'
p1752
(lp1753
I100882978
aI100883075
aS'+'
asS'RIOX1'
p1754
(lp1755
I73490933
aI73493401
aS'+'
asS'DEGS2'
p1756
(lp1757
I100146415
aI100159675
aS'-'
asS'DICER1'
p1758
(lp1759
I95086227
aI95158010
aS'-'
asS'SOS2'
p1760
(lp1761
I50117120
aI50231693
aS'-'
asS'SNORD114-26'
p1762
(lp1763
I100987045
aI100987116
aS'+'
asS'VIPAS39'
p1764
(lp1765
I77426674
aI77457640
aS'-'
asS'METTL3'
p1766
(lp1767
I21498130
aI21511375
aS'-'
asS'JDP2'
p1768
(lp1769
I75427805
aI75472701
aS'+'
asS'RIN3'
p1770
(lp1771
I92513780
aI92688994
aS'+'
asS'AREL1'
p1772
(lp1773
I74661251
aI74713104
aS'-'
asS'TIMM9'
p1774
(lp1775
I58408493
aI58427614
aS'-'
asS'HSP90AA1'
p1776
(lp1777
I102080737
aI102139749
aS'-'
asS'PSMB5'
p1778
(lp1779
I23025850
aI23035220
aS'-'
asS'LINC02329'
p1780
(lp1781
I85387274
aI85388765
aS'+'
asS'CHGA'
p1782
(lp1783
I92923099
aI92935296
aS'+'
asS'FOXG1'
p1784
(lp1785
I28767071
aI28770277
aS'+'
asS'LOC100506476'
p1786
(lp1787
I73787359
aI73803628
aS'+'
asS'BCL11B'
p1788
(lp1789
I99169287
aI99271713
aS'-'
asS'DCAF11'
p1790
(lp1791
I24114696
aI24125242
aS'+'
asS'LOC730202'
p1792
(lp1793
I96501647
aI96502326
aS'-'
asS'SERPINA1'
p1794
(lp1795
I94376746
aI94390692
aS'-'
asS'SERPINA2'
p1796
(lp1797
I94363637
aI94366702
aS'-'
asS'SRP54'
p1798
(lp1799
I34982897
aI35029567
aS'+'
asS'SERPINA4'
p1800
(lp1801
I94561419
aI94569913
aS'+'
asS'STYX'
p1802
(lp1803
I52730164
aI52774987
aS'+'
asS'LOC100506321'
p1804
(lp1805
I65089917
aI65094311
aS'+'
asS'CDKN3'
p1806
(lp1807
I54396867
aI54420216
aS'+'
asS'SERPINA9'
p1808
(lp1809
I94462720
aI94476333
aS'-'
asS'MLH3'
p1810
(lp1811
I75013763
aI75051532
aS'-'
asS'CPNE6'
p1812
(lp1813
I24070836
aI24078100
aS'+'
asS'LOC105370586'
p1814
(lp1815
I79199981
aI79201632
aS'+'
asS'SYNDIG1L'
p1816
(lp1817
I74405892
aI74426102
aS'-'
asS'GMPR2'
p1818
(lp1819
I24232421
aI24239241
aS'+'
asS'DMAC2L'
p1820
(lp1821
I50312328
aI50326228
aS'+'
asS'SNORD8'
p1822
(lp1823
I21397292
aI21397401
aS'-'
asS'SNORD9'
p1824
(lp1825
I21392150
aI21392253
aS'-'
asS'LRP10'
p1826
(lp1827
I22871716
aI22881711
aS'+'
asS'PABPN1'
p1828
(lp1829
I23320187
aI23326185
aS'+'
asS'TRAF3'
p1830
(lp1831
I102777478
aI102911500
aS'+'
asS'NEDD8-MDP1'
p1832
(lp1833
I24213936
aI24232385
aS'-'
asS'LOC101928909'
p1834
(lp1835
I90642628
aI90648888
aS'+'
asS'DCAF4'
p1836
(lp1837
I72926331
aI72962067
aS'+'
asS'MIR1247'
p1838
(lp1839
I101560286
aI101560422
aS'-'
asS'ALDH6A1'
p1840
(lp1841
I74057664
aI74084493
aS'-'
asS'TMX1'
p1842
(lp1843
I51240167
aI51257654
aS'+'
asS'CFL2'
p1844
(lp1845
I34710381
aI34714823
aS'-'
asS'LOC105378183'
p1846
(lp1847
I103317283
aI103318539
aS'+'
asS'MIR485'
p1848
(lp1849
I101055418
aI101055491
aS'+'
asS'MIR7855'
p1850
(lp1851
I64785625
aI64785686
aS'-'
asS'MIR541'
p1852
(lp1853
I101064494
aI101064578
aS'+'
asS'PACS2'
p1854
(lp1855
I105300810
aI105398147
aS'+'
asS'FOXN3'
p1856
(lp1857
I89156171
aI89619150
aS'-'
asS'LINC02318'
p1858
(lp1859
I95573561
aI95581956
aS'+'
asS'PLEKHG3'
p1860
(lp1861
I64704423
aI64750249
aS'+'
asS'ACTN1'
p1862
(lp1863
I68874122
aI68979366
aS'-'
asS'TINF2'
p1864
(lp1865
I24239639
aI24242674
aS'-'
asS'PRMT5-AS1'
p1866
(lp1867
I22919455
aI22923407
aS'+'
asS'TXNDC16'
p1868
(lp1869
I52430589
aI52552583
aS'-'
asS'DHRS4-AS1'
p1870
(lp1871
I23938730
aI23955112
aS'-'
asS'ZBTB42'
p1872
(lp1873
I104801180
aI104804711
aS'+'
asS'SNORD114-18'
p1874
(lp1875
I100975824
aI100975895
aS'+'
asS'EIF5'
p1876
(lp1877
I103334001
aI103345024
aS'+'
asS'AHNAK2'
p1878
(lp1879
I104937250
aI104978357
aS'-'
asS'SPATA7'
p1880
(lp1881
I88385643
aI88438461
aS'+'
as.