(dp1
S'RNF17'
p2
(lp3
I24764162
aI24879920
aS'+'
asS'UBL3'
p4
(lp5
I29764407
aI29850683
aS'-'
asS'TMCO3'
p6
(lp7
I113490737
aI113550229
aS'+'
asS'PSPC1'
p8
(lp9
I19674751
aI19783036
aS'-'
asS'ACOD1'
p10
(lp11
I76952488
aI76958641
aS'+'
asS'UBAC2'
p12
(lp13
I99200424
aI99386499
aS'+'
asS'FREM2-AS1'
p14
(lp15
I38821683
aI38827591
aS'-'
asS'GPR180'
p16
(lp17
I94601849
aI94634645
aS'+'
asS'GPR183'
p18
(lp19
I99294539
aI99307399
aS'-'
asS'COMMD6'
p20
(lp21
I75525218
aI75549439
aS'-'
asS'MIR8073'
p22
(lp23
I110340957
aI110341029
aS'+'
asS'ZC3H13'
p24
(lp25
I45954464
aI46052778
aS'-'
asS'MRPL57'
p26
(lp27
I21176232
aI21179081
aS'+'
asS'MIR320D1'
p28
(lp29
I40727827
aI40727875
aS'-'
asS'UCHL3'
p30
(lp31
I75549479
aI75606020
aS'+'
asS'MEDAG'
p32
(lp33
I30906174
aI30925572
aS'+'
asS'MIR8079'
p34
(lp35
I44196128
aI44196200
aS'-'
asS'ZMYM2'
p36
(lp37
I19957405
aI20091845
aS'+'
asS'SLITRK5'
p38
(lp39
I87672614
aI87679615
aS'+'
asS'FGF14-IT1'
p40
(lp41
I102292319
aI102394519
aS'-'
asS'DIAPH3'
p42
(lp43
I59665588
aI60163985
aS'-'
asS'MTUS2-AS1'
p44
(lp45
I29476514
aI29487750
aS'-'
asS'SERP2'
p46
(lp47
I44373649
aI44397714
aS'+'
asS'MTUS2'
p48
(lp49
I28820338
aI29505947
aS'+'
asS'GRTP1-AS1'
p50
(lp51
I113351672
aI113361867
aS'+'
asS'LINC00456'
p52
(lp53
I97172381
aI97179622
aS'-'
asS'MIR3665'
p54
(lp55
I77698011
aI77698116
aS'-'
asS'LOC101928841'
p56
(lp57
I113399609
aI113414393
aS'-'
asS'LOC105370361'
p58
(lp59
I110121701
aI110125234
aS'+'
asS'LINC01080'
p60
(lp61
I80011076
aI80026663
aS'+'
asS'GTF2F2'
p62
(lp63
I45120495
aI45284104
aS'+'
asS'MIR4502'
p64
(lp65
I114273827
aI114273908
aS'+'
asS'RNASEH2B-AS1'
p66
(lp67
I50882378
aI50910712
aS'-'
asS'MIR4500'
p68
(lp69
I87618664
aI87618740
aS'-'
asS'SNORD13G'
p70
(lp71
I95210343
aI95210448
aS'+'
asS'RNF219-AS1'
p72
(lp73
I78054854
aI78617325
aS'+'
asS'LOC105370362'
p74
(lp75
I110813704
aI110820066
aS'+'
asS'BIVM-ERCC5'
p76
(lp77
I102807145
aI102876001
aS'+'
asS'GPC5-AS2'
p78
(lp79
I92339793
aI92352207
aS'-'
asS'MIR19B1'
p80
(lp81
I91351191
aI91351278
aS'+'
asS'GPC5-AS1'
p82
(lp83
I92701388
aI92721614
aS'-'
asS'ENOX1'
p84
(lp85
I43213132
aI43786980
aS'-'
asS'TNFSF11'
p86
(lp87
I42562735
aI42608013
aS'+'
asS'GPR12'
p88
(lp89
I26755200
aI26760785
aS'-'
asS'SOX1-OT'
p90
(lp91
I111972309
aI112108015
aS'+'
asS'PDS5B'
p92
(lp93
I32586426
aI32778020
aS'+'
asS'POLR1D'
p94
(lp95
I27620742
aI27667422
aS'+'
asS'LOC101929657'
p96
(lp97
I52128894
aI52132723
aS'+'
asS'EDNRB'
p98
(lp99
I77895480
aI77975723
aS'-'
asS'SNORA31B'
p100
(lp101
I45336313
aI45336447
aS'-'
asS'OR7E37P'
p102
(lp103
I41442563
aI41443766
aS'+'
asS'XPO4'
p104
(lp105
I20777328
aI20902774
aS'-'
asS'SMIM2-IT1'
p106
(lp107
I44146469
aI44158222
aS'-'
asS'GSX1'
p108
(lp109
I27792642
aI27793952
aS'+'
asS'MIR15A'
p110
(lp111
I50049118
aI50049201
aS'-'
asS'ZIC5'
p112
(lp113
I99962963
aI99971909
aS'-'
asS'ZIC2'
p114
(lp115
I99981755
aI99986773
aS'+'
asS'LINC01039'
p116
(lp117
I99577111
aI99585979
aS'+'
asS'LINC01038'
p118
(lp119
I79804385
aI79805682
aS'+'
asS'DAOA'
p120
(lp121
I105465866
aI105491034
aS'+'
asS'B3GLCT'
p122
(lp123
I31199974
aI31332274
aS'+'
asS'LINC00381'
p124
(lp125
I74419172
aI74435159
aS'+'
asS'LINC00383'
p126
(lp127
I69222345
aI69322099
aS'+'
asS'THSD1'
p128
(lp129
I52377167
aI52406494
aS'-'
asS'SUGT1'
p130
(lp131
I52652690
aI52688354
aS'+'
asS'COL4A2'
p132
(lp133
I110307266
aI110513209
aS'+'
asS'COL4A1'
p134
(lp135
I110148957
aI110307157
aS'-'
asS'ING1'
p136
(lp137
I110712622
aI110721074
aS'+'
asS'NUFIP1'
p138
(lp139
I44939248
aI44989471
aS'-'
asS'LOC105370333'
p140
(lp141
I100086030
aI100088943
aS'-'
asS'MLNR'
p142
(lp143
I49220337
aI49222377
aS'+'
asS'LOC101929259'
p144
(lp145
I45106278
aI45113206
aS'+'
asS'MIR1297'
p146
(lp147
I54311971
aI54312048
aS'-'
asS'C1QTNF9B'
p148
(lp149
I23891098
aI23897502
aS'-'
asS'DNAJC3'
p150
(lp151
I95677138
aI95794989
aS'+'
asS'LINC00355'
p152
(lp153
I63986370
aI64076011
aS'-'
asS'LINC00354'
p154
(lp155
I111893377
aI111901176
aS'+'
asS'LINC00458'
p156
(lp157
I54124323
aI54132871
aS'-'
asS'LINC00459'
p158
(lp159
I62323656
aI62328835
aS'+'
asS'LINC00351'
p160
(lp161
I85363602
aI85544662
aS'+'
asS'LINC00350'
p162
(lp163
I19587117
aI19588490
aS'+'
asS'LINC00353'
p164
(lp165
I89548793
aI89564413
aS'-'
asS'LINC00452'
p166
(lp167
I113895102
aI113921317
aS'+'
asS'LINC00359'
p168
(lp169
I96941280
aI96984172
aS'-'
asS'LINC00457'
p170
(lp171
I34435450
aI34640685
aS'-'
asS'MINOS1P1'
p172
(lp173
I32496210
aI32498492
aS'-'
asS'SMAD9'
p174
(lp175
I36844830
aI36920272
aS'-'
asS'GRTP1'
p176
(lp177
I113324163
aI113364148
aS'-'
asS'MTIF3'
p178
(lp179
I27435638
aI27450602
aS'-'
asS'FAM230C'
p180
(lp181
I18195296
aI18232016
aS'+'
asS'AKAP11'
p182
(lp183
I42272152
aI42323267
aS'+'
asS'EDNRB-AS1'
p184
(lp185
I77818936
aI77908428
aS'+'
asS'LHFPL6'
p186
(lp187
I39342891
aI39603219
aS'-'
asS'MIR4305'
p188
(lp189
I39664033
aI39664135
aS'-'
asS'MIR4306'
p190
(lp191
I99643058
aI99643149
aS'+'
asS'TNFSF13B'
p192
(lp193
I108269628
aI108308484
aS'+'
asS'SPART'
p194
(lp195
I36301637
aI36370180
aS'-'
asS'CLYBL-AS2'
p196
(lp197
I99690097
aI99690971
aS'-'
asS'LOC105370203'
p198
(lp199
I49235515
aI49247840
aS'-'
asS'CLYBL-AS1'
p200
(lp201
I99725669
aI99729001
aS'-'
asS'TM9SF2'
p202
(lp203
I99501373
aI99564048
aS'+'
asS'ERICH6B'
p204
(lp205
I45541296
aI45615739
aS'-'
asS'IL17D'
p206
(lp207
I20703342
aI20723098
aS'+'
asS'OR7E156P'
p208
(lp209
I63737434
aI63742568
aS'+'
asS'ANKRD20A19P'
p210
(lp211
I23907283
aI23949315
aS'-'
asS'SERTM1'
p212
(lp213
I36673911
aI36697838
aS'+'
asS'MIR8075'
p214
(lp215
I113262919
aI113262999
aS'+'
asS'DLEU1-AS1'
p216
(lp217
I50520932
aI50527449
aS'-'
asS'SUGT1P3'
p218
(lp219
I40911888
aI40921774
aS'-'
asS'GAS6-DT'
p220
(lp221
I113864176
aI113866832
aS'+'
asS'LINC00676'
p222
(lp223
I109728273
aI109730034
aS'+'
asS'ALG11'
p224
(lp225
I52012386
aI52029644
aS'+'
asS'DCT'
p226
(lp227
I94437303
aI94549413
aS'-'
asS'ARL11'
p228
(lp229
I49628298
aI49633872
aS'+'
asS'EEF1DP3'
p230
(lp231
I31846782
aI31959584
aS'+'
asS'F7'
p232
(lp233
I113105787
aI113120681
aS'+'
asS'SUCLA2'
p234
(lp235
I47942655
aI48001326
aS'-'
asS'MCF2L'
p236
(lp237
I112969213
aI113099742
aS'+'
asS'LMO7'
p238
(lp239
I75620433
aI75859871
aS'+'
asS'MIR19A'
p240
(lp241
I91350890
aI91350972
aS'+'
asS'LINC01198'
p242
(lp243
I46455203
aI46466776
aS'-'
asS'COL4A2-AS2'
p244
(lp245
I110456396
aI110463287
aS'-'
asS'TUBGCP3'
p246
(lp247
I112485004
aI112588185
aS'-'
asS'SLITRK6'
p248
(lp249
I85792786
aI85799348
aS'-'
asS'HMGB1'
p250
(lp251
I30457915
aI30617597
aS'-'
asS'MED4-AS1'
p252
(lp253
I48077136
aI48079993
aS'+'
asS'ALOX5AP'
p254
(lp255
I30713477
aI30764428
aS'+'
asS'RBM26'
p256
(lp257
I79318867
aI79406221
aS'-'
asS'LINC01078'
p258
(lp259
I75240587
aI75252012
aS'+'
asS'CLDN10-AS1'
p260
(lp261
I95479443
aI95533910
aS'-'
asS'CCNA1'
p262
(lp263
I36431829
aI36442882
aS'+'
asS'LINC01072'
p264
(lp265
I20102700
aI20103230
aS'+'
asS'GJB2'
p266
(lp267
I20187464
aI20192975
aS'-'
asS'MIR548AR'
p268
(lp269
I114244504
aI114244561
aS'+'
asS'MAB21L1'
p270
(lp271
I35473788
aI35476695
aS'-'
asS'IFT88'
p272
(lp273
I20566815
aI20691437
aS'+'
asS'GJB6'
p274
(lp275
I20221961
aI20232395
aS'-'
asS'LOC780529'
p276
(lp277
I78596121
aI78599619
aS'+'
asS'SKA3'
p278
(lp279
I21153594
aI21176602
aS'-'
asS'PCDH20'
p280
(lp281
I61409685
aI61415522
aS'-'
asS'PAN3-AS1'
p282
(lp283
I28136842
aI28139174
aS'-'
asS'FAM216B'
p284
(lp285
I42781549
aI42791549
aS'+'
asS'LCP1'
p286
(lp287
I46125922
aI46182324
aS'-'
asS'SOX21'
p288
(lp289
I94709624
aI94712543
aS'-'
asS'LINC00390'
p290
(lp291
I44106090
aI44147735
aS'-'
asS'LINC00392'
p292
(lp293
I73564243
aI73587879
aS'+'
asS'LINC00395'
p294
(lp295
I63667681
aI63738018
aS'-'
asS'LINC00397'
p296
(lp297
I87801042
aI87810520
aS'-'
asS'LINC00396'
p298
(lp299
I110053284
aI110054952
aS'+'
asS'LINC00399'
p300
(lp301
I109400695
aI109401639
aS'+'
asS'LINC00398'
p302
(lp303
I30803205
aI30810645
aS'+'
asS'TPT1-AS1'
p304
(lp305
I45341344
aI45391483
aS'+'
asS'LINC00417'
p306
(lp307
I18738099
aI18740099
aS'-'
asS'LINC00415'
p308
(lp309
I26052275
aI26059522
aS'-'
asS'LINC00412'
p310
(lp311
I27236281
aI27237257
aS'-'
asS'LINC00559'
p312
(lp313
I90060249
aI90119717
aS'-'
asS'RGCC'
p314
(lp315
I41457405
aI41470877
aS'+'
asS'LINC00557'
p316
(lp317
I94960040
aI94961319
aS'+'
asS'LINC00554'
p318
(lp319
I99994899
aI99997909
aS'-'
asS'LINC00552'
p320
(lp321
I113748510
aI113751089
aS'-'
asS'ESD'
p322
(lp323
I46771255
aI46797232
aS'-'
asS'STARD13-AS'
p324
(lp325
I33277553
aI33281334
aS'+'
asS'LOC101927284'
p326
(lp327
I94760940
aI94935410
aS'+'
asS'TRIM13'
p328
(lp329
I49997006
aI50018467
aS'+'
asS'LINC01070'
p330
(lp331
I112197332
aI112201001
aS'+'
asS'SNORA27'
p332
(lp333
I27255400
aI27255526
aS'+'
asS'TGDS'
p334
(lp335
I94574053
aI94596275
aS'-'
asS'TUSC8'
p336
(lp337
I44400249
aI44405984
aS'-'
asS'TMEM255B'
p338
(lp339
I113759242
aI113812243
aS'+'
asS'ATP11AUN'
p340
(lp341
I112647043
aI112684497
aS'+'
asS'RCBTB2'
p342
(lp343
I48488962
aI48535982
aS'-'
asS'RCBTB1'
p344
(lp345
I49531945
aI49585583
aS'-'
asS'MIR4500HG'
p346
(lp347
I87443986
aI87670963
aS'-'
asS'FGF14-AS1'
p348
(lp349
I102367529
aI102373666
aS'+'
asS'SLC25A15'
p350
(lp351
I40789410
aI40812460
aS'+'
asS'LINC01074'
p352
(lp353
I62321304
aI62322398
aS'+'
asS'TUBA3C'
p354
(lp355
I19173771
aI19181824
aS'-'
asS'ARHGEF7'
p356
(lp357
I111114618
aI111305734
aS'+'
asS'KLF5'
p358
(lp359
I73054975
aI73077542
aS'+'
asS'TEX26'
p360
(lp361
I30932696
aI30975502
aS'+'
asS'PLUT'
p362
(lp363
I27819091
aI27917291
aS'-'
asS'MIPEP'
p364
(lp365
I23730188
aI23889448
aS'-'
asS'PCCA-AS1'
p366
(lp367
I100464436
aI100481015
aS'-'
asS'BTF3P11'
p368
(lp369
I76928450
aI76929090
aS'+'
asS'MTMR6'
p370
(lp371
I25246200
aI25287566
aS'-'
asS'RB1-DT'
p372
(lp373
I48296512
aI48303661
aS'-'
asS'TEX29'
p374
(lp375
I111316184
aI111344247
aS'+'
asS'LOC101928764'
p376
(lp377
I21283509
aI21298091
aS'-'
asS'TMEM272'
p378
(lp379
I51813346
aI51845152
aS'-'
asS'MCF2L-AS1'
p380
(lp381
I112967483
aI112968638
aS'-'
asS'CENPJ'
p382
(lp383
I24882273
aI24922889
aS'-'
asS'DAOA-AS1'
p384
(lp385
I105459055
aI105505681
aS'-'
asS'TSC22D1'
p386
(lp387
I44432142
aI44576565
aS'-'
asS'ENOX1-AS2'
p388
(lp389
I43448851
aI43459488
aS'+'
asS'RUBCNL'
p390
(lp391
I46341738
aI46390042
aS'-'
asS'UTP14C'
p392
(lp393
I52024690
aI52033600
aS'+'
asS'PROSER1'
p394
(lp395
I39009864
aI39038076
aS'-'
asS'HTR2A-AS1'
p396
(lp397
I46852139
aI46856299
aS'+'
asS'LOC102723968'
p398
(lp399
I63828839
aI63844125
aS'-'
asS'STARD13'
p400
(lp401
I33103134
aI33676835
aS'-'
asS'ALG5'
p402
(lp403
I36949770
aI36999367
aS'-'
asS'EXOSC8'
p404
(lp405
I37000540
aI37009616
aS'+'
asS'MED4'
p406
(lp407
I48075727
aI48095141
aS'-'
asS'MIR2276'
p408
(lp409
I24162415
aI24162504
aS'+'
asS'MIR4501'
p410
(lp411
I96427228
aI96427292
aS'+'
asS'CYSLTR2'
p412
(lp413
I48653710
aI48711225
aS'+'
asS'ATP7B'
p414
(lp415
I51932670
aI52011494
aS'-'
asS'MPHOSPH8'
p416
(lp417
I19633647
aI19673459
aS'+'
asS'GGACT'
p418
(lp419
I100530163
aI100588792
aS'-'
asS'CCDC122'
p420
(lp421
I43836352
aI43879736
aS'-'
asS'BASP1P1'
p422
(lp423
I22897029
aI22898181
aS'-'
asS'LMO7-AS1'
p424
(lp425
I75604699
aI75635994
aS'-'
asS'STK24'
p426
(lp427
I98450198
aI98577151
aS'-'
asS'MRPS31P5'
p428
(lp429
I52167709
aI52194467
aS'-'
asS'KPNA3'
p430
(lp431
I49699306
aI49792921
aS'-'
asS'FLT1'
p432
(lp433
I28300345
aI28495128
aS'-'
asS'SLC46A3'
p434
(lp435
I28700080
aI28719013
aS'-'
asS'TPT1'
p436
(lp437
I45333470
aI45341284
aS'-'
asS'FARP1'
p438
(lp439
I98142561
aI98449773
aS'+'
asS'NAXD'
p440
(lp441
I110615459
aI110639995
aS'+'
asS'ARGLU1'
p442
(lp443
I106541672
aI106568137
aS'-'
asS'F10'
p444
(lp445
I113122798
aI113149529
aS'+'
asS'GJA3'
p446
(lp447
I20138255
aI20161044
aS'-'
asS'PROZ'
p448
(lp449
I113158653
aI113172384
aS'+'
asS'RNASEH2B'
p450
(lp451
I50909677
aI50970460
aS'+'
asS'PRR20A'
p452
(lp453
I57140917
aI57143939
aS'+'
asS'PRR20B'
p454
(lp455
I57140917
aI57143939
aS'+'
asS'PRR20C'
p456
(lp457
I57140917
aI57143939
aS'+'
asS'PRR20D'
p458
(lp459
I57140917
aI57143939
aS'+'
asS'PRR20E'
p460
(lp461
I57140917
aI57143939
aS'+'
asS'LINC00332'
p462
(lp463
I40181808
aI40189030
aS'+'
asS'PCDH17'
p464
(lp465
I57631654
aI57728931
aS'+'
asS'SHISA2'
p466
(lp467
I26044596
aI26051060
aS'-'
asS'HS6ST3'
p468
(lp469
I96090838
aI96839562
aS'+'
asS'PDX1'
p470
(lp471
I27919999
aI27926313
aS'+'
asS'LINC00284'
p472
(lp473
I44022334
aI44030463
aS'+'
asS'EFNB2'
p474
(lp475
I106489730
aI106535040
aS'-'
asS'CLYBL'
p476
(lp477
I99606663
aI99909459
aS'+'
asS'ARHGEF7-AS1'
p478
(lp479
I111144304
aI111148565
aS'-'
asS'RFC3'
p480
(lp481
I33818068
aI33966558
aS'+'
asS'SPRY2'
p482
(lp483
I80335976
aI80341115
aS'-'
asS'TRPC4'
p484
(lp485
I37632062
aI37870425
aS'-'
asS'RNF113B'
p486
(lp487
I98175784
aI98177267
aS'-'
asS'FLT3'
p488
(lp489
I28003273
aI28100592
aS'-'
asS'ITGBL1'
p490
(lp491
I101452592
aI101720857
aS'+'
asS'LOC101929140'
p492
(lp493
I41132927
aI41236686
aS'+'
asS'FKSG29'
p494
(lp495
I99351419
aI99352027
aS'+'
asS'MIR759'
p496
(lp497
I52810049
aI52810140
aS'+'
asS'LINC00346'
p498
(lp499
I110863986
aI110870308
aS'-'
asS'LINC00347'
p500
(lp501
I74552842
aI74557120
aS'+'
asS'LINC00343'
p502
(lp503
I105706829
aI105761796
aS'+'
asS'LINC00463'
p504
(lp505
I25172823
aI25180001
aS'-'
asS'LINC00462'
p506
(lp507
I48576973
aI48580901
aS'-'
asS'LINC00348'
p508
(lp509
I71015140
aI71168417
aS'+'
asS'LINC00460'
p510
(lp511
I106376562
aI106377792
aS'+'
asS'VWA8-AS1'
p512
(lp513
I41961168
aI41981565
aS'+'
asS'RAB20'
p514
(lp515
I110523065
aI110561737
aS'-'
asS'SMIM2-AS1'
p516
(lp517
I44110548
aI44154075
aS'+'
asS'TSC22D1-AS1'
p518
(lp519
I44575895
aI44580432
aS'+'
asS'ANKRD26P3'
p520
(lp521
I19262799
aI19344973
aS'-'
asS'ATXN8OS'
p522
(lp523
I70107212
aI70139753
aS'+'
asS'NUDT15'
p524
(lp525
I48037566
aI48052742
aS'+'
asS'MIR4704'
p526
(lp527
I66218249
aI66218324
aS'+'
asS'MIR4705'
p528
(lp529
I102045933
aI102046004
aS'-'
asS'FRY'
p530
(lp531
I32031299
aI32296639
aS'+'
asS'GPR18'
p532
(lp533
I99254712
aI99258428
aS'-'
asS'MIR20A'
p534
(lp535
I91351064
aI91351135
aS'+'
asS'MIR4703'
p536
(lp537
I51552588
aI51552667
aS'+'
asS'SNORA107'
p538
(lp539
I84783653
aI84783778
aS'+'
asS'ANKRD20A9P'
p540
(lp541
I18811142
aI18871967
aS'-'
asS'ATP4B'
p542
(lp543
I113648805
aI113658198
aS'-'
asS'F10-AS1'
p544
(lp545
I113128154
aI113130046
aS'-'
asS'IRS2'
p546
(lp547
I109753836
aI109786567
aS'-'
asS'KL'
p548
(lp549
I33016422
aI33066143
aS'+'
asS'MIR18A'
p550
(lp551
I91350750
aI91350821
aS'+'
asS'MYCBP2-AS1'
p552
(lp553
I77075513
aI77087776
aS'+'
asS'CDK8'
p554
(lp555
I26254103
aI26405236
aS'+'
asS'LPAR6'
p556
(lp557
I48411045
aI48444704
aS'-'
asS'PHF11'
p558
(lp559
I49495609
aI49528991
aS'+'
asS'ERCC5'
p560
(lp561
I102845840
aI102876001
aS'+'
asS'LINC01055'
p562
(lp563
I45681198
aI45701184
aS'-'
asS'CDADC1'
p564
(lp565
I49247910
aI49293486
aS'+'
asS'ST13P4'
p566
(lp567
I50172017
aI50173615
aS'+'
asS'MIR3613'
p568
(lp569
I49996414
aI49996501
aS'-'
asS'CCDC169'
p570
(lp571
I36227041
aI36297855
aS'-'
asS'CCDC168'
p572
(lp573
I102729366
aI102759072
aS'-'
asS'LMO7DN'
p574
(lp575
I75871037
aI75883812
aS'+'
asS'RB1'
p576
(lp577
I48303746
aI48481890
aS'+'
asS'DNAJC15'
p578
(lp579
I43023225
aI43109170
aS'+'
asS'CPB2-AS1'
p580
(lp581
I46052847
aI46101347
aS'+'
asS'SERPINE3'
p582
(lp583
I51341031
aI51362103
aS'+'
asS'INTS6'
p584
(lp585
I51361564
aI51453139
aS'-'
asS'TPP2'
p586
(lp587
I102596935
aI102679958
aS'+'
asS'LINC00558'
p588
(lp589
I53815418
aI53876119
aS'+'
asS'LOC101928697'
p590
(lp591
I19182032
aI19187465
aS'+'
asS'METTL21C'
p592
(lp593
I102685746
aI102694521
aS'-'
asS'LOC100506016'
p594
(lp595
I112155156
aI112160710
aS'-'
asS'MZT1'
p596
(lp597
I72708366
aI72727629
aS'-'
asS'LACC1'
p598
(lp599
I43879177
aI43893932
aS'+'
asS'LINC01068'
p600
(lp601
I79566726
aI79571446
aS'+'
asS'LINC01069'
p602
(lp603
I77979765
aI77994773
aS'-'
asS'FRY-AS1'
p604
(lp605
I32024055
aI32031639
aS'-'
asS'LINC01065'
p606
(lp607
I53131745
aI53151900
aS'-'
asS'SLITRK1'
p608
(lp609
I83877204
aI83882393
aS'-'
asS'CUL4A'
p610
(lp611
I113208192
aI113267108
aS'+'
asS'NEK3'
p612
(lp613
I52132642
aI52159861
aS'-'
asS'SETDB2-PHF11'
p614
(lp615
I49444292
aI49528991
aS'+'
asS'LINC00551'
p616
(lp617
I106617809
aI106631658
aS'+'
asS'LINC00550'
p618
(lp619
I68861284
aI68885325
aS'-'
asS'LAMP1'
p620
(lp621
I113297153
aI113323426
aS'+'
asS'PCCA'
p622
(lp623
I100089014
aI100530437
aS'+'
asS'N4BP2L1'
p624
(lp625
I32400722
aI32428178
aS'-'
asS'URAD'
p626
(lp627
I27978105
aI27988637
aS'-'
asS'N4BP2L2'
p628
(lp629
I32432487
aI32538885
aS'-'
asS'MIR3169'
p630
(lp631
I61199797
aI61199880
aS'-'
asS'MIR3168'
p632
(lp633
I41101018
aI41101100
aS'-'
asS'ADPRHL1'
p634
(lp635
I113421939
aI113453524
aS'-'
asS'LINC00382'
p636
(lp637
I79872585
aI79918036
aS'+'
asS'NALCN-AS1'
p638
(lp639
I100708324
aI101059286
aS'+'
asS'LINC00380'
p640
(lp641
I91087254
aI91089617
aS'-'
asS'LINC00428'
p642
(lp643
I42842411
aI42872744
aS'-'
asS'LINC00384'
p644
(lp645
I30151885
aI30153074
aS'-'
asS'LINC00423'
p646
(lp647
I32809189
aI32911652
aS'-'
asS'LINC00421'
p648
(lp649
I19345048
aI19346749
aS'+'
asS'LINC00426'
p650
(lp651
I30340265
aI30373914
aS'-'
asS'LINC00424'
p652
(lp653
I21872795
aI21878160
aS'-'
asS'LINC00540'
p654
(lp655
I22210284
aI22276520
aS'+'
asS'CLN5'
p656
(lp657
I76992080
aI77002517
aS'+'
asS'LINC00543'
p658
(lp659
I27953525
aI27955363
aS'+'
asS'LINC00544'
p660
(lp661
I29936530
aI29950488
aS'+'
asS'LINC00545'
p662
(lp663
I30882561
aI30883395
aS'+'
asS'LINC00547'
p664
(lp665
I37534939
aI37551536
aS'+'
asS'LINC00548'
p666
(lp667
I40194508
aI40220502
aS'-'
asS'MBNL2'
p668
(lp669
I97222288
aI97394120
aS'+'
asS'GAS6-AS1'
p670
(lp671
I113815609
aI113842841
aS'+'
asS'SETDB2'
p672
(lp673
I49444292
aI49495003
aS'+'
asS'DNAJC3-DT'
p674
(lp675
I95672837
aI95676925
aS'-'
asS'BRCA2'
p676
(lp677
I32315479
aI32399672
aS'+'
asS'CCDC70'
p678
(lp679
I51861947
aI51866236
aS'+'
asS'CRYL1'
p680
(lp681
I20403666
aI20525873
aS'-'
asS'POSTN'
p682
(lp683
I37562581
aI37598844
aS'-'
asS'CHAMP1'
p684
(lp685
I114314334
aI114327328
aS'+'
asS'MIR5693'
p686
(lp687
I51348566
aI51348639
aS'-'
asS'SLC15A1'
p688
(lp689
I98683800
aI98752675
aS'-'
asS'DZIP1'
p690
(lp691
I95578201
aI95644706
aS'-'
asS'MIR622'
p692
(lp693
I90231181
aI90231277
aS'+'
asS'ZAR1L'
p694
(lp695
I32303770
aI32311954
aS'-'
asS'MIR621'
p696
(lp697
I40810765
aI40810861
aS'+'
asS'FREM2'
p698
(lp699
I38687035
aI38887130
aS'+'
asS'RNF219'
p700
(lp701
I78614285
aI78659179
aS'-'
asS'GUCY1B2'
p702
(lp703
I50994510
aI51066157
aS'-'
asS'RBM26-AS1'
p704
(lp705
I79406308
aI79424333
aS'+'
asS'LINC00333'
p706
(lp707
I84140601
aI84606768
aS'+'
asS'MIPEPP3'
p708
(lp709
I21298124
aI21392922
aS'+'
asS'LINC00331'
p710
(lp711
I78787318
aI78840050
aS'-'
asS'LINC00330'
p712
(lp713
I44799503
aI44809630
aS'-'
asS'DOCK9'
p714
(lp715
I98793486
aI99086406
aS'-'
asS'KDELC1'
p716
(lp717
I102784280
aI102799054
aS'-'
asS'SCEL'
p718
(lp719
I77535673
aI77645263
aS'+'
asS'MIR92A1'
p720
(lp721
I91351313
aI91351391
aS'+'
asS'FGF14-AS2'
p722
(lp723
I102394577
aI102395705
aS'+'
asS'LOC101927248'
p724
(lp725
I94704743
aI94708486
aS'-'
asS'TNFRSF19'
p726
(lp727
I23570369
aI23676105
aS'+'
asS'MIR548X2'
p728
(lp729
I65966329
aI65966429
aS'-'
asS'CDC16'
p730
(lp731
I114234844
aI114272726
aS'+'
asS'HSPH1'
p732
(lp733
I31134973
aI31162388
aS'-'
asS'LINC01047'
p734
(lp735
I89214847
aI89236890
aS'-'
asS'LINC02341'
p736
(lp737
I42424891
aI42485956
aS'+'
asS'LINC02343'
p738
(lp739
I34348042
aI34616292
aS'+'
asS'LINC02344'
p740
(lp741
I33333845
aI33335266
aS'-'
asS'FNDC3A'
p742
(lp743
I48975911
aI49209779
aS'+'
asS'NHLRC3'
p744
(lp745
I39038310
aI39050107
aS'+'
asS'SUPT20H'
p746
(lp747
I37009313
aI37059713
aS'-'
asS'MIR1267'
p748
(lp749
I107531170
aI107531248
aS'-'
asS'PARP4'
p750
(lp751
I24420930
aI24512810
aS'-'
asS'DHRS12'
p752
(lp753
I51767992
aI51804162
aS'-'
asS'KATNAL1'
p754
(lp755
I30202629
aI30307487
aS'-'
asS'SCEL-AS1'
p756
(lp757
I77599755
aI77606551
aS'-'
asS'LINC00598'
p758
(lp759
I40347133
aI40481006
aS'-'
asS'EEF1AKMT1'
p760
(lp761
I20728930
aI20773958
aS'-'
asS'NAA16'
p762
(lp763
I41311266
aI41377030
aS'+'
asS'SPACA7'
p764
(lp765
I112376336
aI112434695
aS'+'
asS'KCNRG'
p766
(lp767
I50015253
aI50020922
aS'+'
asS'LMO7DN-IT1'
p768
(lp769
I75876885
aI75881125
aS'+'
asS'LINC01232'
p770
(lp771
I99486961
aI99499306
aS'-'
asS'LRCH1'
p772
(lp773
I46553160
aI46753040
aS'+'
asS'TFDP1'
p774
(lp775
I113584687
aI113641473
aS'+'
asS'PCDH9-AS4'
p776
(lp777
I66990885
aI67002000
aS'+'
asS'PCDH9-AS2'
p778
(lp779
I66825168
aI66915031
aS'+'
asS'PCDH9-AS3'
p780
(lp781
I66977388
aI66985776
aS'+'
asS'GPALPP1'
p782
(lp783
I44989529
aI45033608
aS'+'
asS'OLFM4'
p784
(lp785
I53028740
aI53052061
aS'+'
asS'SLC10A2'
p786
(lp787
I103043997
aI103066846
aS'-'
asS'MIR2681'
p788
(lp789
I101967641
aI101967746
aS'-'
asS'TEX26-AS1'
p790
(lp791
I30882834
aI30932608
aS'-'
asS'LINC01054'
p792
(lp793
I114329756
aI114333948
aS'-'
asS'LINC01050'
p794
(lp795
I42810365
aI42812562
aS'-'
asS'LINC01053'
p796
(lp797
I25181331
aI25190657
aS'+'
asS'LINC01052'
p798
(lp799
I65866046
aI65878219
aS'+'
asS'LINC00297'
p800
(lp801
I29872612
aI29888405
aS'-'
asS'UGGT2'
p802
(lp803
I95801580
aI96053482
aS'-'
asS'LINC01058'
p804
(lp805
I30419438
aI30422244
aS'-'
asS'LOC105370295'
p806
(lp807
I24539137
aI24541720
aS'-'
asS'MIR5006'
p808
(lp809
I41568285
aI41568395
aS'-'
asS'MIR5007'
p810
(lp811
I55174453
aI55174548
aS'+'
asS'LINC00379'
p812
(lp813
I91127612
aI91211698
aS'-'
asS'LINC00378'
p814
(lp815
I60672954
aI60695800
aS'+'
asS'LOC101928730'
p816
(lp817
I112256725
aI112273000
aS'-'
asS'NUP58'
p818
(lp819
I25301527
aI25342423
aS'+'
asS'LINC00377'
p820
(lp821
I81018390
aI81044442
aS'+'
asS'LINC00376'
p822
(lp823
I63183100
aI63328094
aS'-'
asS'LINC00375'
p824
(lp825
I85065086
aI85148057
aS'-'
asS'LINC00374'
p826
(lp827
I58211696
aI58233117
aS'-'
asS'CCDC169-SOHLH2'
p828
(lp829
I36168207
aI36297855
aS'-'
asS'TMTC4'
p830
(lp831
I100603632
aI100674935
aS'-'
asS'LINC00571'
p832
(lp833
I38050816
aI38143232
aS'-'
asS'MYO16'
p834
(lp835
I108596151
aI109208007
aS'+'
asS'LINC00572'
p836
(lp837
I29918646
aI29926651
aS'-'
asS'STK24-AS1'
p838
(lp839
I98577254
aI98578841
aS'+'
asS'UFM1'
p840
(lp841
I38349770
aI38363007
aS'+'
asS'ATP11A-AS1'
p842
(lp843
I112745448
aI112754731
aS'-'
asS'FOXO1'
p844
(lp845
I40555666
aI40666641
aS'-'
asS'MIR17HG'
p846
(lp847
I91347819
aI91354575
aS'+'
asS'ATP11A'
p848
(lp849
I112690328
aI112887168
aS'+'
asS'COL4A2-AS1'
p850
(lp851
I110502575
aI110508179
aS'-'
asS'MIR17'
p852
(lp853
I91350604
aI91350688
aS'+'
asS'CTAGE10P'
p854
(lp855
I49890408
aI49893380
aS'+'
asS'MICU2'
p856
(lp857
I21492690
aI21604170
aS'-'
asS'ANKRD10'
p858
(lp859
I110878539
aI110915107
aS'-'
asS'PAN3'
p860
(lp861
I28138544
aI28295334
aS'+'
asS'KLF12'
p862
(lp863
I73686011
aI74133929
aS'-'
asS'SOX1'
p864
(lp865
I112067598
aI112071706
aS'+'
asS'WASF3'
p866
(lp867
I26557702
aI26688946
aS'+'
asS'RPL21'
p868
(lp869
I27251554
aI27256565
aS'+'
asS'CPB2'
p870
(lp871
I46053186
aI46105076
aS'-'
asS'TDRD3'
p872
(lp873
I60396456
aI60573879
aS'+'
asS'DOCK9-DT'
p874
(lp875
I99086722
aI99088625
aS'+'
asS'WDFY2'
p876
(lp877
I51584347
aI51762035
aS'+'
asS'CNMD'
p878
(lp879
I52703265
aI52739812
aS'-'
asS'DOCK9-AS1'
p880
(lp881
I98832083
aI98834629
aS'+'
asS'ARHGEF7-AS2'
p882
(lp883
I111113811
aI111115678
aS'-'
asS'N4BP2L2-IT2'
p884
(lp885
I32504505
aI32509395
aS'-'
asS'ZDHHC20'
p886
(lp887
I21372570
aI21459370
aS'-'
asS'USP12-AS2'
p888
(lp889
I27172258
aI27183503
aS'+'
asS'USP12-AS1'
p890
(lp891
I27125532
aI27169135
aS'+'
asS'SPART-AS1'
p892
(lp893
I36346430
aI36369735
aS'+'
asS'NDFIP2'
p894
(lp895
I79481123
aI79556077
aS'+'
asS'TBC1D4'
p896
(lp897
I75284663
aI75482168
aS'-'
asS'LINC00410'
p898
(lp899
I90890953
aI90926597
aS'-'
asS'EBPL'
p900
(lp901
I49660675
aI49691487
aS'-'
asS'LINC00358'
p902
(lp903
I62003524
aI62029548
aS'-'
asS'LINC00454'
p904
(lp905
I113878628
aI113883486
aS'-'
asS'ABCC4'
p906
(lp907
I95019828
aI95301446
aS'-'
asS'WBP4'
p908
(lp909
I41061256
aI41084011
aS'+'
asS'PIBF1'
p910
(lp911
I72782022
aI73016453
aS'+'
asS'CKAP2'
p912
(lp913
I52455359
aI52476631
aS'+'
asS'FAM124A'
p914
(lp915
I51222333
aI51284241
aS'+'
asS'METTL21EP'
p916
(lp917
I102880098
aI102896033
aS'+'
asS'SACS-AS1'
p918
(lp919
I23418970
aI23428869
aS'+'
asS'LINC00363'
p920
(lp921
I93045340
aI93057926
aS'+'
asS'BORA'
p922
(lp923
I72727748
aI72756198
aS'+'
asS'LINC00621'
p924
(lp925
I22876391
aI22916369
aS'-'
asS'NALCN'
p926
(lp927
I101053773
aI101416508
aS'-'
asS'RXFP2'
p928
(lp929
I31739525
aI31803389
aS'+'
asS'CTAGE11P'
p930
(lp931
I75237752
aI75240381
aS'-'
asS'DGKH'
p932
(lp933
I42040035
aI42242897
aS'+'
asS'GRK1'
p934
(lp935
I113667281
aI113735664
aS'+'
asS'LIG4'
p936
(lp937
I108207443
aI108218368
aS'-'
asS'NDFIP2-AS1'
p938
(lp939
I79477363
aI79481231
aS'-'
asS'MYCBP2'
p940
(lp941
I77044656
aI77327042
aS'-'
asS'SAP18'
p942
(lp943
I21140513
aI21149085
aS'+'
asS'LINC01309'
p944
(lp945
I103425199
aI103427685
aS'+'
asS'DLEU2'
p946
(lp947
I49982548
aI50125541
aS'-'
asS'DLEU1'
p948
(lp949
I50082168
aI50528643
aS'+'
asS'DLEU7'
p950
(lp951
I50711025
aI50843939
aS'-'
asS'VWA8'
p952
(lp953
I41566824
aI41961085
aS'-'
asS'COG3'
p954
(lp955
I45464894
aI45536698
aS'+'
asS'GRK6P1'
p956
(lp957
I21319035
aI21322103
aS'+'
asS'COG6'
p958
(lp959
I39655626
aI39791665
aS'+'
asS'BIVM'
p960
(lp961
I102799048
aI102841538
aS'+'
asS'MIR3170'
p962
(lp963
I98208523
aI98208600
aS'+'
asS'KLHL1'
p964
(lp965
I69700592
aI70108493
aS'-'
asS'MIR623'
p966
(lp967
I99356130
aI99356228
aS'+'
asS'CAB39L'
p968
(lp969
I49308649
aI49444126
aS'-'
asS'KCTD12'
p970
(lp971
I76880168
aI76886405
aS'-'
asS'LINC00434'
p972
(lp973
I60214346
aI60268104
aS'-'
asS'FBXL3'
p974
(lp975
I77005253
aI77027196
aS'-'
asS'LINC00437'
p976
(lp977
I38531999
aI38686675
aS'-'
asS'LINC00430'
p978
(lp979
I86911919
aI86936807
aS'+'
asS'LINC00431'
p980
(lp981
I110966026
aI110990602
aS'+'
asS'EPSTI1'
p982
(lp983
I42886387
aI42992312
aS'-'
asS'LINC00433'
p984
(lp985
I88540828
aI88545509
aS'+'
asS'UBAC2-AS1'
p986
(lp987
I99196373
aI99200757
aS'-'
asS'LINC01075'
p988
(lp989
I62212281
aI62249951
aS'+'
asS'RNF6'
p990
(lp991
I26132114
aI26222371
aS'-'
asS'LINC00539'
p992
(lp993
I21303511
aI21344859
aS'-'
asS'LOC101927437'
p994
(lp995
I99740869
aI99957165
aS'-'
asS'PABPC3'
p996
(lp997
I25096137
aI25098566
aS'+'
asS'DCLK1'
p998
(lp999
I35768651
aI36132020
aS'-'
asS'SNORA31'
p1000
(lp1001
I45337479
aI45337609
aS'-'
asS'SLC7A1'
p1002
(lp1003
I29509413
aI29595688
aS'-'
asS'MIR16-1'
p1004
(lp1005
I50048972
aI50049061
aS'-'
asS'SLAIN1'
p1006
(lp1007
I77697853
aI77764242
aS'+'
asS'UBE2L5'
p1008
(lp1009
I30422487
aI30429777
aS'+'
asS'SLC25A30'
p1010
(lp1011
I45393318
aI45418455
aS'-'
asS'SPRYD7'
p1012
(lp1013
I49912701
aI49936501
aS'-'
asS'LRRC63'
p1014
(lp1015
I46211927
aI46277115
aS'+'
asS'MIR548AS'
p1016
(lp1017
I92490162
aI92490220
aS'+'
asS'KBTBD7'
p1018
(lp1019
I41189833
aI41194584
aS'-'
asS'KBTBD6'
p1020
(lp1021
I41127572
aI41132800
aS'-'
asS'LOC100129307'
p1022
(lp1023
I77661373
aI77662803
aS'-'
asS'AMER2'
p1024
(lp1025
I25161678
aI25172283
aS'-'
asS'LOC112268117'
p1026
(lp1027
I46458063
aI46459185
aS'-'
asS'SOHLH2'
p1028
(lp1029
I36168207
aI36214615
aS'-'
asS'ABHD13'
p1030
(lp1031
I108218414
aI108234255
aS'+'
asS'LINC00449'
p1032
(lp1033
I99499722
aI99501063
aS'-'
asS'LINC00448'
p1034
(lp1035
I62672284
aI62796692
aS'-'
asS'NBEA'
p1036
(lp1037
I34942286
aI35672736
aS'+'
asS'HTR2A'
p1038
(lp1039
I46831541
aI46897076
aS'-'
asS'LINC00327'
p1040
(lp1041
I23469511
aI23487464
aS'+'
asS'LINC00440'
p1042
(lp1043
I89235290
aI89280240
aS'+'
asS'LINC00443'
p1044
(lp1045
I106653879
aI106672180
aS'+'
asS'LINC00442'
p1046
(lp1047
I19008258
aI19012634
aS'+'
asS'LINC00445'
p1048
(lp1049
I35697726
aI35699255
aS'+'
asS'LINC00446'
p1050
(lp1051
I78012882
aI78053595
aS'+'
asS'SPATA13'
p1052
(lp1053
I23979625
aI24307074
aS'+'
asS'MTRF1'
p1054
(lp1055
I41216368
aI41312038
aS'-'
asS'LNX2'
p1056
(lp1057
I27545912
aI27620583
aS'-'
asS'RASL11A'
p1058
(lp1059
I27270326
aI27273690
aS'+'
asS'LOC100288208'
p1060
(lp1061
I74412956
aI74419115
aS'-'
asS'C13orf42'
p1062
(lp1063
I51082847
aI51172388
aS'-'
asS'DCUN1D2'
p1064
(lp1065
I113455818
aI113490711
aS'-'
asS'SNORD102'
p1066
(lp1067
I27255063
aI27255135
aS'+'
asS'C13orf46'
p1068
(lp1069
I113956425
aI113974076
aS'-'
asS'FGF9'
p1070
(lp1071
I21671075
aI21704501
aS'+'
asS'RFXAP'
p1072
(lp1073
I36819201
aI36829603
aS'+'
asS'GPC6-AS1'
p1074
(lp1075
I94154192
aI94187991
aS'-'
asS'PCID2'
p1076
(lp1077
I113177538
aI113208920
aS'-'
asS'GTF3A'
p1078
(lp1079
I27424543
aI27435709
aS'+'
asS'ITM2B'
p1080
(lp1081
I48233205
aI48270354
aS'+'
asS'LINC02337'
p1082
(lp1083
I111596008
aI111642079
aS'+'
asS'GPC6-AS2'
p1084
(lp1085
I93818423
aI93858473
aS'-'
asS'LINC02333'
p1086
(lp1087
I52334294
aI52341883
aS'+'
asS'IPO5'
p1088
(lp1089
I97953674
aI98024328
aS'+'
asS'LINC02339'
p1090
(lp1091
I61424688
aI61427946
aS'-'
asS'LINC02338'
p1092
(lp1093
I58165826
aI58209483
aS'+'
asS'GAS6'
p1094
(lp1095
I113820548
aI113864103
aS'-'
asS'CLDN10'
p1096
(lp1097
I95433598
aI95579756
aS'+'
asS'CARS2'
p1098
(lp1099
I110641409
aI110706515
aS'-'
asS'MIR4499'
p1100
(lp1101
I20433777
aI20433846
aS'-'
asS'SACS'
p1102
(lp1103
I23328822
aI23433728
aS'-'
asS'FAM155A-IT1'
p1104
(lp1105
I107787360
aI107835458
aS'-'
asS'SMIM2'
p1106
(lp1107
I44143150
aI44161257
aS'-'
asS'SGCG'
p1108
(lp1109
I23180920
aI23325165
aS'+'
asS'LOC102723345'
p1110
(lp1111
I29647692
aI29655475
aS'+'
asS'MRPS31'
p1112
(lp1113
I40729295
aI40771211
aS'-'
asS'OXGR1'
p1114
(lp1115
I96985718
aI96994730
aS'-'
asS'FGF14'
p1116
(lp1117
I101720854
aI102402428
aS'-'
asS'RAP2A'
p1118
(lp1119
I97434220
aI97467998
aS'+'
asS'POMP'
p1120
(lp1121
I28659003
aI28678956
aS'+'
asS'SIAH3'
p1122
(lp1123
I45780280
aI45851711
aS'-'
asS'ATP8A2'
p1124
(lp1125
I25371973
aI26025851
aS'+'
asS'ATP12A'
p1126
(lp1127
I24680410
aI24711785
aS'+'
asS'DIS3'
p1128
(lp1129
I72755401
aI72782128
aS'-'
asS'PCOTH'
p1130
(lp1131
I23888886
aI23892104
aS'+'
asS'CSNK1A1L'
p1132
(lp1133
I37103259
aI37105664
aS'-'
asS'VPS36'
p1134
(lp1135
I52412601
aI52450678
aS'-'
asS'TPTE2'
p1136
(lp1137
I19422878
aI19561574
aS'-'
asS'SPERT'
p1138
(lp1139
I45702303
aI45714559
aS'+'
asS'STOML3'
p1140
(lp1141
I38965924
aI38990859
aS'-'
asS'DIAPH3-AS1'
p1142
(lp1143
I60012717
aI60044356
aS'+'
asS'DIAPH3-AS2'
p1144
(lp1145
I60144697
aI60153505
aS'+'
asS'LINC01046'
p1146
(lp1147
I21234567
aI21235204
aS'+'
asS'TPTE2P3'
p1148
(lp1149
I52488992
aI52587090
aS'+'
asS'LINC01044'
p1150
(lp1151
I112322566
aI112331225
aS'-'
asS'TPTE2P1'
p1152
(lp1153
I24928754
aI24968469
aS'-'
asS'TPTE2P6'
p1154
(lp1155
I24580207
aI24597674
aS'+'
asS'LINC01043'
p1156
(lp1157
I112313466
aI112321766
aS'+'
asS'LINC01040'
p1158
(lp1159
I89477606
aI89500509
aS'-'
asS'TPTE2P5'
p1160
(lp1161
I40796985
aI40921750
aS'-'
asS'LINC01048'
p1162
(lp1163
I37481464
aI37484784
aS'-'
asS'LINC01049'
p1164
(lp1165
I90493287
aI90535341
aS'+'
asS'KCTD4'
p1166
(lp1167
I45192852
aI45201040
aS'-'
asS'TEX30'
p1168
(lp1169
I102765887
aI102773821
aS'-'
asS'LATS2'
p1170
(lp1171
I20973035
aI21061583
aS'-'
asS'ELF1'
p1172
(lp1173
I40931918
aI41019372
aS'-'
asS'LINC00567'
p1174
(lp1175
I110809675
aI110813084
aS'-'
asS'ZMYM5'
p1176
(lp1177
I19823483
aI19863636
aS'-'
asS'MYO16-AS1'
p1178
(lp1179
I109163904
aI109167303
aS'-'
asS'LINC00368'
p1180
(lp1181
I111095837
aI111105890
aS'+'
asS'SLC25A30-AS1'
p1182
(lp1183
I45418161
aI45420371
aS'+'
asS'LINC00364'
p1184
(lp1185
I67372386
aI67379994
aS'+'
asS'LINC00365'
p1186
(lp1187
I30103177
aI30108875
aS'-'
asS'LINC00366'
p1188
(lp1189
I38567723
aI38579516
aS'+'
asS'LINC00367'
p1190
(lp1191
I20938563
aI20949428
aS'-'
asS'SNORD31B'
p1192
(lp1193
I107320894
aI107320963
aS'-'
asS'FAM155A'
p1194
(lp1195
I107168530
aI107867112
aS'-'
asS'LINC00407'
p1196
(lp1197
I44640368
aI44701016
aS'+'
asS'LINC00400'
p1198
(lp1199
I43113164
aI43159466
aS'+'
asS'CDX2'
p1200
(lp1201
I27960917
aI27969368
aS'-'
asS'LINC00402'
p1202
(lp1203
I74231443
aI74259976
aS'+'
asS'LINC00562'
p1204
(lp1205
I47930152
aI47932622
aS'-'
asS'LINC00563'
p1206
(lp1207
I46296444
aI46297844
aS'-'
asS'LINC00560'
p1208
(lp1209
I88626852
aI88630397
aS'+'
asS'LINC00561'
p1210
(lp1211
I75932397
aI75935132
aS'-'
asS'LINC00566'
p1212
(lp1213
I24331449
aI24337120
aS'+'
asS'LINC00408'
p1214
(lp1215
I18905438
aI18926741
aS'+'
asS'LINC00564'
p1216
(lp1217
I81225865
aI81226983
aS'-'
asS'LINC00565'
p1218
(lp1219
I113926513
aI113928991
aS'-'
asS'SPATA13-AS1'
p1220
(lp1221
I24252748
aI24254439
aS'-'
asS'HNRNPA1L2'
p1222
(lp1223
I52617469
aI52643784
aS'+'
asS'LOC112268114'
p1224
(lp1225
I94712719
aI94713443
aS'-'
asS'LOC107984132'
p1226
(lp1227
I19074033
aI19118283
aS'-'
asS'DLEU7-AS1'
p1228
(lp1229
I50807854
aI50849905
aS'+'
asS'LOC105370306'
p1230
(lp1231
I88142866
aI88236082
aS'+'
asS'USP12'
p1232
(lp1233
I27066149
aI27171896
aS'-'
asS'POU4F1'
p1234
(lp1235
I78599094
aI78603560
aS'-'
asS'NEK5'
p1236
(lp1237
I52033610
aI52129073
aS'-'
asS'GPC5'
p1238
(lp1239
I91398618
aI92867234
aS'+'
asS'GPC6'
p1240
(lp1241
I93226807
aI94408019
aS'+'
asS'DACH1'
p1242
(lp1243
I71437965
aI71867204
aS'-'
asS'RASA3'
p1244
(lp1245
I113977782
aI114132623
aS'-'
asS'PCDH8'
p1246
(lp1247
I52843973
aI52848640
aS'-'
asS'PCDH9'
p1248
(lp1249
I66302833
aI67230336
aS'-'
asS'C1QTNF9'
p1250
(lp1251
I24307165
aI24322531
aS'+'
asS'USPL1'
p1252
(lp1253
I30617678
aI30660770
aS'+'
asS'UPF3A'
p1254
(lp1255
I114281583
aI114305816
aS'+'
asS'LOC101060553'
p1256
(lp1257
I111148196
aI111153577
aS'-'
asS'INTS6-AS1'
p1258
(lp1259
I51453344
aI51454715
aS'+'
asS'LINC00411'
p1260
(lp1261
I100939520
aI100944364
aS'-'
asS'SOX21-AS1'
p1262
(lp1263
I94712715
aI94715945
aS'+'
as.