(dp1
S'FAM83C-AS1'
p2
(lp3
I35285250
aI35285772
aS'+'
asS'PCSK2'
p4
(lp5
I17226106
aI17484577
aS'+'
asS'REM1'
p6
(lp7
I31475287
aI31484905
aS'+'
asS'JPH2'
p8
(lp9
I44111696
aI44187578
aS'-'
asS'AP5S1'
p10
(lp11
I3820523
aI3825307
aS'+'
asS'BPIFB1'
p12
(lp13
I33283134
aI33309878
aS'+'
asS'DEFB118'
p14
(lp15
I31368617
aI31373902
aS'+'
asS'BPIFB4'
p16
(lp17
I33081511
aI33111751
aS'+'
asS'DEFB119'
p18
(lp19
I31377162
aI31390649
aS'-'
asS'LOC388780'
p20
(lp21
I2206927
aI2213151
aS'+'
asS'SAMD10'
p22
(lp23
I63974112
aI63979642
aS'-'
asS'CASS4'
p24
(lp25
I56412111
aI56459340
aS'+'
asS'PRNT'
p26
(lp27
I4731281
aI4740668
aS'-'
asS'PRNP'
p28
(lp29
I4686093
aI4701590
aS'+'
asS'COMMD7'
p30
(lp31
I32702690
aI32744008
aS'-'
asS'LINC01260'
p32
(lp33
I44656450
aI44671739
aS'-'
asS'SEMG1'
p34
(lp35
I45206963
aI45209773
aS'+'
asS'RNF114'
p36
(lp37
I49936376
aI49953885
aS'+'
asS'SEMG2'
p38
(lp39
I45221368
aI45224458
aS'+'
asS'SPTLC3'
p40
(lp41
I13008953
aI13166764
aS'+'
asS'LOC100130373'
p42
(lp43
I36147280
aI36155760
aS'-'
asS'ZSWIM3'
p44
(lp45
I45857580
aI45879130
aS'+'
asS'PRND'
p46
(lp47
I4721908
aI4728460
aS'+'
asS'LOC102606466'
p48
(lp49
I12934877
aI12936963
aS'-'
asS'SIRPG'
p50
(lp51
I1629151
aI1657779
aS'-'
asS'SIRPD'
p52
(lp53
I1534250
aI1557697
aS'-'
asS'SIRPA'
p54
(lp55
I1894166
aI1939894
aS'+'
asS'LOC100131496'
p56
(lp57
I47318501
aI47320754
aS'+'
asS'LNCNEF'
p58
(lp59
I22587521
aI22607517
aS'-'
asS'ERGIC3'
p60
(lp61
I35542028
aI35557634
aS'+'
asS'MACROD2-AS1'
p62
(lp63
I14884252
aI14929518
aS'-'
asS'STK4'
p64
(lp65
I44966469
aI45079977
aS'+'
asS'MACROD2'
p66
(lp67
I13995499
aI16053196
aS'+'
asS'MIR103B2'
p68
(lp69
I3917501
aI3917563
aS'-'
asS'OSBPL2'
p70
(lp71
I62238484
aI62296213
aS'+'
asS'GATA5'
p72
(lp73
I62463496
aI62475995
aS'-'
asS'OCSTAMP'
p74
(lp75
I46541030
aI46550574
aS'-'
asS'FAM242B'
p76
(lp77
I29548718
aI29560475
aS'+'
asS'SLC17A9'
p78
(lp79
I62952646
aI62968597
aS'+'
asS'SNAP25'
p80
(lp81
I10218797
aI10307420
aS'+'
asS'LINC01729'
p82
(lp83
I5507874
aI5510002
aS'-'
asS'LINC01728'
p84
(lp85
I43894717
aI43895471
aS'+'
asS'ADRA1D'
p86
(lp87
I4220630
aI4249012
aS'-'
asS'TTI1'
p88
(lp89
I37983006
aI38033468
aS'-'
asS'HM13-AS1'
p90
(lp91
I31567586
aI31573263
aS'-'
asS'LINC01723'
p92
(lp93
I12950339
aI12951627
aS'+'
asS'LINC01722'
p94
(lp95
I12865203
aI12952519
aS'-'
asS'LINC01721'
p96
(lp97
I24199766
aI24224588
aS'+'
asS'LINC01727'
p98
(lp99
I21570023
aI21615722
aS'+'
asS'ARFRP1'
p100
(lp101
I63698641
aI63708013
aS'-'
asS'KIZ-AS1'
p102
(lp103
I21194403
aI21218289
aS'-'
asS'TCF15'
p104
(lp105
I603992
aI610266
aS'-'
asS'ZGPAT'
p106
(lp107
I63707441
aI63736142
aS'+'
asS'CASC20'
p108
(lp109
I6426731
aI6528459
aS'+'
asS'LOC105379477'
p110
(lp111
I29448516
aI29458181
aS'+'
asS'ABALON'
p112
(lp113
I31721506
aI31723409
aS'+'
asS'MIR4477B'
p114
(lp115
I29880383
aI29880463
aS'+'
asS'MIR4477A'
p116
(lp117
I29880383
aI29880463
aS'-'
asS'LSM14B'
p118
(lp119
I62122474
aI62135372
aS'+'
asS'NRSN2'
p120
(lp121
I346725
aI354868
aS'+'
asS'EPPIN'
p122
(lp123
I45540625
aI45547426
aS'-'
asS'MIR6812'
p124
(lp125
I45425509
aI45425573
aS'+'
asS'MIR6813'
p126
(lp127
I64076954
aI64077010
aS'-'
asS'LOC100128988'
p128
(lp129
I40980712
aI41025396
aS'+'
asS'MOCS3'
p130
(lp131
I50958813
aI50961862
aS'+'
asS'MIR1257'
p132
(lp133
I61953545
aI61953662
aS'-'
asS'SOX18'
p134
(lp135
I64047725
aI64049626
aS'-'
asS'PANK2'
p136
(lp137
I3888838
aI3929882
aS'+'
asS'DLGAP4-AS1'
p138
(lp139
I36507701
aI36573275
aS'-'
asS'SOX12'
p140
(lp141
I325570
aI330228
aS'+'
asS'MIR548O2'
p142
(lp143
I38516562
aI38516632
aS'+'
asS'TBC1D20'
p144
(lp145
I435476
aI462553
aS'-'
asS'VSX1'
p146
(lp147
I25070885
aI25082379
aS'-'
asS'HRH3'
p148
(lp149
I62214960
aI62220267
aS'-'
asS'LINC00687'
p150
(lp151
I11809986
aI11870715
aS'-'
asS'MIR941-4'
p152
(lp153
I63919560
aI63919632
aS'+'
asS'GGTLC1'
p154
(lp155
I23985052
aI23988779
aS'-'
asS'HMGB3P1'
p156
(lp157
I34833574
aI34834462
aS'-'
asS'MLLT10P1'
p158
(lp159
I30402907
aI30403462
aS'-'
asS'KCNK15'
p160
(lp161
I44745846
aI44752313
aS'+'
asS'KCNQ2'
p162
(lp163
I63400213
aI63472677
aS'-'
asS'LINC01427'
p164
(lp165
I22280228
aI22282801
aS'-'
asS'STK4-AS1'
p166
(lp167
I44963798
aI44966458
aS'-'
asS'HCK'
p168
(lp169
I32052187
aI32101854
aS'+'
asS'THBD'
p170
(lp171
I23045632
aI23049664
aS'-'
asS'LINC01428'
p172
(lp173
I7146466
aI7254202
aS'-'
asS'LINC01429'
p174
(lp175
I51831796
aI51862913
aS'-'
asS'SNRPB2'
p176
(lp177
I16729963
aI16741772
aS'+'
asS'WFDC8'
p178
(lp179
I45551151
aI45579326
aS'-'
asS'DNAJC5'
p180
(lp181
I63895101
aI63936031
aS'+'
asS'TMEM74B'
p182
(lp183
I1180560
aI1185433
aS'-'
asS'DZANK1'
p184
(lp185
I18383366
aI18467185
aS'-'
asS'MIR6869'
p186
(lp187
I1392899
aI1392961
aS'-'
asS'PDRG1'
p188
(lp189
I31944954
aI31952080
aS'-'
asS'SIRPB2'
p190
(lp191
I1474590
aI1491587
aS'-'
asS'EFCAB8'
p192
(lp193
I32858922
aI32961609
aS'+'
asS'SIRPB1'
p194
(lp195
I1564382
aI1620094
aS'-'
asS'LINC00266-1'
p196
(lp197
I64290384
aI64303354
aS'+'
asS'GHRH'
p198
(lp199
I37251085
aI37256908
aS'-'
asS'SYS1'
p200
(lp201
I45363099
aI45376802
aS'+'
asS'VAPB'
p202
(lp203
I58389118
aI58451100
aS'+'
asS'SLC2A10'
p204
(lp205
I46709639
aI46736346
aS'+'
asS'ZNF831'
p206
(lp207
I59191019
aI59259112
aS'+'
asS'LINC00851'
p208
(lp209
I18379048
aI18381483
aS'+'
asS'SNORA60'
p210
(lp211
I38449368
aI38449504
aS'+'
asS'NCOA3'
p212
(lp213
I47501856
aI47656877
aS'+'
asS'NCOA6'
p214
(lp215
I34714773
aI34825649
aS'-'
asS'GNAS-AS1'
p216
(lp217
I58818917
aI58850903
aS'-'
asS'NCOA5'
p218
(lp219
I46060994
aI46089962
aS'-'
asS'RAD21L1'
p220
(lp221
I1226119
aI1254501
aS'+'
asS'WFDC5'
p222
(lp223
I45109451
aI45115172
aS'-'
asS'LOC100270804'
p224
(lp225
I18794048
aI18796065
aS'+'
asS'SDC4'
p226
(lp227
I45325288
aI45348424
aS'-'
asS'WFDC10B'
p228
(lp229
I45684650
aI45705019
aS'-'
asS'TM9SF4'
p230
(lp231
I32109505
aI32167258
aS'+'
asS'WFDC10A'
p232
(lp233
I45629745
aI45631192
aS'+'
asS'NCOR1P1'
p234
(lp235
I26103415
aI26114041
aS'-'
asS'RIMS4'
p236
(lp237
I44751803
aI44810338
aS'-'
asS'SLCO4A1'
p238
(lp239
I62642444
aI62672295
aS'+'
asS'EEF1A2'
p240
(lp241
I63488011
aI63499315
aS'-'
asS'NAPB'
p242
(lp243
I23374518
aI23421519
aS'-'
asS'DBNDD2'
p244
(lp245
I45405992
aI45410610
aS'+'
asS'LOC101928048'
p246
(lp247
I60469608
aI60472976
aS'-'
asS'LAMA5'
p248
(lp249
I62309059
aI62367312
aS'-'
asS'TCFL5'
p250
(lp251
I62841013
aI62861763
aS'-'
asS'MYLK2'
p252
(lp253
I31819374
aI31834697
aS'+'
asS'COX4I2'
p254
(lp255
I31637887
aI31644997
aS'+'
asS'TAF4'
p256
(lp257
I61974797
aI62065810
aS'-'
asS'SNORD154'
p258
(lp259
I40714571
aI40714623
aS'-'
asS'RNF24'
p260
(lp261
I3927308
aI4015591
aS'-'
asS'MIR644A'
p262
(lp263
I34466324
aI34466418
aS'+'
asS'LOC100134868'
p264
(lp265
I26009798
aI26023267
aS'+'
asS'C20orf204'
p266
(lp267
I64033726
aI64039001
aS'+'
asS'C20orf203'
p268
(lp269
I32631624
aI32673941
aS'-'
asS'C20orf202'
p270
(lp271
I1203453
aI1208274
aS'+'
asS'MMP24-AS1-EDEM2'
p272
(lp273
I35115356
aI35278178
aS'-'
asS'BPIFA2'
p274
(lp275
I33161847
aI33181417
aS'+'
asS'BPIFA3'
p276
(lp277
I33217309
aI33227806
aS'+'
asS'BPIFA1'
p278
(lp279
I33235995
aI33243309
aS'+'
asS'FITM2'
p280
(lp281
I44302839
aI44311202
aS'-'
asS'BANF2'
p282
(lp283
I17693674
aI17735872
aS'+'
asS'LKAAEAR1'
p284
(lp285
I64083379
aI64084359
aS'-'
asS'SSTR4'
p286
(lp287
I23035419
aI23036677
aS'+'
asS'ATP5F1E'
p288
(lp289
I59028677
aI59032367
aS'-'
asS'CDK5RAP1'
p290
(lp291
I33358838
aI33401569
aS'-'
asS'LOC149684'
p292
(lp293
I38260174
aI38288946
aS'+'
asS'TRPC4AP'
p294
(lp295
I35002403
aI35092815
aS'-'
asS'ITCH'
p296
(lp297
I34363234
aI34511773
aS'+'
asS'HNF4A'
p298
(lp299
I44355800
aI44432845
aS'+'
asS'CHMP4B'
p300
(lp301
I33811347
aI33854366
aS'+'
asS'PLCG1'
p302
(lp303
I41137520
aI41175717
aS'+'
asS'LINC00489'
p304
(lp305
I37619297
aI37623119
aS'-'
asS'MC3R'
p306
(lp307
I56248731
aI56249815
aS'+'
asS'MIR499A'
p308
(lp309
I34990375
aI34990497
aS'+'
asS'LOC643406'
p310
(lp311
I5471195
aI5477134
aS'+'
asS'EIF2S2'
p312
(lp313
I34088297
aI34112356
aS'-'
asS'SCP2D1'
p314
(lp315
I18813725
aI18814391
aS'+'
asS'MIR4533'
p316
(lp317
I60478110
aI60478181
aS'+'
asS'LPIN3'
p318
(lp319
I41340852
aI41360585
aS'+'
asS'SULF2'
p320
(lp321
I47657405
aI47786616
aS'-'
asS'GZF1'
p322
(lp323
I23362131
aI23373061
aS'+'
asS'LBP'
p324
(lp325
I38346410
aI38377011
aS'+'
asS'MTRNR2L3'
p326
(lp327
I57358439
aI57359822
aS'-'
asS'JAG1'
p328
(lp329
I10637683
aI10673999
aS'-'
asS'ISM1'
p330
(lp331
I13221770
aI13300650
aS'+'
asS'ASIP'
p332
(lp333
I34260364
aI34269342
aS'+'
asS'TLDC2'
p334
(lp335
I36876120
aI36894231
aS'+'
asS'MIR647'
p336
(lp337
I63942630
aI63942726
aS'-'
asS'TTLL9'
p338
(lp339
I31870636
aI31944967
aS'+'
asS'SLC24A3'
p340
(lp341
I19212645
aI19722897
aS'+'
asS'BFSP1'
p342
(lp343
I17493904
aI17569220
aS'-'
asS'ANKEF1'
p344
(lp345
I10034998
aI10056762
aS'+'
asS'TP53TG5'
p346
(lp347
I45373879
aI45378317
aS'-'
asS'ZSWIM1'
p348
(lp349
I45881208
aI45885266
aS'+'
asS'MMP24'
p350
(lp351
I35226735
aI35277001
aS'+'
asS'MIR646'
p352
(lp353
I60308473
aI60308567
aS'+'
asS'FNDC11'
p354
(lp355
I63553019
aI63556707
aS'+'
asS'LINC01742'
p356
(lp357
I58003903
aI58004648
aS'+'
asS'E2F1'
p358
(lp359
I33675485
aI33686404
aS'-'
asS'ZNFX1'
p360
(lp361
I49245900
aI49278219
aS'-'
asS'FLRT3'
p362
(lp363
I14322984
aI14337612
aS'-'
asS'LOC105372653'
p364
(lp365
I49915821
aI49928821
aS'+'
asS'SLMO2-ATP5E'
p366
(lp367
I59028677
aI59042846
aS'-'
asS'RPN2'
p368
(lp369
I37179045
aI37241622
aS'+'
asS'TGM3'
p370
(lp371
I2295966
aI2341079
aS'+'
asS'MIR4756'
p372
(lp373
I54068407
aI54068485
aS'-'
asS'TGM6'
p374
(lp375
I2380907
aI2432753
aS'+'
asS'MIR4758'
p376
(lp377
I62332486
aI62332557
aS'-'
asS'TNNC2'
p378
(lp379
I45823215
aI45827314
aS'-'
asS'FKBP1A-SDCBP2'
p380
(lp381
I1309910
aI1393172
aS'-'
asS'MKRN7P'
p382
(lp383
I46463659
aI46465292
aS'-'
asS'R3HDML'
p384
(lp385
I44337157
aI44350792
aS'+'
asS'PRPF6'
p386
(lp387
I63981131
aI64033100
aS'+'
asS'C20orf96'
p388
(lp389
I270862
aI290778
aS'-'
asS'FAM182B'
p390
(lp391
I25763452
aI25796108
aS'-'
asS'CFAP61'
p392
(lp393
I20052513
aI20360702
aS'+'
asS'FAM182A'
p394
(lp395
I26054613
aI26086917
aS'+'
asS'SLC12A5'
p396
(lp397
I46021689
aI46060150
aS'+'
asS'LOC100506384'
p398
(lp399
I59626463
aI59628289
aS'-'
asS'PROKR2'
p400
(lp401
I5301199
aI5316732
aS'-'
asS'GTSF1L'
p402
(lp403
I43726160
aI43727002
aS'-'
asS'MKKS'
p404
(lp405
I10404779
aI10434239
aS'-'
asS'ZFP64'
p406
(lp407
I52084010
aI52191985
aS'-'
asS'MIR1302-5'
p408
(lp409
I50614635
aI50614785
aS'-'
asS'CDH4'
p410
(lp411
I61252425
aI61940617
aS'+'
asS'UBE2V1'
p412
(lp413
I50081123
aI50115959
aS'-'
asS'MYT1'
p414
(lp415
I64164473
aI64242253
aS'+'
asS'MIR1-1HG-AS1'
p416
(lp417
I62543069
aI62551561
aS'-'
asS'IFT52'
p418
(lp419
I43590612
aI43647296
aS'+'
asS'PLCB1-IT1'
p420
(lp421
I8248703
aI8249741
aS'+'
asS'UCKL1-AS1'
p422
(lp423
I63953383
aI63956985
aS'+'
asS'CENPB'
p424
(lp425
I3783850
aI3786690
aS'-'
asS'SCAND1'
p426
(lp427
I35953616
aI35955359
aS'-'
asS'EDEM2'
p428
(lp429
I35115356
aI35147358
aS'-'
asS'APCDD1L'
p430
(lp431
I58459100
aI58514938
aS'-'
asS'BPIFB3'
p432
(lp433
I33055330
aI33073637
aS'+'
asS'SNAI1'
p434
(lp435
I49982975
aI49988883
aS'+'
asS'LINC01523'
p436
(lp437
I47983225
aI47984313
aS'+'
asS'DYNLRB1'
p438
(lp439
I34516383
aI34540958
aS'+'
asS'LINC01524'
p440
(lp441
I52620837
aI52650426
aS'+'
asS'SLX4IP'
p442
(lp443
I10435302
aI10628034
aS'+'
asS'UCKL1'
p444
(lp445
I63939828
aI63956447
aS'-'
asS'SYS1-DBNDD2'
p446
(lp447
I45363168
aI45410610
aS'+'
asS'TSPY26P'
p448
(lp449
I32189145
aI32190360
aS'-'
asS'PLAGL2'
p450
(lp451
I32192503
aI32207743
aS'-'
asS'PAK5'
p452
(lp453
I9537389
aI9839039
aS'-'
asS'LOC100130264'
p454
(lp455
I19242301
aI19284596
aS'-'
asS'LOC284798'
p456
(lp457
I25140797
aI25148790
aS'-'
asS'ELMO2'
p458
(lp459
I46366044
aI46407051
aS'-'
asS'TASP1'
p460
(lp461
I13389388
aI13638936
aS'-'
asS'PPP1R3D'
p462
(lp463
I59936831
aI59940297
aS'-'
asS'NFATC2'
p464
(lp465
I51386956
aI51562831
aS'-'
asS'PCED1A'
p466
(lp467
I2835314
aI2841243
aS'-'
asS'ADNP'
p468
(lp469
I50888917
aI50931213
aS'-'
asS'SNX5'
p470
(lp471
I17941595
aI17968991
aS'-'
asS'KCNG1'
p472
(lp473
I51003655
aI51023138
aS'-'
asS'SERINC3'
p474
(lp475
I44496220
aI44522116
aS'-'
asS'LINC01726'
p476
(lp477
I21610786
aI21703585
aS'-'
asS'YTHDF1'
p478
(lp479
I63195429
aI63216186
aS'-'
asS'MIR1825'
p480
(lp481
I32237794
aI32237847
aS'+'
asS'TRIB3'
p482
(lp483
I380628
aI397559
aS'+'
asS'FRG1CP'
p484
(lp485
I28580632
aI28602665
aS'-'
asS'MIR3617'
p486
(lp487
I45705101
aI45705180
aS'-'
asS'DHX35'
p488
(lp489
I38962337
aI39039723
aS'+'
asS'DEFB116'
p490
(lp491
I31303211
aI31308585
aS'-'
asS'DEFB115'
p492
(lp493
I31257663
aI31259632
aS'+'
asS'LINC01734'
p494
(lp495
I39213780
aI39224748
aS'-'
asS'LINC00237'
p496
(lp497
I21087603
aI21106358
aS'-'
asS'HAR1A'
p498
(lp499
I63101291
aI63104386
aS'+'
asS'LINC01730'
p500
(lp501
I3808493
aI3812434
aS'+'
asS'FRG1DP'
p502
(lp503
I29080389
aI29096832
aS'+'
asS'LINC01733'
p504
(lp505
I25955811
aI25969288
aS'+'
asS'SRMS'
p506
(lp507
I63539923
aI63547504
aS'-'
asS'KAT14'
p508
(lp509
I18142223
aI18188387
aS'+'
asS'PLTP'
p510
(lp511
I45898619
aI45912364
aS'-'
asS'RRBP1'
p512
(lp513
I17613677
aI17682283
aS'-'
asS'ANGPT4'
p514
(lp515
I869898
aI916334
aS'-'
asS'SHLD1'
p516
(lp517
I5750386
aI5864407
aS'+'
asS'OXT'
p518
(lp519
I3071619
aI3072517
aS'+'
asS'LOC101927138'
p520
(lp521
I42968742
aI42971492
aS'+'
asS'MIR298'
p522
(lp523
I58818225
aI58818313
aS'-'
asS'PMEPA1'
p524
(lp525
I57648391
aI57711536
aS'-'
asS'CD40'
p526
(lp527
I46118253
aI46129745
aS'+'
asS'MIR3194'
p528
(lp529
I51452904
aI51452977
aS'-'
asS'MIR3195'
p530
(lp531
I62064801
aI62064885
aS'+'
asS'MIR3196'
p532
(lp533
I63238778
aI63238842
aS'+'
asS'KCNK15-AS1'
p534
(lp535
I44711861
aI44746227
aS'-'
asS'MIR3192'
p536
(lp537
I18470614
aI18470691
aS'+'
asS'MIR3193'
p538
(lp539
I31607185
aI31607240
aS'+'
asS'LOC105372695'
p540
(lp541
I58773424
aI58774811
aS'+'
asS'RALY'
p542
(lp543
I33993910
aI34084884
aS'+'
asS'PARAL1'
p544
(lp545
I9986332
aI10007116
aS'+'
asS'RIPOR3'
p546
(lp547
I50586109
aI50691530
aS'-'
asS'CD93'
p548
(lp549
I23079355
aI23086340
aS'-'
asS'LINC01749'
p550
(lp551
I63009382
aI63085071
aS'+'
asS'C20orf141'
p552
(lp553
I2814986
aI2815830
aS'+'
asS'LOC100287792'
p554
(lp555
I37676909
aI37683234
aS'+'
asS'C20orf144'
p556
(lp557
I33662326
aI33663908
aS'+'
asS'DDRGK1'
p558
(lp559
I3190349
aI3204697
aS'-'
asS'SNX21'
p560
(lp561
I45833830
aI45843275
aS'+'
asS'RNU105B'
p562
(lp563
I8831184
aI8831393
aS'+'
asS'LINC01747'
p564
(lp565
I22667292
aI22685344
aS'-'
asS'ZNF337'
p566
(lp567
I25673194
aI25696853
aS'-'
asS'ZNF334'
p568
(lp569
I46499629
aI46513572
aS'-'
asS'ZNF335'
p570
(lp571
I45948652
aI45972194
aS'-'
asS'APCDD1L-DT'
p572
(lp573
I58515378
aI58619892
aS'+'
asS'MMP24OS'
p574
(lp575
I35276332
aI35278178
aS'-'
asS'TMC2'
p576
(lp577
I2536606
aI2641784
aS'+'
asS'SIRPG-AS1'
p578
(lp579
I1633507
aI1648473
aS'+'
asS'LOC729296'
p580
(lp581
I60087685
aI60101387
aS'+'
asS'ADAM33'
p582
(lp583
I3667964
aI3682690
aS'-'
asS'MIR645'
p584
(lp585
I50585785
aI50585879
aS'+'
asS'PPDPF'
p586
(lp587
I63520740
aI63522171
aS'+'
asS'TRMT6'
p588
(lp589
I5937832
aI5950558
aS'-'
asS'TTPAL'
p590
(lp591
I44475885
aI44494603
aS'+'
asS'FASTKD5'
p592
(lp593
I3146518
aI3159886
aS'-'
asS'MIR6870'
p594
(lp595
I10649635
aI10649695
aS'-'
asS'MIR6871'
p596
(lp597
I41169022
aI41169078
aS'+'
asS'ZNF341'
p598
(lp599
I33731759
aI33792269
aS'+'
asS'RTEL1'
p600
(lp601
I63657809
aI63696253
aS'+'
asS'ZNF343'
p602
(lp603
I2481820
aI2524522
aS'-'
asS'CST8'
p604
(lp605
I23491100
aI23496018
aS'+'
asS'CST9'
p606
(lp607
I23602409
aI23605973
aS'-'
asS'CST2'
p608
(lp609
I23823766
aI23826675
aS'-'
asS'CST3'
p610
(lp611
I23627896
aI23638048
aS'-'
asS'CST1'
p612
(lp613
I23747552
aI23750937
aS'-'
asS'SLC35C2'
p614
(lp615
I46349527
aI46364458
aS'-'
asS'CST7'
p616
(lp617
I24949229
aI24959928
aS'+'
asS'DIDO1'
p618
(lp619
I62877737
aI62937952
aS'-'
asS'GPCPD1'
p620
(lp621
I5544433
aI5611026
aS'-'
asS'PHACTR3'
p622
(lp623
I59577508
aI59847711
aS'+'
asS'CEP250'
p624
(lp625
I35455401
aI35511975
aS'+'
asS'LAMP5-AS1'
p626
(lp627
I9505179
aI9514998
aS'-'
asS'MIR1914'
p628
(lp629
I63941464
aI63941544
aS'-'
asS'LAMP5'
p630
(lp631
I9514357
aI9530524
aS'+'
asS'SUMO1P1'
p632
(lp633
I53874500
aI53875709
aS'-'
asS'PCIF1'
p634
(lp635
I45934677
aI45948023
aS'+'
asS'SNORA51'
p636
(lp637
I2655066
aI2655198
aS'+'
asS'LINC01370'
p638
(lp639
I40004460
aI40008529
aS'+'
asS'RAB5IF'
p640
(lp641
I36605733
aI36612557
aS'+'
asS'SYCP2'
p642
(lp643
I59863556
aI59933663
aS'-'
asS'LINC01440'
p644
(lp645
I55423042
aI55426791
aS'+'
asS'CYP24A1'
p646
(lp647
I54153448
aI54173977
aS'-'
asS'LIME1'
p648
(lp649
I63735700
aI63739107
aS'+'
asS'NELFCD'
p650
(lp651
I58981255
aI58995133
aS'+'
asS'MIR548AG2'
p652
(lp653
I60564561
aI60564625
aS'+'
asS'TNFRSF6B'
p654
(lp655
I63696650
aI63698698
aS'+'
asS'SLC23A2'
p656
(lp657
I4852355
aI5010293
aS'-'
asS'CNBD2'
p658
(lp659
I35968580
aI36030700
aS'+'
asS'LOC101929526'
p660
(lp661
I18674394
aI18698708
aS'-'
asS'SRXN1'
p662
(lp663
I646623
aI653370
aS'-'
asS'MIR133A2'
p664
(lp665
I62564911
aI62565013
aS'+'
asS'SLC4A11'
p666
(lp667
I3227416
aI3239241
aS'-'
asS'FER1L4'
p668
(lp669
I35558736
aI35607562
aS'-'
asS'MIR663A'
p670
(lp671
I26208185
aI26208278
aS'-'
asS'GDF5OS'
p672
(lp673
I35433028
aI35435452
aS'+'
asS'PTK6'
p674
(lp675
I63528422
aI63537370
aS'-'
asS'BPI'
p676
(lp677
I38304149
aI38337503
aS'+'
asS'NKILA'
p678
(lp679
I57710182
aI57712780
aS'+'
asS'RPRD1B'
p680
(lp681
I38033545
aI38092364
aS'+'
asS'C20orf197'
p682
(lp683
I60055924
aI60072953
aS'+'
asS'LINC01273'
p684
(lp685
I50172569
aI50176671
aS'+'
asS'C20orf194'
p686
(lp687
I3249301
aI3407662
aS'-'
asS'MYBL2'
p688
(lp689
I43667018
aI43716496
aS'+'
asS'OPRL1'
p690
(lp691
I64080081
aI64100643
aS'+'
asS'PFDN4'
p692
(lp693
I54207962
aI54219953
aS'+'
asS'ZNF663P'
p694
(lp695
I46456492
aI46457643
aS'-'
asS'CEBPB'
p696
(lp697
I50190582
aI50192691
aS'+'
asS'SNHG17'
p698
(lp699
I38420587
aI38435377
aS'-'
asS'SNHG11'
p700
(lp701
I38446653
aI38450921
aS'+'
asS'ARHGAP40'
p702
(lp703
I38601933
aI38650652
aS'+'
asS'CTCFL'
p704
(lp705
I57495964
aI57525127
aS'-'
asS'RALGAPB'
p706
(lp707
I38472805
aI38578861
aS'+'
asS'SDCBP2'
p708
(lp709
I1309910
aI1329235
aS'-'
asS'NOP56'
p710
(lp711
I2652531
aI2658393
aS'+'
asS'SUN5'
p712
(lp713
I32983774
aI33004433
aS'-'
asS'AURKA'
p714
(lp715
I56369388
aI56392337
aS'-'
asS'YWHAB'
p716
(lp717
I44885598
aI44908532
aS'+'
asS'NANP'
p718
(lp719
I25612935
aI25624014
aS'-'
asS'SYNDIG1'
p720
(lp721
I24469198
aI24666617
aS'+'
asS'OGFR'
p722
(lp723
I62804799
aI62814000
aS'+'
asS'LOC100289473'
p724
(lp725
I1773364
aI1779746
aS'-'
asS'LOC101927770'
p726
(lp727
I53552769
aI53575308
aS'+'
asS'MATN4'
p728
(lp729
I45293445
aI45308529
aS'-'
asS'LOC100506175'
p730
(lp731
I50645470
aI50660291
aS'+'
asS'STX16-NPEPL1'
p732
(lp733
I58651252
aI58715844
aS'+'
asS'RTEL1-TNFRSF6B'
p734
(lp735
I63657809
aI63698698
aS'+'
asS'MIR3646'
p736
(lp737
I44408119
aI44408203
aS'+'
asS'EBF4'
p738
(lp739
I2692877
aI2760108
aS'+'
asS'ISM1-AS1'
p740
(lp741
I13237419
aI13239687
aS'-'
asS'LINC00494'
p742
(lp743
I48359910
aI48370638
aS'+'
asS'PXMP4'
p744
(lp745
I33702743
aI33720330
aS'-'
asS'MYH7B'
p746
(lp747
I34955834
aI35002437
aS'+'
asS'VPS16'
p748
(lp749
I2840696
aI2866732
aS'+'
asS'CSTF1'
p750
(lp751
I56392370
aI56404526
aS'+'
asS'ITPA'
p752
(lp753
I3209359
aI3227449
aS'+'
asS'LINC01706'
p754
(lp755
I7347432
aI7368501
aS'+'
asS'MIR499B'
p756
(lp757
I34990399
aI34990472
aS'-'
asS'DEFB129'
p758
(lp759
I227257
aI229886
aS'+'
asS'DEFB128'
p760
(lp761
I187852
aI189681
aS'-'
asS'DEFB127'
p762
(lp763
I157469
aI159163
aS'+'
asS'DEFB126'
p764
(lp765
I142552
aI145751
aS'+'
asS'DEFB125'
p766
(lp767
I87671
aI96573
aS'+'
asS'LINC01718'
p768
(lp769
I61079063
aI61080179
aS'+'
asS'DEFB123'
p770
(lp771
I31440518
aI31450257
aS'+'
asS'DEFB122'
p772
(lp773
I31421438
aI31429180
aS'-'
asS'DEFB121'
p774
(lp775
I31404844
aI31412838
aS'-'
asS'MIR663AHG'
p776
(lp777
I26187018
aI26209233
aS'-'
asS'TGIF2-RAB5IF'
p778
(lp779
I36574553
aI36612557
aS'+'
asS'TGM2'
p780
(lp781
I38127386
aI38166578
aS'-'
asS'POLR3F'
p782
(lp783
I18467388
aI18484648
aS'+'
asS'PCK1'
p784
(lp785
I57561109
aI57568121
aS'+'
asS'BLCAP'
p786
(lp787
I37517416
aI37527931
aS'-'
asS'MIR941-3'
p788
(lp789
I63919560
aI63919632
aS'+'
asS'MIR941-2'
p790
(lp791
I63919755
aI63919827
aS'+'
asS'MIR941-1'
p792
(lp793
I63919672
aI63919771
aS'+'
asS'MIR941-5'
p794
(lp795
I63919560
aI63919632
aS'+'
asS'MYL9'
p796
(lp797
I36541483
aI36549823
aS'+'
asS'CTSZ'
p798
(lp799
I58995186
aI59007254
aS'-'
asS'MIR1292'
p800
(lp801
I2652776
aI2652842
aS'+'
asS'MIR4755'
p802
(lp803
I34049118
aI34049190
aS'+'
asS'PARD6B'
p804
(lp805
I50731543
aI50753741
aS'+'
asS'CBFA2T2'
p806
(lp807
I33490121
aI33650031
aS'+'
asS'FAM110A'
p808
(lp809
I833696
aI846279
aS'+'
asS'OSER1-DT'
p810
(lp811
I44210959
aI44226027
aS'+'
asS'PET117'
p812
(lp813
I18137854
aI18143168
aS'+'
asS'NSFL1C'
p814
(lp815
I1442161
aI1467692
aS'-'
asS'DLGAP4'
p816
(lp817
I36306322
aI36528637
aS'+'
asS'C20orf173'
p818
(lp819
I35520741
aI35529652
aS'-'
asS'MAPRE1'
p820
(lp821
I32819892
aI32850405
aS'+'
asS'NPEPL1'
p822
(lp823
I58689130
aI58715844
aS'+'
asS'TRERNA1'
p824
(lp825
I50040706
aI50041629
aS'-'
asS'SPEF1'
p826
(lp827
I3777503
aI3781455
aS'-'
asS'ZMYND8'
p828
(lp829
I47209213
aI47356889
aS'-'
asS'FAM210B'
p830
(lp831
I56358926
aI56368662
aS'+'
asS'CTSA'
p832
(lp833
I45890143
aI45898819
aS'+'
asS'CDH22'
p834
(lp835
I46173732
aI46308498
aS'-'
asS'CDH26'
p836
(lp837
I59958395
aI60014529
aS'+'
asS'MAP1LC3A'
p838
(lp839
I34546883
aI34560345
aS'+'
asS'TOMM34'
p840
(lp841
I44942129
aI44960473
aS'-'
asS'LINC01441'
p842
(lp843
I55420335
aI55427197
aS'-'
asS'ACTL10'
p844
(lp845
I33666497
aI33668525
aS'+'
asS'ACOT8'
p846
(lp847
I45841720
aI45857409
aS'-'
asS'KIZ'
p848
(lp849
I21125974
aI21246620
aS'+'
asS'RBBP9'
p850
(lp851
I18486540
aI18497243
aS'-'
asS'RSPO4'
p852
(lp853
I958452
aI1002264
aS'-'
asS'ZFAS1'
p854
(lp855
I49278177
aI49289258
aS'+'
asS'PDYN-AS1'
p856
(lp857
I1947209
aI2007517
aS'+'
asS'ZBTB46-AS1'
p858
(lp859
I63808075
aI63823007
aS'+'
asS'FOXA2'
p860
(lp861
I22581003
aI22585463
aS'-'
asS'FKBP1A'
p862
(lp863
I1368976
aI1393172
aS'-'
asS'SLCO4A1-AS1'
p864
(lp865
I62663026
aI62666621
aS'-'
asS'SNORA71C'
p866
(lp867
I38429666
aI38429804
aS'-'
asS'SNORA71B'
p868
(lp869
I38425194
aI38425330
aS'-'
asS'SNORA71A'
p870
(lp871
I38427305
aI38427443
aS'-'
asS'SNORA71E'
p872
(lp873
I38448082
aI38448218
aS'+'
asS'SNORA71D'
p874
(lp875
I38433861
aI38433999
aS'-'
asS'SCRT2'
p876
(lp877
I661595
aI676179
aS'-'
asS'NTSR1'
p878
(lp879
I62708836
aI62762771
aS'+'
asS'DTD1'
p880
(lp881
I18587892
aI18763916
aS'+'
asS'SNORD119'
p882
(lp883
I2462951
aI2463047
aS'-'
asS'DPH3P1'
p884
(lp885
I62844565
aI62846191
aS'+'
asS'NDRG3'
p886
(lp887
I36651765
aI36746138
aS'-'
asS'SNORD110'
p888
(lp889
I2654211
aI2654286
aS'+'
asS'SRSF6'
p890
(lp891
I43457863
aI43463604
aS'+'
asS'ZBP1'
p892
(lp893
I57603845
aI57620576
aS'-'
asS'PPP4R1L'
p894
(lp895
I58232776
aI58309439
aS'-'
asS'SLC9A8'
p896
(lp897
I49812712
aI49892242
aS'+'
asS'RGS19'
p898
(lp899
I64073180
aI64079971
aS'-'
asS'LOC101929413'
p900
(lp901
I10875332
aI10909272
aS'-'
asS'TMEM239'
p902
(lp903
I2816301
aI2820284
aS'+'
asS'NKAIN4'
p904
(lp905
I63240783
aI63254540
aS'-'
asS'B4GALT5'
p906
(lp907
I49632945
aI49713884
aS'-'
asS'NINL'
p908
(lp909
I25452696
aI25585531
aS'-'
asS'LOC284788'
p910
(lp911
I22400332
aI22420643
aS'-'
asS'MIR296'
p912
(lp913
I58817614
aI58817694
aS'-'
asS'PLCB1'
p914
(lp915
I8132264
aI8884900
aS'+'
asS'ROMO1'
p916
(lp917
I35699309
aI35700980
aS'+'
asS'PLCB4'
p918
(lp919
I9069053
aI9480815
aS'+'
asS'LOC339593'
p920
(lp921
I11266658
aI11273383
aS'-'
asS'TSHZ2'
p922
(lp923
I52972357
aI53495330
aS'+'
asS'GID8'
p924
(lp925
I62938088
aI62948475
aS'+'
asS'FOXS1'
p926
(lp927
I31844299
aI31845617
aS'-'
asS'TUBB1'
p928
(lp929
I59019253
aI59026654
aS'+'
asS'PAX1'
p930
(lp931
I21705658
aI21718486
aS'+'
asS'TP53INP2'
p932
(lp933
I34704307
aI34713439
aS'+'
asS'PTPN1'
p934
(lp935
I50510320
aI50584762
aS'+'
asS'PHF20'
p936
(lp937
I35772000
aI35950366
aS'+'
asS'GINS1'
p938
(lp939
I25407672
aI25448563
aS'+'
asS'GNAS'
p940
(lp941
I58839717
aI58911196
aS'+'
asS'MRPS26'
p942
(lp943
I3046028
aI3048250
aS'+'
asS'UBE2C'
p944
(lp945
I45812575
aI45816957
aS'+'
asS'LOC101926935'
p946
(lp947
I25844666
aI25854021
aS'-'
asS'INSM1'
p948
(lp949
I20368120
aI20370948
aS'+'
asS'SNORD12C'
p950
(lp951
I49278944
aI49279023
aS'+'
asS'SNPH'
p952
(lp953
I1266290
aI1309327
aS'+'
asS'CSE1L-AS1'
p954
(lp955
I49040462
aI49046056
aS'-'
asS'STK35'
p956
(lp957
I2101881
aI2148552
aS'+'
asS'RBCK1'
p958
(lp959
I408049
aI432137
aS'+'
asS'SNORD12B'
p960
(lp961
I49280312
aI49280415
aS'+'
asS'OTOR'
p962
(lp963
I16748352
aI16752164
aS'+'
asS'SOGA1'
p964
(lp965
I36777441
aI36863684
aS'-'
asS'ID1'
p966
(lp967
I31605282
aI31606514
aS'+'
asS'ZNF337-AS1'
p968
(lp969
I25624044
aI25678072
aS'+'
asS'VSTM2L'
p970
(lp971
I37903096
aI37945345
aS'+'
asS'DSN1'
p972
(lp973
I36751790
aI36773827
aS'-'
asS'SNORD86'
p974
(lp975
I2656096
aI2656182
aS'+'
asS'BCAS4'
p976
(lp977
I50794893
aI50877177
aS'+'
asS'TP53RK'
p978
(lp979
I46684364
aI46689637
aS'-'
asS'NOL4L'
p980
(lp981
I32443058
aI32585073
aS'-'
asS'BCAS1'
p982
(lp983
I53943537
aI54070765
aS'-'
asS'SLC52A3'
p984
(lp985
I760079
aI768584
aS'-'
asS'CST4'
p986
(lp987
I23685639
aI23689025
aS'-'
asS'BMP7-AS1'
p988
(lp989
I57213695
aI57215866
aS'+'
asS'PABPC1L'
p990
(lp991
I44910059
aI44939317
aS'+'
asS'CPXM1'
p992
(lp993
I2794068
aI2800646
aS'-'
asS'FRG1BP'
p994
(lp995
I30377163
aI30419842
aS'+'
asS'CBLN4'
p996
(lp997
I55997356
aI56005472
aS'-'
asS'CST9L'
p998
(lp999
I23564732
aI23568749
aS'-'
asS'AAR2'
p1000
(lp1001
I36236416
aI36256941
aS'+'
asS'LOC613266'
p1002
(lp1003
I15892333
aI15985882
aS'-'
asS'RAB22A'
p1004
(lp1005
I58309714
aI58367507
aS'+'
asS'LINC01056'
p1006
(lp1007
I63038010
aI63053863
aS'+'
asS'PSMA7'
p1008
(lp1009
I62136726
aI62143458
aS'-'
asS'LINC01752'
p1010
(lp1011
I10753089
aI10754027
aS'+'
asS'LINC01751'
p1012
(lp1013
I7302088
aI7307432
aS'-'
asS'CST13P'
p1014
(lp1015
I23519145
aI23542018
aS'+'
asS'LOC105372582'
p1016
(lp1017
I25751207
aI25756050
aS'+'
asS'LINC01754'
p1018
(lp1019
I47382765
aI47412144
aS'-'
asS'EPB41L1'
p1020
(lp1021
I36091503
aI36232799
aS'+'
asS'KIF16B'
p1022
(lp1023
I16272103
aI16573434
aS'-'
asS'BPIFB2'
p1024
(lp1025
I33007577
aI33023709
aS'+'
asS'PDYN'
p1026
(lp1027
I1978755
aI1994285
aS'-'
asS'RPS21'
p1028
(lp1029
I62387102
aI62388520
aS'+'
asS'ACSS2'
p1030
(lp1031
I34874962
aI34927966
aS'+'
asS'ACSS1'
p1032
(lp1033
I25006229
aI25058182
aS'-'
asS'KIAA1755'
p1034
(lp1035
I38210504
aI38260772
aS'-'
asS'ATRN'
p1036
(lp1037
I3471017
aI3651115
aS'+'
asS'SALL4'
p1038
(lp1039
I51782716
aI51802523
aS'-'
asS'TPD52L2'
p1040
(lp1041
I63865227
aI63891545
aS'+'
asS'ADIG'
p1042
(lp1043
I38581194
aI38588463
aS'+'
asS'GMEB2'
p1044
(lp1045
I63587593
aI63627101
aS'-'
asS'EDN3'
p1046
(lp1047
I59300426
aI59325992
aS'+'
asS'SLPI'
p1048
(lp1049
I45252238
aI45254564
aS'-'
asS'SNORD17'
p1050
(lp1051
I17962709
aI17962946
aS'-'
asS'CST5'
p1052
(lp1053
I23875934
aI23879743
aS'-'
asS'SGK2'
p1054
(lp1055
I43558994
aI43585633
aS'+'
asS'SNORD12'
p1056
(lp1057
I49280682
aI49280772
aS'+'
asS'CDS2'
p1058
(lp1059
I5126760
aI5197887
aS'+'
asS'LRRN4'
p1060
(lp1061
I6040545
aI6054080
aS'-'
asS'FRG1EP'
p1062
(lp1063
I29475878
aI29497334
aS'-'
asS'DEFB132'
p1064
(lp1065
I257723
aI261095
aS'+'
asS'LOC105372633'
p1066
(lp1067
I46406778
aI46444971
aS'+'
asS'STX16'
p1068
(lp1069
I58651252
aI58679526
aS'+'
asS'LAMA5-AS1'
p1070
(lp1071
I62353009
aI62356478
aS'+'
asS'LOC100291105'
p1072
(lp1073
I57384159
aI57393056
aS'-'
asS'MIR4326'
p1074
(lp1075
I63286807
aI63286866
aS'+'
asS'MIR4325'
p1076
(lp1077
I57321501
aI57321591
aS'-'
asS'BIRC7'
p1078
(lp1079
I63235882
aI63240507
aS'+'
asS'NPBWR2'
p1080
(lp1081
I64105829
aI64106831
aS'-'
asS'EIF6'
p1082
(lp1083
I35278905
aI35284816
aS'-'
asS'SPATA25'
p1084
(lp1085
I45886490
aI45887599
aS'-'
asS'RBPJL'
p1086
(lp1087
I45306842
aI45317824
aS'+'
asS'TOP1'
p1088
(lp1089
I41028817
aI41124486
aS'+'
asS'LOC101926889'
p1090
(lp1091
I25184671
aI25196892
aS'-'
asS'SNORA117'
p1092
(lp1093
I62882805
aI62882903
aS'-'
asS'SEL1L2'
p1094
(lp1095
I13849397
aI13995333
aS'-'
asS'GCNT7'
p1096
(lp1097
I56491491
aI56525925
aS'-'
asS'MANBAL'
p1098
(lp1099
I37289647
aI37317260
aS'+'
asS'SMOX'
p1100
(lp1101
I4148778
aI4187747
aS'+'
asS'TFAP2C'
p1102
(lp1103
I56629305
aI56639282
aS'+'
asS'GDF5'
p1104
(lp1105
I35433348
aI35454746
aS'-'
asS'MCM8-AS1'
p1106
(lp1107
I5990794
aI6005821
aS'-'
asS'RBM39'
p1108
(lp1109
I35703608
aI35742336
aS'-'
asS'KCNS1'
p1110
(lp1111
I45091215
aI45101112
aS'-'
asS'ZCCHC3'
p1112
(lp1113
I297562
aI300319
aS'+'
asS'LOC100130587'
p1114
(lp1115
I63359987
aI63371177
aS'+'
asS'BPIFB6'
p1116
(lp1117
I33031647
aI33044047
aS'+'
asS'LOC101929698'
p1118
(lp1119
I32509958
aI32520285
aS'+'
asS'EYA2'
p1120
(lp1121
I46894623
aI47188844
aS'+'
asS'PCNA'
p1122
(lp1123
I5114952
aI5126622
aS'-'
asS'APMAP'
p1124
(lp1125
I24962924
aI24992751
aS'-'
asS'LINC01620'
p1126
(lp1127
I44451983
aI44465344
aS'-'
asS'LINC00654'
p1128
(lp1129
I5496066
aI5504596
aS'-'
asS'RBM38'
p1130
(lp1131
I57391397
aI57409330
aS'+'
asS'LINC00656'
p1132
(lp1133
I23125068
aI23132636
aS'-'
asS'C20orf187'
p1134
(lp1135
I11026543
aI11029366
aS'+'
asS'PIGT'
p1136
(lp1137
I45416066
aI45426245
aS'+'
asS'PIGU'
p1138
(lp1139
I34560541
aI34677285
aS'-'
asS'LINC00652'
p1140
(lp1141
I18787970
aI18794584
aS'-'
asS'DUSP15'
p1142
(lp1143
I31847636
aI31870664
aS'-'
asS'MIR646HG'
p1144
(lp1145
I60138491
aI60322256
aS'+'
asS'LINC00658'
p1146
(lp1147
I5431956
aI5445748
aS'-'
asS'LINC00659'
p1148
(lp1149
I62774120
aI62776856
aS'-'
asS'MCM8'
p1150
(lp1151
I5950651
aI5995206
aS'+'
asS'WFDC11'
p1152
(lp1153
I45648562
aI45670239
aS'-'
asS'WFDC13'
p1154
(lp1155
I45702015
aI45708817
aS'+'
asS'WFDC12'
p1156
(lp1157
I45123425
aI45124465
aS'-'
asS'SAMHD1'
p1158
(lp1159
I36890228
aI36951708
aS'-'
asS'LINC01271'
p1160
(lp1161
I50310710
aI50321342
aS'-'
asS'LINC01270'
p1162
(lp1163
I50292719
aI50314919
aS'+'
asS'MACROD2-IT1'
p1164
(lp1165
I14554383
aI14628908
aS'+'
asS'SLC2A4RG'
p1166
(lp1167
I63739775
aI63744050
aS'+'
asS'MIR8062'
p1168
(lp1169
I7371607
aI7371692
aS'+'
asS'HAO1'
p1170
(lp1171
I7882983
aI7940446
aS'-'
asS'AHCY'
p1172
(lp1173
I34280264
aI34311802
aS'-'
asS'COL20A1'
p1174
(lp1175
I63293185
aI63330933
aS'+'
asS'ZNF512B'
p1176
(lp1177
I63956703
aI63969870
aS'-'
asS'BCL2L1'
p1178
(lp1179
I31664451
aI31723999
aS'-'
asS'CCN5'
p1180
(lp1181
I44714843
aI44727812
aS'+'
asS'GSS'
p1182
(lp1183
I34928432
aI34956027
aS'-'
asS'PSMF1'
p1184
(lp1185
I1113228
aI1172246
aS'+'
asS'MRGBP'
p1186
(lp1187
I62796404
aI62801738
aS'+'
asS'MROH8'
p1188
(lp1189
I37101166
aI37179548
aS'-'
asS'ATP9A'
p1190
(lp1191
I51596774
aI51768411
aS'-'
asS'GDAP1L1'
p1192
(lp1193
I44247098
aI44280917
aS'+'
asS'NKX2-2'
p1194
(lp1195
I21511021
aI21514026
aS'-'
asS'MAFB'
p1196
(lp1197
I40685847
aI40689240
aS'-'
asS'ADNP-AS1'
p1198
(lp1199
I50930983
aI50945134
aS'+'
asS'NKX2-4'
p1200
(lp1201
I21395366
aI21397526
aS'-'
asS'SPINT3'
p1202
(lp1203
I45512460
aI45515624
aS'-'
asS'TPX2'
p1204
(lp1205
I31739100
aI31801800
aS'+'
asS'MIR1-1'
p1206
(lp1207
I62554305
aI62554376
aS'+'
asS'SPINT4'
p1208
(lp1209
I45722334
aI45725830
aS'+'
asS'MIR1-1HG'
p1210
(lp1211
I62550452
aI62570764
aS'+'
asS'LINC01716'
p1212
(lp1213
I56577562
aI56596126
aS'+'
asS'PYGB'
p1214
(lp1215
I25248069
aI25298012
aS'+'
asS'LINC01713'
p1216
(lp1217
I6730740
aI6736136
aS'-'
asS'HNF4A-AS1'
p1218
(lp1219
I44377742
aI44395706
aS'-'
asS'LINC01711'
p1220
(lp1221
I58634771
aI58635738
aS'+'
asS'PPP1R16B'
p1222
(lp1223
I38805692
aI38923024
aS'+'
asS'SMIM25'
p1224
(lp1225
I50267485
aI50279795
aS'+'
asS'NECAB3'
p1226
(lp1227
I33657086
aI33674458
aS'-'
asS'RALGAPA2'
p1228
(lp1229
I20389627
aI20712623
aS'-'
asS'ENTPD6'
p1230
(lp1231
I25195669
aI25228075
aS'+'
asS'C20orf27'
p1232
(lp1233
I3753498
aI3768388
aS'-'
asS'SPAG4'
p1234
(lp1235
I35615883
aI35621094
aS'+'
asS'DEFB124'
p1236
(lp1237
I31465505
aI31473013
aS'-'
asS'LOC105372493'
p1238
(lp1239
I1117851
aI1118448
aS'-'
asS'LINC01522'
p1240
(lp1241
I47980092
aI47990117
aS'-'
asS'RAE1'
p1242
(lp1243
I57351088
aI57378463
aS'+'
asS'HELZ2'
p1244
(lp1245
I63558085
aI63574239
aS'-'
asS'PI3'
p1246
(lp1247
I45174901
aI45176544
aS'+'
asS'SMIM26'
p1248
(lp1249
I18567419
aI18569611
aS'+'
asS'CSNK2A1'
p1250
(lp1251
I472497
aI543838
aS'-'
asS'MIR1289-1'
p1252
(lp1253
I35453953
aI35454097
aS'-'
asS'BMP7'
p1254
(lp1255
I57168752
aI57266651
aS'-'
asS'NDUFAF5'
p1256
(lp1257
I13785025
aI13818421
aS'+'
asS'SNAP25-AS1'
p1258
(lp1259
I10023811
aI10219506
aS'-'
asS'BMP2'
p1260
(lp1261
I6768097
aI6780278
aS'+'
asS'PCNA-AS1'
p1262
(lp1263
I5119585
aI5119969
aS'+'
asS'UBOX5-AS1'
p1264
(lp1265
I3106910
aI3150867
aS'+'
asS'PKIG'
p1266
(lp1267
I44531780
aI44619037
aS'+'
asS'SNORD56'
p1268
(lp1269
I2656623
aI2656694
aS'+'
asS'SNORD57'
p1270
(lp1271
I2656938
aI2657010
aS'+'
asS'L3MBTL1'
p1272
(lp1273
I43507679
aI43541895
aS'+'
asS'GFRA4'
p1274
(lp1275
I3659291
aI3663399
aS'-'
asS'CSTL1'
p1276
(lp1277
I23439684
aI23444930
aS'+'
asS'TMEM189-UBE2V1'
p1278
(lp1279
I50081123
aI50153798
aS'-'
asS'XRN2'
p1280
(lp1281
I21303283
aI21389825
aS'+'
asS'UQCC1'
p1282
(lp1283
I35302565
aI35412142
aS'-'
asS'LINC00029'
p1284
(lp1285
I63034216
aI63037028
aS'-'
asS'LINC00028'
p1286
(lp1287
I31485777
aI31487574
aS'+'
asS'PCMTD2'
p1288
(lp1289
I64255694
aI64276226
aS'+'
asS'ZNF217'
p1290
(lp1291
I53567070
aI53583097
aS'-'
asS'LOC105372672'
p1292
(lp1293
I53608353
aI53634590
aS'+'
asS'STMN3'
p1294
(lp1295
I63639704
aI63653610
aS'-'
asS'RASSF2'
p1296
(lp1297
I4780023
aI4823645
aS'-'
asS'LINC01433'
p1298
(lp1299
I4193089
aI4195953
aS'+'
asS'LINC01432'
p1300
(lp1301
I22054089
aI22074654
aS'+'
asS'LINC01431'
p1302
(lp1303
I23356593
aI23358127
aS'-'
asS'LINC01430'
p1304
(lp1305
I44448776
aI44450557
aS'-'
asS'MHENCR'
p1306
(lp1307
I63627234
aI63628824
aS'+'
asS'OGFR-AS1'
p1308
(lp1309
I62800626
aI62805587
aS'-'
asS'BPIFA4P'
p1310
(lp1311
I33193604
aI33210462
aS'+'
asS'LOC100128310'
p1312
(lp1313
I61717505
aI61719748
aS'-'
asS'NFS1'
p1314
(lp1315
I35668687
aI35699365
aS'-'
asS'NORAD'
p1316
(lp1317
I36045617
aI36050960
aS'-'
asS'CHD6'
p1318
(lp1319
I41402102
aI41618494
aS'-'
asS'ASXL1'
p1320
(lp1321
I32358343
aI32439319
aS'+'
asS'ABHD12'
p1322
(lp1323
I25294742
aI25390982
aS'-'
asS'SPO11'
p1324
(lp1325
I57329774
aI57343993
aS'+'
asS'CTNNBL1'
p1326
(lp1327
I37693954
aI37872129
aS'+'
asS'LOC101927932'
p1328
(lp1329
I58863755
aI58888810
aS'-'
asS'PRELID3B'
p1330
(lp1331
I59033144
aI59042846
aS'-'
asS'TMEM189'
p1332
(lp1333
I50123736
aI50153798
aS'-'
asS'POFUT1'
p1334
(lp1335
I32207892
aI32238664
aS'+'
asS'LZTS3'
p1336
(lp1337
I3162616
aI3173592
aS'-'
asS'PROCR'
p1338
(lp1339
I35172071
aI35177362
aS'+'
asS'MIR124-3'
p1340
(lp1341
I63178499
aI63178586
aS'+'
asS'CDC25B'
p1342
(lp1343
I3786771
aI3806121
aS'+'
asS'SDCBP2-AS1'
p1344
(lp1345
I1325342
aI1378735
aS'+'
asS'WFDC9'
p1346
(lp1347
I45607938
aI45631268
aS'-'
asS'DSTN'
p1348
(lp1349
I17569953
aI17608007
aS'+'
asS'WFDC3'
p1350
(lp1351
I45774207
aI45791908
aS'-'
asS'WFDC2'
p1352
(lp1353
I45469753
aI45481532
aS'+'
asS'KIF3B'
p1354
(lp1355
I32277650
aI32335008
aS'+'
asS'WFDC6'
p1356
(lp1357
I45534196
aI45539495
aS'-'
asS'RALY-AS1'
p1358
(lp1359
I33992487
aI33994367
aS'-'
asS'MAVS'
p1360
(lp1361
I3846798
aI3876123
aS'+'
asS'SEC23B'
p1362
(lp1363
I18507481
aI18561415
aS'+'
asS'AVP'
p1364
(lp1365
I3082555
aI3084724
aS'-'
asS'TOX2'
p1366
(lp1367
I43914851
aI44069614
aS'+'
asS'ZHX3'
p1368
(lp1369
I41178448
aI41300099
aS'-'
asS'CRLS1'
p1370
(lp1371
I6005937
aI6040051
aS'+'
asS'OSER1'
p1372
(lp1373
I44195940
aI44210906
aS'-'
asS'ACTR5'
p1374
(lp1375
I38748453
aI38772446
aS'+'
asS'BTBD3'
p1376
(lp1377
I11890722
aI11926595
aS'+'
asS'MTG2'
p1378
(lp1379
I62183024
aI62202754
aS'+'
asS'SLC32A1'
p1380
(lp1381
I38724485
aI38729372
aS'+'
asS'MIR103A2'
p1382
(lp1383
I3917493
aI3917571
aS'+'
asS'SS18L1'
p1384
(lp1385
I62143719
aI62182510
aS'+'
asS'FAM217B'
p1386
(lp1387
I59933763
aI59948647
aS'+'
asS'NAA20'
p1388
(lp1389
I20017289
aI20033629
aS'+'
asS'FRG2EP'
p1390
(lp1391
I29414074
aI29416961
aS'-'
asS'RBM12'
p1392
(lp1393
I35648924
aI35664956
aS'-'
asS'EPPIN-WFDC6'
p1394
(lp1395
I45536279
aI45547426
aS'-'
asS'SLA2'
p1396
(lp1397
I36612520
aI36646216
aS'-'
asS'SLC12A5-AS1'
p1398
(lp1399
I46013501
aI46022073
aS'-'
asS'HSPA12B'
p1400
(lp1401
I3732669
aI3753111
aS'+'
asS'NEURL2'
p1402
(lp1403
I45888471
aI45891287
aS'-'
asS'LINC01597'
p1404
(lp1405
I30278905
aI30286537
aS'-'
asS'FAM209B'
p1406
(lp1407
I56533245
aI56536518
aS'+'
asS'ABHD16B'
p1408
(lp1409
I63861212
aI63862988
aS'+'
asS'FAM209A'
p1410
(lp1411
I56524728
aI56526152
aS'+'
asS'RBL1'
p1412
(lp1413
I36996350
aI37096215
aS'-'
asS'CST11'
p1414
(lp1415
I23450403
aI23452845
aS'-'
asS'SLC13A3'
p1416
(lp1417
I46557822
aI46684485
aS'-'
asS'COL9A3'
p1418
(lp1419
I62817049
aI62841159
aS'+'
asS'CHRNA4'
p1420
(lp1421
I63343309
aI63361396
aS'-'
asS'FERMT1'
p1422
(lp1423
I6074844
aI6123544
aS'-'
asS'DNTTIP1'
p1424
(lp1425
I45791936
aI45811427
aS'+'
asS'ARFGEF2'
p1426
(lp1427
I48921737
aI49036693
aS'+'
asS'ADA'
p1428
(lp1429
I44619518
aI44651758
aS'-'
asS'DDX27'
p1430
(lp1431
I49219294
aI49244077
aS'+'
asS'KCNB1'
p1432
(lp1433
I49363876
aI49482668
aS'-'
asS'CRNKL1'
p1434
(lp1435
I20034360
aI20056046
aS'-'
asS'STAU1'
p1436
(lp1437
I49113338
aI49219295
aS'-'
asS'XKR7'
p1438
(lp1439
I31968001
aI31998453
aS'+'
asS'EMILIN3'
p1440
(lp1441
I41359962
aI41366818
aS'-'
asS'CCM2L'
p1442
(lp1443
I32010437
aI32032179
aS'+'
asS'RIN2'
p1444
(lp1445
I19886520
aI20002459
aS'+'
asS'LINC00261'
p1446
(lp1447
I22560553
aI22578642
aS'-'
asS'MGME1'
p1448
(lp1449
I17968890
aI17991122
aS'+'
asS'NXT1'
p1450
(lp1451
I23350735
aI23354771
aS'+'
asS'GNRH2'
p1452
(lp1453
I3043621
aI3045745
aS'+'
asS'DPM1'
p1454
(lp1455
I50934854
aI50958564
aS'-'
asS'CSE1L'
p1456
(lp1457
I49046245
aI49096960
aS'+'
asS'ZNF133'
p1458
(lp1459
I18288227
aI18316996
aS'+'
asS'TMEM230'
p1460
(lp1461
I5068381
aI5113087
aS'-'
asS'C20orf78'
p1462
(lp1463
I18809350
aI18830203
aS'-'
asS'SRC'
p1464
(lp1465
I37344684
aI37405432
aS'+'
asS'NRSN2-AS1'
p1466
(lp1467
I319686
aI325252
aS'-'
asS'CHGB'
p1468
(lp1469
I5911509
aI5925353
aS'+'
asS'ARFGAP1'
p1470
(lp1471
I63272784
aI63289790
aS'+'
asS'NOL4L-DT'
p1472
(lp1473
I32587478
aI32608892
aS'+'
asS'PLCG1-AS1'
p1474
(lp1475
I41097993
aI41138000
aS'-'
asS'OVOL2'
p1476
(lp1477
I18024151
aI18059188
aS'-'
asS'NNAT'
p1478
(lp1479
I37521205
aI37523688
aS'+'
asS'FAM83C'
p1480
(lp1481
I35285730
aI35292422
aS'-'
asS'FAM83D'
p1482
(lp1483
I38926311
aI38953061
aS'+'
asS'UBOX5'
p1484
(lp1485
I3107572
aI3159910
aS'-'
asS'IDH3B'
p1486
(lp1487
I2658389
aI2664223
aS'-'
asS'FLJ16779'
p1488
(lp1489
I63253977
aI63261615
aS'+'
asS'CPNE1'
p1490
(lp1491
I35626030
aI35664956
aS'-'
asS'BHLHE23'
p1492
(lp1493
I63005978
aI63007035
aS'-'
asS'MIR3616'
p1494
(lp1495
I47166966
aI47167058
aS'+'
asS'LOC101927159'
p1496
(lp1497
I42685482
aI42688562
aS'+'
asS'DOK5'
p1498
(lp1499
I54475471
aI54651171
aS'+'
asS'CABLES2'
p1500
(lp1501
I62388629
aI62407283
aS'-'
asS'ADRM1'
p1502
(lp1503
I62302895
aI62308862
aS'+'
asS'RBBP8NL'
p1504
(lp1505
I62410236
aI62427539
aS'-'
asS'DNMT3B'
p1506
(lp1507
I32762384
aI32809356
aS'+'
asS'SNTA1'
p1508
(lp1509
I33407956
aI33443892
aS'-'
asS'ESF1'
p1510
(lp1511
I13714321
aI13784933
aS'-'
asS'ZBTB46'
p1512
(lp1513
I63743667
aI63805503
aS'-'
asS'CEBPB-AS1'
p1514
(lp1515
I50184602
aI50192069
aS'-'
asS'TCEA2'
p1516
(lp1517
I64056971
aI64072347
aS'+'
asS'MMP9'
p1518
(lp1519
I46008907
aI46016561
aS'+'
asS'PTGIS'
p1520
(lp1521
I49503873
aI49568137
aS'-'
asS'TMX4'
p1522
(lp1523
I7977352
aI8019829
aS'-'
asS'ZNF341-AS1'
p1524
(lp1525
I33787372
aI33811099
aS'-'
asS'GGT7'
p1526
(lp1527
I34844719
aI34872858
aS'-'
asS'RTF2'
p1528
(lp1529
I56468584
aI56518886
aS'+'
asS'LOC101927377'
p1530
(lp1531
I47352560
aI47354632
aS'+'
asS'SNRPB'
p1532
(lp1533
I2461634
aI2470853
aS'-'
asS'ANKRD60'
p1534
(lp1535
I58216125
aI58228653
aS'-'
asS'HM13'
p1536
(lp1537
I31514409
aI31569567
aS'+'
asS'C20orf85'
p1538
(lp1539
I58150926
aI58161127
aS'+'
asS'PTPRT'
p1540
(lp1541
I42072751
aI43189917
aS'-'
asS'PREX1'
p1542
(lp1543
I48624254
aI48827883
aS'-'
asS'TGIF2'
p1544
(lp1545
I36573472
aI36593952
aS'+'
asS'PTPRA'
p1546
(lp1547
I2864194
aI3038669
aS'+'
asS'HAR1B'
p1548
(lp1549
I63095492
aI63102319
aS'-'
asS'SPATA2'
p1550
(lp1551
I49903390
aI49915543
aS'-'
asS'SIGLEC1'
p1552
(lp1553
I3686969
aI3712600
aS'-'
as.