(dp1
S'IFT27'
p2
(lp3
I36758201
aI36776133
aS'-'
asS'DRICH1'
p4
(lp5
I23608451
aI23632321
aS'-'
asS'CRKL'
p6
(lp7
I20917425
aI20953749
aS'+'
asS'SBF1'
p8
(lp9
I50445000
aI50475071
aS'-'
asS'SNORD139'
p10
(lp11
I39316841
aI39316896
aS'-'
asS'KIAA1656'
p12
(lp13
I30368810
aI30377905
aS'-'
asS'CHKB-DT'
p14
(lp15
I50583025
aI50595281
aS'+'
asS'LOC102725072'
p16
(lp17
I18850117
aI18861051
aS'+'
asS'PMM1'
p18
(lp19
I41576885
aI41589867
aS'-'
asS'MIF-AS1'
p20
(lp21
I23893709
aI23898930
aS'-'
asS'MIAT'
p22
(lp23
I26657481
aI26676477
aS'+'
asS'RFPL1S'
p24
(lp25
I29437014
aI29442129
aS'-'
asS'LOC100128531'
p26
(lp27
I25102416
aI25112692
aS'-'
asS'LOC101929372'
p28
(lp29
I17580156
aI17589192
aS'-'
asS'RTN4R'
p30
(lp31
I20241414
aI20268293
aS'-'
asS'ISX-AS1'
p32
(lp33
I34756664
aI34997916
aS'-'
asS'MEI1'
p34
(lp35
I41699513
aI41799455
aS'+'
asS'MIR6889'
p36
(lp37
I41252991
aI41253050
aS'-'
asS'GSC2'
p38
(lp39
I19148990
aI19150283
aS'-'
asS'IL2RB'
p40
(lp41
I37125839
aI37175118
aS'-'
asS'MIR3667'
p42
(lp43
I49543392
aI49543466
aS'-'
asS'TMEM184B'
p44
(lp45
I38219290
aI38273034
aS'-'
asS'PIK3IP1-AS1'
p46
(lp47
I31335348
aI31338021
aS'+'
asS'APOBEC3H'
p48
(lp49
I39097223
aI39104067
aS'+'
asS'LINC00229'
p50
(lp51
I44606327
aI44625419
aS'-'
asS'LINC00634'
p52
(lp53
I41952186
aI41958942
aS'+'
asS'LINC01639'
p54
(lp55
I43400330
aI43409681
aS'+'
asS'LOC100506544'
p56
(lp57
I41209121
aI41217627
aS'-'
asS'IGLL3P'
p58
(lp59
I25318256
aI25320226
aS'+'
asS'SNAP29'
p60
(lp61
I20859003
aI20891213
aS'+'
asS'MIRLET7B'
p62
(lp63
I46113685
aI46113768
aS'+'
asS'LINC01638'
p64
(lp65
I27221346
aI27224727
aS'-'
asS'LINC01640'
p66
(lp67
I33108528
aI33116294
aS'+'
asS'MICALL1'
p68
(lp69
I37906147
aI37942458
aS'+'
asS'LINC01310'
p70
(lp71
I48866769
aI48898386
aS'+'
asS'LINC01311'
p72
(lp73
I19171705
aI19172832
aS'+'
asS'LINC01644'
p74
(lp75
I47461298
aI47487111
aS'-'
asS'RHBDD3'
p76
(lp77
I29259851
aI29268163
aS'-'
asS'C22orf23'
p78
(lp79
I37943049
aI37953669
aS'-'
asS'LOC105373100'
p80
(lp81
I50735828
aI50738169
aS'-'
asS'MMP11'
p82
(lp83
I23772818
aI23784316
aS'+'
asS'PRR34-AS1'
p84
(lp85
I46053845
aI46058522
aS'+'
asS'LOC110091768'
p86
(lp87
I26860210
aI26881785
aS'+'
asS'APOBEC3A'
p88
(lp89
I38957521
aI38963183
aS'+'
asS'LOC284898'
p90
(lp91
I27048143
aI27060518
aS'-'
asS'MYO18B'
p92
(lp93
I25742143
aI26031041
aS'+'
asS'GTSE1'
p94
(lp95
I46296740
aI46330810
aS'+'
asS'MIR6816'
p96
(lp97
I20114685
aI20114751
aS'-'
asS'MIR6817'
p98
(lp99
I25455645
aI25455711
aS'+'
asS'MIR6818'
p100
(lp101
I30007048
aI30007113
aS'+'
asS'MIR6819'
p102
(lp103
I36286846
aI36286907
aS'-'
asS'VPREB1'
p104
(lp105
I22244779
aI22245515
aS'+'
asS'VPREB3'
p106
(lp107
I23752742
aI23754425
aS'-'
asS'CRYBA4'
p108
(lp109
I26621963
aI26630672
aS'+'
asS'HSCB'
p110
(lp111
I28742031
aI28757518
aS'+'
asS'MIR650'
p112
(lp113
I22822775
aI22822871
aS'+'
asS'POM121L4P'
p114
(lp115
I20689554
aI20691721
aS'+'
asS'SOX10'
p116
(lp117
I37972311
aI37984532
aS'-'
asS'BPIFC'
p118
(lp119
I32413846
aI32457386
aS'-'
asS'DGCR6L'
p120
(lp121
I20314237
aI20320105
aS'-'
asS'NF2'
p122
(lp123
I29603555
aI29698600
aS'+'
asS'LINC00528'
p124
(lp125
I17777289
aI17779481
aS'+'
asS'GGTLC3'
p126
(lp127
I18516343
aI18518161
aS'-'
asS'GGTLC2'
p128
(lp129
I22644619
aI22647898
aS'+'
asS'TBC1D22A-AS1'
p130
(lp131
I46914091
aI46916042
aS'-'
asS'MIR4762'
p132
(lp133
I45760523
aI45760598
aS'+'
asS'MIR4763'
p134
(lp135
I46113565
aI46113657
aS'+'
asS'MIR4761'
p136
(lp137
I19963752
aI19963834
aS'+'
asS'MIR4766'
p138
(lp139
I40813882
aI40813958
aS'-'
asS'MIR4764'
p140
(lp141
I33436581
aI33436669
aS'-'
asS'SAMM50'
p142
(lp143
I43955380
aI43996532
aS'+'
asS'LINC01422'
p144
(lp145
I26903291
aI26920610
aS'+'
asS'PPARA'
p146
(lp147
I46150533
aI46243756
aS'+'
asS'CBY1'
p148
(lp149
I38656652
aI38673851
aS'+'
asS'LRRC74B'
p150
(lp151
I21045959
aI21064168
aS'+'
asS'RPL23AP82'
p152
(lp153
I50757085
aI50799637
aS'+'
asS'SULT4A1'
p154
(lp155
I43824506
aI43862498
aS'-'
asS'ZNRF3'
p156
(lp157
I28883766
aI29057488
aS'+'
asS'MB'
p158
(lp159
I35606763
aI35623354
aS'-'
asS'CABP7'
p160
(lp161
I29720354
aI29731831
aS'+'
asS'ZDHHC8'
p162
(lp163
I20131840
aI20148007
aS'+'
asS'TCN2'
p164
(lp165
I30607082
aI30627060
aS'+'
asS'SNORD43'
p166
(lp167
I39319051
aI39319113
aS'-'
asS'TUBA3FP'
p168
(lp169
I21008206
aI21014287
aS'-'
asS'EFCAB6'
p170
(lp171
I43528743
aI43812337
aS'-'
asS'C22orf24'
p172
(lp173
I31933520
aI31945362
aS'-'
asS'GUSBP11'
p174
(lp175
I23638487
aI23717423
aS'-'
asS'MIR7109'
p176
(lp177
I31621466
aI31621531
aS'-'
asS'KLHL22'
p178
(lp179
I20441518
aI20495883
aS'-'
asS'SLC2A11'
p180
(lp181
I23856702
aI23886112
aS'+'
asS'FAM230F'
p182
(lp183
I18865042
aI18894431
aS'-'
asS'FAM230G'
p184
(lp185
I20340996
aI20352494
aS'+'
asS'FAM230D'
p186
(lp187
I18178025
aI18205863
aS'-'
asS'FAM230E'
p188
(lp189
I18733913
aI18757894
aS'+'
asS'FAM230B'
p190
(lp191
I21166902
aI21192156
aS'+'
asS'LOC105373021'
p192
(lp193
I36703875
aI36767089
aS'+'
asS'FAM230A'
p194
(lp195
I18487126
aI18500594
aS'+'
asS'P2RX6P'
p196
(lp197
I21042391
aI21044249
aS'-'
asS'FAM230J'
p198
(lp199
I18361829
aI18386526
aS'-'
asS'FAM230H'
p200
(lp201
I21301259
aI21326636
aS'-'
asS'FAM230I'
p202
(lp203
I23462081
aI23486980
aS'-'
asS'HIC2'
p204
(lp205
I21417403
aI21451461
aS'+'
asS'PRAME'
p206
(lp207
I22547695
aI22559361
aS'-'
asS'DDTL'
p208
(lp209
I23966837
aI23972559
aS'+'
asS'MIR378I'
p210
(lp211
I41923221
aI41923297
aS'-'
asS'CHKB-CPT1B'
p212
(lp213
I50568860
aI50582999
aS'-'
asS'RSPH14'
p214
(lp215
I23059414
aI23142054
aS'-'
asS'PARVG'
p216
(lp217
I44172955
aI44208469
aS'+'
asS'SREBF2-AS1'
p218
(lp219
I41831214
aI41834665
aS'-'
asS'TUG1'
p220
(lp221
I30969210
aI30979394
aS'+'
asS'TMEM121B'
p222
(lp223
I17116298
aI17121367
aS'-'
asS'ARVCF'
p224
(lp225
I19969878
aI20016786
aS'-'
asS'HDHD5-AS1'
p226
(lp227
I17159388
aI17165445
aS'+'
asS'MCAT'
p228
(lp229
I43132205
aI43143397
aS'-'
asS'ALG12'
p230
(lp231
I49903205
aI49918458
aS'-'
asS'NIPSNAP1'
p232
(lp233
I29554808
aI29581337
aS'-'
asS'SCARF2'
p234
(lp235
I20424583
aI20437859
aS'-'
asS'TRIOBP'
p236
(lp237
I37696987
aI37776556
aS'+'
asS'CCDC116'
p238
(lp239
I21632759
aI21637329
aS'+'
asS'CCDC117'
p240
(lp241
I28772673
aI28789301
aS'+'
asS'APOBEC3G'
p242
(lp243
I39077004
aI39087743
aS'+'
asS'APOBEC3F'
p244
(lp245
I39040667
aI39055970
aS'+'
asS'ATP6V1E1'
p246
(lp247
I17592135
aI17628822
aS'-'
asS'APOBEC3C'
p248
(lp249
I39014259
aI39018820
aS'+'
asS'APOBEC3B'
p250
(lp251
I38982398
aI38992779
aS'+'
asS'LINC02554'
p252
(lp253
I27310650
aI27317840
aS'+'
asS'SSTR3'
p254
(lp255
I37204236
aI37212376
aS'-'
asS'LINC02556'
p256
(lp257
I23326615
aI23328493
aS'+'
asS'CDC45'
p258
(lp259
I19479825
aI19520612
aS'+'
asS'LINC02558'
p260
(lp261
I31970822
aI32037199
aS'+'
asS'TUBGCP6'
p262
(lp263
I50217688
aI50244971
aS'-'
asS'CES5AP1'
p264
(lp265
I23359605
aI23382126
aS'-'
asS'MORC2'
p266
(lp267
I30925129
aI30968287
aS'-'
asS'GSTT2'
p268
(lp269
I23980027
aI23983915
aS'+'
asS'TOM1'
p270
(lp271
I35299274
aI35347994
aS'+'
asS'EMID1'
p272
(lp273
I29205911
aI29259597
aS'+'
asS'MIR301B'
p274
(lp275
I21652980
aI21653058
aS'+'
asS'APOBEC3D'
p276
(lp277
I39021126
aI39033277
aS'+'
asS'DDX17'
p278
(lp279
I38483437
aI38506340
aS'-'
asS'MIR4535'
p280
(lp281
I48780294
aI48780353
aS'+'
asS'MIR4534'
p282
(lp283
I37988793
aI37988853
aS'+'
asS'TOB2'
p284
(lp285
I41433487
aI41447023
aS'-'
asS'LOC105373051'
p286
(lp287
I43212673
aI43213661
aS'+'
asS'SELENOO'
p288
(lp289
I50201010
aI50217616
aS'+'
asS'SELENOM'
p290
(lp291
I31104771
aI31107587
aS'-'
asS'POTEH'
p292
(lp293
I15690025
aI15721631
aS'+'
asS'APOL6'
p294
(lp295
I35648376
aI35668409
aS'+'
asS'APOL5'
p296
(lp297
I35717871
aI35729482
aS'+'
asS'APOL4'
p298
(lp299
I36189127
aI36204833
aS'-'
asS'APOL3'
p300
(lp301
I36140322
aI36166177
aS'-'
asS'APOL2'
p302
(lp303
I36226208
aI36239954
aS'-'
asS'APOL1'
p304
(lp305
I36253070
aI36267531
aS'+'
asS'TTLL1'
p306
(lp307
I43039515
aI43089428
aS'-'
asS'NCF4-AS1'
p308
(lp309
I36847371
aI36870443
aS'-'
asS'FBXW4P1'
p310
(lp311
I23262766
aI23264999
aS'+'
asS'TTLL8'
p312
(lp313
I50018574
aI50058227
aS'-'
asS'LOC284865'
p314
(lp315
I20198728
aI20204918
aS'-'
asS'CRYBB2'
p316
(lp317
I25219644
aI25231869
aS'+'
asS'CRYBB3'
p318
(lp319
I25199857
aI25207359
aS'+'
asS'CRYBB1'
p320
(lp321
I26599277
aI26618027
aS'-'
asS'MIR648'
p322
(lp323
I17980867
aI17980961
aS'-'
asS'MIR649'
p324
(lp325
I21034175
aI21034272
aS'-'
asS'AIFM3'
p326
(lp327
I20965129
aI20981360
aS'+'
asS'KLHDC7B'
p328
(lp329
I50546202
aI50551023
aS'+'
asS'RNU12'
p330
(lp331
I42615244
aI42615393
aS'+'
asS'GNB1L'
p332
(lp333
I19788410
aI19854939
aS'-'
asS'ARSA'
p334
(lp335
I50622753
aI50628173
aS'-'
asS'THAP7'
p336
(lp337
I20999771
aI21002115
aS'-'
asS'MIR6821'
p338
(lp339
I49962865
aI49962939
aS'+'
asS'MIR6820'
p340
(lp341
I37967562
aI37967624
aS'+'
asS'CERK'
p342
(lp343
I46684409
aI46738252
aS'-'
asS'DNAL4'
p344
(lp345
I38778507
aI38794156
aS'-'
asS'EWSR1'
p346
(lp347
I29268008
aI29300525
aS'+'
asS'LIF'
p348
(lp349
I30240446
aI30246851
aS'-'
asS'LINC00896'
p350
(lp351
I20206331
aI20208537
aS'+'
asS'LINC00895'
p352
(lp353
I19566129
aI19566839
aS'-'
asS'LINC00898'
p354
(lp355
I47621042
aI47631569
aS'-'
asS'LINC00899'
p356
(lp357
I46039906
aI46044868
aS'-'
asS'RIBC2'
p358
(lp359
I45413690
aI45432422
aS'+'
asS'MIF'
p360
(lp361
I23894377
aI23895222
aS'+'
asS'HPS4'
p362
(lp363
I26443108
aI26483863
aS'-'
asS'TNRC6B'
p364
(lp365
I40044816
aI40335808
aS'+'
asS'MIRLET7A3'
p366
(lp367
I46112748
aI46112822
aS'+'
asS'SLC25A18'
p368
(lp369
I17563438
aI17590890
aS'+'
asS'SLC25A17'
p370
(lp371
I40769629
aI40819399
aS'-'
asS'MFNG'
p372
(lp373
I37469062
aI37486440
aS'-'
asS'FBLN1'
p374
(lp375
I45502838
aI45601134
aS'+'
asS'ATP5MGL'
p376
(lp377
I42639802
aI42640601
aS'-'
asS'ENTHD1'
p378
(lp379
I39743043
aI39893790
aS'-'
asS'BCRP2'
p380
(lp381
I21103015
aI21122286
aS'+'
asS'BCRP3'
p382
(lp383
I24632914
aI24653360
aS'+'
asS'EIF3L'
p384
(lp385
I37849371
aI37888782
aS'+'
asS'PHETA2'
p386
(lp387
I42074250
aI42079438
aS'+'
asS'EIF3D'
p388
(lp389
I36510849
aI36529230
aS'-'
asS'GSTTP2'
p390
(lp391
I23804575
aI24005453
aS'-'
asS'UFD1'
p392
(lp393
I19449940
aI19479215
aS'-'
asS'LOC101927447'
p394
(lp395
I43275941
aI43283826
aS'+'
asS'MTMR3'
p396
(lp397
I29883168
aI30030868
aS'+'
asS'NOL12'
p398
(lp399
I37686336
aI37693478
aS'+'
asS'CENPM'
p400
(lp401
I41938720
aI41947164
aS'-'
asS'RIMBP3B'
p402
(lp403
I21383750
aI21389166
aS'+'
asS'RIMBP3C'
p404
(lp405
I21383373
aI21389166
aS'+'
asS'MCHR1'
p406
(lp407
I40679177
aI40682814
aS'+'
asS'MTFP1'
p408
(lp409
I30425622
aI30429054
aS'+'
asS'SNU13'
p410
(lp411
I41673932
aI41688909
aS'-'
asS'SNORA92'
p412
(lp413
I38224478
aI38224720
aS'-'
asS'SNORD125'
p414
(lp415
I29333162
aI29333258
aS'-'
asS'LINC01521'
p416
(lp417
I31346758
aI31351155
aS'+'
asS'KIAA0930'
p418
(lp419
I45192241
aI45240769
aS'-'
asS'POM121L9P'
p420
(lp421
I24251620
aI24265524
aS'+'
asS'ZNF280B'
p422
(lp423
I22484425
aI22509187
aS'-'
asS'ZNF280A'
p424
(lp425
I22513735
aI22520281
aS'-'
asS'YDJC'
p426
(lp427
I21628089
aI21630051
aS'-'
asS'MRPL40'
p428
(lp429
I19431901
aI19436078
aS'+'
asS'XPNPEP3'
p430
(lp431
I40857147
aI40932815
aS'+'
asS'SDC4P'
p432
(lp433
I30481289
aI30481756
aS'-'
asS'CYB5R3'
p434
(lp435
I42617839
aI42649392
aS'-'
asS'CRELD2'
p436
(lp437
I49918629
aI49927540
aS'+'
asS'SLC5A4-AS1'
p438
(lp439
I32205114
aI32273615
aS'+'
asS'MIR3618'
p440
(lp441
I20085745
aI20085833
aS'+'
asS'ARFGAP3'
p442
(lp443
I42796525
aI42857402
aS'-'
asS'CBX6'
p444
(lp445
I38861426
aI38872334
aS'-'
asS'LRRC75B'
p446
(lp447
I24585622
aI24593068
aS'-'
asS'SMARCB1'
p448
(lp449
I23786930
aI23834518
aS'+'
asS'LOC284933'
p450
(lp451
I48538899
aI48547387
aS'-'
asS'EP300-AS1'
p452
(lp453
I41185214
aI41197501
aS'-'
asS'ADORA2A'
p454
(lp455
I24423596
aI24442361
aS'+'
asS'YPEL1'
p456
(lp457
I21697536
aI21735834
aS'-'
asS'CABIN1'
p458
(lp459
I24011303
aI24178628
aS'+'
asS'CYP2D7'
p460
(lp461
I42139590
aI42144483
aS'-'
asS'MIR3200'
p462
(lp463
I30731556
aI30731641
aS'+'
asS'PKDREJ'
p464
(lp465
I46255662
aI46263322
aS'-'
asS'MIR130B'
p466
(lp467
I21653303
aI21653385
aS'+'
asS'MIR3201'
p468
(lp469
I48274363
aI48274415
aS'+'
asS'LINC01634'
p470
(lp471
I18029384
aI18037968
aS'+'
asS'LINC01637'
p472
(lp473
I20957091
aI20964680
aS'+'
asS'DERL3'
p474
(lp475
I23834502
aI23839012
aS'-'
asS'SF3A1'
p476
(lp477
I30331987
aI30356947
aS'-'
asS'SDF2L1'
p478
(lp479
I21642301
aI21644299
aS'+'
asS'TXNRD2'
p480
(lp481
I19875517
aI19941992
aS'-'
asS'CLDN5'
p482
(lp483
I19523023
aI19525337
aS'-'
asS'MIR33A'
p484
(lp485
I41900943
aI41901012
aS'+'
asS'ADA2'
p486
(lp487
I17178789
aI17221854
aS'-'
asS'LINC01315'
p488
(lp489
I42364399
aI42369208
aS'-'
asS'HDAC10'
p490
(lp491
I50245183
aI50251405
aS'-'
asS'MIR1306'
p492
(lp493
I20086057
aI20086142
aS'+'
asS'SERPIND1'
p494
(lp495
I20774094
aI20787720
aS'+'
asS'SNORA50B'
p496
(lp497
I33704785
aI33704920
aS'-'
asS'POLDIP3'
p498
(lp499
I42583720
aI42614962
aS'-'
asS'TMEM211'
p500
(lp501
I24935097
aI24946695
aS'-'
asS'DEPDC5'
p502
(lp503
I31753950
aI31907034
aS'+'
asS'SRRD'
p504
(lp505
I26483883
aI26491938
aS'+'
asS'SHISA8'
p506
(lp507
I41909535
aI41915095
aS'-'
asS'SEZ6L'
p508
(lp509
I26169461
aI26383596
aS'+'
asS'EFCAB6-AS1'
p510
(lp511
I43516253
aI43536605
aS'+'
asS'ISX'
p512
(lp513
I35066135
aI35087387
aS'+'
asS'PIWIL3'
p514
(lp515
I24719033
aI24774720
aS'-'
asS'PI4KA'
p516
(lp517
I20707690
aI20858812
aS'-'
asS'MIRLET7BHG'
p518
(lp519
I46085996
aI46113928
aS'+'
asS'LOC101927551'
p520
(lp521
I45000564
aI45003619
aS'-'
asS'RFPL1'
p522
(lp523
I29438582
aI29442455
aS'+'
asS'RFPL3'
p524
(lp525
I32354884
aI32361161
aS'+'
asS'RFPL2'
p526
(lp527
I32190434
aI32204849
aS'-'
asS'SH3BP1'
p528
(lp529
I37639474
aI37656119
aS'+'
asS'CBX7'
p530
(lp531
I39130773
aI39152650
aS'-'
asS'LOC284930'
p532
(lp533
I47631673
aI47855600
aS'+'
asS'ADSL'
p534
(lp535
I40346499
aI40387476
aS'+'
asS'RASL10A'
p536
(lp537
I29312932
aI29315756
aS'-'
asS'GAS2L1'
p538
(lp539
I29306994
aI29312789
aS'+'
asS'LOC101929829'
p540
(lp541
I42126498
aI42130881
aS'-'
asS'MYH9'
p542
(lp543
I36281276
aI36388067
aS'-'
asS'DNAJB7'
p544
(lp545
I40859549
aI40862126
aS'-'
asS'C22orf39'
p546
(lp547
I19440886
aI19448232
aS'-'
asS'TTC28'
p548
(lp549
I27978013
aI28679865
aS'-'
asS'LOC100507599'
p550
(lp551
I26512531
aI26514567
aS'+'
asS'PVALB'
p552
(lp553
I36800700
aI36819473
aS'-'
asS'C22orf31'
p554
(lp555
I29058671
aI29061919
aS'-'
asS'RANBP1'
p556
(lp557
I20115937
aI20127357
aS'+'
asS'C22orf34'
p558
(lp559
I49414524
aI49657542
aS'-'
asS'KIAA1671'
p560
(lp561
I25027973
aI25197448
aS'+'
asS'LOC105372977'
p562
(lp563
I27187515
aI27189215
aS'+'
asS'PRR5-ARHGAP8'
p564
(lp565
I44702197
aI44862784
aS'+'
asS'MIR185'
p566
(lp567
I20033138
aI20033220
aS'+'
asS'CELSR1'
p568
(lp569
I46360833
aI46537170
aS'-'
asS'RABL2B'
p570
(lp571
I50767491
aI50783682
aS'-'
asS'TXN2'
p572
(lp573
I36467045
aI36481640
aS'-'
asS'APOBEC3A_B'
p574
(lp575
I38957521
aI38992778
aS'+'
asS'JOSD1'
p576
(lp577
I38685542
aI38701418
aS'-'
asS'EP300'
p578
(lp579
I41092609
aI41180077
aS'+'
asS'TSPO'
p580
(lp581
I43151513
aI43163242
aS'+'
asS'PPP6R2'
p582
(lp583
I50343316
aI50445089
aS'+'
asS'RTCB'
p584
(lp585
I32387574
aI32412287
aS'-'
asS'ANKRD62P1-PARP4P3'
p586
(lp587
I16653708
aI16675540
aS'-'
asS'TFIP11'
p588
(lp589
I26491239
aI26512506
aS'-'
asS'IGLL1'
p590
(lp591
I23573125
aI23580308
aS'-'
asS'IGLL5'
p592
(lp593
I22887779
aI22895833
aS'+'
asS'TANGO2'
p594
(lp595
I20016999
aI20067164
aS'+'
asS'LOC107985544'
p596
(lp597
I30886055
aI30921779
aS'-'
asS'UQCR10'
p598
(lp599
I29767368
aI29770413
aS'+'
asS'SEPT5'
p600
(lp601
I19714502
aI19723319
aS'+'
asS'H1F0'
p602
(lp603
I37805106
aI37807436
aS'+'
asS'TRMT2A'
p604
(lp605
I20111865
aI20117295
aS'-'
asS'GAL3ST1'
p606
(lp607
I30554634
aI30574587
aS'-'
asS'LARGE-AS1'
p608
(lp609
I33724985
aI33750816
aS'+'
asS'DRG1'
p610
(lp611
I31399552
aI31434186
aS'+'
asS'BIK'
p612
(lp613
I43110747
aI43129712
aS'+'
asS'SUN2'
p614
(lp615
I38734713
aI38756019
aS'-'
asS'BID'
p616
(lp617
I17734139
aI17774665
aS'-'
asS'FLJ30901'
p618
(lp619
I43197280
aI43201154
aS'-'
asS'LOC100506679'
p620
(lp621
I43038584
aI43052365
aS'+'
asS'PRR5'
p622
(lp623
I44668546
aI44737681
aS'+'
asS'YWHAH'
p624
(lp625
I31944492
aI31957603
aS'+'
asS'MED15'
p626
(lp627
I20507541
aI20587632
aS'+'
asS'AP1B1'
p628
(lp629
I29327679
aI29388583
aS'-'
asS'XRCC6'
p630
(lp631
I41621162
aI41664048
aS'+'
asS'MORC2-AS1'
p632
(lp633
I30922307
aI30926653
aS'+'
asS'PACSIN2'
p634
(lp635
I42869765
aI43015176
aS'-'
asS'SPECC1L-ADORA2A'
p636
(lp637
I24270816
aI24442360
aS'+'
asS'RAC2'
p638
(lp639
I37225260
aI37244299
aS'-'
asS'ZC3H7B'
p640
(lp641
I41301502
aI41360147
aS'+'
asS'CDC42EP1'
p642
(lp643
I37560463
aI37569403
aS'+'
asS'CARD10'
p644
(lp645
I37490361
aI37519203
aS'-'
asS'MGAT3'
p646
(lp647
I39457319
aI39492196
aS'+'
asS'SGSM3'
p648
(lp649
I40370561
aI40410289
aS'+'
asS'SGSM1'
p650
(lp651
I24806220
aI24926846
aS'+'
asS'MRTFA-AS1'
p652
(lp653
I40521799
aI40526707
aS'+'
asS'FAM227A'
p654
(lp655
I38578119
aI38656629
aS'-'
asS'CYTH4'
p656
(lp657
I37282382
aI37315348
aS'+'
asS'BMS1P20'
p658
(lp659
I22298097
aI22322968
aS'+'
asS'SLC16A8'
p660
(lp661
I38078136
aI38083163
aS'-'
asS'BMS1P22'
p662
(lp663
I15805697
aI15820884
aS'-'
asS'TBC1D22A'
p664
(lp665
I46762616
aI47175699
aS'+'
asS'TYMP'
p666
(lp667
I50525752
aI50530085
aS'-'
asS'NDUFA6-DT'
p668
(lp669
I42090932
aI42125349
aS'+'
asS'CACNG2'
p670
(lp671
I36560868
aI36702858
aS'-'
asS'WBP2NL'
p672
(lp673
I41998724
aI42028473
aS'+'
asS'TOP1P2'
p674
(lp675
I24764500
aI24766019
aS'+'
asS'LINC01665'
p676
(lp677
I16746868
aI16748438
aS'-'
asS'RRP7A'
p678
(lp679
I42508334
aI42519823
aS'-'
asS'CASTOR1'
p680
(lp681
I30285117
aI30289627
aS'-'
asS'PPIL2'
p682
(lp683
I21665983
aI21697913
aS'+'
asS'MIR658'
p684
(lp685
I37844271
aI37844371
aS'-'
asS'POM121L1P'
p686
(lp687
I22631556
aI22644541
aS'-'
asS'DUXAP8'
p688
(lp689
I15784953
aI15827434
aS'+'
asS'TIMP3'
p690
(lp691
I32800815
aI32863041
aS'+'
asS'HSFY1P1'
p692
(lp693
I16827473
aI16829335
aS'+'
asS'POLR3H'
p694
(lp695
I41525800
aI41544606
aS'-'
asS'CACNA1I'
p696
(lp697
I39570752
aI39689736
aS'+'
asS'TMEM191B'
p698
(lp699
I18527801
aI18530573
aS'+'
asS'TMEM191C'
p700
(lp701
I21467169
aI21469935
aS'+'
asS'TMEM191A'
p702
(lp703
I20701113
aI20704603
aS'+'
asS'PLA2G6'
p704
(lp705
I38111494
aI38181909
aS'-'
asS'GRAP2'
p706
(lp707
I39901081
aI39973342
aS'+'
asS'PLA2G3'
p708
(lp709
I31134806
aI31140607
aS'-'
asS'EIF4ENIF1'
p710
(lp711
I31439358
aI31489888
aS'-'
asS'ADM2'
p712
(lp713
I50481723
aI50486437
aS'+'
asS'KCNJ4'
p714
(lp715
I38426327
aI38455199
aS'-'
asS'TRMU'
p716
(lp717
I46335400
aI46357340
aS'+'
asS'PNPLA5'
p718
(lp719
I43879677
aI43892013
aS'-'
asS'PEX26'
p720
(lp721
I18077919
aI18091031
aS'+'
asS'SCUBE1'
p722
(lp723
I43203222
aI43343388
aS'-'
asS'SLC25A1'
p724
(lp725
I19175574
aI19178863
aS'-'
asS'PRR14L'
p726
(lp727
I31681347
aI31750134
aS'-'
asS'LOC101927051'
p728
(lp729
I37641831
aI37658377
aS'-'
asS'SNORD83A'
p730
(lp731
I39315212
aI39315307
aS'-'
asS'PATZ1'
p732
(lp733
I31325803
aI31346263
aS'-'
asS'SNORD83B'
p734
(lp735
I39313818
aI39313911
aS'-'
asS'BRD1'
p736
(lp737
I49773277
aI49827927
aS'-'
asS'SNRPD3'
p738
(lp739
I24555649
aI24574964
aS'+'
asS'HIRA'
p740
(lp741
I19330700
aI19431696
aS'-'
asS'PES1'
p742
(lp743
I30576624
aI30607013
aS'-'
asS'RNF185'
p744
(lp745
I31160151
aI31207019
aS'+'
asS'SFI1'
p746
(lp747
I31496138
aI31618551
aS'+'
asS'INPP5J'
p748
(lp749
I31122922
aI31134697
aS'+'
asS'GALR3'
p750
(lp751
I37823381
aI37825495
aS'+'
asS'RNF215'
p752
(lp753
I30378813
aI30387313
aS'-'
asS'RBX1'
p754
(lp755
I40951346
aI40973015
aS'+'
asS'LZTR1'
p756
(lp757
I20982268
aI20999037
aS'+'
asS'CSF2RB'
p758
(lp759
I36913627
aI36940437
aS'+'
asS'MIR6069'
p760
(lp761
I35336720
aI35336799
aS'-'
asS'GAB4'
p762
(lp763
I16961935
aI17008222
aS'-'
asS'SNORA77B'
p764
(lp765
I20126401
aI20126526
aS'+'
asS'GTSE1-DT'
p766
(lp767
I46295142
aI46296660
aS'-'
asS'ARHGAP8'
p768
(lp769
I44752557
aI44862784
aS'+'
asS'NUP50-DT'
p770
(lp771
I45133757
aI45163781
aS'-'
asS'RTL10'
p772
(lp773
I19846137
aI19854848
aS'-'
asS'SEPT3'
p774
(lp775
I41969437
aI41998221
aS'+'
asS'PITPNB'
p776
(lp777
I27851668
aI27919306
aS'-'
asS'PPM1F'
p778
(lp779
I21919418
aI21952878
aS'-'
asS'PNPLA3'
p780
(lp781
I43923738
aI43947568
aS'+'
asS'LOC339685'
p782
(lp783
I47345570
aI47373541
aS'+'
asS'MAFF'
p784
(lp785
I38201931
aI38216510
aS'+'
asS'PIK3IP1'
p786
(lp787
I31281592
aI31292534
aS'-'
asS'RRP7BP'
p788
(lp789
I42573259
aI42582011
aS'-'
asS'CHEK2'
p790
(lp791
I28687742
aI28741834
aS'-'
asS'LOC642648'
p792
(lp793
I46064650
aI46071021
aS'-'
asS'LARGE1'
p794
(lp795
I33272525
aI33922888
aS'-'
asS'CHKB'
p796
(lp797
I50578957
aI50582999
aS'-'
asS'DDT'
p798
(lp799
I23971364
aI23979828
aS'-'
asS'PCAT14'
p800
(lp801
I23538101
aI23547306
aS'+'
asS'CCDC134'
p802
(lp803
I41800621
aI41826299
aS'+'
asS'GSTT4'
p804
(lp805
I23998400
aI24005361
aS'-'
asS'LINC00207'
p806
(lp807
I44569339
aI44572449
aS'+'
asS'RBFOX2'
p808
(lp809
I35738733
aI36028537
aS'-'
asS'GNAZ'
p810
(lp811
I23070348
aI23125037
aS'+'
asS'NPTXR'
p812
(lp813
I38818450
aI38844012
aS'-'
asS'LINC01589'
p814
(lp815
I45604431
aI45605647
aS'-'
asS'PHF5A'
p816
(lp817
I41459716
aI41468704
aS'-'
asS'SYN3'
p818
(lp819
I32512552
aI33058391
aS'-'
asS'TOP3B'
p820
(lp821
I21957024
aI21982843
aS'-'
asS'PANX2'
p822
(lp823
I50170730
aI50180295
aS'+'
asS'SEC14L3'
p824
(lp825
I30459228
aI30472047
aS'-'
asS'SEC14L2'
p826
(lp827
I30396940
aI30425303
aS'+'
asS'ODF3B'
p828
(lp829
I50530408
aI50532579
aS'-'
asS'SEC14L6'
p830
(lp831
I30522787
aI30546682
aS'-'
asS'SEC14L4'
p832
(lp833
I30488905
aI30505711
aS'-'
asS'TBX1'
p834
(lp835
I19756702
aI19783589
aS'+'
asS'FBXO7'
p836
(lp837
I32474719
aI32498831
aS'+'
asS'CHCHD10'
p838
(lp839
I23765833
aI23767972
aS'-'
asS'DENND6B'
p840
(lp841
I50311962
aI50327060
aS'-'
asS'BCR'
p842
(lp843
I23180364
aI23318037
aS'+'
asS'CSDC2'
p844
(lp845
I41561009
aI41576666
aS'+'
asS'ZNRF3-AS1'
p846
(lp847
I29024998
aI29031476
aS'-'
asS'SYCE3'
p848
(lp849
I50551111
aI50562919
aS'-'
asS'CSNK1E'
p850
(lp851
I38290690
aI38318084
aS'-'
asS'NDUFA6'
p852
(lp853
I42085525
aI42090772
aS'-'
asS'TSSK2'
p854
(lp855
I19131307
aI19132622
aS'+'
asS'RIMBP3'
p856
(lp857
I18606126
aI18611919
aS'-'
asS'CDPF1'
p858
(lp859
I46244012
aI46250296
aS'-'
asS'COMT'
p860
(lp861
I19941739
aI19969975
aS'+'
asS'RFPL3S'
p862
(lp863
I32359905
aI32371264
aS'-'
asS'SMTN'
p864
(lp865
I31081295
aI31104624
aS'+'
asS'GUCD1'
p866
(lp867
I24540422
aI24555935
aS'-'
asS'ATXN10'
p868
(lp869
I45671797
aI45845307
aS'+'
asS'LGALS2'
p870
(lp871
I37570247
aI37580087
aS'-'
asS'LGALS1'
p872
(lp873
I37675605
aI37679802
aS'+'
asS'OSBP2'
p874
(lp875
I30693781
aI30907824
aS'+'
asS'NUP50'
p876
(lp877
I45163924
aI45188017
aS'+'
asS'SLC5A1'
p878
(lp879
I32043031
aI32113024
aS'+'
asS'TPTEP2-CSNK1E'
p880
(lp881
I38290690
aI38398522
aS'-'
asS'PISD'
p882
(lp883
I31618490
aI31662564
aS'-'
asS'SLC5A4'
p884
(lp885
I32218475
aI32255331
aS'-'
asS'LMF2'
p886
(lp887
I50502946
aI50507706
aS'-'
asS'HMGXB4'
p888
(lp889
I35257451
aI35295807
aS'+'
asS'LIMK2'
p890
(lp891
I31212297
aI31280080
aS'+'
asS'PRAMENP'
p892
(lp893
I21991098
aI22043934
aS'-'
asS'MIR3909'
p894
(lp895
I35335639
aI35335758
aS'+'
asS'NEFH'
p896
(lp897
I29480191
aI29491288
aS'+'
asS'DMC1'
p898
(lp899
I38518948
aI38570196
aS'-'
asS'P2RX6'
p900
(lp901
I21015152
aI21028013
aS'+'
asS'CPT1B'
p902
(lp903
I50568860
aI50578667
aS'-'
asS'TPST2'
p904
(lp905
I26521997
aI26590141
aS'-'
asS'CHADL'
p906
(lp907
I41229509
aI41240931
aS'-'
asS'LOC105372990'
p908
(lp909
I30432685
aI30436501
aS'+'
asS'MCM5'
p910
(lp911
I35400122
aI35424502
aS'+'
asS'GTPBP1'
p912
(lp913
I38705801
aI38733587
aS'+'
asS'DUSP18'
p914
(lp915
I30652050
aI30667890
aS'-'
asS'LOC105373064'
p916
(lp917
I45176241
aI45191612
aS'-'
asS'MIR548J'
p918
(lp919
I26555211
aI26555323
aS'-'
asS'THAP7-AS1'
p920
(lp921
I21001921
aI21010374
aS'+'
asS'NCAPH2'
p922
(lp923
I50508215
aI50524780
aS'+'
asS'TTC38'
p924
(lp925
I46267963
aI46294008
aS'+'
asS'MIR5739'
p926
(lp927
I28459868
aI28459948
aS'+'
asS'MPPED1'
p928
(lp929
I43412013
aI43506920
aS'+'
asS'LOC91370'
p930
(lp931
I30246209
aI30246993
aS'+'
asS'NFAM1'
p932
(lp933
I42380407
aI42432395
aS'-'
asS'A4GALT'
p934
(lp935
I42692111
aI42721301
aS'-'
asS'CCDC157'
p936
(lp937
I30356634
aI30378655
aS'+'
asS'LINC01399'
p938
(lp939
I35119823
aI35231056
aS'-'
asS'MIR3198-1'
p940
(lp941
I17764179
aI17764259
aS'-'
asS'RGL4'
p942
(lp943
I23690860
aI23699176
aS'+'
asS'SCO2'
p944
(lp945
I50523567
aI50526439
aS'-'
asS'UPB1'
p946
(lp947
I24495282
aI24526585
aS'+'
asS'ZNF70'
p948
(lp949
I23738681
aI23751112
aS'-'
asS'ZNF74'
p950
(lp951
I20394114
aI20408463
aS'+'
asS'DGCR9'
p952
(lp953
I19017833
aI19020248
aS'+'
asS'DGCR8'
p954
(lp955
I20080231
aI20111877
aS'+'
asS'BMS1P18'
p956
(lp957
I15805697
aI15815897
aS'-'
asS'BMS1P17'
p958
(lp959
I15805697
aI15815897
aS'-'
asS'DGCR2'
p960
(lp961
I19036281
aI19122454
aS'-'
asS'DGCR5'
p962
(lp963
I18970497
aI19031242
aS'+'
asS'GRK3'
p964
(lp965
I25564893
aI25729291
aS'+'
asS'DGCR6'
p966
(lp967
I18906222
aI18912088
aS'+'
asS'MPST'
p968
(lp969
I37019641
aI37029822
aS'+'
asS'MICAL3'
p970
(lp971
I17787649
aI18024559
aS'-'
asS'SUSD2'
p972
(lp973
I24181475
aI24189106
aS'+'
asS'THOC5'
p974
(lp975
I29508166
aI29553747
aS'-'
asS'LINC01659'
p976
(lp977
I23433563
aI23435071
aS'+'
asS'LINC01656'
p978
(lp979
I44443326
aI44444788
aS'+'
asS'SMDT1'
p980
(lp981
I42079690
aI42084284
aS'+'
asS'FAM19A5'
p982
(lp983
I48489459
aI48751935
aS'+'
asS'RTL6'
p984
(lp985
I44492569
aI44498125
aS'-'
asS'RANGAP1'
p986
(lp987
I41244776
aI41302213
aS'-'
asS'CRYBB2P1'
p988
(lp989
I25448086
aI25461678
aS'+'
asS'LOC100506271'
p990
(lp991
I37352190
aI37354839
aS'-'
asS'CCT8L2'
p992
(lp993
I16590757
aI16592810
aS'-'
asS'HORMAD2-AS1'
p994
(lp995
I30008741
aI30080480
aS'-'
asS'LOC730668'
p996
(lp997
I46006615
aI46010777
aS'+'
asS'ELFN2'
p998
(lp999
I37340643
aI37427470
aS'-'
asS'LOC102723769'
p1000
(lp1001
I11897405
aI11956534
aS'+'
asS'KCTD17'
p1002
(lp1003
I37051735
aI37063390
aS'+'
asS'CCDC188'
p1004
(lp1005
I20148426
aI20151055
aS'-'
asS'MIR1286'
p1006
(lp1007
I20249133
aI20249211
aS'-'
asS'C22orf46'
p1008
(lp1009
I41690542
aI41698136
aS'+'
asS'SERHL2'
p1010
(lp1011
I42553861
aI42574382
aS'+'
asS'ADORA2A-AS1'
p1012
(lp1013
I24429205
aI24495074
aS'-'
asS'C22orf42'
p1014
(lp1015
I32149005
aI32159303
aS'-'
asS'L3MBTL2'
p1016
(lp1017
I41205308
aI41231271
aS'+'
asS'KDELR3'
p1018
(lp1019
I38468095
aI38483447
aS'+'
asS'IL17REL'
p1020
(lp1021
I49994512
aI50012626
aS'-'
asS'ASPHD2'
p1022
(lp1023
I26429313
aI26445012
aS'+'
asS'RASD2'
p1024
(lp1025
I35540493
aI35553998
aS'+'
asS'ANKRD54'
p1026
(lp1027
I37830854
aI37849318
aS'-'
asS'SLC7A4'
p1028
(lp1029
I21028717
aI21032558
aS'-'
asS'RPL3'
p1030
(lp1031
I39312881
aI39319665
aS'-'
asS'PHF21B'
p1032
(lp1033
I44881162
aI45009928
aS'-'
asS'SPECC1L'
p1034
(lp1035
I24270816
aI24417740
aS'+'
asS'UBE2L3'
p1036
(lp1037
I21549446
aI21624034
aS'+'
asS'LL22NC03-63E9.3'
p1038
(lp1039
I22559342
aI22566599
aS'+'
asS'TOMM22'
p1040
(lp1041
I38681948
aI38684761
aS'+'
asS'KREMEN1'
p1042
(lp1043
I29073077
aI29168333
aS'+'
asS'MIR1281'
p1044
(lp1045
I41092512
aI41092566
aS'+'
asS'LRP5L'
p1046
(lp1047
I25351417
aI25381577
aS'-'
asS'TRABD'
p1048
(lp1049
I50185911
aI50199599
aS'+'
asS'POTEH-AS1'
p1050
(lp1051
I15700385
aI15703354
aS'-'
asS'OSM'
p1052
(lp1053
I30262827
aI30266843
aS'-'
asS'GRAMD4'
p1054
(lp1055
I46577087
aI46682756
aS'+'
asS'MIR3928'
p1056
(lp1057
I31160061
aI31160119
aS'-'
asS'MIR659'
p1058
(lp1059
I37847677
aI37847774
aS'-'
asS'SMC1B'
p1060
(lp1061
I45344063
aI45413619
aS'-'
asS'FAM118A'
p1062
(lp1063
I45308959
aI45341955
aS'+'
asS'MN1'
p1064
(lp1065
I27748276
aI27801498
aS'-'
asS'POLR2F'
p1066
(lp1067
I37953662
aI38041915
aS'+'
asS'LOC105373031'
p1068
(lp1069
I38570499
aI38571358
aS'+'
asS'TPTEP2'
p1070
(lp1071
I38344664
aI38398926
aS'-'
asS'TPTEP1'
p1072
(lp1073
I16601910
aI16648830
aS'+'
asS'ACO2'
p1074
(lp1075
I41469124
aI41528989
aS'+'
asS'TTC28-AS1'
p1076
(lp1077
I27919375
aI28002681
aS'+'
asS'LOC100130899'
p1078
(lp1079
I40032331
aI40036577
aS'+'
asS'GSTT2B'
p1080
(lp1081
I23957413
aI23961206
aS'-'
asS'MIR5571'
p1082
(lp1083
I22886266
aI22886379
aS'+'
asS'SERHL'
p1084
(lp1085
I42500578
aI42512560
aS'+'
asS'GGT3P'
p1086
(lp1087
I18773688
aI18791961
aS'-'
asS'HMOX1'
p1088
(lp1089
I35381066
aI35394214
aS'+'
asS'POM121L10P'
p1090
(lp1091
I24645165
aI24659147
aS'-'
asS'PRODH'
p1092
(lp1093
I18912773
aI18936553
aS'-'
asS'MIR3619'
p1094
(lp1095
I46091043
aI46091126
aS'+'
asS'ASCC2'
p1096
(lp1097
I29788607
aI29838304
aS'-'
asS'WNT7B'
p1098
(lp1099
I45920365
aI45977128
aS'-'
asS'IL17RA'
p1100
(lp1101
I17084958
aI17115694
aS'+'
asS'TUBA8'
p1102
(lp1103
I18110686
aI18131731
aS'+'
asS'NCF4'
p1104
(lp1105
I36860987
aI36878017
aS'+'
asS'LINC01297'
p1106
(lp1107
I15746673
aI15778289
aS'+'
asS'NAGA'
p1108
(lp1109
I42058333
aI42070842
aS'-'
asS'ACR'
p1110
(lp1111
I50738223
aI50745299
aS'+'
asS'MAPK11'
p1112
(lp1113
I50263712
aI50270393
aS'-'
asS'MAPK12'
p1114
(lp1115
I50252900
aI50261810
aS'-'
asS'SHISAL1'
p1116
(lp1117
I44243676
aI44312851
aS'-'
asS'MGAT3-AS1'
p1118
(lp1119
I39475806
aI39476822
aS'-'
asS'LOC105373044'
p1120
(lp1121
I41551708
aI41560883
aS'-'
asS'LIF-AS1'
p1122
(lp1123
I30239193
aI30240538
aS'+'
asS'ESS2'
p1124
(lp1125
I19130278
aI19144677
aS'-'
asS'FRG1FP'
p1126
(lp1127
I10940596
aI10961529
aS'-'
asS'BAIAP2L2'
p1128
(lp1129
I38084888
aI38110669
aS'-'
asS'TEF'
p1130
(lp1131
I41367332
aI41399328
aS'+'
asS'GP1BB'
p1132
(lp1133
I19723542
aI19724774
aS'+'
asS'MRTFA'
p1134
(lp1135
I40410284
aI40636719
aS'-'
asS'MAPK1'
p1136
(lp1137
I21759657
aI21867680
aS'-'
asS'MIATNB'
p1138
(lp1139
I26672842
aI26780893
aS'+'
asS'TCF20'
p1140
(lp1141
I42160012
aI42283927
aS'-'
asS'PI4KAP1'
p1142
(lp1143
I18533863
aI18548828
aS'-'
asS'PI4KAP2'
p1144
(lp1145
I21472997
aI21517491
aS'-'
asS'CECR2'
p1146
(lp1147
I17359948
aI17558155
aS'+'
asS'CECR3'
p1148
(lp1149
I17256859
aI17266733
aS'-'
asS'CECR7'
p1150
(lp1151
I17036569
aI17060070
aS'+'
asS'MIOX'
p1152
(lp1153
I50486783
aI50490321
aS'+'
asS'GGA1'
p1154
(lp1155
I37608473
aI37633564
aS'+'
asS'PARVB'
p1156
(lp1157
I43999210
aI44169232
aS'+'
asS'OR11H1'
p1158
(lp1159
I15528158
aI15529139
aS'+'
asS'GCAT'
p1160
(lp1161
I37807904
aI37817176
aS'+'
asS'TNFRSF13C'
p1162
(lp1163
I41925031
aI41926817
aS'-'
asS'MAPK8IP2'
p1164
(lp1165
I50600684
aI50613981
aS'+'
asS'APOBEC3B-AS1'
p1166
(lp1167
I38991558
aI38998220
aS'-'
asS'XKR3'
p1168
(lp1169
I16783415
aI16821699
aS'-'
asS'SYNGR1'
p1170
(lp1171
I39349948
aI39385588
aS'+'
asS'MIR3199-1'
p1172
(lp1173
I27920524
aI27920612
aS'-'
asS'MIR3199-2'
p1174
(lp1175
I27920525
aI27920611
aS'+'
asS'PICK1'
p1176
(lp1177
I38057254
aI38075701
aS'+'
asS'SREBF2'
p1178
(lp1179
I41833078
aI41907308
aS'+'
asS'AP1B1P1'
p1180
(lp1181
I32121976
aI32133469
aS'+'
asS'ZMAT5'
p1182
(lp1183
I29730955
aI29767011
aS'-'
asS'ST13'
p1184
(lp1185
I40824534
aI40857008
aS'-'
asS'HDHD5'
p1186
(lp1187
I17137519
aI17165287
aS'-'
asS'DESI1'
p1188
(lp1189
I41598027
aI41621057
aS'-'
asS'TEX33'
p1190
(lp1191
I36991118
aI37007836
aS'-'
asS'LOC100506472'
p1192
(lp1193
I39432159
aI39437128
aS'+'
asS'PDXP'
p1194
(lp1195
I37658722
aI37666932
aS'+'
asS'MIR1249'
p1196
(lp1197
I45200953
aI45201019
aS'-'
asS'LOC100286925'
p1198
(lp1199
I21938236
aI21943433
aS'+'
asS'TST'
p1200
(lp1201
I37010858
aI37020183
aS'-'
asS'ZBED4'
p1202
(lp1203
I49853848
aI49890078
aS'+'
asS'FAM83F'
p1204
(lp1205
I39994948
aI40030039
aS'+'
asS'XBP1'
p1206
(lp1207
I28794559
aI28800572
aS'-'
asS'LOC339666'
p1208
(lp1209
I32376663
aI32384342
aS'+'
asS'RAB36'
p1210
(lp1211
I23145323
aI23165643
aS'+'
asS'BCL2L13'
p1212
(lp1213
I17638583
aI17730855
aS'+'
asS'UPK3A'
p1214
(lp1215
I45284948
aI45295874
aS'+'
asS'POM121L8P'
p1216
(lp1217
I21282424
aI21297726
aS'+'
asS'RPS19BP1'
p1218
(lp1219
I39529092
aI39532855
aS'-'
asS'FOXRED2'
p1220
(lp1221
I36487185
aI36507101
aS'-'
asS'C22orf15'
p1222
(lp1223
I23763013
aI23765863
aS'+'
asS'TTLL12'
p1224
(lp1225
I43166621
aI43187134
aS'-'
asS'SLC35E4'
p1226
(lp1227
I30635814
aI30669016
aS'+'
asS'MIEF1'
p1228
(lp1229
I39500099
aI39518134
aS'+'
asS'PLXNB2'
p1230
(lp1231
I50274978
aI50307572
aS'-'
asS'PDGFB'
p1232
(lp1233
I39223358
aI39245055
aS'-'
asS'PIM3'
p1234
(lp1235
I49960771
aI49964072
aS'+'
asS'SNORD140'
p1236
(lp1237
I41073601
aI41073721
aS'-'
asS'TMPRSS6'
p1238
(lp1239
I37065435
aI37109563
aS'-'
asS'OGFRP1'
p1240
(lp1241
I42269752
aI42274862
aS'+'
asS'GGT2'
p1242
(lp1243
I21207972
aI21277862
aS'-'
asS'GGT1'
p1244
(lp1245
I24583749
aI24629005
aS'+'
asS'GGT5'
p1246
(lp1247
I24219653
aI24245142
aS'-'
asS'HORMAD2'
p1248
(lp1249
I30080068
aI30177075
aS'+'
asS'CLTCL1'
p1250
(lp1251
I19179473
aI19291719
aS'-'
asS'USP18'
p1252
(lp1253
I18149990
aI18177395
aS'+'
asS'MOV10L1'
p1254
(lp1255
I50090005
aI50161687
aS'+'
asS'SHANK3'
p1256
(lp1257
I50674641
aI50733212
aS'+'
asS'LL22NC01-81G9.3'
p1258
(lp1259
I36965247
aI36968172
aS'+'
asS'CYP2D6'
p1260
(lp1261
I42126498
aI42130881
aS'-'
asS'TAB1'
p1262
(lp1263
I39399753
aI39437127
aS'+'
asS'C1QTNF6'
p1264
(lp1265
I37180165
aI37199423
aS'-'
asS'ZDHHC8P1'
p1266
(lp1267
I23390604
aI23402612
aS'-'
asS'DGCR11'
p1268
(lp1269
I19046161
aI19048375
aS'-'
asS'DGCR10'
p1270
(lp1271
I19022623
aI19023550
aS'+'
asS'MLC1'
p1272
(lp1273
I50059390
aI50085929
aS'-'
asS'LINC01664'
p1274
(lp1275
I17121594
aI17132104
aS'+'
asS'ATF4'
p1276
(lp1277
I39520558
aI39522686
aS'+'
asS'TBC1D10A'
p1278
(lp1279
I30291989
aI30326966
aS'-'
asS'SEPT5-GP1BB'
p1280
(lp1281
I19717219
aI19724774
aS'+'
as.