(dp1
S'LOC642852'
p2
(lp3
I45288051
aI45297354
aS'+'
asS'SUMO3'
p4
(lp5
I44805616
aI44818129
aS'-'
asS'IFNAR2'
p6
(lp7
I33229894
aI33264513
aS'+'
asS'IFNAR1'
p8
(lp9
I33324908
aI33359822
aS'+'
asS'N6AMT1'
p10
(lp11
I28872190
aI28885373
aS'-'
asS'C2CD2'
p12
(lp13
I41885109
aI41953890
aS'-'
asS'WDR4'
p14
(lp15
I42843079
aI42879583
aS'-'
asS'WRB'
p16
(lp17
I39380244
aI39428528
aS'+'
asS'MCM3AP-AS1'
p18
(lp19
I46229230
aI46251701
aS'+'
asS'SMIM11B'
p20
(lp21
I7744950
aI7758630
aS'+'
asS'SMIM11A'
p22
(lp23
I7744920
aI7758630
aS'+'
asS'MIR3648-1'
p24
(lp25
I8208472
aI8208652
aS'+'
asS'MIR3648-2'
p26
(lp27
I8208472
aI8208652
aS'+'
asS'KCNJ6'
p28
(lp29
I37607372
aI37916457
aS'-'
asS'HMGN1'
p30
(lp31
I39342314
aI39349121
aS'-'
asS'RRP1B'
p32
(lp33
I43659550
aI43696079
aS'+'
asS'MX2'
p34
(lp35
I41362026
aI41409392
aS'+'
asS'MX1'
p36
(lp37
I41420557
aI41459214
aS'+'
asS'LOC102724951'
p38
(lp39
I7048858
aI7087230
aS'+'
asS'MIR6814'
p40
(lp41
I41746771
aI41746841
aS'-'
asS'MIR6815'
p42
(lp43
I45478265
aI45478326
aS'+'
asS'SAMSN1'
p44
(lp45
I14485227
aI14583402
aS'-'
asS'LOC102724219'
p46
(lp47
I7048858
aI7087230
aS'+'
asS'RWDD2B'
p48
(lp49
I29005758
aI29019371
aS'-'
asS'BACH1'
p50
(lp51
I29305203
aI29361896
aS'+'
asS'PSMG1'
p52
(lp53
I39175445
aI39183514
aS'-'
asS'LOC101928398'
p54
(lp55
I38857538
aI38858862
aS'+'
asS'MIR4760'
p56
(lp57
I40212351
aI40212431
aS'-'
asS'TEKT4P2'
p58
(lp59
I9068355
aI9129761
aS'-'
asS'KRTAP10-12'
p60
(lp61
I44697171
aI44698044
aS'+'
asS'LINC01424'
p62
(lp63
I44802240
aI44804716
aS'+'
asS'LINC01425'
p64
(lp65
I21746984
aI21797415
aS'+'
asS'LINC01426'
p66
(lp67
I34745824
aI34784871
aS'+'
asS'KRTAP10-11'
p68
(lp69
I44646413
aI44647649
aS'+'
asS'LINC01423'
p70
(lp71
I38326358
aI38346076
aS'-'
asS'GART'
p72
(lp73
I33503930
aI33542892
aS'-'
asS'C21orf58'
p74
(lp75
I46301129
aI46323899
aS'-'
asS'PAXBP1-AS1'
p76
(lp77
I32728113
aI32743122
aS'+'
asS'HLCS'
p78
(lp79
I36748624
aI36990394
aS'-'
asS'CBS'
p80
(lp81
I6444868
aI6468539
aS'-'
asS'RIPPLY3'
p82
(lp83
I37006149
aI37019658
aS'+'
asS'FTCD'
p84
(lp85
I46136261
aI46155567
aS'-'
asS'BACH1-IT2'
p86
(lp87
I29372500
aI29373980
aS'+'
asS'BACH1-IT3'
p88
(lp89
I29496046
aI29500382
aS'+'
asS'RNA18SN5'
p90
(lp91
I8209630
aI8211499
aS'+'
asS'RNA18SN4'
p92
(lp93
I8209630
aI8211499
aS'+'
asS'RNA18SN3'
p94
(lp95
I8209630
aI8211499
aS'+'
asS'RNA18SN2'
p96
(lp97
I8209630
aI8211499
aS'+'
asS'RNA18SN1'
p98
(lp99
I8209630
aI8211499
aS'+'
asS'MIR6130'
p100
(lp101
I23079283
aI23079392
aS'+'
asS'RCAN1'
p102
(lp103
I34516442
aI34615113
aS'-'
asS'LRRC3-DT'
p104
(lp105
I44450985
aI44455284
aS'-'
asS'B3GALT5-AS1'
p106
(lp107
I39597147
aI39612822
aS'-'
asS'LINC01692'
p108
(lp109
I24840549
aI25057743
aS'+'
asS'LINC01690'
p110
(lp111
I32958887
aI32960564
aS'+'
asS'LINC01697'
p112
(lp113
I28048413
aI28137609
aS'+'
asS'LINC01695'
p114
(lp115
I28116093
aI28228667
aS'-'
asS'LINC01694'
p116
(lp117
I45593653
aI45603056
aS'+'
asS'MIR6724-4'
p118
(lp119
I8205314
aI8205406
aS'+'
asS'SAMSN1-AS1'
p120
(lp121
I14582201
aI14598303
aS'+'
asS'MIR6724-1'
p122
(lp123
I8249504
aI8249596
aS'+'
asS'MIR6724-3'
p124
(lp125
I8249504
aI8249596
aS'+'
asS'DONSON'
p126
(lp127
I33577552
aI33588708
aS'-'
asS'NDUFV3'
p128
(lp129
I42893308
aI42913299
aS'+'
asS'CRYZL1'
p130
(lp131
I33589340
aI33641854
aS'-'
asS'RBM11'
p132
(lp133
I14216129
aI14228372
aS'+'
asS'MIR99A'
p134
(lp135
I16539088
aI16539169
aS'+'
asS'BRWD1'
p136
(lp137
I39185477
aI39313786
aS'-'
asS'MIR155HG'
p138
(lp139
I25562144
aI25575168
aS'+'
asS'SCAF4'
p140
(lp141
I31670999
aI31732118
aS'-'
asS'OLIG2'
p142
(lp143
I33025907
aI33029195
aS'+'
asS'OLIG1'
p144
(lp145
I33070140
aI33072413
aS'+'
asS'TSPEAR-AS1'
p146
(lp147
I44506043
aI44516575
aS'+'
asS'ADARB1'
p148
(lp149
I45074577
aI45226563
aS'+'
asS'LOC106780825'
p150
(lp151
I6532206
aI6532776
aS'-'
asS'MORC3'
p152
(lp153
I36320188
aI36376646
aS'+'
asS'C21orf91-OT1'
p154
(lp155
I17777403
aI17792509
aS'-'
asS'C21orf62-AS1'
p156
(lp157
I32772099
aI32797706
aS'+'
asS'B3GALT5'
p158
(lp159
I39612939
aI39662889
aS'+'
asS'IGSF5'
p160
(lp161
I39745406
aI39802096
aS'+'
asS'ERG'
p162
(lp163
I38367260
aI38661780
aS'-'
asS'CHAF1B'
p164
(lp165
I36385390
aI36416827
aS'+'
asS'DIP2A-IT1'
p166
(lp167
I46462470
aI46469305
aS'+'
asS'SIM2'
p168
(lp169
I36699120
aI36749917
aS'+'
asS'SLC37A1'
p170
(lp171
I42499631
aI42581440
aS'+'
asS'LINC01679'
p172
(lp173
I43358054
aI43362349
aS'-'
asS'LINC01678'
p174
(lp175
I5102059
aI5103149
aS'+'
asS'LINC01671'
p176
(lp177
I42599403
aI42615095
aS'-'
asS'POTED'
p178
(lp179
I13610176
aI13641585
aS'+'
asS'LINC01674'
p180
(lp181
I13546032
aI13558460
aS'+'
asS'C21orf91'
p182
(lp183
I17788966
aI17819386
aS'-'
asS'ITGB2'
p184
(lp185
I44885953
aI44928873
aS'-'
asS'ERVH48-1'
p186
(lp187
I42917250
aI42925598
aS'-'
asS'RNA45SN5'
p188
(lp189
I8433221
aI8446572
aS'+'
asS'BACE2'
p190
(lp191
I41167800
aI41282534
aS'+'
asS'RNA45SN1'
p192
(lp193
I8433221
aI8446572
aS'+'
asS'RNA45SN3'
p194
(lp195
I8389034
aI8402343
aS'+'
asS'RNA45SN2'
p196
(lp197
I8205987
aI8219302
aS'+'
asS'MIR4759'
p198
(lp199
I26953960
aI26954043
aS'+'
asS'EVA1C'
p200
(lp201
I32411691
aI32515400
aS'+'
asS'USP25'
p202
(lp203
I15729933
aI15880071
aS'+'
asS'LOC102723996'
p204
(lp205
I5022530
aI5036782
aS'+'
asS'FAM243A'
p206
(lp207
I7769587
aI7770548
aS'-'
asS'FAM243B'
p208
(lp209
I7769587
aI7770548
aS'-'
asS'ADAMTS5'
p210
(lp211
I26917911
aI26967120
aS'-'
asS'ADAMTS1'
p212
(lp213
I26836286
aI26845409
aS'-'
asS'TSPEAR'
p214
(lp215
I44497891
aI44711580
aS'-'
asS'LINC00308'
p216
(lp217
I22098616
aI22116528
aS'+'
asS'DYRK1A'
p218
(lp219
I37365572
aI37515376
aS'+'
asS'URB1'
p220
(lp221
I32311018
aI32393003
aS'-'
asS'LINC00307'
p222
(lp223
I30209150
aI30211783
aS'-'
asS'LOC105372833'
p224
(lp225
I5011975
aI5012684
aS'-'
asS'LIPI'
p226
(lp227
I14108813
aI14210891
aS'-'
asS'CYYR1'
p228
(lp229
I26466208
aI26573404
aS'-'
asS'SNORA91'
p230
(lp231
I41948104
aI41948282
aS'-'
asS'PTTG1IP'
p232
(lp233
I44849584
aI44873903
aS'-'
asS'ZNF295-AS1'
p234
(lp235
I42009193
aI42024920
aS'+'
asS'APP'
p236
(lp237
I25880549
aI26171128
aS'-'
asS'PDXK'
p238
(lp239
I43719096
aI43762307
aS'+'
asS'IL10RB'
p240
(lp241
I33266359
aI33297234
aS'+'
asS'ITGB2-AS1'
p242
(lp243
I44921034
aI44929680
aS'+'
asS'MIR99AHG'
p244
(lp245
I16070487
aI16631727
aS'+'
asS'IL10RB-DT'
p246
(lp247
I33265631
aI33266260
aS'-'
asS'U2AF1'
p248
(lp249
I6484622
aI6499256
aS'-'
asS'CLDN8'
p250
(lp251
I30214005
aI30216151
aS'-'
asS'TPTE'
p252
(lp253
I10521513
aI10606270
aS'+'
asS'JAM2'
p254
(lp255
I25639281
aI25717562
aS'+'
asS'DSCR10'
p256
(lp257
I38206155
aI38208644
aS'+'
asS'MRAP'
p258
(lp259
I32291812
aI32314783
aS'+'
asS'KRTAP10-10'
p260
(lp261
I44637355
aI44638455
aS'+'
asS'LOC400867'
p262
(lp263
I38877290
aI38938429
aS'-'
asS'MIR3197'
p264
(lp265
I41167556
aI41167629
aS'+'
asS'LOC101928796'
p266
(lp267
I45972969
aI45974953
aS'+'
asS'KRTAP13-4'
p268
(lp269
I30430253
aI30430898
aS'+'
asS'LOC101928269'
p270
(lp271
I35954678
aI36004667
aS'-'
asS'LINC00334'
p272
(lp273
I45234339
aI45258730
aS'+'
asS'MIR8069-1'
p274
(lp275
I6859170
aI6859256
aS'+'
asS'LINC00515'
p276
(lp277
I25582774
aI25583224
aS'-'
asS'MIR8069-2'
p278
(lp279
I6859170
aI6859256
aS'+'
asS'FTCD-AS1'
p280
(lp281
I46151374
aI46152647
aS'+'
asS'LOC101930094'
p282
(lp283
I42496538
aI42497443
aS'+'
asS'PCNT'
p284
(lp285
I46324121
aI46445769
aS'+'
asS'ANKRD30BP2'
p286
(lp287
I13038165
aI13118250
aS'+'
asS'CBSL'
p288
(lp289
I6444868
aI6468621
aS'-'
asS'BAGE4'
p290
(lp291
I10413531
aI10491615
aS'+'
asS'BAGE5'
p292
(lp293
I10413531
aI10491615
aS'+'
asS'RSPH1'
p294
(lp295
I42472485
aI42496354
aS'-'
asS'BAGE2'
p296
(lp297
I10413531
aI10491615
aS'+'
asS'BAGE3'
p298
(lp299
I10413531
aI10491615
aS'+'
asS'TRAPPC10'
p300
(lp301
I44012324
aI44106551
aS'+'
asS'MIR548XHG'
p302
(lp303
I18561264
aI18759812
aS'-'
asS'CLIC6'
p304
(lp305
I34669162
aI34718227
aS'+'
asS'CSTB'
p306
(lp307
I43773664
aI43776375
aS'-'
asS'RUNX1-IT1'
p308
(lp309
I35037930
aI35039426
aS'-'
asS'LINC01687'
p310
(lp311
I22009157
aI22098459
aS'-'
asS'LINC01683'
p312
(lp313
I19893278
aI19899755
aS'-'
asS'RNA28SN1'
p314
(lp315
I8441145
aI8446211
aS'+'
asS'RNA28SN2'
p316
(lp317
I8441145
aI8446211
aS'+'
asS'RNA28SN3'
p318
(lp319
I8396925
aI8401980
aS'+'
asS'LINC01689'
p320
(lp321
I24304549
aI24321377
aS'-'
asS'CXADR'
p322
(lp323
I17512905
aI17593579
aS'+'
asS'GRIK1'
p324
(lp325
I29536932
aI29940052
aS'-'
asS'DOP1B'
p326
(lp327
I36156781
aI36294274
aS'+'
asS'LINC02246'
p328
(lp329
I14816837
aI14918668
aS'-'
asS'MIR663A'
p330
(lp331
I8252231
aI8252321
aS'+'
asS'SLC5A3'
p332
(lp333
I34073522
aI34106262
aS'+'
asS'LINC00649'
p334
(lp335
I33931121
aI33971186
aS'+'
asS'LINC01547'
p336
(lp337
I44933283
aI44939913
aS'-'
asS'LOC102724843'
p338
(lp339
I7048858
aI7087230
aS'+'
asS'BRWD1-AS1'
p340
(lp341
I39315706
aI39323218
aS'+'
asS'BRWD1-AS2'
p342
(lp343
I39313906
aI39314915
aS'+'
asS'SPATC1L'
p344
(lp345
I46161147
aI46184459
aS'-'
asS'LOC102723360'
p346
(lp347
I7064425
aI7087230
aS'+'
asS'KRTAP6-3'
p348
(lp349
I30592439
aI30593055
aS'+'
asS'KRTAP6-2'
p350
(lp351
I30598685
aI30598874
aS'-'
asS'KRTAP6-1'
p352
(lp353
I30613685
aI30613904
aS'-'
asS'ETS2'
p354
(lp355
I38805306
aI38824954
aS'+'
asS'PFKL'
p356
(lp357
I44300033
aI44327381
aS'+'
asS'TCP10L'
p358
(lp359
I32574840
aI32585545
aS'-'
asS'TTC3-AS1'
p360
(lp361
I37187611
aI37193926
aS'-'
asS'MAP3K7CL'
p362
(lp363
I29077470
aI29175889
aS'+'
asS'CFAP298'
p364
(lp365
I32599355
aI32612871
aS'-'
asS'CCT8'
p366
(lp367
I29056321
aI29073797
aS'-'
asS'BTG3-AS1'
p368
(lp369
I17611685
aI17614104
aS'+'
asS'LINC01684'
p370
(lp371
I24428739
aI24547942
aS'+'
asS'AIRE'
p372
(lp373
I44285837
aI44298219
aS'+'
asS'LOC105372795'
p374
(lp375
I37063040
aI37064066
aS'-'
asS'LOC105379514'
p376
(lp377
I9662188
aI9679905
aS'+'
asS'LOC105379511'
p378
(lp379
I9543029
aI9559268
aS'+'
asS'NRIP1'
p380
(lp381
I14961234
aI15064805
aS'-'
asS'LINC00160'
p382
(lp383
I34723806
aI34737182
aS'-'
asS'LINC00161'
p384
(lp385
I28539317
aI28540355
aS'+'
asS'LINC01668'
p386
(lp387
I42777818
aI42779994
aS'-'
asS'LINC01669'
p388
(lp389
I43461959
aI43479534
aS'-'
asS'LINC01700'
p390
(lp391
I38974428
aI38977774
aS'-'
asS'SH3BGR'
p392
(lp393
I39445864
aI39515506
aS'+'
asS'LINC01667'
p394
(lp395
I9781848
aI9821061
aS'-'
asS'FAM3B'
p396
(lp397
I41316733
aI41357727
aS'+'
asS'MIR802'
p398
(lp399
I35720714
aI35720808
aS'+'
asS'RNA28SN5'
p400
(lp401
I8213887
aI8401980
aS'+'
asS'LSS'
p402
(lp403
I46188445
aI46228824
aS'-'
asS'H2BFS'
p404
(lp405
I5972923
aI5973383
aS'-'
asS'GRIK1-AS1'
p406
(lp407
I29748174
aI29764006
aS'+'
asS'PRMT2'
p408
(lp409
I46635594
aI46665124
aS'+'
asS'LINC00945'
p410
(lp411
I33057828
aI33065079
aS'+'
asS'LRRC3'
p412
(lp413
I44455485
aI44462196
aS'+'
asS'MIR125B2'
p414
(lp415
I16590236
aI16590325
aS'+'
asS'LOC150051'
p416
(lp417
I31559244
aI31560487
aS'+'
asS'KRTAP27-1'
p418
(lp419
I30337012
aI30337694
aS'-'
asS'SETD4'
p420
(lp421
I36034540
aI36060818
aS'-'
asS'MIR5692B'
p422
(lp423
I42950927
aI42951014
aS'-'
asS'KRTAP20-2'
p424
(lp425
I30635235
aI30635619
aS'+'
asS'KRTAP20-3'
p426
(lp427
I30642863
aI30643136
aS'+'
asS'KRTAP20-1'
p428
(lp429
I30616424
aI30616699
aS'+'
asS'KRTAP20-4'
p430
(lp431
I30620626
aI30620850
aS'+'
asS'MIR155'
p432
(lp433
I25573979
aI25574044
aS'+'
asS'DSCAM-IT1'
p434
(lp435
I40618506
aI40630767
aS'-'
asS'RUNX1'
p436
(lp437
I34787800
aI35049298
aS'-'
asS'KRTAP23-1'
p438
(lp439
I30348398
aI30348606
aS'-'
asS'ZBTB21'
p440
(lp441
I41986830
aI42010387
aS'-'
asS'RRP1'
p442
(lp443
I43789536
aI43804102
aS'+'
asS'DNAJC28'
p444
(lp445
I33488054
aI33491723
aS'-'
asS'LOC100506403'
p446
(lp447
I35372506
aI35580764
aS'-'
asS'GATD3B'
p448
(lp449
I5116328
aI5128369
aS'-'
asS'GATD3A'
p450
(lp451
I5116328
aI5128440
aS'-'
asS'RNA5-8SN1'
p452
(lp453
I8212570
aI8212727
aS'+'
asS'IFNGR2'
p454
(lp455
I33402895
aI33437521
aS'+'
asS'ICOSLG'
p456
(lp457
I5022492
aI5040668
aS'+'
asS'KRTAP7-1'
p458
(lp459
I30829039
aI30829732
aS'-'
asS'URB1-AS1'
p460
(lp461
I32393132
aI32393957
aS'+'
asS'CHODL'
p462
(lp463
I17917339
aI18267371
aS'+'
asS'TIAM1'
p464
(lp465
I31118417
aI31559087
aS'-'
asS'SNORA80A'
p466
(lp467
I32377186
aI32377322
aS'-'
asS'LOC100129027'
p468
(lp469
I45827840
aI45836419
aS'-'
asS'TRPM2'
p470
(lp471
I44353600
aI44443081
aS'+'
asS'MCM3AP'
p472
(lp473
I46235124
aI46285394
aS'-'
asS'PWP2'
p474
(lp475
I5130870
aI5154730
aS'-'
asS'PKNOX1'
p476
(lp477
I42974509
aI43033931
aS'+'
asS'KRTAP12-1'
p478
(lp479
I44681575
aI44682163
aS'-'
asS'KRTAP12-3'
p480
(lp481
I44657931
aI44658341
aS'+'
asS'ATP5PO'
p482
(lp483
I33903452
aI33915854
aS'-'
asS'DSCR9'
p484
(lp485
I37208502
aI37221736
aS'+'
asS'DSCR8'
p486
(lp487
I38121450
aI38156511
aS'+'
asS'KRTAP24-1'
p488
(lp489
I30281308
aI30282958
aS'-'
asS'DSCR4'
p490
(lp491
I38054010
aI38121360
aS'-'
asS'ATP5PF'
p492
(lp493
I25724479
aI25735654
aS'-'
asS'MIS18A'
p494
(lp495
I32268228
aI32279049
aS'-'
asS'YBEY'
p496
(lp497
I46286329
aI46297751
aS'+'
asS'LINC00189'
p498
(lp499
I29193493
aI29288205
aS'+'
asS'CFAP410'
p500
(lp501
I44328943
aI44339402
aS'-'
asS'POFUT2'
p502
(lp503
I45263927
aI45287913
aS'-'
asS'SIK1'
p504
(lp505
I43414518
aI43427132
aS'-'
asS'CRYAA2'
p506
(lp507
I6560723
aI6564489
aS'+'
asS'KRTAP19-2'
p508
(lp509
I30487042
aI30487436
aS'-'
asS'KRTAP19-3'
p510
(lp511
I30491463
aI30491957
aS'-'
asS'LINC00114'
p512
(lp513
I38739020
aI38773477
aS'-'
asS'KRTAP19-6'
p514
(lp515
I30541534
aI30541864
aS'-'
asS'KRTAP19-7'
p516
(lp517
I30560874
aI30561313
aS'-'
asS'KRTAP19-4'
p518
(lp519
I30496823
aI30497154
aS'-'
asS'KRTAP19-5'
p520
(lp521
I30501656
aI30502117
aS'-'
asS'KRTAP19-8'
p522
(lp523
I31038158
aI31038476
aS'-'
asS'LOC105369306'
p524
(lp525
I36104880
aI36109690
aS'+'
asS'KRTAP15-1'
p526
(lp527
I30440278
aI30440869
aS'+'
asS'KRTAP12-2'
p528
(lp529
I44666188
aI44666927
aS'-'
asS'C21orf62'
p530
(lp531
I32790672
aI32813743
aS'-'
asS'KRTAP12-4'
p532
(lp533
I44654212
aI44654659
aS'-'
asS'KRTAP21-3'
p534
(lp535
I30718524
aI30718777
aS'-'
asS'KRTAP21-2'
p536
(lp537
I30746793
aI30747233
aS'-'
asS'KRTAP21-1'
p538
(lp539
I30755014
aI30755428
aS'-'
asS'KRTAP11-1'
p540
(lp541
I30880644
aI30881555
aS'-'
asS'KRTAP22-1'
p542
(lp543
I30601086
aI30601382
aS'+'
asS'KRTAP22-2'
p544
(lp545
I30590104
aI30590397
aS'-'
asS'AGPAT3'
p546
(lp547
I43865222
aI43987590
aS'+'
asS'BAGE'
p548
(lp549
I10413519
aI10454661
aS'+'
asS'LINC00479'
p550
(lp551
I41711519
aI41715775
aS'-'
asS'GABPA'
p552
(lp553
I25734946
aI25772460
aS'+'
asS'SNORD159'
p554
(lp555
I46194089
aI46194159
aS'-'
asS'MIR4327'
p556
(lp557
I30375293
aI30375378
aS'-'
asS'DIP2A'
p558
(lp559
I46458948
aI46571226
aS'+'
asS'KRTAP8-1'
p560
(lp561
I30812696
aI30813252
aS'-'
asS'S100B'
p562
(lp563
I46598617
aI46605122
aS'-'
asS'MIR6501'
p564
(lp565
I33550661
aI33550728
aS'+'
asS'MIR6508'
p566
(lp567
I39447009
aI39447069
aS'+'
asS'CBR1'
p568
(lp569
I36069923
aI36073177
aS'+'
asS'CBR3'
p570
(lp571
I36134964
aI36146562
aS'+'
asS'SON'
p572
(lp573
I33543037
aI33577514
aS'+'
asS'SYNJ1'
p574
(lp575
I32628758
aI32728040
aS'-'
asS'COL18A1'
p576
(lp577
I45405164
aI45513720
aS'+'
asS'MIR548X'
p578
(lp579
I18686089
aI18686164
aS'-'
asS'PIGP'
p580
(lp581
I37065363
aI37073158
aS'-'
asS'KRTAP13-1'
p582
(lp583
I30396073
aI30396820
aS'+'
asS'KRTAP13-2'
p584
(lp585
I30371390
aI30372239
aS'-'
asS'KRTAP13-3'
p586
(lp587
I30425379
aI30425926
aS'-'
asS'KRTAP25-1'
p588
(lp589
I30289144
aI30289514
aS'-'
asS'MRPL39'
p590
(lp591
I25585655
aI25607489
aS'-'
asS'CYP4F29P'
p592
(lp593
I13843132
aI13848364
aS'-'
asS'KRTAP26-1'
p594
(lp595
I30319130
aI30320289
aS'-'
asS'LINC02573'
p596
(lp597
I20256861
aI20258685
aS'-'
asS'CYYR1-AS1'
p598
(lp599
I26405942
aI26569252
aS'+'
asS'PCP4'
p600
(lp601
I39867420
aI39929397
aS'+'
asS'LINC02575'
p602
(lp603
I44485570
aI44491142
aS'+'
asS'COL6A1'
p604
(lp605
I45981748
aI46005049
aS'+'
asS'COL6A2'
p606
(lp607
I46098118
aI46132849
aS'+'
asS'KCNE2'
p608
(lp609
I34364023
aI34371141
aS'+'
asS'KCNE1'
p610
(lp611
I34446687
aI34512275
aS'-'
asS'MIRLET7C'
p612
(lp613
I16539827
aI16539911
aS'+'
asS'LOC100507412'
p614
(lp615
I8197619
aI8228092
aS'+'
asS'ITSN1'
p616
(lp617
I33642399
aI33889684
aS'+'
asS'LINC00159'
p618
(lp619
I32080480
aI32086295
aS'-'
asS'LINC00158'
p620
(lp621
I25385819
aI25431701
aS'-'
asS'LOC100133286'
p622
(lp623
I36069641
aI36126640
aS'-'
asS'D21S2088E'
p624
(lp625
I23361103
aI23384835
aS'-'
asS'MIR3118-1'
p626
(lp627
I13644774
aI13644850
aS'-'
asS'SOD1'
p628
(lp629
I31659621
aI31668930
aS'+'
asS'MRPS6'
p630
(lp631
I34073577
aI34143030
aS'+'
asS'LOC110091776'
p632
(lp633
I13909447
aI13933879
aS'-'
asS'LOC110091777'
p634
(lp635
I13723467
aI13766537
aS'+'
asS'UMODL1-AS1'
p636
(lp637
I42102133
aI42108534
aS'-'
asS'UMODL1'
p638
(lp639
I42062958
aI42142995
aS'+'
asS'KRTAP10-9'
p640
(lp641
I44627122
aI44628378
aS'+'
asS'KRTAP10-8'
p642
(lp643
I44612078
aI44612954
aS'+'
asS'KRTAP10-7'
p644
(lp645
I44600596
aI44602174
aS'+'
asS'KRTAP10-6'
p646
(lp647
I44591267
aI44592505
aS'-'
asS'KRTAP10-5'
p648
(lp649
I44579454
aI44580604
aS'-'
asS'KRTAP10-4'
p650
(lp651
I44573728
aI44575371
aS'+'
asS'KRTAP10-3'
p652
(lp653
I44558022
aI44558760
aS'-'
asS'KRTAP10-2'
p654
(lp655
I44550356
aI44551505
aS'-'
asS'KRTAP10-1'
p656
(lp657
I44539184
aI44540195
aS'-'
asS'WRB-SH3BGR'
p658
(lp659
I39380243
aI39515506
aS'+'
asS'HUNK'
p660
(lp661
I31873314
aI32004064
aS'+'
asS'SLC19A1'
p662
(lp663
I45512566
aI45563115
aS'-'
asS'LINC01436'
p664
(lp665
I36005319
aI36008295
aS'+'
asS'LINC00112'
p666
(lp667
I41716435
aI41717582
aS'+'
asS'LINC00320'
p668
(lp669
I20742589
aI20803108
aS'-'
asS'LINC00322'
p670
(lp671
I43322208
aI43332039
aS'-'
asS'LINC00323'
p672
(lp673
I41141499
aI41148064
aS'-'
asS'PCBP3'
p674
(lp675
I45643724
aI45942454
aS'+'
asS'SSR4P1'
p676
(lp677
I45070955
aI45073211
aS'-'
asS'MIR6724-2'
p678
(lp679
I8249504
aI8249596
aS'+'
asS'C21orf59-TCP10L'
p680
(lp681
I32563504
aI32612871
aS'-'
asS'CRYAA'
p682
(lp683
I6560690
aI6564494
aS'+'
asS'TTC3'
p684
(lp685
I37073183
aI37203118
aS'+'
asS'CBR3-AS1'
p686
(lp687
I36131766
aI36156308
aS'-'
asS'COL18A1-AS2'
p688
(lp689
I45407385
aI45410065
aS'-'
asS'COL18A1-AS1'
p690
(lp691
I45419715
aI45425070
aS'-'
asS'MIR6070'
p692
(lp693
I43609886
aI43609989
aS'-'
asS'FAM207A'
p694
(lp695
I44939696
aI44976989
aS'+'
asS'HSF2BP'
p696
(lp697
I43529185
aI43659488
aS'-'
asS'TMPRSS15'
p698
(lp699
I18269115
aI18403653
aS'-'
asS'ABCG1'
p700
(lp701
I42199688
aI42297244
aS'+'
asS'PRDM15'
p702
(lp703
I41798224
aI41879482
aS'-'
asS'TRPM2-AS'
p704
(lp705
I44414592
aI44425563
aS'-'
asS'TMEM50B'
p706
(lp707
I33432485
aI33480009
aS'-'
asS'SNORD74B'
p708
(lp709
I16284695
aI16284768
aS'-'
asS'CLDN17'
p710
(lp711
I30165922
aI30166653
aS'-'
asS'CLDN14'
p712
(lp713
I36460620
aI36576569
aS'-'
asS'AATBC'
p714
(lp715
I43805757
aI43812567
aS'-'
asS'PAXBP1'
p716
(lp717
I32733898
aI32771858
aS'-'
asS'NCAM2'
p718
(lp719
I20998295
aI21543327
aS'+'
asS'TSPEAR-AS2'
p720
(lp721
I44517214
aI44518977
aS'+'
asS'BTG3'
p722
(lp723
I17593649
aI17612950
aS'-'
asS'SIK1B'
p724
(lp725
I43414482
aI43427189
aS'-'
asS'KRTAP19-1'
p726
(lp727
I30479698
aI30480378
aS'-'
asS'MIR3156-3'
p728
(lp729
I13406383
aI13406460
aS'-'
asS'LINC00113'
p730
(lp731
I27722378
aI27751233
aS'+'
asS'DSCAM-AS1'
p732
(lp733
I40383082
aI40385358
aS'+'
asS'LINC00111'
p734
(lp735
I41679301
aI41697336
aS'+'
asS'FRGCA'
p736
(lp737
I6532206
aI6532776
aS'-'
asS'LOC101928107'
p738
(lp739
I33111703
aI33123700
aS'-'
asS'PICSAR'
p740
(lp741
I44999207
aI45004727
aS'-'
asS'LINC00163'
p742
(lp743
I44989863
aI44994086
aS'-'
asS'ANKRD20A11P'
p744
(lp745
I13943775
aI13980444
aS'-'
asS'VPS26C'
p746
(lp747
I37223419
aI37268108
aS'-'
asS'RNA5-8SN5'
p748
(lp749
I8212570
aI8212727
aS'+'
asS'RNA5-8SN4'
p750
(lp751
I8212571
aI8212727
aS'+'
asS'RNA5-8SN3'
p752
(lp753
I8256779
aI8256936
aS'+'
asS'RNA5-8SN2'
p754
(lp755
I8256779
aI8256936
aS'+'
asS'LOC101928126'
p756
(lp757
I33976381
aI33977691
aS'+'
asS'GRIK1-AS2'
p758
(lp759
I29596039
aI29630747
aS'+'
asS'TFF1'
p760
(lp761
I42362281
aI42366535
aS'-'
asS'TFF2'
p762
(lp763
I42346357
aI42351099
aS'-'
asS'TFF3'
p764
(lp765
I42311666
aI42315596
aS'-'
asS'PDE9A'
p766
(lp767
I42653751
aI42775508
aS'+'
asS'RIPK4'
p768
(lp769
I41739368
aI41767089
aS'-'
asS'DSCAM'
p770
(lp771
I40010998
aI40847139
aS'-'
asS'UBASH3A'
p772
(lp773
I42403861
aI42447680
aS'+'
asS'PPP1R2P2'
p774
(lp775
I35886444
aI35888427
aS'+'
asS'LTN1'
p776
(lp777
I28928143
aI28992877
aS'-'
asS'LCA5L'
p778
(lp779
I39405843
aI39444202
aS'-'
asS'UBE2G2'
p780
(lp781
I44768579
aI44801836
aS'-'
asS'LOC388813'
p782
(lp783
I14591391
aI14643107
aS'-'
asS'KCNJ15'
p784
(lp785
I38229914
aI38301824
aS'+'
asS'TMPRSS2'
p786
(lp787
I41464550
aI41508158
aS'-'
asS'TMPRSS3'
p788
(lp789
I42371886
aI42396846
aS'-'
asS'DNMT3L'
p790
(lp791
I44246338
aI44262216
aS'-'
asS'CHODL-AS1'
p792
(lp793
I17835671
aI17885608
aS'-'
asS'U2AF1L5'
p794
(lp795
I6484622
aI6499284
aS'-'
asS'USP16'
p796
(lp797
I29024616
aI29054486
aS'+'
asS'KCNE1B'
p798
(lp799
I7816676
aI7829632
aS'-'
asS'LINC01549'
p800
(lp801
I17438889
aI17449185
aS'+'
asS'LINC01548'
p802
(lp803
I33165469
aI33170236
aS'-'
asS'ABCC13'
p804
(lp805
I14273798
aI14301371
aS'+'
asS'PLAC4'
p806
(lp807
I41175230
aI41185239
aS'-'
asS'HSPA13'
p808
(lp809
I14371115
aI14383188
aS'-'
asS'LINC00319'
p810
(lp811
I6084363
aI6091665
aS'-'
asS'LINC00310'
p812
(lp813
I34180676
aI34189919
aS'+'
asS'LINC00313'
p814
(lp815
I43462093
aI43478223
aS'-'
asS'LINC00314'
p816
(lp817
I28013362
aI28023209
aS'+'
asS'LINC00317'
p818
(lp819
I21723292
aI21737319
aS'-'
asS'LINC00316'
p820
(lp821
I45338589
aI45341990
aS'-'
as.