(dp1
S'NIFK-AS1'
p2
(lp3
I121649653
aI121728560
aS'+'
asS'PKP4-AS1'
p4
(lp5
I158658336
aI158735002
aS'-'
asS'MZT2A'
p6
(lp7
I131483959
aI131492491
aS'-'
asS'MZT2B'
p8
(lp9
I130181921
aI130190729
aS'+'
asS'MIR5001'
p10
(lp11
I232550473
aI232550573
aS'-'
asS'EN1'
p12
(lp13
I118842170
aI118848183
aS'-'
asS'SPR'
p14
(lp15
I72887382
aI72892160
aS'+'
asS'RMND5A'
p16
(lp17
I86720290
aI86778041
aS'+'
asS'ZC3H15'
p18
(lp19
I186486259
aI186509360
aS'+'
asS'ZSWIM2'
p20
(lp21
I186827479
aI186849170
aS'-'
asS'MIR558'
p22
(lp23
I32532152
aI32532246
aS'+'
asS'MIR559'
p24
(lp25
I47377674
aI47377770
aS'+'
asS'SCLY'
p26
(lp27
I238061000
aI238099413
aS'+'
asS'SP9'
p28
(lp29
I174335092
aI174337540
aS'+'
asS'C2CD6'
p30
(lp31
I201487420
aI201619182
aS'-'
asS'SP3'
p32
(lp33
I173906458
aI173965702
aS'-'
asS'SP5'
p34
(lp35
I170715346
aI170717988
aS'+'
asS'KCNF1'
p36
(lp37
I10911936
aI10914225
aS'+'
asS'FAM84A'
p38
(lp39
I14632682
aI14651916
aS'+'
asS'SNORD11'
p40
(lp41
I202293050
aI202293134
aS'+'
asS'MIR128-1'
p42
(lp43
I135665396
aI135665478
aS'+'
asS'MAL'
p44
(lp45
I95025654
aI95053992
aS'+'
asS'MYO3B'
p46
(lp47
I170178144
aI170655164
aS'+'
asS'LOC100505716'
p48
(lp49
I28307690
aI28310459
aS'-'
asS'ITGA4'
p50
(lp51
I181456891
aI181538928
aS'+'
asS'ITGA6'
p52
(lp53
I172427353
aI172506455
aS'+'
asS'GTF3C3'
p54
(lp55
I196763031
aI196799768
aS'-'
asS'GTF3C2'
p56
(lp57
I27325848
aI27357034
aS'-'
asS'CAPN10'
p58
(lp59
I240586715
aI240599109
aS'+'
asS'XPO1'
p60
(lp61
I61477933
aI61538283
aS'-'
asS'TTN'
p62
(lp63
I178525990
aI178807423
aS'-'
asS'TTL'
p64
(lp65
I112482165
aI112532645
aS'+'
asS'KCNIP3'
p66
(lp67
I95297346
aI95386077
aS'+'
asS'PRSS56'
p68
(lp69
I232520462
aI232525715
aS'+'
asS'MPV17'
p70
(lp71
I27309491
aI27323102
aS'-'
asS'PABPC1P2'
p72
(lp73
I146587056
aI146590990
aS'+'
asS'COL4A4'
p74
(lp75
I227002710
aI227164559
aS'-'
asS'COL4A3'
p76
(lp77
I227164564
aI227314792
aS'+'
asS'MOGAT1'
p78
(lp79
I222671737
aI222709930
aS'+'
asS'ANAPC1'
p80
(lp81
I111767636
aI111884164
aS'-'
asS'TACR1'
p82
(lp83
I75046462
aI75199519
aS'-'
asS'ZEB2'
p84
(lp85
I144384374
aI144520391
aS'-'
asS'KCNH7'
p86
(lp87
I162371406
aI162838747
aS'-'
asS'SFT2D3'
p88
(lp89
I127701022
aI127703833
aS'+'
asS'PSMD14'
p90
(lp91
I161308274
aI161411717
aS'+'
asS'ITGAV'
p92
(lp93
I186590062
aI186680902
aS'+'
asS'TMEM198'
p94
(lp95
I219543662
aI219550596
aS'+'
asS'AFTPH'
p96
(lp97
I64524304
aI64593004
aS'+'
asS'NPHP1'
p98
(lp99
I110123335
aI110205062
aS'-'
asS'AMMECR1L'
p100
(lp101
I127861630
aI127885940
aS'-'
asS'MTIF2'
p102
(lp103
I55236619
aI55269248
aS'-'
asS'LINC01103'
p104
(lp105
I104488455
aI104510509
aS'-'
asS'LINC01102'
p106
(lp107
I104434346
aI104512757
aS'+'
asS'LINC01101'
p108
(lp109
I120464334
aI120466349
aS'-'
asS'PELI1'
p110
(lp111
I64092651
aI64144420
aS'-'
asS'LINC01106'
p112
(lp113
I110375108
aI110384536
aS'-'
asS'LINC01105'
p114
(lp115
I5932686
aI5980218
aS'+'
asS'LINC01104'
p116
(lp117
I100208253
aI100251484
aS'+'
asS'LOC101929532'
p118
(lp119
I162114440
aI162172733
aS'+'
asS'GALNT3'
p120
(lp121
I165747802
aI165794293
aS'-'
asS'ERICH2'
p122
(lp123
I170770681
aI170798971
aS'+'
asS'PRADC1'
p124
(lp125
I73228005
aI73233284
aS'-'
asS'RGPD2'
p126
(lp127
I86913811
aI87012738
aS'+'
asS'RGPD3'
p128
(lp129
I106404679
aI106468345
aS'-'
asS'RGPD1'
p130
(lp131
I87755959
aI87985790
aS'-'
asS'RGPD6'
p132
(lp133
I109792757
aI109857705
aS'+'
asS'RGPD4'
p134
(lp135
I107826931
aI107892544
aS'+'
asS'RGPD5'
p136
(lp137
I112368368
aI112433614
aS'-'
asS'RGPD8'
p138
(lp139
I112368368
aI112433645
aS'-'
asS'PQLC3'
p140
(lp141
I11155371
aI11178872
aS'+'
asS'MOB4'
p142
(lp143
I197515570
aI197553699
aS'+'
asS'RAB11FIP5'
p144
(lp145
I73073381
aI73113018
aS'-'
asS'CCDC115'
p146
(lp147
I130337932
aI130342681
aS'-'
asS'SPP2'
p148
(lp149
I234050701
aI234077132
aS'+'
asS'IFIH1'
p150
(lp151
I162267073
aI162318684
aS'-'
asS'LOC101927661'
p152
(lp153
I67213407
aI67244574
aS'+'
asS'DCTN1-AS1'
p154
(lp155
I74385502
aI74398668
aS'+'
asS'SRBD1'
p156
(lp157
I45388679
aI45611267
aS'-'
asS'BIN1'
p158
(lp159
I127048022
aI127107327
aS'-'
asS'OR6B2'
p160
(lp161
I240029490
aI240030429
aS'-'
asS'MIR6888'
p162
(lp163
I159186834
aI159186901
aS'+'
asS'LINC00276'
p164
(lp165
I14228873
aI14400958
aS'-'
asS'CDCA7'
p166
(lp167
I173354832
aI173368990
aS'+'
asS'CLIP4'
p168
(lp169
I29097675
aI29174715
aS'+'
asS'LINC01854'
p170
(lp171
I129242172
aI129273891
aS'-'
asS'LINC01857'
p172
(lp173
I207662383
aI207679122
aS'+'
asS'LINC01856'
p174
(lp175
I129923176
aI129946703
aS'+'
asS'LINC01851'
p176
(lp177
I77915933
aI77918008
aS'+'
asS'STARD7-AS1'
p178
(lp179
I96208415
aI96242623
aS'+'
asS'STK36'
p180
(lp181
I218672025
aI218702717
aS'+'
asS'UXS1'
p182
(lp183
I106093302
aI106194339
aS'-'
asS'ATG4B'
p184
(lp185
I241637611
aI241673856
aS'+'
asS'KYNU'
p186
(lp187
I142877625
aI143042316
aS'+'
asS'PLB1'
p188
(lp189
I28496070
aI28643787
aS'+'
asS'EIF4E2'
p190
(lp191
I232550586
aI232583645
aS'+'
asS'THAP4'
p192
(lp193
I241584404
aI241637310
aS'-'
asS'ACTR1B'
p194
(lp195
I97655938
aI97664098
aS'-'
asS'LOC105616981'
p196
(lp197
I167814773
aI167941144
aS'-'
asS'WDR75'
p198
(lp199
I189441432
aI189475562
aS'+'
asS'STAM2'
p200
(lp201
I152116800
aI152175992
aS'-'
asS'CYTOR'
p202
(lp203
I87455426
aI87521518
aS'+'
asS'SPRED2'
p204
(lp205
I65310850
aI65432522
aS'-'
asS'RAPGEF4-AS1'
p206
(lp207
I172723189
aI172736206
aS'-'
asS'NOSTRIN'
p208
(lp209
I168786538
aI168865339
aS'+'
asS'ASB3'
p210
(lp211
I53669979
aI53787009
aS'-'
asS'ASB1'
p212
(lp213
I238426927
aI238452250
aS'+'
asS'ASTL'
p214
(lp215
I96123849
aI96138436
aS'-'
asS'SAG'
p216
(lp217
I233307662
aI233347055
aS'+'
asS'PLEKHH2'
p218
(lp219
I43637299
aI43767987
aS'+'
asS'SIX2'
p220
(lp221
I45005184
aI45009403
aS'-'
asS'SIX3'
p222
(lp223
I44941897
aI44946077
aS'+'
asS'LINC00309'
p224
(lp225
I64185078
aI64205485
aS'-'
asS'C2orf50'
p226
(lp227
I11133052
aI11146790
aS'+'
asS'MRPL35'
p228
(lp229
I86199432
aI86213794
aS'+'
asS'MRPL33'
p230
(lp231
I27771716
aI27779741
aS'+'
asS'MRPL30'
p232
(lp233
I99181078
aI99199557
aS'+'
asS'DPY30'
p234
(lp235
I32011648
aI32039835
aS'-'
asS'PTH2R'
p236
(lp237
I208359844
aI208494506
aS'+'
asS'LOC107985820'
p238
(lp239
I124011934
aI124025174
aS'-'
asS'DBI'
p240
(lp241
I119366923
aI119372551
aS'+'
asS'TIGD1'
p242
(lp243
I232547969
aI232550590
aS'-'
asS'RFX8'
p244
(lp245
I101397360
aI101474703
aS'-'
asS'NRXN1'
p246
(lp247
I49918504
aI51032536
aS'-'
asS'RNF103'
p248
(lp249
I86603392
aI86623877
aS'-'
asS'STRADB'
p250
(lp251
I201451668
aI201480851
aS'+'
asS'SNORC'
p252
(lp253
I232869013
aI232878704
aS'+'
asS'GGCX'
p254
(lp255
I85544719
aI85561534
aS'-'
asS'RETSAT'
p256
(lp257
I85341954
aI85354698
aS'-'
asS'KCNG3'
p258
(lp259
I42442016
aI42494097
aS'-'
asS'TBR1'
p260
(lp261
I161416093
aI161425867
aS'+'
asS'REG1A'
p262
(lp263
I79120457
aI79123419
aS'+'
asS'MYCN'
p264
(lp265
I15940437
aI15947007
aS'+'
asS'RPRM'
p266
(lp267
I153477337
aI153478762
aS'-'
asS'MIR548S'
p268
(lp269
I11767443
aI11767525
aS'+'
asS'MFSD2B'
p270
(lp271
I24010086
aI24026775
aS'+'
asS'ERFE'
p272
(lp273
I238159007
aI238168891
aS'+'
asS'TNS1'
p274
(lp275
I217799788
aI217944073
aS'-'
asS'MSL3P1'
p276
(lp277
I233865440
aI233868409
aS'-'
asS'AHCTF1P1'
p278
(lp279
I161499066
aI161507902
aS'-'
asS'DPYSL5'
p280
(lp281
I26848100
aI26950351
aS'+'
asS'GCG'
p282
(lp283
I162142868
aI162152404
aS'-'
asS'COLEC11'
p284
(lp285
I3594831
aI3644644
aS'+'
asS'IGFBP2'
p286
(lp287
I216632827
aI216664435
aS'+'
asS'IGFBP5'
p288
(lp289
I216672104
aI216695549
aS'-'
asS'FASTKD2'
p290
(lp291
I206765387
aI206796187
aS'+'
asS'LOC100144595'
p292
(lp293
I154435852
aI154457438
aS'-'
asS'LOC400940'
p294
(lp295
I5981977
aI5988232
aS'+'
asS'FASTKD1'
p296
(lp297
I169528507
aI169573921
aS'-'
asS'ST3GAL5-AS1'
p298
(lp299
I85889279
aI85892252
aS'+'
asS'TBC1D8-AS1'
p300
(lp301
I101151659
aI101155412
aS'+'
asS'CYP27A1'
p302
(lp303
I218781748
aI218815293
aS'+'
asS'MIR3129'
p304
(lp305
I189133035
aI189133111
aS'-'
asS'PFN4'
p306
(lp307
I24114808
aI24123477
aS'-'
asS'TMEM214'
p308
(lp309
I27032905
aI27041697
aS'+'
asS'NXPH2'
p310
(lp311
I138669156
aI138780241
aS'-'
asS'KDM3A'
p312
(lp313
I86441370
aI86492716
aS'+'
asS'PROC'
p314
(lp315
I127418419
aI127429246
aS'+'
asS'SSB'
p316
(lp317
I169798870
aI169812061
aS'+'
asS'MIR4268'
p318
(lp319
I219906501
aI219906565
aS'-'
asS'FAM168B'
p320
(lp321
I131047875
aI131093460
aS'-'
asS'POTEKP'
p322
(lp323
I131592041
aI131626429
aS'+'
asS'EIF2B4'
p324
(lp325
I27364351
aI27370457
aS'-'
asS'TMSB10'
p326
(lp327
I84905638
aI84906675
aS'+'
asS'SNORA10B'
p328
(lp329
I30187433
aI30187566
aS'+'
asS'AGXT'
p330
(lp331
I240868823
aI240880500
aS'+'
asS'LOC101929633'
p332
(lp333
I164840748
aI164849396
aS'+'
asS'CFLAR'
p334
(lp335
I201116163
aI201176687
aS'+'
asS'LIMS3-LOC440895'
p336
(lp337
I110402918
aI110473075
aS'-'
asS'AOX3P-AOX2P'
p338
(lp339
I200695722
aI200794915
aS'+'
asS'PRPF40A'
p340
(lp341
I152651592
aI152718012
aS'-'
asS'CIB4'
p342
(lp343
I26581204
aI26641366
aS'-'
asS'MYT1L'
p344
(lp345
I1789112
aI2331313
aS'-'
asS'HECW2-AS1'
p346
(lp347
I196260023
aI196264204
aS'+'
asS'SH3RF3'
p348
(lp349
I109129540
aI109504636
aS'+'
asS'TET3'
p350
(lp351
I73984909
aI74108175
aS'+'
asS'RABL2A'
p352
(lp353
I113627228
aI113643398
aS'+'
asS'LINC01376'
p354
(lp355
I18986450
aI19026971
aS'-'
asS'HOXD-AS2'
p356
(lp357
I176134840
aI176137098
aS'-'
asS'LINC01114'
p358
(lp359
I104746636
aI104757719
aS'-'
asS'LINC01115'
p360
(lp361
I779839
aI868426
aS'-'
asS'LINC01116'
p362
(lp363
I176629580
aI176637574
aS'-'
asS'TTC27'
p364
(lp365
I32628019
aI32821051
aS'+'
asS'METAP1D'
p366
(lp367
I171999896
aI172082429
aS'+'
asS'LINC01118'
p368
(lp369
I46816667
aI46822660
aS'+'
asS'LINC01119'
p370
(lp371
I46827863
aI46859006
aS'+'
asS'SOWAHC'
p372
(lp373
I109614333
aI109618987
aS'+'
asS'IDH1-AS1'
p374
(lp375
I208255232
aI208256194
aS'+'
asS'BABAM2'
p376
(lp377
I27888708
aI28338900
aS'+'
asS'FAM117B'
p378
(lp379
I202635177
aI202769757
aS'+'
asS'FER1L5'
p380
(lp381
I96642736
aI96704885
aS'+'
asS'ST6GAL2'
p382
(lp383
I106801599
aI106887107
aS'-'
asS'IL1F10'
p384
(lp385
I113067969
aI113075850
aS'+'
asS'SNORA36C'
p386
(lp387
I69520044
aI69520171
aS'-'
asS'ITGB1BP1'
p388
(lp389
I9405680
aI9423569
aS'-'
asS'PHOSPHO2-KLHL23'
p390
(lp391
I169694430
aI169751886
aS'+'
asS'ZNF2'
p392
(lp393
I95165416
aI95184316
aS'+'
asS'BIRC6-AS2'
p394
(lp395
I32557520
aI32574818
aS'-'
asS'RAB1A'
p396
(lp397
I65086853
aI65130301
aS'-'
asS'ZAP70'
p398
(lp399
I97713567
aI97739860
aS'+'
asS'SNORA105A'
p400
(lp401
I197486787
aI197486903
aS'-'
asS'CRYBA2'
p402
(lp403
I218990189
aI218993405
aS'-'
asS'OST4'
p404
(lp405
I27070473
aI27071699
aS'-'
asS'LOC101929452'
p406
(lp407
I7062726
aI7077880
aS'-'
asS'LOC101928371'
p408
(lp409
I88538719
aI88575610
aS'+'
asS'ST3GAL5'
p410
(lp411
I85839132
aI85889034
aS'-'
asS'NEMP2'
p412
(lp413
I190506892
aI190534742
aS'-'
asS'RUFY4'
p414
(lp415
I218034933
aI218090581
aS'+'
asS'OLA1'
p416
(lp417
I174072446
aI174248670
aS'-'
asS'APOB'
p418
(lp419
I21001428
aI21044073
aS'-'
asS'PAPOLG'
p420
(lp421
I60756229
aI60802086
aS'+'
asS'COL6A3'
p422
(lp423
I237324011
aI237414207
aS'-'
asS'SPAST'
p424
(lp425
I32063610
aI32157637
aS'+'
asS'CPS1-IT1'
p426
(lp427
I210617570
aI210619875
aS'+'
asS'LINC01849'
p428
(lp429
I100603738
aI100609358
aS'+'
asS'BOLA3-AS1'
p430
(lp431
I74147980
aI74152389
aS'+'
asS'WIPF1'
p432
(lp433
I174559573
aI174682899
aS'-'
asS'SH3RF3-AS1'
p434
(lp435
I109127327
aI109130119
aS'-'
asS'TXNDC9'
p436
(lp437
I99319023
aI99336397
aS'-'
asS'CALM2'
p438
(lp439
I47160081
aI47176936
aS'-'
asS'TTC30A'
p440
(lp441
I177612999
aI177618742
aS'-'
asS'TTC30B'
p442
(lp443
I177550152
aI177552796
aS'-'
asS'LOC102724579'
p444
(lp445
I85213651
aI85218169
aS'+'
asS'VWC2L-IT1'
p446
(lp447
I214510181
aI214536889
aS'+'
asS'PSD4'
p448
(lp449
I113173982
aI113203100
aS'+'
asS'TMEM178A'
p450
(lp451
I39665497
aI39717963
aS'+'
asS'CUL3'
p452
(lp453
I224470149
aI224585397
aS'-'
asS'HOXD8'
p454
(lp455
I176129693
aI176132695
aS'+'
asS'HOXD9'
p456
(lp457
I176122684
aI176124917
aS'+'
asS'HOXD4'
p458
(lp459
I176151384
aI176153221
aS'+'
asS'R3HDM1'
p460
(lp461
I135531454
aI135725270
aS'+'
asS'CREB1'
p462
(lp463
I207529891
aI207605989
aS'+'
asS'HOXD3'
p464
(lp465
I176164076
aI176173098
aS'+'
asS'LOC101927055'
p466
(lp467
I178776925
aI178779963
aS'+'
asS'PER2'
p468
(lp469
I238244037
aI238288566
aS'-'
asS'INO80B-WBP1'
p470
(lp471
I74455022
aI74460891
aS'+'
asS'PNKD'
p472
(lp473
I218270391
aI218346793
aS'+'
asS'LOC101927050'
p474
(lp475
I89625444
aI89637907
aS'-'
asS'LOC101927053'
p476
(lp477
I96919105
aI96925837
aS'+'
asS'REG3G'
p478
(lp479
I79025685
aI79028504
aS'+'
asS'PTPN18'
p480
(lp481
I130356006
aI130375409
aS'+'
asS'RBM44'
p482
(lp483
I237798744
aI237842808
aS'+'
asS'CEBPZOS'
p484
(lp485
I37196460
aI37216193
aS'+'
asS'ORMDL1'
p486
(lp487
I189770266
aI189784371
aS'-'
asS'LOC643387'
p488
(lp489
I238231685
aI238234344
aS'+'
asS'LYPD6B'
p490
(lp491
I149038466
aI149215258
aS'+'
asS'IHH'
p492
(lp493
I219054419
aI219060516
aS'-'
asS'LOC101927907'
p494
(lp495
I76985964
aI77009788
aS'+'
asS'MIR4435-2'
p496
(lp497
I87629759
aI87629833
aS'+'
asS'MIR4435-1'
p498
(lp499
I87629754
aI87629834
aS'+'
asS'DNAJC27'
p500
(lp501
I24943635
aI24972094
aS'-'
asS'MROH2A'
p502
(lp503
I233775678
aI233833423
aS'+'
asS'SP140'
p504
(lp505
I230225729
aI230313215
aS'+'
asS'NTSR2'
p506
(lp507
I11658177
aI11670203
aS'-'
asS'TMEM127'
p508
(lp509
I96250207
aI96266013
aS'-'
asS'C2orf81'
p510
(lp511
I74414175
aI74421630
aS'-'
asS'C2orf80'
p512
(lp513
I208165346
aI208190030
aS'-'
asS'C2orf83'
p514
(lp515
I227610089
aI227633320
aS'-'
asS'C2orf88'
p516
(lp517
I190137759
aI190203484
aS'+'
asS'HSPE1-MOB4'
p518
(lp519
I197499996
aI197553699
aS'+'
asS'TDRD15'
p520
(lp521
I21123985
aI21144366
aS'+'
asS'CD207'
p522
(lp523
I70830210
aI70835816
aS'-'
asS'PPM1G'
p524
(lp525
I27381198
aI27409683
aS'-'
asS'SRSF7'
p526
(lp527
I38743598
aI38751494
aS'-'
asS'PPM1B'
p528
(lp529
I44168802
aI44234603
aS'+'
asS'USP40'
p530
(lp531
I233475091
aI233566782
aS'-'
asS'EGR4'
p532
(lp533
I73290928
aI73293548
aS'-'
asS'XDH'
p534
(lp535
I31334321
aI31414745
aS'-'
asS'RAPH1'
p536
(lp537
I203433681
aI203535335
aS'-'
asS'VIL1'
p538
(lp539
I218419114
aI218449525
aS'+'
asS'MYCNUT'
p540
(lp541
I15920398
aI15936018
aS'+'
asS'PAX3'
p542
(lp543
I222199886
aI222298996
aS'-'
asS'SCRN3'
p544
(lp545
I174395728
aI174429575
aS'+'
asS'GCFC2'
p546
(lp547
I75662705
aI75710985
aS'-'
asS'PAX8'
p548
(lp549
I113215996
aI113278921
aS'-'
asS'PTPN4'
p550
(lp551
I119759630
aI119984898
aS'+'
asS'TNP1'
p552
(lp553
I216859458
aI216860059
aS'-'
asS'SLC3A1'
p554
(lp555
I44275457
aI44320823
aS'+'
asS'MIR3681HG'
p556
(lp557
I12007115
aI12578348
aS'+'
asS'WASH2P'
p558
(lp559
I113583652
aI113599036
aS'+'
asS'ASPRV1'
p560
(lp561
I69960090
aI69962265
aS'-'
asS'AGBL5'
p562
(lp563
I27051422
aI27070622
aS'+'
asS'LOC100505736'
p564
(lp565
I28148555
aI28206961
aS'-'
asS'MYO1B'
p566
(lp567
I191245275
aI191425389
aS'+'
asS'RPS7'
p568
(lp569
I3575259
aI3580920
aS'+'
asS'CHMP3'
p570
(lp571
I86503429
aI86563497
aS'-'
asS'ADI1'
p572
(lp573
I3497918
aI3519579
aS'-'
asS'LGALSL'
p574
(lp575
I64454192
aI64461383
aS'+'
asS'ZNF385B'
p576
(lp577
I179441983
aI179861505
aS'-'
asS'SULT6B1'
p578
(lp579
I37167819
aI37188547
aS'-'
asS'GTF2A1L'
p580
(lp581
I48617779
aI48679611
aS'+'
asS'OBSL1'
p582
(lp583
I219550727
aI219571546
aS'-'
asS'LANCL1-AS1'
p584
(lp585
I210324711
aI210470333
aS'+'
asS'PNPT1'
p586
(lp587
I55634062
aI55693910
aS'-'
asS'LINC01304'
p588
(lp589
I3957655
aI3974032
aS'-'
asS'FBXO41'
p590
(lp591
I73254681
aI73269630
aS'-'
asS'ARHGAP25'
p592
(lp593
I68734780
aI68826825
aS'+'
asS'DCDC2C'
p594
(lp595
I3703591
aI3847410
aS'+'
asS'FBXO48'
p596
(lp597
I68462370
aI68467317
aS'-'
asS'CATIP'
p598
(lp599
I218356855
aI218368094
aS'+'
asS'MIR5702'
p600
(lp601
I226658709
aI226658793
aS'-'
asS'MIR5000'
p602
(lp603
I75090811
aI75090914
aS'+'
asS'GALM'
p604
(lp605
I38665909
aI38734767
aS'+'
asS'ATP6V1B1-AS1'
p606
(lp607
I70942012
aI70948611
aS'-'
asS'CFAP36'
p608
(lp609
I55519594
aI55545080
aS'+'
asS'KIAA2012-AS1'
p610
(lp611
I202087554
aI202117058
aS'-'
asS'KCNJ3'
p612
(lp613
I154698580
aI154858352
aS'+'
asS'NMS'
p614
(lp615
I100470481
aI100483280
aS'+'
asS'EIF2AK3'
p616
(lp617
I88556739
aI88627576
aS'-'
asS'EIF2AK2'
p618
(lp619
I37105140
aI37157047
aS'-'
asS'FAM136A'
p620
(lp621
I70295975
aI70302088
aS'-'
asS'LSP1P4'
p622
(lp623
I91636682
aI91659949
aS'-'
asS'ASAP2'
p624
(lp625
I9206764
aI9405683
aS'+'
asS'NMI'
p626
(lp627
I151270467
aI151289916
aS'-'
asS'PEX13'
p628
(lp629
I61017676
aI61051990
aS'+'
asS'SNORA112'
p630
(lp631
I96214638
aI96214762
aS'+'
asS'SNORA115'
p632
(lp633
I217833589
aI217833733
aS'-'
asS'LYPD6'
p634
(lp635
I149329984
aI149474145
aS'+'
asS'LINC01473'
p636
(lp637
I186033533
aI186086317
aS'-'
asS'LYPD1'
p638
(lp639
I132643279
aI132671579
aS'-'
asS'PCYOX1'
p640
(lp641
I70258136
aI70281185
aS'+'
asS'LOC101929512'
p642
(lp643
I161223257
aI161254643
aS'-'
asS'TGOLN2'
p644
(lp645
I85318017
aI85328296
aS'-'
asS'SLC16A14'
p646
(lp647
I230034973
aI230068999
aS'-'
asS'LOC101928020'
p648
(lp649
I210029921
aI210064356
aS'+'
asS'PIGF'
p650
(lp651
I46581273
aI46617112
aS'-'
asS'CALCRL'
p652
(lp653
I187341962
aI187448294
aS'-'
asS'ILKAP'
p654
(lp655
I238170401
aI238203683
aS'-'
asS'EPCAM'
p656
(lp657
I47369147
aI47387028
aS'+'
asS'ANKRD20A8P'
p658
(lp659
I94760927
aI94857075
aS'-'
asS'ALPP'
p660
(lp661
I232378533
aI232382889
aS'+'
asS'PPP1CB'
p662
(lp663
I28751747
aI28802940
aS'+'
asS'LOC151484'
p664
(lp665
I230886545
aI230904517
aS'+'
asS'CCDC173'
p666
(lp667
I169645424
aI169694421
aS'-'
asS'PDK1'
p668
(lp669
I172555372
aI172625623
aS'+'
asS'ALPG'
p670
(lp671
I232406841
aI232410714
aS'+'
asS'WBP1'
p672
(lp673
I74458399
aI74460891
aS'+'
asS'FAM178B'
p674
(lp675
I96875884
aI96986580
aS'-'
asS'PECR'
p676
(lp677
I216038387
aI216081809
aS'-'
asS'BOK-AS1'
p678
(lp679
I241544385
aI241559143
aS'-'
asS'UBR3'
p680
(lp681
I169827507
aI170084129
aS'+'
asS'LINC01090'
p682
(lp683
I188035595
aI188287691
aS'-'
asS'SLC39A10'
p684
(lp685
I195656807
aI195737702
aS'+'
asS'ALLC'
p686
(lp687
I3658195
aI3702670
aS'+'
asS'LINC01873'
p688
(lp689
I66383305
aI66392446
aS'+'
asS'LINC01877'
p690
(lp691
I199608067
aI199659132
aS'+'
asS'LINC01876'
p692
(lp693
I156020534
aI156254931
aS'-'
asS'LINC01875'
p694
(lp695
I545804
aI546667
aS'+'
asS'LINC01874'
p696
(lp697
I490946
aI492655
aS'-'
asS'LINC01878'
p698
(lp699
I212795330
aI212819263
aS'+'
asS'PCGF1'
p700
(lp701
I74505042
aI74507694
aS'-'
asS'CD28'
p702
(lp703
I203706474
aI203738912
aS'+'
asS'MRPS9'
p704
(lp705
I105038024
aI105099960
aS'+'
asS'MRPS5'
p706
(lp707
I95085390
aI95122027
aS'-'
asS'LOC100506274'
p708
(lp709
I7421260
aI7450250
aS'+'
asS'KIAA1841'
p710
(lp711
I61065869
aI61138034
aS'+'
asS'ABHD1'
p712
(lp713
I27123788
aI27130812
aS'+'
asS'GCC2-AS1'
p714
(lp715
I108507540
aI108534219
aS'-'
asS'SOCS5'
p716
(lp717
I46699294
aI46763128
aS'+'
asS'LOC100506076'
p718
(lp719
I97416066
aI97429244
aS'-'
asS'GPR1'
p720
(lp721
I206175315
aI206218047
aS'-'
asS'WDR54'
p722
(lp723
I74421722
aI74425755
aS'+'
asS'ACYP2'
p724
(lp725
I53971102
aI54305298
aS'+'
asS'SGO2'
p726
(lp727
I200526141
aI200584095
aS'+'
asS'NDUFAF7'
p728
(lp729
I37231630
aI37271365
aS'+'
asS'LOC101927596'
p730
(lp731
I197197990
aI197199273
aS'+'
asS'MIR7157'
p732
(lp733
I140586625
aI140586685
aS'-'
asS'ACSL3'
p734
(lp735
I222860933
aI222944651
aS'+'
asS'CYTIP'
p736
(lp737
I157414618
aI157444092
aS'-'
asS'G6PC2'
p738
(lp739
I168901239
aI168910000
aS'+'
asS'FTCDNL1'
p740
(lp741
I199760535
aI199851173
aS'-'
asS'NCKAP5'
p742
(lp743
I132671798
aI133568460
aS'-'
asS'IL1R2'
p744
(lp745
I101991843
aI102028422
aS'+'
asS'IL1R1'
p746
(lp747
I102070375
aI102179874
aS'+'
asS'MIR149'
p748
(lp749
I240456000
aI240456089
aS'+'
asS'LOC105373609'
p750
(lp751
I127560044
aI127570962
aS'-'
asS'MIR7704'
p752
(lp753
I176188842
aI176188901
aS'+'
asS'NOC2LP2'
p754
(lp755
I131442160
aI131444894
aS'-'
asS'DIRC3'
p756
(lp757
I217284018
aI217756593
aS'-'
asS'SNRNP27'
p758
(lp759
I69893942
aI69905236
aS'+'
asS'CFAP221'
p760
(lp761
I119544431
aI119656661
aS'+'
asS'PIKFYVE'
p762
(lp763
I208266266
aI208358751
aS'+'
asS'ARPC2'
p764
(lp765
I218217093
aI218254348
aS'+'
asS'RHOQ'
p766
(lp767
I46542727
aI46584688
aS'+'
asS'MIR6071'
p768
(lp769
I85783599
aI85783677
aS'-'
asS'POLR2D'
p770
(lp771
I127846265
aI127858155
aS'-'
asS'ANKRD23'
p772
(lp773
I96837913
aI96844021
aS'-'
asS'LINC01107'
p774
(lp775
I238510689
aI238555499
aS'-'
asS'SNORA75'
p776
(lp777
I231455799
aI231455936
aS'-'
asS'CAPG'
p778
(lp779
I85394747
aI85414074
aS'-'
asS'TPRKB'
p780
(lp781
I73729836
aI73737406
aS'-'
asS'C2orf91'
p782
(lp783
I41935367
aI41953803
aS'-'
asS'INHA'
p784
(lp785
I219572231
aI219575713
aS'+'
asS'IL1RN'
p786
(lp787
I113117892
aI113134016
aS'+'
asS'TLK1'
p788
(lp789
I170990822
aI171231314
aS'-'
asS'ABCG5'
p790
(lp791
I43812471
aI43838819
aS'-'
asS'ABCG8'
p792
(lp793
I43838963
aI43878466
aS'+'
asS'FAM237A'
p794
(lp795
I206644226
aI206649354
aS'+'
asS'RMDN2-AS1'
p796
(lp797
I37950333
aI38036341
aS'-'
asS'ITM2C'
p798
(lp799
I230864597
aI230879254
aS'+'
asS'KLHL41'
p800
(lp801
I169509701
aI169526262
aS'+'
asS'SPC25'
p802
(lp803
I168870890
aI168890434
aS'-'
asS'CIR1'
p804
(lp805
I174348149
aI174395715
aS'-'
asS'CD302'
p806
(lp807
I159768627
aI159798255
aS'-'
asS'MIR2355'
p808
(lp809
I207109986
aI207110073
aS'-'
asS'LOC105373553'
p810
(lp811
I110611125
aI110612695
aS'+'
asS'FZD5'
p812
(lp813
I207762585
aI207769419
aS'-'
asS'FZD7'
p814
(lp815
I202034586
aI202038437
aS'+'
asS'CACNB4'
p816
(lp817
I151832770
aI152099167
aS'-'
asS'PLAC9P1'
p818
(lp819
I129922861
aI129934317
aS'-'
asS'CTNNA2'
p820
(lp821
I79512933
aI80648863
aS'+'
asS'GPN1'
p822
(lp823
I27629049
aI27651511
aS'+'
asS'SRD5A2'
p824
(lp825
I31522479
aI31580938
aS'-'
asS'DNPEP'
p826
(lp827
I219372028
aI219400022
aS'-'
asS'FAM49A'
p828
(lp829
I16549461
aI16665866
aS'-'
asS'ZFP36L2'
p830
(lp831
I43222401
aI43226606
aS'-'
asS'LINC01305'
p832
(lp833
I174326026
aI174330642
aS'+'
asS'PLCD4'
p834
(lp835
I218607764
aI218637186
aS'+'
asS'TGFBRAP1'
p836
(lp837
I105249422
aI105329671
aS'-'
asS'ANKZF1'
p838
(lp839
I219229756
aI219236669
aS'+'
asS'EMILIN1'
p840
(lp841
I27078566
aI27086397
aS'+'
asS'RETREG2'
p842
(lp843
I219178189
aI219185475
aS'+'
asS'TMEM237'
p844
(lp845
I201620183
aI201643529
aS'-'
asS'ACVR1'
p846
(lp847
I157736445
aI157875862
aS'-'
asS'CAB39'
p848
(lp849
I230712841
aI230821075
aS'+'
asS'TEX37'
p850
(lp851
I88524648
aI88529585
aS'+'
asS'LOC100506474'
p852
(lp853
I12966781
aI13007013
aS'-'
asS'ALMS1-IT1'
p854
(lp855
I73457102
aI73459477
aS'+'
asS'ACKR3'
p856
(lp857
I236569736
aI236582351
aS'+'
asS'M1AP'
p858
(lp859
I74557882
aI74648338
aS'-'
asS'LNPK'
p860
(lp861
I175923891
aI176002839
aS'-'
asS'SNORD20'
p862
(lp863
I231456443
aI231456523
aS'-'
asS'TCF7L1-IT1'
p864
(lp865
I85186408
aI85187253
aS'+'
asS'BCL2L11'
p866
(lp867
I111120913
aI111168445
aS'+'
asS'HADHB'
p868
(lp869
I26244747
aI26290465
aS'+'
asS'HADHA'
p870
(lp871
I26190634
aI26244726
aS'-'
asS'RSAD2'
p872
(lp873
I6877664
aI6898232
aS'+'
asS'NCKAP1'
p874
(lp875
I182924850
aI183038858
aS'-'
asS'CYP4F62P'
p876
(lp877
I130435661
aI130441681
aS'-'
asS'STPG4'
p878
(lp879
I47086990
aI47155378
aS'-'
asS'RMDN2'
p880
(lp881
I37925318
aI38067137
aS'+'
asS'ALS2'
p882
(lp883
I201700262
aI201781172
aS'-'
asS'TMEM163'
p884
(lp885
I134455758
aI134719000
aS'-'
asS'LINC01460'
p886
(lp887
I27705785
aI27715732
aS'-'
asS'FOXN2'
p888
(lp889
I48314681
aI48379295
aS'+'
asS'COX7A2L'
p890
(lp891
I42335560
aI42361243
aS'-'
asS'MIR4776-2'
p892
(lp893
I212926256
aI212926336
aS'-'
asS'MIR4776-1'
p894
(lp895
I212926256
aI212926336
aS'+'
asS'LOC102723824'
p896
(lp897
I42142434
aI42170231
aS'-'
asS'RPL31'
p898
(lp899
I101002228
aI101019693
aS'+'
asS'MIR548BA'
p900
(lp901
I49059602
aI49059658
aS'+'
asS'SLC4A1AP'
p902
(lp903
I27663470
aI27694980
aS'+'
asS'ATF2'
p904
(lp905
I175072249
aI175168206
aS'-'
asS'SUMO1'
p906
(lp907
I202206179
aI202238599
aS'-'
asS'CCDC141'
p908
(lp909
I178829756
aI179050059
aS'-'
asS'CCDC140'
p910
(lp911
I222298146
aI222305217
aS'+'
asS'LINC01798'
p912
(lp913
I66574029
aI66695588
aS'+'
asS'LINC01799'
p914
(lp915
I66904435
aI66971466
aS'+'
asS'LINC01796'
p916
(lp917
I102873338
aI102895722
aS'-'
asS'LINC01797'
p918
(lp919
I66697029
aI66703227
aS'-'
asS'SNORD132'
p920
(lp921
I110658149
aI110658249
aS'-'
asS'LINC01795'
p922
(lp923
I58275876
aI58296548
aS'+'
asS'LINC01792'
p924
(lp925
I200712304
aI200735177
aS'-'
asS'CCDC148'
p926
(lp927
I158171356
aI158456753
aS'-'
asS'LINC01790'
p928
(lp929
I194730594
aI194761435
aS'+'
asS'TGFA-IT1'
p930
(lp931
I70467384
aI70481640
aS'-'
asS'COMMD1'
p932
(lp933
I61888722
aI62136070
aS'+'
asS'LOC285074'
p934
(lp935
I87030674
aI87076413
aS'-'
asS'LINC01883'
p936
(lp937
I38431293
aI38433573
aS'+'
asS'FBXO11'
p938
(lp939
I47806919
aI47905793
aS'-'
asS'B3GALT1'
p940
(lp941
I167818671
aI167870856
aS'+'
asS'MIR4785'
p942
(lp943
I160407809
aI160407882
aS'-'
asS'LOC100288570'
p944
(lp945
I110402918
aI110423816
aS'-'
asS'HTR2B'
p946
(lp947
I231108235
aI231125110
aS'-'
asS'OSBPL6'
p948
(lp949
I178194480
aI178399433
aS'+'
asS'PJVK'
p950
(lp951
I178451435
aI178461566
aS'+'
asS'LINC01087'
p952
(lp953
I131637024
aI131649615
aS'+'
asS'LINC01865'
p954
(lp955
I316283
aI337054
aS'+'
asS'ARHGAP15'
p956
(lp957
I143129329
aI143768352
aS'+'
asS'LINC01317'
p958
(lp959
I33706885
aI34297746
aS'+'
asS'LINC01318'
p960
(lp961
I34067225
aI34069550
aS'+'
asS'STARD7'
p962
(lp963
I96184860
aI96208835
aS'-'
asS'PTRHD1'
p964
(lp965
I24790266
aI24793382
aS'-'
asS'NFU1'
p966
(lp967
I69396112
aI69437628
aS'-'
asS'ANO7'
p968
(lp969
I241188508
aI241225376
aS'+'
asS'POLR1A'
p970
(lp971
I86020215
aI86105886
aS'-'
asS'POLR1B'
p972
(lp973
I112541914
aI112577152
aS'+'
asS'COL3A1'
p974
(lp975
I188974372
aI189012746
aS'+'
asS'LOC105374389'
p976
(lp977
I29474733
aI29475377
aS'-'
asS'LINC01881'
p978
(lp979
I242088632
aI242160503
aS'+'
asS'LINC01886'
p980
(lp981
I107529418
aI107556496
aS'+'
asS'LINC01884'
p982
(lp983
I22536478
aI22538287
aS'+'
asS'WDR43'
p984
(lp985
I28894642
aI28948220
aS'+'
asS'RAB3GAP1'
p986
(lp987
I135052264
aI135170709
aS'+'
asS'HAGLR'
p988
(lp989
I176173188
aI176188958
aS'-'
asS'RNF103-CHMP3'
p990
(lp991
I86503429
aI86721122
aS'-'
asS'MRPL19'
p992
(lp993
I75646782
aI75662208
aS'+'
asS'CCL20'
p994
(lp995
I227813841
aI227817564
aS'+'
asS'TP53I3'
p996
(lp997
I24077432
aI24085215
aS'-'
asS'ING5'
p998
(lp999
I241687011
aI241721807
aS'+'
asS'FSIP2'
p1000
(lp1001
I185738894
aI185833289
aS'+'
asS'TTC32'
p1002
(lp1003
I19896630
aI19901986
aS'-'
asS'TTC31'
p1004
(lp1005
I74483072
aI74494564
aS'+'
asS'WDFY1'
p1006
(lp1007
I223875342
aI223945387
aS'-'
asS'GFPT1'
p1008
(lp1009
I69319768
aI69387254
aS'-'
asS'PARTICL'
p1010
(lp1011
I85537466
aI85538886
aS'-'
asS'VSNL1'
p1012
(lp1013
I17539971
aI17656439
aS'+'
asS'RN7SL832P'
p1014
(lp1015
I10690009
aI10692095
aS'+'
asS'PCARE'
p1016
(lp1017
I29061689
aI29074261
aS'-'
asS'RNPEPL1'
p1018
(lp1019
I240568483
aI240578732
aS'+'
asS'ANKRD36'
p1020
(lp1021
I97113152
aI97264520
aS'+'
asS'RHOB'
p1022
(lp1023
I20447070
aI20449443
aS'+'
asS'GLS'
p1024
(lp1025
I190880820
aI190965544
aS'+'
asS'ANKRD39'
p1026
(lp1027
I96847986
aI96858019
aS'-'
asS'SLC19A3'
p1028
(lp1029
I227683762
aI227718028
aS'-'
asS'NCOA1'
p1030
(lp1031
I24491253
aI24770701
aS'+'
asS'TMEM17'
p1032
(lp1033
I62500218
aI62506195
aS'-'
asS'C2orf92'
p1034
(lp1035
I97669742
aI97703066
aS'+'
asS'TMEM18'
p1036
(lp1037
I663877
aI677468
aS'-'
asS'LOC643072'
p1038
(lp1039
I159615293
aI159618042
aS'+'
asS'FAM110C'
p1040
(lp1041
I38813
aI46588
aS'-'
asS'KIF3C'
p1042
(lp1043
I25926585
aI25982574
aS'-'
asS'ATOH8'
p1044
(lp1045
I85753785
aI85791383
aS'+'
asS'MIR216B'
p1046
(lp1047
I56000713
aI56000795
aS'-'
asS'TOGARAM2'
p1048
(lp1049
I28981297
aI29052230
aS'+'
asS'MIR216A'
p1050
(lp1051
I55988949
aI55989059
aS'-'
asS'SATB2-AS1'
p1052
(lp1053
I199468097
aI199472758
aS'+'
asS'LOC105373562'
p1054
(lp1055
I112541655
aI112542212
aS'-'
asS'MIR4773-2'
p1056
(lp1057
I151368333
aI151368411
aS'-'
asS'MIR4773-1'
p1058
(lp1059
I151368333
aI151368411
aS'+'
asS'ZNF638'
p1060
(lp1061
I71331754
aI71435061
aS'+'
asS'ANAPC1P1'
p1062
(lp1063
I86861824
aI86895042
aS'+'
asS'MSGN1'
p1064
(lp1065
I17816509
aI17817798
aS'+'
asS'GEMIN6'
p1066
(lp1067
I38778184
aI38781964
aS'+'
asS'SPAG16'
p1068
(lp1069
I213284378
aI214410501
aS'+'
asS'EMX1'
p1070
(lp1071
I72917474
aI72934891
aS'+'
asS'LINC01960'
p1072
(lp1073
I174025279
aI174027157
aS'+'
asS'MDH1B'
p1074
(lp1075
I206737764
aI206765549
aS'-'
asS'HSPE1'
p1076
(lp1077
I197499996
aI197503463
aS'+'
asS'PRKD3'
p1078
(lp1079
I37250502
aI37317084
aS'-'
asS'MIR4782'
p1080
(lp1081
I113721289
aI113721368
aS'-'
asS'ALKAL2'
p1082
(lp1083
I279557
aI288091
aS'-'
asS'GEN1'
p1084
(lp1085
I17753857
aI17785913
aS'+'
asS'SNORD3K'
p1086
(lp1087
I169816278
aI169816378
aS'+'
asS'LOC105374820'
p1088
(lp1089
I78545530
aI78566084
aS'+'
asS'ATP5MC3'
p1090
(lp1091
I175176257
aI175181762
aS'-'
asS'COBLL1'
p1092
(lp1093
I164657930
aI164842076
aS'-'
asS'LPIN1'
p1094
(lp1095
I11677543
aI11827407
aS'+'
asS'MIR548AU'
p1096
(lp1097
I107149664
aI107349525
aS'-'
asS'DDX18'
p1098
(lp1099
I117814690
aI117832377
aS'+'
asS'CDK15'
p1100
(lp1101
I201806428
aI201895550
aS'+'
asS'KLF7'
p1102
(lp1103
I207074137
aI207167246
aS'-'
asS'SELENOI'
p1104
(lp1105
I26346085
aI26395891
aS'+'
asS'ATP6V1B1'
p1106
(lp1107
I70935899
aI70965431
aS'+'
asS'MIR548AD'
p1108
(lp1109
I35471404
aI35471486
aS'+'
asS'OR6B3'
p1110
(lp1111
I240045076
aI240046072
aS'-'
asS'IDH1'
p1112
(lp1113
I208236226
aI208255143
aS'-'
asS'EFR3B'
p1114
(lp1115
I25042103
aI25159135
aS'+'
asS'YY1P2'
p1116
(lp1117
I138897323
aI138899174
aS'+'
asS'CXCR2P1'
p1118
(lp1119
I218059154
aI218061290
aS'-'
asS'UTAT33'
p1120
(lp1121
I105097051
aI105102944
aS'-'
asS'TRIP12'
p1122
(lp1123
I229763836
aI229922009
aS'-'
asS'PASK'
p1124
(lp1125
I241106098
aI241149979
aS'-'
asS'IFT172'
p1126
(lp1127
I27444372
aI27489811
aS'-'
asS'NUP35'
p1128
(lp1129
I183117489
aI183161684
aS'+'
asS'RND3'
p1130
(lp1131
I150468192
aI150487695
aS'-'
asS'NCL'
p1132
(lp1133
I231454747
aI231464494
aS'-'
asS'LOC101928222'
p1134
(lp1135
I19990203
aI20004806
aS'+'
asS'SCN1A'
p1136
(lp1137
I165989159
aI166149216
aS'-'
asS'SLC1A4'
p1138
(lp1139
I64988444
aI65023866
aS'+'
asS'MAP3K19'
p1140
(lp1141
I134964490
aI135024678
aS'-'
asS'MIR4434'
p1142
(lp1143
I64525512
aI64525565
aS'+'
asS'SESTD1'
p1144
(lp1145
I179101691
aI179264623
aS'-'
asS'TWIST2'
p1146
(lp1147
I238848031
aI238910548
aS'+'
asS'MIR4757'
p1148
(lp1149
I19348428
aI19348505
aS'+'
asS'SFTPB'
p1150
(lp1151
I85657306
aI85668741
aS'-'
asS'TTC21B-AS1'
p1152
(lp1153
I165933856
aI165948321
aS'+'
asS'LINC02610'
p1154
(lp1155
I238225112
aI238231677
aS'-'
asS'MARCH4'
p1156
(lp1157
I216257861
aI216372027
aS'-'
asS'MARCH7'
p1158
(lp1159
I159712456
aI159768583
aS'+'
asS'GACAT3'
p1160
(lp1161
I16050426
aI16085689
aS'+'
asS'GACAT1'
p1162
(lp1163
I107754111
aI107822129
aS'+'
asS'MIR1244-3'
p1164
(lp1165
I231713313
aI231713395
aS'+'
asS'TMEM177'
p1166
(lp1167
I119679166
aI119723617
aS'+'
asS'FOXI3'
p1168
(lp1169
I88446786
aI88452535
aS'-'
asS'LINC01412'
p1170
(lp1171
I144521867
aI144579434
aS'+'
asS'B3GNT7'
p1172
(lp1173
I231395623
aI231401164
aS'+'
asS'B3GNT2'
p1174
(lp1175
I62196126
aI62224731
aS'+'
asS'DHRS9'
p1176
(lp1177
I169067034
aI169096167
aS'+'
asS'FNDC4'
p1178
(lp1179
I27491882
aI27495259
aS'-'
asS'RAB6C-AS1'
p1180
(lp1181
I129966591
aI129980472
aS'-'
asS'ADRA2B'
p1182
(lp1183
I96112874
aI96116245
aS'-'
asS'ANKRD36C'
p1184
(lp1185
I95849547
aI95992320
aS'-'
asS'ANKRD36B'
p1186
(lp1187
I97504797
aI97589965
aS'-'
asS'LINC02478'
p1188
(lp1189
I160257718
aI160271895
aS'-'
asS'NOL10'
p1190
(lp1191
I10570765
aI10689987
aS'-'
asS'NABP1'
p1192
(lp1193
I191678071
aI191688522
aS'+'
asS'EPHA4'
p1194
(lp1195
I221418026
aI221574202
aS'-'
asS'BARD1'
p1196
(lp1197
I214725645
aI214809711
aS'-'
asS'TPO'
p1198
(lp1199
I1413460
aI1542727
aS'+'
asS'GNLY'
p1200
(lp1201
I85694290
aI85698851
aS'+'
asS'SMARCAL1'
p1202
(lp1203
I216412413
aI216483051
aS'+'
asS'CCDC150'
p1204
(lp1205
I196639631
aI196732806
aS'+'
asS'LOC200772'
p1206
(lp1207
I240954618
aI240967451
aS'-'
asS'LINC01250'
p1208
(lp1209
I2895047
aI3126026
aS'-'
asS'FN1'
p1210
(lp1211
I215360439
aI215436070
aS'-'
asS'MYCNOS'
p1212
(lp1213
I15936264
aI15941723
aS'-'
asS'MIR8080'
p1214
(lp1215
I79866494
aI79866583
aS'-'
asS'CAVIN2'
p1216
(lp1217
I191834305
aI191847280
aS'-'
asS'RPL37A'
p1218
(lp1219
I216498796
aI216501465
aS'+'
asS'LOC101929882'
p1220
(lp1221
I10041552
aI10043401
aS'-'
asS'LINC01891'
p1222
(lp1223
I234444589
aI234454595
aS'-'
asS'SNORA40B'
p1224
(lp1225
I135136627
aI135136755
aS'+'
asS'MARCO'
p1226
(lp1227
I118942168
aI118994660
aS'+'
asS'CYP26B1'
p1228
(lp1229
I72129237
aI72147862
aS'-'
asS'LRRTM4'
p1230
(lp1231
I76747723
aI77522433
aS'-'
asS'LRRTM1'
p1232
(lp1233
I80301877
aI80304362
aS'-'
asS'LOC101929319'
p1234
(lp1235
I151337825
aI151379371
aS'-'
asS'LINC01320'
p1236
(lp1237
I34677556
aI34722563
aS'+'
asS'DRC1'
p1238
(lp1239
I26401911
aI26456711
aS'+'
asS'FARP2'
p1240
(lp1241
I241356284
aI241494841
aS'+'
asS'EPAS1'
p1242
(lp1243
I46297401
aI46386703
aS'+'
asS'RALB'
p1244
(lp1245
I120252837
aI120294710
aS'+'
asS'VPS54'
p1246
(lp1247
I63892149
aI64019428
aS'-'
asS'BRE-AS1'
p1248
(lp1249
I27889455
aI27891114
aS'-'
asS'GPR75'
p1250
(lp1251
I53852912
aI53860033
aS'-'
asS'SMPD4'
p1252
(lp1253
I130151391
aI130182750
aS'-'
asS'HAAO'
p1254
(lp1255
I42767088
aI42792611
aS'-'
asS'ACOXL'
p1256
(lp1257
I110732572
aI111118548
aS'+'
asS'PDE11A'
p1258
(lp1259
I177623248
aI178108339
aS'-'
asS'CYP1B1'
p1260
(lp1261
I38067602
aI38076181
aS'-'
asS'DAW1'
p1262
(lp1263
I227871375
aI227924343
aS'+'
asS'DNAJB3'
p1264
(lp1265
I233742749
aI233744015
aS'-'
asS'DNAJB2'
p1266
(lp1267
I219279317
aI219286900
aS'+'
asS'GPATCH11'
p1268
(lp1269
I37084450
aI37099244
aS'+'
asS'NEURL3'
p1270
(lp1271
I96497642
aI96508109
aS'-'
asS'LINC00342'
p1272
(lp1273
I95807051
aI95826981
aS'-'
asS'AAMP'
p1274
(lp1275
I218264128
aI218270209
aS'-'
asS'FANCL'
p1276
(lp1277
I58159242
aI58241380
aS'-'
asS'FUNDC2P2'
p1278
(lp1279
I84290681
aI84292200
aS'+'
asS'CLHC1'
p1280
(lp1281
I55172550
aI55232563
aS'-'
asS'HNRNPA3'
p1282
(lp1283
I177212693
aI177223959
aS'+'
asS'ELMOD3'
p1284
(lp1285
I85354719
aI85391752
aS'+'
asS'RDH14'
p1286
(lp1287
I18554722
aI18560693
aS'-'
asS'ZNF806'
p1288
(lp1289
I132304791
aI132322749
aS'+'
asS'CARF'
p1290
(lp1291
I202912217
aI202988261
aS'+'
asS'LOC105373394'
p1292
(lp1293
I3974160
aI3975280
aS'+'
asS'LOC100131604'
p1294
(lp1295
I162074856
aI162077932
aS'+'
asS'LRRFIP1'
p1296
(lp1297
I237627580
aI237781647
aS'+'
asS'IRS1'
p1298
(lp1299
I226731316
aI226798790
aS'-'
asS'RNF149'
p1300
(lp1301
I101275600
aI101308716
aS'-'
asS'DGUOK-AS1'
p1302
(lp1303
I73957967
aI73981439
aS'-'
asS'MIR663B'
p1304
(lp1305
I132256965
aI132257080
aS'-'
asS'MSH2'
p1306
(lp1307
I47403066
aI47483228
aS'+'
asS'SF3B6'
p1308
(lp1309
I24067583
aI24076444
aS'-'
asS'SF3B1'
p1310
(lp1311
I197391973
aI197435093
aS'-'
asS'MSH6'
p1312
(lp1313
I47783081
aI47806953
aS'+'
asS'LIMS2'
p1314
(lp1315
I127638420
aI127681786
aS'-'
asS'LIMS3'
p1316
(lp1317
I109898431
aI109925625
aS'+'
asS'LIMS1'
p1318
(lp1319
I108534354
aI108687246
aS'+'
asS'LIMS4'
p1320
(lp1321
I109898431
aI109925625
aS'+'
asS'GAL3ST2'
p1322
(lp1323
I241776824
aI241804287
aS'+'
asS'ODC1'
p1324
(lp1325
I10440370
aI10448554
aS'-'
asS'IL18RAP'
p1326
(lp1327
I102418789
aI102452564
aS'+'
asS'ATG16L1'
p1328
(lp1329
I233251570
aI233295674
aS'+'
asS'HSPD1'
p1330
(lp1331
I197486583
aI197500274
aS'-'
asS'SCN2A'
p1332
(lp1333
I165239413
aI165392304
aS'+'
asS'MTX2'
p1334
(lp1335
I176269394
aI176338025
aS'+'
asS'DNAJC10'
p1336
(lp1337
I182716040
aI182780023
aS'+'
asS'MATN3'
p1338
(lp1339
I19992051
aI20012668
aS'-'
asS'PCGEM1'
p1340
(lp1341
I192749844
aI192776899
aS'+'
asS'LOC107105282'
p1342
(lp1343
I119476453
aI119487343
aS'+'
asS'PRKCE'
p1344
(lp1345
I45651903
aI46187990
aS'+'
asS'NAT8B'
p1346
(lp1347
I73700508
aI73701340
aS'-'
asS'METTL21A'
p1348
(lp1349
I207580630
aI207626053
aS'-'
asS'TRABD2A'
p1350
(lp1351
I84821666
aI84881245
aS'-'
asS'CHPF'
p1352
(lp1353
I219538946
aI219543765
aS'-'
asS'LOC101928103'
p1354
(lp1355
I214810228
aI214963605
aS'+'
asS'GULP1'
p1356
(lp1357
I188291668
aI188595925
aS'+'
asS'MEIS1-AS3'
p1358
(lp1359
I66423342
aI66433470
aS'-'
asS'MEIS1-AS2'
p1360
(lp1361
I66439094
aI66440330
aS'-'
asS'ATP6V1C2'
p1362
(lp1363
I10721629
aI10785110
aS'+'
asS'ADD2'
p1364
(lp1365
I70656783
aI70768200
aS'-'
asS'ACTG2'
p1366
(lp1367
I73892965
aI73919653
aS'+'
asS'LINC01248'
p1368
(lp1369
I5634140
aI5691118
aS'-'
asS'SNAR-H'
p1370
(lp1371
I77954906
aI77955026
aS'-'
asS'DAPL1'
p1372
(lp1373
I158795316
aI158815984
aS'+'
asS'PPIL3'
p1374
(lp1375
I200870955
aI200889126
aS'-'
asS'LINC01123'
p1376
(lp1377
I110376187
aI110384525
aS'-'
asS'AGAP1-IT1'
p1378
(lp1379
I235505750
aI235507566
aS'+'
asS'LINC01122'
p1380
(lp1381
I58520752
aI59063766
aS'+'
asS'CWC22'
p1382
(lp1383
I179944876
aI180007053
aS'-'
asS'PPP1R7'
p1384
(lp1385
I241149572
aI241183650
aS'+'
asS'MAP3K2'
p1386
(lp1387
I127298668
aI127343229
aS'-'
asS'SPOPL'
p1388
(lp1389
I138501779
aI138573236
aS'+'
asS'CCDC93'
p1390
(lp1391
I117915477
aI118014163
aS'-'
asS'MAP3K20'
p1392
(lp1393
I173075836
aI173268009
aS'+'
asS'MIR1244-2'
p1394
(lp1395
I231713313
aI231713395
aS'+'
asS'ERBB4'
p1396
(lp1397
I211375716
aI212538628
aS'-'
asS'ERLEC1'
p1398
(lp1399
I53786930
aI53818819
aS'+'
asS'EVX2'
p1400
(lp1401
I176080106
aI176083962
aS'-'
asS'MIR5696'
p1402
(lp1403
I101309449
aI101309534
aS'+'
asS'INPP5D'
p1404
(lp1405
I233059966
aI233207903
aS'+'
asS'SOS1'
p1406
(lp1407
I38981548
aI39120463
aS'-'
asS'TEX51'
p1408
(lp1409
I126898885
aI126902097
aS'+'
asS'FKBP1B'
p1410
(lp1411
I24049700
aI24063680
aS'+'
asS'LOC100132215'
p1412
(lp1413
I63043965
aI63048521
aS'-'
asS'PID1'
p1414
(lp1415
I229023972
aI229271341
aS'-'
asS'SPEG'
p1416
(lp1417
I219434977
aI219493632
aS'+'
asS'CCNT2-AS1'
p1418
(lp1419
I134866632
aI134918606
aS'-'
asS'FLJ33534'
p1420
(lp1421
I11099850
aI11132176
aS'-'
asS'LINC01246'
p1422
(lp1423
I6626108
aI6634706
aS'-'
asS'LINC01247'
p1424
(lp1425
I6366009
aI6375422
aS'-'
asS'LOC285095'
p1426
(lp1427
I241893982
aI241902623
aS'-'
asS'LOC285097'
p1428
(lp1429
I242001208
aI242006011
aS'+'
asS'AFF3'
p1430
(lp1431
I99547253
aI100142575
aS'-'
asS'TEKT4'
p1432
(lp1433
I94871432
aI94876829
aS'+'
asS'EIPR1'
p1434
(lp1435
I3188923
aI3377932
aS'-'
asS'UNC50'
p1436
(lp1437
I98608547
aI98618514
aS'+'
asS'NPPC'
p1438
(lp1439
I231922093
aI231926403
aS'-'
asS'PDCL3'
p1440
(lp1441
I100562992
aI100576739
aS'+'
asS'FRZB'
p1442
(lp1443
I182833275
aI182866770
aS'-'
asS'GCKR'
p1444
(lp1445
I27496838
aI27523683
aS'+'
asS'DNER'
p1446
(lp1447
I229357628
aI229714555
aS'-'
asS'LOC100506124'
p1448
(lp1449
I165857475
aI165871941
aS'-'
asS'ABCA12'
p1450
(lp1451
I214931541
aI215138428
aS'-'
asS'LOC100506123'
p1452
(lp1453
I97416165
aI97424027
aS'-'
asS'DHFRP3'
p1454
(lp1455
I82856802
aI82857769
aS'+'
asS'MOGS'
p1456
(lp1457
I74461056
aI74465410
aS'-'
asS'SNORD11B'
p1458
(lp1459
I202291316
aI202291428
aS'+'
asS'PTCD3'
p1460
(lp1461
I86106181
aI86142157
aS'+'
asS'LBX2-AS1'
p1462
(lp1463
I74502592
aI74505065
aS'+'
asS'UBE2F'
p1464
(lp1465
I237966944
aI238042782
aS'+'
asS'FTH1P3'
p1466
(lp1467
I27392622
aI27393576
aS'-'
asS'MIR1244-4'
p1468
(lp1469
I231713313
aI231713395
aS'+'
asS'LINC01628'
p1470
(lp1471
I66921510
aI66922490
aS'-'
asS'AGFG1'
p1472
(lp1473
I227472171
aI227561222
aS'+'
asS'LIPT1'
p1474
(lp1475
I99154954
aI99163150
aS'+'
asS'ALS2CR12'
p1476
(lp1477
I201288270
aI201357398
aS'-'
asS'SNED1'
p1478
(lp1479
I240998837
aI241095561
aS'+'
asS'IL1A'
p1480
(lp1481
I112773914
aI112785398
aS'-'
asS'IL1B'
p1482
(lp1483
I112829759
aI112836779
aS'-'
asS'CRYGC'
p1484
(lp1485
I208128136
aI208129830
aS'-'
asS'CRYGD'
p1486
(lp1487
I208121606
aI208124589
aS'-'
asS'THSD7B'
p1488
(lp1489
I136765561
aI137677712
aS'+'
asS'PNO1'
p1490
(lp1491
I68157829
aI68176238
aS'+'
asS'LOC402096'
p1492
(lp1493
I106369744
aI106376538
aS'+'
asS'KIDINS220'
p1494
(lp1495
I8721133
aI8837639
aS'-'
asS'PLEKHM3'
p1496
(lp1497
I207821287
aI208025560
aS'-'
asS'ADAM23'
p1498
(lp1499
I206443643
aI206621131
aS'+'
asS'SP140L'
p1500
(lp1501
I230327170
aI230403732
aS'+'
asS'ID2-AS1'
p1502
(lp1503
I8670983
aI8681863
aS'-'
asS'PAX8-AS1'
p1504
(lp1505
I113236268
aI113267023
aS'+'
asS'CROCC2'
p1506
(lp1507
I240906513
aI240993311
aS'+'
asS'WNT6'
p1508
(lp1509
I218859822
aI218874232
aS'+'
asS'SPEGNB'
p1510
(lp1511
I219496354
aI219498287
aS'+'
asS'FARSB'
p1512
(lp1513
I222571442
aI222656355
aS'-'
asS'CFC1B'
p1514
(lp1515
I130521093
aI130527992
aS'+'
asS'LINC00570'
p1516
(lp1517
I11393980
aI11403077
aS'+'
asS'ACTR3BP2'
p1518
(lp1519
I91941132
aI91942470
aS'+'
asS'PLGLB1'
p1520
(lp1521
I87748090
aI87759475
aS'+'
asS'PLGLB2'
p1522
(lp1523
I87748086
aI87759475
aS'+'
asS'SNORA41'
p1524
(lp1525
I206162227
aI206162359
aS'+'
asS'MIR7515'
p1526
(lp1527
I6650372
aI6650439
aS'+'
asS'LOC100130691'
p1528
(lp1529
I177283507
aI177392691
aS'-'
asS'SNORA105B'
p1530
(lp1531
I197486787
aI197486903
aS'-'
asS'MIR1245A'
p1532
(lp1533
I188978091
aI188978160
aS'+'
asS'MIR1245B'
p1534
(lp1535
I188978093
aI188978161
aS'-'
asS'KRCC1'
p1536
(lp1537
I88027202
aI88055801
aS'-'
asS'RBMS1'
p1538
(lp1539
I160272150
aI160493807
aS'-'
asS'SPTBN1'
p1540
(lp1541
I54456316
aI54671446
aS'+'
asS'KLF11'
p1542
(lp1543
I10043554
aI10054836
aS'+'
asS'TMEM37'
p1544
(lp1545
I119431869
aI119438520
aS'+'
asS'GDF7'
p1546
(lp1547
I20666663
aI20679241
aS'+'
asS'RPL23AP32'
p1548
(lp1549
I54529221
aI54529841
aS'+'
asS'NT5C1B'
p1550
(lp1551
I18562870
aI18589580
aS'-'
asS'MIR153-1'
p1552
(lp1553
I219294110
aI219294200
aS'-'
asS'DPP4'
p1554
(lp1555
I161992244
aI162074542
aS'-'
asS'POU3F3'
p1556
(lp1557
I104854067
aI104858573
aS'+'
asS'CEP68'
p1558
(lp1559
I65056360
aI65087008
aS'+'
asS'ANXA4'
p1560
(lp1561
I69643804
aI69826477
aS'+'
asS'MIR7158'
p1562
(lp1563
I5974661
aI5974732
aS'+'
asS'COQ10B'
p1564
(lp1565
I197453422
aI197475309
aS'+'
asS'MCM6'
p1566
(lp1567
I135839625
aI135876443
aS'-'
asS'ACOXL-AS1'
p1568
(lp1569
I111098340
aI111115588
aS'-'
asS'LINC01238'
p1570
(lp1571
I241970682
aI241977276
aS'+'
asS'DUSP11'
p1572
(lp1573
I73762197
aI73780157
aS'-'
asS'LIMS1-AS1'
p1574
(lp1575
I108676794
aI108678601
aS'-'
asS'PANTR1'
p1576
(lp1577
I104805424
aI104851476
aS'-'
asS'HS1BP3'
p1578
(lp1579
I20617817
aI20651098
aS'-'
asS'CD8B2'
p1580
(lp1581
I106487355
aI106511095
aS'+'
asS'EPC2'
p1582
(lp1583
I148644990
aI148787567
aS'+'
asS'C1D'
p1584
(lp1585
I68042199
aI68063027
aS'-'
asS'ODC1-DT'
p1586
(lp1587
I10449727
aI10455552
aS'+'
asS'CRIM1'
p1588
(lp1589
I36356226
aI36551135
aS'+'
asS'MED15P9'
p1590
(lp1591
I130129622
aI130139413
aS'+'
asS'SP100'
p1592
(lp1593
I230416155
aI230545602
aS'+'
asS'ZRANB3'
p1594
(lp1595
I135196968
aI135531236
aS'-'
asS'TRMT61B'
p1596
(lp1597
I28849820
aI28870309
aS'-'
asS'BOK'
p1598
(lp1599
I241558730
aI241574138
aS'+'
asS'LINC01381'
p1600
(lp1601
I25204312
aI25209202
aS'+'
asS'KCNK3'
p1602
(lp1603
I26692712
aI26731198
aS'+'
asS'ZNF142'
p1604
(lp1605
I218637915
aI218659623
aS'-'
asS'LOC100133920'
p1606
(lp1607
I94575975
aI94587183
aS'-'
asS'BCS1L'
p1608
(lp1609
I218659655
aI218663443
aS'+'
asS'CCDC88A'
p1610
(lp1611
I55287841
aI55419921
aS'-'
asS'INPP4A'
p1612
(lp1613
I98444857
aI98591033
aS'+'
asS'CGREF1'
p1614
(lp1615
I27099352
aI27119127
aS'-'
asS'CNNM3-DT'
p1616
(lp1617
I96812238
aI96813657
aS'-'
asS'MIR5590'
p1618
(lp1619
I134857819
aI134857873
aS'+'
asS'TANC1'
p1620
(lp1621
I158968633
aI159232659
aS'+'
asS'LOC654841'
p1622
(lp1623
I227221051
aI227325164
aS'-'
asS'PMS1'
p1624
(lp1625
I189784084
aI189877629
aS'+'
asS'MIR6809'
p1626
(lp1627
I217900512
aI217900628
aS'-'
asS'HNRNPLL'
p1628
(lp1629
I38563185
aI38603036
aS'-'
asS'PDCD1'
p1630
(lp1631
I241849883
aI241858894
aS'-'
asS'SNORD51'
p1632
(lp1633
I206161880
aI206161950
aS'+'
asS'SNORD53'
p1634
(lp1635
I28927066
aI28927144
aS'+'
asS'DDX1'
p1636
(lp1637
I15591620
aI15631111
aS'+'
asS'MYADML'
p1638
(lp1639
I33726060
aI33728217
aS'-'
asS'LOC100505774'
p1640
(lp1641
I28709049
aI28736205
aS'-'
asS'MIR4779'
p1642
(lp1643
I86193025
aI86193108
aS'-'
asS'MIR4778'
p1644
(lp1645
I66358248
aI66358328
aS'-'
asS'MIR4775'
p1646
(lp1647
I207754806
aI207754881
aS'+'
asS'MIR4774'
p1648
(lp1649
I168582942
aI168583018
aS'+'
asS'MIR4777'
p1650
(lp1651
I231362707
aI231362793
aS'+'
asS'ANKRD36BP2'
p1652
(lp1653
I88765901
aI88806595
aS'+'
asS'MIR4772'
p1654
(lp1655
I102432288
aI102432366
aS'+'
asS'GTF3C2-AS1'
p1656
(lp1657
I27335541
aI27337803
aS'+'
asS'PPP1R21'
p1658
(lp1659
I48440768
aI48515392
aS'+'
asS'CRYGA'
p1660
(lp1661
I208160739
aI208163573
aS'-'
asS'ZEB2-AS1'
p1662
(lp1663
I144519613
aI144520898
aS'+'
asS'FAM161A'
p1664
(lp1665
I61824847
aI61854143
aS'-'
asS'KANSL1L'
p1666
(lp1667
I210021420
aI210171409
aS'-'
asS'AMER3'
p1668
(lp1669
I130755503
aI130768134
aS'+'
asS'TEX41'
p1670
(lp1671
I144667966
aI145076724
aS'+'
asS'TEX44'
p1672
(lp1673
I231592863
aI231594283
aS'+'
asS'UBXN4'
p1674
(lp1675
I135741618
aI135785063
aS'+'
asS'MIR3130-2'
p1676
(lp1677
I206783233
aI206783308
aS'+'
asS'MIR3130-1'
p1678
(lp1679
I206783233
aI206783308
aS'-'
asS'DLX1'
p1680
(lp1681
I172085479
aI172089673
aS'+'
asS'DLX2'
p1682
(lp1683
I172099437
aI172102750
aS'-'
asS'SH2D6'
p1684
(lp1685
I85418930
aI85437031
aS'+'
asS'ASIC4'
p1686
(lp1687
I219514169
aI219538772
aS'+'
asS'MRPL44'
p1688
(lp1689
I223957403
aI223967714
aS'+'
asS'ABCB11'
p1690
(lp1691
I168920780
aI169031324
aS'-'
asS'ASDURF'
p1692
(lp1693
I189661398
aI189666401
aS'+'
asS'APLF'
p1694
(lp1695
I68467558
aI68580162
aS'+'
asS'SDC1'
p1696
(lp1697
I20200796
aI20225433
aS'-'
asS'TNFAIP6'
p1698
(lp1699
I151357591
aI151380048
aS'+'
asS'HOXD12'
p1700
(lp1701
I176099801
aI176100760
aS'+'
asS'CYP4F30P'
p1702
(lp1703
I130680049
aI130685862
aS'+'
asS'HOXD10'
p1704
(lp1705
I176116763
aI176119942
aS'+'
asS'HOXD11'
p1706
(lp1707
I176107355
aI176109588
aS'+'
asS'RNU6-8'
p1708
(lp1709
I174557966
aI174558072
aS'-'
asS'RNU6-9'
p1710
(lp1711
I174557965
aI174558072
aS'-'
asS'STON1'
p1712
(lp1713
I48530168
aI48598515
aS'+'
asS'RNU6-7'
p1714
(lp1715
I174557966
aI174558072
aS'-'
asS'ACTR3'
p1716
(lp1717
I113889933
aI113961552
aS'+'
asS'ACTR2'
p1718
(lp1719
I65227694
aI65271256
aS'+'
asS'NRBP1'
p1720
(lp1721
I27427789
aI27442257
aS'+'
asS'VAX2'
p1722
(lp1723
I70900589
aI70933445
aS'+'
asS'COPS8'
p1724
(lp1725
I237085440
aI237098846
aS'+'
asS'LINC01291'
p1726
(lp1727
I74909130
aI74938418
aS'+'
asS'TMEM169'
p1728
(lp1729
I216081865
aI216102783
aS'+'
asS'COPS9'
p1730
(lp1731
I240126562
aI240136347
aS'-'
asS'GBX2'
p1732
(lp1733
I236165235
aI236168009
aS'-'
asS'LINC00211'
p1734
(lp1735
I37826246
aI37875863
aS'-'
asS'C1GALT1C1L'
p1736
(lp1737
I43675152
aI43676322
aS'-'
asS'MARS2'
p1738
(lp1739
I197705303
aI197708390
aS'+'
asS'LINC01614'
p1740
(lp1741
I215718042
aI215720946
aS'+'
asS'MIR3681'
p1742
(lp1743
I12199129
aI12199201
aS'+'
asS'MIR3682'
p1744
(lp1745
I53849121
aI53849205
aS'-'
asS'MIR4435-2HG'
p1746
(lp1747
I111195865
aI111495161
aS'-'
asS'GTDC1'
p1748
(lp1749
I143946013
aI144333069
aS'-'
asS'SGPP2'
p1750
(lp1751
I222424051
aI222562622
aS'+'
asS'LINC01185'
p1752
(lp1753
I60847759
aI60881314
aS'-'
asS'DUSP2'
p1754
(lp1755
I96143168
aI96145440
aS'-'
asS'MYT1L-AS1'
p1756
(lp1757
I2319231
aI2327108
aS'+'
asS'LOC101927795'
p1758
(lp1759
I200780494
aI200812170
aS'-'
asS'VWA3B'
p1760
(lp1761
I98087131
aI98312947
aS'+'
asS'THNSL2'
p1762
(lp1763
I88170294
aI88186637
aS'+'
asS'METTL8'
p1764
(lp1765
I171315745
aI171434803
aS'-'
asS'MIR4426'
p1766
(lp1767
I55234163
aI55234849
aS'+'
asS'MIR4429'
p1768
(lp1769
I11540604
aI11540677
aS'-'
asS'WDR92'
p1770
(lp1771
I68129804
aI68157527
aS'-'
asS'METTL5'
p1772
(lp1773
I169811757
aI169824931
aS'-'
asS'DGUOK'
p1774
(lp1775
I73926825
aI73958961
aS'+'
asS'ALPI'
p1776
(lp1777
I232456111
aI232460745
aS'+'
asS'BMP10'
p1778
(lp1779
I68860908
aI68871397
aS'-'
asS'GPR55'
p1780
(lp1781
I230907327
aI230925226
aS'-'
asS'ADAM17'
p1782
(lp1783
I9488485
aI9555830
aS'-'
asS'EPB41L5'
p1784
(lp1785
I120013027
aI120179121
aS'+'
asS'LINC01963'
p1786
(lp1787
I216216888
aI216220192
aS'+'
asS'LINC01964'
p1788
(lp1789
I85064109
aI85067347
aS'-'
asS'EXOC6B'
p1790
(lp1791
I72175983
aI72826042
aS'-'
asS'CMPK2'
p1792
(lp1793
I6840552
aI6865819
aS'-'
asS'SLC38A11'
p1794
(lp1795
I164898198
aI164955525
aS'-'
asS'RFTN2'
p1796
(lp1797
I197570802
aI197675860
aS'-'
asS'DGKD'
p1798
(lp1799
I233354506
aI233472097
aS'+'
asS'DNMT3A'
p1800
(lp1801
I25232960
aI25342590
aS'-'
asS'LHCGR'
p1802
(lp1803
I48686773
aI48755741
aS'-'
asS'ADGRF3'
p1804
(lp1805
I26308172
aI26346817
aS'-'
asS'BCYRN1'
p1806
(lp1807
I47335314
aI47335514
aS'+'
asS'AAK1'
p1808
(lp1809
I69457996
aI69643739
aS'-'
asS'FOXD4L1'
p1810
(lp1811
I113499083
aI113501150
aS'+'
asS'GCSHP3'
p1812
(lp1813
I206115572
aI206116572
aS'-'
asS'PTPRN'
p1814
(lp1815
I219289622
aI219309573
aS'-'
asS'STON1-GTF2A1L'
p1816
(lp1817
I48529924
aI48776517
aS'+'
asS'SNRPG'
p1818
(lp1819
I70281361
aI70293771
aS'-'
asS'MIR548AE1'
p1820
(lp1821
I184378974
aI184379044
aS'+'
asS'INPP1'
p1822
(lp1823
I190343469
aI190371665
aS'+'
asS'PPP3R1'
p1824
(lp1825
I68178856
aI68252519
aS'-'
asS'PRKAG3'
p1826
(lp1827
I218822382
aI218831789
aS'-'
asS'SCG2'
p1828
(lp1829
I223596939
aI223602361
aS'-'
asS'DUSP28'
p1830
(lp1831
I240560053
aI240564014
aS'+'
asS'EPCAM-DT'
p1832
(lp1833
I47192404
aI47345074
aS'-'
asS'SEMA4C'
p1834
(lp1835
I96859735
aI96869998
aS'-'
asS'SEMA4F'
p1836
(lp1837
I74654227
aI74683854
aS'+'
asS'ALMS1'
p1838
(lp1839
I73385757
aI73609919
aS'+'
asS'LOC442028'
p1840
(lp1841
I94868684
aI94947342
aS'-'
asS'MRPL53'
p1842
(lp1843
I74471957
aI74472815
aS'-'
asS'SP110'
p1844
(lp1845
I230168925
aI230220112
aS'-'
asS'LOC93463'
p1846
(lp1847
I237048598
aI237056167
aS'-'
asS'TRAF3IP1'
p1848
(lp1849
I238320543
aI238400900
aS'+'
asS'D2HGDH'
p1850
(lp1851
I241734578
aI241768816
aS'+'
asS'RNASEH1-AS1'
p1852
(lp1853
I3558385
aI3561750
aS'+'
asS'MITD1'
p1854
(lp1855
I99169262
aI99181061
aS'-'
asS'LDAH'
p1856
(lp1857
I20684013
aI20823130
aS'-'
asS'EIF2AK3-DT'
p1858
(lp1859
I88627828
aI88631825
aS'+'
asS'FKBP7'
p1860
(lp1861
I178463663
aI178478628
aS'-'
asS'RHBDD1'
p1862
(lp1863
I226800158
aI226999207
aS'+'
asS'PAIP2B'
p1864
(lp1865
I71182737
aI71227103
aS'-'
asS'TSN'
p1866
(lp1867
I121755544
aI121767852
aS'+'
asS'RASGRP3'
p1868
(lp1869
I33436348
aI33564731
aS'+'
asS'MIR548F2'
p1870
(lp1871
I212426262
aI212426360
aS'-'
asS'MIR3132'
p1872
(lp1873
I219549072
aI219549147
aS'-'
asS'CCDC142'
p1874
(lp1875
I74472831
aI74483230
aS'-'
asS'MIR6810'
p1876
(lp1877
I218341910
aI218341980
aS'+'
asS'MIR6811'
p1878
(lp1879
I237510930
aI237510988
aS'+'
asS'BAZ2B'
p1880
(lp1881
I159318978
aI159616601
aS'-'
asS'SAP130'
p1882
(lp1883
I127941216
aI128028120
aS'-'
asS'PPP1R1C'
p1884
(lp1885
I181954240
aI182117756
aS'+'
asS'TANK'
p1886
(lp1887
I161136954
aI161236171
aS'+'
asS'CHCHD5'
p1888
(lp1889
I112584436
aI112589040
aS'+'
asS'LOC101928273'
p1890
(lp1891
I137878753
aI137927932
aS'-'
asS'LINC01793'
p1892
(lp1893
I59217707
aI59279400
aS'+'
asS'MIR4265'
p1894
(lp1895
I109141489
aI109141588
aS'-'
asS'UBXN2A'
p1896
(lp1897
I23940505
aI24000823
aS'+'
asS'ZNF512'
p1898
(lp1899
I27582968
aI27623215
aS'+'
asS'ZNF513'
p1900
(lp1901
I27377230
aI27380744
aS'-'
asS'DYNC2LI1'
p1902
(lp1903
I43774038
aI43828319
aS'+'
asS'HNMT'
p1904
(lp1905
I137964472
aI138016364
aS'+'
asS'ZNF514'
p1906
(lp1907
I95144999
aI95159585
aS'-'
asS'REG3A'
p1908
(lp1909
I79157005
aI79159754
aS'-'
asS'TSPYL6'
p1910
(lp1911
I54253177
aI54256272
aS'-'
asS'KCNK12'
p1912
(lp1913
I47520775
aI47570331
aS'-'
asS'MIR4765'
p1914
(lp1915
I32635254
aI32635331
aS'+'
asS'MSTN'
p1916
(lp1917
I190055699
aI190062729
aS'-'
asS'XIRP2'
p1918
(lp1919
I166888486
aI167259751
aS'+'
asS'PREPL'
p1920
(lp1921
I44317608
aI44361862
aS'-'
asS'LOC101927948'
p1922
(lp1923
I78088729
aI78127806
aS'+'
asS'FBXO36'
p1924
(lp1925
I229922502
aI230013119
aS'+'
asS'LOC100507334'
p1926
(lp1927
I110245637
aI110266558
aS'+'
asS'CNRIP1'
p1928
(lp1929
I68284170
aI68320051
aS'-'
asS'NAB1'
p1930
(lp1931
I190648894
aI190692766
aS'+'
asS'MBOAT2'
p1932
(lp1933
I8852689
aI9003750
aS'-'
asS'EFHD1'
p1934
(lp1935
I232606056
aI232682781
aS'+'
asS'TRIM43B'
p1936
(lp1937
I95476966
aI95484731
aS'-'
asS'REL'
p1938
(lp1939
I60881494
aI60928156
aS'+'
asS'HTRA2'
p1940
(lp1941
I74529404
aI74533556
aS'+'
asS'OXER1'
p1942
(lp1943
I42762498
aI42764261
aS'-'
asS'CYP1B1-AS1'
p1944
(lp1945
I38131104
aI38181851
aS'+'
asS'SMC6'
p1946
(lp1947
I17663811
aI17753829
aS'-'
asS'BIRC6'
p1948
(lp1949
I32357027
aI32618898
aS'+'
asS'LINC01280'
p1950
(lp1951
I216589992
aI216606938
aS'-'
asS'LONRF2'
p1952
(lp1953
I100273290
aI100322733
aS'-'
asS'LOC100507443'
p1954
(lp1955
I208119128
aI208156762
aS'+'
asS'DNAH7'
p1956
(lp1957
I195737702
aI196068812
aS'-'
asS'MIR4784'
p1958
(lp1959
I131491159
aI131491236
aS'-'
asS'LOC100506142'
p1960
(lp1961
I46568256
aI46580238
aS'-'
asS'MIR4786'
p1962
(lp1963
I239943014
aI239943094
aS'-'
asS'MIR4780'
p1964
(lp1965
I88082518
aI88082599
aS'-'
asS'ARID5A'
p1966
(lp1967
I96536718
aI96552638
aS'+'
asS'MIR4783'
p1968
(lp1969
I127423536
aI127423618
aS'-'
asS'LOC100129724'
p1970
(lp1971
I26984771
aI27014588
aS'-'
asS'SIX3-AS1'
p1972
(lp1973
I44940153
aI44941878
aS'-'
asS'ATAD2B'
p1974
(lp1975
I23748663
aI23927114
aS'-'
asS'PLGLA'
p1976
(lp1977
I106382113
aI106391395
aS'+'
asS'LINC01191'
p1978
(lp1979
I113979568
aI114028082
aS'+'
asS'LAPTM4A'
p1980
(lp1981
I20032649
aI20052028
aS'-'
asS'CAPN10-DT'
p1982
(lp1983
I240582749
aI240586316
aS'-'
asS'TTC7A'
p1984
(lp1985
I46916128
aI47076136
aS'+'
asS'AP1S3'
p1986
(lp1987
I223755329
aI223837602
aS'-'
asS'LINC00487'
p1988
(lp1989
I6729167
aI6770311
aS'-'
asS'LINC00486'
p1990
(lp1991
I32825432
aI32937203
aS'+'
asS'STEAP3-AS1'
p1992
(lp1993
I119244421
aI119249071
aS'-'
asS'CAD'
p1994
(lp1995
I27217389
aI27243792
aS'+'
asS'LINC01817'
p1996
(lp1997
I150234891
aI150257007
aS'-'
asS'MIR4438'
p1998
(lp1999
I213758066
aI213758159
aS'+'
asS'MIR4439'
p2000
(lp2001
I225010460
aI225010540
aS'-'
asS'MIR4437'
p2002
(lp2003
I181305592
aI181305652
aS'-'
asS'PDE1A'
p2004
(lp2005
I182140034
aI182522845
aS'-'
asS'DYNC1I2'
p2006
(lp2007
I171687408
aI171750158
aS'+'
asS'MIR4432'
p2008
(lp2009
I60387361
aI60387445
aS'-'
asS'MIR4430'
p2010
(lp2011
I33418515
aI33418564
aS'+'
asS'MIR4431'
p2012
(lp2013
I52702521
aI52702615
aS'-'
asS'CXCR2'
p2014
(lp2015
I218125289
aI218137253
aS'+'
asS'CXCR1'
p2016
(lp2017
I218162844
aI218166993
aS'-'
asS'POTEJ'
p2018
(lp2019
I130611532
aI130658037
aS'+'
asS'POTEI'
p2020
(lp2021
I130462815
aI130509235
aS'-'
asS'CXCR4'
p2022
(lp2023
I136114348
aI136118155
aS'-'
asS'POTEF'
p2024
(lp2025
I130073534
aI130129222
aS'-'
asS'POTEE'
p2026
(lp2027
I131218350
aI131264843
aS'+'
asS'PRKRA'
p2028
(lp2029
I178431413
aI178451240
aS'-'
asS'CBWD2'
p2030
(lp2031
I113437690
aI113496204
aS'+'
asS'COA5'
p2032
(lp2033
I98599322
aI98608518
aS'-'
asS'MREG'
p2034
(lp2035
I215942590
aI216013623
aS'-'
asS'IL37'
p2036
(lp2037
I112912970
aI112918881
aS'+'
asS'GPR45'
p2038
(lp2039
I105241742
aI105243467
aS'+'
asS'NRP2'
p2040
(lp2041
I205682499
aI205798133
aS'+'
asS'E2F6'
p2042
(lp2043
I11444374
aI11466177
aS'-'
asS'LOC101927960'
p2044
(lp2045
I208542641
aI208825587
aS'+'
asS'LOC101927967'
p2046
(lp2047
I77743695
aI78290731
aS'-'
asS'SPHKAP'
p2048
(lp2049
I227979953
aI228181645
aS'-'
asS'MGAT4A'
p2050
(lp2051
I98619105
aI98731132
aS'-'
asS'CHRNG'
p2052
(lp2053
I232539691
aI232548115
aS'+'
asS'CHRND'
p2054
(lp2055
I232526159
aI232536665
aS'+'
asS'LOC101927142'
p2056
(lp2057
I100972647
aI100977161
aS'-'
asS'BZW1'
p2058
(lp2059
I200811909
aI200827336
aS'+'
asS'ZDBF2'
p2060
(lp2061
I206274662
aI206314426
aS'+'
asS'MIR7845'
p2062
(lp2063
I207166399
aI207166498
aS'+'
asS'EVA1A'
p2064
(lp2065
I75492317
aI75569722
aS'-'
asS'LINC00954'
p2066
(lp2067
I19868853
aI19885047
aS'+'
asS'FBLN7'
p2068
(lp2069
I112138384
aI112188214
aS'+'
asS'WNT10A'
p2070
(lp2071
I218880532
aI218893929
aS'+'
asS'ARHGEF4'
p2072
(lp2073
I130916650
aI131047253
aS'+'
asS'PROKR1'
p2074
(lp2075
I68643587
aI68655576
aS'+'
asS'GMCL1'
p2076
(lp2077
I69829659
aI69881384
aS'+'
asS'IL36A'
p2078
(lp2079
I113005460
aI113008044
aS'+'
asS'IL36B'
p2080
(lp2081
I113022090
aI113052867
aS'-'
asS'ICOS'
p2082
(lp2083
I203936747
aI203961575
aS'+'
asS'IL36G'
p2084
(lp2085
I112978018
aI112985672
aS'+'
asS'CENPO'
p2086
(lp2087
I24793114
aI24822376
aS'+'
asS'DPP10'
p2088
(lp2089
I114442357
aI115845752
aS'+'
asS'HPCAL1'
p2090
(lp2091
I10302903
aI10427617
aS'+'
asS'MIR1471'
p2092
(lp2093
I231892241
aI231892298
aS'-'
asS'RAMP1'
p2094
(lp2095
I237859543
aI237912117
aS'+'
asS'MYO3B-AS1'
p2096
(lp2097
I170340516
aI170350943
aS'-'
asS'CENPA'
p2098
(lp2099
I26786014
aI26794587
aS'+'
asS'RPL23AP7'
p2100
(lp2101
I113611238
aI113627138
aS'-'
asS'WDCP'
p2102
(lp2103
I24029335
aI24047426
aS'-'
asS'PROM2'
p2104
(lp2105
I95274447
aI95291307
aS'+'
asS'LOC107985946'
p2106
(lp2107
I135740828
aI135743507
aS'-'
asS'NHEJ1'
p2108
(lp2109
I219075323
aI219160865
aS'-'
asS'LOC105373764'
p2110
(lp2111
I177673321
aI177723287
aS'+'
asS'PLEKHA3'
p2112
(lp2113
I178480471
aI178505055
aS'+'
asS'TRIB2'
p2114
(lp2115
I12716871
aI12742732
aS'+'
asS'LOC105373805'
p2116
(lp2117
I191021525
aI191032314
aS'+'
asS'FLJ46875'
p2118
(lp2119
I156336571
aI156342120
aS'-'
asS'FAHD2CP'
p2120
(lp2121
I96010550
aI96023136
aS'+'
asS'CSRNP3'
p2122
(lp2123
I165469646
aI165689407
aS'+'
asS'LINC01867'
p2124
(lp2125
I52370647
aI52390070
aS'+'
asS'IQCA1'
p2126
(lp2127
I236324146
aI236507535
aS'-'
asS'BUB1'
p2128
(lp2129
I110637697
aI110678107
aS'-'
asS'MIR26B'
p2130
(lp2131
I218402645
aI218402722
aS'+'
asS'UBE2E3'
p2132
(lp2133
I180980384
aI181063427
aS'+'
asS'SNORD70'
p2134
(lp2135
I202276430
aI202276518
aS'+'
asS'CNGA3'
p2136
(lp2137
I98346154
aI98398601
aS'+'
asS'MIR933'
p2138
(lp2139
I175167632
aI175167709
aS'-'
asS'MIR1301'
p2140
(lp2141
I25328639
aI25328721
aS'-'
asS'DNAH6'
p2142
(lp2143
I84516454
aI84819589
aS'+'
asS'MTHFD2'
p2144
(lp2145
I74198562
aI74215297
aS'+'
asS'RNF144A-AS1'
p2146
(lp2147
I6912275
aI6918682
aS'-'
asS'CERS6-AS1'
p2148
(lp2149
I168771950
aI168786429
aS'-'
asS'LOC401021'
p2150
(lp2151
I176136611
aI176140391
aS'+'
asS'HS6ST1'
p2152
(lp2153
I128265479
aI128318868
aS'-'
asS'DUSP19'
p2154
(lp2155
I183078558
aI183099994
aS'+'
asS'TMEM131'
p2156
(lp2157
I97756337
aI97995891
aS'-'
asS'LOC100287387'
p2158
(lp2159
I238844545
aI238847907
aS'-'
asS'GREB1'
p2160
(lp2161
I11534115
aI11642786
aS'+'
asS'CDKL4'
p2162
(lp2163
I39168044
aI39243983
aS'-'
asS'MIR4433B'
p2164
(lp2165
I64340746
aI64340848
aS'-'
asS'MIR4433A'
p2166
(lp2167
I64340758
aI64340839
aS'+'
asS'DLX2-DT'
p2168
(lp2169
I172103005
aI172109982
aS'+'
asS'DIS3L2'
p2170
(lp2171
I231961582
aI232343968
aS'+'
asS'RANBP2'
p2172
(lp2173
I108719480
aI108785811
aS'+'
asS'DPP10-AS1'
p2174
(lp2175
I115144047
aI115161343
aS'-'
asS'RNU6-2'
p2176
(lp2177
I174557965
aI174558072
aS'-'
asS'DPP10-AS3'
p2178
(lp2179
I114828340
aI114833548
aS'-'
asS'LOC284950'
p2180
(lp2181
I85815129
aI85826788
aS'+'
asS'LOC100287010'
p2182
(lp2183
I104378849
aI104408332
aS'-'
asS'AGAP1'
p2184
(lp2185
I235494088
aI236131800
aS'+'
asS'SATB2'
p2186
(lp2187
I199269499
aI199471266
aS'-'
asS'MERTK'
p2188
(lp2189
I111898613
aI112029368
aS'+'
asS'LOC101928881'
p2190
(lp2191
I233012613
aI233015885
aS'+'
asS'CNNM3'
p2192
(lp2193
I96816253
aI96835384
aS'+'
asS'CNNM4'
p2194
(lp2195
I96760901
aI96811873
aS'+'
asS'SPATA3-AS1'
p2196
(lp2197
I230984367
aI230996032
aS'-'
asS'FLJ31356'
p2198
(lp2199
I28384408
aI28394672
aS'-'
asS'RESP18'
p2200
(lp2201
I219327408
aI219333177
aS'-'
asS'SLC23A3'
p2202
(lp2203
I219161458
aI219170095
aS'-'
asS'SNTG2-AS1'
p2204
(lp2205
I949634
aI951392
aS'-'
asS'PARD3B'
p2206
(lp2207
I204545792
aI205620162
aS'+'
asS'CKAP2L'
p2208
(lp2209
I112736350
aI112764677
aS'-'
asS'SLC4A10'
p2210
(lp2211
I161624334
aI161985276
aS'+'
asS'DNAJC27-AS1'
p2212
(lp2213
I24972111
aI25039696
aS'+'
asS'MTERF4'
p2214
(lp2215
I241074393
aI241102332
aS'-'
asS'SLC5A6'
p2216
(lp2217
I27199586
aI27212307
aS'-'
asS'SLC5A7'
p2218
(lp2219
I107986513
aI108013987
aS'+'
asS'LINC01880'
p2220
(lp2221
I242047683
aI242084138
aS'-'
asS'NOP58'
p2222
(lp2223
I202265762
aI202303661
aS'+'
asS'SCN1A-AS1'
p2224
(lp2225
I166081530
aI166301783
aS'+'
asS'YWHAQ'
p2226
(lp2227
I9583966
aI9631055
aS'-'
asS'PCBP1-AS1'
p2228
(lp2229
I69962262
aI70087015
aS'-'
asS'RPE'
p2230
(lp2231
I210002564
aI210022260
aS'+'
asS'UCN'
p2232
(lp2233
I27307399
aI27308445
aS'-'
asS'MAT2A'
p2234
(lp2235
I85538977
aI85545280
aS'+'
asS'NR4A2'
p2236
(lp2237
I156324431
aI156332775
aS'-'
asS'MGAT5'
p2238
(lp2239
I134254258
aI134454621
aS'+'
asS'TUBA4A'
p2240
(lp2241
I219249710
aI219254608
aS'-'
asS'TUBA4B'
p2242
(lp2243
I219253242
aI219272197
aS'+'
asS'CHST10'
p2244
(lp2245
I100391859
aI100417668
aS'-'
asS'SLC20A1'
p2246
(lp2247
I112645856
aI112663823
aS'+'
asS'VAMP5'
p2248
(lp2249
I85584407
aI85593388
aS'+'
asS'ABI2'
p2250
(lp2251
I203328238
aI203432173
aS'+'
asS'VAMP8'
p2252
(lp2253
I85577490
aI85582033
aS'+'
asS'MIR4441'
p2254
(lp2255
I239085826
aI239085926
aS'-'
asS'FEZ2'
p2256
(lp2257
I36552260
aI36598189
aS'-'
asS'ROCK2'
p2258
(lp2259
I11179758
aI11345407
aS'-'
asS'LOC150935'
p2260
(lp2261
I239762859
aI239800662
aS'+'
asS'BOLA3'
p2262
(lp2263
I74135399
aI74147912
aS'-'
asS'IMMT'
p2264
(lp2265
I86143931
aI86195770
aS'-'
asS'NDUFB3'
p2266
(lp2267
I201071738
aI201085751
aS'+'
asS'GPR39'
p2268
(lp2269
I132416804
aI132646582
aS'+'
asS'CHN1'
p2270
(lp2271
I174799313
aI175005379
aS'-'
asS'LINC01946'
p2272
(lp2273
I31793820
aI31803980
aS'-'
asS'LINC01945'
p2274
(lp2275
I131983785
aI132037900
aS'-'
asS'CCNT2'
p2276
(lp2277
I134918821
aI134959345
aS'+'
asS'GPR35'
p2278
(lp2279
I240605407
aI240631259
aS'+'
asS'LINC01941'
p2280
(lp2281
I126110099
aI126117985
aS'-'
asS'LINC01940'
p2282
(lp2283
I238919301
aI238926269
aS'-'
asS'PRKRA-AS1'
p2284
(lp2285
I178413658
aI178440243
aS'+'
asS'FMNL2'
p2286
(lp2287
I152335236
aI152649834
aS'+'
asS'DARS-AS1'
p2288
(lp2289
I135985175
aI136007542
aS'+'
asS'MAPRE3'
p2290
(lp2291
I26970370
aI27027219
aS'+'
asS'ANKRD44'
p2292
(lp2293
I196986661
aI197310797
aS'-'
asS'AUP1'
p2294
(lp2295
I74526647
aI74529897
aS'-'
asS'VRK2'
p2296
(lp2297
I57907650
aI58159920
aS'+'
asS'LOC105373352'
p2298
(lp2299
I558200
aI562092
aS'+'
asS'USP39'
p2300
(lp2301
I85602841
aI85649284
aS'+'
asS'LINC01117'
p2302
(lp2303
I176637753
aI176655958
aS'+'
asS'SCARNA6'
p2304
(lp2305
I233288675
aI233288941
aS'+'
asS'SCARNA5'
p2306
(lp2307
I233275725
aI233276003
aS'+'
asS'USP34'
p2308
(lp2309
I61187454
aI61470714
aS'-'
asS'USP37'
p2310
(lp2311
I218450250
aI218568361
aS'-'
asS'LOC102724058'
p2312
(lp2313
I165957417
aI166036400
aS'+'
asS'MORN2'
p2314
(lp2315
I38875961
aI38882709
aS'+'
asS'RNF181'
p2316
(lp2317
I85595713
aI85597708
aS'+'
asS'TCF7L1'
p2318
(lp2319
I85133391
aI85310387
aS'+'
asS'BMPR2'
p2320
(lp2321
I202376326
aI202567751
aS'+'
asS'LOC105373759'
p2322
(lp2323
I177211394
aI177212411
aS'-'
asS'ATRAID'
p2324
(lp2325
I27212030
aI27217178
aS'+'
asS'UNC80'
p2326
(lp2327
I209771992
aI209999300
aS'+'
asS'LOC107985939'
p2328
(lp2329
I117833730
aI117841656
aS'+'
asS'MIR4432HG'
p2330
(lp2331
I60359215
aI60391375
aS'-'
asS'MIR2467'
p2332
(lp2333
I239351723
aI239351804
aS'-'
asS'XRCC5'
p2334
(lp2335
I216109347
aI216206293
aS'+'
asS'SEPT2'
p2336
(lp2337
I241315186
aI241354026
aS'+'
asS'KANSL3'
p2338
(lp2339
I96593154
aI96638379
aS'-'
asS'UBE2F-SCLY'
p2340
(lp2341
I237966944
aI238099413
aS'+'
asS'TNRC17'
p2342
(lp2343
I235513739
aI235517921
aS'-'
asS'SLC9A2'
p2344
(lp2345
I102619533
aI102711350
aS'+'
asS'SUPT7L'
p2346
(lp2347
I27650809
aI27663840
aS'-'
asS'MEIS1'
p2348
(lp2349
I66435124
aI66573869
aS'+'
asS'PLEKHB2'
p2350
(lp2351
I131104846
aI131149852
aS'+'
asS'LOC102724691'
p2352
(lp2353
I104936240
aI105038496
aS'-'
asS'CDK5R2'
p2354
(lp2355
I218959627
aI218962155
aS'+'
asS'TM4SF20'
p2356
(lp2357
I227362037
aI227379306
aS'-'
asS'CTLA4'
p2358
(lp2359
I203867770
aI203873965
aS'+'
asS'FAM98A'
p2360
(lp2361
I33583660
aI33599362
aS'-'
asS'ARHGEF33'
p2362
(lp2363
I38919362
aI38975449
aS'+'
asS'DIRC3-AS1'
p2364
(lp2365
I217282732
aI217344204
aS'+'
asS'EHBP1'
p2366
(lp2367
I62673850
aI63046486
aS'+'
asS'DNAJC5G'
p2368
(lp2369
I27275420
aI27281431
aS'+'
asS'ESPNL'
p2370
(lp2371
I238100309
aI238133287
aS'+'
asS'REV1'
p2372
(lp2373
I99400474
aI99490056
aS'-'
asS'SH3YL1'
p2374
(lp2375
I218135
aI264866
aS'-'
asS'GAREM2'
p2376
(lp2377
I26173087
aI26189663
aS'+'
asS'SNORD89'
p2378
(lp2379
I101272935
aI101273049
aS'-'
asS'ITPRID2'
p2380
(lp2381
I181891715
aI181930737
aS'+'
asS'SNORD82'
p2382
(lp2383
I231460367
aI231460442
aS'-'
asS'FHL2'
p2384
(lp2385
I105360825
aI105438773
aS'-'
asS'LOC440895'
p2386
(lp2387
I110402918
aI110423816
aS'-'
asS'PUS10'
p2388
(lp2389
I60940412
aI61018259
aS'-'
asS'UGGT1'
p2390
(lp2391
I128091179
aI128195675
aS'+'
asS'ITPRIPL1'
p2392
(lp2393
I96325323
aI96328353
aS'+'
asS'CATIP-AS1'
p2394
(lp2395
I218366664
aI218367902
aS'-'
asS'CATIP-AS2'
p2396
(lp2397
I218326240
aI218357966
aS'-'
asS'NT5DC4'
p2398
(lp2399
I112721485
aI112742877
aS'+'
asS'MEMO1'
p2400
(lp2401
I31867809
aI32011052
aS'-'
asS'LOC101929231'
p2402
(lp2403
I149587357
aI149848234
aS'+'
asS'CAPN14'
p2404
(lp2405
I31173055
aI31233957
aS'-'
asS'CAPN13'
p2406
(lp2407
I30722770
aI30807445
aS'-'
asS'ATL2'
p2408
(lp2409
I38293956
aI38378584
aS'-'
asS'PREB'
p2410
(lp2411
I27130755
aI27134675
aS'-'
asS'MIR9500'
p2412
(lp2413
I218823089
aI218823154
aS'+'
asS'PPIG'
p2414
(lp2415
I169584339
aI169637744
aS'+'
asS'HIBCH'
p2416
(lp2417
I190204633
aI190320045
aS'-'
asS'CCDC85A'
p2418
(lp2419
I56184122
aI56386174
aS'+'
asS'LOC729968'
p2420
(lp2421
I227616990
aI227618655
aS'-'
asS'DYTN'
p2422
(lp2423
I206651620
aI206718396
aS'-'
asS'REG1CP'
p2424
(lp2425
I79135502
aI79138427
aS'-'
asS'MDH1'
p2426
(lp2427
I63588608
aI63607196
aS'+'
asS'THUMPD2'
p2428
(lp2429
I39736059
aI39779276
aS'-'
asS'FAM171B'
p2430
(lp2431
I186694061
aI186763785
aS'+'
asS'MAP4K3-DT'
p2432
(lp2433
I39437415
aI39601344
aS'+'
asS'FAP'
p2434
(lp2435
I162170683
aI162243557
aS'-'
asS'NPAS2'
p2436
(lp2437
I100820150
aI100996825
aS'+'
asS'AHSA2P'
p2438
(lp2439
I61177417
aI61188925
aS'+'
asS'ANKRD30BL'
p2440
(lp2441
I132147590
aI132257969
aS'-'
asS'PHOSPHO2'
p2442
(lp2443
I169694453
aI169701708
aS'+'
asS'KCNS3'
p2444
(lp2445
I17877846
aI17932958
aS'+'
asS'ECEL1'
p2446
(lp2447
I232479826
aI232487859
aS'-'
asS'NBAS'
p2448
(lp2449
I15166907
aI15561348
aS'-'
asS'WDR33'
p2450
(lp2451
I127704233
aI127811187
aS'-'
asS'REG1B'
p2452
(lp2453
I79085022
aI79088024
aS'-'
asS'OSR1'
p2454
(lp2455
I19351484
aI19358611
aS'-'
asS'NIF3L1'
p2456
(lp2457
I200889326
aI200903932
aS'+'
asS'ZNF804A'
p2458
(lp2459
I184598365
aI184939487
aS'+'
asS'TMBIM1'
p2460
(lp2461
I218274191
aI218292577
aS'-'
asS'UPP2'
p2462
(lp2463
I157995178
aI158136154
aS'+'
asS'LINC02579'
p2464
(lp2465
I64607311
aI64616482
aS'+'
asS'MIR7515HG'
p2466
(lp2467
I6649106
aI6650519
aS'-'
asS'LINC02572'
p2468
(lp2469
I129860212
aI129877491
aS'-'
asS'CASP8'
p2470
(lp2471
I201233442
aI201287711
aS'+'
asS'LINC01173'
p2472
(lp2473
I234682667
aI234717764
aS'+'
asS'DARS'
p2474
(lp2475
I135905880
aI135985684
aS'-'
asS'HS1BP3-IT1'
p2476
(lp2477
I20590774
aI20592548
aS'-'
asS'MIR3679'
p2478
(lp2479
I134127124
aI134127192
aS'+'
asS'GPR75-ASB3'
p2480
(lp2481
I53670315
aI53860033
aS'-'
asS'ACP1'
p2482
(lp2483
I264868
aI278282
aS'+'
asS'KLHL23'
p2484
(lp2485
I169733831
aI169751878
aS'+'
asS'CYBRD1'
p2486
(lp2487
I171522246
aI171558133
aS'+'
asS'NCKAP5-AS1'
p2488
(lp2489
I132915556
aI132931494
aS'+'
asS'SEPT10'
p2490
(lp2491
I109542796
aI109614206
aS'-'
asS'STK11IP'
p2492
(lp2493
I219597856
aI219616451
aS'+'
asS'NCKAP5-AS2'
p2494
(lp2495
I133266194
aI133284758
aS'+'
asS'LINC01953'
p2496
(lp2497
I213155815
aI213167710
aS'-'
asS'LINC01954'
p2498
(lp2499
I10878266
aI10885118
aS'+'
asS'LOC101927987'
p2500
(lp2501
I79493715
aI79500844
aS'-'
asS'PXDN'
p2502
(lp2503
I1631886
aI1744547
aS'-'
asS'ANKRD53'
p2504
(lp2505
I70978444
aI70985499
aS'+'
asS'HAGLROS'
p2506
(lp2507
I176178165
aI176179009
aS'+'
asS'DES'
p2508
(lp2509
I219418376
aI219426739
aS'+'
asS'LY75-CD302'
p2510
(lp2511
I159768627
aI159904756
aS'-'
asS'LOC730100'
p2512
(lp2513
I51032600
aI52407917
aS'+'
asS'LYG1'
p2514
(lp2515
I99284237
aI99301176
aS'-'
asS'LYG2'
p2516
(lp2517
I99242247
aI99255107
aS'-'
asS'ASXL2'
p2518
(lp2519
I25733752
aI25878516
aS'-'
asS'LINC01249'
p2520
(lp2521
I4628217
aI4656222
aS'-'
asS'LANCL1'
p2522
(lp2523
I210431248
aI210476775
aS'-'
asS'PCBP1'
p2524
(lp2525
I70087452
aI70089202
aS'+'
asS'C1QL2'
p2526
(lp2527
I119156242
aI119158895
aS'-'
asS'FAM133DP'
p2528
(lp2529
I157378490
aI157380509
aS'-'
asS'KLHL30'
p2530
(lp2531
I238138667
aI238152945
aS'+'
asS'EFEMP1'
p2532
(lp2533
I55865961
aI55924163
aS'-'
asS'LOC105373782'
p2534
(lp2535
I185164953
aI185167072
aS'-'
asS'PLEK'
p2536
(lp2537
I68365189
aI68397453
aS'+'
asS'TRIM43'
p2538
(lp2539
I95592017
aI95599771
aS'+'
asS'TMEFF2'
p2540
(lp2541
I191949045
aI192194933
aS'-'
asS'SCN3A'
p2542
(lp2543
I165087519
aI165204067
aS'-'
asS'HECW2'
p2544
(lp2545
I196194369
aI196593692
aS'-'
asS'SCTR'
p2546
(lp2547
I119439842
aI119524452
aS'-'
asS'SCN7A'
p2548
(lp2549
I166403572
aI166486971
aS'-'
asS'ERMN'
p2550
(lp2551
I157318612
aI157327713
aS'-'
asS'MIR1258'
p2552
(lp2553
I179860835
aI179860908
aS'-'
asS'STAMBP'
p2554
(lp2555
I73828910
aI73873661
aS'+'
asS'NEB'
p2556
(lp2557
I151485338
aI151734487
aS'-'
asS'MAP3K20-AS1'
p2558
(lp2559
I173197712
aI173282036
aS'-'
asS'GAD1'
p2560
(lp2561
I170816886
aI170861149
aS'+'
asS'TBC1D8'
p2562
(lp2563
I101007227
aI101151447
aS'-'
asS'LOC107985856'
p2564
(lp2565
I20478624
aI20501524
aS'-'
asS'GPR148'
p2566
(lp2567
I130729069
aI130730336
aS'+'
asS'TRAK2'
p2568
(lp2569
I201377206
aI201451596
aS'-'
asS'MGC16025'
p2570
(lp2571
I239193330
aI239195457
aS'-'
asS'MIR1285-2'
p2572
(lp2573
I70252917
aI70253005
aS'-'
asS'ICA1L'
p2574
(lp2575
I202773149
aI202871985
aS'-'
asS'LOC102724849'
p2576
(lp2577
I215453706
aI215463868
aS'+'
asS'DTNB'
p2578
(lp2579
I25377242
aI25673674
aS'-'
asS'POMC'
p2580
(lp2581
I25160852
aI25168851
aS'-'
asS'SNORD94'
p2582
(lp2583
I86135869
aI86136006
aS'+'
asS'KIAA2012'
p2584
(lp2585
I202073252
aI202205201
aS'+'
asS'SNORD92'
p2586
(lp2587
I28913661
aI28913750
aS'+'
asS'CAMKMT'
p2588
(lp2589
I44361903
aI44772592
aS'+'
asS'DBIL5P2'
p2590
(lp2591
I63117850
aI63119542
aS'-'
asS'RNF144A'
p2592
(lp2593
I6917417
aI7076353
aS'+'
asS'STEAP3'
p2594
(lp2595
I119223807
aI119265651
aS'+'
asS'MIR4440'
p2596
(lp2597
I239068816
aI239068914
aS'-'
asS'CERKL'
p2598
(lp2599
I181536673
aI181657107
aS'-'
asS'BCL11A'
p2600
(lp2601
I60451166
aI60553498
aS'-'
asS'LOC100286922'
p2602
(lp2603
I233754315
aI233755345
aS'-'
asS'DCAF17'
p2604
(lp2605
I171434225
aI171485052
aS'+'
asS'RRM2'
p2606
(lp2607
I10122567
aI10131419
aS'+'
asS'RIF1'
p2608
(lp2609
I151409882
aI151477346
aS'+'
asS'LOC100507006'
p2610
(lp2611
I64228400
aI64252531
aS'+'
asS'C2orf27A'
p2612
(lp2613
I131682426
aI131767404
aS'+'
asS'GRHL1'
p2614
(lp2615
I9951662
aI10002284
aS'+'
asS'SLC8A1-AS1'
p2616
(lp2617
I39917633
aI40255209
aS'+'
asS'C2orf27B'
p2618
(lp2619
I131794960
aI131801661
aS'-'
asS'KCNJ13'
p2620
(lp2621
I232765801
aI232776565
aS'-'
asS'IL18R1'
p2622
(lp2623
I102356282
aI102398775
aS'+'
asS'LOC101927709'
p2624
(lp2625
I118599782
aI118602966
aS'-'
asS'KIAA1211L'
p2626
(lp2627
I98793845
aI98936225
aS'-'
asS'CYP20A1'
p2628
(lp2629
I203238440
aI203305840
aS'+'
asS'MIR4771-1'
p2630
(lp2631
I87194785
aI87194859
aS'+'
asS'NAGK'
p2632
(lp2633
I71068647
aI71079770
aS'+'
asS'MIR4771-2'
p2634
(lp2635
I87194785
aI87194859
aS'+'
asS'RNU4ATAC'
p2636
(lp2637
I121530879
aI121531009
aS'+'
asS'SLC40A1'
p2638
(lp2639
I189560589
aI189580811
aS'-'
asS'FAM138B'
p2640
(lp2641
I113577381
aI113578852
aS'+'
asS'WDSUB1'
p2642
(lp2643
I159235792
aI159286799
aS'-'
asS'SNORD70B'
p2644
(lp2645
I202278112
aI202278187
aS'+'
asS'LOC440910'
p2646
(lp2647
I131279289
aI131299819
aS'+'
asS'NOTO'
p2648
(lp2649
I73202257
aI73211212
aS'+'
asS'LOC285191'
p2650
(lp2651
I240686333
aI240689122
aS'+'
asS'MYO7B'
p2652
(lp2653
I127535801
aI127637728
aS'+'
asS'PGAP1'
p2654
(lp2655
I196833003
aI196926731
aS'-'
asS'CPO'
p2656
(lp2657
I206939553
aI206969474
aS'+'
asS'OTX1'
p2658
(lp2659
I63050056
aI63057831
aS'+'
asS'STK16'
p2660
(lp2661
I219245454
aI219250337
aS'+'
asS'GPAT2'
p2662
(lp2663
I96021945
aI96035974
aS'-'
asS'FAM201B'
p2664
(lp2665
I132352666
aI132354283
aS'+'
asS'MIR4269'
p2666
(lp2667
I239305461
aI239305545
aS'+'
asS'MIR1302-3'
p2668
(lp2669
I113582958
aI113583096
aS'-'
asS'MIR1302-4'
p2670
(lp2671
I207269274
aI207269424
aS'-'
asS'MIR4263'
p2672
(lp2673
I27996366
aI27996449
aS'+'
asS'MIR4262'
p2674
(lp2675
I11836932
aI11836986
aS'-'
asS'MIR4261'
p2676
(lp2677
I10192613
aI10192671
aS'-'
asS'MIR4267'
p2678
(lp2679
I110069960
aI110070042
aS'-'
asS'MIR4266'
p2680
(lp2681
I109313570
aI109313625
aS'-'
asS'PPP4R3B'
p2682
(lp2683
I55547291
aI55617725
aS'-'
asS'MIR4264'
p2684
(lp2685
I79649293
aI79649359
aS'-'
asS'LINC01494'
p2686
(lp2687
I218900814
aI218930637
aS'-'
asS'LINC01143'
p2688
(lp2689
I70887870
aI70889984
aS'+'
asS'HDAC4-AS1'
p2690
(lp2691
I239401435
aI239402357
aS'+'
asS'LOC101929570'
p2692
(lp2693
I162768935
aI162797972
aS'+'
asS'LINC01810'
p2694
(lp2695
I5810635
aI5812596
aS'-'
asS'LINC01813'
p2696
(lp2697
I56074653
aI56090382
aS'-'
asS'LINC01812'
p2698
(lp2699
I67796053
aI67825562
aS'-'
asS'LINC01815'
p2700
(lp2701
I81461358
aI81466946
aS'-'
asS'LINC01814'
p2702
(lp2703
I8559832
aI8583792
aS'-'
asS'DYSF'
p2704
(lp2705
I71453622
aI71686763
aS'+'
asS'LINC01816'
p2706
(lp2707
I70124035
aI70125316
aS'-'
asS'LINC01819'
p2708
(lp2709
I43027852
aI43039543
aS'-'
asS'RNASEH1'
p2710
(lp2711
I3531812
aI3558371
aS'-'
asS'ITGA6-AS1'
p2712
(lp2713
I172464262
aI172466022
aS'-'
asS'ALMS1P1'
p2714
(lp2715
I73644918
aI73685567
aS'+'
asS'IWS1'
p2716
(lp2717
I127480806
aI127526511
aS'-'
asS'GYPC'
p2718
(lp2719
I126655934
aI126696675
aS'+'
asS'LOC100129434'
p2720
(lp2721
I56173533
aI56185770
aS'-'
asS'GRB14'
p2722
(lp2723
I164492812
aI164621850
aS'-'
asS'LOC101926913'
p2724
(lp2725
I170700367
aI170770766
aS'-'
asS'NYAP2'
p2726
(lp2727
I225400885
aI225654018
aS'+'
asS'GPR17'
p2728
(lp2729
I127645863
aI127652639
aS'+'
asS'LOC105747689'
p2730
(lp2731
I191690180
aI191710469
aS'+'
asS'ACVR1C'
p2732
(lp2733
I157526766
aI157628887
aS'-'
asS'RAB6D'
p2734
(lp2735
I131360491
aI131364158
aS'-'
asS'LOC150776'
p2736
(lp2737
I131492812
aI131521576
aS'+'
asS'RPS27A'
p2738
(lp2739
I55231902
aI55235853
aS'+'
asS'RAB6C'
p2740
(lp2741
I129979661
aI129982738
aS'+'
asS'PUM2'
p2742
(lp2743
I20248690
aI20352428
aS'-'
asS'SFXN5'
p2744
(lp2745
I72942035
aI73071836
aS'-'
asS'LINC01921'
p2746
(lp2747
I216870771
aI216871639
aS'+'
asS'LINC01920'
p2748
(lp2749
I150552531
aI150572221
aS'-'
asS'LINC01923'
p2750
(lp2751
I198299362
aI198375097
aS'-'
asS'CRIPT'
p2752
(lp2753
I46617171
aI46630176
aS'+'
asS'TTN-AS1'
p2754
(lp2755
I178523190
aI178620217
aS'+'
asS'SERPINE2'
p2756
(lp2757
I223975047
aI224039319
aS'-'
asS'ETAA1'
p2758
(lp2759
I67397309
aI67410401
aS'+'
asS'SOX11'
p2760
(lp2761
I5692666
aI5701385
aS'+'
asS'CCT7'
p2762
(lp2763
I73234235
aI73253022
aS'+'
asS'CCT4'
p2764
(lp2765
I61868126
aI61888671
aS'-'
asS'LOC101927402'
p2766
(lp2767
I64522188
aI64524155
aS'-'
asS'HEATR5B'
p2768
(lp2769
I36981000
aI37084345
aS'-'
asS'INSIG2'
p2770
(lp2771
I118088417
aI118110031
aS'+'
asS'ARL5A'
p2772
(lp2773
I151800965
aI151828495
aS'-'
asS'ZC3H8'
p2774
(lp2775
I112211529
aI112255042
aS'-'
asS'CDC42EP3'
p2776
(lp2777
I37641881
aI37672535
aS'-'
asS'ZC3H6'
p2778
(lp2779
I112275600
aI112340063
aS'+'
asS'WDR35'
p2780
(lp2781
I19910265
aI19990123
aS'-'
asS'MTLN'
p2782
(lp2783
I110211525
aI110245420
aS'-'
asS'PDE6D'
p2784
(lp2785
I231732424
aI231781327
aS'-'
asS'WDPCP'
p2786
(lp2787
I63119558
aI63588799
aS'-'
asS'HES6'
p2788
(lp2789
I238238266
aI238240124
aS'-'
asS'GIGYF2'
p2790
(lp2791
I232697304
aI232860577
aS'+'
asS'KLHL29'
p2792
(lp2793
I23385426
aI23708613
aS'+'
asS'SLC4A5'
p2794
(lp2795
I74216241
aI74343407
aS'-'
asS'SLC4A3'
p2796
(lp2797
I219627569
aI219641980
aS'+'
asS'TRIM54'
p2798
(lp2799
I27282428
aI27307439
aS'+'
asS'DCTN1'
p2800
(lp2801
I74361153
aI74392087
aS'-'
asS'KCMF1'
p2802
(lp2803
I84971107
aI85059472
aS'+'
asS'ANKRD44-IT1'
p2804
(lp2805
I197250857
aI197302519
aS'-'
asS'C2orf16'
p2806
(lp2807
I27576521
aI27582722
aS'+'
asS'RAD51AP2'
p2808
(lp2809
I17510583
aI17530414
aS'-'
asS'C2orf15'
p2810
(lp2811
I99141612
aI99151465
aS'+'
asS'TFPI'
p2812
(lp2813
I187464230
aI187554505
aS'-'
asS'PGM5P4-AS1'
p2814
(lp2815
I113528646
aI113542690
aS'-'
asS'NAT8'
p2816
(lp2817
I73640722
aI73642410
aS'-'
asS'SPATS2L'
p2818
(lp2819
I200305880
aI200482263
aS'+'
asS'MIR1246'
p2820
(lp2821
I176600979
aI176601052
aS'-'
asS'LOC375196'
p2822
(lp2823
I38959287
aI38960344
aS'-'
asS'PLCL1'
p2824
(lp2825
I197804701
aI198149884
aS'+'
asS'CCNYL1'
p2826
(lp2827
I207711539
aI207756172
aS'+'
asS'RNF25'
p2828
(lp2829
I218663891
aI218672002
aS'-'
asS'NT5C1B-RDH14'
p2830
(lp2831
I18554722
aI18589580
aS'-'
asS'TAF1B'
p2832
(lp2833
I9843441
aI9934416
aS'+'
asS'ALK'
p2834
(lp2835
I29192773
aI29921611
aS'-'
asS'GPR155'
p2836
(lp2837
I174431571
aI174487088
aS'-'
asS'ATP6V1E2'
p2838
(lp2839
I46511834
aI46542557
aS'-'
asS'KRTCAP3'
p2840
(lp2841
I27442365
aI27446481
aS'+'
asS'NBEAL1'
p2842
(lp2843
I203014878
aI203217994
aS'+'
asS'COX5B'
p2844
(lp2845
I97646057
aI97648194
aS'+'
asS'PSMD1'
p2846
(lp2847
I231056863
aI231172826
aS'+'
asS'HOXD13'
p2848
(lp2849
I176092803
aI176095938
aS'+'
asS'RTP5'
p2850
(lp2851
I241869733
aI241873330
aS'+'
asS'PGM5P4'
p2852
(lp2853
I113539513
aI113568938
aS'+'
asS'MOB1A'
p2854
(lp2855
I74152597
aI74178967
aS'-'
asS'CPSF3'
p2856
(lp2857
I9423536
aI9473110
aS'+'
asS'MAB21L4'
p2858
(lp2859
I240886047
aI240896156
aS'-'
asS'CYS1'
p2860
(lp2861
I10056798
aI10080411
aS'-'
asS'CNOT9'
p2862
(lp2863
I218568579
aI218596435
aS'+'
asS'TTLL4'
p2864
(lp2865
I218710844
aI218755415
aS'+'
asS'LTBP1'
p2866
(lp2867
I32946952
aI33399508
aS'+'
asS'ITGB6'
p2868
(lp2869
I160099665
aI160200313
aS'-'
asS'RTN4'
p2870
(lp2871
I54972190
aI55137831
aS'-'
asS'DDX11L2'
p2872
(lp2873
I113599027
aI113603717
aS'-'
asS'HOXD1'
p2874
(lp2875
I176188667
aI176190907
aS'+'
asS'MCFD2'
p2876
(lp2877
I46901869
aI46941855
aS'-'
asS'COPS7B'
p2878
(lp2879
I231781670
aI231809253
aS'+'
asS'SLC35F5'
p2880
(lp2881
I113706720
aI113756823
aS'-'
asS'MYOSLID'
p2882
(lp2883
I207239810
aI207245887
aS'+'
asS'NMUR1'
p2884
(lp2885
I231523159
aI231530471
aS'-'
asS'SLC35F6'
p2886
(lp2887
I26764273
aI26781231
aS'+'
asS'NCK2'
p2888
(lp2889
I105744911
aI105894272
aS'+'
asS'H3F3AP4'
p2890
(lp2891
I174719799
aI174720841
aS'+'
asS'MYOSLID-AS1'
p2892
(lp2893
I207186689
aI207254316
aS'-'
asS'RNU6-1'
p2894
(lp2895
I174557966
aI174558072
aS'-'
asS'MBD5'
p2896
(lp2897
I148021010
aI148513475
aS'+'
asS'FAM228B'
p2898
(lp2899
I24076873
aI24169638
aS'+'
asS'FAM228A'
p2900
(lp2901
I24175042
aI24191698
aS'+'
asS'FAM126B'
p2902
(lp2903
I200973717
aI201071671
aS'-'
asS'MLPH'
p2904
(lp2905
I237486409
aI237555318
aS'+'
asS'IL1RL1'
p2906
(lp2907
I102311501
aI102352037
aS'+'
asS'IL1RL2'
p2908
(lp2909
I102186972
aI102240001
aS'+'
asS'PKP4'
p2910
(lp2911
I158456879
aI158681428
aS'+'
asS'ECEL1P2'
p2912
(lp2913
I232385749
aI232387044
aS'-'
asS'SLC25A12'
p2914
(lp2915
I171783404
aI171894306
aS'-'
asS'TUBA3E'
p2916
(lp2917
I130191744
aI130198461
aS'-'
asS'TUBA3D'
p2918
(lp2919
I131476006
aI131482934
aS'+'
asS'NFE2L2'
p2920
(lp2921
I177230302
aI177265131
aS'-'
asS'CFAP65'
p2922
(lp2923
I219002845
aI219041551
aS'-'
asS'LINC00471'
p2924
(lp2925
I231508425
aI231514339
aS'-'
asS'NDUFA10'
p2926
(lp2927
I239892450
aI240025402
aS'-'
asS'LBH'
p2928
(lp2929
I30231530
aI30260033
aS'+'
asS'IMP4'
p2930
(lp2931
I130342224
aI130347961
aS'+'
asS'ASNSD1'
p2932
(lp2933
I189661398
aI189670831
aS'+'
asS'TEX261'
p2934
(lp2935
I70985937
aI70994871
aS'-'
asS'RBM43'
p2936
(lp2937
I151248213
aI151261875
aS'-'
asS'STK17B'
p2938
(lp2939
I196133582
aI196171612
aS'-'
asS'RBM45'
p2940
(lp2941
I178112423
aI178129655
aS'+'
asS'LINC01159'
p2942
(lp2943
I104865496
aI104872595
aS'-'
asS'IAH1'
p2944
(lp2945
I9474528
aI9488624
aS'+'
asS'ADCY3'
p2946
(lp2947
I24819169
aI24920017
aS'-'
asS'VIT'
p2948
(lp2949
I36696689
aI36814794
aS'+'
asS'YIPF4'
p2950
(lp2951
I32277903
aI32316594
aS'+'
asS'LINC01802'
p2952
(lp2953
I207260444
aI207271064
aS'+'
asS'LINC01803'
p2954
(lp2955
I219904050
aI219904889
aS'-'
asS'LINC01800'
p2956
(lp2957
I64846129
aI64863631
aS'-'
asS'KIF5C'
p2958
(lp2959
I148875222
aI149026759
aS'+'
asS'LINC01806'
p2960
(lp2961
I161244738
aI161249050
aS'+'
asS'LINC01807'
p2962
(lp2963
I228483262
aI228611395
aS'-'
asS'LINC01804'
p2964
(lp2965
I15690781
aI15718961
aS'+'
asS'LINC01805'
p2966
(lp2967
I64486352
aI64500904
aS'+'
asS'LINC01809'
p2968
(lp2969
I83522813
aI83523481
aS'+'
asS'VWC2L'
p2970
(lp2971
I214411053
aI214578975
aS'+'
asS'ARL4C'
p2972
(lp2973
I234493040
aI234497053
aS'-'
asS'LINC00607'
p2974
(lp2975
I215611562
aI215843536
aS'-'
asS'CCDC121'
p2976
(lp2977
I27625638
aI27629031
aS'-'
asS'SLC11A1'
p2978
(lp2979
I218382028
aI218396894
aS'+'
asS'LINC00608'
p2980
(lp2981
I218976283
aI218977922
aS'+'
asS'STK25'
p2982
(lp2983
I241494706
aI241509572
aS'-'
asS'GCC2'
p2984
(lp2985
I108449120
aI108509398
aS'+'
asS'LOC105373876'
p2986
(lp2987
I216866331
aI216867809
aS'-'
asS'LOC105373878'
p2988
(lp2989
I217978706
aI217992615
aS'+'
asS'CNPPD1'
p2990
(lp2991
I219171896
aI219178174
aS'-'
asS'SNORA70B'
p2992
(lp2993
I61417243
aI61417377
aS'-'
asS'SNORA70F'
p2994
(lp2995
I164687642
aI164687777
aS'-'
asS'FIGN'
p2996
(lp2997
I163602615
aI163736008
aS'-'
asS'SNORA70I'
p2998
(lp2999
I214846946
aI214847081
aS'+'
asS'CNOT11'
p3000
(lp3001
I101252882
aI101270316
aS'+'
asS'LINC01936'
p3002
(lp3003
I30346645
aI30350158
aS'+'
asS'SMYD5'
p3004
(lp3005
I73214237
aI73227227
aS'+'
asS'LINC01934'
p3006
(lp3007
I181123836
aI181399553
aS'+'
asS'LINC01935'
p3008
(lp3009
I102967408
aI102984429
aS'-'
asS'SMYD1'
p3010
(lp3011
I88067779
aI88113383
aS'+'
asS'LINC01931'
p3012
(lp3013
I149767505
aI149859191
aS'-'
asS'GALNT5'
p3014
(lp3015
I157257597
aI157318489
aS'+'
asS'LINC01939'
p3016
(lp3017
I900215
aI905451
aS'-'
asS'HAT1'
p3018
(lp3019
I171922424
aI171983686
aS'+'
asS'LY75'
p3020
(lp3021
I159803355
aI159904756
aS'-'
asS'DTYMK'
p3022
(lp3023
I241675741
aI241686968
aS'-'
asS'CLK1'
p3024
(lp3025
I200853008
aI200864744
aS'-'
asS'LOC105373656'
p3026
(lp3027
I144523549
aI144524444
aS'-'
asS'HDAC4'
p3028
(lp3029
I239048167
aI239400949
aS'-'
asS'FAM95A'
p3030
(lp3031
I94755325
aI94761184
aS'-'
asS'SH3BP4'
p3032
(lp3033
I234952016
aI235055714
aS'+'
asS'FABP1'
p3034
(lp3035
I88122988
aI88128131
aS'-'
asS'MXD1'
p3036
(lp3037
I69915040
aI69942944
aS'+'
asS'MIR3125'
p3038
(lp3039
I12737366
aI12737444
aS'+'
asS'HCG2040054'
p3040
(lp3041
I47527536
aI47529164
aS'+'
asS'MIR3127'
p3042
(lp3043
I96798277
aI96798353
aS'+'
asS'MIR3126'
p3044
(lp3045
I69103681
aI69103755
aS'+'
asS'SPDYA'
p3046
(lp3047
I28810833
aI28850609
aS'+'
asS'MIR3128'
p3048
(lp3049
I177255944
aI177256010
aS'-'
asS'TMEM150A'
p3050
(lp3051
I85598546
aI85602699
aS'-'
asS'FSIP2-AS1'
p3052
(lp3053
I185783690
aI185800150
aS'-'
asS'TRAPPC12'
p3054
(lp3055
I3379674
aI3479571
aS'+'
asS'RAB10'
p3056
(lp3057
I26033859
aI26137454
aS'+'
asS'RAB17'
p3058
(lp3059
I237574321
aI237591126
aS'-'
asS'ACVR2A'
p3060
(lp3061
I147844516
aI147930827
aS'+'
asS'PLA2R1'
p3062
(lp3063
I159932005
aI160062615
aS'-'
asS'GKN1'
p3064
(lp3065
I68974572
aI68980980
aS'+'
asS'GKN2'
p3066
(lp3067
I68945231
aI68952893
aS'-'
asS'GMPPA'
p3068
(lp3069
I219498864
aI219506996
aS'+'
asS'GGT8P'
p3070
(lp3071
I91775341
aI91782127
aS'+'
asS'COL5A2'
p3072
(lp3073
I189031914
aI189179879
aS'-'
asS'MIR6513'
p3074
(lp3075
I218280124
aI218280188
aS'-'
asS'MIR6512'
p3076
(lp3077
I177313805
aI177313882
aS'-'
asS'KIF1A'
p3078
(lp3079
I240713763
aI240820308
aS'-'
asS'LOC100129175'
p3080
(lp3081
I219002214
aI219015722
aS'+'
asS'LOC105373496'
p3082
(lp3083
I96527940
aI96532306
aS'-'
asS'FLJ42351'
p3084
(lp3085
I112641829
aI112644180
aS'-'
asS'C2orf66'
p3086
(lp3087
I196804414
aI196810276
aS'-'
asS'NEU4'
p3088
(lp3089
I241809064
aI241817413
aS'+'
asS'C2orf69'
p3090
(lp3091
I199911255
aI199928273
aS'+'
asS'C2orf68'
p3092
(lp3093
I85605252
aI85612056
aS'-'
asS'NEU2'
p3094
(lp3095
I233032671
aI233035057
aS'+'
asS'ERCC3'
p3096
(lp3097
I127257289
aI127294176
aS'-'
asS'NIFK'
p3098
(lp3099
I121726944
aI121736927
aS'-'
asS'SCN9A'
p3100
(lp3101
I166195186
aI166375987
aS'-'
asS'MIR375'
p3102
(lp3103
I219001644
aI219001708
aS'-'
asS'SERTAD2'
p3104
(lp3105
I64631620
aI64653912
aS'-'
asS'LOXL3'
p3106
(lp3107
I74532258
aI74553995
aS'-'
asS'UGT1A10'
p3108
(lp3109
I233636476
aI233773305
aS'+'
asS'ACADL'
p3110
(lp3111
I210187991
aI210225491
aS'-'
asS'LOC100130451'
p3112
(lp3113
I213275785
aI213284209
aS'-'
asS'LOC100130452'
p3114
(lp3115
I196700634
aI196713012
aS'-'
asS'ABCB6'
p3116
(lp3117
I219209765
aI219219017
aS'-'
asS'CEBPZ'
p3118
(lp3119
I37201630
aI37231597
aS'-'
asS'LMAN2L'
p3120
(lp3121
I96705929
aI96740092
aS'-'
asS'THORLNC'
p3122
(lp3123
I118182921
aI118186386
aS'-'
asS'MFSD9'
p3124
(lp3125
I102714625
aI102736888
aS'-'
asS'SLC9A4'
p3126
(lp3127
I102473302
aI102533972
aS'+'
asS'PRSS40B'
p3128
(lp3129
I130536569
aI130549915
aS'-'
asS'PRSS40A'
p3130
(lp3131
I130536569
aI130549898
aS'-'
asS'DIRC1'
p3132
(lp3133
I188733737
aI188790104
aS'-'
asS'PSME4'
p3134
(lp3135
I53864066
aI53970840
aS'-'
asS'TMEM247'
p3136
(lp3137
I46479564
aI46484425
aS'+'
asS'MFSD6'
p3138
(lp3139
I190408354
aI190502314
aS'+'
asS'EEF1B2'
p3140
(lp3141
I206159593
aI206162929
aS'+'
asS'ACMSD'
p3142
(lp3143
I134838615
aI134902032
aS'+'
asS'PGM5P3-AS1'
p3144
(lp3145
I113527567
aI113542673
aS'-'
asS'MFF'
p3146
(lp3147
I227325150
aI227357836
aS'+'
asS'CLEC4F'
p3148
(lp3149
I70808644
aI70820600
aS'-'
asS'TLX2'
p3150
(lp3151
I74514468
aI74517148
aS'+'
asS'MIR8485'
p3152
(lp3153
I50696171
aI50696262
aS'-'
asS'RAPGEF4'
p3154
(lp3155
I172735796
aI173052892
aS'+'
asS'MYL1'
p3156
(lp3157
I210290149
aI210315174
aS'-'
asS'SLC30A6'
p3158
(lp3159
I32165840
aI32224379
aS'+'
asS'SLC30A3'
p3160
(lp3161
I27254571
aI27275817
aS'-'
asS'CERS6'
p3162
(lp3163
I168456248
aI168775134
aS'+'
asS'SNRNP200'
p3164
(lp3165
I96274335
aI96305569
aS'-'
asS'EML6'
p3166
(lp3167
I54725011
aI54972020
aS'+'
asS'PRLH'
p3168
(lp3169
I237566573
aI237567175
aS'+'
asS'EML4'
p3170
(lp3171
I42169337
aI42332548
aS'+'
asS'MPP4'
p3172
(lp3173
I201644873
aI201698694
aS'-'
asS'INHBB'
p3174
(lp3175
I120346141
aI120351808
aS'+'
asS'NGEF'
p3176
(lp3177
I232878701
aI233013256
aS'-'
asS'SNTG2'
p3178
(lp3179
I950848
aI1367612
aS'+'
asS'SCHLAP1'
p3180
(lp3181
I180692103
aI180916939
aS'+'
asS'ATIC'
p3182
(lp3183
I215311955
aI215349773
aS'+'
asS'MIR5192'
p3184
(lp3185
I62205825
aI62205917
aS'+'
asS'EDAR'
p3186
(lp3187
I108894470
aI108989372
aS'-'
asS'NCAPH'
p3188
(lp3189
I96335740
aI96377095
aS'+'
asS'CHAC2'
p3190
(lp3191
I53767782
aI53775196
aS'+'
asS'LOC440934'
p3192
(lp3193
I222318470
aI222357910
aS'+'
asS'GORASP2'
p3194
(lp3195
I170928437
aI170967133
aS'+'
asS'CIAO1'
p3196
(lp3197
I96266145
aI96274162
aS'+'
asS'TMEM185B'
p3198
(lp3199
I120217470
aI120223408
aS'-'
asS'EIF5B'
p3200
(lp3201
I99337370
aI99400265
aS'+'
asS'MIR1244-1'
p3202
(lp3203
I231713313
aI231713395
aS'+'
asS'CRIM1-DT'
p3204
(lp3205
I36354748
aI36355570
aS'-'
asS'LINC02583'
p3206
(lp3207
I46429189
aI46441833
aS'+'
asS'LINC02580'
p3208
(lp3209
I43097745
aI43102445
aS'-'
asS'LINC01124'
p3210
(lp3211
I170712438
aI170714567
aS'-'
asS'LINC01127'
p3212
(lp3213
I101983464
aI101985545
aS'+'
asS'LINC01126'
p3214
(lp3215
I43227210
aI43228855
aS'+'
asS'LINC01121'
p3216
(lp3217
I45174340
aI45254941
aS'-'
asS'LINC01120'
p3218
(lp3219
I131402900
aI131408228
aS'+'
asS'QPCT'
p3220
(lp3221
I37344609
aI37373322
aS'+'
asS'LOC100507600'
p3222
(lp3223
I135820190
aI135823087
aS'+'
asS'LINC02612'
p3224
(lp3225
I150628896
aI150635357
aS'+'
asS'LINC02613'
p3226
(lp3227
I38458637
aI38515740
aS'-'
asS'MALL'
p3228
(lp3229
I110083869
aI110116566
aS'-'
asS'LINC02611'
p3230
(lp3231
I98761062
aI98771898
aS'-'
asS'TRPM8'
p3232
(lp3233
I233917397
aI234019522
aS'+'
asS'SNORA80B'
p3234
(lp3235
I10446713
aI10446849
aS'-'
asS'LOC101929551'
p3236
(lp3237
I7886766
aI7899655
aS'-'
asS'ZFAND2B'
p3238
(lp3239
I219206783
aI219209651
aS'+'
asS'THADA'
p3240
(lp3241
I43230835
aI43596046
aS'-'
asS'SULT1C3'
p3242
(lp3243
I108239991
aI108265351
aS'+'
asS'SULT1C2'
p3244
(lp3245
I108288638
aI108309915
aS'+'
asS'LINC01833'
p3246
(lp3247
I44921079
aI44939199
aS'-'
asS'LINC01832'
p3248
(lp3249
I138101883
aI138105905
aS'+'
asS'LINC01831'
p3250
(lp3251
I104412151
aI104414031
aS'-'
asS'SULT1C4'
p3252
(lp3253
I108377910
aI108388970
aS'+'
asS'MIR3606'
p3254
(lp3255
I188995629
aI188995692
aS'+'
asS'LCT'
p3256
(lp3257
I135787839
aI135837180
aS'-'
asS'CCDC138'
p3258
(lp3259
I108786749
aI108885477
aS'+'
asS'OTOF'
p3260
(lp3261
I26457202
aI26558698
aS'-'
asS'POLE4'
p3262
(lp3263
I74958642
aI74969732
aS'+'
asS'STRN'
p3264
(lp3265
I36837697
aI36966472
aS'-'
asS'LINC01237'
p3266
(lp3267
I241881362
aI242078722
aS'+'
asS'GLB1L'
p3268
(lp3269
I219236597
aI219245429
aS'-'
asS'PRR30'
p3270
(lp3271
I27136848
aI27139410
aS'-'
asS'STK39'
p3272
(lp3273
I167954019
aI168247595
aS'-'
asS'LOC285000'
p3274
(lp3275
I105593096
aI105610559
aS'-'
asS'OTOS'
p3276
(lp3277
I240139028
aI240140656
aS'-'
asS'GCA'
p3278
(lp3279
I162318762
aI162363108
aS'+'
asS'LCLAT1'
p3280
(lp3281
I30447225
aI30644225
aS'+'
asS'LINC01907'
p3282
(lp3283
I230690920
aI230700529
aS'-'
asS'DOCK10'
p3284
(lp3285
I224765089
aI225042613
aS'-'
asS'SNX17'
p3286
(lp3287
I27370495
aI27377533
aS'+'
asS'STAT4'
p3288
(lp3289
I191029575
aI191151596
aS'-'
asS'STAT1'
p3290
(lp3291
I190969035
aI191014250
aS'-'
asS'LINC00298'
p3292
(lp3293
I7922424
aI7976814
aS'-'
asS'LINC00299'
p3294
(lp3295
I8007770
aI8328419
aS'-'
asS'FOSL2'
p3296
(lp3297
I28392911
aI28414649
aS'+'
asS'SLC8A1'
p3298
(lp3299
I40112145
aI40512435
aS'-'
asS'LOC101927884'
p3300
(lp3301
I75524067
aI75542706
aS'+'
asS'CTDSP1'
p3302
(lp3303
I218398337
aI218405941
aS'+'
asS'LOC101927881'
p3304
(lp3305
I128864599
aI128868727
aS'+'
asS'MIR4436B1'
p3306
(lp3307
I110086432
aI110086523
aS'-'
asS'MIR4436B2'
p3308
(lp3309
I110086432
aI110086523
aS'-'
asS'MAIP1'
p3310
(lp3311
I199955316
aI199964124
aS'+'
asS'CD8A'
p3312
(lp3313
I86784604
aI86808396
aS'-'
asS'TYW5'
p3314
(lp3315
I199928910
aI199955736
aS'-'
asS'CD8B'
p3316
(lp3317
I86815336
aI86861924
aS'-'
asS'TMEM87B'
p3318
(lp3319
I112055222
aI112119318
aS'+'
asS'LRP2'
p3320
(lp3321
I169127108
aI169362534
aS'-'
asS'GALNT14'
p3322
(lp3323
I30910464
aI31138726
aS'-'
asS'NEUROD1'
p3324
(lp3325
I181668294
aI181680665
aS'-'
asS'GALNT13'
p3326
(lp3327
I153871897
aI154453977
aS'+'
asS'MIR217'
p3328
(lp3329
I55982966
aI55983076
aS'-'
asS'MIR3133'
p3330
(lp3331
I241477904
aI241477982
aS'+'
asS'MIR3131'
p3332
(lp3333
I219058687
aI219058750
aS'-'
asS'WDR12'
p3334
(lp3335
I202880599
aI202912226
aS'-'
asS'CFC1'
p3336
(lp3337
I130592164
aI130599575
aS'-'
asS'AOX1'
p3338
(lp3339
I200586007
aI200671494
aS'+'
asS'MAP4K3'
p3340
(lp3341
I39249265
aI39437312
aS'-'
asS'ANTXR1'
p3342
(lp3343
I69013143
aI69249327
aS'+'
asS'MAP4K4'
p3344
(lp3345
I101697702
aI101894690
aS'+'
asS'CREG2'
p3346
(lp3347
I101348353
aI101387503
aS'-'
asS'CCDC74B'
p3348
(lp3349
I130139282
aI130145134
aS'-'
asS'CCDC74A'
p3350
(lp3351
I131527674
aI131533666
aS'+'
asS'MAP2'
p3352
(lp3353
I209424046
aI209734110
aS'+'
asS'UGT1A4'
p3354
(lp3355
I233718791
aI233773299
aS'+'
asS'GPD2'
p3356
(lp3357
I156435452
aI156586403
aS'+'
asS'NLRC4'
p3358
(lp3359
I32224448
aI32265743
aS'-'
asS'C2orf70'
p3360
(lp3361
I26562558
aI26579532
aS'+'
asS'C2orf72'
p3362
(lp3363
I231037565
aI231049712
aS'+'
asS'C2orf73'
p3364
(lp3365
I54330933
aI54361577
aS'+'
asS'C2orf74'
p3366
(lp3367
I61145067
aI61164829
aS'+'
asS'NRIR'
p3368
(lp3369
I6828553
aI6840464
aS'-'
asS'C2orf76'
p3370
(lp3371
I119302216
aI119366828
aS'-'
asS'C2orf78'
p3372
(lp3373
I73784188
aI73817147
aS'+'
asS'TFCP2L1'
p3374
(lp3375
I121216587
aI121285202
aS'-'
asS'SUCLG1'
p3376
(lp3377
I84423527
aI84459280
aS'-'
asS'MIR10B'
p3378
(lp3379
I176150302
aI176150412
aS'+'
asS'INO80D'
p3380
(lp3381
I205993720
aI206086182
aS'-'
asS'INO80B'
p3382
(lp3383
I74455022
aI74457960
aS'+'
asS'LOC100499194'
p3384
(lp3385
I113977668
aI113979984
aS'-'
asS'OSGEPL1'
p3386
(lp3387
I189746659
aI189763198
aS'-'
asS'TIA1'
p3388
(lp3389
I70209443
aI70248793
aS'-'
asS'MIR561'
p3390
(lp3391
I188297491
aI188297588
aS'+'
asS'MIR562'
p3392
(lp3393
I232172652
aI232172747
aS'+'
asS'LOC100130449'
p3394
(lp3395
I240449410
aI240456714
aS'-'
asS'FAM124B'
p3396
(lp3397
I224378697
aI224401994
aS'-'
asS'LRPPRC'
p3398
(lp3399
I43886223
aI43996005
aS'-'
asS'KCNE4'
p3400
(lp3401
I223051929
aI223055637
aS'+'
asS'ASB18'
p3402
(lp3403
I236193451
aI236264345
aS'-'
asS'SNORD53B'
p3404
(lp3405
I28927982
aI28928060
aS'+'
asS'CASP10'
p3406
(lp3407
I201182897
aI201229406
aS'+'
asS'RGPD4-AS1'
p3408
(lp3409
I107823063
aI107826769
aS'-'
asS'CNTNAP5'
p3410
(lp3411
I124025286
aI124915377
aS'+'
asS'UGP2'
p3412
(lp3413
I63840963
aI63891562
aS'+'
asS'BMS1P14'
p3414
(lp3415
I94192530
aI94208419
aS'-'
asS'ITSN2'
p3416
(lp3417
I24202865
aI24360528
aS'-'
asS'MMADHC'
p3418
(lp3419
I149569632
aI149587816
aS'-'
asS'MIR217HG'
p3420
(lp3421
I55963405
aI56047326
aS'-'
asS'ANKMY1'
p3422
(lp3423
I240479421
aI240561110
aS'-'
asS'KHK'
p3424
(lp3425
I27086742
aI27100751
aS'+'
asS'LBX2'
p3426
(lp3427
I74497516
aI74503316
aS'-'
asS'IL36RN'
p3428
(lp3429
I113058637
aI113064743
aS'+'
asS'HK2'
p3430
(lp3431
I74832654
aI74893354
aS'+'
asS'BOLL'
p3432
(lp3433
I197726878
aI197786312
aS'-'
asS'RTKN'
p3434
(lp3435
I74425860
aI74441933
aS'-'
asS'PTMA'
p3436
(lp3437
I231708524
aI231713540
aS'+'
asS'KCTD18'
p3438
(lp3439
I200488951
aI200510094
aS'-'
asS'CYP27C1'
p3440
(lp3441
I127183835
aI127205767
aS'-'
asS'CCDC148-AS1'
p3442
(lp3443
I158166649
aI158236169
aS'+'
asS'CPS1'
p3444
(lp3445
I210477681
aI210679107
aS'+'
asS'MIR4436A'
p3446
(lp3447
I88812369
aI88812454
aS'+'
asS'LOC101928386'
p3448
(lp3449
I143937066
aI143964155
aS'+'
asS'PRORSD1P'
p3450
(lp3451
I55282318
aI55284471
aS'+'
asS'GPBAR1'
p3452
(lp3453
I218259495
aI218263859
aS'+'
asS'DQX1'
p3454
(lp3455
I74518130
aI74526281
aS'-'
asS'XIRP2-AS1'
p3456
(lp3457
I167122808
aI167140955
aS'-'
asS'TGFA'
p3458
(lp3459
I70447279
aI70554015
aS'-'
asS'CRYGB'
p3460
(lp3461
I208142572
aI208146158
aS'-'
asS'FAR2P1'
p3462
(lp3463
I130026000
aI130051131
aS'-'
asS'FAR2P2'
p3464
(lp3465
I130416750
aI130428546
aS'-'
asS'TMEM182'
p3466
(lp3467
I102736905
aI102817679
aS'+'
asS'NDUFS1'
p3468
(lp3469
I206123078
aI206159519
aS'-'
asS'LOC646736'
p3470
(lp3471
I226142793
aI226180062
aS'+'
asS'ATG9A'
p3472
(lp3473
I219219379
aI219229688
aS'-'
asS'GPR1-AS'
p3474
(lp3475
I206203375
aI206266243
aS'+'
asS'PKDCC'
p3476
(lp3477
I42048020
aI42058528
aS'+'
asS'DHX57'
p3478
(lp3479
I38797730
aI38875934
aS'-'
asS'LOC729254'
p3480
(lp3481
I191792839
aI191820249
aS'+'
asS'AGBL5-AS1'
p3482
(lp3483
I27049682
aI27050264
aS'-'
asS'AGPS'
p3484
(lp3485
I177392742
aI177543836
aS'+'
asS'EHD3'
p3486
(lp3487
I31234013
aI31268394
aS'+'
asS'CFLAR-AS1'
p3488
(lp3489
I201140288
aI201157792
aS'-'
asS'OR7E91P'
p3490
(lp3491
I71024074
aI71029930
aS'+'
asS'RBKS'
p3492
(lp3493
I27781363
aI27890396
aS'-'
asS'IKZF2'
p3494
(lp3495
I212999685
aI213151609
aS'-'
asS'FAHD2B'
p3496
(lp3497
I97083585
aI97094882
aS'-'
asS'FAHD2A'
p3498
(lp3499
I95402699
aI95413131
aS'+'
asS'MIR5703'
p3500
(lp3501
I227472131
aI227472187
aS'+'
asS'ACTR3-AS1'
p3502
(lp3503
I113831182
aI113890992
aS'-'
asS'OSGEPL1-AS1'
p3504
(lp3505
I189762779
aI189765556
aS'+'
asS'FSIP2-AS2'
p3506
(lp3507
I185719873
aI185740477
aS'-'
asS'LINC01593'
p3508
(lp3509
I108049199
aI108052755
aS'-'
asS'LINC01594'
p3510
(lp3511
I108167747
aI108217841
aS'-'
asS'REEP1'
p3512
(lp3513
I86213996
aI86338083
aS'-'
asS'LINC02245'
p3514
(lp3515
I64901839
aI64932447
aS'-'
asS'SULT1C2P1'
p3516
(lp3517
I108322237
aI108353798
aS'+'
asS'TCF23'
p3518
(lp3519
I27149076
aI27152951
aS'+'
asS'LINC01918'
p3520
(lp3521
I105144112
aI105145424
aS'+'
asS'LINC01914'
p3522
(lp3523
I41931598
aI41933723
aS'-'
asS'ARL6IP6'
p3524
(lp3525
I152717692
aI152761253
aS'+'
asS'HDLBP'
p3526
(lp3527
I241227263
aI241315842
aS'-'
asS'LINC01913'
p3528
(lp3529
I41877554
aI41894046
aS'+'
asS'FEV'
p3530
(lp3531
I218981086
aI218985657
aS'-'
asS'CHRNA1'
p3532
(lp3533
I174747594
aI174764472
aS'-'
asS'ID2'
p3534
(lp3535
I8681982
aI8684453
aS'+'
asS'LINC01828'
p3536
(lp3537
I67086445
aI67289244
aS'+'
asS'LINC01829'
p3538
(lp3539
I67123356
aI67215319
aS'-'
asS'LINC01820'
p3540
(lp3541
I46392292
aI46394167
aS'-'
asS'LINC01821'
p3542
(lp3543
I194344268
aI194419631
aS'+'
asS'LINC01822'
p3544
(lp3545
I21687433
aI21710652
aS'-'
asS'LINC01826'
p3546
(lp3547
I123066155
aI123073481
aS'-'
asS'BBS5'
p3548
(lp3549
I169479495
aI169506655
aS'+'
asS'LOC105374454'
p3550
(lp3551
I33555044
aI33569430
aS'-'
asS'UGT1A8'
p3552
(lp3553
I233617644
aI233773299
aS'+'
asS'UGT1A9'
p3554
(lp3555
I233671897
aI233773300
aS'+'
asS'ANKAR'
p3556
(lp3557
I189675984
aI189746650
aS'+'
asS'UGT1A5'
p3558
(lp3559
I233712991
aI233773299
aS'+'
asS'UGT1A6'
p3560
(lp3561
I233691674
aI233773299
aS'+'
asS'UGT1A7'
p3562
(lp3563
I233681937
aI233773299
aS'+'
asS'UGT1A1'
p3564
(lp3565
I233760272
aI233773299
aS'+'
asS'UGT1A3'
p3566
(lp3567
I233729126
aI233773299
aS'+'
asS'HJURP'
p3568
(lp3569
I233836700
aI233854566
aS'-'
asS'FIGLA'
p3570
(lp3571
I70777309
aI70790643
aS'-'
asS'GLI2'
p3572
(lp3573
I120797290
aI120992653
aS'+'
asS'LRP1B'
p3574
(lp3575
I140231426
aI142131701
aS'-'
asS'DOK1'
p3576
(lp3577
I74549019
aI74557551
aS'+'
asS'RPIA'
p3578
(lp3579
I88691657
aI88750935
aS'+'
asS'AQP12B'
p3580
(lp3581
I240676417
aI240682900
aS'-'
asS'AQP12A'
p3582
(lp3583
I240691844
aI240698483
aS'+'
asS'FSHR'
p3584
(lp3585
I48962156
aI49154527
aS'-'
asS'MCEE'
p3586
(lp3587
I71109675
aI71130264
aS'-'
asS'MTA3'
p3588
(lp3589
I42494568
aI42756947
aS'+'
asS'YPEL5'
p3590
(lp3591
I30146883
aI30160533
aS'+'
asS'MIR4444-2'
p3592
(lp3593
I177212725
aI177212798
aS'+'
asS'CLASP1'
p3594
(lp3595
I121337775
aI121649476
aS'-'
asS'MIR4444-1'
p3596
(lp3597
I177212725
aI177212798
aS'+'
asS'PDIA6'
p3598
(lp3599
I10783390
aI10837977
aS'-'
asS'ORC4'
p3600
(lp3601
I147930396
aI148021604
aS'-'
asS'ORC2'
p3602
(lp3603
I200910170
aI200963701
aS'-'
asS'GPC1'
p3604
(lp3605
I240435697
aI240468078
aS'+'
asS'ARMC9'
p3606
(lp3607
I231198545
aI231376838
aS'+'
asS'MPHOSPH10'
p3608
(lp3609
I71130313
aI71150102
aS'+'
asS'TTC21B'
p3610
(lp3611
I165873361
aI165953838
aS'-'
asS'LOC339803'
p3612
(lp3613
I61141594
aI61144975
aS'-'
asS'TSGA10'
p3614
(lp3615
I98997260
aI99154966
aS'-'
asS'C2orf49'
p3616
(lp3617
I105337358
aI105348814
aS'+'
asS'C2orf48'
p3618
(lp3619
I10141381
aI10211730
aS'+'
asS'SPATA3'
p3620
(lp3621
I230996123
aI231007284
aS'+'
asS'C2orf40'
p3622
(lp3623
I106065656
aI106078153
aS'+'
asS'C2orf42'
p3624
(lp3625
I70149879
aI70191071
aS'-'
as.