(dp1
S'C3orf80'
p2
(lp3
I160225635
aI160228213
aS'+'
asS'C3orf86'
p4
(lp5
I44421131
aI44424025
aS'-'
asS'FHIT'
p6
(lp7
I59747277
aI61251461
aS'-'
asS'C3orf84'
p8
(lp9
I49177635
aI49191858
aS'-'
asS'RNF13'
p10
(lp11
I149812687
aI149962138
aS'+'
asS'LOC102724604'
p12
(lp13
I181421162
aI181442486
aS'-'
asS'RUBCN'
p14
(lp15
I197668866
aI197749699
aS'-'
asS'PDCD10'
p16
(lp17
I167683905
aI167734863
aS'-'
asS'FLJ42393'
p18
(lp19
I188178542
aI188180808
aS'+'
asS'ADIPOQ'
p20
(lp21
I186842673
aI186858463
aS'+'
asS'ABCC5-AS1'
p22
(lp23
I184006337
aI184011419
aS'+'
asS'INKA1'
p24
(lp25
I49803260
aI49805030
aS'+'
asS'MIR6083'
p26
(lp27
I124374331
aI124374437
aS'+'
asS'TPRG1-AS2'
p28
(lp29
I189238685
aI189240594
aS'-'
asS'CAMK1'
p30
(lp31
I9757344
aI9769984
aS'-'
asS'PIK3CA'
p32
(lp33
I179148522
aI179240093
aS'+'
asS'PIK3CB'
p34
(lp35
I138652697
aI138759359
aS'-'
asS'C3orf85'
p36
(lp37
I109136713
aI109150104
aS'+'
asS'CRBN'
p38
(lp39
I3149632
aI3179717
aS'-'
asS'CBLB'
p40
(lp41
I105655460
aI105869422
aS'-'
asS'XPC'
p42
(lp43
I14145147
aI14178672
aS'-'
asS'CAMKV'
p44
(lp45
I49857980
aI49870222
aS'-'
asS'GOLIM4'
p46
(lp47
I168008672
aI168095925
aS'-'
asS'OPA1'
p48
(lp49
I193593143
aI193697811
aS'+'
asS'FGF12-AS2'
p50
(lp51
I192515021
aI192516573
aS'+'
asS'FGF12-AS1'
p52
(lp53
I192238629
aI192283095
aS'+'
asS'OSBPL10-AS1'
p54
(lp55
I31704212
aI31721586
aS'+'
asS'COL7A1'
p56
(lp57
I48564072
aI48595160
aS'-'
asS'MIR128-2'
p58
(lp59
I35744475
aI35744559
aS'+'
asS'PARP14'
p60
(lp61
I122680824
aI122730840
aS'+'
asS'PARP15'
p62
(lp63
I122577601
aI122639047
aS'+'
asS'ARF4-AS1'
p64
(lp65
I57597788
aI57600915
aS'+'
asS'ITGA9'
p66
(lp67
I37452140
aI37823507
aS'+'
asS'HACL1'
p68
(lp69
I15560703
aI15601852
aS'-'
asS'IQSEC1'
p70
(lp71
I12897042
aI13073429
aS'-'
asS'GAP43'
p72
(lp73
I115623303
aI115721487
aS'+'
asS'MIR5092'
p74
(lp75
I125151464
aI125151552
aS'-'
asS'HRH1'
p76
(lp77
I11137092
aI11263253
aS'+'
asS'LINC02012'
p78
(lp79
I197505261
aI197509661
aS'-'
asS'PRSS50'
p80
(lp81
I46712115
aI46717883
aS'-'
asS'DNASE1L3'
p82
(lp83
I58192625
aI58211003
aS'-'
asS'IQCF5-AS1'
p84
(lp85
I51873595
aI51875767
aS'+'
asS'CHST2'
p86
(lp87
I143119775
aI143124014
aS'+'
asS'TPRG1-AS1'
p88
(lp89
I188941714
aI188947639
aS'-'
asS'LINC02032'
p90
(lp91
I148078158
aI148088029
aS'+'
asS'LINC02033'
p92
(lp93
I36820549
aI36822500
aS'-'
asS'LINC02036'
p94
(lp95
I194203015
aI194250153
aS'-'
asS'LINC02037'
p96
(lp97
I194247647
aI194257772
aS'+'
asS'LINC02035'
p98
(lp99
I122886512
aI122892416
aS'+'
asS'LINC02038'
p100
(lp101
I193840827
aI193844009
aS'-'
asS'KCNH8'
p102
(lp103
I19148524
aI19535643
aS'+'
asS'MIR544B'
p104
(lp105
I124732438
aI124732516
aS'+'
asS'IGF2BP2-AS1'
p106
(lp107
I185713251
aI185729787
aS'+'
asS'GHRL'
p108
(lp109
I10285749
aI10292947
aS'-'
asS'TOPAZ1'
p110
(lp111
I44241885
aI44332098
aS'+'
asS'NPHP3'
p112
(lp113
I132680608
aI132722409
aS'-'
asS'NDUFAF3'
p114
(lp115
I49020474
aI49023493
aS'+'
asS'LINC01100'
p116
(lp117
I160020648
aI160031423
aS'+'
asS'UBXN7-AS1'
p118
(lp119
I196431384
aI196433034
aS'+'
asS'ARF4'
p120
(lp121
I57571362
aI57597344
aS'-'
asS'ERICH6'
p122
(lp123
I150659884
aI150703971
aS'-'
asS'MOBP'
p124
(lp125
I39467572
aI39529497
aS'+'
asS'SCN11A'
p126
(lp127
I38845768
aI39051945
aS'-'
asS'ILDR1'
p128
(lp129
I121987322
aI122022280
aS'-'
asS'ADAMTS9-AS2'
p130
(lp131
I64684869
aI65011471
aS'+'
asS'ADAMTS9-AS1'
p132
(lp133
I64561345
aI64590084
aS'+'
asS'CLSTN2-AS1'
p134
(lp135
I140505617
aI140508789
aS'-'
asS'LINC01215'
p136
(lp137
I108125063
aI108138610
aS'+'
asS'LINC01214'
p138
(lp139
I150265406
aI150323747
aS'-'
asS'LINC01213'
p140
(lp141
I150238518
aI150240205
aS'+'
asS'LINC01210'
p142
(lp143
I137771910
aI137780877
aS'+'
asS'MAGI1-IT1'
p144
(lp145
I65872813
aI65954558
aS'-'
asS'MIR3938'
p146
(lp147
I55852491
aI55852594
aS'-'
asS'CRTAP'
p148
(lp149
I33113957
aI33147773
aS'+'
asS'BPESC1'
p150
(lp151
I139104184
aI139125163
aS'+'
asS'FYCO1'
p152
(lp153
I45917898
aI45995824
aS'-'
asS'ARL14'
p154
(lp155
I160677159
aI160678447
aS'+'
asS'MIR3714'
p156
(lp157
I16933195
aI16933260
aS'+'
asS'XXYLT1-AS2'
p158
(lp159
I195147870
aI195152856
aS'+'
asS'XXYLT1-AS1'
p160
(lp161
I195094587
aI195096057
aS'+'
asS'IFT80'
p162
(lp163
I160256985
aI160399532
aS'-'
asS'CD47'
p164
(lp165
I108043093
aI108091088
aS'-'
asS'PRICKLE2'
p166
(lp167
I64093849
aI64225455
aS'-'
asS'MUC4'
p168
(lp169
I195746765
aI195811973
aS'-'
asS'EIF4E3'
p170
(lp171
I71679288
aI71754773
aS'-'
asS'DZIP1L'
p172
(lp173
I138061984
aI138115609
aS'-'
asS'IQCJ-SCHIP1-AS1'
p174
(lp175
I159765381
aI159768612
aS'-'
asS'RPN1'
p176
(lp177
I128619969
aI128650876
aS'-'
asS'PPP2R3A'
p178
(lp179
I135965672
aI136147910
aS'+'
asS'SIDT1'
p180
(lp181
I113532370
aI113629575
aS'+'
asS'CCRL2'
p182
(lp183
I46407258
aI46409523
aS'+'
asS'BRK1'
p184
(lp185
I10115648
aI10127190
aS'+'
asS'SFMBT1'
p186
(lp187
I52903572
aI53046073
aS'-'
asS'PISRT1'
p188
(lp189
I139232991
aI139233522
aS'-'
asS'C3orf79'
p190
(lp191
I153484494
aI153502697
aS'+'
asS'LOC105377102'
p192
(lp193
I57269565
aI57278127
aS'+'
asS'C3orf70'
p194
(lp195
I185076837
aI185153048
aS'-'
asS'SNORA95'
p196
(lp197
I85062152
aI85062264
aS'-'
asS'SNORA94'
p198
(lp199
I48604919
aI48605150
aS'-'
asS'SHOX2'
p200
(lp201
I158096010
aI158106163
aS'-'
asS'EGOT'
p202
(lp203
I4749193
aI4751590
aS'-'
asS'SNORA93'
p204
(lp205
I13618380
aI13618548
aS'+'
asS'THOC7'
p206
(lp207
I63833869
aI63863923
aS'-'
asS'KIF15'
p208
(lp209
I44761793
aI44853256
aS'+'
asS'ITIH4-AS1'
p210
(lp211
I52823934
aI52825314
aS'+'
asS'LOC339902'
p212
(lp213
I59637295
aI59658497
aS'-'
asS'LSAMP'
p214
(lp215
I115802362
aI116445538
aS'-'
asS'TMEM44'
p216
(lp217
I194587672
aI194633421
aS'-'
asS'TMEM40'
p218
(lp219
I12733529
aI12769457
aS'-'
asS'TMEM43'
p220
(lp221
I14124939
aI14143680
aS'+'
asS'TMEM42'
p222
(lp223
I44861908
aI44865667
aS'+'
asS'FOXP1'
p224
(lp225
I70954713
aI71583989
aS'-'
asS'FANCD2'
p226
(lp227
I10026386
aI10101937
aS'+'
asS'MYRIP'
p228
(lp229
I39808913
aI40260320
aS'+'
asS'MIR944'
p230
(lp231
I189829921
aI189830009
aS'+'
asS'MIR6890'
p232
(lp233
I49099853
aI49099914
aS'-'
asS'ASTE1'
p234
(lp235
I131013872
aI131026854
aS'-'
asS'CEP97'
p236
(lp237
I101724592
aI101770562
aS'+'
asS'TREX1'
p238
(lp239
I48465951
aI48467645
aS'+'
asS'TKT'
p240
(lp241
I53224706
aI53256114
aS'-'
asS'MKRN2OS'
p242
(lp243
I12539780
aI12545464
aS'-'
asS'TMEM45A'
p244
(lp245
I100492618
aI100577452
aS'+'
asS'NCBP2-AS1'
p246
(lp247
I196939876
aI196942534
aS'+'
asS'NCBP2-AS2'
p248
(lp249
I196942622
aI196943545
aS'+'
asS'NPHP3-ACAD11'
p250
(lp251
I132558137
aI132722459
aS'-'
asS'PHLDB2'
p252
(lp253
I111732479
aI111976517
aS'+'
asS'ABTB1'
p254
(lp255
I127672937
aI127680926
aS'+'
asS'THOC7-AS1'
p256
(lp257
I63860644
aI63861819
aS'+'
asS'CYP8B1'
p258
(lp259
I42872191
aI42876141
aS'-'
asS'GLYCTK'
p260
(lp261
I52287819
aI52295256
aS'+'
asS'BTD'
p262
(lp263
I15601351
aI15647634
aS'+'
asS'PFN2'
p264
(lp265
I149964904
aI149970954
aS'-'
asS'FETUB'
p266
(lp267
I186640359
aI186653008
aS'+'
asS'FCF1P2'
p268
(lp269
I48290278
aI48291678
aS'-'
asS'ARPP21'
p270
(lp271
I35641017
aI35794496
aS'+'
asS'COX17'
p272
(lp273
I119669524
aI119677396
aS'-'
asS'EIF2B5'
p274
(lp275
I184135357
aI184145311
aS'+'
asS'SCN10A'
p276
(lp277
I38697345
aI38794010
aS'-'
asS'PRKAR2A'
p278
(lp279
I48746578
aI48847850
aS'-'
asS'LRRC3B'
p280
(lp281
I26622805
aI26710774
aS'+'
asS'EMC3-AS1'
p282
(lp283
I9986892
aI10007003
aS'+'
asS'MLF1'
p284
(lp285
I158571163
aI158606460
aS'+'
asS'LINC02006'
p286
(lp287
I153383549
aI153762526
aS'-'
asS'LINC02005'
p288
(lp289
I73809243
aI73879620
aS'+'
asS'LINC02004'
p290
(lp291
I134313575
aI134321171
aS'+'
asS'FAM157A'
p292
(lp293
I198153205
aI198222513
aS'+'
asS'MIR6872'
p294
(lp295
I50273235
aI50273297
aS'+'
asS'LINC02000'
p296
(lp297
I134055249
aI134057648
aS'-'
asS'MECOM'
p298
(lp299
I169083498
aI169663775
aS'-'
asS'ALCAM'
p300
(lp301
I105366712
aI105576913
aS'+'
asS'LINC02009'
p302
(lp303
I46416515
aI46423667
aS'-'
asS'LINC02008'
p304
(lp305
I81986141
aI82463675
aS'+'
asS'WWTR1-AS1'
p306
(lp307
I149658209
aI149661362
aS'+'
asS'CDCP1'
p308
(lp309
I45082273
aI45146422
aS'-'
asS'TGFBR2'
p310
(lp311
I30606501
aI30694141
aS'+'
asS'MTMR14'
p312
(lp313
I9649432
aI9702394
aS'+'
asS'NLGN1'
p314
(lp315
I173395951
aI174294371
aS'+'
asS'CELSR3'
p316
(lp317
I48636462
aI48662915
aS'-'
asS'FOXL2'
p318
(lp319
I138944223
aI138947137
aS'-'
asS'BBX'
p320
(lp321
I107522935
aI107811329
aS'+'
asS'LRRC31'
p322
(lp323
I169839240
aI169869935
aS'-'
asS'LRRC34'
p324
(lp325
I169793427
aI169812786
aS'-'
asS'MFN1'
p326
(lp327
I179347691
aI179393220
aS'+'
asS'ISY1'
p328
(lp329
I129127415
aI129161230
aS'-'
asS'ABHD14A-ACY1'
p330
(lp331
I51975025
aI51989202
aS'+'
asS'ST6GAL1'
p332
(lp333
I186930525
aI187078553
aS'+'
asS'ZMAT3'
p334
(lp335
I179017224
aI179071868
aS'-'
asS'NR1D2'
p336
(lp337
I23945259
aI23980618
aS'+'
asS'RABL3'
p338
(lp339
I120686680
aI120742680
aS'-'
asS'LINC01208'
p340
(lp341
I176604147
aI176635532
aS'-'
asS'LINC01209'
p342
(lp343
I176814155
aI176817001
aS'-'
asS'CAMP'
p344
(lp345
I48223346
aI48225491
aS'+'
asS'LINC01205'
p346
(lp347
I109409989
aI109495167
aS'+'
asS'LINC01206'
p348
(lp349
I181952363
aI182010676
aS'+'
asS'KLHL18'
p350
(lp351
I47282839
aI47346816
aS'+'
asS'MYLK-AS2'
p352
(lp353
I123689643
aI123692407
aS'+'
asS'MYLK-AS1'
p354
(lp355
I123585512
aI123630819
aS'+'
asS'OSTN'
p356
(lp357
I191199240
aI191265614
aS'+'
asS'ST3GAL6'
p358
(lp359
I98732235
aI98795845
aS'+'
asS'APOD'
p360
(lp361
I195568704
aI195583940
aS'-'
asS'SKIL'
p362
(lp363
I170357684
aI170396849
aS'+'
asS'CADPS'
p364
(lp365
I62398345
aI62875389
aS'-'
asS'DPH3'
p366
(lp367
I16257060
aI16264989
aS'-'
asS'FGD5-AS1'
p368
(lp369
I14942778
aI14948441
aS'-'
asS'SNORA58'
p370
(lp371
I131478997
aI131479233
aS'-'
asS'NSUN3'
p372
(lp373
I94062904
aI94131831
aS'+'
asS'LINC01063'
p374
(lp375
I196631503
aI196632587
aS'-'
asS'ARHGAP31'
p376
(lp377
I119294372
aI119419476
aS'+'
asS'DCAF1'
p378
(lp379
I51395866
aI51500002
aS'-'
asS'MON1A'
p380
(lp381
I49908868
aI49930012
aS'-'
asS'LINC01840'
p382
(lp383
I184546713
aI184556918
aS'-'
asS'MIR711'
p384
(lp385
I48578901
aI48578977
aS'-'
asS'MIR15B'
p386
(lp387
I160404587
aI160404685
aS'+'
asS'CACNA1D'
p388
(lp389
I53495048
aI53812465
aS'+'
asS'UPK1B'
p390
(lp391
I119173577
aI119205153
aS'+'
asS'MBNL1'
p392
(lp393
I152268467
aI152465780
aS'+'
asS'LOC101927296'
p394
(lp395
I73521321
aI73569774
aS'+'
asS'MIR570HG'
p396
(lp397
I195688497
aI195711875
aS'+'
asS'CLCN2'
p398
(lp399
I184346184
aI184361651
aS'-'
asS'SLC15A2'
p400
(lp401
I121894323
aI121944187
aS'+'
asS'PXYLP1'
p402
(lp403
I141231824
aI141294903
aS'+'
asS'THUMPD3-AS1'
p404
(lp405
I9385263
aI9396623
aS'-'
asS'MASP1'
p406
(lp407
I187216084
aI187292022
aS'-'
asS'TTC14'
p408
(lp409
I180602129
aI180618347
aS'+'
asS'ARL6'
p410
(lp411
I97764520
aI97801242
aS'+'
asS'C3orf67'
p412
(lp413
I58742005
aI59050032
aS'-'
asS'KAT2B'
p414
(lp415
I20040031
aI20154404
aS'+'
asS'C3orf62'
p416
(lp417
I49268595
aI49277232
aS'-'
asS'SNORA81'
p418
(lp419
I186786674
aI186786852
aS'+'
asS'ZNF852'
p420
(lp421
I44498736
aI44510617
aS'-'
asS'HTD2'
p422
(lp423
I58306244
aI58320193
aS'+'
asS'CD200'
p424
(lp425
I112332572
aI112362811
aS'+'
asS'ABCF3'
p426
(lp427
I184186074
aI184194007
aS'+'
asS'PPM1M'
p428
(lp429
I52245792
aI52250599
aS'+'
asS'PPM1L'
p430
(lp431
I160756203
aI161078907
aS'+'
asS'DNAJB11'
p432
(lp433
I186570675
aI186585800
aS'+'
asS'DALRD3'
p434
(lp435
I49015488
aI49021071
aS'-'
asS'UMPS'
p436
(lp437
I124730365
aI124749272
aS'+'
asS'RARB-AS1'
p438
(lp439
I25383105
aI25384927
aS'-'
asS'VILL'
p440
(lp441
I37993586
aI38007185
aS'+'
asS'TIPARP'
p442
(lp443
I156674415
aI156706768
aS'+'
asS'MRPL3'
p444
(lp445
I131462200
aI131503016
aS'-'
asS'RPUSD3'
p446
(lp447
I9837802
aI9844059
aS'-'
asS'ZNF589'
p448
(lp449
I48241105
aI48270989
aS'+'
asS'MIR135A1'
p450
(lp451
I52294218
aI52294308
aS'-'
asS'AMIGO3'
p452
(lp453
I49716833
aI49719805
aS'-'
asS'PROK2'
p454
(lp455
I71771654
aI71785206
aS'-'
asS'ZNF619'
p456
(lp457
I40477112
aI40491049
aS'+'
asS'ACAD9'
p458
(lp459
I128879489
aI128913114
aS'+'
asS'A4GNT'
p460
(lp461
I138123717
aI138132387
aS'-'
asS'ZNF385D-AS1'
p462
(lp463
I21542788
aI21579959
aS'+'
asS'ZNF385D-AS2'
p464
(lp465
I21957138
aI21979828
aS'+'
asS'ADPRH'
p466
(lp467
I119579432
aI119589945
aS'+'
asS'DENND6A'
p468
(lp469
I57625453
aI57693077
aS'-'
asS'ZNF385D'
p470
(lp471
I21420997
aI21751324
aS'-'
asS'TMEM207'
p472
(lp473
I190428655
aI190449876
aS'-'
asS'TRIM59-IFT80'
p474
(lp475
I160256985
aI160485747
aS'-'
asS'FBXO45'
p476
(lp477
I196568853
aI196589059
aS'+'
asS'FBXO40'
p478
(lp479
I121593322
aI121630292
aS'+'
asS'LINC02018'
p480
(lp481
I75435307
aI75512177
aS'+'
asS'LINC02010'
p482
(lp483
I146921922
aI146925218
aS'+'
asS'LINC02011'
p484
(lp485
I14799330
aI14811414
aS'-'
asS'MIR5002'
p486
(lp487
I124132928
aI124133025
aS'+'
asS'CP'
p488
(lp489
I149162409
aI149222045
aS'-'
asS'LINC02014'
p490
(lp491
I130088865
aI130094304
aS'-'
asS'LINC02015'
p492
(lp493
I177816864
aI177899224
aS'+'
asS'LINC02016'
p494
(lp495
I127322306
aI127390670
aS'-'
asS'LINC02017'
p496
(lp497
I55178171
aI55189214
aS'+'
asS'LOC101928739'
p498
(lp499
I179101370
aI179147973
aS'-'
asS'RPSA'
p500
(lp501
I39406688
aI39412541
aS'+'
asS'SNORD19'
p502
(lp503
I52689239
aI52689315
aS'+'
asS'JAGN1'
p504
(lp505
I9890609
aI9894347
aS'+'
asS'TRNT1'
p506
(lp507
I3126939
aI3153435
aS'+'
asS'PLCH1-AS2'
p508
(lp509
I155485802
aI155487121
aS'+'
asS'TMEM158'
p510
(lp511
I45224463
aI45226322
aS'-'
asS'EIF1B'
p512
(lp513
I40309681
aI40312426
aS'+'
asS'PP2D1'
p514
(lp515
I19979960
aI20012273
aS'-'
asS'RPL29'
p516
(lp517
I51993627
aI51995942
aS'-'
asS'LINC01471'
p518
(lp519
I127497600
aI127537780
aS'-'
asS'RPL24'
p520
(lp521
I101681090
aI101686718
aS'-'
asS'TNK2-AS1'
p522
(lp523
I195908075
aI195913264
aS'+'
asS'ATG3'
p524
(lp525
I112532506
aI112561963
aS'-'
asS'ATG7'
p526
(lp527
I11272323
aI11564652
aS'+'
asS'SPINK8'
p528
(lp529
I48306845
aI48328341
aS'-'
asS'MTHFD2P1'
p530
(lp531
I95654422
aI95683193
aS'-'
asS'AADAC'
p532
(lp533
I151814072
aI151828488
aS'+'
asS'IL1RAP'
p534
(lp535
I190514084
aI190659750
aS'+'
asS'PIGX'
p536
(lp537
I196712373
aI196736005
aS'+'
asS'PIGZ'
p538
(lp539
I196946342
aI196968871
aS'-'
asS'KIAA1143'
p540
(lp541
I44748743
aI44761681
aS'-'
asS'KLHL6'
p542
(lp543
I183487527
aI183555712
aS'-'
asS'LINC01279'
p544
(lp545
I112596793
aI112601969
aS'-'
asS'CCDC174'
p546
(lp547
I14651745
aI14672659
aS'+'
asS'RBP2'
p548
(lp549
I139452883
aI139476510
aS'-'
asS'MIR8064'
p550
(lp551
I52846462
aI52846552
aS'-'
asS'MIR8060'
p552
(lp553
I96359963
aI96360039
aS'+'
asS'COL6A5'
p554
(lp555
I130345515
aI130484846
aS'+'
asS'SEC61A1'
p556
(lp557
I128052368
aI128071683
aS'+'
asS'COL6A6'
p558
(lp559
I130560333
aI130678137
aS'+'
asS'PDCL3P4'
p560
(lp561
I101712433
aI101713416
aS'+'
asS'WDR5B'
p562
(lp563
I122411852
aI122416035
aS'-'
asS'OGG1'
p564
(lp565
I9749943
aI9766669
aS'+'
asS'SNORA63E'
p566
(lp567
I183453813
aI183453946
aS'+'
asS'C3orf33'
p568
(lp569
I155762611
aI155806287
aS'-'
asS'C3orf36'
p570
(lp571
I133928145
aI133929812
aS'-'
asS'LOC102724297'
p572
(lp573
I46364659
aI46407059
aS'-'
asS'RBP1'
p574
(lp575
I139517433
aI139539742
aS'-'
asS'LOC100289361'
p576
(lp577
I143000844
aI143001467
aS'-'
asS'ABHD6'
p578
(lp579
I58237501
aI58294736
aS'+'
asS'ABHD5'
p580
(lp581
I43690869
aI43734371
aS'+'
asS'NKIRAS1'
p582
(lp583
I23892080
aI23917046
aS'-'
asS'TWF2'
p584
(lp585
I52228609
aI52239167
aS'-'
asS'WDR53'
p586
(lp587
I196554178
aI196568674
aS'-'
asS'SGO1'
p588
(lp589
I20160592
aI20186233
aS'-'
asS'NR1I2'
p590
(lp591
I119780483
aI119818485
aS'+'
asS'CFAP100'
p592
(lp593
I126394938
aI126436555
aS'+'
asS'TM4SF19-TCTEX1D2'
p594
(lp595
I196316084
aI196338420
aS'-'
asS'EIF4G1'
p596
(lp597
I184314494
aI184335358
aS'+'
asS'IL20RB'
p598
(lp599
I136957864
aI137011084
aS'+'
asS'RASSF1'
p600
(lp601
I50329785
aI50340936
aS'-'
asS'NEK10'
p602
(lp603
I27110902
aI27369460
aS'-'
asS'NEK11'
p604
(lp605
I131026849
aI131350465
aS'+'
asS'SLC6A1-AS1'
p606
(lp607
I11006097
aI11019224
aS'-'
asS'UROC1'
p608
(lp609
I126481164
aI126517773
aS'-'
asS'ABHD10'
p610
(lp611
I111978875
aI111993368
aS'+'
asS'SNORA7B'
p612
(lp613
I129397209
aI129397348
aS'-'
asS'SNORA7A'
p614
(lp615
I12840311
aI12840450
aS'-'
asS'CDC25A'
p616
(lp617
I48157177
aI48188311
aS'-'
asS'C3orf52'
p618
(lp619
I112086334
aI112118226
aS'+'
asS'PLA1A'
p620
(lp621
I119597847
aI119629811
aS'+'
asS'C3orf56'
p622
(lp623
I127193130
aI127198184
aS'+'
asS'DCUN1D1'
p624
(lp625
I182938157
aI182985953
aS'-'
asS'DAG1'
p626
(lp627
I49468702
aI49535618
aS'+'
asS'ELP6'
p628
(lp629
I47495639
aI47513709
aS'-'
asS'CHDH'
p630
(lp631
I53816296
aI53846393
aS'-'
asS'RHOA'
p632
(lp633
I49359135
aI49412097
aS'-'
asS'LSM3'
p634
(lp635
I14178727
aI14198369
aS'+'
asS'POLR2H'
p636
(lp637
I184361713
aI184368595
aS'+'
asS'ANKRD28'
p638
(lp639
I15667235
aI15859546
aS'-'
asS'PLSCR4'
p640
(lp641
I146192335
aI146251179
aS'-'
asS'PLSCR5'
p642
(lp643
I146576554
aI146606216
aS'-'
asS'PLSCR2'
p644
(lp645
I146433287
aI146495991
aS'-'
asS'LRIG1'
p646
(lp647
I66378796
aI66500421
aS'-'
asS'PLSCR1'
p648
(lp649
I146515179
aI146544841
aS'-'
asS'KLHL40'
p650
(lp651
I42685518
aI42692446
aS'+'
asS'IL17RE'
p652
(lp653
I9902611
aI9916400
aS'+'
asS'IL17RD'
p654
(lp655
I57089981
aI57170317
aS'-'
asS'RNF123'
p656
(lp657
I49689498
aI49721529
aS'+'
asS'IL17RB'
p658
(lp659
I53846549
aI53865800
aS'+'
asS'ITPR1-DT'
p660
(lp661
I4490316
aI4493163
aS'-'
asS'IQCF6'
p662
(lp663
I51778560
aI51779187
aS'-'
asS'IQCF4'
p664
(lp665
I51817602
aI51819635
aS'+'
asS'IQCF5'
p666
(lp667
I51873720
aI51875584
aS'-'
asS'IQCF2'
p668
(lp669
I51861628
aI51863424
aS'+'
asS'IQCF3'
p670
(lp671
I51826882
aI51830858
aS'+'
asS'IQCF1'
p672
(lp673
I51894875
aI51903370
aS'-'
asS'TMEM110-MUSTN1'
p674
(lp675
I52833114
aI52897581
aS'-'
asS'GADL1'
p676
(lp677
I30726199
aI30894661
aS'-'
asS'FAM86JP'
p678
(lp679
I125916600
aI125930024
aS'+'
asS'ZNF620'
p680
(lp681
I40506038
aI40518221
aS'+'
asS'ZNF621'
p682
(lp683
I40524877
aI40539794
aS'+'
asS'NECTIN3'
p684
(lp685
I111072167
aI111194169
aS'+'
asS'RAP2B'
p686
(lp687
I153162211
aI153170624
aS'+'
asS'SIAH2'
p688
(lp689
I150741122
aI150763148
aS'-'
asS'IL12A-AS1'
p690
(lp691
I159913400
aI160207092
aS'-'
asS'LYZL4'
p692
(lp693
I42397077
aI42410602
aS'-'
asS'FAM3D-AS1'
p694
(lp695
I58607079
aI58634440
aS'+'
asS'PLCD1'
p696
(lp697
I38007495
aI38029663
aS'-'
asS'PDZRN3'
p698
(lp699
I73382430
aI73624941
aS'-'
asS'B3GALNT1'
p700
(lp701
I161083882
aI161105372
aS'-'
asS'TM4SF1-AS1'
p702
(lp703
I149377777
aI149386583
aS'+'
asS'TMEM108-AS1'
p704
(lp705
I133246447
aI133257121
aS'-'
asS'CD200R1L'
p706
(lp707
I112815708
aI112845950
aS'-'
asS'TMA7'
p708
(lp709
I48440237
aI48444208
aS'+'
asS'KALRN'
p710
(lp711
I124094680
aI124726325
aS'+'
asS'LINC02069'
p712
(lp713
I184756388
aI184773155
aS'-'
asS'TDGF1'
p714
(lp715
I46574554
aI46582462
aS'+'
asS'GNAT1'
p716
(lp717
I50191609
aI50197696
aS'+'
asS'LINC02067'
p718
(lp719
I161426426
aI161448242
aS'+'
asS'LAMB2P1'
p720
(lp721
I49152858
aI49154401
aS'-'
asS'H1FX-AS1'
p722
(lp723
I129316270
aI129324569
aS'+'
asS'TRAT1'
p724
(lp725
I108822697
aI108855005
aS'+'
asS'HIGD1A'
p726
(lp727
I42782907
aI42804535
aS'-'
asS'MLH1'
p728
(lp729
I36993349
aI37050846
aS'+'
asS'AADACL2-AS1'
p730
(lp731
I151751178
aI151928175
aS'-'
asS'SNORD2'
p732
(lp733
I186784795
aI186784865
aS'+'
asS'ANKRD18DP'
p734
(lp735
I198057530
aI198080671
aS'-'
asS'TMPRSS7'
p736
(lp737
I112039617
aI112081269
aS'+'
asS'TCTEX1D2'
p738
(lp739
I196291218
aI196318294
aS'-'
asS'LRRC58'
p740
(lp741
I120324728
aI120349339
aS'-'
asS'NICN1'
p742
(lp743
I49422332
aI49429324
aS'-'
asS'RPL32'
p744
(lp745
I12834944
aI12841582
aS'-'
asS'LOC101929054'
p746
(lp747
I52239237
aI52241097
aS'+'
asS'KLHDC8B'
p748
(lp749
I49171597
aI49176486
aS'+'
asS'MIR548BB'
p750
(lp751
I60617804
aI60617870
aS'-'
asS'BAP1'
p752
(lp753
I52401008
aI52410008
aS'-'
asS'SMARCC1'
p754
(lp755
I47585887
aI47781915
aS'-'
asS'RYK'
p756
(lp757
I134157133
aI134250744
aS'-'
asS'SNORD136'
p758
(lp759
I52688886
aI52689033
aS'+'
asS'DLG1'
p760
(lp761
I197042559
aI197299321
aS'-'
asS'LINC01266'
p762
(lp763
I592104
aI846015
aS'+'
asS'LINC01267'
p764
(lp765
I14348450
aI14352568
aS'-'
asS'MIR8076'
p766
(lp767
I113432117
aI113432200
aS'-'
asS'SAMMSON'
p768
(lp769
I69999743
aI70015300
aS'+'
asS'CHL1-AS2'
p770
(lp771
I195757
aI197341
aS'-'
asS'CHL1-AS1'
p772
(lp773
I363372
aI385795
aS'-'
asS'DAZL'
p774
(lp775
I16586793
aI16605499
aS'-'
asS'NLGN1-AS1'
p776
(lp777
I173910498
aI173920796
aS'-'
asS'SLC38A3'
p778
(lp779
I50205245
aI50220979
aS'+'
asS'IFRD2'
p780
(lp781
I50287731
aI50292595
aS'-'
asS'ALS2CL'
p782
(lp783
I46668994
aI46693713
aS'-'
asS'SNORD13J'
p784
(lp785
I47250518
aI47250609
aS'-'
asS'LOC101927854'
p786
(lp787
I24151323
aI24189956
aS'+'
asS'EIF2A'
p788
(lp789
I150546677
aI150586016
aS'+'
asS'WDR48'
p790
(lp791
I39051985
aI39096670
aS'+'
asS'WDR49'
p792
(lp793
I167478684
aI167658003
aS'-'
asS'BHLHE40-AS1'
p794
(lp795
I4896808
aI4979961
aS'-'
asS'TBC1D23'
p796
(lp797
I100260816
aI100325252
aS'+'
asS'VIPR1-AS1'
p798
(lp799
I42530895
aI42532606
aS'-'
asS'ZIC4'
p800
(lp801
I147386047
aI147406809
aS'-'
asS'ZIC1'
p802
(lp803
I147409364
aI147416719
aS'+'
asS'GRM7'
p804
(lp805
I6861114
aI7741533
aS'+'
asS'GRM2'
p806
(lp807
I51707032
aI51718609
aS'+'
asS'SLC35G2'
p808
(lp809
I136819018
aI136855892
aS'+'
asS'SENP7'
p810
(lp811
I101324188
aI101513241
aS'-'
asS'SENP5'
p812
(lp813
I196867855
aI196934713
aS'+'
asS'SENP2'
p814
(lp815
I185586242
aI185631097
aS'+'
asS'PPARG'
p816
(lp817
I12287484
aI12434356
aS'+'
asS'ARPC4'
p818
(lp819
I9792494
aI9807105
aS'+'
asS'LMOD3'
p820
(lp821
I69108671
aI69122595
aS'-'
asS'DYNC1LI1'
p822
(lp823
I32525970
aI32570924
aS'-'
asS'MIR191'
p824
(lp825
I49020617
aI49020709
aS'-'
asS'MIR198'
p826
(lp827
I120395667
aI120395729
aS'-'
asS'MKRN2'
p828
(lp829
I12557013
aI12583711
aS'+'
asS'LHFPL4'
p830
(lp831
I9498360
aI9553822
aS'-'
asS'MIR16-2'
p832
(lp833
I160404744
aI160404825
aS'+'
asS'SNORA62'
p834
(lp835
I39411053
aI39411207
aS'+'
asS'SNORA63'
p836
(lp837
I186787298
aI186787433
aS'+'
asS'ITPR1'
p838
(lp839
I4493347
aI4847840
aS'+'
asS'PTX3'
p840
(lp841
I157436849
aI157443632
aS'+'
asS'LOC100131635'
p842
(lp843
I187702365
aI187732415
aS'+'
asS'BSN'
p844
(lp845
I49554488
aI49671549
aS'+'
asS'CISH'
p846
(lp847
I50606453
aI50611831
aS'-'
asS'CD200R1L-AS1'
p848
(lp849
I112802477
aI112820216
aS'+'
asS'CD200R1'
p850
(lp851
I112922684
aI112975090
aS'-'
asS'LIMD1'
p852
(lp853
I45594830
aI45681263
aS'+'
asS'P4HTM'
p854
(lp855
I48989907
aI49007148
aS'+'
asS'PRSS46P'
p856
(lp857
I46719582
aI46736427
aS'-'
asS'TMPPE'
p858
(lp859
I33090422
aI33097146
aS'-'
asS'FGD5P1'
p860
(lp861
I13933055
aI13936944
aS'+'
asS'AADACL2'
p862
(lp863
I151733915
aI151757768
aS'+'
asS'ZNF639'
p864
(lp865
I179323030
aI179338583
aS'+'
asS'ACPP'
p866
(lp867
I132317366
aI132368302
aS'+'
asS'MIR466'
p868
(lp869
I31161703
aI31161787
aS'-'
asS'PBRM1'
p870
(lp871
I52545351
aI52685913
aS'-'
asS'MME'
p872
(lp873
I155024123
aI155183729
aS'+'
asS'C3orf49'
p874
(lp875
I63815109
aI63848636
aS'+'
asS'KIF9-AS1'
p876
(lp877
I47164369
aI47244116
aS'+'
asS'MAP4'
p878
(lp879
I47850689
aI48089279
aS'-'
asS'ERC2'
p880
(lp881
I55508310
aI56468467
aS'-'
asS'SMCO1'
p882
(lp883
I196506876
aI196515366
aS'-'
asS'LARS2'
p884
(lp885
I45388582
aI45548836
aS'+'
asS'MIR548AY'
p886
(lp887
I32506282
aI32506389
aS'-'
asS'LOC101928135'
p888
(lp889
I34875795
aI35394023
aS'-'
asS'SELENOT'
p890
(lp891
I150603262
aI150630447
aS'+'
asS'SELENOK'
p892
(lp893
I53884975
aI53892015
aS'-'
asS'DOCK3'
p894
(lp895
I50675240
aI51384198
aS'+'
asS'MIR548AB'
p896
(lp897
I103524032
aI103524116
aS'-'
asS'TRA2B'
p898
(lp899
I185914569
aI185938136
aS'-'
asS'BFSP2'
p900
(lp901
I133399994
aI133475212
aS'+'
asS'LINC02077'
p902
(lp903
I78038704
aI78048963
aS'-'
asS'P2RY1'
p904
(lp905
I152834692
aI152841439
aS'+'
asS'LINC02070'
p906
(lp907
I86481942
aI86496996
aS'+'
asS'POU1F1'
p908
(lp909
I87259632
aI87276587
aS'-'
asS'MIR6829'
p910
(lp911
I195882328
aI195882395
aS'-'
asS'MIR6828'
p912
(lp913
I170423102
aI170423162
aS'+'
asS'MIR6823'
p914
(lp915
I48549960
aI48550021
aS'-'
asS'MIR6822'
p916
(lp917
I39138205
aI39138266
aS'+'
asS'MUSTN1'
p918
(lp919
I52833114
aI52835219
aS'-'
asS'LOC102723582'
p920
(lp921
I122416205
aI122443247
aS'+'
asS'MIR6826'
p922
(lp923
I129272145
aI129272243
aS'+'
asS'MIR6825'
p924
(lp925
I127575265
aI127575331
aS'-'
asS'MIR6824'
p926
(lp927
I48633635
aI48633698
aS'-'
asS'MAP3K13'
p928
(lp929
I185282940
aI185489094
aS'+'
asS'STXBP5L'
p930
(lp931
I120908202
aI121424761
aS'+'
asS'TCAIM'
p932
(lp933
I44338118
aI44409448
aS'+'
asS'TGM4'
p934
(lp935
I44874605
aI44914596
aS'+'
asS'LOC646903'
p936
(lp937
I149971278
aI149973242
aS'+'
asS'ATP13A5'
p938
(lp939
I193274788
aI193378843
aS'-'
asS'ZXDC'
p940
(lp941
I126437600
aI126475919
aS'-'
asS'CLSTN2'
p942
(lp943
I139935184
aI140568077
aS'+'
asS'GNL3'
p944
(lp945
I52685919
aI52694494
aS'+'
asS'B3GNT5'
p946
(lp947
I183253252
aI183273385
aS'+'
asS'RARB'
p948
(lp949
I24829322
aI25597931
aS'+'
asS'SETD5'
p950
(lp951
I9397699
aI9478154
aS'+'
asS'OR5AC2'
p952
(lp953
I98087172
aI98088102
aS'+'
asS'LINC01991'
p954
(lp955
I187958774
aI187976407
aS'-'
asS'CCNL1'
p956
(lp957
I157146501
aI157160760
aS'-'
asS'PQLC2L'
p958
(lp959
I157543343
aI157601232
aS'+'
asS'TBCCD1'
p960
(lp961
I186546066
aI186570543
aS'-'
asS'GHRLOS'
p962
(lp963
I10280951
aI10293449
aS'+'
asS'TSC22D2'
p964
(lp965
I150408334
aI150460118
aS'+'
asS'EDEM1'
p966
(lp967
I5187673
aI5219965
aS'+'
asS'HRG'
p968
(lp969
I186665951
aI186678240
aS'+'
asS'DZIP3'
p970
(lp971
I108589489
aI108694846
aS'+'
asS'OSBPL10'
p972
(lp973
I31660824
aI31981850
aS'-'
asS'OSBPL11'
p974
(lp975
I125528857
aI125595537
aS'-'
asS'TRAIP'
p976
(lp977
I49828594
aI49856559
aS'-'
asS'FAM172BP'
p978
(lp979
I101518866
aI101523887
aS'+'
asS'RHO'
p980
(lp981
I129528638
aI129535344
aS'+'
asS'ATRIP-TREX1'
p982
(lp983
I48446778
aI48467645
aS'+'
asS'COLQ'
p984
(lp985
I15450132
aI15521751
aS'-'
asS'SCHIP1'
p986
(lp987
I159273246
aI159897366
aS'+'
asS'MDFIC2'
p988
(lp989
I70194478
aI70312638
aS'-'
asS'EXOSC7'
p990
(lp991
I44976248
aI45012666
aS'+'
asS'LOC101927829'
p992
(lp993
I20342467
aI20350928
aS'+'
asS'C3orf67-AS1'
p994
(lp995
I58824470
aI59019093
aS'+'
asS'LINC01327'
p996
(lp997
I167392795
aI167408519
aS'+'
asS'ATRIP'
p998
(lp999
I48446709
aI48465655
aS'+'
asS'LINC01324'
p1000
(lp1001
I164714094
aI164831480
aS'-'
asS'LINC01322'
p1002
(lp1003
I165206959
aI165513728
aS'+'
asS'NCBP2'
p1004
(lp1005
I196935401
aI196942593
aS'-'
asS'UBP1'
p1006
(lp1007
I33388335
aI33440405
aS'-'
asS'ATP13A4-AS1'
p1008
(lp1009
I193553212
aI193555584
aS'+'
asS'EXOG'
p1010
(lp1011
I38496271
aI38526305
aS'+'
asS'LINC00690'
p1012
(lp1013
I16536317
aI16541373
aS'+'
asS'LINC00691'
p1014
(lp1015
I24099973
aI24103247
aS'-'
asS'LINC00692'
p1016
(lp1017
I25858531
aI25873695
aS'-'
asS'LINC00693'
p1018
(lp1019
I28575277
aI28758337
aS'+'
asS'LINC00696'
p1020
(lp1021
I52062093
aI52065112
aS'-'
asS'LINC00698'
p1022
(lp1023
I63102687
aI63125061
aS'+'
asS'GUCA1C'
p1024
(lp1025
I108907794
aI108953846
aS'-'
asS'MIR3135A'
p1026
(lp1027
I20137564
aI20137641
aS'+'
asS'TBC1D5'
p1028
(lp1029
I17157161
aI17742739
aS'-'
asS'ATR'
p1030
(lp1031
I142449234
aI142578826
aS'-'
asS'DNAJB8'
p1032
(lp1033
I128462431
aI128467248
aS'-'
asS'H1FX'
p1034
(lp1035
I129314770
aI129316286
aS'-'
asS'OXSM'
p1036
(lp1037
I25790071
aI25794534
aS'+'
asS'CRYBG3'
p1038
(lp1039
I97822039
aI97944986
aS'+'
asS'ENTPD3-AS1'
p1040
(lp1041
I40390950
aI40453308
aS'-'
asS'PODXL2'
p1042
(lp1043
I127629158
aI127672810
aS'+'
asS'U2SURP'
p1044
(lp1045
I143001529
aI143060725
aS'+'
asS'LINC00901'
p1046
(lp1047
I116921430
aI116932238
aS'+'
asS'LINC00903'
p1048
(lp1049
I116552472
aI116568441
aS'+'
asS'LRRFIP2'
p1050
(lp1051
I37052625
aI37176360
aS'-'
asS'ACOX2'
p1052
(lp1053
I58505135
aI58537202
aS'-'
asS'SLC22A14'
p1054
(lp1055
I38282293
aI38318575
aS'+'
asS'KNG1'
p1056
(lp1057
I186717308
aI186744410
aS'+'
asS'SLC22A13'
p1058
(lp1059
I38265806
aI38278315
aS'+'
asS'MIR2115'
p1060
(lp1061
I48316359
aI48316459
aS'-'
asS'AMOTL2'
p1062
(lp1063
I134355344
aI134375417
aS'-'
asS'FAM86HP'
p1064
(lp1065
I130097781
aI130111433
aS'-'
asS'MGLL'
p1066
(lp1067
I127689061
aI127823250
aS'-'
asS'XCR1'
p1068
(lp1069
I46020798
aI46027487
aS'-'
asS'EOMES'
p1070
(lp1071
I27715948
aI27722715
aS'-'
asS'C3orf30'
p1072
(lp1073
I119146149
aI119151455
aS'+'
asS'DNAJC13'
p1074
(lp1075
I132417659
aI132539032
aS'+'
asS'C3orf35'
p1076
(lp1077
I37399476
aI37435497
aS'+'
asS'C3orf38'
p1078
(lp1079
I88149742
aI88157965
aS'+'
asS'DNAJC19'
p1080
(lp1081
I180983709
aI180989774
aS'-'
asS'PRKCI'
p1082
(lp1083
I170222431
aI170305982
aS'+'
asS'IL17RC'
p1084
(lp1085
I9917073
aI9933621
aS'+'
asS'NUDT16P1'
p1086
(lp1087
I131361844
aI131365122
aS'+'
asS'PRKCD'
p1088
(lp1089
I53161206
aI53192717
aS'+'
asS'KBTBD12'
p1090
(lp1091
I127923058
aI127987671
aS'+'
asS'DPPA2P3'
p1092
(lp1093
I193993093
aI193994238
aS'-'
asS'MIR1224'
p1094
(lp1095
I184241404
aI184241489
aS'+'
asS'MIR1226'
p1096
(lp1097
I47849554
aI47849629
aS'+'
asS'BDH1'
p1098
(lp1099
I197509782
aI197573323
aS'-'
asS'SLC6A20'
p1100
(lp1101
I45755448
aI45796543
aS'-'
asS'LOC101928105'
p1102
(lp1103
I150734470
aI150738985
aS'-'
asS'ACVR2B-AS1'
p1104
(lp1105
I38451026
aI38454820
aS'-'
asS'ZPLD1'
p1106
(lp1107
I102435014
aI102479841
aS'+'
asS'ACKR4'
p1108
(lp1109
I132597236
aI132602641
aS'+'
asS'PFKFB4'
p1110
(lp1111
I48517683
aI48561180
aS'-'
asS'ACKR2'
p1112
(lp1113
I42809471
aI42867283
aS'+'
asS'SLC9A9-AS1'
p1114
(lp1115
I143342245
aI143347071
aS'+'
asS'RPL32P3'
p1116
(lp1117
I129382833
aI129399439
aS'-'
asS'ROBO2'
p1118
(lp1119
I77040142
aI77649963
aS'+'
asS'MIR5588'
p1120
(lp1121
I185253209
aI185253272
aS'-'
asS'SNAR-I'
p1122
(lp1123
I190877929
aI190878050
aS'+'
asS'FAM3D'
p1124
(lp1125
I58633942
aI58666834
aS'-'
asS'PPP4R2'
p1126
(lp1127
I72996742
aI73069201
aS'+'
asS'LINC02043'
p1128
(lp1129
I186810879
aI186825521
aS'-'
asS'LINC02042'
p1130
(lp1131
I112736448
aI112749319
aS'-'
asS'LINC02041'
p1132
(lp1133
I187447045
aI187449949
aS'+'
asS'LINC02046'
p1134
(lp1135
I148280890
aI148399956
aS'+'
asS'LINC02044'
p1136
(lp1137
I113142349
aI113167731
aS'-'
asS'LINC02049'
p1138
(lp1139
I120812180
aI120836357
aS'-'
asS'LOC440982'
p1140
(lp1141
I147421326
aI147509910
aS'+'
asS'PPP1R2'
p1142
(lp1143
I195514421
aI195543401
aS'-'
asS'SEMA3B-AS1'
p1144
(lp1145
I50266640
aI50267371
aS'-'
asS'NUP210'
p1146
(lp1147
I13316229
aI13420319
aS'-'
asS'YEATS2-AS1'
p1148
(lp1149
I183807063
aI183810451
aS'-'
asS'FAM131A'
p1150
(lp1151
I184335925
aI184346275
aS'+'
asS'CIP2A'
p1152
(lp1153
I108549870
aI108589644
aS'-'
asS'DLG1-AS1'
p1154
(lp1155
I197298246
aI197303750
aS'+'
asS'CCDC71'
p1156
(lp1157
I49162534
aI49166352
aS'-'
asS'KCNAB1'
p1158
(lp1159
I156120547
aI156539138
aS'+'
asS'RPL14'
p1160
(lp1161
I40457291
aI40462372
aS'+'
asS'RPL15'
p1162
(lp1163
I23916544
aI23924631
aS'+'
asS'TMEM108'
p1164
(lp1165
I133038287
aI133397775
aS'+'
asS'IQCJ-SCHIP1'
p1166
(lp1167
I159069251
aI159897366
aS'+'
asS'SETD2'
p1168
(lp1169
I47016407
aI47163977
aS'-'
asS'EHHADH'
p1170
(lp1171
I185190623
aI185254098
aS'-'
asS'LINC02618'
p1172
(lp1173
I141663198
aI141721074
aS'+'
asS'PCYT1A'
p1174
(lp1175
I196234367
aI196287726
aS'-'
asS'NME6'
p1176
(lp1177
I48292316
aI48301685
aS'-'
asS'TRANK1'
p1178
(lp1179
I36826816
aI36945057
aS'-'
asS'NME9'
p1180
(lp1181
I138261436
aI138329886
aS'-'
asS'ZCWPW2'
p1182
(lp1183
I28349148
aI28526366
aS'+'
asS'LXN'
p1184
(lp1185
I158666413
aI158672693
aS'-'
asS'VENTXP7'
p1186
(lp1187
I21405725
aI21406685
aS'+'
asS'LOC101929411'
p1188
(lp1189
I102163704
aI102164871
aS'+'
asS'HMCES'
p1190
(lp1191
I129278869
aI129306185
aS'+'
asS'UBA7'
p1192
(lp1193
I49805204
aI49813958
aS'-'
asS'UBA5'
p1194
(lp1195
I132654445
aI132678107
aS'+'
asS'UBA3'
p1196
(lp1197
I69054729
aI69080373
aS'-'
asS'SPICE1'
p1198
(lp1199
I113442717
aI113515187
aS'-'
asS'EEF1AKMT4'
p1200
(lp1201
I184249656
aI184258759
aS'+'
asS'FAM162A'
p1202
(lp1203
I122384175
aI122410114
aS'+'
asS'CDHR4'
p1204
(lp1205
I49790733
aI49799873
aS'-'
asS'SHQ1'
p1206
(lp1207
I72749276
aI72848447
aS'-'
asS'NRROS'
p1208
(lp1209
I196639693
aI196662003
aS'+'
asS'HLTF'
p1210
(lp1211
I149030063
aI149086554
aS'-'
asS'TMCC1-AS1'
p1212
(lp1213
I129893870
aI129908912
aS'+'
asS'CRYGS'
p1214
(lp1215
I186538442
aI186544380
aS'-'
asS'UBE2E2-AS1'
p1216
(lp1217
I23195070
aI23202993
aS'-'
asS'EOGT'
p1218
(lp1219
I68975211
aI69013894
aS'-'
asS'SRPRB'
p1220
(lp1221
I133784032
aI133821492
aS'+'
asS'TMCC1'
p1222
(lp1223
I129647791
aI129893576
aS'-'
asS'TSEN2'
p1224
(lp1225
I12484431
aI12539624
aS'+'
asS'CASR'
p1226
(lp1227
I122183682
aI122286497
aS'+'
asS'NMNAT3'
p1228
(lp1229
I139560180
aI139678050
aS'-'
asS'GPR87'
p1230
(lp1231
I151294085
aI151316848
aS'-'
asS'TPRXL'
p1232
(lp1233
I13937306
aI14065981
aS'+'
asS'LOC105374297'
p1234
(lp1235
I195646634
aI195652159
aS'-'
asS'CNTN4-AS1'
p1236
(lp1237
I3039660
aI3061145
aS'-'
asS'EEFSEC'
p1238
(lp1239
I128153456
aI128408646
aS'+'
asS'FAIM'
p1240
(lp1241
I138608699
aI138633371
aS'+'
asS'QARS'
p1242
(lp1243
I49095931
aI49105129
aS'-'
asS'TBL1XR1'
p1244
(lp1245
I177019354
aI177197326
aS'-'
asS'RBSN'
p1246
(lp1247
I15070068
aI15099157
aS'-'
asS'SNRK'
p1248
(lp1249
I43286511
aI43351142
aS'+'
asS'LRRN1'
p1250
(lp1251
I3799430
aI3849834
aS'+'
asS'LINC00578'
p1252
(lp1253
I177441920
aI177752704
aS'+'
asS'FRMD4B'
p1254
(lp1255
I69168782
aI69386304
aS'-'
asS'STX19'
p1256
(lp1257
I94014370
aI94028610
aS'-'
asS'PTPRG-AS1'
p1258
(lp1259
I62261818
aI62318947
aS'-'
asS'MELTF'
p1260
(lp1261
I197001740
aI197029817
aS'-'
asS'LINC02068'
p1262
(lp1263
I172560900
aI172595607
aS'-'
asS'SCAANT1'
p1264
(lp1265
I63911517
aI63911772
aS'-'
asS'LINC00971'
p1266
(lp1267
I84638404
aI84869575
aS'-'
asS'ATP11B'
p1268
(lp1269
I182793502
aI182921633
aS'+'
asS'RBMS3'
p1270
(lp1271
I29281311
aI30010395
aS'+'
asS'ARPC4-TTLL3'
p1272
(lp1273
I9792547
aI9836356
aS'+'
asS'CNTN4-AS2'
p1274
(lp1275
I2110408
aI2144241
aS'-'
asS'KLF15'
p1276
(lp1277
I126342634
aI126357393
aS'-'
asS'MIR26A1'
p1278
(lp1279
I37969403
aI37969480
aS'+'
asS'OR5H15'
p1280
(lp1281
I98168699
aI98169641
aS'+'
asS'OR5H14'
p1282
(lp1283
I98149385
aI98150318
aS'+'
asS'GBE1'
p1284
(lp1285
I81489698
aI81761799
aS'-'
asS'CEP63'
p1286
(lp1287
I134485723
aI134575013
aS'+'
asS'PCNP'
p1288
(lp1289
I101574093
aI101594466
aS'+'
asS'MCM2'
p1290
(lp1291
I127598356
aI127622435
aS'+'
asS'STIMATE'
p1292
(lp1293
I52836755
aI52897581
aS'-'
asS'ZDHHC23'
p1294
(lp1295
I113947900
aI113963373
aS'+'
asS'TM4SF19-AS1'
p1296
(lp1297
I196318331
aI196325570
aS'+'
asS'ANO10'
p1298
(lp1299
I43366325
aI43691594
aS'-'
asS'C3orf20'
p1300
(lp1301
I14675098
aI14773036
aS'+'
asS'C3orf22'
p1302
(lp1303
I126526998
aI126558965
aS'-'
asS'ISY1-RAB43'
p1304
(lp1305
I129087568
aI129161230
aS'-'
asS'TIMP4'
p1306
(lp1307
I12153067
aI12159351
aS'-'
asS'MIR885'
p1308
(lp1309
I10394488
aI10394562
aS'-'
asS'MCF2L2'
p1310
(lp1311
I183178003
aI183428269
aS'-'
asS'CHMP2B'
p1312
(lp1313
I87227262
aI87255548
aS'+'
asS'MUC20'
p1314
(lp1315
I195720881
aI195733553
aS'+'
asS'BOC'
p1316
(lp1317
I113211464
aI113287463
aS'+'
asS'ZNF148'
p1318
(lp1319
I125225668
aI125375354
aS'-'
asS'SUSD5'
p1320
(lp1321
I33150042
aI33218810
aS'-'
asS'PHC3'
p1322
(lp1323
I170087579
aI170181749
aS'-'
asS'LPP-AS1'
p1324
(lp1325
I188562236
aI188568666
aS'-'
asS'TMF1'
p1326
(lp1327
I69019826
aI69052333
aS'-'
asS'LPP-AS2'
p1328
(lp1329
I188151205
aI188154088
aS'-'
asS'LINC02054'
p1330
(lp1331
I184401536
aI184439648
aS'+'
asS'LSG1'
p1332
(lp1333
I194640787
aI194672477
aS'-'
asS'QTRT2'
p1334
(lp1335
I114056734
aI114088421
aS'+'
asS'LINC02052'
p1336
(lp1337
I186454980
aI186493661
aS'-'
asS'LINC02053'
p1338
(lp1339
I180414172
aI180422501
aS'+'
asS'IP6K2'
p1340
(lp1341
I48688002
aI48717278
aS'-'
asS'IP6K1'
p1342
(lp1343
I49724294
aI49786540
aS'-'
asS'ROBO1'
p1344
(lp1345
I78597238
aI79767998
aS'-'
asS'CCDC80'
p1346
(lp1347
I112604385
aI112641143
aS'-'
asS'MST1R'
p1348
(lp1349
I49887002
aI49903873
aS'-'
asS'CCR2'
p1350
(lp1351
I46353743
aI46360922
aS'+'
asS'GASK1A'
p1352
(lp1353
I42979266
aI43057716
aS'+'
asS'RNF7'
p1354
(lp1355
I141738208
aI141746803
aS'+'
asS'GRIP2'
p1356
(lp1357
I14489110
aI14540343
aS'-'
asS'OPA1-AS1'
p1358
(lp1359
I193618598
aI193627332
aS'-'
asS'NIT2'
p1360
(lp1361
I100334717
aI100355634
aS'+'
asS'CCDC66'
p1362
(lp1363
I56557155
aI56621820
aS'+'
asS'MIR5682'
p1364
(lp1365
I121049639
aI121049715
aS'+'
asS'TRAK1'
p1366
(lp1367
I42087199
aI42225890
aS'+'
asS'MIR5688'
p1368
(lp1369
I85385709
aI85385792
aS'+'
asS'NFKBIZ'
p1370
(lp1371
I101827989
aI101861025
aS'+'
asS'NMRAL2P'
p1372
(lp1373
I185959942
aI185980876
aS'+'
asS'OTOL1'
p1374
(lp1375
I161496807
aI161503942
aS'+'
asS'NGLY1'
p1376
(lp1377
I25718943
aI25790039
aS'-'
asS'TMEM115'
p1378
(lp1379
I50354748
aI50359508
aS'-'
asS'NMD3'
p1380
(lp1381
I161221289
aI161253532
aS'+'
asS'PRRT3-AS1'
p1382
(lp1383
I9947403
aI9954787
aS'+'
asS'MED12L'
p1384
(lp1385
I151086797
aI151436677
aS'+'
asS'SLC35A5'
p1386
(lp1387
I112561319
aI112585577
aS'+'
asS'LOC653712'
p1388
(lp1389
I128861507
aI128871541
aS'-'
asS'LSAMP-AS1'
p1390
(lp1391
I116360023
aI116370085
aS'+'
asS'RASSF1-AS1'
p1392
(lp1393
I50337510
aI50338296
aS'+'
asS'GRM7-AS1'
p1394
(lp1395
I7519740
aI7535284
aS'-'
asS'GRM7-AS2'
p1396
(lp1397
I6892636
aI6894017
aS'-'
asS'MYD88'
p1398
(lp1399
I38138660
aI38143021
aS'+'
asS'TOP2B'
p1400
(lp1401
I25597904
aI25664499
aS'-'
asS'TRH'
p1402
(lp1403
I129974719
aI129977935
aS'+'
asS'SLC26A6'
p1404
(lp1405
I48625722
aI48635493
aS'-'
asS'COL6A4P2'
p1406
(lp1407
I130212819
aI130273806
aS'+'
asS'COL6A4P1'
p1408
(lp1409
I15165361
aI15205959
aS'-'
asS'CMSS1'
p1410
(lp1411
I99817833
aI100178632
aS'+'
asS'MINDY4B'
p1412
(lp1413
I150871044
aI150891060
aS'-'
asS'RNU6-8'
p1414
(lp1415
I181231736
aI181231842
aS'+'
asS'RNU6-9'
p1416
(lp1417
I181231736
aI181231843
aS'+'
asS'ACTR8'
p1418
(lp1419
I53867065
aI53882152
aS'-'
asS'UQCRC1'
p1420
(lp1421
I48599001
aI48609646
aS'-'
asS'RNU6-1'
p1422
(lp1423
I181231736
aI181231842
aS'+'
asS'RNU6-2'
p1424
(lp1425
I181231736
aI181231843
aS'+'
asS'DTX3L'
p1426
(lp1427
I122564337
aI122575202
aS'+'
asS'RPL35A'
p1428
(lp1429
I197950189
aI197956610
aS'+'
asS'LINC00501'
p1430
(lp1431
I177294441
aI177323435
aS'+'
asS'ZNF197-AS1'
p1432
(lp1433
I44617127
aI44624797
aS'-'
asS'FYTTD1'
p1434
(lp1435
I197749552
aI197784446
aS'+'
asS'MIR4797'
p1436
(lp1437
I197293877
aI197293948
aS'-'
asS'MIR4796'
p1438
(lp1439
I114743444
aI114743525
aS'-'
asS'MIR4795'
p1440
(lp1441
I87226188
aI87226277
aS'-'
asS'MIR4793'
p1442
(lp1443
I48644193
aI48644280
aS'-'
asS'MSL2'
p1444
(lp1445
I136148917
aI136195846
aS'-'
asS'MIR4791'
p1446
(lp1447
I19314847
aI19314931
aS'-'
asS'MIR4790'
p1448
(lp1449
I5250176
aI5250255
aS'-'
asS'DUSP7'
p1450
(lp1451
I52048920
aI52056445
aS'-'
asS'ERICH6-AS1'
p1452
(lp1453
I150703563
aI150720146
aS'+'
asS'PAQR9'
p1454
(lp1455
I142961230
aI142963336
aS'-'
asS'ZBTB11-AS1'
p1456
(lp1457
I101676429
aI101679213
aS'+'
asS'SETMAR'
p1458
(lp1459
I4303303
aI4317265
aS'+'
asS'ABI3BP'
p1460
(lp1461
I100749334
aI100993490
aS'-'
asS'RIOX2'
p1462
(lp1463
I97941816
aI97972451
aS'-'
asS'WWTR1'
p1464
(lp1465
I149517228
aI149724788
aS'-'
asS'METTL6'
p1466
(lp1467
I15409759
aI15427547
aS'-'
asS'ACTRT3'
p1468
(lp1469
I169766922
aI169769895
aS'-'
asS'LINC01983'
p1470
(lp1471
I195836454
aI195860404
aS'-'
asS'LINC01981'
p1472
(lp1473
I27830885
aI27834136
aS'-'
asS'LINC01980'
p1474
(lp1475
I27797587
aI27860325
aS'+'
asS'LINC01986'
p1476
(lp1477
I11750
aI24501
aS'+'
asS'LINC01985'
p1478
(lp1479
I30518867
aI30527193
aS'+'
asS'LINC01988'
p1480
(lp1481
I44427921
aI44429529
aS'+'
asS'ARHGAP31-AS1'
p1482
(lp1483
I119314292
aI119322760
aS'-'
asS'KCTD6'
p1484
(lp1485
I58492095
aI58502360
aS'+'
asS'LINC01968'
p1486
(lp1487
I194708420
aI194782168
aS'+'
asS'ACAD11'
p1488
(lp1489
I132558137
aI132660131
aS'-'
asS'CPNE9'
p1490
(lp1491
I9703825
aI9729908
aS'+'
asS'PLOD2'
p1492
(lp1493
I146069440
aI146161495
aS'-'
asS'CPNE4'
p1494
(lp1495
I131533559
aI132039606
aS'-'
asS'PXK'
p1496
(lp1497
I58332889
aI58426127
aS'+'
asS'LOC105374194'
p1498
(lp1499
I166898682
aI166931824
aS'+'
asS'DGKG'
p1500
(lp1501
I186147200
aI186362234
aS'-'
asS'NEPRO'
p1502
(lp1503
I113002444
aI113019733
aS'-'
asS'ROPN1'
p1504
(lp1505
I123969015
aI123992170
aS'-'
asS'USP13'
p1506
(lp1507
I179653144
aI179789401
aS'+'
asS'LOC101927374'
p1508
(lp1509
I79411726
aI79435227
aS'+'
asS'LINC00960'
p1510
(lp1511
I75672280
aI75679303
aS'+'
asS'USP19'
p1512
(lp1513
I49108045
aI49120938
aS'-'
asS'KCNAB1-AS2'
p1514
(lp1515
I156215559
aI156227883
aS'-'
asS'KCNAB1-AS1'
p1516
(lp1517
I156441156
aI156446936
aS'-'
asS'RNF168'
p1518
(lp1519
I196468785
aI196503768
aS'-'
asS'LOC100130207'
p1520
(lp1521
I3700813
aI3800875
aS'-'
asS'ZBTB47'
p1522
(lp1523
I42653683
aI42667580
aS'+'
asS'GPR62'
p1524
(lp1525
I51955313
aI51957504
aS'+'
asS'IQCB1'
p1526
(lp1527
I121769760
aI121835079
aS'-'
asS'ZDHHC19'
p1528
(lp1529
I196197451
aI196211437
aS'-'
asS'POGLUT1'
p1530
(lp1531
I119468937
aI119494707
aS'+'
asS'VPS8'
p1532
(lp1533
I184812142
aI185052614
aS'+'
asS'SATB1-AS1'
p1534
(lp1535
I18445236
aI18530114
aS'+'
asS'SYNPR'
p1536
(lp1537
I63278307
aI63616924
aS'+'
asS'PRR23A'
p1538
(lp1539
I139003961
aI139006268
aS'-'
asS'PRR23C'
p1540
(lp1541
I139042101
aI139044892
aS'-'
asS'PRR23B'
p1542
(lp1543
I139019030
aI139020926
aS'-'
asS'PLCH1'
p1544
(lp1545
I155479881
aI155745089
aS'-'
asS'C3orf18'
p1546
(lp1547
I50558024
aI50571027
aS'-'
asS'C3orf14'
p1548
(lp1549
I62318972
aI62336213
aS'+'
asS'SLC9C1'
p1550
(lp1551
I112140904
aI112294258
aS'-'
asS'SLITRK3'
p1552
(lp1553
I165186719
aI165197109
aS'-'
asS'FXR1'
p1554
(lp1555
I180912445
aI180982751
aS'+'
asS'SERP1'
p1556
(lp1557
I150541997
aI150546496
aS'-'
asS'IQCG'
p1558
(lp1559
I197889074
aI197960019
aS'-'
asS'UC.134'
p1560
(lp1561
I158526707
aI158528574
aS'+'
asS'IQCJ'
p1562
(lp1563
I159069251
aI159266307
aS'+'
asS'MUC13'
p1564
(lp1565
I124905441
aI124934751
aS'-'
asS'HLTF-AS1'
p1566
(lp1567
I149086331
aI149102823
aS'+'
asS'LMLN'
p1568
(lp1569
I197960199
aI198043720
aS'+'
asS'CEP70'
p1570
(lp1571
I138494338
aI138594383
aS'-'
asS'EIF5A2'
p1572
(lp1573
I170888417
aI170908637
aS'-'
asS'PLXNA1'
p1574
(lp1575
I126988593
aI127037392
aS'+'
asS'FBXW12'
p1576
(lp1577
I48372218
aI48394725
aS'+'
asS'ZNF197'
p1578
(lp1579
I44625018
aI44648471
aS'+'
asS'SNORD66'
p1580
(lp1581
I184325695
aI184325771
aS'+'
asS'SNORD69'
p1582
(lp1583
I52692735
aI52692812
aS'+'
asS'RUVBL1-AS1'
p1584
(lp1585
I128075809
aI128079056
aS'+'
asS'CHCHD6'
p1586
(lp1587
I126704219
aI126960420
aS'+'
asS'CHCHD4'
p1588
(lp1589
I14112076
aI14124871
aS'-'
asS'MST1'
p1590
(lp1591
I49683946
aI49688763
aS'-'
asS'VWA5B2'
p1592
(lp1593
I184230428
aI184242329
aS'+'
asS'NAALADL2-AS1'
p1594
(lp1595
I175773577
aI175776333
aS'-'
asS'CCDC50'
p1596
(lp1597
I191329084
aI191398670
aS'+'
asS'CCDC51'
p1598
(lp1599
I48432169
aI48440119
aS'-'
asS'IL5RA'
p1600
(lp1601
I3066323
aI3110374
aS'-'
asS'ST3GAL6-AS1'
p1602
(lp1603
I98714332
aI98732651
aS'-'
asS'CCDC54'
p1604
(lp1605
I107377340
aI107378634
aS'+'
asS'KIF9'
p1606
(lp1607
I47228025
aI47282847
aS'-'
asS'CCDC58'
p1608
(lp1609
I122359590
aI122383231
aS'-'
asS'CFAP44-AS1'
p1610
(lp1611
I113403997
aI113433992
aS'+'
asS'XIRP1'
p1612
(lp1613
I39183209
aI39192596
aS'-'
asS'COMMD2'
p1614
(lp1615
I149738469
aI149752499
aS'-'
asS'EMC3'
p1616
(lp1617
I9962679
aI10011248
aS'-'
asS'ATXN7'
p1618
(lp1619
I63864556
aI64003460
aS'+'
asS'SNORA63B'
p1620
(lp1621
I186786322
aI186786447
aS'+'
asS'SNORA63D'
p1622
(lp1623
I183451858
aI183451990
aS'+'
asS'MYH15'
p1624
(lp1625
I108380368
aI108529322
aS'-'
asS'SRGAP3'
p1626
(lp1627
I8980590
aI9249685
aS'-'
asS'SH3BP5-AS1'
p1628
(lp1629
I15254183
aI15264498
aS'+'
asS'MIR5787'
p1630
(lp1631
I50227435
aI50227490
aS'+'
asS'SUCLG2-AS1'
p1632
(lp1633
I67654696
aI67947712
aS'+'
asS'SPSB4'
p1634
(lp1635
I141051401
aI141148611
aS'+'
asS'ALG1L'
p1636
(lp1637
I125929274
aI125937044
aS'-'
asS'P2RY14'
p1638
(lp1639
I151212116
aI151278442
aS'-'
asS'SMC4'
p1640
(lp1641
I160399303
aI160434961
aS'+'
asS'P2RY12'
p1642
(lp1643
I151336842
aI151384812
aS'-'
asS'P2RY13'
p1644
(lp1645
I151326307
aI151329549
aS'-'
asS'ALAS1'
p1646
(lp1647
I52198082
aI52214327
aS'+'
asS'LINC02085'
p1648
(lp1649
I101940858
aI101997926
aS'+'
asS'MIR378B'
p1650
(lp1651
I10330228
aI10330285
aS'+'
asS'LINC02082'
p1652
(lp1653
I168901944
aI168921993
aS'+'
asS'LNP1'
p1654
(lp1655
I100401192
aI100456326
aS'+'
asS'CPOX'
p1656
(lp1657
I98579445
aI98593611
aS'-'
asS'HACD2'
p1658
(lp1659
I123491547
aI123585185
aS'-'
asS'LTF'
p1660
(lp1661
I46436004
aI46485234
aS'-'
asS'SHISA5'
p1662
(lp1663
I48467797
aI48504826
aS'-'
asS'MIR4787'
p1664
(lp1665
I50675079
aI50675163
aS'+'
asS'MIR4788'
p1666
(lp1667
I134437826
aI134437906
aS'+'
asS'MIR4789'
p1668
(lp1669
I175369539
aI175369621
aS'+'
asS'SI'
p1670
(lp1671
I164978897
aI165078495
aS'-'
asS'MAGI1-AS1'
p1672
(lp1673
I65893815
aI65925297
aS'+'
asS'SST'
p1674
(lp1675
I187668905
aI187670413
aS'-'
asS'LINC01192'
p1676
(lp1677
I163177242
aI163303301
aS'-'
asS'EFHB'
p1678
(lp1679
I19879473
aI19947025
aS'-'
asS'RBM6'
p1680
(lp1681
I49940043
aI50077252
aS'+'
asS'RBM5'
p1682
(lp1683
I50088907
aI50118964
aS'+'
asS'MORC1'
p1684
(lp1685
I108958239
aI109118146
aS'-'
asS'SPCS1'
p1686
(lp1687
I52706105
aI52708181
aS'+'
asS'ARL8B'
p1688
(lp1689
I5122244
aI5180916
aS'+'
asS'LINC00488'
p1690
(lp1691
I109178164
aI109185261
aS'+'
asS'WDR82'
p1692
(lp1693
I52254421
aI52278643
aS'-'
asS'GYG1'
p1694
(lp1695
I148991407
aI149027669
aS'+'
asS'TMEM212'
p1696
(lp1697
I171843348
aI171859318
aS'+'
asS'ATP13A3'
p1698
(lp1699
I194402673
aI194468239
aS'-'
asS'SSUH2'
p1700
(lp1701
I8619399
aI8652078
aS'-'
asS'ATP13A4'
p1702
(lp1703
I193398966
aI193555122
aS'-'
asS'IMPDH2'
p1704
(lp1705
I49024328
aI49029442
aS'-'
asS'ESYT3'
p1706
(lp1707
I138434572
aI138479942
aS'+'
asS'LINC01994'
p1708
(lp1709
I182446969
aI182486362
aS'-'
asS'LINC01995'
p1710
(lp1711
I182498289
aI182507124
aS'-'
asS'LOC101926968'
p1712
(lp1713
I118641767
aI118644157
aS'+'
asS'LINC01990'
p1714
(lp1715
I107430929
aI107463912
aS'+'
asS'CXCR6'
p1716
(lp1717
I45943480
aI45948353
aS'+'
asS'PSMD6-AS2'
p1718
(lp1719
I64004021
aI64012241
aS'+'
asS'LRRIQ4'
p1720
(lp1721
I169821890
aI169837772
aS'+'
asS'CLRN1'
p1722
(lp1723
I150926566
aI150972999
aS'-'
asS'NUP210P1'
p1724
(lp1725
I126662080
aI126671939
aS'+'
asS'VEPH1'
p1726
(lp1727
I157259742
aI157503347
aS'-'
asS'QRICH1'
p1728
(lp1729
I49029706
aI49094373
aS'-'
asS'LINC01972'
p1730
(lp1731
I194765237
aI194768709
aS'-'
asS'PDE12'
p1732
(lp1733
I57556246
aI57656480
aS'+'
asS'ZNF502'
p1734
(lp1735
I44712642
aI44723831
aS'+'
asS'DNAJB8-AS1'
p1736
(lp1737
I128463593
aI128472317
aS'+'
asS'MAGEF1'
p1738
(lp1739
I184710366
aI184712048
aS'-'
asS'CAMK2N2'
p1740
(lp1741
I184259214
aI184261463
aS'-'
asS'NECTIN3-AS1'
p1742
(lp1743
I111045315
aI111069959
aS'-'
asS'TUSC7'
p1744
(lp1745
I116709787
aI116717040
aS'+'
asS'TUSC2'
p1746
(lp1747
I50324908
aI50328238
aS'-'
asS'PAQR9-AS1'
p1748
(lp1749
I142964057
aI143001090
aS'+'
asS'RAD18'
p1750
(lp1751
I8877195
aI8963475
aS'-'
asS'TIGIT'
p1752
(lp1753
I114293985
aI114310288
aS'+'
asS'SNRK-AS1'
p1754
(lp1755
I43346918
aI43351962
aS'-'
asS'TNNC1'
p1756
(lp1757
I52451090
aI52454041
aS'-'
asS'FBLN2'
p1758
(lp1759
I13549124
aI13638422
aS'+'
asS'ADAMTS9'
p1760
(lp1761
I64515654
aI64687689
aS'-'
asS'ARHGEF3'
p1762
(lp1763
I56727417
aI57079308
aS'-'
asS'PLXND1'
p1764
(lp1765
I129555212
aI129606739
aS'-'
asS'PA2G4P4'
p1766
(lp1767
I156809270
aI156812021
aS'-'
asS'AADACP1'
p1768
(lp1769
I151770455
aI151784894
aS'+'
asS'RAB5A'
p1770
(lp1771
I19947079
aI19985175
aS'+'
asS'LIPH'
p1772
(lp1773
I185507781
aI185552581
aS'-'
asS'MIR425'
p1774
(lp1775
I49020147
aI49020234
aS'-'
asS'SLC41A3'
p1776
(lp1777
I126006356
aI126101548
aS'-'
asS'ADGRG7'
p1778
(lp1779
I100609588
aI100695481
aS'+'
asS'MRPL47'
p1780
(lp1781
I179588465
aI179604646
aS'-'
asS'TM4SF18'
p1782
(lp1783
I149318497
aI149333761
aS'-'
asS'TM4SF19'
p1784
(lp1785
I196323545
aI196338420
aS'-'
asS'WNT7A'
p1786
(lp1787
I13818584
aI13880121
aS'-'
asS'PROS1'
p1788
(lp1789
I93873036
aI93974090
aS'-'
asS'SEC62'
p1790
(lp1791
I169966791
aI169998373
aS'+'
asS'CNTN3'
p1792
(lp1793
I74262568
aI74521140
aS'-'
asS'CNTN6'
p1794
(lp1795
I1093023
aI1404217
aS'+'
asS'CNTN4'
p1796
(lp1797
I2098802
aI3057961
aS'+'
asS'DHX30'
p1798
(lp1799
I47802908
aI47850196
aS'+'
asS'LAMB2'
p1800
(lp1801
I49121113
aI49133166
aS'-'
asS'DHX36'
p1802
(lp1803
I154272545
aI154324487
aS'-'
asS'NEK4'
p1804
(lp1805
I52708448
aI52770949
aS'-'
asS'RUVBL1'
p1806
(lp1807
I128064784
aI128153914
aS'-'
asS'CSRNP1'
p1808
(lp1809
I39141850
aI39154602
aS'-'
asS'KRBOX1-AS1'
p1810
(lp1811
I42934243
aI42936785
aS'-'
asS'GPR160'
p1812
(lp1813
I170037946
aI170085395
aS'+'
asS'TXNRD3'
p1814
(lp1815
I126607051
aI126655124
aS'-'
asS'UBE2E1'
p1816
(lp1817
I23805892
aI23891640
aS'+'
asS'UBE2E2'
p1818
(lp1819
I23203292
aI23590805
aS'+'
asS'LOC100507389'
p1820
(lp1821
I142926674
aI142942536
aS'+'
asS'HHATL'
p1822
(lp1823
I42692662
aI42702827
aS'-'
asS'RETNLB'
p1824
(lp1825
I108755638
aI108757283
aS'-'
asS'DNAH1'
p1826
(lp1827
I52316318
aI52400497
aS'+'
asS'SEMA5B'
p1828
(lp1829
I122909192
aI123028605
aS'-'
asS'PRR20G'
p1830
(lp1831
I127283783
aI127288074
aS'-'
asS'ZNF501'
p1832
(lp1833
I44729605
aI44737083
aS'+'
asS'TBILA'
p1834
(lp1835
I112133422
aI112135359
aS'+'
asS'SNORA4'
p1836
(lp1837
I186787612
aI186787749
aS'+'
asS'SNORA6'
p1838
(lp1839
I39408390
aI39408539
aS'+'
asS'SCN5A'
p1840
(lp1841
I38548061
aI38649673
aS'-'
asS'CNBP'
p1842
(lp1843
I129167814
aI129183967
aS'-'
asS'TRPC1'
p1844
(lp1845
I142724423
aI142807887
aS'+'
asS'GMNC'
p1846
(lp1847
I190852736
aI190862676
aS'-'
asS'TIMMDC1'
p1848
(lp1849
I119498520
aI119524278
aS'+'
asS'AZI2'
p1850
(lp1851
I28322352
aI28349127
aS'-'
asS'USF3'
p1852
(lp1853
I113648385
aI113696646
aS'-'
asS'VGLL3'
p1854
(lp1855
I86937968
aI86991123
aS'-'
asS'CADM2'
p1856
(lp1857
I84958981
aI86074429
aS'+'
asS'VGLL4'
p1858
(lp1859
I11556066
aI11720768
aS'-'
asS'FGD5'
p1860
(lp1861
I14818961
aI14934565
aS'+'
asS'CCDC191'
p1862
(lp1863
I113964136
aI114056613
aS'-'
asS'GNB4'
p1864
(lp1865
I179396087
aI179451470
aS'-'
asS'ARHGEF3-AS1'
p1866
(lp1867
I56940039
aI56960852
aS'+'
asS'RBM5-AS1'
p1868
(lp1869
I50099602
aI50100988
aS'-'
asS'MORC1-AS1'
p1870
(lp1871
I109101455
aI109110340
aS'+'
asS'NUDT16'
p1872
(lp1873
I131381670
aI131388830
aS'+'
asS'GXYLT2'
p1874
(lp1875
I72888233
aI72975371
aS'+'
asS'LINC01565'
p1876
(lp1877
I128571999
aI128576086
aS'-'
asS'LOC101928882'
p1878
(lp1879
I180707589
aI180870178
aS'-'
asS'HHLA2'
p1880
(lp1881
I108296489
aI108378284
aS'+'
asS'FAM107A'
p1882
(lp1883
I58564111
aI58627610
aS'-'
asS'LOC101929130'
p1884
(lp1885
I187291271
aI187297933
aS'+'
asS'CPN2'
p1886
(lp1887
I194339764
aI194351328
aS'-'
asS'STAB1'
p1888
(lp1889
I52495337
aI52524495
aS'+'
asS'ECE2'
p1890
(lp1891
I184276010
aI184293031
aS'+'
asS'LOC90246'
p1892
(lp1893
I128507834
aI128510586
aS'+'
asS'XXYLT1'
p1894
(lp1895
I195068283
aI195271166
aS'-'
asS'LOC152048'
p1896
(lp1897
I37241790
aI37244195
aS'-'
asS'HCLS1'
p1898
(lp1899
I121631397
aI121660948
aS'-'
asS'CIDECP1'
p1900
(lp1901
I10017552
aI10026136
aS'-'
asS'OR5H6'
p1902
(lp1903
I98264243
aI98265356
aS'+'
asS'OR5H1'
p1904
(lp1905
I98132697
aI98133639
aS'+'
asS'HEG1'
p1906
(lp1907
I124965709
aI125055958
aS'-'
asS'OR5H2'
p1908
(lp1909
I98282887
aI98283832
aS'+'
asS'CHST13'
p1910
(lp1911
I126524287
aI126543291
aS'+'
asS'MIR4448'
p1912
(lp1913
I183886799
aI183886885
aS'+'
asS'MIR4443'
p1914
(lp1915
I48196563
aI48196616
aS'+'
asS'MIR4442'
p1916
(lp1917
I25664872
aI25664939
aS'-'
asS'MIR4447'
p1918
(lp1919
I116850276
aI116850367
aS'-'
asS'MIR4446'
p1920
(lp1921
I113594875
aI113594942
aS'+'
asS'MIR4445'
p1922
(lp1923
I109602827
aI109602897
aS'+'
asS'HP09053'
p1924
(lp1925
I99816631
aI99823865
aS'-'
asS'NKTR'
p1926
(lp1927
I42600654
aI42648741
aS'+'
asS'IGSF11-AS1'
p1928
(lp1929
I118943075
aI118948241
aS'+'
asS'LINC00885'
p1930
(lp1931
I196142635
aI196160890
aS'+'
asS'THRB-AS1'
p1932
(lp1933
I24494086
aI24500011
aS'+'
asS'SATB1'
p1934
(lp1935
I18345387
aI18445588
aS'-'
asS'PCCB'
p1936
(lp1937
I136250324
aI136330171
aS'+'
asS'NDUFB5'
p1938
(lp1939
I179604786
aI179624500
aS'+'
asS'NDUFB4'
p1940
(lp1941
I120596280
aI120602411
aS'+'
asS'BFSP2-AS1'
p1942
(lp1943
I133426401
aI133491146
aS'-'
asS'CAV3'
p1944
(lp1945
I8733799
aI8746765
aS'+'
asS'LINC01014'
p1946
(lp1947
I178419200
aI178457305
aS'+'
asS'LOC100996447'
p1948
(lp1949
I158545219
aI158571066
aS'-'
asS'PARL'
p1950
(lp1951
I183829384
aI183884908
aS'-'
asS'FOXP1-AS1'
p1952
(lp1953
I71289757
aI71305854
aS'+'
asS'LRRC2'
p1954
(lp1955
I46515387
aI46566302
aS'-'
asS'NR2C2'
p1956
(lp1957
I14947583
aI15049279
aS'+'
asS'EEF1AKMT4-ECE2'
p1958
(lp1959
I184249656
aI184293031
aS'+'
asS'LINC00886'
p1960
(lp1961
I156747342
aI156817062
aS'-'
asS'SCARNA7'
p1962
(lp1963
I160514906
aI160515236
aS'-'
asS'KLHL6-AS1'
p1964
(lp1965
I183548734
aI183552326
aS'+'
asS'ADCY5'
p1966
(lp1967
I123282295
aI123448545
aS'-'
asS'PLD1'
p1968
(lp1969
I171600404
aI171810494
aS'-'
asS'EIF1B-AS1'
p1970
(lp1971
I40173146
aI40309698
aS'-'
asS'MAATS1'
p1972
(lp1973
I119703021
aI119767102
aS'+'
asS'RPL39L'
p1974
(lp1975
I187120950
aI187139523
aS'-'
asS'RSRC1'
p1976
(lp1977
I158110051
aI158544835
aS'+'
asS'RAB43'
p1978
(lp1979
I129087568
aI129122150
aS'-'
asS'ZBTB20'
p1980
(lp1981
I114314499
aI115147280
aS'-'
asS'SOX2-OT'
p1982
(lp1983
I181056679
aI181742225
aS'+'
asS'FAM208A'
p1984
(lp1985
I56620128
aI56683265
aS'-'
asS'RRP9'
p1986
(lp1987
I51933425
aI51941941
aS'-'
asS'ESRG'
p1988
(lp1989
I54632123
aI54639857
aS'-'
asS'CLRN1-AS1'
p1990
(lp1991
I150972677
aI151080726
aS'+'
asS'CLDND1'
p1992
(lp1993
I98515472
aI98523066
aS'-'
asS'SLC9A9'
p1994
(lp1995
I143265221
aI143848531
aS'-'
asS'TFRC'
p1996
(lp1997
I196049283
aI196082161
aS'-'
asS'EPHB3'
p1998
(lp1999
I184561798
aI184582408
aS'+'
asS'MIR1263'
p2000
(lp2001
I164171470
aI164171556
aS'-'
asS'PARP9'
p2002
(lp2003
I122527910
aI122564676
aS'-'
asS'SEC13'
p2004
(lp2005
I10300928
aI10321188
aS'-'
asS'PARP3'
p2006
(lp2007
I51942304
aI51948867
aS'+'
asS'TIPARP-AS1'
p2008
(lp2009
I156673170
aI156675713
aS'-'
asS'FAM240A'
p2010
(lp2011
I46612524
aI46626543
aS'+'
asS'MRPS25'
p2012
(lp2013
I15042250
aI15065337
aS'-'
asS'MRPS22'
p2014
(lp2015
I139343993
aI139357137
aS'+'
asS'GPR171'
p2016
(lp2017
I151197831
aI151203201
aS'-'
asS'PHF7'
p2018
(lp2019
I52410507
aI52423641
aS'+'
asS'CEP19'
p2020
(lp2021
I196706276
aI196712250
aS'-'
asS'ZNF35'
p2022
(lp2023
I44648740
aI44660791
aS'+'
asS'MIR922'
p2024
(lp2025
I197674495
aI197674576
aS'-'
asS'NPHP3-AS1'
p2026
(lp2027
I132721749
aI132874211
aS'+'
asS'SS18L2'
p2028
(lp2029
I42581839
aI42594998
aS'+'
asS'CCDC39'
p2030
(lp2031
I180614007
aI180679489
aS'-'
asS'CCDC36'
p2032
(lp2033
I49198427
aI49258104
aS'+'
asS'APEH'
p2034
(lp2035
I49674001
aI49683501
aS'+'
asS'TOMM70'
p2036
(lp2037
I100363458
aI100401398
aS'-'
asS'NT5DC2'
p2038
(lp2039
I52524368
aI52535077
aS'-'
asS'DBR1'
p2040
(lp2041
I138160987
aI138174949
aS'-'
asS'LINC02158'
p2042
(lp2043
I42770611
aI42773634
aS'+'
asS'SLC7A14-AS1'
p2044
(lp2045
I170467284
aI170755205
aS'+'
asS'PRRT3'
p2046
(lp2047
I9945541
aI9952415
aS'-'
asS'RARRES1'
p2048
(lp2049
I158697107
aI158732486
aS'-'
asS'LOC101928323'
p2050
(lp2051
I42612309
aI42654388
aS'-'
asS'SNORD155'
p2052
(lp2053
I115905065
aI115905126
aS'-'
asS'THUMPD3'
p2054
(lp2055
I9363032
aI9386791
aS'+'
asS'ECT2'
p2056
(lp2057
I172750684
aI172821474
aS'+'
asS'CFAP44'
p2058
(lp2059
I113286929
aI113441514
aS'-'
asS'TERC'
p2060
(lp2061
I169764609
aI169765060
aS'-'
asS'GLT8D1'
p2062
(lp2063
I52694483
aI52706083
aS'-'
asS'COPG1'
p2064
(lp2065
I129249609
aI129277773
aS'+'
asS'SLCO2A1'
p2066
(lp2067
I133932695
aI134030076
aS'-'
asS'GTPBP8'
p2068
(lp2069
I112990952
aI113001374
aS'+'
asS'NAA50'
p2070
(lp2071
I113716459
aI113746299
aS'-'
asS'DRD3'
p2072
(lp2073
I114128651
aI114199407
aS'-'
asS'EPM2AIP1'
p2074
(lp2075
I36985865
aI36993304
aS'-'
asS'LINC02050'
p2076
(lp2077
I80764896
aI80789388
aS'+'
asS'BCL6'
p2078
(lp2079
I187721376
aI187745725
aS'-'
asS'LRRC77P'
p2080
(lp2081
I167895947
aI167924009
aS'+'
asS'AHSG'
p2082
(lp2083
I186612922
aI186621318
aS'+'
asS'LINC01391'
p2084
(lp2085
I138935188
aI138944020
aS'-'
asS'LZTFL1'
p2086
(lp2087
I45823317
aI45915724
aS'-'
asS'ARGFX'
p2088
(lp2089
I121567930
aI121590622
aS'+'
asS'CCK'
p2090
(lp2091
I42257823
aI42266195
aS'-'
asS'LINC00620'
p2092
(lp2093
I13650720
aI13746635
aS'+'
asS'GRK7'
p2094
(lp2095
I141778200
aI141817050
aS'+'
asS'ANAPC13'
p2096
(lp2097
I134477703
aI134486023
aS'-'
asS'FSTL1'
p2098
(lp2099
I120392292
aI120450992
aS'-'
asS'CAPN7'
p2100
(lp2101
I15206225
aI15252916
aS'+'
asS'NRADDP'
p2102
(lp2103
I47011541
aI47013467
aS'+'
asS'ENTPD3'
p2104
(lp2105
I40387155
aI40428626
aS'+'
asS'LOC100507291'
p2106
(lp2107
I139389802
aI139583319
aS'+'
asS'TXNRD3NB'
p2108
(lp2109
I126571778
aI126608555
aS'-'
asS'DUBR'
p2110
(lp2111
I107240691
aI107326964
aS'+'
asS'DLEC1'
p2112
(lp2113
I38039204
aI38122741
aS'+'
asS'GPR27'
p2114
(lp2115
I71753723
aI71756380
aS'+'
asS'KCNMB3'
p2116
(lp2117
I179239748
aI179267050
aS'-'
asS'KCNMB2'
p2118
(lp2119
I178536297
aI178844429
aS'+'
asS'CX3CR1'
p2120
(lp2121
I39263493
aI39281735
aS'-'
asS'HYAL3'
p2122
(lp2123
I50292827
aI50299468
aS'-'
asS'HYAL2'
p2124
(lp2125
I50317789
aI50322850
aS'-'
asS'HYAL1'
p2126
(lp2127
I50299888
aI50312381
aS'-'
asS'PRKAR2A-AS1'
p2128
(lp2129
I48847936
aI48851982
aS'+'
asS'GSK3B'
p2130
(lp2131
I119821954
aI120094417
aS'-'
asS'TRIM59'
p2132
(lp2133
I160435502
aI160449838
aS'-'
asS'UBE2E1-AS1'
p2134
(lp2135
I23804023
aI23806905
aS'-'
asS'FBXL2'
p2136
(lp2137
I33277415
aI33422698
aS'+'
asS'HESX1'
p2138
(lp2139
I57197915
aI57200252
aS'-'
asS'DPPA2'
p2140
(lp2141
I109293787
aI109316517
aS'-'
asS'DPPA4'
p2142
(lp2143
I109326140
aI109337572
aS'-'
asS'NPRL2'
p2144
(lp2145
I50347487
aI50351055
aS'-'
asS'PLXNB1'
p2146
(lp2147
I48403853
aI48430051
aS'-'
asS'CDV3'
p2148
(lp2149
I133573589
aI133590274
aS'+'
asS'KBTBD8'
p2150
(lp2151
I66998302
aI67011208
aS'+'
asS'ZBTB38'
p2152
(lp2153
I141324212
aI141449790
aS'+'
asS'PCBP4'
p2154
(lp2155
I51957453
aI51967466
aS'-'
asS'AMT'
p2156
(lp2157
I49416777
aI49422678
aS'-'
asS'SPATA12'
p2158
(lp2159
I57060440
aI57075432
aS'+'
asS'RAB7A'
p2160
(lp2161
I128726135
aI128814798
aS'+'
asS'SPATA16'
p2162
(lp2163
I172889356
aI173141268
aS'-'
asS'DIPK2A'
p2164
(lp2165
I143971797
aI143992368
aS'+'
asS'ATP2B2-IT2'
p2166
(lp2167
I10626015
aI10626807
aS'-'
asS'TRIM42'
p2168
(lp2169
I140678023
aI140701150
aS'+'
asS'LINCR-0002'
p2170
(lp2171
I191425523
aI191590356
aS'+'
asS'POMGNT2'
p2172
(lp2173
I43079228
aI43106083
aS'-'
asS'WNT5A'
p2174
(lp2175
I55465714
aI55487642
aS'-'
asS'CACNA2D3-AS1'
p2176
(lp2177
I54874604
aI54901255
aS'-'
asS'CCDC37-DT'
p2178
(lp2179
I126393031
aI126394798
aS'-'
asS'CLDN11'
p2180
(lp2181
I170418864
aI170434691
aS'+'
asS'CLDN16'
p2182
(lp2183
I190387871
aI190412143
aS'+'
asS'EPHA6'
p2184
(lp2185
I96814593
aI97761532
aS'+'
asS'CLDN18'
p2186
(lp2187
I137998815
aI138033652
aS'+'
asS'EPHA3'
p2188
(lp2189
I89107620
aI89482134
aS'+'
asS'LSMEM2'
p2190
(lp2191
I50279026
aI50288114
aS'+'
asS'GNAI2'
p2192
(lp2193
I50226687
aI50259354
aS'+'
asS'SUCLG2'
p2194
(lp2195
I67360459
aI67654614
aS'-'
asS'GPR149'
p2196
(lp2197
I154334943
aI154429715
aS'-'
asS'LIMD1-AS1'
p2198
(lp2199
I45678164
aI45688882
aS'-'
asS'FGF12'
p2200
(lp2201
I192139392
aI192727599
aS'-'
asS'SUCNR1'
p2202
(lp2203
I151873642
aI151884619
aS'+'
asS'DCLK3'
p2204
(lp2205
I36712421
aI36739861
aS'-'
asS'MIR1324'
p2206
(lp2207
I75630762
aI75630858
aS'+'
asS'SEMA3B'
p2208
(lp2209
I50267557
aI50277171
aS'+'
asS'UBXN7'
p2210
(lp2211
I196353497
aI196432474
aS'-'
asS'SEMA3G'
p2212
(lp2213
I52433034
aI52445085
aS'-'
asS'SEMA3F'
p2214
(lp2215
I50155044
aI50189075
aS'+'
asS'BSN-DT'
p2216
(lp2217
I49549305
aI49554366
aS'-'
asS'ADIPOQ-AS1'
p2218
(lp2219
I186851886
aI186861368
aS'-'
asS'ARHGEF26'
p2220
(lp2221
I154121002
aI154257827
aS'+'
asS'OXNAD1'
p2222
(lp2223
I16265077
aI16352095
aS'+'
asS'LEKR1'
p2224
(lp2225
I156826306
aI157046129
aS'+'
asS'PCOLCE2'
p2226
(lp2227
I142817859
aI142889203
aS'-'
asS'VHL'
p2228
(lp2229
I10141634
aI10153670
aS'+'
asS'DHFR2'
p2230
(lp2231
I94057921
aI94063223
aS'-'
asS'FEZF2'
p2232
(lp2233
I62369671
aI62373515
aS'-'
asS'SNORD38C'
p2234
(lp2235
I53333060
aI53333127
aS'-'
asS'ZBTB20-AS1'
p2236
(lp2237
I114351810
aI114388978
aS'+'
asS'PLCXD2'
p2238
(lp2239
I111674675
aI111846447
aS'+'
asS'TMEM183B'
p2240
(lp2241
I149981675
aI149983366
aS'-'
asS'TRMT10C'
p2242
(lp2243
I101561835
aI101566446
aS'+'
asS'TF'
p2244
(lp2245
I133661985
aI133779006
aS'+'
asS'LOC105376975'
p2246
(lp2247
I17742943
aI17745662
aS'+'
asS'SYNPR-AS1'
p2248
(lp2249
I63423595
aI63550051
aS'-'
asS'ZNF80'
p2250
(lp2251
I114234630
aI114237578
aS'-'
asS'ULK4'
p2252
(lp2253
I41246598
aI41962440
aS'-'
asS'SNORD146'
p2254
(lp2255
I47661564
aI47661694
aS'-'
asS'MIR28'
p2256
(lp2257
I188688780
aI188688866
aS'+'
asS'MYNN'
p2258
(lp2259
I169773064
aI169789716
aS'+'
asS'PAK2'
p2260
(lp2261
I196739856
aI196832647
aS'+'
asS'RASA2'
p2262
(lp2263
I141487046
aI141615363
aS'+'
asS'PDZRN3-AS1'
p2264
(lp2265
I73623567
aI73627899
aS'+'
asS'HDAC11-AS1'
p2266
(lp2267
I13476987
aI13480053
aS'-'
asS'TMEM39A'
p2268
(lp2269
I119428959
aI119463682
aS'-'
asS'PTPRG'
p2270
(lp2271
I61561568
aI62294898
aS'+'
asS'LINC02028'
p2272
(lp2273
I194005455
aI194070970
aS'-'
asS'SLC6A1'
p2274
(lp2275
I10992733
aI11039249
aS'+'
asS'TMEM30CP'
p2276
(lp2277
I100185823
aI100194186
aS'+'
asS'NAALADL2-AS2'
p2278
(lp2279
I175235091
aI175271096
aS'-'
asS'NAALADL2-AS3'
p2280
(lp2281
I175079311
aI175115242
aS'-'
asS'SLC6A6'
p2282
(lp2283
I14402575
aI14489349
aS'+'
asS'SAMD7'
p2284
(lp2285
I169911571
aI169939168
aS'+'
asS'LOC101929579'
p2286
(lp2287
I107380475
aI107382159
aS'-'
asS'MANF'
p2288
(lp2289
I51385290
aI51389397
aS'+'
asS'IRAK2'
p2290
(lp2291
I10164878
aI10243743
aS'+'
asS'LMCD1-AS1'
p2292
(lp2293
I8221146
aI8501658
aS'-'
asS'WDR6'
p2294
(lp2295
I49007390
aI49015953
aS'+'
asS'RBMS3-AS1'
p2296
(lp2297
I29926810
aI29934156
aS'-'
asS'RBMS3-AS3'
p2298
(lp2299
I29264193
aI29280939
aS'-'
asS'GATA2'
p2300
(lp2301
I128479421
aI128493187
aS'-'
asS'IFT122'
p2302
(lp2303
I129440035
aI129520507
aS'+'
asS'SRGAP3-AS4'
p2304
(lp2305
I9249755
aI9257507
aS'+'
asS'GRM7-AS3'
p2306
(lp2307
I6632357
aI6805449
aS'-'
asS'LINC00636'
p2308
(lp2309
I107883204
aI107928906
aS'+'
asS'LINC00635'
p2310
(lp2311
I107841661
aI107878068
aS'-'
asS'GPR15'
p2312
(lp2313
I98531898
aI98534679
aS'+'
asS'TNFSF10'
p2314
(lp2315
I172505507
aI172523507
aS'-'
asS'ATP6V1A'
p2316
(lp2317
I113747018
aI113812058
aS'+'
asS'RAB6B'
p2318
(lp2319
I133824235
aI133895847
aS'-'
asS'CHL1'
p2320
(lp2321
I196595
aI409414
aS'+'
asS'SPTSSB'
p2322
(lp2323
I161344791
aI161372950
aS'-'
asS'SOX14'
p2324
(lp2325
I137764291
aI137766330
aS'+'
asS'NAALADL2'
p2326
(lp2327
I174859333
aI175810548
aS'+'
asS'ARIH2OS'
p2328
(lp2329
I48917787
aI48919385
aS'-'
asS'LOC105374312'
p2330
(lp2331
I125774713
aI125797953
aS'+'
asS'LOC105374313'
p2332
(lp2333
I150096442
aI150151001
aS'+'
asS'HTR3C'
p2334
(lp2335
I184053046
aI184060673
aS'+'
asS'ARL13B'
p2336
(lp2337
I93980138
aI94055678
aS'+'
asS'OXTR'
p2338
(lp2339
I8750408
aI8769614
aS'-'
asS'MCCC1'
p2340
(lp2341
I183015217
aI183099587
aS'-'
asS'TNK2'
p2342
(lp2343
I195863364
aI195909009
aS'-'
asS'ZDHHC3'
p2344
(lp2345
I44915260
aI44976185
aS'-'
asS'GATA2-AS1'
p2346
(lp2347
I128489202
aI128503207
aS'+'
asS'GFM1'
p2348
(lp2349
I158644527
aI158692571
aS'+'
asS'ATP13A5-AS1'
p2350
(lp2351
I193307243
aI193314521
aS'+'
asS'GPX1'
p2352
(lp2353
I49357170
aI49358600
aS'-'
asS'HES1'
p2354
(lp2355
I194136147
aI194138732
aS'+'
asS'FLNB'
p2356
(lp2357
I58008399
aI58172255
aS'+'
asS'EIF4A2'
p2358
(lp2359
I186783571
aI186789896
aS'+'
asS'TMEM89'
p2360
(lp2361
I48620758
aI48621855
aS'-'
asS'KLHL24'
p2362
(lp2363
I183635622
aI183684516
aS'+'
asS'POLQ'
p2364
(lp2365
I121431430
aI121545988
aS'-'
asS'THRB'
p2366
(lp2367
I24117153
aI24495281
aS'-'
asS'GABRR3'
p2368
(lp2369
I97986682
aI98035304
aS'-'
asS'PEX5L-AS2'
p2370
(lp2371
I179898193
aI179921899
aS'+'
asS'SLC4A7'
p2372
(lp2373
I27372720
aI27484420
aS'-'
asS'LINC00852'
p2374
(lp2375
I10284418
aI10285746
aS'+'
asS'LOC105374042'
p2376
(lp2377
I112302477
aI112332751
aS'+'
asS'LOC339874'
p2378
(lp2379
I131325091
aI131381475
aS'-'
asS'TPRA1'
p2380
(lp2381
I127571231
aI127598265
aS'-'
asS'MIR1248'
p2382
(lp2383
I186786671
aI186786777
aS'+'
asS'PLCL2'
p2384
(lp2385
I16884958
aI17090606
aS'+'
asS'LOC105377146'
p2386
(lp2387
I68500636
aI68505872
aS'+'
asS'LOC105377143'
p2388
(lp2389
I66730377
aI66738336
aS'-'
asS'GRAMD1C'
p2390
(lp2391
I113838833
aI113947174
aS'+'
asS'PSMD2'
p2392
(lp2393
I184299097
aI184309054
aS'+'
asS'SRGAP3-AS3'
p2394
(lp2395
I9216894
aI9219508
aS'+'
asS'SRGAP3-AS2'
p2396
(lp2397
I9192492
aI9194453
aS'+'
asS'GPR156'
p2398
(lp2399
I120165480
aI120244295
aS'-'
asS'HTR3D'
p2400
(lp2401
I184031543
aI184039369
aS'+'
asS'HTR3E'
p2402
(lp2403
I184097063
aI184106995
aS'+'
asS'ARHGEF26-AS1'
p2404
(lp2405
I154024400
aI154121210
aS'-'
asS'RFT1'
p2406
(lp2407
I53088484
aI53130435
aS'-'
asS'NBEAL2'
p2408
(lp2409
I46979682
aI47009704
aS'+'
asS'PSMD6'
p2410
(lp2411
I64010548
aI64024010
aS'-'
asS'TMIE'
p2412
(lp2413
I46701332
aI46710923
aS'+'
asS'CTNNB1'
p2414
(lp2415
I41199423
aI41240453
aS'+'
asS'RTP4'
p2416
(lp2417
I187368379
aI187371581
aS'+'
asS'RTP2'
p2418
(lp2419
I187698258
aI187702557
aS'-'
asS'RTP3'
p2420
(lp2421
I46497994
aI46500949
aS'+'
asS'RTP1'
p2422
(lp2423
I187197485
aI187201465
aS'+'
asS'MITF'
p2424
(lp2425
I69739434
aI69968337
aS'+'
asS'TMEM41A'
p2426
(lp2427
I185489600
aI185499057
aS'-'
asS'TM4SF1'
p2428
(lp2429
I149369021
aI149377649
aS'-'
asS'LMLN-AS1'
p2430
(lp2431
I198038325
aI198039467
aS'-'
asS'TM4SF4'
p2432
(lp2433
I149474580
aI149503394
aS'+'
asS'LMCD1'
p2434
(lp2435
I8501806
aI8568125
aS'+'
asS'ACAA1'
p2436
(lp2437
I38122709
aI38137242
aS'-'
asS'RYBP'
p2438
(lp2439
I72374592
aI72446623
aS'-'
asS'ITGB5'
p2440
(lp2441
I124761948
aI124901411
aS'-'
asS'ARIH2'
p2442
(lp2443
I48918819
aI48985538
aS'+'
asS'TTLL3'
p2444
(lp2445
I9809914
aI9836356
aS'+'
asS'MIR5186'
p2446
(lp2447
I151565875
aI151565995
aS'-'
asS'HGD'
p2448
(lp2449
I120628167
aI120682571
aS'-'
asS'LOC220729'
p2450
(lp2451
I197614026
aI197627881
aS'-'
asS'RNU6-7'
p2452
(lp2453
I181231736
aI181231842
aS'+'
asS'NCK1'
p2454
(lp2455
I136862207
aI136951610
aS'+'
asS'MBD4'
p2456
(lp2457
I129430943
aI129440179
aS'-'
asS'CMTM8'
p2458
(lp2459
I32238678
aI32370326
aS'+'
asS'RPP14'
p2460
(lp2461
I58306244
aI58320193
aS'+'
asS'CYB561D2'
p2462
(lp2463
I50350694
aI50368197
aS'+'
asS'CMTM6'
p2464
(lp2465
I32481311
aI32502911
aS'-'
asS'CMTM7'
p2466
(lp2467
I32391670
aI32455528
aS'+'
asS'LARS2-AS1'
p2468
(lp2469
I45482694
aI45509545
aS'-'
asS'HPS3'
p2470
(lp2471
I149129583
aI149173196
aS'+'
asS'EBLN2'
p2472
(lp2473
I73061658
aI73063320
aS'+'
asS'MIR548AQ'
p2474
(lp2475
I185767846
aI185767904
aS'-'
asS'DENND6A-DT'
p2476
(lp2477
I57693204
aI57696651
aS'+'
asS'ROPN1B'
p2478
(lp2479
I125969143
aI125983453
aS'+'
asS'POPDC2'
p2480
(lp2481
I119642051
aI119660590
aS'-'
asS'LOC101929106'
p2482
(lp2483
I187197089
aI187207629
aS'-'
asS'CCDC14'
p2484
(lp2485
I123913426
aI123961229
aS'-'
asS'EAF1'
p2486
(lp2487
I15427597
aI15442613
aS'+'
asS'EAF2'
p2488
(lp2489
I121835179
aI121886526
aS'+'
asS'P3H2'
p2490
(lp2491
I189956727
aI190122437
aS'-'
asS'CCDC12'
p2492
(lp2493
I46921729
aI46982010
aS'-'
asS'CCDC13'
p2494
(lp2495
I42708381
aI42773253
aS'-'
asS'SLC12A8'
p2496
(lp2497
I125082635
aI125212765
aS'-'
asS'NCKIPSD'
p2498
(lp2499
I48673838
aI48685933
aS'-'
asS'IFT57'
p2500
(lp2501
I108160811
aI108222570
aS'-'
asS'ATP1B3'
p2502
(lp2503
I141876591
aI141926548
aS'+'
asS'LPP'
p2504
(lp2505
I188153872
aI188890671
aS'+'
asS'TEX264'
p2506
(lp2507
I51671174
aI51704323
aS'+'
asS'MIR4270'
p2508
(lp2509
I15496238
aI15496308
aS'-'
asS'MIR4271'
p2510
(lp2511
I49274119
aI49274186
aS'+'
asS'MIR4272'
p2512
(lp2513
I67225463
aI67225527
aS'+'
asS'MIR4273'
p2514
(lp2515
I75738279
aI75738363
aS'+'
asS'ALDH1L1'
p2516
(lp2517
I126103560
aI126181186
aS'-'
asS'YEATS2'
p2518
(lp2519
I183697817
aI183812625
aS'+'
asS'LINC01487'
p2520
(lp2521
I155240944
aI155243123
aS'+'
asS'TMEM44-AS1'
p2522
(lp2523
I194584267
aI194590832
aS'+'
asS'TCTA'
p2524
(lp2525
I49412205
aI49416476
aS'+'
asS'SNX4'
p2526
(lp2527
I125446643
aI125520214
aS'-'
asS'OR5K4'
p2528
(lp2529
I98353853
aI98354819
aS'+'
asS'ALG3'
p2530
(lp2531
I184242328
aI184249525
aS'-'
asS'CRELD1'
p2532
(lp2533
I9933839
aI9945413
aS'+'
asS'OR5K1'
p2534
(lp2535
I98469479
aI98470576
aS'+'
asS'OR5K2'
p2536
(lp2537
I98497680
aI98498631
aS'+'
asS'OR5K3'
p2538
(lp2539
I98390665
aI98391631
aS'+'
asS'STAC'
p2540
(lp2541
I36380486
aI36548006
aS'+'
asS'LINC00606'
p2542
(lp2543
I10759341
aI10764209
aS'-'
asS'CLDN1'
p2544
(lp2545
I190305700
aI190322446
aS'-'
asS'RAD54L2'
p2546
(lp2547
I51538682
aI51668660
aS'+'
asS'TP63'
p2548
(lp2549
I189596745
aI189897279
aS'+'
asS'CNOT10'
p2550
(lp2551
I32685144
aI32773875
aS'+'
asS'MRAS'
p2552
(lp2553
I138347647
aI138405535
aS'+'
asS'HSPBAP1'
p2554
(lp2555
I122739996
aI122793827
aS'-'
asS'CD96'
p2556
(lp2557
I111542078
aI111665991
aS'+'
asS'FOXL2NB'
p2558
(lp2559
I138947233
aI138953988
aS'+'
asS'LINC00994'
p2560
(lp2561
I64078360
aI64087363
aS'-'
asS'FILIP1L'
p2562
(lp2563
I99833143
aI100114513
aS'-'
asS'RFC4'
p2564
(lp2565
I186789892
aI186806695
aS'-'
asS'LRRC2-AS1'
p2566
(lp2567
I46557397
aI46559688
aS'+'
asS'SH3BP5'
p2568
(lp2569
I15254355
aI15341394
aS'-'
asS'SGO1-AS1'
p2570
(lp2571
I20174285
aI20186115
aS'+'
asS'OXSR1'
p2572
(lp2573
I38165534
aI38255488
aS'+'
asS'ITIH1'
p2574
(lp2575
I52777585
aI52792068
aS'+'
asS'ITIH3'
p2576
(lp2577
I52794767
aI52809009
aS'+'
asS'ITIH4'
p2578
(lp2579
I52812989
aI52830701
aS'-'
asS'ZBTB11'
p2580
(lp2581
I101649438
aI101677144
aS'-'
asS'ITGA9-AS1'
p2582
(lp2583
I37753688
aI37861780
aS'-'
asS'KCNMB2-AS1'
p2584
(lp2585
I178525467
aI178860405
aS'-'
asS'BTLA'
p2586
(lp2587
I112463965
aI112499561
aS'-'
asS'LNCSRLR'
p2588
(lp2589
I146066343
aI146069185
aS'-'
asS'HTR3E-AS1'
p2590
(lp2591
I184095117
aI184105178
aS'-'
asS'MIR7976'
p2592
(lp2593
I127587110
aI127587176
aS'-'
asS'MIR7977'
p2594
(lp2595
I176515102
aI176515151
aS'+'
asS'ACVR2B'
p2596
(lp2597
I38454298
aI38493142
aS'+'
asS'MIR7110'
p2598
(lp2599
I123161793
aI123161879
aS'+'
asS'CSTA'
p2600
(lp2601
I122325163
aI122341968
aS'+'
asS'GMPPB'
p2602
(lp2603
I49721475
aI49723974
aS'-'
asS'LAMP3'
p2604
(lp2605
I183122214
aI183162734
aS'-'
asS'CMC1'
p2606
(lp2607
I28241632
aI28319772
aS'+'
asS'IGF2BP2'
p2608
(lp2609
I185643130
aI185825056
aS'-'
asS'HHATL-AS1'
p2610
(lp2611
I42702540
aI42706765
aS'+'
asS'LOC339862'
p2612
(lp2613
I17962571
aI18268918
aS'+'
asS'KY'
p2614
(lp2615
I134599922
aI134651045
aS'-'
asS'TFG'
p2616
(lp2617
I100709289
aI100748967
aS'+'
asS'MIR6827'
p2618
(lp2619
I134367803
aI134367862
aS'-'
asS'USP4'
p2620
(lp2621
I49277143
aI49340103
aS'-'
asS'SEMA3F-AS1'
p2622
(lp2623
I50116021
aI50156085
aS'-'
asS'SOX2'
p2624
(lp2625
I181711923
aI181714435
aS'+'
asS'DWORF'
p2626
(lp2627
I155290231
aI155293700
aS'-'
asS'DVL3'
p2628
(lp2629
I184155376
aI184173614
aS'+'
asS'MIR570'
p2630
(lp2631
I195699400
aI195699497
aS'+'
asS'VIPR1'
p2632
(lp2633
I42489298
aI42537573
aS'+'
asS'HEMK1'
p2634
(lp2635
I50569151
aI50584990
aS'+'
asS'MFSD1'
p2636
(lp2637
I158802053
aI158829719
aS'+'
asS'ABHD14A'
p2638
(lp2639
I51975063
aI51981196
aS'+'
asS'PYDC2'
p2640
(lp2641
I191461162
aI191461456
aS'+'
asS'ABHD14B'
p2642
(lp2643
I51968509
aI51974630
aS'-'
asS'NCK1-DT'
p2644
(lp2645
I136841975
aI136862063
aS'-'
asS'CIDEC'
p2646
(lp2647
I9866709
aI9880254
aS'-'
asS'TAMM41'
p2648
(lp2649
I11790441
aI11846919
aS'-'
asS'DCBLD2'
p2650
(lp2651
I98795969
aI98901689
aS'-'
asS'TOPBP1'
p2652
(lp2653
I133600604
aI133661921
aS'-'
asS'MAP6D1'
p2654
(lp2655
I183815875
aI183825605
aS'-'
asS'SSR3'
p2656
(lp2657
I156539552
aI156555200
aS'-'
asS'GOLGB1'
p2658
(lp2659
I121663198
aI121749767
aS'-'
asS'ZNF654'
p2660
(lp2661
I88059254
aI88144660
aS'+'
asS'KIAA1257'
p2662
(lp2663
I128909865
aI129003930
aS'-'
asS'GK5'
p2664
(lp2665
I142157526
aI142225607
aS'-'
asS'NISCH'
p2666
(lp2667
I52455507
aI52493072
aS'+'
asS'MIR138-1'
p2668
(lp2669
I44114211
aI44114310
aS'+'
asS'MYL3'
p2670
(lp2671
I46857866
aI46863483
aS'-'
asS'ATP2C1'
p2672
(lp2673
I130850524
aI131016711
aS'+'
asS'ZKSCAN7-AS1'
p2674
(lp2675
I44557356
aI44685653
aS'-'
asS'MIR551B'
p2676
(lp2677
I168551853
aI168551949
aS'+'
asS'NCEH1'
p2678
(lp2679
I172630644
aI172711067
aS'-'
asS'POC1A'
p2680
(lp2681
I52075232
aI52154690
aS'-'
asS'BHLHE40'
p2682
(lp2683
I4979411
aI4985180
aS'+'
asS'NXPE3'
p2684
(lp2685
I101779176
aI101828231
aS'+'
asS'GP9'
p2686
(lp2687
I129060766
aI129062411
aS'+'
asS'MAGI1'
p2688
(lp2689
I65354230
aI66038918
aS'-'
asS'MIR548I1'
p2690
(lp2691
I125790403
aI125790552
aS'-'
asS'GP5'
p2692
(lp2693
I194394820
aI194399266
aS'-'
asS'TAGLN3'
p2694
(lp2695
I111998738
aI112013888
aS'+'
asS'SLC25A20'
p2696
(lp2697
I48856922
aI48898993
aS'-'
asS'SLC25A26'
p2698
(lp2699
I66133609
aI66378927
aS'+'
asS'GMPS'
p2700
(lp2701
I155870535
aI155937731
aS'+'
asS'FLNB-AS1'
p2702
(lp2703
I58162550
aI58170635
aS'-'
asS'OSTN-AS1'
p2704
(lp2705
I191213294
aI191234605
aS'-'
asS'MYLK'
p2706
(lp2707
I123612295
aI123884302
aS'-'
asS'CPB1'
p2708
(lp2709
I148827800
aI148860185
aS'+'
asS'KPNA4'
p2710
(lp2711
I160494994
aI160565588
aS'-'
asS'MIR5193'
p2712
(lp2713
I49806136
aI49806245
aS'-'
asS'KPNA1'
p2714
(lp2715
I122421900
aI122514939
aS'-'
asS'HDAC11'
p2716
(lp2717
I13480164
aI13506418
aS'+'
asS'LRTM1'
p2718
(lp2719
I54918353
aI54967088
aS'-'
asS'COPB2'
p2720
(lp2721
I139357590
aI139389680
aS'-'
asS'MIR3919'
p2722
(lp2723
I159282645
aI159282734
aS'+'
asS'GORASP1'
p2724
(lp2725
I39096598
aI39108363
aS'-'
asS'EPHB1'
p2726
(lp2727
I134795256
aI135260465
aS'+'
asS'GLB1'
p2728
(lp2729
I32996607
aI33097230
aS'-'
asS'NAA80'
p2730
(lp2731
I50296401
aI50299421
aS'-'
asS'SUMF1'
p2732
(lp2733
I4361144
aI4467282
aS'-'
asS'LINC02585'
p2734
(lp2735
I48663767
aI48669170
aS'+'
asS'ZBBX'
p2736
(lp2737
I167240288
aI167380297
aS'-'
asS'LINC02614'
p2738
(lp2739
I125827236
aI125886077
aS'-'
asS'EHHADH-AS1'
p2740
(lp2741
I185162900
aI185191955
aS'+'
asS'ERC2-IT1'
p2742
(lp2743
I55657210
aI55659469
aS'-'
asS'FNDC3B'
p2744
(lp2745
I172039627
aI172400702
aS'+'
asS'B4GALT4'
p2746
(lp2747
I119211741
aI119240905
aS'-'
asS'TMEM212-AS1'
p2748
(lp2749
I171876351
aI171900740
aS'-'
asS'CADM2-AS2'
p2750
(lp2751
I85799986
aI85828050
aS'-'
asS'MB21D2'
p2752
(lp2753
I192796815
aI192917856
aS'-'
asS'SDHAP2'
p2754
(lp2755
I195658038
aI195688864
aS'+'
asS'SDHAP1'
p2756
(lp2757
I195959920
aI195990279
aS'-'
asS'XYLB'
p2758
(lp2759
I38346759
aI38427183
aS'+'
asS'IMPG2'
p2760
(lp2761
I101222545
aI101320575
aS'-'
asS'PEX5L'
p2762
(lp2763
I179794958
aI180037053
aS'-'
asS'FRG2C'
p2764
(lp2765
I75664190
aI75667217
aS'+'
asS'TMEM14EP'
p2766
(lp2767
I152339697
aI152340990
aS'-'
asS'GPD1L'
p2768
(lp2769
I32106510
aI32168715
aS'+'
asS'AGTR1'
p2770
(lp2771
I148697870
aI148743003
aS'+'
asS'SYN2'
p2772
(lp2773
I12004390
aI12192032
aS'+'
asS'TFDP2'
p2774
(lp2775
I141944427
aI142149544
aS'-'
asS'LOC105374205'
p2776
(lp2777
I169447866
aI169477052
aS'+'
asS'GLYCTK-AS1'
p2778
(lp2779
I52288579
aI52289733
aS'-'
asS'CCR1'
p2780
(lp2781
I46201708
aI46208341
aS'-'
asS'TNIK'
p2782
(lp2783
I171058413
aI171460408
aS'-'
asS'CCR3'
p2784
(lp2785
I46242380
aI46266706
aS'+'
asS'CCR4'
p2786
(lp2787
I32951573
aI32954911
aS'+'
asS'CCR5'
p2788
(lp2789
I46370141
aI46376206
aS'+'
asS'CCR8'
p2790
(lp2791
I39329705
aI39333680
aS'+'
asS'CCR9'
p2792
(lp2793
I45886503
aI45903175
aS'+'
asS'RAF1'
p2794
(lp2795
I12583600
aI12664201
aS'-'
asS'GCSAM'
p2796
(lp2797
I112120840
aI112133305
aS'-'
asS'CD80'
p2798
(lp2799
I119524292
aI119559634
aS'-'
asS'LINC00506'
p2800
(lp2801
I87089279
aI87157069
aS'+'
asS'SLC49A4'
p2802
(lp2803
I122795053
aI122881139
aS'+'
asS'CD86'
p2804
(lp2805
I122055361
aI122121141
aS'+'
asS'CTDSPL'
p2806
(lp2807
I37862177
aI37984469
aS'+'
asS'ZBED2'
p2808
(lp2809
I111592899
aI111595335
aS'-'
asS'LOC101927394'
p2810
(lp2811
I7952804
aI8016307
aS'-'
asS'EFCAB12'
p2812
(lp2813
I129401320
aI129428651
aS'-'
asS'MBNL1-AS1'
p2814
(lp2815
I152262615
aI152269626
aS'-'
asS'GALNT15'
p2816
(lp2817
I16174321
aI16231992
aS'+'
asS'MIR3136'
p2818
(lp2819
I69048957
aI69049035
aS'-'
asS'MIR3137'
p2820
(lp2821
I195134505
aI195134580
aS'-'
asS'MIR3134'
p2822
(lp2823
I15697297
aI15697371
aS'-'
asS'CHRD'
p2824
(lp2825
I184380072
aI184389835
aS'+'
asS'LINC00879'
p2826
(lp2827
I94938262
aI94991328
aS'+'
asS'TRIM71'
p2828
(lp2829
I32817996
aI32897824
aS'+'
asS'LINC00877'
p2830
(lp2831
I72035518
aI72100455
aS'-'
asS'LINC00870'
p2832
(lp2833
I72151256
aI72174339
aS'+'
asS'ZMYND10'
p2834
(lp2835
I50341105
aI50345746
aS'-'
asS'ALG1L2'
p2836
(lp2837
I130081830
aI130098390
aS'+'
asS'UCN2'
p2838
(lp2839
I48561717
aI48563781
aS'-'
asS'SCAP'
p2840
(lp2841
I47413684
aI47475959
aS'-'
asS'LOC105374060'
p2842
(lp2843
I118508410
aI118810833
aS'-'
asS'PTPN23'
p2844
(lp2845
I47380981
aI47413441
aS'+'
asS'B4GALT4-AS1'
p2846
(lp2847
I119226485
aI119290666
aS'+'
asS'CLEC3B'
p2848
(lp2849
I45026266
aI45036071
aS'+'
asS'CGGBP1'
p2850
(lp2851
I88051949
aI88149866
aS'-'
asS'FAM86DP'
p2852
(lp2853
I75421551
aI75435115
aS'-'
asS'SERPINI1'
p2854
(lp2855
I167735643
aI167825569
aS'+'
asS'SERPINI2'
p2856
(lp2857
I167441788
aI167474132
aS'-'
asS'TPRG1'
p2858
(lp2859
I189171973
aI189323482
aS'+'
asS'ACY1'
p2860
(lp2861
I51983283
aI51989202
aS'+'
asS'LRCH3'
p2862
(lp2863
I197791225
aI197888434
aS'+'
asS'LOC105377162'
p2864
(lp2865
I72663295
aI72664249
aS'-'
asS'CCDC13-AS1'
p2866
(lp2867
I42732574
aI42745158
aS'+'
asS'P3H2-AS1'
p2868
(lp2869
I190120963
aI190144846
aS'+'
asS'FAM43A'
p2870
(lp2871
I194685892
aI194689037
aS'+'
asS'HRASLS'
p2872
(lp2873
I193241221
aI193270855
aS'+'
asS'ZNF717'
p2874
(lp2875
I75729960
aI75785583
aS'-'
asS'ZNF860'
p2876
(lp2877
I31981773
aI31991736
aS'+'
asS'MIR564'
p2878
(lp2879
I44861887
aI44861981
aS'+'
asS'MIR567'
p2880
(lp2881
I112112800
aI112112898
aS'+'
asS'MIR563'
p2882
(lp2883
I15873770
aI15873849
aS'+'
asS'ABCC5'
p2884
(lp2885
I183919935
aI184017960
aS'-'
asS'HTR1F'
p2886
(lp2887
I87792766
aI87993831
aS'+'
asS'MIR569'
p2888
(lp2889
I171106663
aI171106759
aS'-'
asS'MIR568'
p2890
(lp2891
I114316474
aI114316569
aS'-'
asS'MIRLET7G'
p2892
(lp2893
I52268277
aI52268361
aS'-'
asS'ASB14'
p2894
(lp2895
I57268350
aI57292682
aS'-'
asS'DNAH12'
p2896
(lp2897
I57293698
aI57544344
aS'-'
asS'UTS2B'
p2898
(lp2899
I191267154
aI191330536
aS'-'
asS'THPO'
p2900
(lp2901
I184371934
aI184379688
aS'-'
asS'RBM15B'
p2902
(lp2903
I51391284
aI51397905
aS'+'
asS'RPL22L1'
p2904
(lp2905
I170864875
aI170870256
aS'-'
asS'RFTN1'
p2906
(lp2907
I16315844
aI16513699
aS'-'
asS'ALDH1L1-AS1'
p2908
(lp2909
I126103639
aI126108069
aS'+'
asS'ALDH1L1-AS2'
p2910
(lp2911
I126180064
aI126210168
aS'+'
asS'GOLGA4'
p2912
(lp2913
I37243190
aI37366879
aS'+'
asS'ZNF660'
p2914
(lp2915
I44584849
aI44599693
aS'+'
asS'ZNF662'
p2916
(lp2917
I42905909
aI42919333
aS'+'
asS'FAM19A4'
p2918
(lp2919
I68731763
aI68932610
aS'-'
asS'FAM19A1'
p2920
(lp2921
I67991591
aI68545620
aS'+'
asS'CACNA2D2'
p2922
(lp2923
I50362612
aI50504244
aS'-'
asS'CACNA2D3'
p2924
(lp2925
I54122665
aI55074557
aS'+'
asS'ATP2B2'
p2926
(lp2927
I10324022
aI10619961
aS'-'
asS'ZNF445'
p2928
(lp2929
I44439769
aI44477670
aS'-'
asS'ANKUB1'
p2930
(lp2931
I149761438
aI149792823
aS'-'
asS'FANCD2OS'
p2932
(lp2933
I10081319
aI10108231
aS'-'
asS'CSPG5'
p2934
(lp2935
I47562237
aI47580240
aS'-'
asS'MIR1284'
p2936
(lp2937
I71541969
aI71542089
aS'-'
asS'LOC101928166'
p2938
(lp2939
I152159463
aI152205429
aS'-'
asS'XRN1'
p2940
(lp2941
I142306606
aI142448062
aS'-'
asS'ZKSCAN7'
p2942
(lp2943
I44555174
aI44583464
aS'+'
asS'PLS1'
p2944
(lp2945
I142596386
aI142713663
aS'+'
asS'PRSS45'
p2946
(lp2947
I46742090
aI46744755
aS'-'
asS'PRSS42'
p2948
(lp2949
I46829542
aI46834095
aS'-'
asS'SLC2A2'
p2950
(lp2951
I170996347
aI171026979
aS'-'
asS'SLC25A36'
p2952
(lp2953
I140941819
aI140979943
aS'+'
asS'BCHE'
p2954
(lp2955
I165772902
aI165837472
aS'-'
asS'DCP1A'
p2956
(lp2957
I53283424
aI53347627
aS'-'
asS'ZBTB20-AS5'
p2958
(lp2959
I114453592
aI114520132
aS'+'
asS'ZBTB20-AS4'
p2960
(lp2961
I115100422
aI115103061
aS'+'
asS'MAPKAPK3'
p2962
(lp2963
I50611861
aI50649297
aS'+'
asS'SLC25A38'
p2964
(lp2965
I39383323
aI39397351
aS'+'
asS'ZBTB20-AS3'
p2966
(lp2967
I114873032
aI114876514
aS'+'
asS'LINC00884'
p2968
(lp2969
I194487139
aI194488545
aS'+'
asS'LINC02021'
p2970
(lp2971
I130111706
aI130120569
aS'+'
asS'LINC02020'
p2972
(lp2973
I186440344
aI186445242
aS'+'
asS'LINC02022'
p2974
(lp2975
I12877521
aI12885211
aS'-'
asS'LINC02025'
p2976
(lp2977
I84882089
aI84893379
aS'+'
asS'LINC02024'
p2978
(lp2979
I117678692
aI117690925
aS'-'
asS'LINC02027'
p2980
(lp2981
I80993867
aI81095647
aS'+'
asS'LINC02026'
p2982
(lp2983
I193957371
aI194003659
aS'-'
asS'LINC02029'
p2984
(lp2985
I157081840
aI157088547
aS'+'
asS'CPA3'
p2986
(lp2987
I148865255
aI148897091
aS'+'
asS'MIR4444-1'
p2988
(lp2989
I75214475
aI75214548
aS'+'
asS'IGSF10'
p2990
(lp2991
I151435989
aI151458709
aS'-'
asS'IGSF11'
p2992
(lp2993
I118900630
aI119146068
aS'-'
asS'SLMAP'
p2994
(lp2995
I57757255
aI57930016
aS'+'
asS'PIK3R4'
p2996
(lp2997
I130678933
aI130746829
aS'-'
asS'PDHB'
p2998
(lp2999
I58427629
aI58433852
aS'-'
asS'MIR3921'
p3000
(lp3001
I99964313
aI99964398
aS'-'
asS'MIR3923'
p3002
(lp3003
I79507886
aI79507969
aS'+'
asS'STAG1'
p3004
(lp3005
I136337156
aI136752403
aS'-'
asS'PRICKLE2-AS1'
p3006
(lp3007
I64067963
aI64103131
aS'+'
asS'PRICKLE2-AS3'
p3008
(lp3009
I64187543
aI64201560
aS'+'
asS'PRICKLE2-AS2'
p3010
(lp3011
I64103469
aI64106358
aS'+'
asS'MELTF-AS1'
p3012
(lp3013
I197002905
aI197004744
aS'+'
asS'STT3B'
p3014
(lp3015
I31532500
aI31637622
aS'+'
asS'ETV5'
p3016
(lp3017
I186046316
aI186109112
aS'-'
asS'LRRC15'
p3018
(lp3019
I194355246
aI194369743
aS'-'
asS'ZNF660-ZNF197'
p3020
(lp3021
I44584849
aI44648471
aS'+'
asS'PLCXD2-AS1'
p3022
(lp3023
I111676265
aI111677433
aS'-'
asS'SLC51A'
p3024
(lp3025
I196216511
aI196233430
aS'+'
asS'SNORD19B'
p3026
(lp3027
I52690737
aI52690830
aS'+'
asS'SNORD19C'
p3028
(lp3029
I52691377
aI52691444
aS'+'
asS'EFCC1'
p3030
(lp3031
I129001628
aI129040742
aS'+'
asS'MIR5704'
p3032
(lp3033
I131985854
aI131985931
aS'-'
asS'SMIM4'
p3034
(lp3035
I52536604
aI52540570
aS'+'
asS'AP2M1'
p3036
(lp3037
I184174845
aI184184091
aS'+'
asS'SACM1L'
p3038
(lp3039
I45689240
aI45745425
aS'+'
asS'LOC100128164'
p3040
(lp3041
I169943983
aI169966734
aS'-'
asS'ARL6IP5'
p3042
(lp3043
I69084936
aI69106092
aS'+'
asS'MGC2889'
p3044
(lp3045
I193241778
aI193243972
aS'+'
asS'SEC22A'
p3046
(lp3047
I123201926
aI123274135
aS'+'
asS'EGFEM1P'
p3048
(lp3049
I168249521
aI168830586
aS'+'
asS'GHSR'
p3050
(lp3051
I172443290
aI172448456
aS'-'
asS'SLC6A11'
p3052
(lp3053
I10816199
aI10940733
aS'+'
asS'TADA3'
p3054
(lp3055
I9779963
aI9793011
aS'-'
asS'PTH1R'
p3056
(lp3057
I46877745
aI46903799
aS'+'
asS'IL12A'
p3058
(lp3059
I159988835
aI159996019
aS'+'
asS'SLC33A1'
p3060
(lp3061
I155826510
aI155854459
aS'-'
asS'CAND2'
p3062
(lp3063
I12796671
aI12834814
aS'+'
asS'TATDN2'
p3064
(lp3065
I10248492
aI10281222
aS'+'
asS'KRBOX1'
p3066
(lp3067
I42936341
aI42942791
aS'+'
asS'BRPF1'
p3068
(lp3069
I9731728
aI9748016
aS'+'
asS'LINC00881'
p3070
(lp3071
I157089880
aI157101135
aS'+'
asS'LINC00880'
p3072
(lp3073
I157081666
aI157123002
aS'-'
asS'COL8A1'
p3074
(lp3075
I99638593
aI99799217
aS'+'
asS'LINC00882'
p3076
(lp3077
I107109789
aI107240638
aS'-'
asS'MIR4444-2'
p3078
(lp3079
I75214475
aI75214548
aS'+'
asS'CLASP2'
p3080
(lp3081
I33496245
aI33718254
aS'-'
asS'LINC00887'
p3082
(lp3083
I194301199
aI194312804
aS'-'
asS'GTF2E1'
p3084
(lp3085
I120742743
aI120783069
aS'+'
asS'LINC00888'
p3086
(lp3087
I183447607
aI183456012
aS'+'
asS'PDIA5'
p3088
(lp3089
I123067008
aI123162106
aS'+'
asS'ACAP2'
p3090
(lp3091
I195274735
aI195443088
aS'-'
asS'ARMC8'
p3092
(lp3093
I138187247
aI138298386
aS'+'
asS'SNTN'
p3094
(lp3095
I63652667
aI63665215
aS'+'
asS'SEC22C'
p3096
(lp3097
I42547966
aI42601080
aS'-'
asS'H1FOO'
p3098
(lp3099
I129543213
aI129551467
aS'+'
asS'TLR9'
p3100
(lp3101
I52221079
aI52226163
aS'-'
asS'APPL1'
p3102
(lp3103
I57227736
aI57273470
aS'+'
asS'SLC7A14'
p3104
(lp3105
I170459553
aI170586074
aS'-'
asS'PDCD6IP'
p3106
(lp3107
I33798570
aI33869707
aS'+'
asS'TTC21A'
p3108
(lp3109
I39107660
aI39138903
aS'+'
asS'ACTL6A'
p3110
(lp3111
I179562879
aI179588405
aS'+'
asS'LINC00312'
p3112
(lp3113
I8571781
aI8574668
aS'+'
as.