(dp1
S'SCFD2'
p2
(lp3
I52872983
aI53366075
aS'-'
asS'MIR6082'
p4
(lp5
I171186183
aI171186292
aS'+'
asS'LOC100130872'
p6
(lp7
I1195782
aI1208962
aS'-'
asS'NELFA'
p8
(lp9
I1982713
aI2009235
aS'-'
asS'GPAT3'
p10
(lp11
I83535913
aI83605874
aS'+'
asS'CPE'
p12
(lp13
I165378941
aI165498547
aS'+'
asS'AGA'
p14
(lp15
I177430774
aI177442503
aS'-'
asS'TRAM1L1'
p16
(lp17
I117083553
aI117085580
aS'-'
asS'CPZ'
p18
(lp19
I8592659
aI8619761
aS'+'
asS'GPM6A'
p20
(lp21
I175632936
aI176002691
aS'-'
asS'ZCCHC4'
p22
(lp23
I25312773
aI25370383
aS'+'
asS'LINC002481'
p24
(lp25
I6687447
aI6690519
aS'-'
asS'CCDC149'
p26
(lp27
I24806116
aI24980204
aS'-'
asS'LINC01179'
p28
(lp29
I165684638
aI165762778
aS'+'
asS'MIR378D1'
p30
(lp31
I5923274
aI5923328
aS'-'
asS'COMMD8'
p32
(lp33
I47450788
aI47463730
aS'-'
asS'BLOC1S4'
p34
(lp35
I6716114
aI6717660
aS'+'
asS'LOC101927516'
p36
(lp37
I140128014
aI140138857
aS'+'
asS'ADAM29'
p38
(lp39
I174918357
aI174978180
aS'+'
asS'TKTL2'
p40
(lp41
I163471094
aI163473895
aS'-'
asS'LINC01262'
p42
(lp43
I189659605
aI189661486
aS'+'
asS'APBB2'
p44
(lp45
I40810026
aI41214618
aS'-'
asS'DBET'
p46
(lp47
I190064501
aI190067864
aS'+'
asS'FAM114A1'
p48
(lp49
I38867732
aI38945744
aS'+'
asS'LOC101929210'
p50
(lp51
I94117819
aI94207556
aS'-'
asS'IL21-AS1'
p52
(lp53
I122618982
aI122689156
aS'+'
asS'LINC02362'
p54
(lp55
I184365560
aI184382306
aS'-'
asS'RPS3A'
p56
(lp57
I151099572
aI151104652
aS'+'
asS'BANK1'
p58
(lp59
I101790606
aI102074812
aS'+'
asS'LOC101929577'
p60
(lp61
I106003316
aI106022478
aS'-'
asS'LINC02364'
p62
(lp63
I28996783
aI29014593
aS'+'
asS'DANCR'
p64
(lp65
I52712393
aI52720697
aS'+'
asS'PANCR'
p66
(lp67
I110595512
aI110615458
aS'-'
asS'WDR1'
p68
(lp69
I10074338
aI10116949
aS'-'
asS'LARP7'
p70
(lp71
I112636963
aI112657592
aS'+'
asS'CAMK2D'
p72
(lp73
I113451031
aI113761927
aS'-'
asS'FAM90A26'
p74
(lp75
I9173172
aI9176167
aS'+'
asS'SLIT2-IT1'
p76
(lp77
I20392188
aI20394856
aS'+'
asS'PPP2R2C'
p78
(lp79
I6320577
aI6563600
aS'-'
asS'SMR3A'
p80
(lp81
I70360775
aI70367106
aS'+'
asS'LINC02502'
p82
(lp83
I119939539
aI119964293
aS'+'
asS'PCNAP1'
p84
(lp85
I99160593
aI99161647
aS'-'
asS'GC'
p86
(lp87
I71741693
aI71805520
aS'-'
asS'USP46-AS1'
p88
(lp89
I52659405
aI52661498
aS'+'
asS'JCHAIN'
p90
(lp91
I70655540
aI70666631
aS'-'
asS'ABLIM2'
p92
(lp93
I7965309
aI8158832
aS'-'
asS'SULT1E1'
p94
(lp95
I69841211
aI69860152
aS'-'
asS'CXCL10'
p96
(lp97
I76021117
aI76023497
aS'-'
asS'CXCL13'
p98
(lp99
I77511752
aI77611836
aS'+'
asS'TMEM184C'
p100
(lp101
I147617387
aI147635521
aS'+'
asS'GYPE'
p102
(lp103
I143870865
aI143905563
aS'-'
asS'IQCM'
p104
(lp105
I149351708
aI149815861
aS'-'
asS'MIR3945HG'
p106
(lp107
I184843295
aI184855652
aS'-'
asS'HNRNPDL'
p108
(lp109
I82422563
aI82430225
aS'-'
asS'LINC01085'
p110
(lp111
I14111967
aI14140052
aS'+'
asS'LOC439933'
p112
(lp113
I36244115
aI36274215
aS'+'
asS'LINC01088'
p114
(lp115
I78971747
aI79308799
aS'+'
asS'NUP54'
p116
(lp117
I76114658
aI76148515
aS'-'
asS'GATB'
p118
(lp119
I151670655
aI151761023
aS'-'
asS'ARHGAP10'
p120
(lp121
I147732301
aI148072776
aS'+'
asS'CSN3'
p122
(lp123
I70242615
aI70251428
aS'+'
asS'LINC02511'
p124
(lp125
I136795901
aI137212799
aS'-'
asS'CTBP1'
p126
(lp127
I1211439
aI1249120
aS'-'
asS'LINC02513'
p128
(lp129
I38366913
aI38385746
aS'+'
asS'SLED1'
p130
(lp131
I184798295
aI184799046
aS'-'
asS'LINC02517'
p132
(lp133
I8320175
aI8323965
aS'+'
asS'HHIP'
p134
(lp135
I144645995
aI144738729
aS'+'
asS'HSD17B13'
p136
(lp137
I87303788
aI87322906
aS'-'
asS'HSD17B11'
p138
(lp139
I87336524
aI87391303
aS'-'
asS'EMCN'
p140
(lp141
I100395340
aI100518093
aS'-'
asS'USP17L5'
p142
(lp143
I9325164
aI9326757
aS'+'
asS'AFM'
p144
(lp145
I73481744
aI73504001
aS'+'
asS'LRIT3'
p146
(lp147
I109848183
aI109872315
aS'+'
asS'GABRG1'
p148
(lp149
I46035769
aI46124065
aS'-'
asS'EVC'
p150
(lp151
I5711196
aI5814304
aS'+'
asS'PDS5A'
p152
(lp153
I39822862
aI39977956
aS'-'
asS'UBE2D3'
p154
(lp155
I102794382
aI102868893
aS'-'
asS'NDNF'
p156
(lp157
I121035612
aI121072535
aS'-'
asS'USP17L30'
p158
(lp159
I9339402
aI9340995
aS'+'
asS'MGST2'
p160
(lp161
I139665767
aI139740745
aS'+'
asS'MFSD10'
p162
(lp163
I2930560
aI2934859
aS'-'
asS'LOC105377458'
p164
(lp165
I143817793
aI143829348
aS'-'
asS'LOC105377590'
p166
(lp167
I185471430
aI185472262
aS'+'
asS'SMIM31'
p168
(lp169
I164754130
aI164803795
aS'+'
asS'EDNRA'
p170
(lp171
I147480916
aI147544954
aS'+'
asS'ODAM'
p172
(lp173
I70196526
aI70204576
aS'+'
asS'CYP2U1'
p174
(lp175
I107931560
aI107953457
aS'+'
asS'COX7B2'
p176
(lp177
I46734829
aI46909235
aS'-'
asS'CHIC2'
p178
(lp179
I54009790
aI54064648
aS'-'
asS'LOC101928279'
p180
(lp181
I4761759
aI4787374
aS'+'
asS'FAM198B-AS1'
p182
(lp183
I158170751
aI158202877
aS'+'
asS'GSX2'
p184
(lp185
I54100080
aI54101955
aS'+'
asS'METTL14-DT'
p186
(lp187
I118664088
aI118685341
aS'-'
asS'TADA2B'
p188
(lp189
I7043428
aI7057950
aS'+'
asS'MIR5091'
p190
(lp191
I13627864
aI13627957
aS'+'
asS'MRFAP1L1'
p192
(lp193
I6707700
aI6709879
aS'-'
asS'PAICS'
p194
(lp195
I56435748
aI56461368
aS'+'
asS'IL2'
p196
(lp197
I122451470
aI122456495
aS'-'
asS'KCNIP4'
p198
(lp199
I20728615
aI21948751
aS'-'
asS'LINC00682'
p200
(lp201
I41879520
aI41882611
aS'-'
asS'GAR1'
p202
(lp203
I109815509
aI109824737
aS'+'
asS'ALPK1'
p204
(lp205
I112297342
aI112442608
aS'+'
asS'PDLIM5'
p206
(lp207
I94451856
aI94668227
aS'+'
asS'FRAS1'
p208
(lp209
I78057322
aI78544269
aS'+'
asS'TNRC18P1'
p210
(lp211
I140641190
aI140643080
aS'-'
asS'PDLIM3'
p212
(lp213
I185500660
aI185535558
aS'-'
asS'DAPP1'
p214
(lp215
I99816826
aI99870189
aS'+'
asS'TMEM129'
p216
(lp217
I1715951
aI1721357
aS'-'
asS'TMEM128'
p218
(lp219
I4235541
aI4248242
aS'-'
asS'SLC39A8'
p220
(lp221
I102251040
aI102345253
aS'-'
asS'NUDT6'
p222
(lp223
I122892643
aI122923004
aS'-'
asS'VEGFC'
p224
(lp225
I176683533
aI176792745
aS'-'
asS'RAP1GDS1'
p226
(lp227
I98261375
aI98443861
aS'+'
asS'LOC105374428'
p228
(lp229
I42299011
aI42391268
aS'-'
asS'LOC100505912'
p230
(lp231
I22327365
aI22339666
aS'-'
asS'TACR3'
p232
(lp233
I103589467
aI103719816
aS'-'
asS'ANAPC4'
p234
(lp235
I25377225
aI25418498
aS'+'
asS'ING2'
p236
(lp237
I183505049
aI183512428
aS'+'
asS'USP17L10'
p238
(lp239
I9210656
aI9212249
aS'+'
asS'LOC102723704'
p240
(lp241
I102777036
aI102799575
aS'+'
asS'MIR4799'
p242
(lp243
I147782594
aI147782668
aS'+'
asS'PPID'
p244
(lp245
I158709126
aI158723400
aS'-'
asS'LINC02429'
p246
(lp247
I58984281
aI59046959
aS'+'
asS'LINC02428'
p248
(lp249
I103425041
aI103439728
aS'+'
asS'LOC105377448'
p250
(lp251
I138819956
aI139012646
aS'-'
asS'SH3D19'
p252
(lp253
I151120280
aI151228030
aS'-'
asS'LINC02427'
p254
(lp255
I184506459
aI184537583
aS'-'
asS'APELA'
p256
(lp257
I164877177
aI164897527
aS'+'
asS'LOC105377342'
p258
(lp259
I98658901
aI98664551
aS'+'
asS'PDE6B'
p260
(lp261
I625573
aI670892
aS'+'
asS'PRDM5'
p262
(lp263
I120691912
aI120922866
aS'-'
asS'LOC101928306'
p264
(lp265
I4920807
aI4988671
aS'+'
asS'WDFY3'
p266
(lp267
I84669539
aI84966391
aS'-'
asS'PRDM8'
p268
(lp269
I80185269
aI80204328
aS'+'
asS'MIR4453HG'
p270
(lp271
I152536263
aI152539263
aS'+'
asS'TEMN3-AS1'
p272
(lp273
I181820004
aI181829973
aS'-'
asS'PRSS12'
p274
(lp275
I118280037
aI118352767
aS'-'
asS'LRPAP1'
p276
(lp277
I3503611
aI3532422
aS'-'
asS'OTUD4'
p278
(lp279
I145133649
aI145180589
aS'-'
asS'LETM1'
p280
(lp281
I1811478
aI1856247
aS'-'
asS'SMAD1'
p282
(lp283
I145481305
aI145559173
aS'+'
asS'MIR4455'
p284
(lp285
I184938382
aI184938440
aS'-'
asS'SHROOM3'
p286
(lp287
I76435228
aI76783252
aS'+'
asS'SLC4A4'
p288
(lp289
I71187285
aI71572087
aS'+'
asS'ANKRD37'
p290
(lp291
I185396685
aI185400245
aS'+'
asS'STBD1'
p292
(lp293
I76306025
aI76311130
aS'+'
asS'LINC02562'
p294
(lp295
I75081925
aI75084708
aS'-'
asS'POLN'
p296
(lp297
I2071957
aI2242164
aS'-'
asS'TMPRSS11B'
p298
(lp299
I68226652
aI68245694
aS'-'
asS'TMPRSS11D'
p300
(lp301
I67820875
aI67883998
aS'-'
asS'TMPRSS11E'
p302
(lp303
I68447448
aI68497604
aS'+'
asS'TMPRSS11F'
p304
(lp305
I68053197
aI68129869
aS'-'
asS'HTRA3'
p306
(lp307
I8269764
aI8307111
aS'+'
asS'ENPEP'
p308
(lp309
I110476072
aI110563337
aS'+'
asS'SCLT1'
p310
(lp311
I128883994
aI129093607
aS'-'
asS'F11'
p312
(lp313
I186265963
aI186289681
aS'+'
asS'LOC339975'
p314
(lp315
I187304082
aI187505613
aS'-'
asS'FGF2'
p316
(lp317
I122826707
aI122898236
aS'+'
asS'ATOH1'
p318
(lp319
I93828926
aI93829991
aS'+'
asS'RNF150'
p320
(lp321
I140865570
aI141133462
aS'-'
asS'F11-AS1'
p322
(lp323
I186286097
aI186501058
aS'-'
asS'ART3'
p324
(lp325
I76011179
aI76112802
aS'+'
asS'NDUFC1'
p326
(lp327
I139289916
aI139302551
aS'-'
asS'GRID2'
p328
(lp329
I92304398
aI93774555
aS'+'
asS'CEP44'
p330
(lp331
I174283903
aI174333380
aS'+'
asS'ENOPH1'
p332
(lp333
I82430479
aI82461175
aS'+'
asS'PPEF2'
p334
(lp335
I75859872
aI75902528
aS'-'
asS'LOC105377623'
p336
(lp337
I143177659
aI143184861
aS'-'
asS'LOC729870'
p338
(lp339
I152934515
aI152936837
aS'-'
asS'ADGRL3'
p340
(lp341
I61201255
aI62078335
aS'+'
asS'TRMT44'
p342
(lp343
I8440796
aI8476555
aS'+'
asS'LEF1'
p344
(lp345
I108047544
aI108168956
aS'-'
asS'PTTG2'
p346
(lp347
I37960434
aI37961010
aS'+'
asS'LINC02360'
p348
(lp349
I11740950
aI11769468
aS'-'
asS'ZNF732'
p350
(lp351
I270674
aI305469
aS'-'
asS'GUSBP5'
p352
(lp353
I143559471
aI143561460
aS'+'
asS'SMAD1-AS1'
p354
(lp355
I145514577
aI145517194
aS'-'
asS'TBCK'
p356
(lp357
I106044316
aI106316704
aS'-'
asS'EPHA5-AS1'
p358
(lp359
I65669960
aI65693386
aS'+'
asS'RAB33B'
p360
(lp361
I139453806
aI139475915
aS'+'
asS'LAP3'
p362
(lp363
I17577303
aI17607967
aS'+'
asS'ZFYVE28'
p364
(lp365
I2269596
aI2418643
aS'-'
asS'ALB'
p366
(lp367
I73404238
aI73421484
aS'+'
asS'RELL1'
p368
(lp369
I37590799
aI37686377
aS'-'
asS'CCDC110'
p370
(lp371
I185445183
aI185471759
aS'-'
asS'NPNT'
p372
(lp373
I105895439
aI105971671
aS'+'
asS'LINC01216'
p374
(lp375
I100660278
aI100675113
aS'-'
asS'SPP1'
p376
(lp377
I87975649
aI87983411
aS'+'
asS'METTL14'
p378
(lp379
I118685369
aI118712270
aS'+'
asS'C4orf45'
p380
(lp381
I158893531
aI159035181
aS'-'
asS'CXXC4'
p382
(lp383
I104468305
aI104494901
aS'-'
asS'UGT2B28'
p384
(lp385
I69280498
aI69295050
aS'+'
asS'C4orf48'
p386
(lp387
I2041992
aI2043970
aS'+'
asS'LOC105374344'
p388
(lp389
I1113638
aI1132975
aS'+'
asS'SPCS3'
p390
(lp391
I176319938
aI176332245
aS'+'
asS'LARP1B'
p392
(lp393
I128061265
aI128222931
aS'+'
asS'HMGB2'
p394
(lp395
I173331375
aI173334444
aS'-'
asS'PYURF'
p396
(lp397
I88520977
aI88523801
aS'-'
asS'SPARCL1'
p398
(lp399
I87473329
aI87529503
aS'-'
asS'CPEB2'
p400
(lp401
I15002673
aI15070153
aS'+'
asS'LINC02269'
p402
(lp403
I173897272
aI173929525
aS'+'
asS'SGMS2'
p404
(lp405
I107824564
aI107915047
aS'+'
asS'HAND2'
p406
(lp407
I173526500
aI173530227
aS'-'
asS'LOC550113'
p408
(lp409
I68053507
aI68073233
aS'+'
asS'AFAP1'
p410
(lp411
I7758712
aI7939926
aS'-'
asS'LINC02233'
p412
(lp413
I159666505
aI159777784
aS'-'
asS'MOB1B'
p414
(lp415
I70902339
aI70988174
aS'+'
asS'PARM1'
p416
(lp417
I74933074
aI75050115
aS'+'
asS'MIR3139'
p418
(lp419
I143343459
aI143343535
aS'+'
asS'FRG1'
p420
(lp421
I189940871
aI189963191
aS'+'
asS'CFAP99'
p422
(lp423
I2418944
aI2462963
aS'+'
asS'FRG2'
p424
(lp425
I190024367
aI190027257
aS'-'
asS'CCNA2'
p426
(lp427
I121816443
aI121824001
aS'-'
asS'ARHGEF38-IT1'
p428
(lp429
I105561590
aI105570235
aS'+'
asS'SRD5A3-AS1'
p430
(lp431
I55366600
aI55385580
aS'-'
asS'LOC101928131'
p432
(lp433
I165730778
aI165743071
aS'-'
asS'CTSO'
p434
(lp435
I155924117
aI155953896
aS'-'
asS'MAB21L2'
p436
(lp437
I150581924
aI150584693
aS'+'
asS'HTT'
p438
(lp439
I3074680
aI3243960
aS'+'
asS'KLF3'
p440
(lp441
I38664168
aI38701508
aS'+'
asS'SLIT2'
p442
(lp443
I20251904
aI20620561
aS'+'
asS'MIR548AH'
p444
(lp445
I76575550
aI76575626
aS'+'
asS'MIR4802'
p446
(lp447
I40502039
aI40502119
aS'-'
asS'FIP1L1'
p448
(lp449
I53377652
aI53459936
aS'+'
asS'AASDH'
p450
(lp451
I56338284
aI56387508
aS'-'
asS'HHIP-AS1'
p452
(lp453
I144642915
aI144646019
aS'-'
asS'N4BP2'
p454
(lp455
I40056903
aI40158252
aS'+'
asS'SPON2'
p456
(lp457
I1166932
aI1208962
aS'-'
asS'LOC100506444'
p458
(lp459
I53695900
aI53734358
aS'+'
asS'CASP3'
p460
(lp461
I184627695
aI184649475
aS'-'
asS'CTBP1-AS'
p462
(lp463
I1210119
aI1218591
aS'+'
asS'LOC101929353'
p464
(lp465
I100190032
aI100215505
aS'+'
asS'FAM13A-AS1'
p466
(lp467
I88709788
aI88730103
aS'+'
asS'MND1'
p468
(lp469
I153344648
aI153415095
aS'+'
asS'SMR3B'
p470
(lp471
I70383077
aI70390244
aS'+'
asS'SPOCK3'
p472
(lp473
I166733384
aI167234590
aS'-'
asS'REST'
p474
(lp475
I56907875
aI56935844
aS'+'
asS'SEPSECS-AS1'
p476
(lp477
I25160671
aI25198505
aS'+'
asS'SEPSECS'
p478
(lp479
I25120013
aI25160449
aS'-'
asS'GTF2IP12'
p480
(lp481
I119449569
aI119454628
aS'-'
asS'PHOX2B'
p482
(lp483
I41744081
aI41748970
aS'-'
asS'CETN4P'
p484
(lp485
I122730188
aI122732458
aS'-'
asS'NAF1'
p486
(lp487
I163126707
aI163166921
aS'-'
asS'NIPAL1'
p488
(lp489
I48016771
aI48040173
aS'+'
asS'HELQ'
p490
(lp491
I83407342
aI83455883
aS'-'
asS'NSD2'
p492
(lp493
I1871395
aI1982207
aS'+'
asS'LINC02173'
p494
(lp495
I106433623
aI106453447
aS'+'
asS'LINC02172'
p496
(lp497
I137545730
aI137603430
aS'+'
asS'LINC02171'
p498
(lp499
I3673592
aI3677855
aS'-'
asS'CFI'
p500
(lp501
I109740691
aI109802225
aS'-'
asS'RAB28'
p502
(lp503
I13367722
aI13484365
aS'-'
asS'THAP9'
p504
(lp505
I82900649
aI82919969
aS'+'
asS'DKK2'
p506
(lp507
I106921801
aI107036313
aS'-'
asS'ARSJ'
p508
(lp509
I113900283
aI113979722
aS'-'
asS'SEC24B-AS1'
p510
(lp511
I109429962
aI109433817
aS'-'
asS'MGAT4D'
p512
(lp513
I140443374
aI140498377
aS'-'
asS'ANK2'
p514
(lp515
I112706017
aI113383740
aS'+'
asS'SEL1L3'
p516
(lp517
I25747426
aI25863595
aS'-'
asS'LOC101928590'
p518
(lp519
I175790306
aI175812189
aS'+'
asS'PPP3CA'
p520
(lp521
I101023429
aI101347471
aS'-'
asS'SMARCA5-AS1'
p522
(lp523
I143513471
aI143514837
aS'-'
asS'FRYL'
p524
(lp525
I48497362
aI48780299
aS'-'
asS'SNORA24'
p526
(lp527
I118279189
aI118279320
aS'+'
asS'SNORA26'
p528
(lp529
I52713248
aI52713370
aS'+'
asS'GRPEL1'
p530
(lp531
I7058894
aI7068210
aS'-'
asS'GNPDA2'
p532
(lp533
I44701794
aI44726634
aS'-'
asS'SLC7A11-AS1'
p534
(lp535
I138089013
aI138178177
aS'+'
asS'MIR3140'
p536
(lp537
I152489326
aI152489416
aS'-'
asS'LINC00955'
p538
(lp539
I3576868
aI3590985
aS'+'
asS'SHISA3'
p540
(lp541
I42397487
aI42402487
aS'+'
asS'CXCL11'
p542
(lp543
I76033686
aI76036197
aS'-'
asS'MARCH1'
p544
(lp545
I163524297
aI164383255
aS'-'
asS'GYPA'
p546
(lp547
I144109302
aI144140786
aS'-'
asS'AFAP1-AS1'
p548
(lp549
I7754089
aI7778927
aS'+'
asS'TMEM175'
p550
(lp551
I932386
aI958655
aS'+'
asS'EGF'
p552
(lp553
I109912883
aI110013079
aS'+'
asS'LINC02283'
p554
(lp555
I54332891
aI54356104
aS'+'
asS'TMED11P'
p556
(lp557
I1115196
aI1123164
aS'-'
asS'HELT'
p558
(lp559
I185018840
aI185020804
aS'+'
asS'LOC101929064'
p560
(lp561
I86119805
aI86219926
aS'+'
asS'ADAMTS3'
p562
(lp563
I72280968
aI72569221
aS'-'
asS'ASB5'
p564
(lp565
I176213674
aI176269222
aS'-'
asS'DHX15'
p566
(lp567
I24527464
aI24584561
aS'-'
asS'CCSER1'
p568
(lp569
I90127532
aI91602219
aS'+'
asS'LOC441052'
p570
(lp571
I171812137
aI171813607
aS'-'
asS'ADRA2C'
p572
(lp573
I3766568
aI3768526
aS'+'
asS'LINC02472'
p574
(lp575
I29214291
aI29221161
aS'+'
asS'ABRAXAS1'
p576
(lp577
I83460940
aI83485178
aS'-'
asS'FGFBP2'
p578
(lp579
I15960239
aI15963236
aS'-'
asS'FGFBP1'
p580
(lp581
I15935569
aI15938740
aS'-'
asS'LINC02475'
p582
(lp583
I44016860
aI44022061
aS'+'
asS'LINC02479'
p584
(lp585
I130376360
aI130388071
aS'+'
asS'SORCS2'
p586
(lp587
I7192646
aI7742837
aS'+'
asS'FGB'
p588
(lp589
I154562979
aI154572763
aS'+'
asS'FLJ20021'
p590
(lp591
I101347776
aI101348883
aS'+'
asS'JAKMIP1'
p592
(lp593
I6026198
aI6200591
aS'-'
asS'C4orf19'
p594
(lp595
I37453929
aI37593510
aS'+'
asS'TMEM131L'
p596
(lp597
I153466345
aI153636710
aS'+'
asS'UGT2A3'
p598
(lp599
I68928458
aI68951791
aS'-'
asS'CENPE'
p600
(lp601
I103105805
aI103198409
aS'-'
asS'C4orf17'
p602
(lp603
I99511003
aI99542303
aS'+'
asS'CENPC'
p604
(lp605
I67468761
aI67545606
aS'-'
asS'SCD5'
p606
(lp607
I82629536
aI82798857
aS'-'
asS'LDB2'
p608
(lp609
I16501533
aI16898809
aS'-'
asS'SEC24D'
p610
(lp611
I118722822
aI118836196
aS'-'
asS'FGG'
p612
(lp613
I154604133
aI154612808
aS'-'
asS'PABPC4L'
p614
(lp615
I134196333
aI134201789
aS'-'
asS'PROM1'
p616
(lp617
I15968225
aI16084000
aS'-'
asS'SEC24B'
p618
(lp619
I109433714
aI109540459
aS'+'
asS'CCDC158'
p620
(lp621
I76313038
aI76407305
aS'-'
asS'MIR4274'
p622
(lp623
I7460027
aI7460118
aS'+'
asS'MIR4275'
p624
(lp625
I28819581
aI28819668
aS'+'
asS'MIR4276'
p626
(lp627
I174423794
aI174423864
aS'+'
asS'HPSE'
p628
(lp629
I83292460
aI83335153
aS'-'
asS'TLR10'
p630
(lp631
I38772238
aI38782990
aS'-'
asS'LINC01256'
p632
(lp633
I132591088
aI132678500
aS'+'
asS'SLC2A9'
p634
(lp635
I9826223
aI10040248
aS'-'
asS'CLRN2'
p636
(lp637
I17515164
aI17527104
aS'+'
asS'LINC01259'
p638
(lp639
I38509766
aI38518056
aS'+'
asS'LINC01258'
p640
(lp641
I38420661
aI38523180
aS'-'
asS'THEGL'
p642
(lp643
I56530608
aI56603323
aS'+'
asS'LOC100419170'
p644
(lp645
I153640167
aI153681180
aS'+'
asS'CXCL9'
p646
(lp647
I76001341
aI76007523
aS'-'
asS'HGFAC'
p648
(lp649
I3441932
aI3449495
aS'+'
asS'SYNPO2'
p650
(lp651
I118850687
aI119061247
aS'+'
asS'SLC9B1'
p652
(lp653
I102885047
aI103019739
aS'-'
asS'GNRHR'
p654
(lp655
I67737380
aI67756086
aS'-'
asS'LINC02355'
p656
(lp657
I149154294
aI149278122
aS'+'
asS'WFS1'
p658
(lp659
I6269849
aI6303265
aS'+'
asS'LINC02353'
p660
(lp661
I32351037
aI32353220
aS'+'
asS'MIR8082'
p662
(lp663
I113152281
aI113152362
aS'+'
asS'YIPF7'
p664
(lp665
I44622336
aI44651641
aS'-'
asS'NOA1'
p666
(lp667
I56963343
aI56977660
aS'-'
asS'MIR943'
p668
(lp669
I1986383
aI1986477
aS'-'
asS'MIR548T'
p670
(lp671
I173268159
aI173268233
aS'+'
asS'ABCE1'
p672
(lp673
I145098003
aI145129524
aS'+'
asS'CSN1S2BP'
p674
(lp675
I70133603
aI70146704
aS'+'
asS'ANXA2P1'
p676
(lp677
I153307468
aI153308811
aS'-'
asS'ARFIP1'
p678
(lp679
I152779936
aI152911911
aS'+'
asS'IRF2'
p680
(lp681
I184387721
aI184474572
aS'-'
asS'EXOSC9'
p682
(lp683
I121801316
aI121817021
aS'+'
asS'ZNF595'
p684
(lp685
I53284
aI88211
aS'+'
asS'AADAT'
p686
(lp687
I170060221
aI170090387
aS'-'
asS'ETNPPL'
p688
(lp689
I108742045
aI108763079
aS'-'
asS'IBSP'
p690
(lp691
I87799553
aI87812434
aS'+'
asS'TENM3-AS1'
p692
(lp693
I182138659
aI182144515
aS'-'
asS'LINC02447'
p694
(lp695
I7097423
aI7103376
aS'-'
asS'MXD4'
p696
(lp697
I2247432
aI2262012
aS'-'
asS'SAP30'
p698
(lp699
I173370941
aI173377532
aS'+'
asS'NEK1'
p700
(lp701
I169393269
aI169612627
aS'-'
asS'PLA2G12A'
p702
(lp703
I109709988
aI109730070
aS'-'
asS'UFSP2'
p704
(lp705
I185399539
aI185425985
aS'-'
asS'MIR3688-1'
p706
(lp707
I159128801
aI159128894
aS'-'
asS'LINC02508'
p708
(lp709
I188776656
aI188785511
aS'+'
asS'LINC02509'
p710
(lp711
I176875701
aI176880600
aS'+'
asS'OPRPN'
p712
(lp713
I70397881
aI70410197
aS'+'
asS'PRKG2'
p714
(lp715
I81087369
aI81215117
aS'-'
asS'PRR27'
p716
(lp717
I70154186
aI70166609
aS'+'
asS'LYAR'
p718
(lp719
I4267700
aI4290154
aS'-'
asS'LINC02500'
p720
(lp721
I181261015
aI181265029
aS'-'
asS'LINC02501'
p722
(lp723
I31506543
aI31558821
aS'+'
asS'LINC02506'
p724
(lp725
I31997378
aI32155406
aS'+'
asS'PDE5A'
p726
(lp727
I119494394
aI119628826
aS'-'
asS'LINC02505'
p728
(lp729
I36496536
aI36641900
aS'-'
asS'NUDT9'
p730
(lp731
I87422572
aI87459455
aS'+'
asS'ARL9'
p732
(lp733
I56505208
aI56524456
aS'+'
asS'CPEB2-DT'
p734
(lp735
I14909960
aI15002045
aS'-'
asS'CSN2'
p736
(lp737
I69955255
aI69961011
aS'-'
asS'INTS12'
p738
(lp739
I105682627
aI105708724
aS'-'
asS'NPFFR2'
p740
(lp741
I72031803
aI72148201
aS'+'
asS'FNIP2'
p742
(lp743
I158769025
aI158908050
aS'+'
asS'TIFA'
p744
(lp745
I112275625
aI112285903
aS'-'
asS'CNGA1'
p746
(lp747
I47935976
aI48012944
aS'-'
asS'LINC01618'
p748
(lp749
I52789993
aI52815464
aS'+'
asS'CYTL1'
p750
(lp751
I5014585
aI5019470
aS'-'
asS'IGFBP7'
p752
(lp753
I57031070
aI57110385
aS'-'
asS'LOC256880'
p754
(lp755
I99950493
aI100037705
aS'+'
asS'LINC02510'
p756
(lp757
I137193755
aI137199948
aS'+'
asS'EIF4E'
p758
(lp759
I98871683
aI98930637
aS'-'
asS'MIR1305'
p760
(lp761
I182169292
aI182169378
aS'+'
asS'GALNT7'
p762
(lp763
I173168752
aI173323967
aS'+'
asS'AFP'
p764
(lp765
I73436218
aI73455785
aS'+'
asS'MRFAP1'
p766
(lp767
I6640090
aI6642743
aS'+'
asS'STK32B'
p768
(lp769
I5051516
aI5501001
aS'+'
asS'RPL21P44'
p770
(lp771
I53985498
aI53987282
aS'-'
asS'FBXW7-AS1'
p772
(lp773
I152337654
aI152338096
aS'+'
asS'FDCSP'
p774
(lp775
I70226070
aI70235251
aS'+'
asS'SCARB2'
p776
(lp777
I76158738
aI76213899
aS'-'
asS'OCIAD1-AS1'
p778
(lp779
I48852008
aI48860203
aS'-'
asS'SH3TC1'
p780
(lp781
I8199243
aI8241103
aS'+'
asS'GUF1'
p782
(lp783
I44678394
aI44700680
aS'+'
asS'GYPB'
p784
(lp785
I143996103
aI144019345
aS'-'
asS'NFKB1'
p786
(lp787
I102501328
aI102617302
aS'+'
asS'LINC02514'
p788
(lp789
I187370647
aI187371920
aS'+'
asS'SNHG8'
p790
(lp791
I118278761
aI118279823
aS'+'
asS'COX18'
p792
(lp793
I73054695
aI73069759
aS'-'
asS'PCDH10'
p794
(lp795
I133149289
aI133194610
aS'+'
asS'BBS12'
p796
(lp797
I122732701
aI122744943
aS'+'
asS'NEIL3'
p798
(lp799
I177309836
aI177362938
aS'+'
asS'LINC01612'
p800
(lp801
I170226590
aI170283722
aS'+'
asS'PCDH18'
p802
(lp803
I137518919
aI137532498
aS'-'
asS'LINC02516'
p804
(lp805
I124499941
aI124558434
aS'-'
asS'LCORL'
p806
(lp807
I17841198
aI18021875
aS'-'
asS'MIR3688-2'
p808
(lp809
I159128804
aI159128891
aS'+'
asS'SNX25'
p810
(lp811
I185204236
aI185363971
aS'+'
asS'PDGFRA'
p812
(lp813
I54229088
aI54298247
aS'+'
asS'USP17L21'
p814
(lp815
I9220151
aI9221744
aS'+'
asS'ZNF330'
p816
(lp817
I141220886
aI141234696
aS'+'
asS'CLOCK'
p818
(lp819
I55427900
aI55546909
aS'-'
asS'ZAR1'
p820
(lp821
I48490251
aI48494389
aS'+'
asS'HTN3'
p822
(lp823
I70028412
aI70036538
aS'+'
asS'HTN1'
p824
(lp825
I70050414
aI70058848
aS'+'
asS'RFC1'
p826
(lp827
I39287448
aI39366381
aS'-'
asS'UGT2A2'
p828
(lp829
I69588416
aI69639642
aS'-'
asS'UGT2A1'
p830
(lp831
I69588416
aI69653249
aS'-'
asS'USP17L27'
p832
(lp833
I9329910
aI9331503
aS'+'
asS'LOC100129917'
p834
(lp835
I780148
aI781848
aS'-'
asS'TRPC3'
p836
(lp837
I121878089
aI121952060
aS'-'
asS'SPRY1'
p838
(lp839
I123396794
aI123403760
aS'+'
asS'TIGD2'
p840
(lp841
I89112816
aI89114901
aS'+'
asS'FABP2'
p842
(lp843
I119317249
aI119322161
aS'-'
asS'PPA2'
p844
(lp845
I105369076
aI105474070
aS'-'
asS'SH3BP2'
p846
(lp847
I2793022
aI2841096
aS'+'
asS'GABRA4'
p848
(lp849
I46918899
aI46994407
aS'-'
asS'ELMOD2'
p850
(lp851
I140524157
aI140553770
aS'+'
asS'LINC02431'
p852
(lp853
I171040601
aI171059160
aS'+'
asS'GPR78'
p854
(lp855
I8580236
aI8590023
aS'+'
asS'HERC6'
p856
(lp857
I88378738
aI88443097
aS'+'
asS'GABRA2'
p858
(lp859
I46243547
aI46390068
aS'-'
asS'AREG'
p860
(lp861
I74445097
aI74455009
aS'+'
asS'LOC100507388'
p862
(lp863
I74955973
aI74970362
aS'-'
asS'FLJ38576'
p864
(lp865
I186189031
aI186191490
aS'-'
asS'LINC02436'
p866
(lp867
I185051895
aI185107248
aS'+'
asS'LINC02432'
p868
(lp869
I141321123
aI141332617
aS'-'
asS'LINC02433'
p870
(lp871
I157572489
aI157576151
aS'+'
asS'CDKL2'
p872
(lp873
I75576493
aI75630540
aS'-'
asS'TMEM150C'
p874
(lp875
I82483169
aI82562560
aS'-'
asS'TRAPPC11'
p876
(lp877
I183659266
aI183713594
aS'+'
asS'TTC29'
p878
(lp879
I146706637
aI146945886
aS'-'
asS'MIR3684'
p880
(lp881
I98997386
aI98997460
aS'+'
asS'SRP72'
p882
(lp883
I56467595
aI56503681
aS'+'
asS'FBXW7'
p884
(lp885
I152320543
aI152536092
aS'-'
asS'FAM92A1P2'
p886
(lp887
I183037664
aI183040119
aS'+'
asS'COL25A1'
p888
(lp889
I108810720
aI109302643
aS'-'
asS'FRG1-DT'
p890
(lp891
I189764390
aI189940733
aS'-'
asS'SH3RF1'
p892
(lp893
I169094255
aI169271098
aS'-'
asS'UGDH'
p894
(lp895
I39498754
aI39527598
aS'-'
asS'TET2'
p896
(lp897
I105146684
aI105279803
aS'+'
asS'MIR7978'
p898
(lp899
I21464699
aI21464758
aS'-'
asS'KDR'
p900
(lp901
I55078480
aI55125595
aS'-'
asS'TAPT1-AS1'
p902
(lp903
I16226662
aI16258187
aS'+'
asS'NPY2R'
p904
(lp905
I155208628
aI155217078
aS'+'
asS'EXOC1'
p906
(lp907
I55853649
aI55905078
aS'+'
asS'SNORD162'
p908
(lp909
I4664325
aI4664423
aS'+'
asS'SNORD161'
p910
(lp911
I78288984
aI78289050
aS'+'
asS'TAPT1'
p912
(lp913
I16160504
aI16226538
aS'-'
asS'TRIM60'
p914
(lp915
I165031998
aI165041744
aS'+'
asS'MIR367'
p916
(lp917
I112647873
aI112647941
aS'-'
asS'ENAM'
p918
(lp919
I70628743
aI70646819
aS'+'
asS'GALNTL6-AS1'
p920
(lp921
I172634684
aI172726878
aS'-'
asS'CNOT6L'
p922
(lp923
I77713386
aI77820269
aS'-'
asS'THAP6'
p924
(lp925
I75514432
aI75547332
aS'+'
asS'NPY5R'
p926
(lp927
I163343846
aI163351934
aS'+'
asS'ACOX3'
p928
(lp929
I8366281
aI8440725
aS'-'
asS'QRFPR'
p930
(lp931
I121328641
aI121381026
aS'-'
asS'MIR548AG1'
p932
(lp933
I60922618
aI60922684
aS'+'
asS'UGDH-AS1'
p934
(lp935
I39527838
aI39594707
aS'+'
asS'GLRA3'
p936
(lp937
I174642010
aI174829315
aS'-'
asS'SOWAHB'
p938
(lp939
I76894151
aI76897926
aS'-'
asS'PPAT'
p940
(lp941
I56393362
aI56435636
aS'-'
asS'MIR297'
p942
(lp943
I110860581
aI110860647
aS'-'
asS'UGT2B11'
p944
(lp945
I69200189
aI69214731
aS'-'
asS'EXOC1L'
p946
(lp947
I55820002
aI55837382
aS'+'
asS'LINC02482'
p948
(lp949
I6670727
aI6673881
aS'-'
asS'LOC101929529'
p950
(lp951
I105815144
aI105827172
aS'-'
asS'LINC02480'
p952
(lp953
I52044804
aI52046919
aS'+'
asS'MIR2054'
p954
(lp955
I125507258
aI125507307
aS'+'
asS'LINC02484'
p956
(lp957
I34121410
aI34269747
aS'-'
asS'FGA'
p958
(lp959
I154583125
aI154590766
aS'-'
asS'MAD2L1'
p960
(lp961
I120055622
aI120066848
aS'-'
asS'UVSSA'
p962
(lp963
I1347265
aI1388049
aS'+'
asS'GRSF1'
p964
(lp965
I70815781
aI70839910
aS'-'
asS'LOC105377651'
p966
(lp967
I32005852
aI32022422
aS'-'
asS'KIAA0232'
p968
(lp969
I6782731
aI6884172
aS'+'
asS'LRAT'
p970
(lp971
I154740840
aI154753119
aS'+'
asS'CLGN'
p972
(lp973
I140388452
aI140427661
aS'-'
asS'LGI2'
p974
(lp975
I24998848
aI25030792
aS'-'
asS'PITX2'
p976
(lp977
I110617423
aI110642123
aS'-'
asS'SORBS2'
p978
(lp979
I185585443
aI185956716
aS'-'
asS'USP38'
p980
(lp981
I143184916
aI143223874
aS'+'
asS'SMARCA5'
p982
(lp983
I143513462
aI143557489
aS'+'
asS'ZNF721'
p984
(lp985
I439983
aI499171
aS'-'
asS'MIR95'
p986
(lp987
I8005300
aI8005381
aS'-'
asS'ARAP2'
p988
(lp989
I36005403
aI36243939
aS'-'
asS'LINC01365'
p990
(lp991
I119799105
aI119804515
aS'-'
asS'PACRGL'
p992
(lp993
I20696281
aI20752900
aS'+'
asS'MMRN1'
p994
(lp995
I89894900
aI89954629
aS'+'
asS'EVC2'
p996
(lp997
I5562418
aI5709548
aS'-'
asS'C4orf50'
p998
(lp999
I5957111
aI6018546
aS'-'
asS'MIR577'
p1000
(lp1001
I114656758
aI114656854
aS'+'
asS'MIR574'
p1002
(lp1003
I38868031
aI38868127
aS'+'
asS'MIR575'
p1004
(lp1005
I82753336
aI82753430
aS'-'
asS'MIR572'
p1006
(lp1007
I11368826
aI11368921
aS'+'
asS'JADE1'
p1008
(lp1009
I128809622
aI128875224
aS'+'
asS'PRIMPOL'
p1010
(lp1011
I184649612
aI184694959
aS'+'
asS'TECRL'
p1012
(lp1013
I64276299
aI64409460
aS'-'
asS'LINC02267'
p1014
(lp1015
I96310702
aI96818415
aS'+'
asS'LINC02266'
p1016
(lp1017
I145335262
aI145340419
aS'-'
asS'LINC02265'
p1018
(lp1019
I40307184
aI40330419
aS'+'
asS'LINC02264'
p1020
(lp1021
I117834400
aI117869948
aS'+'
asS'NFXL1'
p1022
(lp1023
I47847232
aI47914667
aS'-'
asS'LINC02262'
p1024
(lp1025
I117314596
aI117360639
aS'-'
asS'LINC02261'
p1026
(lp1027
I27217478
aI27282225
aS'+'
asS'LINC02260'
p1028
(lp1029
I54603210
aI54607131
aS'-'
asS'MFSD8'
p1030
(lp1031
I127917804
aI127965984
aS'-'
asS'MIR8053'
p1032
(lp1033
I47652668
aI47652741
aS'+'
asS'LIAS'
p1034
(lp1035
I39459023
aI39477651
aS'+'
asS'KLKB1'
p1036
(lp1037
I186227470
aI186258474
aS'+'
asS'CFAP299'
p1038
(lp1039
I80335719
aI80963756
aS'+'
asS'RUFY3'
p1040
(lp1041
I70721841
aI70808622
aS'+'
asS'ATP10D'
p1042
(lp1043
I47485392
aI47593486
aS'+'
asS'GLRB'
p1044
(lp1045
I157076124
aI157172090
aS'+'
asS'INTU'
p1046
(lp1047
I127632931
aI127716779
aS'+'
asS'LOC105377372'
p1048
(lp1049
I112515378
aI112546884
aS'+'
asS'CPLX1'
p1050
(lp1051
I784956
aI826157
aS'-'
asS'AP1AR'
p1052
(lp1053
I112231738
aI112273111
aS'+'
asS'LINC00499'
p1054
(lp1055
I138309710
aI138424344
aS'+'
asS'UCP1'
p1056
(lp1057
I140559430
aI140568961
aS'-'
asS'MRPS18C'
p1058
(lp1059
I83456057
aI83462295
aS'+'
asS'NAT8L'
p1060
(lp1061
I2059326
aI2069089
aS'+'
asS'MIR4449'
p1062
(lp1063
I52712681
aI52712747
aS'+'
asS'ZGRF1'
p1064
(lp1065
I112539332
aI112636995
aS'-'
asS'ODAPH'
p1066
(lp1067
I75556047
aI75565893
aS'+'
asS'C4orf51'
p1068
(lp1069
I145680203
aI145732796
aS'+'
asS'PSAPL1'
p1070
(lp1071
I7430293
aI7434973
aS'-'
asS'LINC01060'
p1072
(lp1073
I188455577
aI188601908
aS'+'
asS'LINC01061'
p1074
(lp1075
I119405522
aI119410660
aS'-'
asS'NSUN7'
p1076
(lp1077
I40749896
aI40811182
aS'+'
asS'CEP135'
p1078
(lp1079
I55948807
aI56033363
aS'+'
asS'MUC7'
p1080
(lp1081
I70430491
aI70482997
aS'+'
asS'BTC'
p1082
(lp1083
I74744759
aI74794686
aS'-'
asS'WWC2-AS1'
p1084
(lp1085
I183233627
aI183240634
aS'-'
asS'ADH1C'
p1086
(lp1087
I99336491
aI99353045
aS'-'
asS'ADH1B'
p1088
(lp1089
I99306386
aI99321442
aS'-'
asS'ADH1A'
p1090
(lp1091
I99276365
aI99291028
aS'-'
asS'USP17L28'
p1092
(lp1093
I9325164
aI9326757
aS'+'
asS'CD38'
p1094
(lp1095
I15778264
aI15853243
aS'+'
asS'TRIML1'
p1096
(lp1097
I188139440
aI188147740
aS'+'
asS'FGFRL1'
p1098
(lp1099
I1011821
aI1026898
aS'+'
asS'GK2'
p1100
(lp1101
I79406352
aI79408218
aS'-'
asS'ADD1'
p1102
(lp1103
I2843856
aI2930075
aS'+'
asS'CDKN2AIP'
p1104
(lp1105
I183444590
aI183449066
aS'+'
asS'IL21'
p1106
(lp1107
I122610107
aI122621066
aS'-'
asS'LINC02174'
p1108
(lp1109
I171602682
aI171638763
aS'-'
asS'MYL5'
p1110
(lp1111
I674534
aI682028
aS'+'
asS'SLC30A9'
p1112
(lp1113
I41990529
aI42090461
aS'+'
asS'RAPGEF2'
p1114
(lp1115
I159104125
aI159360169
aS'+'
asS'TRIM61'
p1116
(lp1117
I164954445
aI164977666
aS'-'
asS'OCIAD2'
p1118
(lp1119
I48885379
aI48906828
aS'-'
asS'OCIAD1'
p1120
(lp1121
I48831042
aI48861817
aS'+'
asS'DCK'
p1122
(lp1123
I70993547
aI71030912
aS'+'
asS'LINC02365'
p1124
(lp1125
I184584092
aI184624872
aS'-'
asS'CCDC96'
p1126
(lp1127
I7040849
aI7043001
aS'-'
asS'TRIM2'
p1128
(lp1129
I153152341
aI153339320
aS'+'
asS'CHRNA9'
p1130
(lp1131
I40335328
aI40355217
aS'+'
asS'NSG1'
p1132
(lp1133
I4386255
aI4419058
aS'+'
asS'STAP1'
p1134
(lp1135
I67558696
aI67607341
aS'+'
asS'MIR548I2'
p1136
(lp1137
I9556167
aI9556316
aS'-'
asS'LOC101927179'
p1138
(lp1139
I47831344
aI47896848
aS'+'
asS'UGT2B7'
p1140
(lp1141
I69051263
aI69112987
aS'+'
asS'UGT2B4'
p1142
(lp1143
I69480164
aI69526014
aS'-'
asS'PRMT9'
p1144
(lp1145
I147637784
aI147684230
aS'-'
asS'SNORA101A'
p1146
(lp1147
I100395126
aI100395247
aS'-'
asS'LOC101927359'
p1148
(lp1149
I133093860
aI133149116
aS'-'
asS'CLCN3'
p1150
(lp1151
I169620520
aI169723187
aS'+'
asS'TET2-AS1'
p1152
(lp1153
I105171353
aI105352881
aS'-'
asS'MIR4801'
p1154
(lp1155
I37241909
aI37241991
aS'-'
asS'MIR4800'
p1156
(lp1157
I2250076
aI2250156
aS'-'
asS'CLNK'
p1158
(lp1159
I10486404
aI10684865
aS'-'
asS'PPM1K-DT'
p1160
(lp1161
I88284929
aI88341657
aS'+'
asS'SLC25A4'
p1162
(lp1163
I185143262
aI185150384
aS'+'
asS'TNIP2'
p1164
(lp1165
I2741659
aI2756376
aS'-'
asS'TNIP3'
p1166
(lp1167
I121131408
aI121227466
aS'-'
asS'HAND2-AS1'
p1168
(lp1169
I173530370
aI173591255
aS'+'
asS'STPG2-AS1'
p1170
(lp1171
I97366925
aI97490164
aS'+'
asS'ADH7'
p1172
(lp1173
I99412260
aI99435510
aS'-'
asS'MIR7849'
p1174
(lp1175
I146408582
aI146408688
aS'+'
asS'FGFR3'
p1176
(lp1177
I1793311
aI1808872
aS'+'
asS'SETD7'
p1178
(lp1179
I139495934
aI139556769
aS'-'
asS'SFRP2'
p1180
(lp1181
I153780589
aI153789076
aS'-'
asS'CXCL1'
p1182
(lp1183
I73869391
aI73871302
aS'+'
asS'CXCL3'
p1184
(lp1185
I74036590
aI74038773
aS'-'
asS'CXCL2'
p1186
(lp1187
I74097036
aI74099280
aS'-'
asS'CXCL5'
p1188
(lp1189
I73995641
aI73998729
aS'-'
asS'RBM46'
p1190
(lp1191
I154781271
aI154828813
aS'+'
asS'RBM47'
p1192
(lp1193
I40423279
aI40629864
aS'-'
asS'PTPN13'
p1194
(lp1195
I86594314
aI86815175
aS'+'
asS'LOC100507053'
p1196
(lp1197
I99088856
aI99301356
aS'+'
asS'NPY1R'
p1198
(lp1199
I163323964
aI163332795
aS'-'
asS'MCUB'
p1200
(lp1201
I109560198
aI109687716
aS'+'
asS'KIT'
p1202
(lp1203
I54657927
aI54740715
aS'+'
asS'FREM3'
p1204
(lp1205
I143577407
aI143700675
aS'-'
asS'BST1'
p1206
(lp1207
I15702949
aI15732173
aS'+'
asS'GUCY1B1'
p1208
(lp1209
I155758972
aI155807642
aS'+'
asS'NCAPG'
p1210
(lp1211
I17810812
aI17844864
aS'+'
asS'MSANTD1'
p1212
(lp1213
I3244368
aI3256613
aS'+'
asS'RNF212'
p1214
(lp1215
I1056250
aI1113564
aS'-'
asS'MED28'
p1216
(lp1217
I17614627
aI17625628
aS'+'
asS'SLBP'
p1218
(lp1219
I1692730
aI1712741
aS'-'
asS'EPGN'
p1220
(lp1221
I74308469
aI74316803
aS'+'
asS'MIR4451'
p1222
(lp1223
I85722467
aI85722533
aS'+'
asS'GRIA2'
p1224
(lp1225
I157220583
aI157366074
aS'+'
asS'DUX4'
p1226
(lp1227
I190173773
aI190185911
aS'+'
asS'LOC101929095'
p1228
(lp1229
I15004941
aI15427914
aS'-'
asS'NOP14-AS1'
p1230
(lp1231
I2935545
aI2951073
aS'+'
asS'GAB1'
p1232
(lp1233
I143336829
aI143474565
aS'+'
asS'SMAD1-AS2'
p1234
(lp1235
I145497048
aI145502980
aS'-'
asS'NOP14'
p1236
(lp1237
I2937936
aI2963506
aS'-'
asS'LOC101928978'
p1238
(lp1239
I83968081
aI84299169
aS'-'
asS'TMPRSS11GP'
p1240
(lp1241
I67991811
aI67997439
aS'-'
asS'LINC02363'
p1242
(lp1243
I184341030
aI184353977
aS'-'
asS'FAM13A'
p1244
(lp1245
I88725953
aI89057195
aS'-'
asS'FAM184B'
p1246
(lp1247
I17632085
aI17781512
aS'-'
asS'TMPRSS11BNL'
p1248
(lp1249
I68184128
aI68218080
aS'-'
asS'MIR4452'
p1250
(lp1251
I86542481
aI86542552
aS'-'
asS'MAML3'
p1252
(lp1253
I139716752
aI140154184
aS'-'
asS'LIMCH1'
p1254
(lp1255
I41359606
aI41700044
aS'+'
asS'USP46'
p1256
(lp1257
I52590960
aI52659335
aS'-'
asS'PPM1K'
p1258
(lp1259
I88257608
aI88284831
aS'-'
asS'PPARGC1A'
p1260
(lp1261
I23792020
aI24472829
aS'-'
asS'AFF1'
p1262
(lp1263
I86935001
aI87141054
aS'+'
asS'LINC02273'
p1264
(lp1265
I152100752
aI152104716
aS'+'
asS'CTBP1-DT'
p1266
(lp1267
I1249439
aI1253007
aS'+'
asS'LOC344967'
p1268
(lp1269
I40042916
aI40057199
aS'-'
asS'LINC02616'
p1270
(lp1271
I37001778
aI37020706
aS'+'
asS'LINC02615'
p1272
(lp1273
I128428015
aI128519396
aS'+'
asS'SMARCAD1'
p1274
(lp1275
I94207607
aI94291292
aS'+'
asS'ANXA10'
p1276
(lp1277
I168092536
aI168187742
aS'+'
asS'LINC02619'
p1278
(lp1279
I58987187
aI58988154
aS'-'
asS'TIGD4'
p1280
(lp1281
I152769353
aI152779764
aS'-'
asS'CISD2'
p1282
(lp1283
I102868991
aI102892806
aS'+'
asS'ZNF141'
p1284
(lp1285
I337778
aI384864
aS'+'
asS'PDCL2'
p1286
(lp1287
I55556524
aI55592212
aS'-'
asS'LOC93622'
p1288
(lp1289
I6674074
aI6676047
aS'+'
asS'UNC5C'
p1290
(lp1291
I95162504
aI95549210
aS'-'
asS'HSPA4L'
p1292
(lp1293
I127782321
aI127840733
aS'+'
asS'LINC01093'
p1294
(lp1295
I184892999
aI184899461
aS'-'
asS'ARHGEF38'
p1296
(lp1297
I105552619
aI105680913
aS'+'
asS'UBA6'
p1298
(lp1299
I67612652
aI67701155
aS'-'
asS'LINC02483'
p1300
(lp1301
I75354075
aI75362566
aS'+'
asS'HERC3'
p1302
(lp1303
I88592422
aI88708542
aS'+'
asS'HERC5'
p1304
(lp1305
I88457116
aI88506168
aS'+'
asS'STX18-IT1'
p1306
(lp1307
I4476120
aI4481700
aS'-'
asS'DDX60'
p1308
(lp1309
I168216293
aI168318752
aS'-'
asS'GIMD1'
p1310
(lp1311
I106358182
aI106367435
aS'-'
asS'LINC00613'
p1312
(lp1313
I135866983
aI135913680
aS'-'
asS'LINC00616'
p1314
(lp1315
I138027422
aI138130685
aS'-'
asS'LOC101928551'
p1316
(lp1317
I174831727
aI174875964
aS'+'
asS'UBE2K'
p1318
(lp1319
I39698043
aI39782790
aS'+'
asS'NAA15'
p1320
(lp1321
I139301466
aI139390781
aS'+'
asS'LRBA'
p1322
(lp1323
I150264435
aI151015284
aS'-'
asS'NAA11'
p1324
(lp1325
I79317117
aI79326017
aS'-'
asS'LINC01096'
p1326
(lp1327
I13546075
aI13547824
aS'-'
asS'USP17L17'
p1328
(lp1329
I9243878
aI9245471
aS'+'
asS'LINC01099'
p1330
(lp1331
I177812045
aI177907936
aS'-'
asS'USP17L15'
p1332
(lp1333
I9234384
aI9236334
aS'+'
asS'USP17L13'
p1334
(lp1335
I9224895
aI9226488
aS'+'
asS'USP17L12'
p1336
(lp1337
I9220151
aI9221744
aS'+'
asS'USP17L11'
p1338
(lp1339
I9215404
aI9216997
aS'+'
asS'WWC2'
p1340
(lp1341
I183099256
aI183320776
aS'+'
asS'LINC01587'
p1342
(lp1343
I5524568
aI5527800
aS'+'
asS'MIR5705'
p1344
(lp1345
I87300494
aI87300583
aS'-'
asS'ANP32C'
p1346
(lp1347
I164197006
aI164197711
aS'-'
asS'GRK4'
p1348
(lp1349
I2963570
aI3040747
aS'+'
asS'USP17L19'
p1350
(lp1351
I9253377
aI9254970
aS'+'
asS'USP17L18'
p1352
(lp1353
I9215404
aI9216997
aS'+'
asS'MSMO1'
p1354
(lp1355
I165327665
aI165343162
aS'+'
asS'STIM2-AS1'
p1356
(lp1357
I26859623
aI26860599
aS'-'
asS'FSTL5'
p1358
(lp1359
I161383891
aI162164034
aS'-'
asS'SMIM14'
p1360
(lp1361
I39547296
aI39638998
aS'-'
asS'PF4V1'
p1362
(lp1363
I73853295
aI73854484
aS'+'
asS'MIR4454'
p1364
(lp1365
I163093573
aI163093628
aS'-'
asS'MRPL1'
p1366
(lp1367
I77862650
aI77952790
aS'+'
asS'UBE2D3-AS1'
p1368
(lp1369
I102828054
aI102844106
aS'+'
asS'ANAPC10'
p1370
(lp1371
I144994574
aI145098541
aS'-'
asS'TMEM154'
p1372
(lp1373
I152626113
aI152680165
aS'-'
asS'SNCA-AS1'
p1374
(lp1375
I89836400
aI89841991
aS'+'
asS'FBXO8'
p1376
(lp1377
I174236658
aI174284251
aS'-'
asS'LINC02380'
p1378
(lp1379
I57425871
aI57465986
aS'+'
asS'LOC389247'
p1380
(lp1381
I183494736
aI183504515
aS'-'
asS'FAM47E'
p1382
(lp1383
I76214039
aI76283783
aS'+'
asS'SLC10A7'
p1384
(lp1385
I146253987
aI146521971
aS'-'
asS'SLC10A6'
p1386
(lp1387
I86823467
aI86849263
aS'-'
asS'TMEM192'
p1388
(lp1389
I165076077
aI165112872
aS'-'
asS'SLC10A4'
p1390
(lp1391
I48483342
aI48489524
aS'+'
asS'LINC00504'
p1392
(lp1393
I14470465
aI14888169
aS'-'
asS'RWDD4'
p1394
(lp1395
I183639634
aI183659219
aS'-'
asS'SLC49A3'
p1396
(lp1397
I681823
aI689441
aS'-'
asS'BMP2K'
p1398
(lp1399
I78776377
aI78912187
aS'+'
asS'HPF1'
p1400
(lp1401
I169729469
aI169757944
aS'-'
asS'PPBP'
p1402
(lp1403
I73986438
aI73988190
aS'-'
asS'LOC101927636'
p1404
(lp1405
I143912330
aI143982452
aS'+'
asS'KCNIP4-IT1'
p1406
(lp1407
I21843340
aI21853188
aS'-'
asS'LINC00290'
p1408
(lp1409
I181064089
aI181159149
aS'-'
asS'LOC105374338'
p1410
(lp1411
I577167
aI584866
aS'+'
asS'PDHA2'
p1412
(lp1413
I95840087
aI95841474
aS'+'
asS'GALNTL6'
p1414
(lp1415
I171813423
aI173040407
aS'+'
asS'DDIT4L'
p1416
(lp1417
I100185869
aI100190468
aS'-'
asS'PPBPP2'
p1418
(lp1419
I74054037
aI74055399
aS'-'
asS'TMEM156'
p1420
(lp1421
I38966745
aI39032421
aS'-'
asS'MIR3945'
p1422
(lp1423
I184851012
aI184851110
aS'-'
asS'GABRB1'
p1424
(lp1425
I47031277
aI47426430
aS'+'
asS'UCHL1'
p1426
(lp1427
I41256880
aI41268429
aS'+'
asS'STATH'
p1428
(lp1429
I69995930
aI70002456
aS'+'
asS'MAEA'
p1430
(lp1431
I1289850
aI1340148
aS'+'
asS'STOX2'
p1432
(lp1433
I183798021
aI184023530
aS'+'
asS'NMU'
p1434
(lp1435
I55595228
aI55636698
aS'-'
asS'MIR3138'
p1436
(lp1437
I10078610
aI10078692
aS'-'
asS'DEFB131A'
p1438
(lp1439
I9444533
aI9450514
aS'+'
asS'RPL34-AS1'
p1440
(lp1441
I108538189
aI108620457
aS'-'
asS'CDS1'
p1442
(lp1443
I84582903
aI84651340
aS'+'
asS'IL15'
p1444
(lp1445
I141636595
aI141733987
aS'+'
asS'BOD1L1'
p1446
(lp1447
I13568741
aI13627704
aS'-'
asS'CXXC4-AS1'
p1448
(lp1449
I104490964
aI104697592
aS'+'
asS'PALLD'
p1450
(lp1451
I168497065
aI168928457
aS'+'
asS'WDR17'
p1452
(lp1453
I176065833
aI176182828
aS'+'
asS'EREG'
p1454
(lp1455
I74365142
aI74388760
aS'+'
asS'MIR1973'
p1456
(lp1457
I116299724
aI116299768
aS'+'
asS'STX18'
p1458
(lp1459
I4418968
aI4542346
aS'-'
asS'WDR19'
p1460
(lp1461
I39182403
aI39285810
aS'+'
asS'CXCL6'
p1462
(lp1463
I73836555
aI73838760
aS'+'
asS'LINC00575'
p1464
(lp1465
I82613112
aI82621437
aS'-'
asS'KIAA1211'
p1466
(lp1467
I56170194
aI56330724
aS'+'
asS'PF4'
p1468
(lp1469
I73980824
aI73982124
aS'-'
asS'USP17L25'
p1470
(lp1471
I9353637
aI9355230
aS'+'
asS'STIM2'
p1472
(lp1473
I26860690
aI27025381
aS'+'
asS'MIR576'
p1474
(lp1475
I109488697
aI109488795
aS'+'
asS'HS3ST1'
p1476
(lp1477
I11398363
aI11428913
aS'-'
asS'ANTXR2'
p1478
(lp1479
I79901616
aI80073472
aS'-'
asS'GPRIN3'
p1480
(lp1481
I89244277
aI89308010
aS'-'
asS'LINC02383'
p1482
(lp1483
I43457535
aI43492543
aS'-'
asS'S100P'
p1484
(lp1485
I6693877
aI6697170
aS'+'
asS'AIMP1'
p1486
(lp1487
I106315609
aI106349224
aS'+'
asS'ZNF876P'
p1488
(lp1489
I212599
aI255984
aS'+'
asS'TMEM155'
p1490
(lp1491
I121758932
aI121765400
aS'-'
asS'BMPR1B'
p1492
(lp1493
I94757976
aI95158450
aS'+'
asS'NOCT'
p1494
(lp1495
I139015758
aI139045939
aS'+'
asS'CRIPAK'
p1496
(lp1497
I1391551
aI1395994
aS'+'
asS'ANKRD17'
p1498
(lp1499
I73073965
aI73258798
aS'-'
asS'SCOC-AS1'
p1500
(lp1501
I140283725
aI140373392
aS'-'
asS'MAP9'
p1502
(lp1503
I155342659
aI155376970
aS'-'
asS'SNORA75B'
p1504
(lp1505
I17320745
aI17320882
aS'-'
asS'NAAA'
p1506
(lp1507
I75910654
aI75941013
aS'-'
asS'RCHY1'
p1508
(lp1509
I75479036
aI75514430
aS'-'
asS'RNF175'
p1510
(lp1511
I153710159
aI153760235
aS'-'
asS'MIR1269A'
p1512
(lp1513
I66276823
aI66276928
aS'+'
asS'CBR4'
p1514
(lp1515
I168987590
aI169010317
aS'-'
asS'NAP1L5'
p1516
(lp1517
I88695912
aI88698235
aS'-'
asS'GK3P'
p1518
(lp1519
I165277791
aI165280023
aS'-'
asS'TMEM33'
p1520
(lp1521
I41935119
aI41960807
aS'+'
asS'DMP1'
p1522
(lp1523
I87650301
aI87664360
aS'+'
asS'LINC00989'
p1524
(lp1525
I79492592
aI79576460
aS'+'
asS'AMBN'
p1526
(lp1527
I70592255
aI70607287
aS'+'
asS'ZFP42'
p1528
(lp1529
I187995770
aI188005049
aS'+'
asS'GAK'
p1530
(lp1531
I849274
aI932390
aS'-'
asS'LINC02499'
p1532
(lp1533
I73508802
aI73528533
aS'+'
asS'CXCL8'
p1534
(lp1535
I73740568
aI73743716
aS'+'
asS'LINC02494'
p1536
(lp1537
I58524514
aI58536328
aS'-'
asS'LINC02495'
p1538
(lp1539
I6200732
aI6233936
aS'+'
asS'LINC02497'
p1540
(lp1541
I31171143
aI31211674
aS'+'
asS'SPINK2'
p1542
(lp1543
I56809859
aI56821869
aS'-'
asS'LINC02492'
p1544
(lp1545
I187532879
aI187672641
aS'-'
asS'LINC02493'
p1546
(lp1547
I17171756
aI17186057
aS'-'
asS'OTOP1'
p1548
(lp1549
I4188725
aI4226894
aS'-'
asS'ANXA3'
p1550
(lp1551
I78551587
aI78610451
aS'+'
asS'MIR5591'
p1552
(lp1553
I39411909
aI39411974
aS'+'
asS'ANXA5'
p1554
(lp1555
I121667945
aI121696980
aS'-'
asS'PIGG'
p1556
(lp1557
I499199
aI540194
aS'+'
asS'AFF1-AS1'
p1558
(lp1559
I86924893
aI86934850
aS'-'
asS'CLDN22'
p1560
(lp1561
I183318066
aI183320774
aS'-'
asS'CYP4V2'
p1562
(lp1563
I186191566
aI186213463
aS'+'
asS'FAM47E-STBD1'
p1564
(lp1565
I76251699
aI76311130
aS'+'
asS'CLDN24'
p1566
(lp1567
I183321763
aI183322426
aS'-'
asS'MIR548G'
p1568
(lp1569
I147344628
aI147344717
aS'-'
asS'PIGY'
p1570
(lp1571
I88520977
aI88523801
aS'-'
asS'TRMT10A'
p1572
(lp1573
I99546706
aI99564057
aS'-'
asS'HPGDS'
p1574
(lp1575
I94298555
aI94342876
aS'-'
asS'FAM53A'
p1576
(lp1577
I1639880
aI1684313
aS'-'
asS'CASP6'
p1578
(lp1579
I109688628
aI109703473
aS'-'
asS'CORIN'
p1580
(lp1581
I47593997
aI47838106
aS'-'
asS'LOC101929621'
p1582
(lp1583
I108557232
aI108560392
aS'+'
asS'ZNF718'
p1584
(lp1585
I124475
aI202306
aS'+'
asS'PCAT4'
p1586
(lp1587
I79827470
aI79863247
aS'+'
asS'UCHL1-AS1'
p1588
(lp1589
I41220073
aI41256727
aS'-'
asS'SNHG27'
p1590
(lp1591
I131764837
aI131791482
aS'+'
asS'DRD5'
p1592
(lp1593
I9781633
aI9784009
aS'+'
asS'LINC01378'
p1594
(lp1595
I117428397
aI117689103
aS'+'
asS'SYT14P1'
p1596
(lp1597
I68060609
aI68063297
aS'-'
asS'LINC02270'
p1598
(lp1599
I12223450
aI12251285
aS'+'
asS'LINC02271'
p1600
(lp1601
I61143655
aI61153651
aS'+'
asS'GSTCD'
p1602
(lp1603
I105708783
aI105847725
aS'+'
asS'MIR8066'
p1604
(lp1605
I101240794
aI101240872
aS'-'
asS'MIR1255B1'
p1606
(lp1607
I36426365
aI36426428
aS'-'
asS'LINC02278'
p1608
(lp1609
I38564002
aI38573960
aS'+'
asS'LAMTOR3'
p1610
(lp1611
I99878337
aI99894546
aS'-'
asS'LINC02374'
p1612
(lp1613
I187201985
aI187212875
aS'+'
asS'COQ2'
p1614
(lp1615
I83263823
aI83285134
aS'-'
asS'C4orf47'
p1616
(lp1617
I185429333
aI185449828
aS'+'
asS'FAM160A1'
p1618
(lp1619
I151409175
aI151670503
aS'+'
asS'SLC9B2'
p1620
(lp1621
I103025490
aI103077371
aS'-'
asS'MAN2B2'
p1622
(lp1623
I6575173
aI6622406
aS'+'
asS'MGARP'
p1624
(lp1625
I139266162
aI139280338
aS'-'
asS'TMEM271'
p1626
(lp1627
I573879
aI576300
aS'-'
asS'LINC01396'
p1628
(lp1629
I4844436
aI4850827
aS'+'
asS'PLK4'
p1630
(lp1631
I127880860
aI127899222
aS'+'
asS'THAP9-AS1'
p1632
(lp1633
I82893451
aI82900916
aS'-'
asS'LOC105377267'
p1634
(lp1635
I69182099
aI69216767
aS'+'
asS'PI4K2B'
p1636
(lp1637
I25234030
aI25279209
aS'+'
asS'DCTD'
p1638
(lp1639
I182890090
aI182917477
aS'-'
asS'ADGRL3-AS1'
p1640
(lp1641
I62071754
aI62161765
aS'-'
asS'MIR573'
p1642
(lp1643
I24520191
aI24520290
aS'-'
asS'ADAD1'
p1644
(lp1645
I122378965
aI122429792
aS'+'
asS'CENPU'
p1646
(lp1647
I184694064
aI184734132
aS'-'
asS'LINC01091'
p1648
(lp1649
I123649990
aI123930781
aS'+'
asS'MIR4450'
p1650
(lp1651
I76573567
aI76573632
aS'+'
asS'ABCA11P'
p1652
(lp1653
I425434
aI474209
aS'-'
asS'LINC01095'
p1654
(lp1655
I146109454
aI146121913
aS'-'
asS'LINC01094'
p1656
(lp1657
I78645993
aI78684501
aS'+'
asS'LINC01097'
p1658
(lp1659
I13526318
aI13531417
aS'-'
asS'LOC101928622'
p1660
(lp1661
I33896340
aI34039893
aS'-'
asS'RXFP1'
p1662
(lp1663
I158521713
aI158653369
aS'+'
asS'LINC01098'
p1664
(lp1665
I177728756
aI177990750
aS'+'
asS'RBPJ'
p1666
(lp1667
I26319709
aI26435130
aS'+'
asS'NDST3'
p1668
(lp1669
I118033617
aI118258634
aS'+'
asS'NDST4'
p1670
(lp1671
I114827772
aI115113876
aS'-'
asS'INPP4B'
p1672
(lp1673
I142023159
aI142846535
aS'-'
asS'FAM218A'
p1674
(lp1675
I164956947
aI164959131
aS'+'
asS'SLC34A2'
p1676
(lp1677
I25655812
aI25678746
aS'+'
asS'USP17L6P'
p1678
(lp1679
I9367873
aI9369070
aS'+'
asS'ARHGAP24'
p1680
(lp1681
I85475130
aI86002670
aS'+'
asS'MFAP3L'
p1682
(lp1683
I169986596
aI170026430
aS'-'
asS'FTLP10'
p1684
(lp1685
I68182291
aI68212470
aS'+'
asS'SEPT11'
p1686
(lp1687
I76949713
aI77038615
aS'+'
asS'PP12613'
p1688
(lp1689
I121764584
aI121766808
aS'+'
asS'DOK7'
p1690
(lp1691
I3463305
aI3501473
aS'+'
asS'SOD3'
p1692
(lp1693
I24795462
aI24800845
aS'+'
asS'ENPP6'
p1694
(lp1695
I184088705
aI184217873
aS'-'
asS'LINC02268'
p1696
(lp1697
I174094659
aI174220398
aS'-'
asS'GRXCR1'
p1698
(lp1699
I42893265
aI43030658
aS'+'
asS'LINC02275'
p1700
(lp1701
I169917760
aI169975902
aS'-'
asS'KLHL5'
p1702
(lp1703
I39044830
aI39126233
aS'+'
asS'KLHL2'
p1704
(lp1705
I165207617
aI165323156
aS'+'
asS'MIR571'
p1706
(lp1707
I350156
aI350252
aS'+'
asS'TSPAN5'
p1708
(lp1709
I98470366
aI98658611
aS'-'
asS'BMP3'
p1710
(lp1711
I81030964
aI81057625
aS'+'
asS'SMIM20'
p1712
(lp1713
I25914191
aI25929879
aS'+'
asS'FAM193A'
p1714
(lp1715
I2535374
aI2732575
aS'+'
asS'KLHL8'
p1716
(lp1717
I87160103
aI87220608
aS'-'
asS'NKX6-1'
p1718
(lp1719
I84493282
aI84498234
aS'-'
asS'PCGF3'
p1720
(lp1721
I705740
aI770980
aS'+'
asS'SCOC'
p1722
(lp1723
I140257285
aI140382556
aS'+'
asS'MANBA'
p1724
(lp1725
I102631485
aI102760994
aS'-'
asS'TMA16'
p1726
(lp1727
I163494520
aI163520539
aS'+'
asS'LINC02263'
p1728
(lp1729
I117360651
aI117372849
aS'+'
asS'LRP2BP'
p1730
(lp1731
I185363877
aI185378998
aS'-'
asS'ACSL1'
p1732
(lp1733
I184755594
aI184826114
aS'-'
asS'FBXL5'
p1734
(lp1735
I15604383
aI15655412
aS'-'
asS'GASK1B'
p1736
(lp1737
I158124579
aI158173050
aS'-'
asS'H2AFZ'
p1738
(lp1739
I99948086
aI99950355
aS'-'
asS'NKX1-1'
p1740
(lp1741
I1402931
aI1406442
aS'-'
asS'TLR3'
p1742
(lp1743
I186069154
aI186085098
aS'+'
asS'FAT1'
p1744
(lp1745
I186587782
aI186723833
aS'-'
asS'TLR1'
p1746
(lp1747
I38796254
aI38804791
aS'-'
asS'TLR6'
p1748
(lp1749
I38823707
aI38856817
aS'-'
asS'MIR578'
p1750
(lp1751
I165386241
aI165386337
aS'+'
asS'FAT4'
p1752
(lp1753
I125316411
aI125492932
aS'+'
asS'DTHD1'
p1754
(lp1755
I36281614
aI36344785
aS'+'
asS'RNF4'
p1756
(lp1757
I2469067
aI2515859
aS'+'
asS'CCNI'
p1758
(lp1759
I77048020
aI77075972
aS'-'
asS'MIR218-1'
p1760
(lp1761
I20528274
aI20528384
aS'+'
asS'ANKRD50'
p1762
(lp1763
I124664048
aI124712732
aS'-'
asS'RPL9'
p1764
(lp1765
I39454124
aI39458948
aS'-'
asS'METAP1'
p1766
(lp1767
I98995720
aI99062809
aS'+'
asS'PRSS48'
p1768
(lp1769
I151277172
aI151291862
aS'+'
asS'DCLK2'
p1770
(lp1771
I150078273
aI150257456
aS'+'
asS'SLAIN2'
p1772
(lp1773
I48341595
aI48426198
aS'+'
asS'TDO2'
p1774
(lp1775
I155903692
aI155920406
aS'+'
asS'SLC25A31'
p1776
(lp1777
I127730377
aI127774299
aS'+'
asS'C4orf46'
p1778
(lp1779
I158666674
aI158672255
aS'-'
asS'TMPRSS11A'
p1780
(lp1781
I67910300
aI67963514
aS'-'
asS'TLR2'
p1782
(lp1783
I153684251
aI153706260
aS'+'
asS'WWC2-AS2'
p1784
(lp1785
I183097020
aI183099199
aS'-'
asS'LOC645513'
p1786
(lp1787
I119454782
aI119499592
aS'+'
asS'LRRC66'
p1788
(lp1789
I51993640
aI52017620
aS'-'
asS'FAM200B'
p1790
(lp1791
I15681728
aI15690447
aS'+'
asS'LOC401127'
p1792
(lp1793
I39480254
aI39481903
aS'+'
asS'KLF3-AS1'
p1794
(lp1795
I38612700
aI38664628
aS'-'
asS'MIR1255A'
p1796
(lp1797
I101330301
aI101330414
aS'-'
asS'LOC102724776'
p1798
(lp1799
I155354215
aI155360461
aS'+'
asS'FAM241A'
p1800
(lp1801
I112145396
aI112189081
aS'+'
asS'PLAC8'
p1802
(lp1803
I83090057
aI83114758
aS'-'
asS'LOC101929161'
p1804
(lp1805
I25531039
aI25569346
aS'-'
asS'ETFDH'
p1806
(lp1807
I158672100
aI158708713
aS'+'
asS'HAUS3'
p1808
(lp1809
I2231835
aI2242164
aS'-'
asS'GUCY1A1'
p1810
(lp1811
I155666709
aI155737062
aS'+'
asS'HTT-AS'
p1812
(lp1813
I3063245
aI3074514
aS'-'
asS'CRMP1'
p1814
(lp1815
I5820763
aI5893083
aS'-'
asS'NEUROG2'
p1816
(lp1817
I112513515
aI112516172
aS'-'
asS'GBA3'
p1818
(lp1819
I22692913
aI22819572
aS'+'
asS'DDX60L'
p1820
(lp1821
I168356734
aI168480514
aS'-'
asS'LSM6'
p1822
(lp1823
I146175682
aI146190061
aS'+'
asS'USP17L9P'
p1824
(lp1825
I9358381
aI9359974
aS'+'
asS'DNAJB14'
p1826
(lp1827
I99896249
aI99946726
aS'-'
asS'DCHS2'
p1828
(lp1829
I154234374
aI154491725
aS'-'
asS'RASL11B'
p1830
(lp1831
I52862327
aI52866835
aS'+'
asS'SDAD1'
p1832
(lp1833
I75949905
aI75990962
aS'-'
asS'LNX1'
p1834
(lp1835
I53460269
aI53591586
aS'-'
asS'ASIC5'
p1836
(lp1837
I155829728
aI155866273
aS'-'
asS'ZCCHC23'
p1838
(lp1839
I109303034
aI109316135
aS'+'
asS'SPATA18'
p1840
(lp1841
I52051330
aI52097306
aS'+'
asS'LOC389199'
p1842
(lp1843
I7939000
aI7940296
aS'+'
asS'PGM2'
p1844
(lp1845
I37826659
aI37862938
aS'+'
asS'OSTC'
p1846
(lp1847
I108650584
aI108667822
aS'+'
asS'MMAA'
p1848
(lp1849
I145619384
aI145660033
aS'+'
asS'LOC101927237'
p1850
(lp1851
I67417304
aI67422000
aS'-'
asS'RHOH'
p1852
(lp1853
I40191010
aI40244764
aS'+'
asS'DCUN1D4'
p1854
(lp1855
I51842999
aI51916837
aS'+'
asS'ZNF827'
p1856
(lp1857
I145757626
aI145938960
aS'-'
asS'POLR2B'
p1858
(lp1859
I56978639
aI57031162
aS'+'
asS'LOC101928942'
p1860
(lp1861
I81164939
aI81193395
aS'+'
asS'FGF5'
p1862
(lp1863
I80266587
aI80291017
aS'+'
asS'MTNR1A'
p1864
(lp1865
I186533654
aI186555567
aS'-'
asS'KIAA1109'
p1866
(lp1867
I122170602
aI122362759
aS'+'
asS'HADH'
p1868
(lp1869
I107989713
aI108035175
aS'+'
asS'ABCG2'
p1870
(lp1871
I88090263
aI88231626
aS'-'
asS'HOPX'
p1872
(lp1873
I56647987
aI56681706
aS'-'
asS'CEP170P1'
p1874
(lp1875
I118516324
aI118554204
aS'+'
asS'LOC105377480'
p1876
(lp1877
I148940945
aI148942378
aS'-'
asS'USP53'
p1878
(lp1879
I119212626
aI119295518
aS'+'
asS'LINC02232'
p1880
(lp1881
I64914280
aI65004500
aS'-'
asS'NWD2'
p1882
(lp1883
I37245067
aI37449465
aS'+'
asS'ELOVL6'
p1884
(lp1885
I110049072
aI110198664
aS'-'
asS'ADGRA3'
p1886
(lp1887
I22387373
aI22516054
aS'-'
asS'MTTP'
p1888
(lp1889
I99564077
aI99623997
aS'+'
asS'ERVMER34-1'
p1890
(lp1891
I52742552
aI52751425
aS'-'
asS'SNCA'
p1892
(lp1893
I89724098
aI89838296
aS'-'
asS'DCAF4L1'
p1894
(lp1895
I41981695
aI41986467
aS'+'
asS'LIN54'
p1896
(lp1897
I82924603
aI83012941
aS'-'
asS'LOC729558'
p1898
(lp1899
I150579088
aI150581233
aS'+'
asS'CFAP97'
p1900
(lp1901
I185159661
aI185204028
aS'-'
asS'MIR302A'
p1902
(lp1903
I112648182
aI112648251
aS'-'
asS'SULT1B1'
p1904
(lp1905
I69726967
aI69760712
aS'-'
asS'PLRG1'
p1906
(lp1907
I154534996
aI154550433
aS'-'
asS'C4orf3'
p1908
(lp1909
I119296418
aI119304445
aS'-'
asS'UGT8'
p1910
(lp1911
I114598401
aI114678225
aS'+'
asS'EPHA5'
p1912
(lp1913
I65319562
aI65670495
aS'-'
asS'SCRG1'
p1914
(lp1915
I173388147
aI173519238
aS'-'
asS'TENM3'
p1916
(lp1917
I182243430
aI182803024
aS'+'
asS'CCNG2'
p1918
(lp1919
I77157206
aI77170060
aS'+'
asS'REELD1'
p1920
(lp1921
I146214537
aI146232267
aS'+'
asS'MAPK10'
p1922
(lp1923
I86012295
aI86453130
aS'-'
asS'LOC101929762'
p1924
(lp1925
I119192772
aI119212644
aS'-'
asS'HPGD'
p1926
(lp1927
I174490176
aI174522898
aS'-'
asS'TRIML2'
p1928
(lp1929
I188091249
aI188109603
aS'-'
asS'TBC1D9'
p1930
(lp1931
I140620781
aI140756317
aS'-'
asS'MTHFD2L'
p1932
(lp1933
I74158107
aI74303097
aS'+'
asS'USP17L29'
p1934
(lp1935
I9363128
aI9364721
aS'+'
asS'RRH'
p1936
(lp1937
I109827993
aI109844705
aS'+'
asS'USP17L22'
p1938
(lp1939
I9258123
aI9259716
aS'+'
asS'TBC1D1'
p1940
(lp1941
I37891083
aI38139175
aS'+'
asS'USP17L20'
p1942
(lp1943
I9215404
aI9216997
aS'+'
asS'TEC'
p1944
(lp1945
I48135782
aI48269797
aS'-'
asS'USP17L26'
p1946
(lp1947
I9325164
aI9326757
aS'+'
asS'SGCB'
p1948
(lp1949
I52020694
aI52038319
aS'-'
asS'USP17L24'
p1950
(lp1951
I9325164
aI9326757
aS'+'
asS'MIR4798'
p1952
(lp1953
I7310449
aI7310524
aS'+'
asS'C4orf36'
p1954
(lp1955
I86876204
aI86892422
aS'-'
asS'UGT2B15'
p1956
(lp1957
I68646596
aI68670776
aS'-'
asS'UGT2B17'
p1958
(lp1959
I68537184
aI68568527
aS'-'
asS'UGT2B10'
p1960
(lp1961
I68815992
aI68832017
aS'+'
asS'C4orf33'
p1962
(lp1963
I129093673
aI129112688
aS'+'
asS'LINC01596'
p1964
(lp1965
I189881514
aI189884867
aS'+'
asS'SRD5A3'
p1966
(lp1967
I55346241
aI55373099
aS'+'
asS'LINC01182'
p1968
(lp1969
I13655178
aI13931228
aS'+'
asS'HNRNPD'
p1970
(lp1971
I82353313
aI82373996
aS'-'
asS'SNORD73B'
p1972
(lp1973
I151102056
aI151102131
aS'+'
asS'QDPR'
p1974
(lp1975
I17486392
aI17512234
aS'-'
asS'PAQR3'
p1976
(lp1977
I78911877
aI78939438
aS'-'
asS'ATP8A1'
p1978
(lp1979
I42408374
aI42657105
aS'-'
asS'CC2D2A'
p1980
(lp1981
I15469864
aI15601557
aS'+'
asS'SNORD144'
p1982
(lp1983
I82898139
aI82898225
aS'-'
asS'USO1'
p1984
(lp1985
I75724521
aI75814289
aS'+'
asS'COPS4'
p1986
(lp1987
I83035085
aI83075818
aS'+'
asS'ZNF518B'
p1988
(lp1989
I10439879
aI10457426
aS'-'
asS'RASSF6'
p1990
(lp1991
I73571549
aI73620631
aS'-'
asS'IDUA'
p1992
(lp1993
I986996
aI1004557
aS'+'
asS'YTHDC1'
p1994
(lp1995
I68310386
aI68350117
aS'-'
asS'FHDC1'
p1996
(lp1997
I152942982
aI152979696
aS'+'
asS'RGS12'
p1998
(lp1999
I3314146
aI3439913
aS'+'
asS'ADH6'
p2000
(lp2001
I99202637
aI99219246
aS'-'
asS'ADH5'
p2002
(lp2003
I99070978
aI99088788
aS'-'
asS'ADH4'
p2004
(lp2005
I99123656
aI99144298
aS'-'
asS'LOC101930370'
p2006
(lp2007
I173131932
aI173169652
aS'-'
asS'PKD2'
p2008
(lp2009
I88007646
aI88077779
aS'+'
asS'TACC3'
p2010
(lp2011
I1721489
aI1745178
aS'+'
asS'CCKAR'
p2012
(lp2013
I26481395
aI26490420
aS'-'
asS'TBC1D19'
p2014
(lp2015
I26583923
aI26756213
aS'+'
asS'NKX3-2'
p2016
(lp2017
I13540829
aI13544490
aS'-'
asS'FAM86EP'
p2018
(lp2019
I3941759
aI3955428
aS'-'
asS'CSN1S1'
p2020
(lp2021
I69931080
aI69946570
aS'+'
asS'RASGEF1B'
p2022
(lp2023
I81426392
aI81471928
aS'-'
asS'C4orf54'
p2024
(lp2025
I99636530
aI99654679
aS'-'
asS'TLL1'
p2026
(lp2027
I165873257
aI166104457
aS'+'
asS'TBC1D14'
p2028
(lp2029
I6909443
aI7033118
aS'+'
asS'HMX1'
p2030
(lp2031
I8846075
aI8871817
aS'-'
asS'UTP3'
p2032
(lp2033
I70688478
aI70690551
aS'+'
asS'LNX1-AS1'
p2034
(lp2035
I53500076
aI53523276
aS'+'
asS'LNX1-AS2'
p2036
(lp2037
I53592955
aI53605381
aS'+'
asS'KCTD8'
p2038
(lp2039
I44173902
aI44448807
aS'-'
asS'LOC100129931'
p2040
(lp2041
I7030553
aI7046231
aS'-'
asS'BEND4'
p2042
(lp2043
I42110852
aI42152878
aS'-'
asS'SLC7A11'
p2044
(lp2045
I138164093
aI138242349
aS'-'
asS'LOC101929595'
p2046
(lp2047
I107863478
aI107932119
aS'-'
asS'LOC105374516'
p2048
(lp2049
I21582095
aI21613722
aS'+'
asS'DCAF16'
p2050
(lp2051
I17793447
aI17810758
aS'-'
asS'LINC02382'
p2052
(lp2053
I170742468
aI170743735
aS'-'
asS'IGFBP7-AS1'
p2054
(lp2055
I57109761
aI57205299
aS'+'
asS'LINC02485'
p2056
(lp2057
I135113084
aI135123559
aS'-'
asS'ELF2'
p2058
(lp2059
I139057258
aI139177218
aS'-'
asS'SEC31A'
p2060
(lp2061
I82818508
aI82900571
aS'-'
asS'STX18-AS1'
p2062
(lp2063
I4542130
aI4710937
aS'+'
asS'PAPSS1'
p2064
(lp2065
I107613665
aI107720263
aS'-'
asS'AMTN'
p2066
(lp2067
I70518571
aI70532743
aS'+'
asS'SNORD73A'
p2068
(lp2069
I151103826
aI151103891
aS'+'
asS'MEPE'
p2070
(lp2071
I87821397
aI87846816
aS'+'
asS'TXK'
p2072
(lp2073
I48066392
aI48134256
aS'-'
asS'FAM149A'
p2074
(lp2075
I186144286
aI186172663
aS'+'
asS'DGKQ'
p2076
(lp2077
I958883
aI973560
aS'-'
asS'PIGY-DT'
p2078
(lp2079
I88523809
aI88524996
aS'+'
asS'WDFY3-AS2'
p2080
(lp2081
I84965615
aI85008743
aS'+'
asS'STPG2'
p2082
(lp2083
I97558873
aI98143476
aS'-'
asS'DSPP'
p2084
(lp2085
I87608528
aI87616873
aS'+'
asS'SCARNA22'
p2086
(lp2087
I1974635
aI1974760
aS'+'
asS'LNCPRESS2'
p2088
(lp2089
I92262497
aI92277302
aS'-'
asS'MIR1243'
p2090
(lp2091
I113106862
aI113106955
aS'+'
asS'BMPR1B-DT'
p2092
(lp2093
I94743667
aI94757533
aS'-'
asS'MSX1'
p2094
(lp2095
I4859664
aI4863933
aS'+'
asS'ATP5ME'
p2096
(lp2097
I672435
aI674338
aS'-'
asS'LOC101927157'
p2098
(lp2099
I47914226
aI47990737
aS'+'
asS'NR3C2'
p2100
(lp2101
I148078763
aI148444698
aS'-'
asS'PDGFC'
p2102
(lp2103
I156761610
aI156971394
aS'-'
asS'LEF1-AS1'
p2104
(lp2105
I108167524
aI108176430
aS'+'
asS'PGRMC2'
p2106
(lp2107
I128269236
aI128288829
aS'-'
asS'KLB'
p2108
(lp2109
I39406852
aI39451533
aS'+'
asS'LOC105377621'
p2110
(lp2111
I102418601
aI102502486
aS'-'
asS'G3BP2'
p2112
(lp2113
I75642768
aI75673483
aS'-'
asS'SNORD143'
p2114
(lp2115
I82895852
aI82895928
aS'-'
asS'MIR302D'
p2116
(lp2117
I112648003
aI112648071
aS'-'
asS'POU4F2'
p2118
(lp2119
I146638892
aI146642471
aS'+'
asS'CABS1'
p2120
(lp2121
I70334953
aI70337116
aS'+'
asS'TMEM165'
p2122
(lp2123
I55395912
aI55426175
aS'+'
asS'LOC101928809'
p2124
(lp2125
I75980789
aI76005941
aS'+'
asS'MIR302B'
p2126
(lp2127
I112648484
aI112648557
aS'-'
asS'MIR302C'
p2128
(lp2129
I112648362
aI112648430
aS'-'
asS'ABHD18'
p2130
(lp2131
I127965255
aI128039711
aS'+'
asS'TMEM144'
p2132
(lp2133
I158210248
aI158255287
aS'+'
asS'CSN1S2AP'
p2134
(lp2135
I70067385
aI70085271
aS'+'
asS'MIR4453'
p2136
(lp2137
I152536427
aI152536516
aS'+'
asS'MIR302CHG'
p2138
(lp2139
I112646719
aI112650051
aS'-'
asS'RPL34'
p2140
(lp2141
I108620557
aI108630483
aS'+'
asS'C1QTNF7'
p2142
(lp2143
I15339935
aI15446167
aS'+'
asS'BBS7'
p2144
(lp2145
I121824328
aI121870497
aS'-'
asS'PCDH7'
p2146
(lp2147
I30720414
aI31146801
aS'+'
asS'CWH43'
p2148
(lp2149
I48986247
aI49062078
aS'+'
asS'LOC101928052'
p2150
(lp2151
I162022732
aI162047550
aS'+'
asS'LINC02462'
p2152
(lp2153
I134423867
aI134545504
aS'+'
asS'LINC02465'
p2154
(lp2155
I129771618
aI129955368
aS'+'
asS'LOC729218'
p2156
(lp2157
I118591743
aI118635025
aS'+'
asS'UBA6-AS1'
p2158
(lp2159
I67701277
aI67722504
aS'+'
asS'LINC02466'
p2160
(lp2161
I129724170
aI129771478
aS'-'
asS'MYOZ2'
p2162
(lp2163
I119135783
aI119187789
aS'+'
asS'ZBTB49'
p2164
(lp2165
I4290196
aI4321786
aS'+'
asS'SLC26A1'
p2166
(lp2167
I979074
aI993440
aS'-'
asS'SPATA4'
p2168
(lp2169
I176184573
aI176195671
aS'-'
asS'SPATA5'
p2170
(lp2171
I122923069
aI123319449
aS'+'
asS'BDH2'
p2172
(lp2173
I103077624
aI103099867
aS'-'
as.