(dp1
S'RNF14'
p2
(lp3
I141966836
aI141990291
aS'+'
asS'ZCCHC10'
p4
(lp5
I132996985
aI133026604
aS'-'
asS'STK32A-AS1'
p6
(lp7
I147177034
aI147234859
aS'-'
asS'LOC100133050'
p8
(lp9
I100379504
aI100388254
aS'-'
asS'SNORD141B'
p10
(lp11
I14652277
aI14652382
aS'-'
asS'TIGD6'
p12
(lp13
I149993122
aI150001167
aS'-'
asS'STK10'
p14
(lp15
I172042069
aI172188342
aS'-'
asS'PCSK1'
p16
(lp17
I96390333
aI96433248
aS'-'
asS'FTMT'
p18
(lp19
I121851954
aI121852828
aS'+'
asS'TMCO6'
p20
(lp21
I140639426
aI140645408
aS'+'
asS'IL6ST'
p22
(lp23
I55935096
aI55994993
aS'-'
asS'SNORD138'
p24
(lp25
I86620505
aI86620568
aS'+'
asS'MOCS2'
p26
(lp27
I53095678
aI53109772
aS'-'
asS'MFAP3'
p28
(lp29
I154038958
aI154057454
aS'+'
asS'LIFR'
p30
(lp31
I38474962
aI38595405
aS'-'
asS'PPWD1'
p32
(lp33
I65563238
aI65587543
aS'+'
asS'SYNPO'
p34
(lp35
I150601079
aI150652341
aS'+'
asS'MIR1271'
p36
(lp37
I176367945
aI176368031
aS'+'
asS'MIR581'
p38
(lp39
I53951503
aI53951599
aS'-'
asS'PCDHB9'
p40
(lp41
I141187126
aI141191538
aS'+'
asS'MGAT1'
p42
(lp43
I180790545
aI180815616
aS'-'
asS'CD180'
p44
(lp45
I67182275
aI67196789
aS'-'
asS'ZNF879'
p46
(lp47
I179023751
aI179034387
aS'+'
asS'PTGER4'
p48
(lp49
I40679929
aI40693736
aS'+'
asS'PCDH1'
p50
(lp51
I141853110
aI141878410
aS'-'
asS'LINC01265'
p52
(lp53
I38710366
aI38720273
aS'-'
asS'ZFYVE16'
p54
(lp55
I80408012
aI80483379
aS'+'
asS'CAMK4'
p56
(lp57
I111223652
aI111494884
aS'+'
asS'APBB3'
p58
(lp59
I140558267
aI140564604
aS'-'
asS'ZSWIM6'
p60
(lp61
I61332272
aI61546172
aS'+'
asS'FAM114A2'
p62
(lp63
I153990130
aI154038938
aS'-'
asS'LINC02201'
p64
(lp65
I122628951
aI122730560
aS'-'
asS'LINC02200'
p66
(lp67
I112628435
aI112630921
aS'+'
asS'NME5'
p68
(lp69
I138115174
aI138139428
aS'-'
asS'MAT2B'
p70
(lp71
I163503063
aI163519353
aS'+'
asS'IRX4'
p72
(lp73
I1877426
aI1887179
aS'-'
asS'SV2C'
p74
(lp75
I76083413
aI76353939
aS'+'
asS'NADK2'
p76
(lp77
I36192588
aI36242279
aS'-'
asS'IRX1'
p78
(lp79
I3596053
aI3601403
aS'+'
asS'LINC02208'
p80
(lp81
I118350972
aI118562117
aS'-'
asS'IRX2'
p82
(lp83
I2746164
aI2751677
aS'-'
asS'LARP1'
p84
(lp85
I154712901
aI154817607
aS'+'
asS'DIMT1'
p86
(lp87
I62387253
aI62403905
aS'-'
asS'NPR3'
p88
(lp89
I32690871
aI32791725
aS'+'
asS'EGR1'
p90
(lp91
I138465491
aI138469315
aS'+'
asS'DIAPH1'
p92
(lp93
I141515020
aI141619055
aS'-'
asS'SRFBP1'
p94
(lp95
I121961960
aI122028600
aS'+'
asS'MIR5706'
p96
(lp97
I119154636
aI119154716
aS'+'
asS'SLC38A9'
p98
(lp99
I55625844
aI55712335
aS'-'
asS'GPR151'
p100
(lp101
I146514853
aI146516113
aS'-'
asS'FCHO2'
p102
(lp103
I72955980
aI73090522
aS'+'
asS'SLC6A19'
p104
(lp105
I1201594
aI1225111
aS'+'
asS'CSNK1A1'
p106
(lp107
I149495893
aI149551552
aS'-'
asS'PCDHGC3'
p108
(lp109
I141476001
aI141512977
aS'+'
asS'PCDHGC4'
p110
(lp111
I141485173
aI141512979
aS'+'
asS'MIR4460'
p112
(lp113
I129397061
aI129397147
aS'-'
asS'COL23A1'
p114
(lp115
I178237615
aI178590555
aS'-'
asS'FAM174A'
p116
(lp117
I100535373
aI100586740
aS'+'
asS'DEPDC1B'
p118
(lp119
I60596911
aI60700166
aS'-'
asS'ERGIC1'
p120
(lp121
I172834250
aI172952682
aS'+'
asS'CXCL14'
p122
(lp123
I135570680
aI135579279
aS'-'
asS'MIR3660'
p124
(lp125
I90016620
aI90016720
aS'-'
asS'MIR3661'
p126
(lp127
I134225756
aI134225852
aS'+'
asS'FAM172A'
p128
(lp129
I93617724
aI94111699
aS'-'
asS'P4HA2'
p130
(lp131
I132192610
aI132227863
aS'-'
asS'ADRA1B'
p132
(lp133
I159916732
aI159973010
aS'+'
asS'GALNT10'
p134
(lp135
I154190734
aI154420983
aS'+'
asS'NOP16'
p136
(lp137
I176383936
aI176388927
aS'-'
asS'HCN1'
p138
(lp139
I45254949
aI45696118
aS'-'
asS'LOC105378979'
p140
(lp141
I56770846
aI56772871
aS'-'
asS'EDIL3'
p142
(lp143
I83940594
aI84384867
aS'-'
asS'GM2A'
p144
(lp145
I151253051
aI151270392
aS'+'
asS'DDX46'
p146
(lp147
I134758733
aI134831136
aS'+'
asS'MTREX'
p148
(lp149
I55307747
aI55425581
aS'+'
asS'RGMB-AS1'
p150
(lp151
I98769617
aI98773084
aS'-'
asS'PRR16'
p152
(lp153
I120464277
aI120687330
aS'+'
asS'ENC1'
p154
(lp155
I74627405
aI74641424
aS'-'
asS'CEP72'
p156
(lp157
I612289
aI653551
aS'+'
asS'GTF2H2C'
p158
(lp159
I71035398
aI71067652
aS'-'
asS'MEF2C-AS2'
p160
(lp161
I88676217
aI88722831
aS'+'
asS'MEF2C-AS1'
p162
(lp163
I88883329
aI89467581
aS'+'
asS'LOC644285'
p164
(lp165
I87318414
aI87323628
aS'-'
asS'PKD2L2'
p166
(lp167
I137889435
aI137942745
aS'+'
asS'SERF1A'
p168
(lp169
I70025244
aI70043113
aS'+'
asS'MAML1'
p170
(lp171
I179732849
aI179777286
aS'+'
asS'EGFLAM'
p172
(lp173
I38258408
aI38465480
aS'+'
asS'SERF1B'
p174
(lp175
I70025250
aI70043107
aS'+'
asS'MIR548F3'
p176
(lp177
I110513828
aI110513915
aS'-'
asS'LINC01949'
p178
(lp179
I87215734
aI87239201
aS'-'
asS'LOC101927100'
p180
(lp181
I115602154
aI115620419
aS'+'
asS'MIR3142HG'
p182
(lp183
I160468250
aI160487426
aS'+'
asS'ITGA1'
p184
(lp185
I52788301
aI52953655
aS'+'
asS'ITGA2'
p186
(lp187
I52989325
aI53094779
aS'+'
asS'UBE2D2'
p188
(lp189
I139561165
aI139628433
aS'+'
asS'PCDHB12'
p190
(lp191
I141208718
aI141212126
aS'+'
asS'FAM71B'
p192
(lp193
I157162332
aI157166268
aS'-'
asS'C5orf30'
p194
(lp195
I103258762
aI103278660
aS'+'
asS'SLC30A5'
p196
(lp197
I69093948
aI69131072
aS'+'
asS'RELL2'
p198
(lp199
I141636949
aI141641064
aS'+'
asS'RAD1'
p200
(lp201
I34905260
aI34915675
aS'-'
asS'ADGRV1'
p202
(lp203
I90558796
aI91164437
aS'+'
asS'LOC101929710'
p204
(lp205
I95962000
aI96631085
aS'+'
asS'LINC02107'
p206
(lp207
I38025696
aI38183932
aS'+'
asS'LINC02104'
p208
(lp209
I39520430
aI39524708
aS'+'
asS'TAS2R1'
p210
(lp211
I9628996
aI9630351
aS'-'
asS'LINC02102'
p212
(lp213
I6686324
aI6707711
aS'-'
asS'LINC02162'
p214
(lp215
I3452815
aI3461660
aS'+'
asS'LOC102503427'
p216
(lp217
I72557076
aI72571742
aS'+'
asS'LINC02101'
p218
(lp219
I58107631
aI58122341
aS'-'
asS'WDR41'
p220
(lp221
I77430932
aI77492540
aS'-'
asS'PANK3'
p222
(lp223
I168555622
aI168579609
aS'-'
asS'LINC01944'
p224
(lp225
I172556724
aI172559014
aS'-'
asS'LOC105377752'
p226
(lp227
I177801078
aI177809507
aS'-'
asS'PCDHB11'
p228
(lp229
I141199774
aI141203045
aS'+'
asS'CETN3'
p230
(lp231
I90393334
aI90409786
aS'-'
asS'IL4'
p232
(lp233
I132673985
aI132682678
aS'+'
asS'MAPK9'
p234
(lp235
I180233580
aI180292083
aS'-'
asS'CCT5'
p236
(lp237
I10249920
aI10266412
aS'+'
asS'FAM151B'
p238
(lp239
I80488099
aI80542563
aS'+'
asS'CCL28'
p240
(lp241
I43376645
aI43412391
aS'-'
asS'HRH2'
p242
(lp243
I175658036
aI175686242
aS'+'
asS'CDKN2AIPNL'
p244
(lp245
I134402064
aI134411907
aS'-'
asS'FBXL17'
p246
(lp247
I107859032
aI108382098
aS'-'
asS'MIR3936HG'
p248
(lp249
I132311275
aI132369916
aS'-'
asS'FAM169A'
p250
(lp251
I74777573
aI74866838
aS'-'
asS'DDX41'
p252
(lp253
I177511576
aI177517326
aS'-'
asS'GRM6'
p254
(lp255
I178978328
aI178995320
aS'-'
asS'LINC01033'
p256
(lp257
I54320943
aI54415125
aS'+'
asS'KCNIP1'
p258
(lp259
I170353486
aI170736632
aS'+'
asS'IL3'
p260
(lp261
I132060653
aI132063203
aS'+'
asS'GAPT'
p262
(lp263
I58491434
aI58496358
aS'+'
asS'PCYOX1L'
p264
(lp265
I149358006
aI149369658
aS'+'
asS'FAF2'
p266
(lp267
I176448384
aI176510074
aS'+'
asS'OR2V1'
p268
(lp269
I181124356
aI181125304
aS'-'
asS'FST'
p270
(lp271
I53480433
aI53486474
aS'+'
asS'CREBRF'
p272
(lp273
I173056351
aI173139288
aS'+'
asS'FLJ32255'
p274
(lp275
I42985398
aI42993333
aS'-'
asS'SOX30'
p276
(lp277
I157625678
aI157671480
aS'-'
asS'FBLL1'
p278
(lp279
I168529062
aI168530634
aS'+'
asS'C1QTNF2'
p280
(lp281
I160348991
aI160370626
aS'-'
asS'LOC285593'
p282
(lp283
I173579633
aI173585068
aS'+'
asS'LOC100506406'
p284
(lp285
I35938800
aI35939991
aS'+'
asS'GLRX'
p286
(lp287
I95813848
aI95822873
aS'-'
asS'MIR340'
p288
(lp289
I180015302
aI180015397
aS'-'
asS'CYSTM1'
p290
(lp291
I140175067
aI140243789
aS'+'
asS'IRGM'
p292
(lp293
I150846522
aI150902402
aS'+'
asS'MIR1294'
p294
(lp295
I154347105
aI154347247
aS'+'
asS'LOC101929154'
p296
(lp297
I77884655
aI77959096
aS'+'
asS'SCARNA18'
p298
(lp299
I83064203
aI83064337
aS'-'
asS'C5orf17'
p300
(lp301
I23951347
aI24178265
aS'+'
asS'GZMA'
p302
(lp303
I55102645
aI55110252
aS'+'
asS'C5orf15'
p304
(lp305
I133955506
aI133968715
aS'-'
asS'SNHG4'
p306
(lp307
I139273751
aI139283184
aS'+'
asS'ARL14EPL'
p308
(lp309
I116051465
aI116059130
aS'+'
asS'GFM2'
p310
(lp311
I74721203
aI74767371
aS'-'
asS'LINC02039'
p312
(lp313
I126179576
aI126193850
aS'+'
asS'GABRP'
p314
(lp315
I170783718
aI170814046
aS'+'
asS'GZMK'
p316
(lp317
I55024278
aI55034132
aS'+'
asS'TTC33'
p318
(lp319
I40711575
aI40755970
aS'-'
asS'SLC22A5'
p320
(lp321
I132369708
aI132395614
aS'+'
asS'PRDM6'
p322
(lp323
I123089102
aI123194266
aS'+'
asS'WDR36'
p324
(lp325
I111092171
aI111130502
aS'+'
asS'TTC37'
p326
(lp327
I95463894
aI95555005
aS'-'
asS'VTRNA1-1'
p328
(lp329
I140711275
aI140711373
aS'+'
asS'MIR6831'
p330
(lp331
I140563670
aI140563751
aS'-'
asS'MIR4458HG'
p332
(lp333
I8457686
aI8463096
aS'+'
asS'GFPT2'
p334
(lp335
I180300689
aI180353387
aS'-'
asS'LOC101928651'
p336
(lp337
I61663157
aI61698432
aS'-'
asS'FBXO38'
p338
(lp339
I148383934
aI148442836
aS'+'
asS'PRDM9'
p340
(lp341
I23507608
aI23528597
aS'+'
asS'LINC01861'
p342
(lp343
I153887427
aI153898987
aS'-'
asS'FAM153C'
p344
(lp345
I178007691
aI178063588
aS'+'
asS'SNORA47'
p346
(lp347
I77080433
aI77080571
aS'-'
asS'CDC42SE2'
p348
(lp349
I131264008
aI131394689
aS'+'
asS'PCDHGB8P'
p350
(lp351
I141426285
aI141428258
aS'+'
asS'LOC102724720'
p352
(lp353
I95834826
aI95849857
aS'+'
asS'LOC105374727'
p354
(lp355
I37249045
aI37250646
aS'+'
asS'HMGXB3'
p356
(lp357
I150000605
aI150053143
aS'+'
asS'SNORD170'
p358
(lp359
I14463982
aI14464067
aS'+'
asS'ANKRD31'
p360
(lp361
I75068296
aI75236878
aS'-'
asS'LOC100505841'
p362
(lp363
I122160175
aI122182663
aS'+'
asS'NDUFAF2'
p364
(lp365
I60945128
aI61153037
aS'+'
asS'LINC01511'
p366
(lp367
I1363581
aI1380073
aS'-'
asS'LOC644762'
p368
(lp369
I149931363
aI149932977
aS'-'
asS'POLK'
p370
(lp371
I75511749
aI75605819
aS'+'
asS'HINT1'
p372
(lp373
I131159282
aI131165348
aS'-'
asS'LHFPL2'
p374
(lp375
I78485229
aI78648772
aS'-'
asS'PROB1'
p376
(lp377
I139391945
aI139395196
aS'-'
asS'NEURL1B'
p378
(lp379
I172641265
aI172691530
aS'+'
asS'BRIX1'
p380
(lp381
I34915714
aI34925682
aS'+'
asS'LINC01455'
p382
(lp383
I79936578
aI79967626
aS'+'
asS'PHAX'
p384
(lp385
I126600946
aI126627252
aS'+'
asS'MIR1303'
p386
(lp387
I154685775
aI154685861
aS'+'
asS'MIR4804'
p388
(lp389
I72878590
aI72878663
aS'+'
asS'S100Z'
p390
(lp391
I76850000
aI76921231
aS'+'
asS'NR2F1'
p392
(lp393
I93583336
aI93594609
aS'+'
asS'SLC36A2'
p394
(lp395
I151314977
aI151347590
aS'-'
asS'SLC36A1'
p396
(lp397
I151447595
aI151492381
aS'+'
asS'PCDHB13'
p398
(lp399
I141213918
aI141217421
aS'+'
asS'TENT4A'
p400
(lp401
I6713431
aI6757048
aS'+'
asS'CKMT2-AS1'
p402
(lp403
I81237564
aI81301569
aS'-'
asS'PCDHB10'
p404
(lp405
I141192378
aI141195640
aS'+'
asS'PCDHB16'
p406
(lp407
I141181689
aI141186221
aS'+'
asS'LINC01951'
p408
(lp409
I174919081
aI174995731
aS'-'
asS'MIR4280'
p410
(lp411
I87114878
aI87114954
aS'-'
asS'MIR378A'
p412
(lp413
I149732824
aI149732890
aS'+'
asS'ELL2'
p414
(lp415
I95885097
aI95961851
aS'-'
asS'SNCB'
p416
(lp417
I176620083
aI176630561
aS'-'
asS'PURPL'
p418
(lp419
I27472291
aI27496401
aS'+'
asS'LOC285638'
p420
(lp421
I109237134
aI109326369
aS'-'
asS'SPARC'
p422
(lp423
I151661095
aI151687054
aS'-'
asS'THG1L'
p424
(lp425
I157731388
aI157741447
aS'+'
asS'OR4F16'
p426
(lp427
I181367286
aI181368225
aS'+'
asS'GPRIN1'
p428
(lp429
I176595801
aI176610130
aS'-'
asS'IL17B'
p430
(lp431
I149374266
aI149404202
aS'-'
asS'MARVELD2'
p432
(lp433
I69415111
aI69442063
aS'+'
asS'IRF1'
p434
(lp435
I132481608
aI132490773
aS'-'
asS'NDST1-AS1'
p436
(lp437
I150475515
aI150485992
aS'-'
asS'NREP-AS1'
p438
(lp439
I111912507
aI112017306
aS'+'
asS'NREP'
p440
(lp441
I111729302
aI111976931
aS'-'
asS'LMBRD2'
p442
(lp443
I36103311
aI36151913
aS'-'
asS'SNORD13B-2'
p444
(lp445
I69539160
aI69539264
aS'-'
asS'SAR1B'
p446
(lp447
I134601148
aI134632843
aS'-'
asS'SLC27A6'
p448
(lp449
I128965126
aI129033642
aS'+'
asS'LOC107986453'
p450
(lp451
I135821757
aI135826582
aS'+'
asS'LINC02239'
p452
(lp453
I24835279
aI24840583
aS'-'
asS'RIOK2'
p454
(lp455
I97160866
aI97183301
aS'-'
asS'SREK1'
p456
(lp457
I66144217
aI66183616
aS'+'
asS'CMBL'
p458
(lp459
I10277594
aI10308056
aS'-'
asS'GPR150'
p460
(lp461
I95620077
aI95622142
aS'+'
asS'PPP1R2B'
p462
(lp463
I156850485
aI156852528
aS'+'
asS'HMMR-AS1'
p464
(lp465
I163482603
aI163494058
aS'-'
asS'TIMD4'
p466
(lp467
I156919281
aI156963255
aS'-'
asS'GTF2H2B'
p468
(lp469
I69560222
aI69595228
aS'+'
asS'PRRC1'
p470
(lp471
I127517608
aI127555088
aS'+'
asS'SPDL1'
p472
(lp473
I169583633
aI169604777
aS'+'
asS'CLMAT3'
p474
(lp475
I151676944
aI151687907
aS'+'
asS'CCDC112'
p476
(lp477
I115267187
aI115296761
aS'-'
asS'AK6'
p478
(lp479
I69350983
aI69369520
aS'-'
asS'TBCA'
p480
(lp481
I77691168
aI77776361
aS'-'
asS'GEMIN5'
p482
(lp483
I154887415
aI154938216
aS'-'
asS'MIR3936'
p484
(lp485
I132365489
aI132365599
aS'-'
asS'LINC02234'
p486
(lp487
I97840757
aI97923475
aS'+'
asS'CXXC5'
p488
(lp489
I139647298
aI139683885
aS'+'
asS'LINC01194'
p490
(lp491
I12574856
aI12805183
aS'+'
asS'BHMT2'
p492
(lp493
I79069723
aI79090074
aS'+'
asS'PFN3'
p494
(lp495
I177400108
aI177400661
aS'-'
asS'RGS14'
p496
(lp497
I177357842
aI177372598
aS'+'
asS'HAND1'
p498
(lp499
I154474971
aI154478227
aS'-'
asS'MIR6131'
p500
(lp501
I10478036
aI10478145
aS'+'
asS'AGGF1'
p502
(lp503
I77030384
aI77065233
aS'+'
asS'MXD3'
p504
(lp505
I177305499
aI177312291
aS'-'
asS'LINC00847'
p506
(lp507
I180830956
aI180835726
aS'+'
asS'IPO11'
p508
(lp509
I62412745
aI62628589
aS'+'
asS'LOC105379176'
p510
(lp511
I132679084
aI132682629
aS'-'
asS'ANKH'
p512
(lp513
I14704799
aI14871785
aS'-'
asS'CPEB4'
p514
(lp515
I173888327
aI173960991
aS'+'
asS'PRELID2'
p516
(lp517
I145756343
aI145835369
aS'-'
asS'LOC105379183'
p518
(lp519
I133968688
aI133970223
aS'+'
asS'MYOT'
p520
(lp521
I137867855
aI137887851
aS'+'
asS'ARL10'
p522
(lp523
I176365467
aI176373500
aS'+'
asS'MIR3655'
p524
(lp525
I140647843
aI140647926
aS'+'
asS'ARL15'
p526
(lp527
I53884783
aI54310573
aS'-'
asS'TAF9'
p528
(lp529
I69364742
aI69370013
aS'-'
asS'ACTBL2'
p530
(lp531
I57480015
aI57482809
aS'-'
asS'MIR3650'
p532
(lp533
I38557501
aI38557561
aS'-'
asS'TCOF1'
p534
(lp535
I150357638
aI150400308
aS'+'
asS'FYB1'
p536
(lp537
I39105251
aI39270657
aS'-'
asS'LINC01574'
p538
(lp539
I176743204
aI176743921
aS'+'
asS'LOC105377716'
p540
(lp541
I170639157
aI170681470
aS'-'
asS'PCDH12'
p542
(lp543
I141943584
aI141959062
aS'-'
asS'LOC401176'
p544
(lp545
I16180240
aI16187061
aS'+'
asS'VTRNA2-1'
p546
(lp547
I136080490
aI136080598
aS'-'
asS'FGF10-AS1'
p548
(lp549
I44388731
aI44413989
aS'+'
asS'CTD-2350J17.1'
p550
(lp551
I15602188
aI15615002
aS'-'
asS'RBM27'
p552
(lp553
I146203604
aI146289221
aS'+'
asS'PLEKHG4B'
p554
(lp555
I92150
aI189972
aS'+'
asS'MINAR2'
p556
(lp557
I129748190
aI129765063
aS'+'
asS'KIF4B'
p558
(lp559
I155013754
aI155018132
aS'+'
asS'KLHL3'
p560
(lp561
I137617499
aI137736089
aS'-'
asS'LINC01957'
p562
(lp563
I114576040
aI114579970
aS'+'
asS'PELO'
p564
(lp565
I52787939
aI52802617
aS'+'
asS'CNOT8'
p566
(lp567
I154858248
aI154876792
aS'+'
asS'SLIT3'
p568
(lp569
I168661732
aI169301129
aS'-'
asS'PROP1'
p570
(lp571
I177992234
aI177996242
aS'-'
asS'SLC25A2'
p572
(lp573
I141302628
aI141304063
aS'-'
asS'HOMER1'
p574
(lp575
I79373823
aI79513836
aS'-'
asS'MTRNR2L2'
p576
(lp577
I80649999
aI80651035
aS'-'
asS'LOC101926960'
p578
(lp579
I42155832
aI42175345
aS'-'
asS'SRA1'
p580
(lp581
I140550066
aI140558093
aS'-'
asS'HSD17B4'
p582
(lp583
I119452442
aI119542335
aS'+'
asS'CNOT6'
p584
(lp585
I180494378
aI180578405
aS'+'
asS'N4BP3'
p586
(lp587
I178113554
aI178126106
aS'+'
asS'PDZD2'
p588
(lp589
I31639409
aI32110932
aS'+'
asS'NHP2'
p590
(lp591
I178149464
aI178153960
aS'-'
asS'MIR1244-4'
p592
(lp593
I118974585
aI118974667
aS'+'
asS'GTF2H2C_2'
p594
(lp595
I71035346
aI71067692
aS'-'
asS'TH2LCRR'
p596
(lp597
I132638047
aI132656154
aS'-'
asS'FBN2'
p598
(lp599
I128257908
aI128538042
aS'-'
asS'RAB24'
p600
(lp601
I177301189
aI177303744
aS'-'
asS'CAMK2A'
p602
(lp603
I150219490
aI150290130
aS'-'
asS'STARD4-AS1'
p604
(lp605
I111512225
aI111739726
aS'+'
asS'KDM3B'
p606
(lp607
I138352595
aI138437027
aS'+'
asS'LOC642366'
p608
(lp609
I51372736
aI51383332
aS'-'
asS'LCP2'
p610
(lp611
I170246232
aI170297842
aS'-'
asS'PPP2R2B'
p612
(lp613
I146589504
aI147081520
aS'-'
asS'LOC101927969'
p614
(lp615
I168706926
aI168720884
aS'+'
asS'EXOC3'
p616
(lp617
I443218
aI467294
aS'+'
asS'DMXL1'
p618
(lp619
I119071054
aI119249129
aS'+'
asS'NIPAL4'
p620
(lp621
I157460018
aI157474722
aS'+'
asS'ARSB'
p622
(lp623
I78777210
aI78985310
aS'-'
asS'F2R'
p624
(lp625
I76716042
aI76735780
aS'+'
asS'GLRA1'
p626
(lp627
I151822512
aI151924836
aS'-'
asS'HEXB'
p628
(lp629
I74640022
aI74721288
aS'+'
asS'LOC101926905'
p630
(lp631
I141046204
aI141078031
aS'-'
asS'ARSK'
p632
(lp633
I95555120
aI95605102
aS'+'
asS'TRIM7'
p634
(lp635
I181193923
aI181205293
aS'-'
asS'MGAT4B'
p636
(lp637
I179797597
aI179806952
aS'-'
asS'WDR70'
p638
(lp639
I37379259
aI37752672
aS'+'
asS'FAM193B'
p640
(lp641
I177519788
aI177554585
aS'-'
asS'SLC1A3'
p642
(lp643
I36606354
aI36688334
aS'+'
asS'ROPN1L-AS1'
p644
(lp645
I10440734
aI10441851
aS'-'
asS'CD74'
p646
(lp647
I150401394
aI150412756
aS'-'
asS'LINC01846'
p648
(lp649
I98085865
aI98161239
aS'-'
asS'SELENOP'
p650
(lp651
I42799879
aI42812076
aS'-'
asS'RAD17'
p652
(lp653
I69369296
aI69414801
aS'+'
asS'ABLIM3'
p654
(lp655
I149141446
aI149260438
aS'+'
asS'GHR'
p656
(lp657
I42423774
aI42721878
aS'+'
asS'LOC442132'
p658
(lp659
I7301329
aI7306714
aS'-'
asS'LOC100130744'
p660
(lp661
I14712693
aI14716529
aS'+'
asS'GNPDA1'
p662
(lp663
I142000668
aI142013055
aS'-'
asS'CDO1'
p664
(lp665
I115804732
aI115816708
aS'-'
asS'LOC441086'
p666
(lp667
I74865892
aI74867276
aS'+'
asS'AGXT2'
p668
(lp669
I34998100
aI35048135
aS'-'
asS'LINC01554'
p670
(lp671
I95852231
aI95860132
aS'+'
asS'SPRY4-AS1'
p672
(lp673
I142325292
aI142464054
aS'+'
asS'MARCH6'
p674
(lp675
I10353638
aI10440388
aS'+'
asS'NPY6R'
p676
(lp677
I137801192
aI137810750
aS'+'
asS'MARCH3'
p678
(lp679
I126867713
aI127030808
aS'-'
asS'MIR1244-3'
p680
(lp681
I118974585
aI118974667
aS'+'
asS'DAB2'
p682
(lp683
I39371673
aI39425233
aS'-'
asS'TMEM174'
p684
(lp685
I73173192
aI73175143
aS'+'
asS'LINC01411'
p686
(lp687
I174336353
aI174527139
aS'+'
asS'TMEM173'
p688
(lp689
I139475532
aI139482758
aS'-'
asS'TMEM171'
p690
(lp691
I73120560
aI73131817
aS'+'
asS'HAVCR1'
p692
(lp693
I157029412
aI157059119
aS'-'
asS'ADAMTS6'
p694
(lp695
I65148735
aI65481920
aS'-'
asS'LOC101929109'
p696
(lp697
I76606610
aI76608969
aS'-'
asS'SEMA6A-AS1'
p698
(lp699
I116447497
aI116471673
aS'+'
asS'SEMA6A-AS2'
p700
(lp701
I116574417
aI116611200
aS'+'
asS'ADAMTS2'
p702
(lp703
I179110852
aI179345461
aS'-'
asS'LOC101927190'
p704
(lp705
I116367415
aI116374570
aS'-'
asS'EXOC3-AS1'
p706
(lp707
I441835
aI443160
aS'-'
asS'FAM173B'
p708
(lp709
I10225507
aI10249909
aS'-'
asS'ZCCHC9'
p710
(lp711
I81301582
aI81313146
aS'+'
asS'ROPN1L'
p712
(lp713
I10441861
aI10465026
aS'+'
asS'CDH9'
p714
(lp715
I26880596
aI27038586
aS'-'
asS'SLC12A7'
p716
(lp717
I1050373
aI1112057
aS'-'
asS'LOC100128966'
p718
(lp719
I138332104
aI138337146
aS'+'
asS'C5orf49'
p720
(lp721
I7830378
aI7851490
aS'-'
asS'SLC12A2'
p722
(lp723
I128083790
aI128189688
aS'+'
asS'SMIM15-AS1'
p724
(lp725
I61162315
aI61232080
aS'+'
asS'C5orf46'
p726
(lp727
I147892721
aI147906538
aS'-'
asS'LSINCT5'
p728
(lp729
I2712590
aI2715237
aS'+'
asS'IGIP'
p730
(lp731
I140125935
aI140128806
aS'+'
asS'ZFP62'
p732
(lp733
I180847610
aI180861286
aS'-'
asS'CDH6'
p734
(lp735
I31193654
aI31329146
aS'+'
asS'MRPL36'
p736
(lp737
I1798384
aI1799842
aS'-'
asS'JAKMIP2'
p738
(lp739
I147585440
aI147782848
aS'-'
asS'CENPK'
p740
(lp741
I65516276
aI65563168
aS'-'
asS'IL31RA'
p742
(lp743
I55851378
aI55922854
aS'+'
asS'CENPH'
p744
(lp745
I69189547
aI69210357
aS'+'
asS'SIMC1'
p746
(lp747
I176238358
aI176345991
aS'+'
asS'LOC340090'
p748
(lp749
I73195289
aI73201961
aS'-'
asS'ERAP2'
p750
(lp751
I96875938
aI96919716
aS'+'
asS'MIR4278'
p752
(lp753
I6827852
aI6827921
aS'-'
asS'MIR4279'
p754
(lp755
I31936101
aI31936159
aS'-'
asS'IL9'
p756
(lp757
I135892245
aI135895827
aS'-'
asS'SEC24A'
p758
(lp759
I134648784
aI134727911
aS'+'
asS'LEAP2'
p760
(lp761
I132873665
aI132874890
aS'+'
asS'CTD-2201I18.1'
p762
(lp763
I80066349
aI80083665
aS'-'
asS'SNORD123'
p764
(lp765
I9548826
aI9548914
aS'+'
asS'JAKMIP2-AS1'
p766
(lp767
I147559993
aI147662009
aS'+'
asS'MRPS30-DT'
p768
(lp769
I44744327
aI44808793
aS'-'
asS'PDE8B'
p770
(lp771
I77180256
aI77428255
aS'+'
asS'MIR4277'
p772
(lp773
I1708784
aI1708868
aS'-'
asS'TERT'
p774
(lp775
I1253171
aI1295047
aS'-'
asS'CCNG1'
p776
(lp777
I163437570
aI163448199
aS'+'
asS'SAP30L'
p778
(lp779
I154445956
aI154461053
aS'+'
asS'CSF2'
p780
(lp781
I132073791
aI132076170
aS'+'
asS'UBTD2'
p782
(lp783
I172209645
aI172283791
aS'-'
asS'LINC02217'
p784
(lp785
I17404018
aI17441694
aS'+'
asS'LINC02214'
p786
(lp787
I116743301
aI116762209
aS'-'
asS'LINC02215'
p788
(lp789
I118596187
aI118628092
aS'+'
asS'LINC02212'
p790
(lp791
I10493526
aI10502728
aS'-'
asS'LINC02213'
p792
(lp793
I10504989
aI10522084
aS'-'
asS'MIR8089'
p794
(lp795
I181043402
aI181043484
aS'-'
asS'LINC02211'
p796
(lp797
I25190952
aI25302280
aS'+'
asS'APC'
p798
(lp799
I112707504
aI112846239
aS'+'
asS'YIPF5'
p800
(lp801
I144158158
aI144170714
aS'-'
asS'MIR3977'
p802
(lp803
I82840154
aI82840224
aS'+'
asS'LINC02218'
p804
(lp805
I17444009
aI17483946
aS'+'
asS'LINC02219'
p806
(lp807
I68189875
aI68198407
aS'+'
asS'MIR1289-2'
p808
(lp809
I133427595
aI133427706
aS'-'
asS'LOC105379143'
p810
(lp811
I119011802
aI119070890
aS'-'
asS'ERAP1'
p812
(lp813
I96760809
aI96808189
aS'-'
asS'LECT2'
p814
(lp815
I135946910
aI135955034
aS'-'
asS'FNDC9'
p816
(lp817
I157341598
aI157345721
aS'-'
asS'MBLAC2'
p818
(lp819
I90458202
aI90474768
aS'-'
asS'LINC01485'
p820
(lp821
I173786789
aI173790942
aS'-'
asS'NEUROG1'
p822
(lp823
I135534281
aI135535949
aS'-'
asS'UGT3A2'
p824
(lp825
I36035016
aI36066921
aS'-'
asS'LOC102546229'
p826
(lp827
I134429050
aI134435047
aS'-'
asS'UGT3A1'
p828
(lp829
I35960755
aI36001028
aS'-'
asS'JADE2'
p830
(lp831
I134524374
aI134583230
aS'+'
asS'ADRB2'
p832
(lp833
I148826592
aI148828634
aS'+'
asS'H3.Y'
p834
(lp835
I17655025
aI17655638
aS'-'
asS'MED7'
p836
(lp837
I157138439
aI157142910
aS'-'
asS'SPZ1'
p838
(lp839
I80319970
aI80321841
aS'+'
asS'MIR103B1'
p840
(lp841
I168560903
aI168560965
aS'+'
asS'LINC01847'
p842
(lp843
I159776774
aI159871384
aS'-'
asS'MIR2277'
p844
(lp845
I93620695
aI93620788
aS'-'
asS'CCDC127'
p846
(lp847
I204759
aI218182
aS'-'
asS'C5orf66-AS2'
p848
(lp849
I135236233
aI135248177
aS'-'
asS'CCDC125'
p850
(lp851
I69280691
aI69332793
aS'-'
asS'LINC00603'
p852
(lp853
I40052290
aI40053324
aS'+'
asS'SUB1'
p854
(lp855
I32585556
aI32604079
aS'+'
asS'GABRA1'
p856
(lp857
I161847190
aI161899959
aS'+'
asS'ZNF608'
p858
(lp859
I124636916
aI124745112
aS'-'
asS'SPRY4-IT1'
p860
(lp861
I142317633
aI142318322
aS'-'
asS'WSPAR'
p862
(lp863
I133913676
aI133917269
aS'+'
asS'NNT-AS1'
p864
(lp865
I43573184
aI43603230
aS'-'
asS'OSMR-AS1'
p866
(lp867
I38693212
aI38845829
aS'-'
asS'MIR5692C1'
p868
(lp869
I135802984
aI135803075
aS'-'
asS'LRRTM2'
p870
(lp871
I138869389
aI138875368
aS'-'
asS'LINC02202'
p872
(lp873
I159100482
aI159117478
aS'+'
asS'PSD2-AS1'
p874
(lp875
I139741346
aI139746223
aS'-'
asS'SHLD3'
p876
(lp877
I65625026
aI65630705
aS'+'
asS'ARHGAP26-IT1'
p878
(lp879
I143192499
aI143194166
aS'+'
asS'NLN'
p880
(lp881
I65722195
aI65829283
aS'+'
asS'RASGEF1C'
p882
(lp883
I180100794
aI180209211
aS'-'
asS'SMIM3'
p884
(lp885
I150777945
aI150796736
aS'+'
asS'TCF7'
p886
(lp887
I134114697
aI134148229
aS'+'
asS'DPYSL3'
p888
(lp889
I147390807
aI147510056
aS'-'
asS'OR2V2'
p890
(lp891
I181154942
aI181155890
aS'+'
asS'EGFLAM-AS4'
p892
(lp893
I38282268
aI38290986
aS'-'
asS'LOC105374620'
p894
(lp895
I2917853
aI2920528
aS'+'
asS'SNORA70J'
p896
(lp897
I171366117
aI171366252
aS'+'
asS'GPX3'
p898
(lp899
I151020411
aI151028993
aS'+'
asS'SLC9A3-AS1'
p900
(lp901
I473235
aI480891
aS'+'
asS'SNORD72'
p902
(lp903
I40832655
aI40832735
aS'-'
asS'DROSHA'
p904
(lp905
I31400494
aI31532175
aS'-'
asS'SPINK1'
p906
(lp907
I147824579
aI147839231
aS'-'
asS'LINC01933'
p908
(lp909
I151958897
aI152270449
aS'+'
asS'MIR218-2'
p910
(lp911
I168768145
aI168768255
aS'-'
asS'F12'
p912
(lp913
I177402137
aI177409576
aS'-'
asS'PAIP2'
p914
(lp915
I139341831
aI139369720
aS'+'
asS'ZNF300'
p916
(lp917
I150894391
aI150904983
aS'-'
asS'LINC01959'
p918
(lp919
I135648682
aI135653935
aS'-'
asS'CTD-2194D22.4'
p920
(lp921
I1887330
aI1900490
aS'+'
asS'LARS'
p922
(lp923
I146113025
aI146182787
aS'-'
asS'LINC02159'
p924
(lp925
I160931778
aI160938626
aS'-'
asS'STK32A'
p926
(lp927
I147235015
aI147387855
aS'+'
asS'MIR449B'
p928
(lp929
I55170645
aI55170742
aS'-'
asS'SEMA5A'
p930
(lp931
I9035025
aI9546121
aS'-'
asS'DNAH5'
p932
(lp933
I13690328
aI13944480
aS'-'
asS'SH3TC2'
p934
(lp935
I148982149
aI149063174
aS'-'
asS'SKP1'
p936
(lp937
I134156390
aI134177033
aS'-'
asS'PCDHB18P'
p938
(lp939
I141234332
aI141237529
aS'+'
asS'PRR7-AS1'
p940
(lp941
I177437888
aI177447944
aS'-'
asS'CBY3'
p942
(lp943
I179678557
aI179680974
aS'-'
asS'MEF2C'
p944
(lp945
I88718240
aI88904105
aS'-'
asS'LINC01023'
p946
(lp947
I108727824
aI108728261
aS'-'
asS'STARD4'
p948
(lp949
I111496034
aI111512597
aS'-'
asS'LOC100505658'
p950
(lp951
I141558310
aI141565260
aS'+'
asS'ST8SIA4'
p952
(lp953
I100806934
aI100903285
aS'-'
asS'NSD1'
p954
(lp955
I177133078
aI177300213
aS'+'
asS'CLK4'
p956
(lp957
I178602663
aI178627053
aS'-'
asS'ARRDC3-AS1'
p958
(lp959
I91380346
aI91420715
aS'+'
asS'SNX24'
p960
(lp961
I122845448
aI123009212
aS'+'
asS'RHOBTB3'
p962
(lp963
I95731145
aI95796367
aS'+'
asS'NUDCD2'
p964
(lp965
I163446527
aI163460154
aS'-'
asS'IL7R'
p966
(lp967
I35856848
aI35879603
aS'+'
asS'SHISAL2B'
p968
(lp969
I64690307
aI64718190
aS'+'
asS'MRPS36'
p970
(lp971
I69217745
aI69230158
aS'+'
asS'LINC00992'
p972
(lp973
I117415511
aI117579744
aS'+'
asS'SNORD95'
p974
(lp975
I181243313
aI181243376
aS'-'
asS'TRPC7-AS2'
p976
(lp977
I136226654
aI136316100
aS'+'
asS'LOC646652'
p978
(lp979
I34189580
aI34194204
aS'+'
asS'LOC105379030'
p980
(lp981
I73132007
aI73150592
aS'-'
asS'POU5F2'
p982
(lp983
I93740308
aI93741603
aS'-'
asS'TCERG1'
p984
(lp985
I146447309
aI146511506
aS'+'
asS'TMEM161B'
p986
(lp987
I88188315
aI88268879
aS'-'
asS'FABP6'
p988
(lp989
I160187366
aI160238722
aS'+'
asS'GPBP1'
p990
(lp991
I57173947
aI57264679
aS'+'
asS'FAM81B'
p992
(lp993
I95391343
aI95450440
aS'+'
asS'TRPC7'
p994
(lp995
I136213310
aI136365476
aS'-'
asS'SLC4A9'
p996
(lp997
I140360201
aI140375137
aS'+'
asS'SPRY4'
p998
(lp999
I142310426
aI142325055
aS'-'
asS'FLT4'
p1000
(lp1001
I180601505
aI180649624
aS'-'
asS'GABRA6'
p1002
(lp1003
I161685720
aI161702592
aS'+'
asS'MCTP1'
p1004
(lp1005
I94705536
aI95284575
aS'-'
asS'DUSP1'
p1006
(lp1007
I172768095
aI172771195
aS'-'
asS'CAPSL'
p1008
(lp1009
I35904295
aI35938779
aS'-'
asS'TRIP13'
p1010
(lp1011
I892853
aI918049
aS'+'
asS'SKP2'
p1012
(lp1013
I36152042
aI36184040
aS'+'
asS'FASTKD3'
p1014
(lp1015
I7859158
aI7869037
aS'-'
asS'SNCAIP'
p1016
(lp1017
I122311690
aI122464219
aS'+'
asS'EGFLAM-AS2'
p1018
(lp1019
I38399813
aI38403471
aS'-'
asS'OR2Y1'
p1020
(lp1021
I180739122
aI180740058
aS'-'
asS'SNHG18'
p1022
(lp1023
I9546199
aI9550297
aS'+'
asS'MRPL22'
p1024
(lp1025
I154941072
aI154969411
aS'+'
asS'CSF1R'
p1026
(lp1027
I150053290
aI150113372
aS'-'
asS'PCDHB19P'
p1028
(lp1029
I141240120
aI141244744
aS'+'
asS'CDKL3'
p1030
(lp1031
I134298423
aI134371047
aS'-'
asS'ETF1'
p1032
(lp1033
I138506092
aI138543300
aS'-'
asS'NDFIP1'
p1034
(lp1035
I142108758
aI142154443
aS'+'
asS'DBN1'
p1036
(lp1037
I177456612
aI177473693
aS'-'
asS'ZNF346'
p1038
(lp1039
I177022679
aI177081189
aS'+'
asS'TRAPPC13'
p1040
(lp1041
I65624730
aI65666127
aS'+'
asS'GABRG2'
p1042
(lp1043
I162067641
aI162155539
aS'+'
asS'HNRNPAB'
p1044
(lp1045
I178204506
aI178211183
aS'+'
asS'LOC101927488'
p1046
(lp1047
I126272516
aI126285175
aS'-'
asS'LOC728554'
p1048
(lp1049
I177875260
aI177884268
aS'+'
asS'LINC00461'
p1050
(lp1051
I88538265
aI88684825
aS'-'
asS'PLPP1'
p1052
(lp1053
I55424841
aI55535078
aS'-'
asS'TRIO'
p1054
(lp1055
I14143341
aI14510204
aS'+'
asS'LOC257396'
p1056
(lp1057
I53109841
aI53115126
aS'+'
asS'CCDC192'
p1058
(lp1059
I127703388
aI127941516
aS'+'
asS'MTMR12'
p1060
(lp1061
I32227006
aI32313008
aS'-'
asS'SQSTM1'
p1062
(lp1063
I179806387
aI179838077
aS'+'
asS'SNORA105A'
p1064
(lp1065
I21884453
aI21884569
aS'+'
asS'TMED7-TICAM2'
p1066
(lp1067
I115578495
aI115626179
aS'-'
asS'MIR378H'
p1068
(lp1069
I154829457
aI154829540
aS'+'
asS'MIR8056'
p1070
(lp1071
I173347454
aI173347536
aS'+'
asS'NUDT12'
p1072
(lp1073
I103548854
aI103562801
aS'-'
asS'PDCD6'
p1074
(lp1075
I271620
aI314974
aS'+'
asS'LINC01377'
p1076
(lp1077
I3177834
aI3181232
aS'+'
asS'LOC101928924'
p1078
(lp1079
I69477472
aI69485612
aS'-'
asS'MIR3912'
p1080
(lp1081
I171386655
aI171386760
aS'-'
asS'DELE1'
p1082
(lp1083
I141923819
aI141942047
aS'+'
asS'ARSI'
p1084
(lp1085
I150296342
aI150302905
aS'-'
asS'EFCAB9'
p1086
(lp1087
I172194171
aI172203454
aS'+'
asS'TBC1D9B'
p1088
(lp1089
I179862070
aI179907897
aS'-'
asS'PCDHB3'
p1090
(lp1091
I141100241
aI141103823
aS'+'
asS'CKMT2'
p1092
(lp1093
I81233319
aI81266398
aS'+'
asS'FGF10'
p1094
(lp1095
I44304994
aI44388682
aS'-'
asS'FBXL21P'
p1096
(lp1097
I135930296
aI135941996
aS'+'
asS'LOC101929719'
p1098
(lp1099
I140157318
aI140168785
aS'+'
asS'LINC01187'
p1100
(lp1101
I170191646
aI170199141
aS'-'
asS'PCDHGC5'
p1102
(lp1103
I141489240
aI141512979
aS'+'
asS'F2RL1'
p1104
(lp1105
I76818976
aI76835315
aS'+'
asS'SLC23A1'
p1106
(lp1107
I139367195
aI139383350
aS'-'
asS'SOWAHA'
p1108
(lp1109
I132813323
aI132816797
aS'+'
asS'BASP1'
p1110
(lp1111
I17216822
aI17276845
aS'+'
asS'LINC02488'
p1112
(lp1113
I87662041
aI87679409
aS'+'
asS'LOC728613'
p1114
(lp1115
I1597556
aI1634005
aS'-'
asS'LOC101929524'
p1116
(lp1117
I16615925
aI16629969
aS'+'
asS'SH3PXD2B'
p1118
(lp1119
I172325180
aI172454523
aS'-'
asS'F2RL2'
p1120
(lp1121
I76615481
aI76623434
aS'-'
asS'LOC102724404'
p1122
(lp1123
I157362614
aI157460100
aS'-'
asS'SFXN1'
p1124
(lp1125
I175478497
aI175529741
aS'+'
asS'KIAA1191'
p1126
(lp1127
I176346060
aI176361807
aS'-'
asS'ERCC8'
p1128
(lp1129
I60873831
aI60945078
aS'-'
asS'LYSMD3'
p1130
(lp1131
I90515625
aI90529584
aS'-'
asS'HRAT5'
p1132
(lp1133
I269555
aI271524
aS'-'
asS'LINC02108'
p1134
(lp1135
I58541566
aI58558243
aS'-'
asS'LOC105377763'
p1136
(lp1137
I179657761
aI179674295
aS'+'
asS'PCBD2'
p1138
(lp1139
I134905119
aI134962646
aS'+'
asS'SLC45A2'
p1140
(lp1141
I33944615
aI33984675
aS'-'
asS'MSH3'
p1142
(lp1143
I80654651
aI80876815
aS'+'
asS'RASGRF2-AS1'
p1144
(lp1145
I80947692
aI80960907
aS'-'
asS'LOC441081'
p1146
(lp1147
I70486500
aI70491787
aS'+'
asS'PRKAA1'
p1148
(lp1149
I40759378
aI40798195
aS'-'
asS'IPO11-LRRC70'
p1150
(lp1151
I62578734
aI62628589
aS'+'
asS'LINC02106'
p1152
(lp1153
I50969216
aI50970187
aS'-'
asS'LOC100288254'
p1154
(lp1155
I172285596
aI172298376
aS'+'
asS'AP3S1'
p1156
(lp1157
I115841605
aI115914081
aS'+'
asS'LOC100996325'
p1158
(lp1159
I602168
aI612210
aS'-'
asS'SH3RF2'
p1160
(lp1161
I145936562
aI146063316
aS'+'
asS'PCDHA11'
p1162
(lp1163
I140867512
aI141012344
aS'+'
asS'PITX1'
p1164
(lp1165
I135027733
aI135034274
aS'-'
asS'CCNI2'
p1166
(lp1167
I132747444
aI132754403
aS'+'
asS'SMIM33'
p1168
(lp1169
I139471003
aI139473700
aS'+'
asS'IQGAP2'
p1170
(lp1171
I76403284
aI76708132
aS'+'
asS'SEMA6A'
p1172
(lp1173
I116443554
aI116574926
aS'-'
asS'MIR4638'
p1174
(lp1175
I181222565
aI181222633
aS'-'
asS'LOC105374704'
p1176
(lp1177
I29880559
aI29882103
aS'+'
asS'PMCHL2'
p1178
(lp1179
I71375784
aI71385993
aS'+'
asS'LOC102546294'
p1180
(lp1181
I148268306
aI148383850
aS'-'
asS'PMCHL1'
p1182
(lp1183
I22142351
aI22152270
aS'+'
asS'LOC102546299'
p1184
(lp1185
I164470278
aI164542983
aS'+'
asS'LOC100132287'
p1186
(lp1187
I181323505
aI181328195
aS'+'
asS'LINC01202'
p1188
(lp1189
I161910461
aI162001196
aS'-'
asS'MIR4633'
p1190
(lp1191
I129097687
aI129097766
aS'+'
asS'MIR4634'
p1192
(lp1193
I174751733
aI174751787
aS'+'
asS'LINC01170'
p1194
(lp1195
I124059793
aI124438520
aS'-'
asS'MIR4636'
p1196
(lp1197
I9053815
aI9053895
aS'-'
asS'CDH18-AS1'
p1198
(lp1199
I20305550
aI20332446
aS'+'
asS'MED10'
p1200
(lp1201
I6371925
aI6378526
aS'-'
asS'MTX3'
p1202
(lp1203
I79976715
aI79991265
aS'-'
asS'GIN1'
p1204
(lp1205
I103085999
aI103120138
aS'-'
asS'SNORA105B'
p1206
(lp1207
I21884453
aI21884569
aS'+'
asS'DNAJC18'
p1208
(lp1209
I139410202
aI139439525
aS'-'
asS'MIR579'
p1210
(lp1211
I32394377
aI32394475
aS'-'
asS'BOD1'
p1212
(lp1213
I173607144
aI173616663
aS'-'
asS'MYOZ3'
p1214
(lp1215
I150660840
aI150679368
aS'+'
asS'NDST1'
p1216
(lp1217
I150497777
aI150558211
aS'+'
asS'MIR874'
p1218
(lp1219
I137647571
aI137647649
aS'-'
asS'RUFY1'
p1220
(lp1221
I179550560
aI179610026
aS'+'
asS'ATP10B'
p1222
(lp1223
I160563119
aI160852212
aS'-'
asS'LOC105379192'
p1224
(lp1225
I137128196
aI137130969
aS'+'
asS'LOC105379194'
p1226
(lp1227
I138744429
aI138753924
aS'-'
asS'LOC643201'
p1228
(lp1229
I176143084
aI176199295
aS'-'
asS'CPLX2'
p1230
(lp1231
I175796606
aI175884020
aS'+'
asS'NCRUPAR'
p1232
(lp1233
I76712402
aI76712888
aS'+'
asS'PCDHB8'
p1234
(lp1235
I141177789
aI141180500
aS'+'
asS'MIR1229'
p1236
(lp1237
I179798277
aI179798346
aS'-'
asS'EBF1'
p1238
(lp1239
I158695919
aI159099916
aS'-'
asS'ATP6V0E1'
p1240
(lp1241
I172983759
aI173034897
aS'+'
asS'SNORA74D'
p1242
(lp1243
I139276179
aI139276323
aS'+'
asS'NIM1K'
p1244
(lp1245
I43192067
aI43280850
aS'+'
asS'PDLIM7'
p1246
(lp1247
I177483393
aI177497605
aS'-'
asS'LINC00492'
p1248
(lp1249
I102581367
aI102617587
aS'+'
asS'CTNNA1'
p1250
(lp1251
I138753385
aI138935034
aS'+'
asS'SNORA74B'
p1252
(lp1253
I173020725
aI173020929
aS'+'
asS'LINC00491'
p1254
(lp1255
I102608491
aI102671464
aS'-'
asS'CCNB1'
p1256
(lp1257
I69167009
aI69178243
aS'+'
asS'FAM170A'
p1258
(lp1259
I119629558
aI119635822
aS'+'
asS'SLC9A3'
p1260
(lp1261
I471985
aI524434
aS'-'
asS'MCC'
p1262
(lp1263
I113022105
aI113488453
aS'-'
asS'SLC22A4'
p1264
(lp1265
I132294451
aI132344206
aS'+'
asS'SCGB3A2'
p1266
(lp1267
I147878710
aI147882193
aS'+'
asS'TLX3'
p1268
(lp1269
I171309283
aI171312134
aS'+'
asS'PRLR'
p1270
(lp1271
I35055701
aI35230487
aS'-'
asS'LOC648987'
p1272
(lp1273
I43014728
aI43067439
aS'-'
asS'FGFR4'
p1274
(lp1275
I177086871
aI177098142
aS'+'
asS'HAVCR2'
p1276
(lp1277
I157085831
aI157109237
aS'-'
asS'LINC01848'
p1278
(lp1279
I109883181
aI109884903
aS'+'
asS'LINC02222'
p1280
(lp1281
I180684095
aI180686543
aS'+'
asS'TARS'
p1282
(lp1283
I33440695
aI33468091
aS'+'
asS'TGFBI'
p1284
(lp1285
I136028894
aI136063818
aS'+'
asS'LINC01844'
p1286
(lp1287
I142745599
aI142760993
aS'+'
asS'LINC01845'
p1288
(lp1289
I159448555
aI159466276
aS'-'
asS'LINC01843'
p1290
(lp1291
I134506551
aI134509230
aS'+'
asS'SLF1'
p1292
(lp1293
I94618668
aI94697621
aS'+'
asS'SLC6A3'
p1294
(lp1295
I1392789
aI1445428
aS'-'
asS'TSSK1B'
p1296
(lp1297
I113432553
aI113435031
aS'-'
asS'AFF4'
p1298
(lp1299
I132875395
aI132963634
aS'-'
asS'SLC6A7'
p1300
(lp1301
I150190061
aI150211063
aS'+'
asS'LOC653080'
p1302
(lp1303
I69844668
aI69997713
aS'+'
asS'RNF138P1'
p1304
(lp1305
I55528841
aI55534542
aS'-'
asS'ZFR'
p1306
(lp1307
I32354345
aI32444761
aS'-'
asS'HNRNPA0'
p1308
(lp1309
I137751383
aI137754350
aS'-'
asS'CHSY3'
p1310
(lp1311
I129904464
aI130186634
aS'+'
asS'EPB41L4A'
p1312
(lp1313
I112142441
aI112419316
aS'-'
asS'POLR3G'
p1314
(lp1315
I90474863
aI90514552
aS'+'
asS'RAPGEF6'
p1316
(lp1317
I131423920
aI131635236
aS'-'
asS'LINC02225'
p1318
(lp1319
I57890330
aI57899162
aS'-'
asS'AMACR'
p1320
(lp1321
I33986985
aI34008115
aS'-'
asS'LINC01948'
p1322
(lp1323
I56457794
aI56481769
aS'-'
asS'LINC02160'
p1324
(lp1325
I33229734
aI33255553
aS'+'
asS'CWC27'
p1326
(lp1327
I64768917
aI65018763
aS'+'
asS'PCDHGA3'
p1328
(lp1329
I141344033
aI141512979
aS'+'
asS'PCDHB4'
p1330
(lp1331
I141121749
aI141125621
aS'+'
asS'KIF2A'
p1332
(lp1333
I62306161
aI62387184
aS'+'
asS'PAM'
p1334
(lp1335
I102754782
aI103031104
aS'+'
asS'RANBP17'
p1336
(lp1337
I170861881
aI171300015
aS'+'
asS'EPB41L4A-AS1'
p1338
(lp1339
I112160525
aI112162501
aS'+'
asS'PCDHAC2'
p1340
(lp1341
I140966475
aI141012346
aS'+'
asS'LUCAT1'
p1342
(lp1343
I91302985
aI91314402
aS'-'
asS'ZNF354A'
p1344
(lp1345
I178711520
aI178730702
aS'-'
asS'LVRN'
p1346
(lp1347
I115962453
aI116027602
aS'+'
asS'ZNF354C'
p1348
(lp1349
I179060414
aI179083977
aS'+'
asS'TMEM267'
p1350
(lp1351
I43444251
aI43483890
aS'-'
asS'LIX1'
p1352
(lp1353
I97091869
aI97142816
aS'-'
asS'FAM153A'
p1354
(lp1355
I177711049
aI177783425
aS'-'
asS'SLCO6A1'
p1356
(lp1357
I102371781
aI102499016
aS'-'
asS'MAP3K1'
p1358
(lp1359
I56815072
aI56896151
aS'+'
asS'CDC20B'
p1360
(lp1361
I55112970
aI55173177
aS'-'
asS'LINC01019'
p1362
(lp1363
I3417151
aI3536094
aS'-'
asS'LINC01018'
p1364
(lp1365
I6582135
aI6588500
aS'+'
asS'NSG2'
p1366
(lp1367
I174045603
aI174109179
aS'+'
asS'CLINT1'
p1368
(lp1369
I157785742
aI157859175
aS'-'
asS'VTRNA1-3'
p1370
(lp1371
I140726158
aI140726246
aS'+'
asS'LOC102467080'
p1372
(lp1373
I54660157
aI54744258
aS'-'
asS'LOC102467081'
p1374
(lp1375
I55021298
aI55024169
aS'-'
asS'ZNF474'
p1376
(lp1377
I122129512
aI122153571
aS'+'
asS'LINC01017'
p1378
(lp1379
I3496371
aI3504004
aS'-'
asS'RNF145'
p1380
(lp1381
I159157408
aI159210053
aS'-'
asS'SPEF2'
p1382
(lp1383
I35617886
aI35814611
aS'+'
asS'TRIM52-AS1'
p1384
(lp1385
I181261211
aI181272307
aS'+'
asS'MIR4803'
p1386
(lp1387
I72169466
aI72169540
aS'+'
asS'LOC101927357'
p1388
(lp1389
I122581498
aI122584600
aS'-'
asS'NAIP'
p1390
(lp1391
I70968482
aI71025114
aS'-'
asS'LOC101927421'
p1392
(lp1393
I125036830
aI125367734
aS'+'
asS'SNORA13'
p1394
(lp1395
I112161484
aI112161617
aS'+'
asS'AHRR'
p1396
(lp1397
I304175
aI438290
aS'+'
asS'SETD9'
p1398
(lp1399
I56909259
aI56928899
aS'+'
asS'LOC728095'
p1400
(lp1401
I169013226
aI169037998
aS'+'
asS'TNIP1'
p1402
(lp1403
I151029942
aI151087660
aS'-'
asS'BRD8'
p1404
(lp1405
I138139769
aI138178669
aS'-'
asS'BRD9'
p1406
(lp1407
I863734
aI892824
aS'-'
asS'HMGCR'
p1408
(lp1409
I75337167
aI75362116
aS'+'
asS'VTRNA1-2'
p1410
(lp1411
I140718925
aI140719013
aS'+'
asS'NKX2-5'
p1412
(lp1413
I173232103
aI173235312
aS'-'
asS'EPB41L4A-DT'
p1414
(lp1415
I112419582
aI112420981
aS'+'
asS'TSPAN17'
p1416
(lp1417
I176647386
aI176659058
aS'+'
asS'LRRC70'
p1418
(lp1419
I62578734
aI62581448
aS'+'
asS'ITK'
p1420
(lp1421
I157180895
aI157255099
aS'+'
asS'RAB9BP1'
p1422
(lp1423
I105099473
aI105100098
aS'+'
asS'MIR1244-1'
p1424
(lp1425
I118974585
aI118974667
aS'+'
asS'RXFP3'
p1426
(lp1427
I33936385
aI33938918
aS'+'
asS'TTC23L'
p1428
(lp1429
I34839623
aI34900501
aS'+'
asS'PRR7'
p1430
(lp1431
I177446794
aI177456286
aS'+'
asS'ADCY2'
p1432
(lp1433
I7396229
aI7830081
aS'+'
asS'THOC3'
p1434
(lp1435
I175959530
aI175968315
aS'-'
asS'RNF180'
p1436
(lp1437
I64165842
aI64372869
aS'+'
asS'RAI14'
p1438
(lp1439
I34656327
aI34832612
aS'+'
asS'LOC100132356'
p1440
(lp1441
I43065186
aI43066971
aS'-'
asS'LOC101928858'
p1442
(lp1443
I67793212
aI67801058
aS'+'
asS'PGGT1B'
p1444
(lp1445
I115210829
aI115262872
aS'-'
asS'LINC02197'
p1446
(lp1447
I71321030
aI71446756
aS'-'
asS'LINC01947'
p1448
(lp1449
I166905221
aI166926370
aS'-'
asS'LOC101927908'
p1450
(lp1451
I167164933
aI167168401
aS'-'
asS'PCDHGB7'
p1452
(lp1453
I141417692
aI141512981
aS'+'
asS'LINC02199'
p1454
(lp1455
I8839731
aI8881524
aS'+'
asS'LINC02198'
p1456
(lp1457
I68967740
aI69029927
aS'-'
asS'PCDHGB6'
p1458
(lp1459
I141408202
aI141512979
aS'+'
asS'PDLIM4'
p1460
(lp1461
I132257657
aI132273454
aS'+'
asS'LOC100128059'
p1462
(lp1463
I170308700
aI170312716
aS'-'
asS'FAM153B'
p1464
(lp1465
I176063708
aI176114798
aS'+'
asS'ATG12'
p1466
(lp1467
I115828196
aI115841851
aS'-'
asS'EMB'
p1468
(lp1469
I50396191
aI50441288
aS'-'
asS'DOCK2'
p1470
(lp1471
I169637274
aI170083382
aS'+'
asS'MROH2B'
p1472
(lp1473
I40998019
aI41071342
aS'-'
asS'GRIA1'
p1474
(lp1475
I153490523
aI153813869
aS'+'
asS'DNAJC21'
p1476
(lp1477
I34929558
aI34958964
aS'+'
asS'MIR449A'
p1478
(lp1479
I55170531
aI55170622
aS'-'
asS'LOC100506639'
p1480
(lp1481
I43067022
aI43093558
aS'+'
asS'FOXI1'
p1482
(lp1483
I170105896
aI170109734
aS'+'
asS'ICE1'
p1484
(lp1485
I5422672
aI5490234
aS'+'
asS'LOC100507387'
p1486
(lp1487
I176119548
aI176125165
aS'+'
asS'SEPT8'
p1488
(lp1489
I132750816
aI132777375
aS'-'
asS'MATR3'
p1490
(lp1491
I139273751
aI139331677
aS'+'
asS'MIR1244-2'
p1492
(lp1493
I118974585
aI118974667
aS'+'
asS'FAM13B'
p1494
(lp1495
I137937915
aI138033113
aS'-'
asS'SMIM23'
p1496
(lp1497
I171785871
aI171791088
aS'+'
asS'RICTOR'
p1498
(lp1499
I38937920
aI39074408
aS'-'
asS'MIR3141'
p1500
(lp1501
I154596011
aI154596072
aS'-'
asS'XRCC4'
p1502
(lp1503
I83077408
aI83353760
aS'+'
asS'CTXN3'
p1504
(lp1505
I127649020
aI127658630
aS'+'
asS'C1QTNF3-AMACR'
p1506
(lp1507
I33986985
aI34124528
aS'-'
asS'LOC285626'
p1508
(lp1509
I159331517
aI159362834
aS'+'
asS'LINC02229'
p1510
(lp1511
I66507544
aI66511604
aS'-'
asS'LINC02228'
p1512
(lp1513
I25126304
aI25190656
aS'-'
asS'ECSCR'
p1514
(lp1515
I139448553
aI139462743
aS'-'
asS'SMA5'
p1516
(lp1517
I70481042
aI70585722
aS'-'
asS'SMA4'
p1518
(lp1519
I70138861
aI70290177
aS'-'
asS'LINC02223'
p1520
(lp1521
I17807273
aI17930489
aS'+'
asS'PCDHB2'
p1522
(lp1523
I141094606
aI141097381
aS'+'
asS'LINC02221'
p1524
(lp1525
I9854376
aI9857609
aS'+'
asS'LINC02220'
p1526
(lp1527
I12877471
aI13032886
aS'-'
asS'LINC02227'
p1528
(lp1529
I158320700
aI158409773
aS'-'
asS'LINC02226'
p1530
(lp1531
I8333482
aI8457564
aS'-'
asS'PPARGC1B'
p1532
(lp1533
I149730251
aI149855022
aS'+'
asS'LINC02224'
p1534
(lp1535
I44495144
aI44510282
aS'-'
asS'RNF130'
p1536
(lp1537
I179955066
aI180072118
aS'-'
asS'SLCO4C1'
p1538
(lp1539
I102233985
aI102296284
aS'-'
asS'PCDHAC1'
p1540
(lp1541
I140926716
aI141012344
aS'+'
asS'LINC01932'
p1542
(lp1543
I159227714
aI159245127
aS'+'
asS'TXNDC15'
p1544
(lp1545
I134873769
aI134901633
aS'+'
asS'DRD1'
p1546
(lp1547
I175440037
aI175444218
aS'-'
asS'LOC100303749'
p1548
(lp1549
I65944804
aI65945573
aS'-'
asS'LOC644936'
p1550
(lp1551
I80299095
aI80300478
aS'-'
asS'LINC02109'
p1552
(lp1553
I29143502
aI29172976
aS'+'
asS'CARD6'
p1554
(lp1555
I40841307
aI40855354
aS'+'
asS'B4GALT7'
p1556
(lp1557
I177600117
aI177610345
aS'+'
asS'UBLCP1'
p1558
(lp1559
I159263289
aI159286034
aS'+'
asS'ARHGEF37'
p1560
(lp1561
I149581571
aI149634964
aS'+'
asS'MAP1B'
p1562
(lp1563
I72107267
aI72209570
aS'+'
asS'MIER3'
p1564
(lp1565
I56919601
aI56952130
aS'-'
asS'PARP8'
p1566
(lp1567
I50665898
aI50846522
aS'+'
asS'CCNJL'
p1568
(lp1569
I160251651
aI160339592
aS'-'
asS'ESM1'
p1570
(lp1571
I54977866
aI54985586
aS'-'
asS'UNC5A'
p1572
(lp1573
I176810558
aI176880898
aS'+'
asS'CTD-2297D10.2'
p1574
(lp1575
I5132084
aI5140054
aS'-'
asS'CTC-338M12.4'
p1576
(lp1577
I181246540
aI181257586
aS'+'
asS'MAN2A1'
p1578
(lp1579
I109689365
aI109869625
aS'+'
asS'ATG10'
p1580
(lp1581
I81972024
aI82255396
aS'+'
asS'BTNL8'
p1582
(lp1583
I180899076
aI180950906
aS'+'
asS'PCDHGA8'
p1584
(lp1585
I141391915
aI141512979
aS'+'
asS'PCDHGA9'
p1586
(lp1587
I141402952
aI141512979
aS'+'
asS'PDGFRB'
p1588
(lp1589
I150113838
aI150155859
aS'-'
asS'MIR6830'
p1590
(lp1591
I132217848
aI132217918
aS'-'
asS'PCDHA10'
p1592
(lp1593
I140855882
aI141012344
aS'+'
asS'SDHAP3'
p1594
(lp1595
I1571957
aI1594531
aS'-'
asS'PCDHA12'
p1596
(lp1597
I140875301
aI141012344
aS'+'
asS'PCDHA13'
p1598
(lp1599
I140882268
aI141012344
aS'+'
asS'PCDHGA6'
p1600
(lp1601
I141374083
aI141512979
aS'+'
asS'PCDHGA7'
p1602
(lp1603
I141382738
aI141512979
aS'+'
asS'PCDHGA4'
p1604
(lp1605
I141355024
aI141512979
aS'+'
asS'PCDHGA5'
p1606
(lp1607
I141364330
aI141512979
aS'+'
asS'LINC01338'
p1608
(lp1609
I82850864
aI82859836
aS'-'
asS'LINC01339'
p1610
(lp1611
I90158338
aI90290071
aS'-'
asS'LMNB1'
p1612
(lp1613
I126776622
aI126837020
aS'+'
asS'FBXW11'
p1614
(lp1615
I171861551
aI172006873
aS'-'
asS'PSD2'
p1616
(lp1617
I139795820
aI139844466
aS'+'
asS'ATOX1'
p1618
(lp1619
I151742821
aI151758649
aS'-'
asS'BTF3'
p1620
(lp1621
I73498424
aI73505623
aS'+'
asS'ERBIN'
p1622
(lp1623
I65926553
aI66081023
aS'+'
asS'CDHR2'
p1624
(lp1625
I176542510
aI176595768
aS'+'
asS'LINC01333'
p1626
(lp1627
I74322485
aI74328357
aS'+'
asS'PTCD2'
p1628
(lp1629
I72320366
aI72359353
aS'+'
asS'LINC01335'
p1630
(lp1631
I74306409
aI74308325
aS'-'
asS'LINC01337'
p1632
(lp1633
I80608620
aI80622524
aS'-'
asS'CARMN'
p1634
(lp1635
I149406844
aI149432836
aS'+'
asS'MZB1'
p1636
(lp1637
I139387567
aI139389916
aS'-'
asS'EIF4EBP3'
p1638
(lp1639
I140547665
aI140549578
aS'+'
asS'UBE2B'
p1640
(lp1641
I134371175
aI134392108
aS'+'
asS'CRSP8P'
p1642
(lp1643
I80350604
aI80351966
aS'-'
asS'KIF20A'
p1644
(lp1645
I138178727
aI138187715
aS'+'
asS'SMN1'
p1646
(lp1647
I70924940
aI70953011
aS'+'
asS'WWC1'
p1648
(lp1649
I168292059
aI168472303
aS'+'
asS'ZDHHC11'
p1650
(lp1651
I795604
aI850986
aS'-'
asS'SMN2'
p1652
(lp1653
I70924940
aI70953015
aS'+'
asS'ATP6AP1L'
p1654
(lp1655
I82278649
aI82319932
aS'+'
asS'SMIM15'
p1656
(lp1657
I61157708
aI61162475
aS'-'
asS'LINC01942'
p1658
(lp1659
I173689458
aI173705849
aS'+'
asS'ADAMTS19-AS1'
p1660
(lp1661
I129459558
aI129460689
aS'-'
asS'MSX2'
p1662
(lp1663
I174724571
aI174730899
aS'+'
asS'PCDHGA2'
p1664
(lp1665
I141338759
aI141512973
aS'+'
asS'ADAMTS12'
p1666
(lp1667
I33523534
aI33892192
aS'-'
asS'LINC02120'
p1668
(lp1669
I32947442
aI32962467
aS'+'
asS'CTNND2'
p1670
(lp1671
I10971840
aI11904043
aS'-'
asS'ADAMTS16'
p1672
(lp1673
I5140329
aI5320302
aS'+'
asS'ADAMTS19'
p1674
(lp1675
I129460264
aI129738683
aS'+'
asS'VDAC1'
p1676
(lp1677
I133971870
aI134004975
aS'-'
asS'MIR4456'
p1678
(lp1679
I535839
aI535882
aS'-'
asS'HARS'
p1680
(lp1681
I140673903
aI140691727
aS'-'
asS'BTNL3'
p1682
(lp1683
I180988844
aI181006727
aS'+'
asS'OXCT1-AS1'
p1684
(lp1685
I41870029
aI41872236
aS'+'
asS'GMCL2'
p1686
(lp1687
I178184502
aI178187432
aS'-'
asS'LOC100652758'
p1688
(lp1689
I151769792
aI151772176
aS'-'
asS'PCDHGA1'
p1690
(lp1691
I141330684
aI141512979
aS'+'
asS'BHMT'
p1692
(lp1693
I79111780
aI79132290
aS'+'
asS'PART1'
p1694
(lp1695
I60487712
aI60547657
aS'+'
asS'LOC100996385'
p1696
(lp1697
I176049677
aI176062055
aS'-'
asS'DOK3'
p1698
(lp1699
I177501904
aI177510426
aS'-'
asS'RARS'
p1700
(lp1701
I168486457
aI168519304
aS'+'
asS'SNX18'
p1702
(lp1703
I54517758
aI54546586
aS'+'
asS'CAST'
p1704
(lp1705
I96662036
aI96774681
aS'+'
asS'C9'
p1706
(lp1707
I39284144
aI39364560
aS'-'
asS'SLC6A18'
p1708
(lp1709
I1225354
aI1246189
aS'+'
asS'LINC02105'
p1710
(lp1711
I53776050
aI53819682
aS'-'
asS'RACK1'
p1712
(lp1713
I181236927
aI181243906
aS'-'
asS'MARCOL'
p1714
(lp1715
I148238353
aI148243576
aS'+'
asS'MIR146A'
p1716
(lp1717
I160485351
aI160485450
aS'+'
asS'CCDC152'
p1718
(lp1719
I42756817
aI42802439
aS'+'
asS'C7'
p1720
(lp1721
I40909251
aI40984640
aS'+'
asS'C6'
p1722
(lp1723
I41142145
aI41261438
aS'-'
asS'NMUR2'
p1724
(lp1725
I152391540
aI152405279
aS'-'
asS'LOC105379152'
p1726
(lp1727
I123086230
aI123090316
aS'-'
asS'HMGCS1'
p1728
(lp1729
I43287469
aI43313512
aS'-'
asS'DHFR'
p1730
(lp1731
I80626225
aI80654981
aS'-'
asS'LOC441087'
p1732
(lp1733
I75717431
aI75730970
aS'+'
asS'COL4A3BP'
p1734
(lp1735
I75371102
aI75511981
aS'-'
asS'RPS23'
p1736
(lp1737
I82273319
aI82278416
aS'-'
asS'ZBED8'
p1738
(lp1739
I160393147
aI160400097
aS'-'
asS'HARS2'
p1740
(lp1741
I140691425
aI140699321
aS'+'
asS'EFNA5'
p1742
(lp1743
I107376893
aI107670937
aS'-'
asS'PWWP2A'
p1744
(lp1745
I160075877
aI160119445
aS'-'
asS'HMMR'
p1746
(lp1747
I163460510
aI163491946
aS'+'
asS'FOXD1'
p1748
(lp1749
I73446255
aI73448527
aS'-'
asS'PPP2R2B-IT1'
p1750
(lp1751
I146914206
aI146919506
aS'-'
asS'CDK7'
p1752
(lp1753
I69234794
aI69277430
aS'+'
asS'MAST4'
p1754
(lp1755
I66596347
aI67169595
aS'+'
asS'ALDH7A1'
p1756
(lp1757
I126541840
aI126595390
aS'-'
asS'OCLN'
p1758
(lp1759
I69492291
aI69558104
aS'+'
asS'MIR582'
p1760
(lp1761
I59703605
aI59703703
aS'-'
asS'GABRB2'
p1762
(lp1763
I161288428
aI161548124
aS'-'
asS'MIR580'
p1764
(lp1765
I36147891
aI36147988
aS'-'
asS'MIR585'
p1766
(lp1767
I169263600
aI169263694
aS'-'
asS'LOC100506548'
p1768
(lp1769
I40825262
aI40829142
aS'-'
asS'LINC02150'
p1770
(lp1771
I16373360
aI16441102
aS'-'
asS'C5orf47'
p1772
(lp1773
I173989158
aI174006140
aS'+'
asS'C5orf38'
p1774
(lp1775
I2751892
aI2758578
aS'+'
asS'ISOC1'
p1776
(lp1777
I129094748
aI129114026
aS'+'
asS'C5orf64-AS1'
p1778
(lp1779
I61732789
aI61735698
aS'-'
asS'C5orf34'
p1780
(lp1781
I43486700
aI43515171
aS'-'
asS'IL13'
p1782
(lp1783
I132656523
aI132661109
aS'+'
asS'SCAMP1-AS1'
p1784
(lp1785
I78358763
aI78360541
aS'-'
asS'BASP1-AS1'
p1786
(lp1787
I17130027
aI17217422
aS'-'
asS'SMIM32'
p1788
(lp1789
I136191467
aI136193163
aS'-'
asS'BNIP1'
p1790
(lp1791
I173144441
aI173164387
aS'+'
asS'IL5'
p1792
(lp1793
I132541443
aI132543522
aS'-'
asS'LOC102467217'
p1794
(lp1795
I115642124
aI115672652
aS'-'
asS'LOC102467216'
p1796
(lp1797
I112656427
aI112682888
aS'-'
asS'LINC01331'
p1798
(lp1799
I74369375
aI74536976
aS'-'
asS'ZNF354B'
p1800
(lp1801
I178859952
aI178884423
aS'+'
asS'LSP1P3'
p1802
(lp1803
I28926869
aI28927313
aS'+'
asS'PDE4D'
p1804
(lp1805
I58969040
aI60496286
aS'-'
asS'COX7C'
p1806
(lp1807
I86617966
aI86620766
aS'+'
asS'SNORD141A'
p1808
(lp1809
I14652277
aI14652382
aS'-'
asS'MYO10'
p1810
(lp1811
I16661906
aI16936276
aS'-'
asS'CDH10'
p1812
(lp1813
I24487099
aI24644978
aS'-'
asS'CDH12'
p1814
(lp1815
I21750865
aI22853622
aS'-'
asS'CYFIP2'
p1816
(lp1817
I157266079
aI157395598
aS'+'
asS'MIR4281'
p1818
(lp1819
I176629438
aI176629500
aS'-'
asS'CDH18'
p1820
(lp1821
I19471295
aI20575873
aS'-'
asS'CMYA5'
p1822
(lp1823
I79689835
aI79800226
aS'+'
asS'TSLP'
p1824
(lp1825
I111070079
aI111078024
aS'+'
asS'MRNIP'
p1826
(lp1827
I179837265
aI179858840
aS'-'
asS'SPATA24'
p1828
(lp1829
I139396766
aI139404087
aS'-'
asS'GUSBP1'
p1830
(lp1831
I21459479
aI21589372
aS'+'
asS'GUSBP3'
p1832
(lp1833
I70219188
aI70585802
aS'-'
asS'LINC02064'
p1834
(lp1835
I29380088
aI29395976
aS'-'
asS'SEMA5A-AS1'
p1836
(lp1837
I9511332
aI9518086
aS'+'
asS'LOX'
p1838
(lp1839
I122063194
aI122078501
aS'-'
asS'CAMLG'
p1840
(lp1841
I134738479
aI134752160
aS'+'
asS'GUSBP9'
p1842
(lp1843
I70516251
aI70555323
aS'-'
asS'GDNF-AS1'
p1844
(lp1845
I37839883
aI37875798
aS'+'
asS'AP3B1'
p1846
(lp1847
I78002325
aI78294755
aS'-'
asS'GCNT4'
p1848
(lp1849
I75025346
aI75052558
aS'-'
asS'GDF9'
p1850
(lp1851
I132861180
aI132866884
aS'-'
asS'CTB-178M22.2'
p1852
(lp1853
I168229582
aI168232372
aS'-'
asS'LOC731157'
p1854
(lp1855
I90409999
aI90410669
aS'+'
asS'LOC100289230'
p1856
(lp1857
I98929133
aI98931009
aS'+'
asS'LINC01470'
p1858
(lp1859
I152618964
aI152972349
aS'-'
asS'NBPF22P'
p1860
(lp1861
I86282443
aI86297547
aS'+'
asS'ARHGAP26-AS1'
p1862
(lp1863
I142859604
aI142868910
aS'-'
asS'PCDHGA10'
p1864
(lp1865
I141413175
aI141512979
aS'+'
asS'PCDHGA11'
p1866
(lp1867
I141420969
aI141512979
aS'+'
asS'PCDHGA12'
p1868
(lp1869
I141430506
aI141512973
aS'+'
asS'CATSPER3'
p1870
(lp1871
I134967905
aI135011707
aS'+'
asS'NIPBL'
p1872
(lp1873
I36876758
aI37065819
aS'+'
asS'PDE6A'
p1874
(lp1875
I149857955
aI149944793
aS'-'
asS'CXXC5-AS1'
p1876
(lp1877
I139648998
aI139649728
aS'-'
asS'UIMC1'
p1878
(lp1879
I176905004
aI177006794
aS'-'
asS'SPINK9'
p1880
(lp1881
I148335558
aI148339849
aS'+'
asS'LPCAT1'
p1882
(lp1883
I1461426
aI1523960
aS'-'
asS'SPINK7'
p1884
(lp1885
I148312422
aI148315918
aS'+'
asS'SPINK6'
p1886
(lp1887
I148202793
aI148215137
aS'+'
asS'SPINK5'
p1888
(lp1889
I148063971
aI148137362
aS'+'
asS'NRG2'
p1890
(lp1891
I139846778
aI140043299
aS'-'
asS'HSPA9'
p1892
(lp1893
I138554881
aI138575629
aS'-'
asS'DCP2'
p1894
(lp1895
I112976709
aI113022195
aS'+'
asS'CTD-3080P12.3'
p1896
(lp1897
I1173095
aI1178605
aS'-'
asS'MIR548P'
p1898
(lp1899
I100816481
aI100816565
aS'-'
asS'HSPB3'
p1900
(lp1901
I54455698
aI54456377
aS'+'
asS'ANXA6'
p1902
(lp1903
I151100705
aI151157882
aS'-'
asS'ZNF454'
p1904
(lp1905
I178941190
aI178966433
aS'+'
asS'MCCC2'
p1906
(lp1907
I71587287
aI71658703
aS'+'
asS'IK'
p1908
(lp1909
I140647798
aI140662480
aS'+'
asS'MCIDAS'
p1910
(lp1911
I55219596
aI55227315
aS'-'
asS'SNORA50D'
p1912
(lp1913
I69160807
aI69160939
aS'+'
asS'GPX8'
p1914
(lp1915
I55160117
aI55167301
aS'+'
asS'ARAP3'
p1916
(lp1917
I141653400
aI141682233
aS'-'
asS'FAM53C'
p1918
(lp1919
I138337534
aI138349729
aS'+'
asS'SLU7'
p1920
(lp1921
I160401640
aI160419161
aS'-'
asS'LINC01366'
p1922
(lp1923
I170331392
aI170335100
aS'+'
asS'PCDHA2'
p1924
(lp1925
I140794858
aI141012344
aS'+'
asS'PCDHA3'
p1926
(lp1927
I140801197
aI141012344
aS'+'
asS'PCDHA1'
p1928
(lp1929
I140786135
aI141012344
aS'+'
asS'PCDHA6'
p1930
(lp1931
I140827921
aI141012344
aS'+'
asS'PCDHA7'
p1932
(lp1933
I140834383
aI141012344
aS'+'
asS'PCDHA4'
p1934
(lp1935
I140807073
aI141012344
aS'+'
asS'PCDHA5'
p1936
(lp1937
I140821775
aI141012344
aS'+'
asS'HAPLN1'
p1938
(lp1939
I83638197
aI83721077
aS'-'
asS'PCDHA8'
p1940
(lp1941
I140841186
aI141012346
aS'+'
asS'PCDHA9'
p1942
(lp1943
I140847771
aI141012344
aS'+'
asS'HTR4'
p1944
(lp1945
I148451031
aI148637061
aS'-'
asS'ANKRA2'
p1946
(lp1947
I73552190
aI73565639
aS'-'
asS'COMMD10'
p1948
(lp1949
I116084975
aI116293290
aS'+'
asS'TPPP'
p1950
(lp1951
I659861
aI693395
aS'-'
asS'PURA'
p1952
(lp1953
I140114122
aI140119416
aS'+'
asS'LINC02057'
p1954
(lp1955
I61250560
aI61264929
aS'-'
asS'NDUFS4'
p1956
(lp1957
I53560632
aI53683341
aS'+'
asS'NDUFS6'
p1958
(lp1959
I1801381
aI1816051
aS'+'
asS'MIR3142'
p1960
(lp1961
I160474401
aI160474483
aS'+'
asS'LNPEP'
p1962
(lp1963
I96936079
aI97037512
aS'+'
asS'TMEM167A'
p1964
(lp1965
I83052845
aI83077453
aS'-'
asS'CTD-2270F17.1'
p1966
(lp1967
I170389492
aI170422844
aS'+'
asS'LTC4S'
p1968
(lp1969
I179793984
aI179796512
aS'+'
asS'LINC01020'
p1970
(lp1971
I5034358
aI5070002
aS'+'
asS'MAST4-AS1'
p1972
(lp1973
I67001617
aI67004154
aS'-'
asS'KCNN2'
p1974
(lp1975
I114362318
aI114496500
aS'+'
asS'LOC101928093'
p1976
(lp1977
I172755502
aI172762562
aS'+'
asS'PCDHB17P'
p1978
(lp1979
I141155998
aI141158409
aS'+'
asS'POC5'
p1980
(lp1981
I75674198
aI75717488
aS'-'
asS'MRPS30'
p1982
(lp1983
I44808924
aI44815516
aS'+'
asS'RNF44'
p1984
(lp1985
I176526698
aI176537420
aS'-'
asS'UBE2QL1'
p1986
(lp1987
I6448622
aI6496721
aS'+'
asS'CDX1'
p1988
(lp1989
I150166780
aI150184558
aS'+'
asS'MIR887'
p1990
(lp1991
I15935181
aI15935260
aS'+'
asS'SNORA74A'
p1992
(lp1993
I139278779
aI139278979
aS'+'
asS'PLK2'
p1994
(lp1995
I58453982
aI58460139
aS'-'
asS'ZBED3-AS1'
p1996
(lp1997
I77086797
aI77148351
aS'+'
asS'MIR4635'
p1998
(lp1999
I1062895
aI1062974
aS'-'
asS'PCDHGB3'
p2000
(lp2001
I141370263
aI141512979
aS'+'
asS'PCDHGB2'
p2002
(lp2003
I141360135
aI141512979
aS'+'
asS'PCDHGB1'
p2004
(lp2005
I141350260
aI141512979
aS'+'
asS'LYRM7'
p2006
(lp2007
I131170913
aI131205426
aS'+'
asS'DMGDH'
p2008
(lp2009
I78997563
aI79069674
aS'-'
asS'PCDHGB5'
p2010
(lp2011
I141398127
aI141512979
aS'+'
asS'PCDHGB4'
p2012
(lp2013
I141387884
aI141512979
aS'+'
asS'ZNF300P1'
p2014
(lp2015
I150930435
aI150946584
aS'-'
asS'HDAC3'
p2016
(lp2017
I141620875
aI141636856
aS'-'
asS'MIR4637'
p2018
(lp2019
I14825928
aI14826012
aS'-'
asS'TRIM41'
p2020
(lp2021
I181223262
aI181235808
aS'+'
asS'CANX'
p2022
(lp2023
I179698426
aI179731638
aS'+'
asS'TMEM161B-AS1'
p2024
(lp2025
I88268881
aI88436674
aS'+'
asS'MIR4458'
p2026
(lp2027
I8460924
aI8460999
aS'+'
asS'LOC101928445'
p2028
(lp2029
I179595903
aI179603741
aS'-'
asS'CDC23'
p2030
(lp2031
I138187647
aI138213343
aS'-'
asS'SH3TC2-DT'
p2032
(lp2033
I149063316
aI149109787
aS'+'
asS'GRK6'
p2034
(lp2035
I177426675
aI177442891
aS'+'
asS'CEP120'
p2036
(lp2037
I123344884
aI123423592
aS'-'
asS'FSTL4'
p2038
(lp2039
I133196459
aI133612532
aS'-'
asS'MIR4454'
p2040
(lp2041
I7269302
aI7269354
aS'-'
asS'SMAD5'
p2042
(lp2043
I136132844
aI136182734
aS'+'
asS'ZFP2'
p2044
(lp2045
I178895893
aI178933211
aS'+'
asS'MIR4457'
p2046
(lp2047
I1309309
aI1309377
aS'-'
asS'SLC34A1'
p2048
(lp2049
I177384430
aI177398848
aS'+'
asS'KIAA0825'
p2050
(lp2051
I94150850
aI94618604
aS'-'
asS'LOC153684'
p2052
(lp2053
I43042133
aI43045268
aS'+'
asS'ARHGAP26'
p2054
(lp2055
I142770376
aI143229011
aS'+'
asS'BDP1'
p2056
(lp2057
I71455614
aI71567822
aS'+'
asS'HMHB1'
p2058
(lp2059
I143812160
aI143820719
aS'+'
asS'PPIC'
p2060
(lp2061
I123023382
aI123036730
aS'-'
asS'NNT'
p2062
(lp2063
I43602688
aI43705566
aS'+'
asS'MIR583'
p2064
(lp2065
I96079137
aI96079212
aS'+'
asS'SCAMP1'
p2066
(lp2067
I78360502
aI78480739
aS'+'
asS'HK3'
p2068
(lp2069
I176880868
aI176899332
aS'-'
asS'LOC100268168'
p2070
(lp2071
I172954782
aI172959368
aS'-'
asS'PCDHB6'
p2072
(lp2073
I141150021
aI141153287
aS'+'
asS'GRXCR2'
p2074
(lp2075
I145859732
aI145872968
aS'-'
asS'ZNF366'
p2076
(lp2077
I72439898
aI72507422
aS'-'
asS'LINC01950'
p2078
(lp2079
I106815196
aI107011014
aS'-'
asS'CSNK1G3'
p2080
(lp2081
I123512098
aI123617044
aS'+'
asS'LINC02056'
p2082
(lp2083
I72574074
aI72660669
aS'-'
asS'LOC101929645'
p2084
(lp2085
I29065243
aI29073223
aS'+'
asS'LINC02119'
p2086
(lp2087
I38148479
aI38153715
aS'+'
asS'LINC02118'
p2088
(lp2089
I52008030
aI52043909
aS'+'
asS'LINCADL'
p2090
(lp2091
I115956570
aI115958601
aS'+'
asS'ANKHD1-EIF4EBP3'
p2092
(lp2093
I140401813
aI140549578
aS'+'
asS'LINC02115'
p2094
(lp2095
I103528433
aI103541985
aS'-'
asS'LINC02114'
p2096
(lp2097
I4773480
aI4774865
aS'+'
asS'BTNL9'
p2098
(lp2099
I181040224
aI181061523
aS'+'
asS'LINC02116'
p2100
(lp2101
I1855969
aI1856568
aS'-'
asS'LINC02111'
p2102
(lp2103
I17378905
aI17387310
aS'-'
asS'LINC02110'
p2104
(lp2105
I37948490
aI37951054
aS'+'
asS'LINC02113'
p2106
(lp2107
I99533989
aI99577954
aS'+'
asS'LINC02112'
p2108
(lp2109
I9641314
aI9903824
aS'-'
asS'KCNMB1'
p2110
(lp2111
I170378160
aI170389677
aS'-'
asS'MIR5197'
p2112
(lp2113
I143679859
aI143679971
aS'+'
asS'WDR55'
p2114
(lp2115
I140664798
aI140670968
aS'+'
asS'LOC202181'
p2116
(lp2117
I177618499
aI177672277
aS'-'
asS'KCTD16'
p2118
(lp2119
I144170872
aI144477381
aS'+'
asS'PPP2CA'
p2120
(lp2121
I134196251
aI134226259
aS'-'
asS'TRIM23'
p2122
(lp2123
I65589679
aI65624360
aS'-'
asS'MEGF10'
p2124
(lp2125
I127290763
aI127461218
aS'+'
asS'H2AFY'
p2126
(lp2127
I135334380
aI135399887
aS'-'
asS'FBXL7'
p2128
(lp2129
I15500179
aI15939793
aS'+'
asS'FEM1C'
p2130
(lp2131
I115520910
aI115544894
aS'-'
asS'PPIP5K2'
p2132
(lp2133
I103120247
aI103204911
aS'+'
asS'FAT2'
p2134
(lp2135
I151504091
aI151568944
aS'-'
asS'LOC102467226'
p2136
(lp2137
I121322549
aI121325837
aS'+'
asS'LOC100996419'
p2138
(lp2139
I179859002
aI179861282
aS'+'
asS'LOC100132062'
p2140
(lp2141
I181323505
aI181328195
aS'+'
asS'NR2F1-AS1'
p2142
(lp2143
I93409355
aI93581320
aS'-'
asS'HIGD2A'
p2144
(lp2145
I176388525
aI176389771
aS'+'
asS'FBXO4'
p2146
(lp2147
I41925280
aI41941740
aS'+'
asS'LINCR-0003'
p2148
(lp2149
I57570341
aI57617427
aS'+'
asS'CCNO'
p2150
(lp2151
I55231152
aI55233717
aS'-'
asS'CCNH'
p2152
(lp2153
I87311473
aI87412930
aS'-'
asS'LINC02121'
p2154
(lp2155
I5069191
aI5078311
aS'-'
asS'MARCH11'
p2156
(lp2157
I16067305
aI16179788
aS'-'
asS'MIR5687'
p2158
(lp2159
I55508849
aI55508926
aS'-'
asS'PP7080'
p2160
(lp2161
I470509
aI472965
aS'-'
asS'AFAP1L1'
p2162
(lp2163
I149271837
aI149343635
aS'+'
asS'ANXA2R'
p2164
(lp2165
I43039079
aI43040345
aS'-'
asS'ANKRD55'
p2166
(lp2167
I56099679
aI56233359
aS'-'
asS'ACSL6'
p2168
(lp2169
I131949973
aI132012068
aS'-'
asS'EIF4E1B'
p2170
(lp2171
I176630681
aI176646641
aS'+'
asS'LINC02123'
p2172
(lp2173
I7346985
aI7347977
aS'-'
asS'CCDC69'
p2174
(lp2175
I151181051
aI151224092
aS'-'
asS'TRIM36'
p2176
(lp2177
I115124761
aI115180546
aS'-'
asS'MIR9-2'
p2178
(lp2179
I88666852
aI88666939
aS'-'
asS'LOC101927023'
p2180
(lp2181
I112228282
aI112257309
aS'+'
asS'LOC100130172'
p2182
(lp2183
I138032773
aI138038933
aS'+'
asS'FAXDC2'
p2184
(lp2185
I154818491
aI154850685
aS'-'
asS'CLTB'
p2186
(lp2187
I176392454
aI176416569
aS'-'
asS'TIFAB'
p2188
(lp2189
I135448867
aI135452399
aS'-'
asS'HTR1A'
p2190
(lp2191
I63960047
aI63962292
aS'-'
asS'C5orf66'
p2192
(lp2193
I135033279
aI135344680
aS'+'
asS'DDX4'
p2194
(lp2195
I55738016
aI55817146
aS'+'
asS'C5orf64'
p2196
(lp2197
I61637780
aI61730997
aS'+'
asS'JMY'
p2198
(lp2199
I79236101
aI79327215
aS'+'
asS'C5orf63'
p2200
(lp2201
I127042557
aI127073492
aS'-'
asS'C5orf60'
p2202
(lp2203
I179641543
aI179645046
aS'-'
asS'MIR143'
p2204
(lp2205
I149428917
aI149429023
aS'+'
asS'RGMB'
p2206
(lp2207
I98768631
aI98796494
aS'+'
asS'THBS4'
p2208
(lp2209
I79991295
aI80083284
aS'+'
asS'GOLPH3'
p2210
(lp2211
I32124717
aI32174319
aS'-'
asS'LINC01484'
p2212
(lp2213
I173707598
aI173746209
aS'-'
asS'MIR145'
p2214
(lp2215
I149430645
aI149430733
aS'+'
asS'SLC35A4'
p2216
(lp2217
I140564564
aI140569104
aS'+'
asS'TEX43'
p2218
(lp2219
I126631713
aI126636282
aS'+'
asS'P4HA2-AS1'
p2220
(lp2221
I132184875
aI132192805
aS'+'
asS'DND1'
p2222
(lp2223
I140670795
aI140673586
aS'-'
asS'DCTN4'
p2224
(lp2225
I150708746
aI150759095
aS'-'
asS'PIK3R1'
p2226
(lp2227
I68215755
aI68301821
aS'+'
asS'SRP19'
p2228
(lp2229
I112861187
aI112893079
aS'+'
asS'TRIM52'
p2230
(lp2231
I181255146
aI181261118
aS'-'
asS'LOC729080'
p2232
(lp2233
I141895625
aI141896695
aS'-'
asS'PCDHB5'
p2234
(lp2235
I141135205
aI141138127
aS'+'
asS'TMED9'
p2236
(lp2237
I177592147
aI177597242
aS'+'
asS'TTC1'
p2238
(lp2239
I160009099
aI160065545
aS'+'
asS'GFRA3'
p2240
(lp2241
I138252379
aI138274564
aS'-'
asS'CDC25C'
p2242
(lp2243
I138285264
aI138338355
aS'-'
asS'MIR6075'
p2244
(lp2245
I1510761
aI1510856
aS'-'
asS'GRPEL2-AS1'
p2246
(lp2247
I149348115
aI149357642
aS'-'
asS'MTRR'
p2248
(lp2249
I7869103
aI7901122
aS'+'
asS'SGTB'
p2250
(lp2251
I65665927
aI65722114
aS'-'
asS'LOC100506858'
p2252
(lp2253
I2303719
aI2312201
aS'-'
asS'CPLANE1'
p2254
(lp2255
I37106227
aI37249428
aS'-'
asS'SLC26A2'
p2256
(lp2257
I149960736
aI149987400
aS'+'
asS'FCHSD1'
p2258
(lp2259
I141639301
aI141651418
aS'-'
asS'PCDHB1'
p2260
(lp2261
I141051375
aI141053962
aS'+'
asS'LINC01386'
p2262
(lp2263
I73454189
aI73472966
aS'-'
asS'STC2'
p2264
(lp2265
I173314722
aI173329503
aS'-'
asS'FGF1'
p2266
(lp2267
I142592177
aI142698070
aS'-'
asS'KIF3A'
p2268
(lp2269
I132692626
aI132737578
aS'-'
asS'TAF7'
p2270
(lp2271
I141318489
aI141320784
aS'-'
asS'MALINC1'
p2272
(lp2273
I140102921
aI140108012
aS'-'
asS'LINC02062'
p2274
(lp2275
I98928561
aI99004021
aS'+'
asS'TNFAIP8'
p2276
(lp2277
I119268691
aI119394604
aS'+'
asS'SLC25A46'
p2278
(lp2279
I110738135
aI110765174
aS'+'
asS'LOC101929380'
p2280
(lp2281
I87120147
aI87248018
aS'+'
asS'SLC25A48'
p2282
(lp2283
I135579164
aI135888637
aS'+'
asS'REEP2'
p2284
(lp2285
I138439000
aI138446969
aS'+'
asS'LINC02236'
p2286
(lp2287
I6795879
aI6826728
aS'+'
asS'LINC02230'
p2288
(lp2289
I73337905
aI73338763
aS'+'
asS'INSYN2B'
p2290
(lp2291
I169861305
aI169980757
aS'-'
asS'ELOVL7'
p2292
(lp2293
I60751788
aI60844274
aS'-'
asS'POU4F3'
p2294
(lp2295
I146339023
aI146340520
aS'+'
asS'RBM22'
p2296
(lp2297
I150690789
aI150701107
aS'-'
asS'SPOCK1'
p2298
(lp2299
I136975297
aI137499329
aS'-'
asS'NUP155'
p2300
(lp2301
I37291632
aI37371126
aS'-'
asS'OCLNP1'
p2302
(lp2303
I71074202
aI71093070
aS'-'
asS'MGC32805'
p2304
(lp2305
I122436496
aI122479087
aS'-'
asS'GRPEL2'
p2306
(lp2307
I149345413
aI149354583
aS'+'
asS'HEIH'
p2308
(lp2309
I180829953
aI180831618
aS'-'
asS'SNX2'
p2310
(lp2311
I122774995
aI122834539
aS'+'
asS'NIPBL-DT'
p2312
(lp2313
I36871360
aI36876694
aS'-'
asS'SLC36A3'
p2314
(lp2315
I151276364
aI151303773
aS'-'
asS'LMAN2'
p2316
(lp2317
I177331561
aI177351884
aS'-'
asS'MIR103A1'
p2318
(lp2319
I168560895
aI168560973
aS'-'
asS'FLJ31104'
p2320
(lp2321
I55995166
aI56003647
aS'+'
asS'OR4F29'
p2322
(lp2323
I181367286
aI181368225
aS'+'
asS'TENM2'
p2324
(lp2325
I167284837
aI168264157
aS'+'
asS'MIR584'
p2326
(lp2327
I149062312
aI149062409
aS'-'
asS'ZDHHC11B'
p2328
(lp2329
I710354
aI784755
aS'-'
asS'HNRNPH1'
p2330
(lp2331
I179614179
aI179634784
aS'-'
asS'LMNB1-DT'
p2332
(lp2333
I126751962
aI126776486
aS'-'
asS'SPINK14'
p2334
(lp2335
I148168545
aI148175619
aS'+'
asS'SPINK13'
p2336
(lp2337
I148268859
aI148286210
aS'+'
asS'SNORD96A'
p2338
(lp2339
I181241817
aI181241889
aS'-'
asS'RFESD'
p2340
(lp2341
I95646776
aI95657145
aS'+'
asS'TMED7'
p2342
(lp2343
I115613207
aI115626179
aS'-'
asS'FNIP1'
p2344
(lp2345
I131641713
aI131797063
aS'-'
asS'TICAM2'
p2346
(lp2347
I115578495
aI115602479
aS'-'
asS'TNPO1'
p2348
(lp2349
I72816590
aI72914388
aS'+'
asS'PJA2'
p2350
(lp2351
I109334721
aI109409974
aS'-'
asS'HBEGF'
p2352
(lp2353
I140332842
aI140346603
aS'-'
asS'SHROOM1'
p2354
(lp2355
I132822140
aI132830898
aS'-'
asS'SGCD'
p2356
(lp2357
I156326756
aI156767787
aS'+'
asS'LINC01340'
p2358
(lp2359
I97504695
aI97671051
aS'+'
asS'ZNF622'
p2360
(lp2361
I16451518
aI16465785
aS'-'
asS'SMAD5-AS1'
p2362
(lp2363
I136129513
aI136134890
aS'-'
asS'SERINC5'
p2364
(lp2365
I80111226
aI80256082
aS'-'
asS'FGF18'
p2366
(lp2367
I171419646
aI171457626
aS'+'
asS'RMND5B'
p2368
(lp2369
I178130960
aI178148570
aS'+'
asS'LINC02241'
p2370
(lp2371
I20611839
aI20937693
aS'+'
asS'LINC02240'
p2372
(lp2373
I125493260
aI125602227
aS'+'
asS'SRD5A1'
p2374
(lp2375
I6633439
aI6674383
aS'+'
asS'LINC02242'
p2376
(lp2377
I67632265
aI67646789
aS'-'
asS'REEP5'
p2378
(lp2379
I112876384
aI112922227
aS'-'
asS'LINC01184'
p2380
(lp2381
I127940439
aI128083175
aS'-'
asS'PFDN1'
p2382
(lp2383
I140245049
aI140303104
aS'-'
asS'NKD2'
p2384
(lp2385
I1008961
aI1038812
aS'+'
asS'SREK1IP1'
p2386
(lp2387
I64718150
aI64768691
aS'-'
asS'PCDHB15'
p2388
(lp2389
I141245348
aI141248233
aS'+'
asS'NSA2'
p2390
(lp2391
I74766990
aI74776912
aS'+'
asS'OTULIN'
p2392
(lp2393
I14664644
aI14699850
aS'+'
asS'ARRDC3'
p2394
(lp2395
I91368631
aI91383373
aS'-'
asS'PCDHB14'
p2396
(lp2397
I141222325
aI141226288
aS'+'
asS'VCAN-AS1'
p2398
(lp2399
I83531351
aI83562314
aS'-'
asS'CRHBP'
p2400
(lp2401
I76952854
aI76969474
aS'+'
asS'ANKRD34B'
p2402
(lp2403
I80556754
aI80570280
aS'-'
asS'CLPTM1L'
p2404
(lp2405
I1317751
aI1345099
aS'-'
asS'FER'
p2406
(lp2407
I108747821
aI109196840
aS'+'
asS'PTTG1'
p2408
(lp2409
I160421854
aI160428739
aS'+'
asS'MIR6499'
p2410
(lp2411
I151522086
aI151522148
aS'-'
asS'MEIKIN'
p2412
(lp2413
I131806990
aI131945698
aS'-'
asS'ZMAT2'
p2414
(lp2415
I140700359
aI140706681
aS'+'
asS'LINC02059'
p2416
(lp2417
I86746817
aI86749772
aS'+'
asS'SIL1'
p2418
(lp2419
I138946720
aI139198376
aS'-'
asS'YTHDC2'
p2420
(lp2421
I113513661
aI113595287
aS'+'
asS'RASGRF2'
p2422
(lp2423
I80960688
aI81230162
aS'+'
asS'NDUFA2'
p2424
(lp2425
I140645362
aI140647785
aS'-'
asS'MIR378E'
p2426
(lp2427
I170028487
aI170028566
aS'+'
asS'SNORD13B-1'
p2428
(lp2429
I69539160
aI69539264
aS'-'
asS'RETREG1'
p2430
(lp2431
I16473037
aI16617058
aS'-'
asS'PAIP1'
p2432
(lp2433
I43526267
aI43557419
aS'-'
asS'MIR449C'
p2434
(lp2435
I55172261
aI55172353
aS'-'
asS'ARHGEF28'
p2436
(lp2437
I73626157
aI73941993
aS'+'
asS'UTP15'
p2438
(lp2439
I73565740
aI73583377
aS'+'
asS'OXCT1'
p2440
(lp2441
I41730064
aI41870689
aS'-'
asS'DCANP1'
p2442
(lp2443
I135444213
aI135447348
aS'-'
asS'RPL37'
p2444
(lp2445
I40831327
aI40835285
aS'-'
asS'PHYKPL'
p2446
(lp2447
I178208473
aI178232822
aS'-'
asS'ZNF131'
p2448
(lp2449
I43120842
aI43176324
aS'+'
asS'ANKRD33B'
p2450
(lp2451
I10564322
aI10657816
aS'+'
asS'TMEM232'
p2452
(lp2453
I110419495
aI110726671
aS'-'
asS'LRRC14B'
p2454
(lp2455
I191510
aI196334
aS'+'
asS'NSUN2'
p2456
(lp2457
I6599238
aI6633360
aS'-'
asS'ISL1'
p2458
(lp2459
I51383123
aI51394729
aS'+'
asS'TENT2'
p2460
(lp2461
I79612416
aI79688243
aS'+'
asS'RPS14'
p2462
(lp2463
I150444228
aI150449756
aS'-'
asS'LINC02103'
p2464
(lp2465
I28286388
aI28287665
aS'-'
asS'VCAN'
p2466
(lp2467
I83471673
aI83582303
aS'+'
asS'IL12B'
p2468
(lp2469
I159314782
aI159330473
aS'-'
asS'PRELID1'
p2470
(lp2471
I177303761
aI177306959
aS'+'
asS'SCGB3A1'
p2472
(lp2473
I180590104
aI180591487
aS'-'
asS'ZBED3'
p2474
(lp2475
I77076676
aI77087246
aS'-'
asS'ANKHD1'
p2476
(lp2477
I140401832
aI140539849
aS'+'
asS'LINC02065'
p2478
(lp2479
I66205122
aI66209446
aS'-'
asS'ADAM19'
p2480
(lp2481
I157477303
aI157575823
aS'-'
asS'LINC01962'
p2482
(lp2483
I181191045
aI181191908
aS'-'
asS'DHX29'
p2484
(lp2485
I55256054
aI55307722
aS'-'
asS'LINC02060'
p2486
(lp2487
I88408981
aI88439090
aS'-'
asS'LOC101929599'
p2488
(lp2489
I69631144
aI69636958
aS'+'
asS'GRAMD2B'
p2490
(lp2491
I126360095
aI126494161
aS'+'
asS'LINC02143'
p2492
(lp2493
I164448421
aI164467402
aS'-'
asS'LINC02146'
p2494
(lp2495
I20612624
aI20615535
aS'-'
asS'LINC02147'
p2496
(lp2497
I117730360
aI118266062
aS'+'
asS'LINC02145'
p2498
(lp2499
I6310440
aI6337292
aS'-'
asS'C5orf22'
p2500
(lp2501
I31532265
aI31555058
aS'+'
asS'CD14'
p2502
(lp2503
I140631727
aI140633701
aS'-'
asS'LINC02148'
p2504
(lp2505
I118282573
aI118284777
aS'+'
asS'LINC02149'
p2506
(lp2507
I15191645
aI15266560
aS'-'
asS'PLCXD3'
p2508
(lp2509
I41306945
aI41510628
aS'-'
asS'ANKDD1B'
p2510
(lp2511
I75611475
aI75671846
aS'+'
asS'C5orf24'
p2512
(lp2513
I134845679
aI134859735
aS'+'
asS'LSM11'
p2514
(lp2515
I157743694
aI157760709
aS'+'
asS'WNT8A'
p2516
(lp2517
I138083891
aI138092365
aS'+'
asS'OSMR'
p2518
(lp2519
I38845857
aI38935641
aS'+'
asS'DAP'
p2520
(lp2521
I10679229
aI10761275
aS'-'
asS'OTP'
p2522
(lp2523
I77628711
aI77638697
aS'-'
asS'SNORD63B'
p2524
(lp2525
I138558968
aI138559041
aS'-'
asS'ACOT12'
p2526
(lp2527
I81330127
aI81394169
aS'-'
asS'AACSP1'
p2528
(lp2529
I178764860
aI178818435
aS'-'
asS'LIFR-AS1'
p2530
(lp2531
I38556785
aI38671216
aS'+'
asS'LOC100506688'
p2532
(lp2533
I987176
aI997340
aS'-'
asS'CHD1'
p2534
(lp2535
I98855205
aI98929714
aS'-'
asS'NR3C1'
p2536
(lp2537
I143277930
aI143435512
aS'-'
asS'C5orf67'
p2538
(lp2539
I56511393
aI56606232
aS'-'
asS'GTF2H2'
p2540
(lp2541
I71035123
aI71067670
aS'-'
asS'C5orf66-AS1'
p2542
(lp2543
I135038830
aI135040047
aS'-'
asS'LOC101928505'
p2544
(lp2545
I57650659
aI57670989
aS'+'
asS'CARTPT'
p2546
(lp2547
I71719162
aI71721048
aS'+'
asS'RAD50'
p2548
(lp2549
I132556923
aI132644621
aS'+'
asS'RAB3C'
p2550
(lp2551
I58582187
aI58859396
aS'+'
asS'SNORD63'
p2552
(lp2553
I138561042
aI138561110
aS'-'
asS'LOC101927078'
p2554
(lp2555
I114447417
aI114773413
aS'-'
asS'HSPA4'
p2556
(lp2557
I133051969
aI133105017
aS'+'
asS'MIR5003'
p2558
(lp2559
I172662164
aI172662263
aS'+'
asS'SSBP2'
p2560
(lp2561
I81412806
aI81751253
aS'-'
asS'NPM1'
p2562
(lp2563
I171387115
aI171410884
aS'+'
asS'RASA1'
p2564
(lp2565
I87268252
aI87391926
aS'+'
asS'MIR548AE2'
p2566
(lp2567
I58530042
aI58530109
aS'-'
asS'RANBP3L'
p2568
(lp2569
I36246918
aI36301909
aS'-'
asS'RPL26L1'
p2570
(lp2571
I172958728
aI172969771
aS'+'
asS'LOC100128340'
p2572
(lp2573
I177939526
aI177959800
aS'+'
asS'OTULINL'
p2574
(lp2575
I14581781
aI14616178
aS'+'
asS'OR4F3'
p2576
(lp2577
I181367286
aI181368225
aS'+'
asS'UQCRQ'
p2578
(lp2579
I132866626
aI132868844
aS'+'
asS'C1QTNF3'
p2580
(lp2581
I34017857
aI34244724
aS'-'
asS'SAP30L-AS1'
p2582
(lp2583
I154389768
aI154445822
aS'-'
asS'PLAC8L1'
p2584
(lp2585
I146084312
aI146105565
aS'-'
asS'PCDHB7'
p2586
(lp2587
I141172620
aI141176376
aS'+'
asS'SPATA9'
p2588
(lp2589
I95658315
aI95731846
aS'-'
asS'G3BP1'
p2590
(lp2591
I151771914
aI151805354
aS'+'
asS'GDNF'
p2592
(lp2593
I37812676
aI37839680
aS'-'
asS'C5orf58'
p2594
(lp2595
I170232916
aI170252568
aS'+'
asS'SDHA'
p2596
(lp2597
I218222
aI257082
aS'+'
asS'C5orf56'
p2598
(lp2599
I132410772
aI132476044
aS'+'
asS'RGS7BP'
p2600
(lp2601
I64505946
aI64612294
aS'+'
asS'MRPS27'
p2602
(lp2603
I72219408
aI72320257
aS'-'
asS'DTWD2'
p2604
(lp2605
I118836073
aI118988547
aS'-'
asS'C5orf52'
p2606
(lp2607
I157671552
aI157680154
aS'+'
asS'C5orf51'
p2608
(lp2609
I41904343
aI41921636
aS'+'
as.