(dp1
S'HIST1H4C'
p2
(lp3
I26103947
aI26104337
aS'+'
asS'HIST1H4B'
p4
(lp5
I26026895
aI26027252
aS'-'
asS'HIST1H4A'
p6
(lp7
I26021678
aI26022050
aS'+'
asS'HIST1H4G'
p8
(lp9
I26246610
aI26246977
aS'-'
asS'HIST1H4F'
p10
(lp11
I26240425
aI26240793
aS'+'
asS'HIST1H4E'
p12
(lp13
I26204644
aI26205021
aS'+'
asS'HIST1H4D'
p14
(lp15
I26188709
aI26189076
aS'-'
asS'HIST1H4K'
p16
(lp17
I27831173
aI27831527
aS'-'
asS'HIST1H4J'
p18
(lp19
I27824124
aI27824480
aS'+'
asS'HIST1H4I'
p20
(lp21
I27139308
aI27139678
aS'+'
asS'HIST1H4H'
p22
(lp23
I26285125
aI26285499
aS'-'
asS'HIST1H4L'
p24
(lp25
I27873147
aI27873511
aS'-'
asS'KHDC3L'
p26
(lp27
I73362676
aI73364175
aS'+'
asS'SNORD141A'
p28
(lp29
I73518244
aI73518438
aS'-'
asS'LOC100130476'
p30
(lp31
I137823669
aI137868233
aS'-'
asS'SNORD141B'
p32
(lp33
I73518244
aI73518438
aS'-'
asS'HMGCLL1'
p34
(lp35
I55434372
aI55579214
aS'-'
asS'MEI4'
p36
(lp37
I77650273
aI77927042
aS'+'
asS'TSPO2'
p38
(lp39
I41042497
aI41044337
aS'+'
asS'FOXQ1'
p40
(lp41
I1312439
aI1314758
aS'+'
asS'NELFE'
p42
(lp43
I31952086
aI31959087
aS'-'
asS'BAK1'
p44
(lp45
I33572545
aI33580293
aS'-'
asS'C2-AS1'
p46
(lp47
I31934473
aI31941724
aS'-'
asS'MICA-AS1'
p48
(lp49
I31394288
aI31400470
aS'-'
asS'MAK'
p50
(lp51
I10762722
aI10838555
aS'-'
asS'PNISR'
p52
(lp53
I99398050
aI99425345
aS'-'
asS'GTF3C6'
p54
(lp55
I110958705
aI110967872
aS'+'
asS'ZNF451'
p56
(lp57
I57090029
aI57170300
aS'+'
asS'XPO5'
p58
(lp59
I43522329
aI43576075
aS'-'
asS'BACH2'
p60
(lp61
I89926527
aI90296908
aS'-'
asS'PSMG4'
p62
(lp63
I3258927
aI3268066
aS'+'
asS'GMDS'
p64
(lp65
I1623799
aI2245634
aS'-'
asS'SOBP'
p66
(lp67
I107490112
aI107661309
aS'+'
asS'CTAGE9'
p68
(lp69
I131708440
aI131711017
aS'-'
asS'LIN28B'
p70
(lp71
I104957047
aI105083332
aS'+'
asS'COL21A1'
p72
(lp73
I56056589
aI56394128
aS'-'
asS'RPS6KA2'
p74
(lp75
I166409363
aI166862551
aS'-'
asS'SFT2D1'
p76
(lp77
I166319727
aI166342606
aS'-'
asS'PREP'
p78
(lp79
I105277566
aI105403124
aS'-'
asS'TIAM2'
p80
(lp81
I155090288
aI155257723
aS'+'
asS'FOXC1'
p82
(lp83
I1609914
aI1613894
aS'+'
asS'ZNF292'
p84
(lp85
I87155548
aI87265943
aS'+'
asS'SESN1'
p86
(lp87
I108986436
aI109094505
aS'-'
asS'TRERF1'
p88
(lp89
I42224932
aI42452051
aS'-'
asS'NDUFAF4'
p90
(lp91
I96889314
aI96897891
aS'-'
asS'OR2H2'
p92
(lp93
I29587905
aI29588968
aS'+'
asS'IGF2R'
p94
(lp95
I159969098
aI160111502
aS'+'
asS'LINC01108'
p96
(lp97
I14280126
aI14285454
aS'-'
asS'AIG1'
p98
(lp99
I143060888
aI143343883
aS'+'
asS'MYLK4'
p100
(lp101
I2663628
aI2770330
aS'-'
asS'GLP1R'
p102
(lp103
I39048780
aI39091303
aS'+'
asS'ZSCAN12P1'
p104
(lp105
I28090806
aI28095715
aS'+'
asS'NOL7'
p106
(lp107
I13615326
aI13632470
aS'+'
asS'SRPK1'
p108
(lp109
I35833033
aI35921180
aS'-'
asS'OLIG3'
p110
(lp111
I137492198
aI137494394
aS'-'
asS'SELENOKP3'
p112
(lp113
I118782707
aI118783418
aS'+'
asS'MIR3934'
p114
(lp115
I33698127
aI33698234
aS'+'
asS'METTL24'
p116
(lp117
I110243894
aI110358272
aS'-'
asS'CDC40'
p118
(lp119
I110180420
aI110232219
aS'+'
asS'MIR3939'
p120
(lp121
I166997806
aI166997912
aS'-'
asS'EEF1A1'
p122
(lp123
I73515749
aI73521032
aS'-'
asS'TUBB'
p124
(lp125
I30720200
aI30725426
aS'+'
asS'MOXD1'
p126
(lp127
I132296054
aI132401534
aS'-'
asS'LOC100289495'
p128
(lp129
I166342630
aI166351469
aS'+'
asS'LINC00271'
p130
(lp131
I135497800
aI135716055
aS'+'
asS'MIR219A1'
p132
(lp133
I33207834
aI33207944
aS'+'
asS'ERMARD'
p134
(lp135
I169751621
aI169781584
aS'+'
asS'FGFR1OP'
p136
(lp137
I166999316
aI167042418
aS'+'
asS'SASH1'
p138
(lp139
I148272275
aI148552050
aS'+'
asS'RAB23'
p140
(lp141
I57186993
aI57222314
aS'-'
asS'CFB'
p142
(lp143
I31945943
aI31952084
aS'+'
asS'HLA-DMB'
p144
(lp145
I32934628
aI32941070
aS'-'
asS'HLA-DMA'
p146
(lp147
I32948617
aI32953097
aS'-'
asS'TRIM10'
p148
(lp149
I30151945
aI30160934
aS'-'
asS'TRIM15'
p150
(lp151
I30163205
aI30172696
aS'+'
asS'RAB44'
p152
(lp153
I36697850
aI36733183
aS'+'
asS'SYTL3'
p154
(lp155
I158650013
aI158764876
aS'+'
asS'NQO2'
p156
(lp157
I2999815
aI3019876
aS'+'
asS'BTN2A3P'
p158
(lp159
I26421390
aI26430588
aS'+'
asS'LOC101927048'
p160
(lp161
I49815492
aI49824766
aS'-'
asS'LOC105378137'
p162
(lp163
I168225280
aI168226517
aS'-'
asS'ADCY10P1'
p164
(lp165
I41101033
aI41140835
aS'+'
asS'PRL'
p166
(lp167
I22287243
aI22302853
aS'-'
asS'SERPINB9P1'
p168
(lp169
I2854656
aI2876510
aS'-'
asS'CNPY3'
p170
(lp171
I42928001
aI42939287
aS'+'
asS'LOC101927919'
p172
(lp173
I117672812
aI117675284
aS'-'
asS'SNORA98'
p174
(lp175
I144405654
aI144405767
aS'+'
asS'RFX6'
p176
(lp177
I116877212
aI116932163
aS'+'
asS'FOXP4'
p178
(lp179
I41546425
aI41602384
aS'+'
asS'CALHM4'
p180
(lp181
I116529012
aI116561123
aS'+'
asS'MIR6891'
p182
(lp183
I31355223
aI31355316
aS'-'
asS'SERINC1'
p184
(lp185
I122443350
aI122471807
aS'-'
asS'KHDRBS2'
p186
(lp187
I61542696
aI62286227
aS'-'
asS'STX11'
p188
(lp189
I144150516
aI144191939
aS'+'
asS'MDGA1'
p190
(lp191
I37632507
aI37697990
aS'-'
asS'LOC101928540'
p192
(lp193
I75383185
aI75458899
aS'+'
asS'DEFB114'
p194
(lp195
I49960291
aI49964105
aS'-'
asS'RN7SK'
p196
(lp197
I52995619
aI52995951
aS'+'
asS'DEFB113'
p198
(lp199
I49968676
aI49969625
aS'-'
asS'DEFB110'
p200
(lp201
I50009137
aI50021981
aS'-'
asS'TRAF3IP2'
p202
(lp203
I111555377
aI111606274
aS'-'
asS'LOC105377924'
p204
(lp205
I106451495
aI106457248
aS'-'
asS'FAM135A'
p206
(lp207
I70413403
aI70561174
aS'+'
asS'TSBP1'
p208
(lp209
I32292697
aI32371912
aS'-'
asS'BVES'
p210
(lp211
I105096823
aI105137174
aS'-'
asS'MDC1-AS1'
p212
(lp213
I30703066
aI30713184
aS'+'
asS'NUDT3'
p214
(lp215
I34287195
aI34392680
aS'-'
asS'LOC101929705'
p216
(lp217
I43995723
aI44074652
aS'-'
asS'GJA1'
p218
(lp219
I121435645
aI121449727
aS'+'
asS'BVES-AS1'
p220
(lp221
I105137686
aI105169944
aS'+'
asS'LOC101928491'
p222
(lp223
I17501360
aI17511265
aS'-'
asS'LOC101928140'
p224
(lp225
I128027864
aI128086290
aS'+'
asS'TMEM217'
p226
(lp227
I37212177
aI37258155
aS'-'
asS'MDN1'
p228
(lp229
I89642774
aI89819794
aS'-'
asS'TMEM200A'
p230
(lp231
I130366280
aI130443065
aS'+'
asS'MIR6780B'
p232
(lp233
I43434541
aI43434620
aS'+'
asS'RSPH9'
p234
(lp235
I43645029
aI43671011
aS'+'
asS'TMEM14C'
p236
(lp237
I10722914
aI10731129
aS'+'
asS'TMEM14B'
p238
(lp239
I10747758
aI10759773
aS'+'
asS'TMEM14A'
p240
(lp241
I52671085
aI52686587
aS'+'
asS'MIR6873'
p242
(lp243
I33287226
aI33287289
aS'-'
asS'RSPH3'
p244
(lp245
I158972870
aI159000187
aS'-'
asS'AFG1L'
p246
(lp247
I108294873
aI108525784
aS'+'
asS'C4B_2'
p248
(lp249
I31982056
aI32002681
aS'+'
asS'CLIC5'
p250
(lp251
I45898452
aI46080348
aS'-'
asS'PHACTR1'
p252
(lp253
I12716655
aI13287843
aS'+'
asS'PHACTR2'
p254
(lp255
I143608179
aI143831185
aS'+'
asS'TPMT'
p256
(lp257
I18128313
aI18155169
aS'-'
asS'PTCHD4'
p258
(lp259
I47878027
aI48068689
aS'-'
asS'LOC101926898'
p260
(lp261
I46492051
aI46533480
aS'+'
asS'MANEA-DT'
p262
(lp263
I95560095
aI95577451
aS'-'
asS'LY6G5C'
p264
(lp265
I31676683
aI31680373
aS'-'
asS'LY6G5B'
p266
(lp267
I31670950
aI31672450
aS'+'
asS'LOC101929523'
p268
(lp269
I169213211
aI169239562
aS'+'
asS'PSMB8-AS1'
p270
(lp271
I32844085
aI32846500
aS'+'
asS'TCP1'
p272
(lp273
I159778497
aI159789703
aS'-'
asS'HLA-DPA1'
p274
(lp275
I33064568
aI33080778
aS'-'
asS'LINC02487'
p276
(lp277
I167679625
aI167683787
aS'-'
asS'SNRNP48'
p278
(lp279
I7590197
aI7611967
aS'+'
asS'CEP57L1'
p280
(lp281
I109094621
aI109167126
aS'+'
asS'NFYA'
p282
(lp283
I41072967
aI41102407
aS'+'
asS'SMOC2'
p284
(lp285
I168441150
aI168667994
aS'+'
asS'MIR4639'
p286
(lp287
I16141555
aI16141624
aS'+'
asS'FYN'
p288
(lp289
I111660331
aI111873452
aS'-'
asS'TAB2-AS1'
p290
(lp291
I149243282
aI149257551
aS'-'
asS'CDC5L'
p292
(lp293
I44387513
aI44450424
aS'+'
asS'PBX2'
p294
(lp295
I32184732
aI32190202
aS'-'
asS'TJAP1'
p296
(lp297
I43477522
aI43506556
aS'+'
asS'AIRN'
p298
(lp299
I160003290
aI160007664
aS'-'
asS'BCKDHB'
p300
(lp301
I80106609
aI80346270
aS'+'
asS'LINC00242'
p302
(lp303
I169788789
aI169798825
aS'-'
asS'LINC00240'
p304
(lp305
I26956992
aI27023974
aS'+'
asS'ZSCAN31'
p306
(lp307
I28324737
aI28356271
aS'-'
asS'CFAP206'
p308
(lp309
I87407971
aI87464473
aS'+'
asS'HCRTR2'
p310
(lp311
I55106459
aI55282741
aS'+'
asS'MIR548AJ1'
p312
(lp313
I132115191
aI132115263
aS'-'
asS'KHDC1'
p314
(lp315
I73241314
aI73310215
aS'-'
asS'TDRG1'
p316
(lp317
I40378336
aI40379899
aS'+'
asS'B3GAT2'
p318
(lp319
I70861365
aI70957085
aS'-'
asS'TXNDC5'
p320
(lp321
I7881513
aI7910814
aS'-'
asS'TTK'
p322
(lp323
I80004604
aI80042527
aS'+'
asS'PERP'
p324
(lp325
I138088504
aI138107523
aS'-'
asS'CUL9'
p326
(lp327
I43182183
aI43224587
aS'+'
asS'GLO1'
p328
(lp329
I38675925
aI38703176
aS'-'
asS'CUL7'
p330
(lp331
I43037616
aI43053945
aS'-'
asS'TRIM26'
p332
(lp333
I30184454
aI30213494
aS'-'
asS'TRIM27'
p334
(lp335
I28903001
aI28923991
aS'-'
asS'PNKY'
p336
(lp337
I98830140
aI98831700
aS'-'
asS'BRD2'
p338
(lp339
I32968659
aI32981505
aS'+'
asS'LRFN2'
p340
(lp341
I40391633
aI40587464
aS'-'
asS'UTRN'
p342
(lp343
I144291736
aI144853034
aS'+'
asS'LINC00336'
p344
(lp345
I33586105
aI33593338
aS'-'
asS'PNRC1'
p346
(lp347
I89080709
aI89085160
aS'+'
asS'ZSCAN9'
p348
(lp349
I28225250
aI28233486
aS'+'
asS'IFNGR1'
p350
(lp351
I137197483
aI137219430
aS'-'
asS'BTBD9-AS1'
p352
(lp353
I38481595
aI38482527
aS'+'
asS'USP49'
p354
(lp355
I41797644
aI41895361
aS'-'
asS'SRSF3'
p356
(lp357
I36594312
aI36604467
aS'+'
asS'USP45'
p358
(lp359
I99432305
aI99515489
aS'-'
asS'KHDC1L'
p360
(lp361
I73223544
aI73225496
aS'-'
asS'KIF6'
p362
(lp363
I39329989
aI39725423
aS'-'
asS'HCP5'
p364
(lp365
I31463179
aI31465809
aS'+'
asS'HLA-DQB1'
p366
(lp367
I32659463
aI32666689
aS'-'
asS'HLA-DQB2'
p368
(lp369
I32756097
aI32763553
aS'-'
asS'ZNF192P1'
p370
(lp371
I28161760
aI28169595
aS'+'
asS'BRD7P3'
p372
(lp373
I118501372
aI118503833
aS'+'
asS'MRPL2'
p374
(lp375
I43054028
aI43059545
aS'-'
asS'ALDH8A1'
p376
(lp377
I134917389
aI134950122
aS'-'
asS'DDR1'
p378
(lp379
I30882612
aI30900156
aS'+'
asS'MOG'
p380
(lp381
I29656980
aI29672372
aS'+'
asS'BAG2'
p382
(lp383
I57172305
aI57185214
aS'+'
asS'BAG6'
p384
(lp385
I31639027
aI31652700
aS'-'
asS'MTRF1L'
p386
(lp387
I152987365
aI153002815
aS'-'
asS'MLIP'
p388
(lp389
I54018915
aI54266280
aS'+'
asS'DEF6'
p390
(lp391
I35297817
aI35321771
aS'+'
asS'PGBD1'
p392
(lp393
I28281536
aI28302549
aS'+'
asS'LY6G6C'
p394
(lp395
I31718647
aI31721746
aS'-'
asS'LY6G6D'
p396
(lp397
I31715355
aI31717804
aS'+'
asS'LY6G6E'
p398
(lp399
I31711975
aI31714065
aS'-'
asS'LY6G6F'
p400
(lp401
I31706862
aI31710679
aS'+'
asS'C2'
p402
(lp403
I31897784
aI31945674
aS'+'
asS'LOC101928489'
p404
(lp405
I73693902
aI73696131
aS'-'
asS'ATAT1'
p406
(lp407
I30626841
aI30646823
aS'+'
asS'SRF'
p408
(lp409
I43171294
aI43181506
aS'+'
asS'ZNF322'
p410
(lp411
I26634382
aI26659752
aS'-'
asS'PRKN'
p412
(lp413
I161347557
aI162727802
aS'-'
asS'MIR5004'
p414
(lp415
I33438330
aI33438437
aS'+'
asS'AKIRIN2'
p416
(lp417
I87674859
aI87702267
aS'-'
asS'TAPBP'
p418
(lp419
I33299694
aI33314387
aS'-'
asS'MICB-DT'
p420
(lp421
I31479917
aI31494794
aS'-'
asS'AGPAT4'
p422
(lp423
I161130024
aI161274075
aS'-'
asS'RFPL4B'
p424
(lp425
I112347329
aI112351296
aS'+'
asS'AGPAT1'
p426
(lp427
I32168205
aI32178111
aS'-'
asS'CSNK2B'
p428
(lp429
I31665879
aI31670070
aS'+'
asS'OR2J1'
p430
(lp431
I29100842
aI29101978
aS'+'
asS'OR2J2'
p432
(lp433
I29173533
aI29174574
aS'+'
asS'OR2J3'
p434
(lp435
I29111809
aI29112884
aS'+'
asS'VARS'
p436
(lp437
I31777519
aI31795935
aS'-'
asS'LOC729681'
p438
(lp439
I166097719
aI166099637
aS'+'
asS'MIR4282'
p440
(lp441
I72967686
aI72967753
aS'-'
asS'FOXO3'
p442
(lp443
I108559822
aI108684768
aS'+'
asS'LOC100270746'
p444
(lp445
I27019365
aI27020306
aS'-'
asS'LOC101928936'
p446
(lp447
I88525923
aI88539369
aS'-'
asS'SNORA116'
p448
(lp449
I158322981
aI158323128
aS'+'
asS'PRICKLE4'
p450
(lp451
I41780761
aI41787372
aS'+'
asS'GCNT2'
p452
(lp453
I10521334
aI10629368
aS'+'
asS'LOC102723831'
p454
(lp455
I151196672
aI151228457
aS'-'
asS'SLC35B2'
p456
(lp457
I44254100
aI44257890
aS'-'
asS'SLC16A10'
p458
(lp459
I111087502
aI111231194
aS'+'
asS'ATG5'
p460
(lp461
I106184476
aI106325820
aS'-'
asS'EYA4'
p462
(lp463
I133241356
aI133532120
aS'+'
asS'LOC100287329'
p464
(lp465
I31559570
aI31572703
aS'-'
asS'CALHM5'
p466
(lp467
I116511638
aI116524788
aS'+'
asS'MIR548U'
p468
(lp469
I57390131
aI57390212
aS'+'
asS'CALHM6'
p470
(lp471
I116461369
aI116463771
aS'+'
asS'TDRD6'
p472
(lp473
I46680267
aI46704319
aS'+'
asS'RPS18P9'
p474
(lp475
I149593615
aI149594584
aS'+'
asS'MIR548B'
p476
(lp477
I119069046
aI119069143
aS'-'
asS'LINCMD1'
p478
(lp479
I52146813
aI52151023
aS'-'
asS'HLA-DQB1-AS1'
p480
(lp481
I32659879
aI32660729
aS'+'
asS'RMND1'
p482
(lp483
I151404761
aI151452181
aS'-'
asS'CCDC170'
p484
(lp485
I151494039
aI151621193
aS'+'
asS'LINC01277'
p486
(lp487
I142966420
aI143037582
aS'-'
asS'LINC01276'
p488
(lp489
I41502443
aI41519852
aS'+'
asS'LOC101929460'
p490
(lp491
I169034170
aI169035643
aS'-'
asS'MIR4646'
p492
(lp493
I31701028
aI31701091
aS'-'
asS'CCN6'
p494
(lp495
I112054074
aI112069684
aS'+'
asS'CCN2'
p496
(lp497
I131948176
aI131951372
aS'-'
asS'OGFRL1'
p498
(lp499
I71288441
aI71309059
aS'+'
asS'ZFAND3'
p500
(lp501
I37819530
aI38154623
aS'+'
asS'C6orf15'
p502
(lp503
I31111222
aI31112555
aS'-'
asS'SMAP1'
p504
(lp505
I70667770
aI70862013
aS'+'
asS'LOC285804'
p506
(lp507
I170266668
aI170276762
aS'-'
asS'HSP90AB1'
p508
(lp509
I44246165
aI44253888
aS'+'
asS'PTP4A1'
p510
(lp511
I63572011
aI63583588
aS'+'
asS'ZSCAN26'
p512
(lp513
I28267009
aI28278223
aS'+'
asS'ZSCAN23'
p514
(lp515
I28432654
aI28443502
aS'-'
asS'COL19A1'
p516
(lp517
I69866555
aI70212454
aS'+'
asS'CD24'
p518
(lp519
I106969830
aI106976855
aS'-'
asS'MYLIP'
p520
(lp521
I16129085
aI16148247
aS'+'
asS'UBR2'
p522
(lp523
I42564021
aI42693505
aS'+'
asS'BMP6'
p524
(lp525
I7726098
aI7881728
aS'+'
asS'BMP5'
p526
(lp527
I55753652
aI55875590
aS'-'
asS'GPR6'
p528
(lp529
I109978255
aI109980721
aS'+'
asS'FILNC1'
p530
(lp531
I139771072
aI139860471
aS'+'
asS'ATP6V1G2-DDX39B'
p532
(lp533
I31530218
aI31546848
aS'-'
asS'ULBP2'
p534
(lp535
I149941937
aI149949232
aS'+'
asS'ULBP3'
p536
(lp537
I150061045
aI150069147
aS'-'
asS'CCNC'
p538
(lp539
I99542386
aI99568814
aS'-'
asS'EGFL8'
p540
(lp541
I32164604
aI32168285
aS'+'
asS'IL20RA'
p542
(lp543
I136999970
aI137045180
aS'-'
asS'TRIM39'
p544
(lp545
I30326843
aI30343729
aS'+'
asS'TRIM38'
p546
(lp547
I25962688
aI25987329
aS'+'
asS'TRIM31'
p548
(lp549
I30102896
aI30113106
aS'-'
asS'LOC101927020'
p550
(lp551
I49811539
aI49820503
aS'+'
asS'OR2H1'
p552
(lp553
I29457154
aI29464322
aS'+'
asS'CAP2'
p554
(lp555
I17393504
aI17557792
aS'+'
asS'SKIV2L'
p556
(lp557
I31958803
aI31969755
aS'+'
asS'LINC00326'
p558
(lp559
I133088079
aI133106578
aS'+'
asS'IL22RA2'
p560
(lp561
I137143819
aI137173648
aS'-'
asS'TREML5P'
p562
(lp563
I41249376
aI41249589
aS'+'
asS'MRPL18'
p564
(lp565
I159789811
aI159798429
aS'+'
asS'ULBP1'
p566
(lp567
I149963973
aI149973713
aS'+'
asS'TMEM242'
p568
(lp569
I157289021
aI157324259
aS'-'
asS'ITPR3'
p570
(lp571
I33621321
aI33696562
aS'+'
asS'EFHC1'
p572
(lp573
I52420195
aI52495785
aS'+'
asS'PRDM13'
p574
(lp575
I99606773
aI99615578
aS'+'
asS'ASCC3'
p576
(lp577
I100508194
aI100881372
aS'-'
asS'UQCC2'
p578
(lp579
I33696760
aI33711751
aS'-'
asS'KDM1B'
p580
(lp581
I18155387
aI18223853
aS'+'
asS'FAM120B'
p582
(lp583
I170290702
aI170407071
aS'+'
asS'OR11A1'
p584
(lp585
I29425503
aI29427732
aS'-'
asS'MAPK14'
p586
(lp587
I36027676
aI36111236
aS'+'
asS'FAM217A'
p588
(lp589
I4068358
aI4079223
aS'-'
asS'MAPK13'
p590
(lp591
I36130483
aI36144524
aS'+'
asS'OPN5'
p592
(lp593
I47782038
aI47826380
aS'+'
asS'GJA10'
p594
(lp595
I89894468
aI89896100
aS'+'
asS'MIR1273C'
p596
(lp597
I154853359
aI154853436
aS'+'
asS'QRSL1'
p598
(lp599
I106629565
aI106668417
aS'+'
asS'KU-MEL-3'
p600
(lp601
I4610564
aI4611919
aS'+'
asS'REPS1'
p602
(lp603
I138904014
aI138988261
aS'-'
asS'LOC100131289'
p604
(lp605
I27761743
aI27763187
aS'+'
asS'LOC100131532'
p606
(lp607
I169962622
aI169967678
aS'+'
asS'TMEM30A'
p608
(lp609
I75252921
aI75284916
aS'-'
asS'ARMT1'
p610
(lp611
I151452257
aI151470099
aS'+'
asS'AFDN-DT'
p612
(lp613
I167823889
aI167826796
aS'-'
asS'HIST1H1T'
p614
(lp615
I26107411
aI26108136
aS'-'
asS'LOC102723649'
p616
(lp617
I137665645
aI137674554
aS'+'
asS'HIST1H1E'
p618
(lp619
I26156330
aI26157115
aS'+'
asS'HIST1H1A'
p620
(lp621
I26017031
aI26017812
aS'-'
asS'HIST1H1B'
p622
(lp623
I27866791
aI27867581
aS'-'
asS'HIST1H1C'
p624
(lp625
I26055739
aI26056471
aS'-'
asS'JARID2-AS1'
p626
(lp627
I15247814
aI15248696
aS'-'
asS'PSMB9'
p628
(lp629
I32854191
aI32859851
aS'+'
asS'PSMB8'
p630
(lp631
I32840716
aI32844935
aS'-'
asS'HIVEP1'
p632
(lp633
I12012311
aI12164999
aS'+'
asS'HIVEP2'
p634
(lp635
I142751468
aI142945176
aS'-'
asS'ZNF311'
p636
(lp637
I28994784
aI29005610
aS'-'
asS'GNMT'
p638
(lp639
I42960753
aI42963880
aS'+'
asS'ZNF318'
p640
(lp641
I43336069
aI43369647
aS'-'
asS'DPPA5'
p642
(lp643
I73353062
aI73354276
aS'-'
asS'HIST1H2AM'
p644
(lp645
I27892698
aI27893185
aS'-'
asS'HIST1H2AL'
p646
(lp647
I27865328
aI27865798
aS'+'
asS'HIST1H2AI'
p648
(lp649
I27808198
aI27808667
aS'+'
asS'HIST1H2AH'
p650
(lp651
I27147081
aI27147562
aS'+'
asS'HIST1H2AK'
p652
(lp653
I27837879
aI27838339
aS'-'
asS'HIST1H2AJ'
p654
(lp655
I27814301
aI27814740
aS'-'
asS'HIST1H2AE'
p656
(lp657
I26216919
aI26217483
aS'+'
asS'HIST1H2AD'
p658
(lp659
I26198783
aI26199293
aS'-'
asS'HIST1H2AG'
p660
(lp661
I27133037
aI27133535
aS'+'
asS'HIST1H2AA'
p662
(lp663
I25726062
aI25726562
aS'-'
asS'HIST1H2AC'
p664
(lp665
I26124144
aI26124690
aS'+'
asS'HIST1H2AB'
p666
(lp667
I26033091
aI26033568
aS'-'
asS'KCNK5'
p668
(lp669
I39188970
aI39229475
aS'-'
asS'NUP43'
p670
(lp671
I149724315
aI149746572
aS'-'
asS'SCARNA27'
p672
(lp673
I8086407
aI8086533
aS'-'
asS'LOC101928231'
p674
(lp675
I134429029
aI134478897
aS'-'
asS'ACOT13'
p676
(lp677
I24667034
aI24705067
aS'+'
asS'LOC101929188'
p678
(lp679
I33631243
aI33633745
aS'-'
asS'GTF2H5'
p680
(lp681
I158168346
aI158199344
aS'+'
asS'GTF2H4'
p682
(lp683
I30908199
aI30914103
aS'+'
asS'ABCC10'
p684
(lp685
I43427540
aI43450427
aS'+'
asS'HCP5B'
p686
(lp687
I29871894
aI29873783
aS'-'
asS'TAB2'
p688
(lp689
I149217923
aI149411613
aS'+'
asS'LOC101929057'
p690
(lp691
I89638531
aI89689481
aS'+'
asS'LOC101929297'
p692
(lp693
I166236968
aI166256944
aS'+'
asS'TAP1'
p694
(lp695
I32845208
aI32853971
aS'-'
asS'TAP2'
p696
(lp697
I32821832
aI32838770
aS'-'
asS'DKFZp451B082'
p698
(lp699
I163338341
aI163347033
aS'-'
asS'LOC105375075'
p700
(lp701
I44546160
aI44551881
aS'-'
asS'SUMO4'
p702
(lp703
I149400358
aI149401046
aS'+'
asS'SNAP91'
p704
(lp705
I83552885
aI83709408
aS'-'
asS'MOCS1'
p706
(lp707
I39904257
aI39934551
aS'-'
asS'KIAA0319'
p708
(lp709
I24544103
aI24646155
aS'-'
asS'BLOC1S5'
p710
(lp711
I8013566
aI8064414
aS'-'
asS'OARD1'
p712
(lp713
I41066787
aI41097787
aS'-'
asS'TSG1'
p714
(lp715
I93707001
aI93776620
aS'+'
asS'LMBRD1'
p716
(lp717
I69674009
aI69796609
aS'-'
asS'B3GALT4'
p718
(lp719
I33277139
aI33278825
aS'+'
asS'RPS16P5'
p720
(lp721
I53334459
aI53337617
aS'-'
asS'RIOK1'
p722
(lp723
I7389828
aI7418037
aS'+'
asS'AKAP7'
p724
(lp725
I131135685
aI131283535
aS'+'
asS'LINC00222'
p726
(lp727
I108751653
aI108769942
aS'+'
asS'LINC01312'
p728
(lp729
I133821146
aI133853992
aS'+'
asS'LINC02518'
p730
(lp731
I113428539
aI113433447
aS'-'
asS'ZSCAN12'
p732
(lp733
I28378820
aI28399767
aS'-'
asS'ARHGAP18'
p734
(lp735
I129576133
aI129710177
aS'-'
asS'ZSCAN16'
p736
(lp737
I28124555
aI28130086
aS'+'
asS'NRSN1'
p738
(lp739
I24126185
aI24147529
aS'+'
asS'POLR1C'
p740
(lp741
I43517023
aI43562404
aS'+'
asS'MRPL14'
p742
(lp743
I44113453
aI44127491
aS'-'
asS'HCG25'
p744
(lp745
I33249535
aI33254890
aS'+'
asS'HCG24'
p746
(lp747
I33143323
aI33148815
aS'+'
asS'HCG27'
p748
(lp749
I31197759
aI31203968
aS'+'
asS'HCG26'
p750
(lp751
I31471228
aI31472408
aS'+'
asS'HCG21'
p752
(lp753
I30945978
aI30954862
aS'-'
asS'HCG20'
p754
(lp755
I30766824
aI30792250
aS'+'
asS'HCG23'
p756
(lp757
I32390509
aI32393691
aS'+'
asS'HCG22'
p758
(lp759
I31053449
aI31059878
aS'+'
asS'LOC102724357'
p760
(lp761
I169067785
aI169069424
aS'+'
asS'GRM4'
p762
(lp763
I34018642
aI34155622
aS'-'
asS'GRM1'
p764
(lp765
I146027781
aI146437598
aS'+'
asS'LINC00680'
p766
(lp767
I57945833
aI57961446
aS'-'
asS'PPP1R3G'
p768
(lp769
I5085485
aI5087221
aS'+'
asS'SENP6'
p770
(lp771
I75601508
aI75718285
aS'+'
asS'DST'
p772
(lp773
I56457986
aI56954628
aS'-'
asS'DSP'
p774
(lp775
I7541574
aI7586717
aS'+'
asS'BICRAL'
p776
(lp777
I42746957
aI42868560
aS'+'
asS'PPARD'
p778
(lp779
I35342557
aI35428191
aS'+'
asS'DSE'
p780
(lp781
I116254151
aI116438291
aS'+'
asS'DCDC2'
p782
(lp783
I24171754
aI24383292
aS'-'
asS'GLYATL3'
p784
(lp785
I49499957
aI49528064
aS'+'
asS'SPDEF'
p786
(lp787
I34537801
aI34556333
aS'-'
asS'RING1'
p788
(lp789
I33208508
aI33212722
aS'+'
asS'ECHDC1'
p790
(lp791
I127288711
aI127343609
aS'-'
asS'CYP21A1P'
p792
(lp793
I32005635
aI32008909
aS'+'
asS'CEP85L'
p794
(lp795
I118460771
aI118710075
aS'-'
asS'TPI1P3'
p796
(lp797
I116038730
aI116039944
aS'+'
asS'NRN1'
p798
(lp799
I5997999
aI6007605
aS'-'
asS'SLC2A12'
p800
(lp801
I133987580
aI134052651
aS'-'
asS'BCLAF1'
p802
(lp803
I136256862
aI136289851
aS'-'
asS'LHFPL5'
p804
(lp805
I35805293
aI35824075
aS'+'
asS'MIR548A1HG'
p806
(lp807
I18522746
aI18722898
aS'+'
asS'NCOA7'
p808
(lp809
I125781160
aI125932030
aS'+'
asS'SLC22A23'
p810
(lp811
I3268973
aI3456559
aS'-'
asS'ACAT2'
p812
(lp813
I159761956
aI159779055
aS'+'
asS'RIMS1'
p814
(lp815
I71886702
aI72403143
aS'+'
asS'LOC441155'
p816
(lp817
I65301417
aI65305611
aS'+'
asS'PEX3'
p818
(lp819
I143450780
aI143490614
aS'+'
asS'IFITM4P'
p820
(lp821
I29750806
aI29751148
aS'-'
asS'TFAP2A-AS2'
p822
(lp823
I10404501
aI10407927
aS'+'
asS'TFAP2A-AS1'
p824
(lp825
I10412317
aI10416169
aS'+'
asS'PDE10A'
p826
(lp827
I165327286
aI165662100
aS'-'
asS'FLJ46906'
p828
(lp829
I138691667
aI138697288
aS'+'
asS'AK9'
p830
(lp831
I109492855
aI109691212
aS'-'
asS'SLC17A4'
p832
(lp833
I25754698
aI25781175
aS'+'
asS'SLC17A5'
p834
(lp835
I73593378
aI73654014
aS'-'
asS'TBCC'
p836
(lp837
I42744495
aI42746146
aS'-'
asS'SLC17A1'
p838
(lp839
I25782897
aI25832059
aS'-'
asS'SLC17A2'
p840
(lp841
I25912755
aI25930726
aS'-'
asS'SLC17A3'
p842
(lp843
I25845099
aI25874243
aS'-'
asS'CMTR1'
p844
(lp845
I37433130
aI37481508
aS'+'
asS'WRNIP1'
p846
(lp847
I2765431
aI2785745
aS'+'
asS'MIR1236'
p848
(lp849
I31956838
aI31956940
aS'-'
asS'CDK19'
p850
(lp851
I110609977
aI110815885
aS'-'
asS'GJB7'
p852
(lp853
I87282978
aI87329278
aS'-'
asS'MTRNR2L9'
p854
(lp855
I61574102
aI61574629
aS'+'
asS'MIR548AI'
p856
(lp857
I99124608
aI99124696
aS'+'
asS'MDC1'
p858
(lp859
I30699806
aI30717281
aS'-'
asS'NCR3'
p860
(lp861
I31588882
aI31592985
aS'-'
asS'SIM1'
p862
(lp863
I100388873
aI100463675
aS'-'
asS'MIR548A1'
p864
(lp865
I18571783
aI18571880
aS'+'
asS'ZSCAN16-AS1'
p866
(lp867
I28121794
aI28137316
aS'-'
asS'HTATSF1P2'
p868
(lp869
I3020155
aI3024771
aS'-'
asS'FUCA2'
p870
(lp871
I143494811
aI143511883
aS'-'
asS'SYCP2L'
p872
(lp873
I10886830
aI10974308
aS'+'
asS'RAET1E-AS1'
p874
(lp875
I149863497
aI149919508
aS'+'
asS'RSPH4A'
p876
(lp877
I116616478
aI116632985
aS'+'
asS'LOC101928911'
p878
(lp879
I87784859
aI87911731
aS'+'
asS'MICB'
p880
(lp881
I31494880
aI31511124
aS'+'
asS'MICA'
p882
(lp883
I31400710
aI31415315
aS'+'
asS'GNL1'
p884
(lp885
I30541377
aI30557594
aS'-'
asS'FNDC1'
p886
(lp887
I159169396
aI159272108
aS'+'
asS'LY86-AS1'
p888
(lp889
I6346464
aI6622826
aS'-'
asS'ARMC12'
p890
(lp891
I35737031
aI35748913
aS'+'
asS'GINM1'
p892
(lp893
I149566207
aI149591751
aS'+'
asS'MAS1L'
p894
(lp895
I29486696
aI29487956
aS'-'
asS'DAAM2'
p896
(lp897
I39792382
aI39904877
aS'+'
asS'HLA-DRB1'
p898
(lp899
I32578769
aI32589836
aS'-'
asS'HLA-DRB6'
p900
(lp901
I32552712
aI32560002
aS'-'
asS'HLA-DRB5'
p902
(lp903
I32517376
aI32530229
aS'-'
asS'MTCH1'
p904
(lp905
I36968134
aI36986551
aS'-'
asS'LINC01526'
p906
(lp907
I81813285
aI81814192
aS'-'
asS'LOC285847'
p908
(lp909
I35726761
aI35736947
aS'-'
asS'PLAGL1'
p910
(lp911
I143940299
aI144064599
aS'-'
asS'MEP1A'
p912
(lp913
I46793356
aI46839782
aS'+'
asS'SNORA40C'
p914
(lp915
I110848545
aI110848673
aS'+'
asS'SMLR1'
p916
(lp917
I130827404
aI130837136
aS'+'
asS'LOC100507477'
p918
(lp919
I139976318
aI140093721
aS'+'
asS'LOC100294145'
p920
(lp921
I32894175
aI32903758
aS'+'
asS'TULP1'
p922
(lp923
I35497873
aI35512938
aS'-'
asS'CNPY3-GNMT'
p924
(lp925
I42929129
aI42963880
aS'+'
asS'TULP4'
p926
(lp927
I158312659
aI158511824
aS'+'
asS'C6orf141'
p928
(lp929
I49550399
aI49561912
aS'+'
asS'PPP1R14C'
p930
(lp931
I150143043
aI150250392
aS'+'
asS'LOC101927136'
p932
(lp933
I53561288
aI53573275
aS'-'
asS'TCTE3'
p934
(lp935
I169740114
aI169751583
aS'-'
asS'TCTE1'
p936
(lp937
I44280159
aI44297721
aS'-'
asS'MIR1913'
p938
(lp939
I166509353
aI166509433
aS'-'
asS'LOC100507506'
p940
(lp941
I4136071
aI4157385
aS'+'
asS'HDGFL1'
p942
(lp943
I22569448
aI22571662
aS'+'
asS'TBC1D32'
p944
(lp945
I121079493
aI121334500
aS'-'
asS'VPS52'
p946
(lp947
I33250271
aI33271965
aS'-'
asS'GUCA1A'
p948
(lp949
I42155376
aI42180083
aS'+'
asS'EEF1E1'
p950
(lp951
I8073359
aI8102595
aS'-'
asS'CDKAL1'
p952
(lp953
I20534456
aI21232403
aS'+'
asS'GUCA1B'
p954
(lp955
I42183283
aI42194956
aS'-'
asS'MIR3135B'
p956
(lp957
I32749911
aI32749979
aS'-'
asS'STXBP5'
p958
(lp959
I147204357
aI147390476
aS'+'
asS'SMPD2'
p960
(lp961
I109440727
aI109443919
aS'+'
asS'OSTM1'
p962
(lp963
I108041408
aI108074737
aS'-'
asS'CRYBG1'
p964
(lp965
I106511854
aI106570449
aS'+'
asS'LOC101927950'
p966
(lp967
I5664985
aI5695272
aS'-'
asS'FANCE'
p968
(lp969
I35452360
aI35467104
aS'+'
asS'LOC105378146'
p970
(lp971
I168927740
aI168964382
aS'-'
asS'FRK'
p972
(lp973
I115941529
aI116060758
aS'-'
asS'MRPS18A'
p974
(lp975
I43671196
aI43687812
aS'-'
asS'MRPS18B'
p976
(lp977
I30617708
aI30626397
aS'+'
asS'LOC101927314'
p978
(lp979
I97305585
aI97708917
aS'+'
asS'AGPAT4-IT1'
p980
(lp981
I161160131
aI161161982
aS'-'
asS'FAXC'
p982
(lp983
I99271160
aI99350310
aS'-'
asS'SLC22A16'
p984
(lp985
I110424689
aI110476613
aS'-'
asS'GRIK2'
p986
(lp987
I101398984
aI102070083
aS'+'
asS'MIR2113'
p988
(lp989
I98024530
aI98024619
aS'+'
asS'NHEG1'
p990
(lp991
I136982158
aI136993231
aS'-'
asS'RNF146'
p992
(lp993
I127266681
aI127288560
aS'+'
asS'LOC105377879'
p994
(lp995
I83709441
aI83726495
aS'+'
asS'PTK7'
p996
(lp997
I43076267
aI43161720
aS'+'
asS'SF3B5'
p998
(lp999
I144094880
aI144095617
aS'-'
asS'MSH5'
p1000
(lp1001
I31739947
aI31762678
aS'+'
asS'HMGA1P7'
p1002
(lp1003
I134113970
aI134117680
aS'-'
asS'RGL2'
p1004
(lp1005
I33291653
aI33299388
aS'-'
asS'SUPT3H'
p1006
(lp1007
I44809056
aI45377864
aS'-'
asS'NFKBIL1'
p1008
(lp1009
I31546850
aI31558829
aS'+'
asS'LOC100130357'
p1010
(lp1011
I13279294
aI13295586
aS'-'
asS'PACSIN1'
p1012
(lp1013
I34466060
aI34535223
aS'+'
asS'ASF1A'
p1014
(lp1015
I118894076
aI118909170
aS'+'
asS'AMD1'
p1016
(lp1017
I110814620
aI110895712
aS'+'
asS'MIR877'
p1018
(lp1019
I30584331
aI30584417
aS'+'
asS'MLN'
p1020
(lp1021
I33794671
aI33804016
aS'-'
asS'HIST1H3B'
p1022
(lp1023
I26031588
aI26032060
aS'-'
asS'HIST1H3C'
p1024
(lp1025
I26045410
aI26045869
aS'+'
asS'HIST1H3A'
p1026
(lp1027
I26020489
aI26020958
aS'+'
asS'HIST1H3F'
p1028
(lp1029
I26250141
aI26250607
aS'-'
asS'HIST1H3G'
p1030
(lp1031
I26270917
aI26271384
aS'-'
asS'HIST1H3D'
p1032
(lp1033
I26196783
aI26199293
aS'-'
asS'HIST1H3E'
p1034
(lp1035
I26225154
aI26225616
aS'+'
asS'HIST1H3J'
p1036
(lp1037
I27890314
aI27890792
aS'-'
asS'HIST1H3H'
p1038
(lp1039
I27810063
aI27810536
aS'+'
asS'HIST1H3I'
p1040
(lp1041
I27871844
aI27872321
aS'-'
asS'SCML4'
p1042
(lp1043
I107702156
aI107824317
aS'-'
asS'PM20D2'
p1044
(lp1045
I89146049
aI89165571
aS'+'
asS'NRM'
p1046
(lp1047
I30688046
aI30691420
aS'-'
asS'RAET1E'
p1048
(lp1049
I149883374
aI149896059
aS'-'
asS'UBE2J1'
p1050
(lp1051
I89326624
aI89352900
aS'-'
asS'RAET1G'
p1052
(lp1053
I149916877
aI149923152
aS'-'
asS'NT5E'
p1054
(lp1055
I85449583
aI85495791
aS'+'
asS'RAET1K'
p1056
(lp1057
I149998018
aI150005144
aS'-'
asS'RAET1L'
p1058
(lp1059
I150020129
aI150025532
aS'-'
asS'PPIL1'
p1060
(lp1061
I36854829
aI36875024
aS'-'
asS'PPIL4'
p1062
(lp1063
I149504494
aI149546102
aS'-'
asS'PPIL6'
p1064
(lp1065
I109390214
aI109441171
aS'-'
asS'SFTA2'
p1066
(lp1067
I30931349
aI30932175
aS'-'
asS'TOMM6'
p1068
(lp1069
I41787442
aI41789896
aS'+'
asS'SNORD48'
p1070
(lp1071
I31835262
aI31835326
aS'+'
asS'MIR6832'
p1072
(lp1073
I31633786
aI31633858
aS'+'
asS'MIR6833'
p1074
(lp1075
I32179815
aI32179876
aS'+'
asS'MIR6834'
p1076
(lp1077
I33290244
aI33290325
aS'+'
asS'MAP3K7'
p1078
(lp1079
I90513572
aI90587301
aS'-'
asS'MAP3K4'
p1080
(lp1081
I160991726
aI161117385
aS'+'
asS'MAP3K5'
p1082
(lp1083
I136557048
aI136792518
aS'-'
asS'PLA2G7'
p1084
(lp1085
I46704315
aI46735693
aS'-'
asS'MARCKS'
p1086
(lp1087
I113857344
aI113863475
aS'+'
asS'SNORA29'
p1088
(lp1089
I159785593
aI159785733
aS'-'
asS'MIR5690'
p1090
(lp1091
I35664716
aI35664789
aS'-'
asS'LRRC73'
p1092
(lp1093
I43506964
aI43510343
aS'-'
asS'SMPDL3A'
p1094
(lp1095
I122789048
aI122809719
aS'+'
asS'LINC01624'
p1096
(lp1097
I170272473
aI170279466
aS'+'
asS'SNORD117'
p1098
(lp1099
I31536373
aI31536449
aS'-'
asS'DAXX'
p1100
(lp1101
I33318557
aI33323016
aS'-'
asS'MCHR2-AS1'
p1102
(lp1103
I99994037
aI100076419
aS'+'
asS'TRIM31-AS1'
p1104
(lp1105
I30105239
aI30114724
aS'+'
asS'PNPLA1'
p1106
(lp1107
I36243167
aI36308595
aS'+'
asS'NKAIN2'
p1108
(lp1109
I123803845
aI124825640
aS'+'
asS'ZNF451-AS1'
p1110
(lp1111
I57114910
aI57172213
aS'-'
asS'GFOD1'
p1112
(lp1113
I13363354
aI13487637
aS'-'
asS'FRMD1'
p1114
(lp1115
I168055783
aI168081557
aS'-'
asS'LOC101930010'
p1116
(lp1117
I56843985
aI56864338
aS'+'
asS'FAM162B'
p1118
(lp1119
I116752196
aI116765723
aS'-'
asS'LINC01626'
p1120
(lp1121
I71421026
aI71458872
aS'+'
asS'MIR3692'
p1122
(lp1123
I157529131
aI157529200
aS'+'
asS'MIR3691'
p1124
(lp1125
I5148232
aI5148322
aS'-'
asS'LINC01625'
p1126
(lp1127
I139468994
aI139474596
aS'-'
asS'LINC01622'
p1128
(lp1129
I961002
aI1101332
aS'-'
asS'LINC01623'
p1130
(lp1131
I28859624
aI28863677
aS'-'
asS'LINC02539'
p1132
(lp1133
I137730170
aI137739037
aS'-'
asS'LINC01621'
p1134
(lp1135
I79803582
aI79812246
aS'-'
asS'LINC02537'
p1136
(lp1137
I43844875
aI43852333
aS'-'
asS'LINC02535'
p1138
(lp1139
I85387218
aI85404802
aS'-'
asS'LINC02534'
p1140
(lp1141
I115633541
aI115643835
aS'-'
asS'LINC02533'
p1142
(lp1143
I4488797
aI4495771
aS'+'
asS'LINC02532'
p1144
(lp1145
I106717451
aI106787541
aS'-'
asS'COL12A1'
p1146
(lp1147
I75084325
aI75205907
aS'-'
asS'LINC02530'
p1148
(lp1149
I12582767
aI12585404
aS'-'
asS'FARS2'
p1150
(lp1151
I5261017
aI5771592
aS'+'
asS'FOXCUT'
p1152
(lp1153
I1605530
aI1607356
aS'+'
asS'LYRM4-AS1'
p1154
(lp1155
I5003815
aI5240496
aS'+'
asS'FLJ34503'
p1156
(lp1157
I113904386
aI113921642
aS'+'
asS'DACT2'
p1158
(lp1159
I168292829
aI168319754
aS'-'
asS'SAPCD1-AS1'
p1160
(lp1161
I31764135
aI31765588
aS'-'
asS'ECT2L'
p1162
(lp1163
I138796110
aI138904070
aS'+'
asS'MIR5689HG'
p1164
(lp1165
I10434328
aI10456779
aS'+'
asS'EPB41L2'
p1166
(lp1167
I130839347
aI131063322
aS'-'
asS'FOXP4-AS1'
p1168
(lp1169
I41523894
aI41548621
aS'-'
asS'MMUT'
p1170
(lp1171
I49430359
aI49463328
aS'-'
asS'GPR63'
p1172
(lp1173
I96794121
aI96837477
aS'-'
asS'MIR4644'
p1174
(lp1175
I170330760
aI170330844
aS'+'
asS'MLIP-AS1'
p1176
(lp1177
I54046818
aI54047594
aS'-'
asS'TAGAP'
p1178
(lp1179
I159034468
aI159045152
aS'-'
asS'RRP36'
p1180
(lp1181
I43021601
aI43029599
aS'+'
asS'SH3BGRL2'
p1182
(lp1183
I79631328
aI79703655
aS'+'
asS'TREML2'
p1184
(lp1185
I41189748
aI41201187
aS'-'
asS'TREML1'
p1186
(lp1187
I41149260
aI41154349
aS'-'
asS'TREML4'
p1188
(lp1189
I41228323
aI41238382
aS'+'
asS'LINC00574'
p1190
(lp1191
I169790072
aI169802873
aS'+'
asS'CUTA'
p1192
(lp1193
I33416541
aI33418288
aS'-'
asS'JARID2'
p1194
(lp1195
I15246068
aI15522042
aS'+'
asS'HIST1H1D'
p1196
(lp1197
I26234211
aI26234988
aS'-'
asS'CMAHP'
p1198
(lp1199
I25081066
aI25137823
aS'-'
asS'TFAP2A'
p1200
(lp1201
I10396682
aI10419564
aS'-'
asS'TFAP2B'
p1202
(lp1203
I50818725
aI50847613
aS'+'
asS'TFAP2D'
p1204
(lp1205
I50713543
aI50773033
aS'+'
asS'HMGN3-AS1'
p1206
(lp1207
I79233673
aI79236800
aS'+'
asS'MCCD1'
p1208
(lp1209
I31528961
aI31530231
aS'+'
asS'LOC110384692'
p1210
(lp1211
I31982056
aI32002681
aS'+'
asS'PI16'
p1212
(lp1213
I36948262
aI36964837
aS'+'
asS'LOC105378047'
p1214
(lp1215
I149027228
aI149032661
aS'-'
asS'MEA1'
p1216
(lp1217
I43012012
aI43016886
aS'-'
asS'POU3F2'
p1218
(lp1219
I98834703
aI98838790
aS'+'
asS'SLC44A4'
p1220
(lp1221
I31863192
aI31879046
aS'-'
asS'LINC02538'
p1222
(lp1223
I167666840
aI167679223
aS'-'
asS'MIR7159'
p1224
(lp1225
I33899134
aI33899200
aS'+'
asS'MCM3'
p1226
(lp1227
I52264019
aI52284742
aS'-'
asS'OR14J1'
p1228
(lp1229
I29306689
aI29307655
aS'+'
asS'MCM9'
p1230
(lp1231
I118813448
aI118931738
aS'-'
asS'PACRG'
p1232
(lp1233
I162727131
aI163315492
aS'+'
asS'DNPH1'
p1234
(lp1235
I43225628
aI43229473
aS'-'
asS'KCNQ5-IT1'
p1236
(lp1237
I72630494
aI72678558
aS'+'
asS'LOC100506804'
p1238
(lp1239
I75285013
aI75291864
aS'+'
asS'COQ3'
p1240
(lp1241
I99369471
aI99394206
aS'-'
asS'LOC401261'
p1242
(lp1243
I42783495
aI42791323
aS'+'
asS'MUC22'
p1244
(lp1245
I31005951
aI31035402
aS'+'
asS'MUC21'
p1246
(lp1247
I30983707
aI30989902
aS'+'
asS'DHX16'
p1248
(lp1249
I30653118
aI30673053
aS'-'
asS'RREB1'
p1250
(lp1251
I7107596
aI7251980
aS'+'
asS'NHLRC1'
p1252
(lp1253
I18120486
aI18122620
aS'-'
asS'POM121L2'
p1254
(lp1255
I27309062
aI27312232
aS'-'
asS'PPT2'
p1256
(lp1257
I32153451
aI32163681
aS'+'
asS'ADGB'
p1258
(lp1259
I146598999
aI146815461
aS'+'
asS'MICAL1'
p1260
(lp1261
I109444062
aI109465968
aS'-'
asS'RPP40'
p1262
(lp1263
I4995045
aI5004063
aS'-'
asS'SOD2'
p1264
(lp1265
I159679063
aI159762529
aS'-'
asS'PSORS1C1'
p1266
(lp1267
I31114830
aI31140092
aS'+'
asS'VWA7'
p1268
(lp1269
I31765593
aI31777331
aS'-'
asS'PSORS1C3'
p1270
(lp1271
I31173734
aI31186317
aS'-'
asS'PSORS1C2'
p1272
(lp1273
I31137533
aI31139350
aS'-'
asS'SMIM29'
p1274
(lp1275
I34246379
aI34249108
aS'-'
asS'TRAF3IP2-AS1'
p1276
(lp1277
I111483471
aI111602294
aS'+'
asS'IP6K3'
p1278
(lp1279
I33721665
aI33746985
aS'-'
asS'SNORD52'
p1280
(lp1281
I31837075
aI31837139
aS'+'
asS'FBXL4'
p1282
(lp1283
I98873724
aI98948006
aS'-'
asS'PKIB'
p1284
(lp1285
I122471916
aI122726373
aS'+'
asS'RNF8'
p1286
(lp1287
I37353971
aI37394738
aS'+'
asS'RNF5'
p1288
(lp1289
I32178384
aI32180793
aS'+'
asS'HLA-J'
p1290
(lp1291
I30005970
aI30009956
aS'+'
asS'HLA-H'
p1292
(lp1293
I29887572
aI29891079
aS'+'
asS'CDSN'
p1294
(lp1295
I31115087
aI31120475
aS'-'
asS'HLA-L'
p1296
(lp1297
I30259561
aI30266951
aS'+'
asS'HLA-C'
p1298
(lp1299
I31268748
aI31272136
aS'-'
asS'HLA-B'
p1300
(lp1301
I31353865
aI31357245
aS'-'
asS'HLA-A'
p1302
(lp1303
I29942469
aI29945884
aS'+'
asS'HLA-G'
p1304
(lp1305
I29826978
aI29831122
aS'+'
asS'HLA-F'
p1306
(lp1307
I29723433
aI29727296
aS'+'
asS'HLA-E'
p1308
(lp1309
I30489508
aI30494194
aS'+'
asS'NFKBIE'
p1310
(lp1311
I44258165
aI44265788
aS'-'
asS'NOX3'
p1312
(lp1313
I155395367
aI155455903
aS'-'
asS'MRPS10'
p1314
(lp1315
I42206800
aI42217895
aS'-'
asS'HLA-V'
p1316
(lp1317
I29791905
aI29797807
aS'+'
asS'UBE3D'
p1318
(lp1319
I82892397
aI83065841
aS'-'
asS'LOC101929243'
p1320
(lp1321
I34696153
aI34697471
aS'+'
asS'SLC35A1'
p1322
(lp1323
I87472924
aI87512339
aS'+'
asS'PRSS35'
p1324
(lp1325
I83512474
aI83525702
aS'+'
asS'LOC101928663'
p1326
(lp1327
I25244915
aI25261407
aS'-'
asS'LOC101928661'
p1328
(lp1329
I146594515
aI146598931
aS'-'
asS'LOC100126584'
p1330
(lp1331
I125182942
aI125197817
aS'-'
asS'EPM2A'
p1332
(lp1333
I145625303
aI145736021
aS'-'
asS'TFEB'
p1334
(lp1335
I41683977
aI41736259
aS'-'
asS'NBAT1'
p1336
(lp1337
I22134601
aI22147193
aS'-'
asS'SNORD32B'
p1338
(lp1339
I29582251
aI29582328
aS'+'
asS'PGM3'
p1340
(lp1341
I83150730
aI83193265
aS'-'
asS'SNORD101'
p1342
(lp1343
I132815306
aI132815379
aS'+'
asS'HIST1H2BE'
p1344
(lp1345
I26183795
aI26184230
aS'+'
asS'HIST1H2BF'
p1346
(lp1347
I26199558
aI26199988
aS'+'
asS'HIST1H2BG'
p1348
(lp1349
I26216200
aI26216644
aS'-'
asS'HIST1H2BA'
p1350
(lp1351
I25726908
aI25727345
aS'+'
asS'HIST1H2BB'
p1352
(lp1353
I26043226
aI26043657
aS'-'
asS'HIST1H2BC'
p1354
(lp1355
I26123466
aI26123904
aS'-'
asS'SLC26A8'
p1356
(lp1357
I35943513
aI36024636
aS'-'
asS'HIST1H2BM'
p1358
(lp1359
I27815043
aI27815489
aS'+'
asS'MTFR2'
p1360
(lp1361
I136231029
aI136250335
aS'-'
asS'HIST1H2BO'
p1362
(lp1363
I27893424
aI27893891
aS'+'
asS'HIST1H2BH'
p1364
(lp1365
I26251650
aI26252075
aS'+'
asS'HIST1H2BI'
p1366
(lp1367
I26272975
aI26273412
aS'+'
asS'HIST1H2BJ'
p1368
(lp1369
I27132315
aI27132796
aS'-'
asS'HIST1H2BK'
p1370
(lp1371
I27138292
aI27146858
aS'-'
asS'HLA-F-AS1'
p1372
(lp1373
I29726600
aI29749049
aS'-'
asS'TNFAIP3'
p1374
(lp1375
I137867187
aI137883314
aS'+'
asS'NUP153'
p1376
(lp1377
I17615034
aI17706834
aS'-'
asS'ECI2'
p1378
(lp1379
I4115692
aI4135597
aS'-'
asS'ELOVL4'
p1380
(lp1381
I79914811
aI79947598
aS'-'
asS'ELOVL5'
p1382
(lp1383
I53267397
aI53349179
aS'-'
asS'ELOVL2'
p1384
(lp1385
I10980759
aI11044391
aS'-'
asS'ZNRD1ASP'
p1386
(lp1387
I30001010
aI30061189
aS'-'
asS'LOC645967'
p1388
(lp1389
I149717620
aI149718895
aS'+'
asS'LINC00680-GUSBP4'
p1390
(lp1391
I57919880
aI57961446
aS'-'
asS'GPANK1'
p1392
(lp1393
I31661228
aI31666283
aS'-'
asS'PXDC1'
p1394
(lp1395
I3722601
aI3752012
aS'-'
asS'LINC00581'
p1396
(lp1397
I21486060
aI21511892
aS'-'
asS'CNR1'
p1398
(lp1399
I88139865
aI88165996
aS'-'
asS'HULC'
p1400
(lp1401
I8652208
aI8653846
aS'+'
asS'LINC01611'
p1402
(lp1403
I84421030
aI84474929
aS'-'
asS'KIAA1586'
p1404
(lp1405
I57046531
aI57055239
aS'+'
asS'LINC02520'
p1406
(lp1407
I37507347
aI37536280
aS'+'
asS'LINC02521'
p1408
(lp1409
I2634499
aI2640559
aS'+'
asS'LINC02523'
p1410
(lp1411
I125674352
aI125720218
aS'+'
asS'LINC02525'
p1412
(lp1413
I3182817
aI3195767
aS'-'
asS'LINC02526'
p1414
(lp1415
I106695484
aI106699994
aS'+'
asS'LINC02527'
p1416
(lp1417
I111900304
aI111909397
aS'-'
asS'LINC02528'
p1418
(lp1419
I137943075
aI137945800
aS'-'
asS'LINC02529'
p1420
(lp1421
I159383530
aI159396441
aS'+'
asS'PAQR8'
p1422
(lp1423
I52362127
aI52407777
aS'+'
asS'WTAP'
p1424
(lp1425
I159726997
aI159756321
aS'+'
asS'ANKS1A'
p1426
(lp1427
I34889260
aI35091413
aS'+'
asS'HEY2'
p1428
(lp1429
I125749631
aI125761269
aS'+'
asS'OR5V1'
p1430
(lp1431
I29355229
aI29356277
aS'-'
asS'HCG18'
p1432
(lp1433
I30287396
aI30327156
aS'-'
asS'ADTRP'
p1434
(lp1435
I11713654
aI11779047
aS'-'
asS'HCG14'
p1436
(lp1437
I28896529
aI28897320
aS'+'
asS'HCG15'
p1438
(lp1439
I28984748
aI28988567
aS'+'
asS'BLOC1S5-TXNDC5'
p1440
(lp1441
I7881249
aI8064414
aS'-'
asS'HCG17'
p1442
(lp1443
I30234038
aI30326134
aS'-'
asS'HCG11'
p1444
(lp1445
I26521705
aI26527384
aS'+'
asS'ZUP1'
p1446
(lp1447
I116635617
aI116668810
aS'-'
asS'LOC105378127'
p1448
(lp1449
I167459259
aI167472790
aS'-'
asS'PRPH2'
p1450
(lp1451
I42696594
aI42722620
aS'-'
asS'LIN28B-AS1'
p1452
(lp1453
I104936293
aI104940527
aS'-'
asS'HSPA1B'
p1454
(lp1455
I31827734
aI31830254
aS'+'
asS'HSPA1A'
p1456
(lp1457
I31815513
aI31817942
aS'+'
asS'UST'
p1458
(lp1459
I148747029
aI149076990
aS'+'
asS'FAM83B'
p1460
(lp1461
I54846770
aI54945099
aS'+'
asS'HSPA1L'
p1462
(lp1463
I31809618
aI31815058
aS'-'
asS'SLC18B1'
p1464
(lp1465
I132769367
aI132798608
aS'-'
asS'LOC101927972'
p1466
(lp1467
I5452467
aI5458075
aS'-'
asS'CPNE5'
p1468
(lp1469
I36740775
aI36839444
aS'-'
asS'UFL1'
p1470
(lp1471
I96521825
aI96555275
aS'+'
asS'ADGRF1'
p1472
(lp1473
I46997702
aI47042363
aS'-'
asS'ADGRF2'
p1474
(lp1475
I47656589
aI47697797
aS'+'
asS'SNORA38'
p1476
(lp1477
I31623078
aI31623210
aS'+'
asS'ADGRF4'
p1478
(lp1479
I47698544
aI47722021
aS'+'
asS'ADGRF5'
p1480
(lp1481
I46852505
aI46954938
aS'-'
asS'NR2E1'
p1482
(lp1483
I108166057
aI108188809
aS'+'
asS'DEFB112'
p1484
(lp1485
I50043574
aI50048651
aS'-'
asS'MIR7853'
p1486
(lp1487
I6169303
aI6169435
aS'-'
asS'ANKRD66'
p1488
(lp1489
I46746916
aI46759217
aS'+'
asS'OR2B3'
p1490
(lp1491
I29086207
aI29087313
aS'-'
asS'DXO'
p1492
(lp1493
I31969810
aI31972255
aS'-'
asS'KCNQ5-AS1'
p1494
(lp1495
I73134802
aI73143514
aS'-'
asS'LOC105378052'
p1496
(lp1497
I149934512
aI149936319
aS'+'
asS'ZDHHC14'
p1498
(lp1499
I157381524
aI157673945
aS'+'
asS'MIR30A'
p1500
(lp1501
I71403550
aI71403621
aS'-'
asS'GMDS-DT'
p1502
(lp1503
I2245752
aI2413591
aS'+'
asS'DUSP22'
p1504
(lp1505
I292056
aI351355
aS'+'
asS'LEMD2'
p1506
(lp1507
I33771212
aI33789129
aS'-'
asS'ARMH2'
p1508
(lp1509
I24797320
aI24798896
aS'-'
asS'BYSL'
p1510
(lp1511
I41921226
aI41933046
aS'+'
asS'OR12D1'
p1512
(lp1513
I29417064
aI29418396
aS'+'
asS'OR12D2'
p1514
(lp1515
I29396638
aI29397671
aS'+'
asS'OR12D3'
p1516
(lp1517
I29373422
aI29375291
aS'-'
asS'RPF2'
p1518
(lp1519
I110982016
aI111028263
aS'+'
asS'VGLL2'
p1520
(lp1521
I117265557
aI117273565
aS'+'
asS'MIR30C2'
p1522
(lp1523
I71376959
aI71377031
aS'-'
asS'PRIM2'
p1524
(lp1525
I57317629
aI57646850
aS'+'
asS'MIR1202'
p1526
(lp1527
I155946796
aI155946879
aS'+'
asS'LST1'
p1528
(lp1529
I31586178
aI31588909
aS'+'
asS'DDX43'
p1530
(lp1531
I73394561
aI73417566
aS'+'
asS'SCGN'
p1532
(lp1533
I25652200
aI25701780
aS'+'
asS'KLC4'
p1534
(lp1535
I43059593
aI43075099
aS'+'
asS'CDKN1A'
p1536
(lp1537
I36676459
aI36687339
aS'+'
asS'GPLD1'
p1538
(lp1539
I24425833
aI24489622
aS'-'
asS'OR2W1'
p1540
(lp1541
I29044212
aI29045175
aS'-'
asS'TSTD3'
p1542
(lp1543
I99520993
aI99533183
aS'+'
asS'LOC105374988'
p1544
(lp1545
I26569323
aI26574698
aS'+'
asS'APOM'
p1546
(lp1547
I31652409
aI31658210
aS'+'
asS'VNN2'
p1548
(lp1549
I132743869
aI132763459
aS'-'
asS'VTA1'
p1550
(lp1551
I142147262
aI142224684
aS'+'
asS'TAAR3P'
p1552
(lp1553
I132608224
aI132609302
aS'-'
asS'TSPYL4'
p1554
(lp1555
I116249967
aI116254098
aS'-'
asS'TSPYL1'
p1556
(lp1557
I116274858
aI116280117
aS'-'
asS'KCNK16'
p1558
(lp1559
I39314697
aI39322968
aS'-'
asS'KCNK17'
p1560
(lp1561
I39299000
aI39314461
aS'-'
asS'KCNQ5'
p1562
(lp1563
I72621842
aI73198850
aS'+'
asS'ZC2HC1B'
p1564
(lp1565
I143864435
aI143938346
aS'+'
asS'DDX39B-AS1'
p1566
(lp1567
I31542303
aI31543138
aS'+'
asS'PPP1R11'
p1568
(lp1569
I30067154
aI30070331
aS'+'
asS'PPP1R10'
p1570
(lp1571
I30600399
aI30617307
aS'-'
asS'VEGFA'
p1572
(lp1573
I43770208
aI43786486
aS'+'
asS'PPP1R18'
p1574
(lp1575
I30676388
aI30687895
aS'-'
asS'SLC39A7'
p1576
(lp1577
I33200825
aI33204437
aS'+'
asS'LINC01615'
p1578
(lp1579
I169158091
aI169162989
aS'-'
asS'LINC01268'
p1580
(lp1581
I113868013
aI113873347
aS'-'
asS'MTHFD1L'
p1582
(lp1583
I150865678
aI151101887
aS'+'
asS'LOC101928304'
p1584
(lp1585
I134525317
aI134540005
aS'-'
asS'SLC35B3'
p1586
(lp1587
I8413066
aI8435567
aS'-'
asS'LOC101928307'
p1588
(lp1589
I68632662
aI68634324
aS'-'
asS'FBXO30'
p1590
(lp1591
I145793501
aI145814795
aS'-'
asS'FLOT1'
p1592
(lp1593
I30727708
aI30742851
aS'-'
asS'ATXN1'
p1594
(lp1595
I16299111
aI16761490
aS'-'
asS'PSMB1'
p1596
(lp1597
I170535119
aI170553307
aS'-'
asS'SNX14'
p1598
(lp1599
I85505496
aI85594156
aS'-'
asS'MBOAT1'
p1600
(lp1601
I20099685
aI20212464
aS'-'
asS'AKAP12'
p1602
(lp1603
I151239966
aI151358559
aS'+'
asS'DLK2'
p1604
(lp1605
I43450351
aI43456632
aS'-'
asS'LINC01512'
p1606
(lp1607
I43891027
aI43938207
aS'+'
asS'HINT3'
p1608
(lp1609
I125956769
aI125980243
aS'+'
asS'NEDD9'
p1610
(lp1611
I11183297
aI11382348
aS'-'
asS'UNC5CL'
p1612
(lp1613
I41026895
aI41039221
aS'-'
asS'OR2A4'
p1614
(lp1615
I131699643
aI131701401
aS'-'
asS'SCAT8'
p1616
(lp1617
I63806835
aI63822642
aS'+'
asS'PIP5K1P1'
p1618
(lp1619
I7986101
aI7990344
aS'+'
asS'LTB'
p1620
(lp1621
I31580558
aI31582425
aS'-'
asS'LTA'
p1622
(lp1623
I31572098
aI31574323
aS'+'
asS'TINAG'
p1624
(lp1625
I54308404
aI54390152
aS'+'
asS'SCAF8'
p1626
(lp1627
I154733377
aI154834244
aS'+'
asS'TMEM63B'
p1628
(lp1629
I44126913
aI44155519
aS'+'
asS'C6orf118'
p1630
(lp1631
I165279663
aI165309622
aS'-'
asS'LTV1'
p1632
(lp1633
I143843272
aI143863812
aS'+'
asS'AFDN'
p1634
(lp1635
I167826563
aI167972022
aS'+'
asS'LINC01600'
p1636
(lp1637
I2621912
aI2634603
aS'-'
asS'ABT1'
p1638
(lp1639
I26596942
aI26600049
aS'+'
asS'TARID'
p1640
(lp1641
I133502251
aI133889006
aS'-'
asS'LINC00266-3'
p1642
(lp1643
I140263
aI148159
aS'-'
asS'COL10A1'
p1644
(lp1645
I116118921
aI116126133
aS'-'
asS'HLA-DRA'
p1646
(lp1647
I32439886
aI32445046
aS'+'
asS'TCP10L2'
p1648
(lp1649
I167170592
aI167182908
aS'+'
asS'PGC'
p1650
(lp1651
I41736710
aI41747401
aS'-'
asS'ELOVL2-AS1'
p1652
(lp1653
I11043757
aI11079144
aS'+'
asS'CRISP1'
p1654
(lp1655
I49834265
aI49877096
aS'-'
asS'CRISP3'
p1656
(lp1657
I49727380
aI49744455
aS'-'
asS'CRISP2'
p1658
(lp1659
I49692357
aI49713590
aS'-'
asS'LOC101926962'
p1660
(lp1661
I46903470
aI46910027
aS'+'
asS'ATP6V0CP3'
p1662
(lp1663
I42727575
aI42728194
aS'+'
asS'C6orf120'
p1664
(lp1665
I169702111
aI169706357
aS'+'
asS'ADAT2'
p1666
(lp1667
I143422831
aI143450704
aS'-'
asS'MRS2'
p1668
(lp1669
I24402907
aI24426194
aS'+'
asS'LOC643327'
p1670
(lp1671
I3455702
aI3469010
aS'+'
asS'TTBK1'
p1672
(lp1673
I43243679
aI43288259
aS'+'
asS'EXOC2'
p1674
(lp1675
I485137
aI693141
aS'-'
asS'E2F3'
p1676
(lp1677
I20401905
aI20493714
aS'+'
asS'STMND1'
p1678
(lp1679
I17102257
aI17131372
aS'+'
asS'C6orf89'
p1680
(lp1681
I36871869
aI36928964
aS'+'
asS'RPS6KA2-AS1'
p1682
(lp1683
I166903697
aI166905069
aS'+'
asS'FUT9'
p1684
(lp1685
I96015968
aI96215612
aS'+'
asS'SNORA20'
p1686
(lp1687
I159780249
aI159780381
aS'-'
asS'MIR3668'
p1688
(lp1689
I140205251
aI140205326
aS'+'
asS'GSTA4'
p1690
(lp1691
I52977947
aI52995380
aS'-'
asS'GSTA5'
p1692
(lp1693
I52831742
aI52846095
aS'-'
asS'LINC00951'
p1694
(lp1695
I40344344
aI40356006
aS'-'
asS'GSTA1'
p1696
(lp1697
I52791379
aI52803967
aS'-'
asS'GSTA2'
p1698
(lp1699
I52750086
aI52763563
aS'-'
asS'GSTA3'
p1700
(lp1701
I52896640
aI52909698
aS'-'
asS'STXBP5-AS1'
p1702
(lp1703
I146841388
aI147204614
aS'-'
asS'LOC101927365'
p1704
(lp1705
I99424870
aI99431314
aS'+'
asS'DDX39B'
p1706
(lp1707
I31530218
aI31542475
aS'-'
asS'DYNLT1'
p1708
(lp1709
I158636474
aI158644786
aS'-'
asS'PXT1'
p1710
(lp1711
I36390550
aI36442889
aS'-'
asS'LOC105378068'
p1712
(lp1713
I155514843
aI155526018
aS'+'
asS'HGC6.3'
p1714
(lp1715
I167975923
aI167976939
aS'-'
asS'LOC105377849'
p1716
(lp1717
I70412827
aI70413958
aS'-'
asS'HYMAI'
p1718
(lp1719
I144004915
aI144008730
aS'-'
asS'REV3L'
p1720
(lp1721
I111299030
aI111483715
aS'-'
asS'CENPW'
p1722
(lp1723
I126339788
aI126483320
aS'+'
asS'CENPQ'
p1724
(lp1725
I49463382
aI49493107
aS'+'
asS'KIFC1'
p1726
(lp1727
I33391535
aI33409922
aS'+'
asS'ADGRG6'
p1728
(lp1729
I142301918
aI142446266
aS'+'
asS'SAYSD1'
p1730
(lp1731
I39104062
aI39115186
aS'-'
asS'MIR1275'
p1732
(lp1733
I33999971
aI34000051
aS'-'
asS'SEC63'
p1734
(lp1735
I107867755
aI107958278
aS'-'
asS'TRIM39-RPP21'
p1736
(lp1737
I30329310
aI30346858
aS'+'
asS'LOC101928461'
p1738
(lp1739
I136629113
aI136648198
aS'+'
asS'HPAT5'
p1740
(lp1741
I167228299
aI167237512
aS'+'
asS'ZNF165'
p1742
(lp1743
I28080567
aI28089562
aS'+'
asS'ZNF184'
p1744
(lp1745
I27404010
aI27473118
aS'-'
asS'RPP21'
p1746
(lp1747
I30345128
aI30346858
aS'+'
asS'VNN3'
p1748
(lp1749
I132722786
aI132734765
aS'-'
asS'VNN1'
p1750
(lp1751
I132680857
aI132714055
aS'-'
asS'CCDC162P'
p1752
(lp1753
I109165830
aI109354948
aS'+'
asS'COX7A2'
p1754
(lp1755
I75237674
aI75250298
aS'-'
asS'PRR18'
p1756
(lp1757
I166305679
aI166308383
aS'-'
asS'LOC105374972'
p1758
(lp1759
I22643509
aI22717924
aS'-'
asS'TBP'
p1760
(lp1761
I170554332
aI170572870
aS'+'
asS'DNAH8'
p1762
(lp1763
I38715340
aI39030798
aS'+'
asS'TUBE1'
p1764
(lp1765
I112070656
aI112087548
aS'-'
asS'RPL7L1'
p1766
(lp1767
I42879615
aI42889896
aS'+'
asS'POU5F1'
p1768
(lp1769
I31164336
aI31170693
aS'-'
asS'MEAT6'
p1770
(lp1771
I164793376
aI164822063
aS'-'
asS'TREM1'
p1772
(lp1773
I41267384
aI41286745
aS'-'
asS'TREM2'
p1774
(lp1775
I41158505
aI41163186
aS'-'
asS'GMNN'
p1776
(lp1777
I24774930
aI24786097
aS'+'
asS'RANBP9'
p1778
(lp1779
I13621497
aI13711835
aS'-'
asS'ABRACL'
p1780
(lp1781
I139028681
aI139043302
aS'+'
asS'TBX18'
p1782
(lp1783
I84732495
aI84764236
aS'-'
asS'KATNBL1P6'
p1784
(lp1785
I146801668
aI146803824
aS'-'
asS'FGD2'
p1786
(lp1787
I37005646
aI37029069
aS'+'
asS'SNORD166'
p1788
(lp1789
I111113833
aI111113939
aS'+'
asS'LINC01564'
p1790
(lp1791
I53628379
aI53631394
aS'+'
asS'STX7'
p1792
(lp1793
I132457523
aI132513472
aS'-'
asS'MUCL3'
p1794
(lp1795
I30940999
aI30954221
aS'+'
asS'TRAM2'
p1796
(lp1797
I52497401
aI52577064
aS'-'
asS'PHF10'
p1798
(lp1799
I169703905
aI169724010
aS'-'
asS'F13A1'
p1800
(lp1801
I6144077
aI6320691
aS'-'
asS'C6orf106'
p1802
(lp1803
I34587279
aI34696850
aS'-'
asS'CLIC1'
p1804
(lp1805
I31730580
aI31737318
aS'-'
asS'CDYL'
p1806
(lp1807
I4706158
aI4955544
aS'+'
asS'LINC02542'
p1808
(lp1809
I81843780
aI82101765
aS'-'
asS'LINC02540'
p1810
(lp1811
I76522448
aI76593623
aS'-'
asS'LINC02541'
p1812
(lp1813
I113623534
aI113650075
aS'-'
asS'EZR-AS1'
p1814
(lp1815
I158817978
aI158822239
aS'+'
asS'PPT2-EGFL8'
p1816
(lp1817
I32153998
aI32168285
aS'+'
asS'LINC02549'
p1818
(lp1819
I68226969
aI68329899
aS'-'
asS'ZBTB2'
p1820
(lp1821
I151364114
aI151391700
aS'-'
asS'CYP21A2'
p1822
(lp1823
I32038315
aI32041670
aS'+'
asS'ZBTB9'
p1824
(lp1825
I33454575
aI33457543
aS'+'
asS'TXLNB'
p1826
(lp1827
I139240060
aI139292071
aS'-'
asS'SYNGAP1'
p1828
(lp1829
I33420069
aI33453689
aS'+'
asS'CASC6'
p1830
(lp1831
I91629039
aI91690428
aS'-'
asS'TCP11'
p1832
(lp1833
I35118070
aI35141410
aS'-'
asS'TCP10'
p1834
(lp1835
I167373088
aI167384510
aS'-'
asS'EVADR'
p1836
(lp1837
I70394201
aI70399417
aS'+'
asS'LOC100507547'
p1838
(lp1839
I32152801
aI32154365
aS'-'
asS'WDR46'
p1840
(lp1841
I33279102
aI33289527
aS'-'
asS'DLL1'
p1842
(lp1843
I170282205
aI170290609
aS'-'
asS'TBC1D22B'
p1844
(lp1845
I37257703
aI37332970
aS'+'
asS'HTR1B'
p1846
(lp1847
I77460847
aI77464022
aS'-'
asS'OR10C1'
p1848
(lp1849
I29439938
aI29440977
aS'+'
asS'AGER'
p1850
(lp1851
I32180967
aI32184322
aS'-'
asS'GPR31'
p1852
(lp1853
I167156871
aI167157831
aS'-'
asS'TOB2P1'
p1854
(lp1855
I28215337
aI28218929
aS'-'
asS'FAM50B'
p1856
(lp1857
I3849365
aI3851320
aS'+'
asS'C6orf99'
p1858
(lp1859
I158869813
aI158910402
aS'+'
asS'HCG4'
p1860
(lp1861
I29791030
aI29793073
aS'-'
asS'LINC01011'
p1862
(lp1863
I2987966
aI2991171
aS'+'
asS'LINC01010'
p1864
(lp1865
I134437715
aI134504020
aS'+'
asS'LINC01013'
p1866
(lp1867
I132133977
aI132169374
aS'+'
asS'LINC01012'
p1868
(lp1869
I27694034
aI27710222
aS'+'
asS'LINC01015'
p1870
(lp1871
I29529405
aI29533568
aS'+'
asS'LINC01016'
p1872
(lp1873
I33889510
aI33896907
aS'-'
asS'LY6G6F-LY6G6D'
p1874
(lp1875
I31706868
aI31717837
aS'+'
asS'LRRC1'
p1876
(lp1877
I53795004
aI53924125
aS'+'
asS'KIF25'
p1878
(lp1879
I168017872
aI168045089
aS'+'
asS'RNF182'
p1880
(lp1881
I13924445
aI13980009
aS'+'
asS'SNHG5'
p1882
(lp1883
I85677006
aI85678733
aS'-'
asS'APOBEC2'
p1884
(lp1885
I41053200
aI41064891
aS'+'
asS'RHAG'
p1886
(lp1887
I49605176
aI49636874
aS'-'
asS'ZBTB22'
p1888
(lp1889
I33314404
aI33317942
aS'-'
asS'RNF217'
p1890
(lp1891
I124962544
aI125092634
aS'+'
asS'ZBTB24'
p1892
(lp1893
I109462515
aI109483237
aS'-'
asS'CLVS2'
p1894
(lp1895
I122995970
aI123072919
aS'+'
asS'MIR7161'
p1896
(lp1897
I158609706
aI158609790
aS'+'
asS'MED20'
p1898
(lp1899
I41905352
aI41921147
aS'-'
asS'MED23'
p1900
(lp1901
I131573965
aI131628239
aS'-'
asS'UHRF1BP1'
p1902
(lp1903
I34792016
aI34877514
aS'+'
asS'LOC105378098'
p1904
(lp1905
I161470976
aI161484045
aS'+'
asS'FAM184A'
p1906
(lp1907
I118959828
aI119149193
aS'-'
asS'EEF1E1-BLOC1S5'
p1908
(lp1909
I8013566
aI8102595
aS'-'
asS'HDAC2-AS2'
p1910
(lp1911
I113969700
aI114340729
aS'+'
asS'DDO'
p1912
(lp1913
I110392179
aI110415550
aS'-'
asS'DTNBP1'
p1914
(lp1915
I15522800
aI15663058
aS'-'
asS'LGSN'
p1916
(lp1917
I63275950
aI63319977
aS'-'
asS'BTNL2'
p1918
(lp1919
I32393338
aI32407130
aS'-'
asS'SCUBE3'
p1920
(lp1921
I35213955
aI35253079
aS'+'
asS'RWDD1'
p1922
(lp1923
I116571366
aI116593601
aS'+'
asS'ATP6V1G2'
p1924
(lp1925
I31544443
aI31546742
aS'-'
asS'PPP2R5D'
p1926
(lp1927
I42984498
aI43012345
aS'+'
asS'MLIP-IT1'
p1928
(lp1929
I53998889
aI54007152
aS'+'
asS'PHF3'
p1930
(lp1931
I63635801
aI63715522
aS'+'
asS'PHF1'
p1932
(lp1933
I33410995
aI33416453
aS'+'
asS'SMIM13'
p1934
(lp1935
I11094032
aI11138736
aS'+'
asS'LOC100505635'
p1936
(lp1937
I39888789
aI39897380
aS'-'
asS'FBXO5'
p1938
(lp1939
I152970518
aI152983619
aS'-'
asS'FBXO9'
p1940
(lp1941
I53064997
aI53100872
aS'+'
asS'SNORD84'
p1942
(lp1943
I31541100
aI31541178
aS'-'
asS'MFSD4B'
p1944
(lp1945
I111259278
aI111269058
aS'+'
asS'HACE1'
p1946
(lp1947
I104728092
aI104859919
aS'-'
asS'LOC101928253'
p1948
(lp1949
I11990342
aI12001244
aS'-'
asS'LOC105374960'
p1950
(lp1951
I19449820
aI19459348
aS'+'
asS'VARS2'
p1952
(lp1953
I30914207
aI30926458
aS'+'
asS'FHL5'
p1954
(lp1955
I96562524
aI96618624
aS'+'
asS'LOC100131047'
p1956
(lp1957
I38906494
aI38953107
aS'-'
asS'TRAM2-AS1'
p1958
(lp1959
I52577201
aI52583993
aS'+'
asS'LOC102723883'
p1960
(lp1961
I68055350
aI68060502
aS'+'
asS'NT5DC1'
p1962
(lp1963
I116100835
aI116245690
aS'+'
asS'HIST1H2APS1'
p1964
(lp1965
I25732432
aI25732861
aS'+'
asS'PRRT1'
p1966
(lp1967
I32148358
aI32153083
aS'-'
asS'CAPN11'
p1968
(lp1969
I44158819
aI44184401
aS'+'
asS'TBXT'
p1970
(lp1971
I166157655
aI166168669
aS'-'
asS'SLC35D3'
p1972
(lp1973
I136922300
aI136925660
aS'+'
asS'GPSM3'
p1974
(lp1975
I32190765
aI32195523
aS'-'
asS'HS3ST5'
p1976
(lp1977
I114055585
aI114062877
aS'-'
asS'SNORD156'
p1978
(lp1979
I75128708
aI75128782
aS'-'
asS'KIAA0408'
p1980
(lp1981
I127438405
aI127459390
aS'-'
asS'GUSBP4'
p1982
(lp1983
I57908552
aI57936929
aS'-'
asS'GUSBP2'
p1984
(lp1985
I26871486
aI26956554
aS'-'
asS'LOC100129636'
p1986
(lp1987
I29036020
aI29076740
aS'+'
asS'WASF1'
p1988
(lp1989
I110099818
aI110180004
aS'-'
asS'RIPPLY2'
p1990
(lp1991
I83853265
aI83857516
aS'+'
asS'LOC101929122'
p1992
(lp1993
I159165898
aI159170007
aS'-'
asS'SYNJ2'
p1994
(lp1995
I157981855
aI158099175
aS'+'
asS'SLC22A1'
p1996
(lp1997
I160121830
aI160158718
aS'+'
asS'MYCT1'
p1998
(lp1999
I152697894
aI152724580
aS'+'
asS'GPX6'
p2000
(lp2001
I28503295
aI28515793
aS'-'
asS'GTPBP2'
p2002
(lp2003
I43620480
aI43629246
aS'-'
asS'C6orf132'
p2004
(lp2005
I42101118
aI42142977
aS'-'
asS'C6orf136'
p2006
(lp2007
I30647038
aI30653210
aS'+'
asS'LINC02571'
p2008
(lp2009
I31293907
aI31301637
aS'-'
asS'LINC02570'
p2010
(lp2011
I30839528
aI30848159
aS'-'
asS'LOC285766'
p2012
(lp2013
I181465
aI205484
aS'-'
asS'ATF6B'
p2014
(lp2015
I32115267
aI32128240
aS'-'
asS'GSTA7P'
p2016
(lp2017
I52739462
aI52745159
aS'-'
asS'LOC285762'
p2018
(lp2019
I119452546
aI119491302
aS'-'
asS'CCDC167'
p2020
(lp2021
I37482937
aI37499893
aS'-'
asS'LYRM2'
p2022
(lp2023
I89632223
aI89638755
aS'-'
asS'CCDC28A'
p2024
(lp2025
I138773519
aI138793319
aS'+'
asS'LYRM4'
p2026
(lp2027
I5068326
aI5260950
aS'-'
asS'LOC100507557'
p2028
(lp2029
I145734868
aI145886585
aS'+'
asS'TRMT11'
p2030
(lp2031
I125986429
aI126079718
aS'+'
asS'LINC02544'
p2032
(lp2033
I169175303
aI169182740
aS'-'
asS'PDE7B'
p2034
(lp2035
I135851695
aI136195571
aS'+'
asS'LOC644135'
p2036
(lp2037
I136043851
aI136072827
aS'-'
asS'CARMIL1'
p2038
(lp2039
I25279427
aI25620530
aS'+'
asS'MYB'
p2040
(lp2041
I135181307
aI135219172
aS'+'
asS'PRRC2A'
p2042
(lp2043
I31620672
aI31637777
aS'+'
asS'SERPINB9'
p2044
(lp2045
I2887265
aI2903312
aS'-'
asS'LOC101927691'
p2046
(lp2047
I868497
aI876613
aS'+'
asS'SERPINB1'
p2048
(lp2049
I2832331
aI2842049
aS'-'
asS'SERPINB6'
p2050
(lp2051
I2948158
aI2972165
aS'-'
asS'PNLDC1'
p2052
(lp2053
I159800248
aI159820704
aS'+'
asS'HCG4B'
p2054
(lp2055
I29924591
aI29927215
aS'-'
asS'C6orf62'
p2056
(lp2057
I24704860
aI24719175
aS'-'
asS'UBD'
p2058
(lp2059
I29555611
aI29559925
aS'-'
asS'LINC00533'
p2060
(lp2061
I28648285
aI28654475
aS'-'
asS'MPIG6B'
p2062
(lp2063
I31723343
aI31726708
aS'+'
asS'LCAL1'
p2064
(lp2065
I79307668
aI79313384
aS'-'
asS'DEK'
p2066
(lp2067
I18224168
aI18264568
aS'-'
asS'LOC101927189'
p2068
(lp2069
I53929981
aI53997667
aS'+'
asS'MANEA'
p2070
(lp2071
I95577496
aI95609452
aS'+'
asS'KLHDC3'
p2072
(lp2073
I43014102
aI43021298
aS'+'
asS'LOC730101'
p2074
(lp2075
I52664400
aI52669153
aS'+'
asS'LOC100506207'
p2076
(lp2077
I8435622
aI8785445
aS'+'
asS'NKAPL'
p2078
(lp2079
I28259296
aI28260958
aS'+'
asS'TNXB'
p2080
(lp2081
I32041153
aI32109338
aS'-'
asS'ZKSCAN3'
p2082
(lp2083
I28349913
aI28369177
aS'+'
asS'HDDC2'
p2084
(lp2085
I125275349
aI125302136
aS'-'
asS'TNXA'
p2086
(lp2087
I32008419
aI32013023
aS'-'
asS'LUADT1'
p2088
(lp2089
I147158924
aI147180992
aS'+'
asS'LOC102724511'
p2090
(lp2091
I170160641
aI170163027
aS'+'
asS'CAGE1'
p2092
(lp2093
I7326653
aI7389709
aS'-'
asS'TMEM170B'
p2094
(lp2095
I11538226
aI11583524
aS'+'
asS'TRAPPC3L'
p2096
(lp2097
I116496487
aI116545610
aS'-'
asS'KLHL32'
p2098
(lp2099
I96898082
aI97114742
aS'+'
asS'SIRT5'
p2100
(lp2101
I13574528
aI13615158
aS'+'
asS'KLHL31'
p2102
(lp2103
I53647900
aI53665708
aS'-'
asS'NHSL1'
p2104
(lp2105
I138422043
aI138572531
aS'-'
asS'RPS6KA2-IT1'
p2106
(lp2107
I166460662
aI166465383
aS'-'
asS'PAK1IP1'
p2108
(lp2109
I10694971
aI10709782
aS'+'
asS'SERAC1'
p2110
(lp2111
I158109518
aI158168262
aS'-'
asS'TRIM40'
p2112
(lp2113
I30136107
aI30148735
aS'+'
asS'TBPL1'
p2114
(lp2115
I133952169
aI133987500
aS'+'
asS'PEX7'
p2116
(lp2117
I136822591
aI136913934
aS'+'
asS'PEX6'
p2118
(lp2119
I42963872
aI42979243
aS'-'
asS'MRAP2'
p2120
(lp2121
I84033658
aI84090886
aS'+'
asS'RBM24'
p2122
(lp2123
I17281577
aI17293868
aS'+'
asS'BTN3A2'
p2124
(lp2125
I26365158
aI26378320
aS'+'
asS'BTN3A3'
p2126
(lp2127
I26440471
aI26453415
aS'+'
asS'BTN3A1'
p2128
(lp2129
I26402236
aI26415216
aS'+'
asS'EPHA7'
p2130
(lp2131
I93240020
aI93419582
aS'-'
asS'MIR5685'
p2132
(lp2133
I53276992
aI53277071
aS'+'
asS'ME1'
p2134
(lp2135
I83210390
aI83431219
aS'-'
asS'GPRC6A'
p2136
(lp2137
I116792084
aI116829057
aS'-'
asS'HFE'
p2138
(lp2139
I26087280
aI26095241
aS'+'
asS'MIR5683'
p2140
(lp2141
I6169333
aI6169409
aS'+'
asS'PBOV1'
p2142
(lp2143
I138215985
aI138218490
aS'-'
asS'LOC154449'
p2144
(lp2145
I170254333
aI170262569
aS'-'
asS'TBC1D7'
p2146
(lp2147
I13304950
aI13328583
aS'-'
asS'PHIP'
p2148
(lp2149
I78934418
aI79078298
aS'-'
asS'CITED2'
p2150
(lp2151
I139372254
aI139374650
aS'-'
asS'ABHD16A'
p2152
(lp2153
I31686948
aI31703360
aS'-'
asS'PFDN6'
p2154
(lp2155
I33289596
aI33290934
aS'+'
asS'PDSS2'
p2156
(lp2157
I107152562
aI107459564
aS'-'
asS'COL9A1'
p2158
(lp2159
I70216039
aI70303083
aS'-'
asS'SYNE1'
p2160
(lp2161
I152121683
aI152637399
aS'-'
asS'MIR5689'
p2162
(lp2163
I10439716
aI10439794
aS'+'
asS'GOPC'
p2164
(lp2165
I117560269
aI117602542
aS'-'
asS'LOC105374952'
p2166
(lp2167
I17707042
aI17711027
aS'+'
asS'RNF144B'
p2168
(lp2169
I18387349
aI18468874
aS'+'
asS'PHACTR2-AS1'
p2170
(lp2171
I143554114
aI143569339
aS'-'
asS'NUS1'
p2172
(lp2173
I117675459
aI117710723
aS'+'
asS'RPS12'
p2174
(lp2175
I132814568
aI132817564
aS'+'
asS'RPS10'
p2176
(lp2177
I34417453
aI34426125
aS'-'
asS'CLPS'
p2178
(lp2179
I35794981
aI35797344
aS'-'
asS'RPS18'
p2180
(lp2181
I33272074
aI33276504
aS'+'
asS'IL17F'
p2182
(lp2183
I52236685
aI52244500
aS'-'
asS'RIPK1'
p2184
(lp2185
I3063840
aI3115192
aS'+'
asS'LATS1'
p2186
(lp2187
I149658152
aI149718256
aS'-'
asS'ZC3H12D'
p2188
(lp2189
I149447629
aI149485012
aS'-'
asS'BEND3'
p2190
(lp2191
I107065184
aI107115515
aS'-'
asS'GCLC'
p2192
(lp2193
I53497340
aI53545129
aS'-'
asS'LINC00243'
p2194
(lp2195
I30812865
aI30830659
aS'-'
asS'KCTD20'
p2196
(lp2197
I36442766
aI36491143
aS'+'
asS'RRAGD'
p2198
(lp2199
I89364615
aI89412276
aS'-'
asS'TRDN-AS1'
p2200
(lp2201
I123439603
aI123471756
aS'+'
asS'PIM1'
p2202
(lp2203
I37170145
aI37175428
aS'+'
asS'TENT5A'
p2204
(lp2205
I81745729
aI81752711
aS'-'
asS'TNF'
p2206
(lp2207
I31575566
aI31578335
aS'+'
asS'EZR'
p2208
(lp2209
I158765740
aI158819424
aS'-'
asS'LOC729603'
p2210
(lp2211
I160093081
aI160096212
aS'+'
asS'OR2B2'
p2212
(lp2213
I27911184
aI27912396
aS'-'
asS'MSH5-SAPCD1'
p2214
(lp2215
I31739947
aI31764847
aS'+'
asS'PTPRK'
p2216
(lp2217
I127968778
aI128520674
aS'-'
asS'OR2B6'
p2218
(lp2219
I27957240
aI27958182
aS'+'
asS'STK19'
p2220
(lp2221
I31971174
aI31981446
aS'+'
asS'FKBP5'
p2222
(lp2223
I35573584
aI35728583
aS'-'
asS'RARS2'
p2224
(lp2225
I87513934
aI87590032
aS'-'
asS'OSTCP1'
p2226
(lp2227
I158841125
aI158857632
aS'-'
asS'SRSF12'
p2228
(lp2229
I89095958
aI89118081
aS'-'
asS'LOC153910'
p2230
(lp2231
I142526454
aI142637889
aS'-'
asS'LINC02569'
p2232
(lp2233
I30516265
aI30519580
aS'+'
asS'KIF25-AS1'
p2234
(lp2235
I167994186
aI167997077
aS'-'
asS'HEBP2'
p2236
(lp2237
I138403530
aI138413445
aS'+'
asS'HBS1L'
p2238
(lp2239
I134960382
aI135054898
aS'-'
asS'LINC01149'
p2240
(lp2241
I31441666
aI31446973
aS'+'
asS'LOC101927759'
p2242
(lp2243
I3024062
aI3027434
aS'+'
asS'MIR4465'
p2244
(lp2245
I140683813
aI140683883
aS'+'
asS'MIR4464'
p2246
(lp2247
I90312741
aI90312833
aS'+'
asS'MIR4466'
p2248
(lp2249
I156779677
aI156779731
aS'-'
asS'LOC441179'
p2250
(lp2251
I167795528
aI167798248
aS'+'
asS'MIR4463'
p2252
(lp2253
I75428406
aI75428473
aS'+'
asS'MIR4462'
p2254
(lp2255
I37555365
aI37555422
aS'-'
asS'MIR3662'
p2256
(lp2257
I134979337
aI134979432
aS'-'
asS'GSTM2P1'
p2258
(lp2259
I111046418
aI111047554
aS'-'
asS'ARMC2-AS1'
p2260
(lp2261
I108908139
aI108924103
aS'-'
asS'FKBPL'
p2262
(lp2263
I32128706
aI32130290
aS'-'
asS'CCND3'
p2264
(lp2265
I41934932
aI42048894
aS'-'
asS'LOC101926915'
p2266
(lp2267
I46276323
aI46365505
aS'+'
asS'IPCEF1'
p2268
(lp2269
I154154482
aI154356766
aS'-'
asS'TCF19'
p2270
(lp2271
I31158523
aI31164215
aS'+'
asS'HMGN4'
p2272
(lp2273
I26538343
aI26546936
aS'+'
asS'HMGN3'
p2274
(lp2275
I79201244
aI79234738
aS'-'
asS'CLPSL1'
p2276
(lp2277
I35781016
aI35793986
aS'+'
asS'CLPSL2'
p2278
(lp2279
I35776593
aI35779552
aS'+'
asS'GABBR1'
p2280
(lp2281
I29602227
aI29633135
aS'-'
asS'SOD2-OT1'
p2282
(lp2283
I159760258
aI159762332
aS'-'
asS'RWDD2A'
p2284
(lp2285
I83193312
aI83198935
aS'+'
asS'C4A'
p2286
(lp2287
I31982056
aI32002680
aS'+'
asS'C4B'
p2288
(lp2289
I31982056
aI32002681
aS'+'
asS'HIST1H2BD'
p2290
(lp2291
I26158120
aI26171348
aS'+'
asS'SNORD100'
p2292
(lp2293
I132816801
aI132816877
aS'+'
asS'SLC22A7'
p2294
(lp2295
I43298259
aI43305538
aS'+'
asS'GPX5'
p2296
(lp2297
I28526011
aI28534951
aS'+'
asS'PRDM1'
p2298
(lp2299
I106086319
aI106109939
aS'+'
asS'SLC22A2'
p2300
(lp2301
I160216761
aI160258931
aS'-'
asS'SLC22A3'
p2302
(lp2303
I160348372
aI160452579
aS'+'
asS'CAHM'
p2304
(lp2305
I163413064
aI163413950
aS'-'
asS'CRIP3'
p2306
(lp2307
I43305471
aI43308826
aS'-'
asS'GABRR1'
p2308
(lp2309
I89177503
aI89231288
aS'-'
asS'GABRR2'
p2310
(lp2311
I89254465
aI89315299
aS'-'
asS'RCAN2'
p2312
(lp2313
I46220729
aI46492067
aS'-'
asS'HIST1H2BL'
p2314
(lp2315
I27807478
aI27807931
aS'-'
asS'TAF11'
p2316
(lp2317
I34877777
aI34888071
aS'-'
asS'RNASET2'
p2318
(lp2319
I166922114
aI166956550
aS'-'
asS'HIST1H2BN'
p2320
(lp2321
I27838661
aI27839110
aS'+'
asS'POLH'
p2322
(lp2323
I43576140
aI43620523
aS'+'
asS'ADGRB3'
p2324
(lp2325
I68635281
aI69389506
aS'+'
asS'BEND6'
p2326
(lp2327
I56954974
aI57027344
aS'+'
asS'LAMA2'
p2328
(lp2329
I128883140
aI129516565
aS'+'
asS'LAMA4'
p2330
(lp2331
I112107930
aI112254715
aS'-'
asS'IL17A'
p2332
(lp2333
I52186374
aI52190638
aS'+'
asS'SYNJ2-IT1'
p2334
(lp2335
I158001106
aI158002383
aS'+'
asS'LOC105377967'
p2336
(lp2337
I118085902
aI118095472
aS'+'
asS'RXRB'
p2338
(lp2339
I33193584
aI33200853
aS'-'
asS'ICK'
p2340
(lp2341
I53001299
aI53061802
aS'-'
asS'OPRM1'
p2342
(lp2343
I154039410
aI154246867
aS'+'
asS'LOC101928433'
p2344
(lp2345
I16761137
aI16766883
aS'+'
asS'BPHL'
p2346
(lp2347
I3118375
aI3153198
aS'+'
asS'HCG9'
p2348
(lp2349
I29975114
aI29978400
aS'+'
asS'TMEM151B'
p2350
(lp2351
I44270742
aI44279445
aS'+'
asS'LOC101929420'
p2352
(lp2353
I168242937
aI168262578
aS'+'
asS'QKI'
p2354
(lp2355
I163414642
aI163578596
aS'+'
asS'MIR6835'
p2356
(lp2357
I34240672
aI34240736
aS'+'
asS'HSD17B8'
p2358
(lp2359
I33204636
aI33206831
aS'+'
asS'AARS2'
p2360
(lp2361
I44298725
aI44313326
aS'-'
asS'TTLL2'
p2362
(lp2363
I167325085
aI167342689
aS'+'
asS'SLC35F1'
p2364
(lp2365
I117907525
aI118317676
aS'+'
asS'MYO6'
p2366
(lp2367
I75749175
aI75919537
aS'+'
asS'IER3'
p2368
(lp2369
I30743198
aI30744550
aS'-'
asS'KIF13A'
p2370
(lp2371
I17759182
aI17987623
aS'-'
asS'MIR133B'
p2372
(lp2373
I52148922
aI52149041
aS'+'
asS'ZNF391'
p2374
(lp2375
I27374634
aI27403907
aS'+'
asS'GJE1'
p2376
(lp2377
I142133158
aI142134922
aS'+'
asS'COL11A2'
p2378
(lp2379
I33162691
aI33192468
aS'-'
asS'MPC1'
p2380
(lp2381
I166364919
aI166383013
aS'-'
asS'PACRG-AS3'
p2382
(lp2383
I163181644
aI163192002
aS'-'
asS'PACRG-AS2'
p2384
(lp2385
I163042979
aI163054161
aS'-'
asS'PACRG-AS1'
p2386
(lp2387
I163309984
aI163324473
aS'-'
asS'LINC01556'
p2388
(lp2389
I28943783
aI28944538
aS'+'
asS'GCM1'
p2390
(lp2391
I53126961
aI53148826
aS'-'
asS'GCM2'
p2392
(lp2393
I10873222
aI10881865
aS'-'
asS'LINC01558'
p2394
(lp2395
I167784538
aI167796859
aS'-'
asS'ROS1'
p2396
(lp2397
I117288366
aI117425855
aS'-'
asS'POPDC3'
p2398
(lp2399
I105157899
aI105179983
aS'-'
asS'FOXF2'
p2400
(lp2401
I1389575
aI1395603
aS'+'
asS'LOC100287467'
p2402
(lp2403
I116367424
aI116371719
aS'-'
asS'MCHR2'
p2404
(lp2405
I99919909
aI99994238
aS'-'
asS'EYS'
p2406
(lp2407
I63719979
aI65707225
aS'-'
asS'TFB1M'
p2408
(lp2409
I155229870
aI155314483
aS'-'
asS'LPA'
p2410
(lp2411
I160531482
aI160664259
aS'-'
asS'LOC100506188'
p2412
(lp2413
I57260523
aI57263346
aS'-'
asS'SYNCRIP'
p2414
(lp2415
I85607783
aI85643325
aS'-'
asS'TBC1D7-LOC100130357'
p2416
(lp2417
I13266541
aI13328583
aS'-'
asS'ARID1B'
p2418
(lp2419
I156777854
aI157210779
aS'+'
asS'VIP'
p2420
(lp2421
I152750796
aI152759766
aS'+'
asS'ALDH5A1'
p2422
(lp2423
I24494968
aI24537207
aS'+'
asS'YIPF3'
p2424
(lp2425
I43511831
aI43516926
aS'-'
asS'DDAH2'
p2426
(lp2427
I31727036
aI31730265
aS'-'
asS'HUS1B'
p2428
(lp2429
I655938
aI656964
aS'-'
asS'CYB5R4'
p2430
(lp2431
I83859650
aI83960427
aS'+'
asS'SNX9'
p2432
(lp2433
I157823170
aI157945077
aS'+'
asS'SLC29A1'
p2434
(lp2435
I44219504
aI44234151
aS'+'
asS'RNGTT'
p2436
(lp2437
I88609896
aI88963629
aS'-'
asS'SHPRH'
p2438
(lp2439
I145884808
aI145964097
aS'-'
asS'RUNX2'
p2440
(lp2441
I45328316
aI45551082
aS'+'
asS'LINC00602'
p2442
(lp2443
I165987550
aI165989615
aS'+'
asS'TREML3P'
p2444
(lp2445
I41208553
aI41217947
aS'-'
asS'OR1F12'
p2446
(lp2447
I28073315
aI28074329
aS'+'
asS'FIG4'
p2448
(lp2449
I109691220
aI109825431
aS'+'
asS'SAPCD1'
p2450
(lp2451
I31762995
aI31764847
aS'+'
asS'UNC93A'
p2452
(lp2453
I167291314
aI167316014
aS'+'
asS'C6orf201'
p2454
(lp2455
I4079205
aI4130765
aS'+'
asS'C6orf203'
p2456
(lp2457
I107028171
aI107051586
aS'+'
asS'MIR548A2'
p2458
(lp2459
I135239159
aI135239256
aS'+'
asS'MMS22L'
p2460
(lp2461
I97142160
aI97283277
aS'-'
asS'NCR2'
p2462
(lp2463
I41335789
aI41350887
aS'+'
asS'IBTK'
p2464
(lp2465
I82169986
aI82247754
aS'-'
asS'PRSS16'
p2466
(lp2467
I27247722
aI27256620
aS'+'
asS'TUBB2A'
p2468
(lp2469
I3153665
aI3157549
aS'-'
asS'TUBB2B'
p2470
(lp2471
I3224280
aI3227653
aS'-'
asS'C6orf48'
p2472
(lp2473
I31834914
aI31839766
aS'+'
asS'LINC00518'
p2474
(lp2475
I10427784
aI10434822
aS'-'
asS'IRF4'
p2476
(lp2477
I391738
aI411443
aS'+'
asS'DINOL'
p2478
(lp2479
I36677608
aI36678559
aS'-'
asS'C6orf47'
p2480
(lp2481
I31658297
aI31660772
aS'-'
asS'C6orf163'
p2482
(lp2483
I87344812
aI87365463
aS'+'
asS'HDAC2'
p2484
(lp2485
I113936155
aI113971195
aS'-'
asS'THEMIS'
p2486
(lp2487
I127708193
aI127918631
aS'-'
asS'AHI1'
p2488
(lp2489
I135283971
aI135497765
aS'-'
asS'FABP7'
p2490
(lp2491
I122749200
aI122784077
aS'+'
asS'CNKSR3'
p2492
(lp2493
I154387514
aI154510685
aS'-'
asS'ZBTB12'
p2494
(lp2495
I31899616
aI31901992
aS'-'
asS'FILIP1'
p2496
(lp2497
I75291857
aI75493914
aS'-'
asS'MIR206'
p2498
(lp2499
I52144348
aI52144434
aS'+'
asS'IER3-AS1'
p2500
(lp2501
I30742962
aI30743673
aS'+'
asS'WDR27'
p2502
(lp2503
I169457207
aI169702063
aS'-'
asS'MTO1'
p2504
(lp2505
I73461730
aI73501456
aS'+'
asS'PANDAR'
p2506
(lp2507
I36673620
aI36675126
aS'-'
asS'MIR7111'
p2508
(lp2509
I35470507
aI35470579
aS'+'
asS'MAS1'
p2510
(lp2511
I159890987
aI159909002
aS'+'
asS'TAAR5'
p2512
(lp2513
I132588591
aI132589738
aS'-'
asS'TAAR6'
p2514
(lp2515
I132570321
aI132571359
aS'+'
asS'TAAR1'
p2516
(lp2517
I132644897
aI132646026
aS'-'
asS'TAAR2'
p2518
(lp2519
I132617149
aI132624275
aS'-'
asS'CD109'
p2520
(lp2521
I73696084
aI73828317
aS'+'
asS'TAAR9'
p2522
(lp2523
I132538287
aI132539336
aS'+'
asS'TAAR8'
p2524
(lp2525
I132552683
aI132553731
aS'+'
asS'RPL10A'
p2526
(lp2527
I35468400
aI35470780
aS'+'
asS'NEU1'
p2528
(lp2529
I31859051
aI31862932
aS'-'
asS'LOC102724152'
p2530
(lp2531
I163664365
aI163671484
aS'-'
asS'LOC105377975'
p2532
(lp2533
I119549807
aI119845084
aS'+'
asS'RNF39'
p2534
(lp2535
I30070265
aI30075851
aS'-'
asS'LOC101928429'
p2536
(lp2537
I136784046
aI136786054
aS'+'
asS'SOX4'
p2538
(lp2539
I21593740
aI21598618
aS'+'
asS'TRDN'
p2540
(lp2541
I123216338
aI123637093
aS'-'
asS'PRR3'
p2542
(lp2543
I30556708
aI30564696
aS'+'
asS'FAM229B'
p2544
(lp2545
I112087590
aI112102790
aS'+'
asS'CCHCR1'
p2546
(lp2547
I31142438
aI31158238
aS'-'
asS'TMEM244'
p2548
(lp2549
I129831243
aI129861271
aS'-'
asS'LSM2'
p2550
(lp2551
I31797391
aI31806984
aS'-'
asS'LOC101928519'
p2552
(lp2553
I19068542
aI19180480
aS'-'
asS'LOC101928516'
p2554
(lp2555
I74069450
aI74690727
aS'+'
asS'DCBLD1'
p2556
(lp2557
I117482603
aI117569857
aS'+'
asS'ABCF1'
p2558
(lp2559
I30571392
aI30591532
aS'+'
asS'NOTCH4'
p2560
(lp2561
I32194842
aI32224067
aS'-'
asS'LCA5'
p2562
(lp2563
I79484990
aI79537430
aS'-'
asS'SSR1'
p2564
(lp2565
I7281142
aI7313314
aS'-'
asS'HSF2'
p2566
(lp2567
I122399550
aI122433119
aS'+'
asS'CASP8AP2'
p2568
(lp2569
I89829899
aI89874436
aS'+'
asS'PRPF4B'
p2570
(lp2571
I4021334
aI4064983
aS'+'
asS'TPBG'
p2572
(lp2573
I82363205
aI82367416
aS'+'
asS'BTN1A1'
p2574
(lp2575
I26501266
aI26510424
aS'+'
asS'LOC101928191'
p2576
(lp2577
I10932316
aI10954089
aS'-'
asS'HLA-DPB1'
p2578
(lp2579
I33075925
aI33089696
aS'+'
asS'HLA-DPB2'
p2580
(lp2581
I33112515
aI33129113
aS'+'
asS'SLC25A27'
p2582
(lp2583
I46652914
aI46678190
aS'+'
asS'KAAG1'
p2584
(lp2585
I24356902
aI24358284
aS'+'
asS'RPS10-NUDT3'
p2586
(lp2587
I34287195
aI34426125
aS'-'
asS'MAN1A1'
p2588
(lp2589
I119177200
aI119349766
aS'-'
asS'GMPR'
p2590
(lp2591
I16238579
aI16295549
aS'+'
asS'RSPO3'
p2592
(lp2593
I127118902
aI127199481
aS'+'
asS'KPNA5'
p2594
(lp2595
I116681203
aI116741867
aS'+'
asS'NMBR'
p2596
(lp2597
I142074483
aI142147105
aS'-'
asS'ID4'
p2598
(lp2599
I19837369
aI19842200
aS'+'
asS'MIR3918'
p2600
(lp2601
I158764660
aI158764753
aS'-'
asS'ERVFRD-1'
p2602
(lp2603
I11102488
aI11111838
aS'-'
asS'FRS3'
p2604
(lp2605
I41770175
aI41779900
aS'-'
asS'LY86'
p2606
(lp2607
I6588700
aI6654983
aS'+'
asS'SDHAF4'
p2608
(lp2609
I70566929
aI70589565
aS'+'
asS'SLC25A51P1'
p2610
(lp2611
I65787878
aI65789483
aS'+'
asS'LOC101929006'
p2612
(lp2613
I29223972
aI29290440
aS'+'
asS'RTN4IP1'
p2614
(lp2615
I106570770
aI106630491
aS'-'
asS'HECA'
p2616
(lp2617
I139135079
aI139180802
aS'+'
asS'PGK2'
p2618
(lp2619
I49785650
aI49787340
aS'-'
asS'LOC101929555'
p2620
(lp2621
I40878885
aI41023280
aS'-'
asS'MIR4641'
p2622
(lp2623
I41598722
aI41598788
aS'+'
asS'MIR4640'
p2624
(lp2625
I30890882
aI30890972
aS'+'
asS'MIR4643'
p2626
(lp2627
I91521659
aI91521737
aS'+'
asS'MIR4642'
p2628
(lp2629
I44435640
aI44435722
aS'+'
asS'MIR4645'
p2630
(lp2631
I2854030
aI2854107
aS'-'
asS'SPACA1'
p2632
(lp2633
I88047788
aI88066832
aS'+'
asS'MIR4647'
p2634
(lp2635
I44254205
aI44254285
aS'-'
asS'IMPG1'
p2636
(lp2637
I75921113
aI76072678
aS'-'
asS'LOC101926934'
p2638
(lp2639
I46670443
aI46688165
aS'-'
asS'STK38'
p2640
(lp2641
I36493882
aI36547516
aS'-'
asS'SOGA3'
p2642
(lp2643
I127438405
aI127519355
aS'-'
asS'GGNBP1'
p2644
(lp2645
I33583698
aI33589026
aS'+'
asS'SYNE1-AS1'
p2646
(lp2647
I152380529
aI152381712
aS'+'
asS'LOC101927640'
p2648
(lp2649
I112236595
aI112306683
aS'+'
asS'C6orf52'
p2650
(lp2651
I10671417
aI10694797
aS'-'
asS'CCR6'
p2652
(lp2653
I167111806
aI167139141
aS'+'
asS'C6orf58'
p2654
(lp2655
I127577173
aI127591818
aS'+'
asS'EHMT2'
p2656
(lp2657
I31879759
aI31897707
aS'-'
asS'LPAL2'
p2658
(lp2659
I160466554
aI160511124
aS'-'
asS'CEP162'
p2660
(lp2661
I84124240
aI84227635
aS'-'
asS'CD83'
p2662
(lp2663
I14117255
aI14136917
aS'+'
asS'LOC101927730'
p2664
(lp2665
I2883987
aI2900676
aS'+'
asS'LOC108783645'
p2666
(lp2667
I26086289
aI26091034
aS'-'
asS'LOC105378123'
p2668
(lp2669
I167165348
aI167169980
aS'-'
asS'ZBED9'
p2670
(lp2671
I28571629
aI28616177
aS'-'
asS'MIR588'
p2672
(lp2673
I126484630
aI126484713
aS'+'
asS'TPD52L1'
p2674
(lp2675
I125153728
aI125264406
aS'+'
asS'LOC102724096'
p2676
(lp2677
I4186319
aI4190029
aS'-'
asS'MIR587'
p2678
(lp2679
I106784124
aI106784220
aS'+'
asS'MIR586'
p2680
(lp2681
I45197673
aI45197770
aS'-'
asS'VN1R10P'
p2682
(lp2683
I27324760
aI27325962
aS'+'
asS'ZNRD1'
p2684
(lp2685
I30061239
aI30064909
aS'+'
asS'SGK1'
p2686
(lp2687
I134169245
aI134318058
aS'-'
asS'ESR1'
p2688
(lp2689
I151690495
aI152103273
aS'+'
asS'PLG'
p2690
(lp2691
I160702192
aI160754053
aS'+'
asS'LINC00472'
p2692
(lp2693
I71407864
aI71420745
aS'-'
asS'LINC00473'
p2694
(lp2695
I165924047
aI165988039
aS'-'
asS'LOC101927082'
p2696
(lp2697
I51621869
aI51622577
aS'+'
asS'HLA-DOA'
p2698
(lp2699
I33004182
aI33009612
aS'-'
asS'HLA-DOB'
p2700
(lp2701
I32812762
aI32817048
aS'-'
asS'PLN'
p2702
(lp2703
I118548295
aI118561716
aS'+'
asS'IYD'
p2704
(lp2705
I150368891
aI150404629
aS'+'
asS'MAP7'
p2706
(lp2707
I136342280
aI136550819
aS'-'
asS'BTN2A2'
p2708
(lp2709
I26383095
aI26394872
aS'+'
asS'TEAD3'
p2710
(lp2711
I35473596
aI35497084
aS'-'
asS'ZNF204P'
p2712
(lp2713
I27357822
aI27375374
aS'-'
asS'MCUR1'
p2714
(lp2715
I13786548
aI13814560
aS'-'
asS'MAD2L1BP'
p2716
(lp2717
I43629541
aI43640951
aS'+'
asS'MIR6720'
p2718
(lp2719
I1390313
aI1390411
aS'-'
asS'MIR6721'
p2720
(lp2721
I32170029
aI32170116
aS'-'
asS'CLDN20'
p2722
(lp2723
I155264012
aI155276548
aS'+'
asS'NCOA7-AS1'
p2724
(lp2725
I125797860
aI125818858
aS'-'
asS'TSBP1-AS1'
p2726
(lp2727
I32255172
aI32407729
aS'+'
asS'DOP1A'
p2728
(lp2729
I83067665
aI83168471
aS'+'
asS'TNFRSF21'
p2730
(lp2731
I47231526
aI47309947
aS'-'
asS'HTR1E'
p2732
(lp2733
I86937305
aI87016679
aS'+'
asS'HLA-DQA1'
p2734
(lp2735
I32637405
aI32643652
aS'+'
asS'HLA-DQA2'
p2736
(lp2737
I32741385
aI32746887
aS'+'
asS'MDFI'
p2738
(lp2739
I41637176
aI41654244
aS'+'
asS'GFRAL'
p2740
(lp2741
I55327468
aI55402493
aS'+'
asS'CGAS'
p2742
(lp2743
I73425132
aI73452320
aS'-'
asS'ZNF76'
p2744
(lp2745
I35259713
aI35295987
aS'+'
asS'CYP39A1'
p2746
(lp2747
I46549579
aI46652830
aS'-'
asS'EDN1'
p2748
(lp2749
I12290295
aI12297194
aS'+'
asS'MYMX'
p2750
(lp2751
I44216938
aI44218236
aS'+'
asS'OOEP'
p2752
(lp2753
I73368556
aI73369792
aS'-'
asS'DEFB133'
p2754
(lp2755
I49946100
aI49949444
aS'-'
asS'ENPP4'
p2756
(lp2757
I46129963
aI46146699
aS'+'
asS'ENPP5'
p2758
(lp2759
I46159181
aI46171010
aS'-'
asS'ENPP3'
p2760
(lp2761
I131637234
aI131747410
aS'+'
asS'ENPP1'
p2762
(lp2763
I131808019
aI131895155
aS'+'
asS'TDP2'
p2764
(lp2765
I24649976
aI24666887
aS'-'
asS'MIR548H5'
p2766
(lp2767
I131792171
aI131792231
aS'+'
asS'CD2AP'
p2768
(lp2769
I47477788
aI47627260
aS'+'
asS'L3MBTL3'
p2770
(lp2771
I130018368
aI130141449
aS'+'
asS'ZKSCAN4'
p2772
(lp2773
I28241704
aI28259252
aS'-'
asS'ZKSCAN8'
p2774
(lp2775
I28141909
aI28159472
aS'+'
asS'SNORA33'
p2776
(lp2777
I132817218
aI132817351
aS'+'
asS'PCMT1'
p2778
(lp2779
I149749694
aI149811421
aS'+'
asS'LOC100422781'
p2780
(lp2781
I3231402
aI3239983
aS'+'
asS'RNF217-AS1'
p2782
(lp2783
I124908245
aI124963027
aS'-'
asS'THBS2'
p2784
(lp2785
I169215779
aI169254114
aS'-'
asS'SAMD5'
p2786
(lp2787
I147508689
aI147570021
aS'+'
asS'TMEM181'
p2788
(lp2789
I158536435
aI158635435
aS'+'
asS'SAMD3'
p2790
(lp2791
I130144301
aI130365425
aS'-'
asS'SNORD28B'
p2792
(lp2793
I156378749
aI156378823
aS'+'
asS'LOC285819'
p2794
(lp2795
I26471943
aI26482509
aS'-'
asS'MIR3925'
p2796
(lp2797
I36622435
aI36622512
aS'-'
asS'PKHD1'
p2798
(lp2799
I51615346
aI52087625
aS'-'
asS'PTCRA'
p2800
(lp2801
I42915988
aI42925837
aS'+'
asS'ETV7'
p2802
(lp2803
I36354220
aI36387800
aS'-'
asS'ARG1'
p2804
(lp2805
I131573203
aI131584332
aS'+'
asS'TAF8'
p2806
(lp2807
I42050523
aI42083272
aS'+'
asS'FAM8A1'
p2808
(lp2809
I17600286
aI17611719
aS'+'
asS'BTBD9'
p2810
(lp2811
I38168450
aI38640148
aS'-'
asS'AIF1'
p2812
(lp2813
I31615208
aI31617025
aS'+'
asS'SNX3'
p2814
(lp2815
I108211216
aI108261260
aS'-'
asS'RIPOR2'
p2816
(lp2817
I24839365
aI25042288
aS'-'
asS'SNRPC'
p2818
(lp2819
I34757093
aI34773857
aS'+'
asS'LOC103352541'
p2820
(lp2821
I139978349
aI139991261
aS'-'
asS'CGA'
p2822
(lp2823
I87085497
aI87095147
aS'-'
asS'SMIM8'
p2824
(lp2825
I87322587
aI87342328
aS'+'
asS'LINC01590'
p2826
(lp2827
I87397123
aI87399741
aS'+'
asS'PDCD2'
p2828
(lp2829
I170575571
aI170584692
aS'-'
asS'TCF21'
p2830
(lp2831
I133889120
aI133895537
aS'+'
asS'SPATS1'
p2832
(lp2833
I44342659
aI44377167
aS'+'
asS'TBX18-AS1'
p2834
(lp2835
I84689457
aI84709534
aS'+'
asS'OSTM1-AS1'
p2836
(lp2837
I108123632
aI108159395
aS'+'
asS'HMGA1'
p2838
(lp2839
I34236799
aI34246231
aS'+'
asS'LOC100506885'
p2840
(lp2841
I19729420
aI19804759
aS'-'
asS'ARFGEF3'
p2842
(lp2843
I138161915
aI138344663
aS'+'
asS'RGS17'
p2844
(lp2845
I153010896
aI153131254
aS'-'
asS'GVQW2'
p2846
(lp2847
I138725210
aI138773679
aS'-'
asS'KATNA1'
p2848
(lp2849
I149594874
aI149648804
aS'-'
asS'CASC15'
p2850
(lp2851
I21666412
aI22195820
aS'+'
asS'UST-AS1'
p2852
(lp2853
I148954260
aI148964684
aS'-'
asS'IRAK1BP1'
p2854
(lp2855
I78867543
aI78900966
aS'+'
asS'SNORD50A'
p2856
(lp2857
I85677293
aI85677368
aS'-'
asS'BTN2A1'
p2858
(lp2859
I26457903
aI26476621
aS'+'
asS'ANKRD6'
p2860
(lp2861
I89433177
aI89633834
aS'+'
asS'RAB32'
p2862
(lp2863
I146543691
aI146554956
aS'+'
asS'MIR3143'
p2864
(lp2865
I27147625
aI27147688
aS'+'
asS'SNORD50B'
p2866
(lp2867
I85677588
aI85677659
aS'-'
asS'MIR3145'
p2868
(lp2869
I138435212
aI138435294
aS'-'
asS'MIR3144'
p2870
(lp2871
I120015178
aI120015257
aS'+'
asS'BRPF3'
p2872
(lp2873
I36196772
aI36232790
aS'+'
asS'C6orf222'
p2874
(lp2875
I36315757
aI36336885
aS'-'
asS'C6orf223'
p2876
(lp2877
I44000584
aI44007612
aS'+'
asS'C6orf226'
p2878
(lp2879
I42890264
aI42890816
aS'-'
asS'LRP11'
p2880
(lp2881
I149818757
aI149864344
aS'-'
asS'ORC3'
p2882
(lp2883
I87590066
aI87667454
aS'+'
asS'ARMC2'
p2884
(lp2885
I108848415
aI108974472
aS'+'
asS'PLEKHG1'
p2886
(lp2887
I150599864
aI150843665
aS'+'
asS'CD164'
p2888
(lp2889
I109366513
aI109382812
aS'-'
asS'ZFP57'
p2890
(lp2891
I29672482
aI29681152
aS'-'
as.