(dp1
S'SSPO'
p2
(lp3
I149776041
aI149833964
aS'+'
asS'FABP5P3'
p4
(lp5
I152436894
aI152443015
aS'+'
asS'AGK'
p6
(lp7
I141551409
aI141655243
aS'+'
asS'IFT22'
p8
(lp9
I101313366
aI101321823
aS'-'
asS'GTF2IP1'
p10
(lp11
I73154928
aI73207296
aS'+'
asS'MIR6133'
p12
(lp13
I133290880
aI133290988
aS'+'
asS'CTTNBP2'
p14
(lp15
I117710650
aI117873507
aS'-'
asS'PRKAG2'
p16
(lp17
I151556114
aI151877231
aS'-'
asS'TYW1B'
p18
(lp19
I72574512
aI72828200
aS'-'
asS'GTF2IP4'
p20
(lp21
I73154923
aI73207296
aS'+'
asS'GTF2IP7'
p22
(lp23
I76092062
aI76108762
aS'-'
asS'HIPK2'
p24
(lp25
I139561569
aI139777894
aS'-'
asS'FKBP6'
p26
(lp27
I73328151
aI73358637
aS'+'
asS'CCDC146'
p28
(lp29
I77122614
aI77295204
aS'+'
asS'SPATA48'
p30
(lp31
I50096085
aI50159256
aS'+'
asS'LOC100505921'
p32
(lp33
I7949838
aI7968752
aS'-'
asS'MIR1302-6'
p34
(lp35
I18127219
aI18127309
aS'-'
asS'EFCAB10'
p36
(lp37
I105565107
aI105581542
aS'-'
asS'ANKIB1'
p38
(lp39
I92246233
aI92401384
aS'+'
asS'MNX1-AS2'
p40
(lp41
I157006306
aI157007118
aS'+'
asS'OR2A14'
p42
(lp43
I144129112
aI144130045
aS'+'
asS'FKBP9'
p44
(lp45
I32957403
aI33006931
aS'+'
asS'CDK5'
p46
(lp47
I151053811
aI151057965
aS'-'
asS'CYP3A43'
p48
(lp49
I99828012
aI99866106
aS'+'
asS'LOC101928700'
p50
(lp51
I147080937
aI147097609
aS'-'
asS'OGDH'
p52
(lp53
I44606521
aI44709070
aS'+'
asS'LOC100131472'
p54
(lp55
I10702675
aI10707538
aS'+'
asS'AMZ1'
p56
(lp57
I2688201
aI2765125
aS'+'
asS'PILRA'
p58
(lp59
I100373444
aI100400099
aS'+'
asS'FSCN3'
p60
(lp61
I127593634
aI127601797
aS'+'
asS'CTAGE4'
p62
(lp63
I144183454
aI144186080
aS'+'
asS'CTAGE6'
p64
(lp65
I143755088
aI143757750
aS'-'
asS'PIK3CG'
p66
(lp67
I106865277
aI106908978
aS'+'
asS'LOC100286906'
p68
(lp69
I155382075
aI155401782
aS'+'
asS'RHBDD2'
p70
(lp71
I75878991
aI75888926
aS'+'
asS'LOC102723885'
p72
(lp73
I88216659
aI88219224
aS'+'
asS'WEE2'
p74
(lp75
I141708352
aI141731271
aS'+'
asS'OR2A42'
p76
(lp77
I144231910
aI144232843
aS'-'
asS'NUP205'
p78
(lp79
I135557913
aI135648751
aS'+'
asS'SNORA9'
p80
(lp81
I44985377
aI44985510
aS'-'
asS'TEX47'
p82
(lp83
I88794105
aI88795737
aS'-'
asS'SP8'
p84
(lp85
I20782273
aI20786889
aS'-'
asS'STK17A'
p86
(lp87
I43583092
aI43627379
aS'+'
asS'LOC441204'
p88
(lp89
I26398568
aI26540950
aS'+'
asS'TWIST1'
p90
(lp91
I19113047
aI19117672
aS'-'
asS'MIR1200'
p92
(lp93
I36919356
aI36919432
aS'-'
asS'CAPZA2'
p94
(lp95
I116862586
aI116922049
aS'+'
asS'WIPI2'
p96
(lp97
I5190203
aI5233855
aS'+'
asS'FDPSP2'
p98
(lp99
I76470019
aI76475000
aS'-'
asS'MDFIC'
p100
(lp101
I114922153
aI115019916
aS'+'
asS'SP4'
p102
(lp103
I21428033
aI21514822
aS'+'
asS'ZNF282'
p104
(lp105
I149195461
aI149226248
aS'+'
asS'CAMK2B'
p106
(lp107
I44217149
aI44325631
aS'-'
asS'NDUFB2'
p108
(lp109
I140696680
aI140706646
aS'+'
asS'ZNF655'
p110
(lp111
I99558421
aI99576456
aS'+'
asS'TNS3'
p112
(lp113
I47275153
aI47582144
aS'-'
asS'MIR4467'
p114
(lp115
I102471468
aI102471531
aS'+'
asS'SMARCD3'
p116
(lp117
I151238972
aI151277145
aS'-'
asS'IFRD1'
p118
(lp119
I112423143
aI112477203
aS'+'
asS'IQCE'
p120
(lp121
I2558971
aI2614734
aS'+'
asS'DLX5'
p122
(lp123
I97020395
aI97024831
aS'-'
asS'MUC17'
p124
(lp125
I101020082
aI101058859
aS'+'
asS'OSBPL3'
p126
(lp127
I24796536
aI24980212
aS'-'
asS'CYP3A4'
p128
(lp129
I99756959
aI99784188
aS'-'
asS'CYP3A5'
p130
(lp131
I99648188
aI99680026
aS'-'
asS'MUC12'
p132
(lp133
I100969622
aI101018949
aS'+'
asS'LINC00174'
p134
(lp135
I66376043
aI66400408
aS'-'
asS'CLDN3'
p136
(lp137
I73768996
aI73770270
aS'-'
asS'DBNL'
p138
(lp139
I44044639
aI44061716
aS'+'
asS'LMTK2'
p140
(lp141
I98106861
aI98209638
aS'+'
asS'ATP6V1F'
p142
(lp143
I128862802
aI128865849
aS'+'
asS'RAPGEF5'
p144
(lp145
I22118289
aI22356914
aS'-'
asS'GRB10'
p146
(lp147
I50590062
aI50793462
aS'-'
asS'PARP12'
p148
(lp149
I140023743
aI140063721
aS'-'
asS'AKAP9'
p150
(lp151
I91940874
aI92110673
aS'+'
asS'ZNF679'
p152
(lp153
I64228473
aI64266931
aS'+'
asS'AHR'
p154
(lp155
I17298651
aI17346151
aS'+'
asS'PIP'
p156
(lp157
I143132080
aI143139741
aS'+'
asS'CBLL1'
p158
(lp159
I107743696
aI107761667
aS'+'
asS'INTS4P1'
p160
(lp161
I65141029
aI65234222
aS'+'
asS'CRCP'
p162
(lp163
I66114817
aI66154566
aS'+'
asS'ARMC10'
p164
(lp165
I103074880
aI103099763
aS'+'
asS'INTS4P2'
p166
(lp167
I65647853
aI65718688
aS'+'
asS'ZNF777'
p168
(lp169
I149431362
aI149461062
aS'-'
asS'LOC101927356'
p170
(lp171
I82009176
aI82029955
aS'+'
asS'ZNF775'
p172
(lp173
I150379316
aI150398631
aS'+'
asS'NYAP1'
p174
(lp175
I100483926
aI100494801
aS'+'
asS'TAS2R4'
p176
(lp177
I141778488
aI141779388
aS'+'
asS'FKBP9P1'
p178
(lp179
I55681073
aI55704567
aS'-'
asS'TSL'
p180
(lp181
I27615973
aI27627492
aS'+'
asS'FAM20C'
p182
(lp183
I192968
aI260774
aS'+'
asS'LRRN3'
p184
(lp185
I111091005
aI111125453
aS'+'
asS'UBE2D4'
p186
(lp187
I43926435
aI43956136
aS'+'
asS'TCAF2P1'
p188
(lp189
I143809989
aI143815389
aS'+'
asS'TAS2R40'
p190
(lp191
I143222036
aI143223079
aS'+'
asS'MIR653'
p192
(lp193
I93482759
aI93482855
aS'-'
asS'SEPT7P2'
p194
(lp195
I45723786
aI45769018
aS'-'
asS'RASA4B'
p196
(lp197
I102483138
aI102517777
aS'-'
asS'IQCA1L'
p198
(lp199
I151190873
aI151205496
aS'-'
asS'HYAL6P'
p200
(lp201
I123814138
aI123819430
aS'+'
asS'TPK1'
p202
(lp203
I144451940
aI144836053
aS'-'
asS'SMIM30'
p204
(lp205
I113116717
aI113118582
aS'-'
asS'LOC102723672'
p206
(lp207
I144444
aI149438
aS'-'
asS'ACTR3B'
p208
(lp209
I152759748
aI152855379
aS'+'
asS'UFSP1'
p210
(lp211
I100888720
aI100889715
aS'-'
asS'SERPINE1'
p212
(lp213
I101127088
aI101139266
aS'+'
asS'PEG10'
p214
(lp215
I94656324
aI94669694
aS'+'
asS'CHCHD2'
p216
(lp217
I56101561
aI56106630
aS'-'
asS'CHCHD3'
p218
(lp219
I132784861
aI133082158
aS'-'
asS'LOC541472'
p220
(lp221
I22725394
aI22727620
aS'-'
asS'LOC541473'
p222
(lp223
I75391948
aI75395461
aS'-'
asS'POT1-AS1'
p224
(lp225
I124929872
aI125145233
aS'+'
asS'CYP51A1-AS1'
p226
(lp227
I92134562
aI92180725
aS'+'
asS'BHLHA15'
p228
(lp229
I98212253
aI98212959
aS'+'
asS'ZASP'
p230
(lp231
I100574034
aI100574733
aS'-'
asS'MIR6875'
p232
(lp233
I100868035
aI100868107
aS'+'
asS'FBXL13'
p234
(lp235
I102812860
aI103074841
aS'-'
asS'INMT-MINDY4'
p236
(lp237
I30752134
aI30892387
aS'+'
asS'PCLO'
p238
(lp239
I82754004
aI83162881
aS'-'
asS'LINC00689'
p240
(lp241
I159008353
aI159026238
aS'+'
asS'PSMG3'
p242
(lp243
I1567333
aI1570032
aS'-'
asS'FBXL18'
p244
(lp245
I5454499
aI5513800
aS'-'
asS'GTF2I'
p246
(lp247
I74657664
aI74760692
aS'+'
asS'CCL24'
p248
(lp249
I75811795
aI75813715
aS'-'
asS'LOC102725191'
p250
(lp251
I12496428
aI12541135
aS'+'
asS'GRM3'
p252
(lp253
I86643908
aI86864876
aS'+'
asS'SDK1'
p254
(lp255
I3301447
aI4268999
aS'+'
asS'ZNF212'
p256
(lp257
I149239650
aI149255609
aS'+'
asS'KDM7A-DT'
p258
(lp259
I140177260
aI140179640
aS'+'
asS'MIR6839'
p260
(lp261
I64679063
aI64679176
aS'+'
asS'FAM133B'
p262
(lp263
I92560757
aI92590394
aS'-'
asS'MYL10'
p264
(lp265
I101613324
aI101629296
aS'-'
asS'RNY5'
p266
(lp267
I148941487
aI148941571
aS'+'
asS'RADIL'
p268
(lp269
I4799108
aI4883704
aS'-'
asS'PRSS58'
p270
(lp271
I142252137
aI142258058
aS'-'
asS'EVX1-AS'
p272
(lp273
I27241428
aI27247229
aS'-'
asS'PAXIP1'
p274
(lp275
I154943689
aI155002972
aS'-'
asS'CUX1'
p276
(lp277
I101815903
aI102283958
aS'+'
asS'MCM7'
p278
(lp279
I100092727
aI100101940
aS'-'
asS'MOGAT3'
p280
(lp281
I101195730
aI101201021
aS'-'
asS'PPP1R17'
p282
(lp283
I31687016
aI31708455
aS'+'
asS'INHBA-AS1'
p284
(lp285
I41693918
aI41779378
aS'+'
asS'RNF133'
p286
(lp287
I122697711
aI122699154
aS'-'
asS'GARS'
p288
(lp289
I30594734
aI30634032
aS'+'
asS'LOC105375401'
p290
(lp291
I93890893
aI93893585
aS'+'
asS'SLC12A9'
p292
(lp293
I100826868
aI100867012
aS'+'
asS'TCAF2'
p294
(lp295
I143620973
aI143730080
aS'+'
asS'C7orf26'
p296
(lp297
I6590020
aI6608726
aS'+'
asS'LOC221946'
p298
(lp299
I5513853
aI5525545
aS'+'
asS'ZDHHC4'
p300
(lp301
I6577433
aI6588979
aS'+'
asS'ZNRF2'
p302
(lp303
I30284306
aI30367692
aS'+'
asS'RASA4'
p304
(lp305
I102579645
aI102616758
aS'-'
asS'GIMAP4'
p306
(lp307
I150567369
aI150573953
aS'+'
asS'SND1-IT1'
p308
(lp309
I127997508
aI128000077
aS'+'
asS'DNAJC2'
p310
(lp311
I103312288
aI103344873
aS'-'
asS'MIR106B'
p312
(lp313
I100093992
aI100094074
aS'-'
asS'MINDY4'
p314
(lp315
I30771416
aI30892387
aS'+'
asS'ZNF425'
p316
(lp317
I149102785
aI149126324
aS'-'
asS'TAS2R16'
p318
(lp319
I122994704
aI122995700
aS'-'
asS'SLC12A9-AS1'
p320
(lp321
I100837313
aI100852614
aS'-'
asS'TMEM196'
p322
(lp323
I19719314
aI19773617
aS'-'
asS'DLD'
p324
(lp325
I107891106
aI107921198
aS'+'
asS'FLNC-AS1'
p326
(lp327
I128850161
aI128862626
aS'-'
asS'LOC641746'
p328
(lp329
I64582609
aI64583751
aS'+'
asS'FLNC'
p330
(lp331
I128830428
aI128859274
aS'+'
asS'ERVW-1'
p332
(lp333
I92468379
aI92477946
aS'-'
asS'ISPD-AS1'
p334
(lp335
I16210485
aI16270604
aS'+'
asS'EPDR1'
p336
(lp337
I37920560
aI37951940
aS'+'
asS'GUSBP10'
p338
(lp339
I57165669
aI57180156
aS'-'
asS'TPI1P2'
p340
(lp341
I129055222
aI129057239
aS'+'
asS'SNORA22C'
p342
(lp343
I65065998
aI65066132
aS'+'
asS'SNORA22B'
p344
(lp345
I56055364
aI56055502
aS'+'
asS'MYH16'
p346
(lp347
I99273300
aI99297971
aS'+'
asS'TFAMP1'
p348
(lp349
I1614469
aI1616692
aS'+'
asS'OR6W1P'
p350
(lp351
I143062283
aI143063785
aS'-'
asS'CROT'
p352
(lp353
I87345634
aI87399796
aS'+'
asS'NAPEPLD'
p354
(lp355
I103099575
aI103149122
aS'-'
asS'GSDME'
p356
(lp357
I24698354
aI24758020
aS'-'
asS'SMO'
p358
(lp359
I129188871
aI129213544
aS'+'
asS'GHET1'
p360
(lp361
I148987526
aI148989424
aS'+'
asS'LOC101927243'
p362
(lp363
I77415197
aI77425443
aS'+'
asS'RASA4DP'
p364
(lp365
I102678707
aI102748694
aS'-'
asS'SLC4A2'
p366
(lp367
I151058199
aI151076527
aS'+'
asS'MIOS'
p368
(lp369
I7566883
aI7608931
aS'+'
asS'TRIM73'
p370
(lp371
I72959476
aI72969466
aS'-'
asS'POLM'
p372
(lp373
I44072061
aI44082540
aS'-'
asS'TRIM56'
p374
(lp375
I101085438
aI101091738
aS'+'
asS'TRIM50'
p376
(lp377
I73312535
aI73328082
aS'-'
asS'LHFPL3'
p378
(lp379
I104328655
aI104908556
aS'+'
asS'LINC01450'
p380
(lp381
I40964677
aI40979939
aS'-'
asS'LOC100506497'
p382
(lp383
I28979966
aI29013369
aS'+'
asS'DLX6-AS1'
p384
(lp385
I96968514
aI97014065
aS'-'
asS'BPGM'
p386
(lp387
I134646778
aI134679815
aS'+'
asS'PCOLCE-AS1'
p388
(lp389
I100589400
aI100604038
aS'-'
asS'INHBA'
p390
(lp391
I41685113
aI41703108
aS'-'
asS'LOC728743'
p392
(lp393
I150405751
aI150412470
aS'+'
asS'CLCN1'
p394
(lp395
I143316125
aI143352004
aS'+'
asS'TAS2R5'
p396
(lp397
I141790216
aI141791366
aS'+'
asS'MIR5090'
p398
(lp399
I102465741
aI102465826
aS'+'
asS'NT5C3A'
p400
(lp401
I33014112
aI33062821
aS'-'
asS'GIMAP1-GIMAP5'
p402
(lp403
I150716556
aI150743649
aS'+'
asS'OR2A1'
p404
(lp405
I144231910
aI144232843
aS'-'
asS'LOC100996249'
p406
(lp407
I112618064
aI112620649
aS'+'
asS'BLACE'
p408
(lp409
I155356987
aI155367933
aS'-'
asS'LOC101928211'
p410
(lp411
I124337379
aI124352096
aS'-'
asS'OR2A5'
p412
(lp413
I144050401
aI144051337
aS'+'
asS'HOXA-AS3'
p414
(lp415
I27140363
aI27155928
aS'+'
asS'OR2A7'
p416
(lp417
I144258695
aI144259628
aS'-'
asS'FGL2'
p418
(lp419
I77193370
aI77199833
aS'-'
asS'BUD23'
p420
(lp421
I73683567
aI73698221
aS'+'
asS'HOXA-AS2'
p422
(lp423
I27121918
aI27128760
aS'+'
asS'ZC3HAV1'
p424
(lp425
I139043512
aI139109720
aS'-'
asS'SLC25A40'
p426
(lp427
I87833567
aI87876360
aS'-'
asS'LIMK1'
p428
(lp429
I74083803
aI74122525
aS'+'
asS'LINC01287'
p430
(lp431
I153399918
aI153412234
aS'-'
asS'MIR129-1'
p432
(lp433
I128207871
aI128207943
aS'+'
asS'SPDYE1'
p434
(lp435
I44000889
aI44010124
aS'+'
asS'CYP51A1'
p436
(lp437
I92112148
aI92134745
aS'-'
asS'CEP41'
p438
(lp439
I130393770
aI130441210
aS'-'
asS'SUGCT'
p440
(lp441
I40134975
aI40860767
aS'+'
asS'PAX4'
p442
(lp443
I127610291
aI127618142
aS'-'
asS'SH2B2'
p444
(lp445
I102285061
aI102321711
aS'+'
asS'SPDYE3'
p446
(lp447
I100307701
aI100322196
aS'+'
asS'PRKAR1B'
p448
(lp449
I549196
aI727676
aS'-'
asS'TMEM178B'
p450
(lp451
I141074231
aI141480379
aS'+'
asS'CDCA7L'
p452
(lp453
I21900898
aI21945924
aS'-'
asS'ZPBP'
p454
(lp455
I49937427
aI50093264
aS'-'
asS'STARD3NL'
p456
(lp457
I38178205
aI38230671
aS'+'
asS'SRPK2'
p458
(lp459
I105116373
aI105389390
aS'-'
asS'LOC101927811'
p460
(lp461
I20328300
aI20331762
aS'-'
asS'NIPSNAP2'
p462
(lp463
I55964576
aI56000182
aS'+'
asS'MIR592'
p464
(lp465
I127058087
aI127058184
aS'-'
asS'MEPCE'
p466
(lp467
I100428789
aI100434126
aS'+'
asS'ZNF736'
p468
(lp469
I64313872
aI64356634
aS'+'
asS'GTF2IRD1P1'
p470
(lp471
I66809992
aI66844826
aS'-'
asS'ZNF735'
p472
(lp473
I64207202
aI64220290
aS'+'
asS'CADPS2'
p474
(lp475
I122318423
aI122886759
aS'-'
asS'PDAP1'
p476
(lp477
I99394675
aI99408682
aS'-'
asS'MICALL2'
p478
(lp479
I1434358
aI1459473
aS'-'
asS'TAS2R3'
p480
(lp481
I141764096
aI141765197
aS'+'
asS'CUL1'
p482
(lp483
I148698902
aI148801110
aS'+'
asS'LINC00513'
p484
(lp485
I130913463
aI130921946
aS'+'
asS'COL1A2-AS1'
p486
(lp487
I94367211
aI94392192
aS'-'
asS'LOC154761'
p488
(lp489
I143811967
aI143836717
aS'-'
asS'METTL27'
p490
(lp491
I73834590
aI73842525
aS'-'
asS'HOXA10-HOXA9'
p492
(lp493
I27162437
aI27180261
aS'-'
asS'LOC101929322'
p494
(lp495
I65492335
aI65555065
aS'-'
asS'LUC7L2'
p496
(lp497
I139340358
aI139423457
aS'+'
asS'NPC1L1'
p498
(lp499
I44512535
aI44541315
aS'-'
asS'MDH2'
p500
(lp501
I76048018
aI76067508
aS'+'
asS'MIR593'
p502
(lp503
I128081860
aI128081960
aS'+'
asS'STEAP2-AS1'
p504
(lp505
I89882352
aI90211635
aS'-'
asS'GS1-124K5.4'
p506
(lp507
I66493631
aI66495474
aS'+'
asS'MIR6132'
p508
(lp509
I117020210
aI117020319
aS'+'
asS'KRBA1'
p510
(lp511
I149715010
aI149734575
aS'+'
asS'PVRIG2P'
p512
(lp513
I100352317
aI100353936
aS'+'
asS'LOC105375218'
p514
(lp515
I30247428
aI30286085
aS'-'
asS'LOC101927668'
p516
(lp517
I19918980
aI20140426
aS'-'
asS'ADCK2'
p518
(lp519
I140673152
aI140695108
aS'+'
asS'EGFR'
p520
(lp521
I55019020
aI55208080
aS'+'
asS'PTPRZ1'
p522
(lp523
I121873104
aI122062036
aS'+'
asS'METTL2B'
p524
(lp525
I128476728
aI128502924
aS'+'
asS'WDR86'
p526
(lp527
I151381120
aI151410705
aS'-'
asS'MIR3654'
p528
(lp529
I133034859
aI133034915
aS'-'
asS'AP1S1'
p530
(lp531
I101154397
aI101161277
aS'+'
asS'STAG3L5P'
p532
(lp533
I100336078
aI100341328
aS'+'
asS'RPL19P12'
p534
(lp535
I103141269
aI103142403
aS'-'
asS'CPSF4'
p536
(lp537
I99438939
aI99457377
aS'+'
asS'OR6B1'
p538
(lp539
I144003996
aI144004932
aS'+'
asS'ZNF12'
p540
(lp541
I6688433
aI6706935
aS'-'
asS'LOC107986794'
p542
(lp543
I51392377
aI51393256
aS'-'
asS'SLC37A3'
p544
(lp545
I140333751
aI140398550
aS'-'
asS'PMPCB'
p546
(lp547
I103297425
aI103314686
aS'+'
asS'TP53TG1'
p548
(lp549
I87325347
aI87345492
aS'-'
asS'DYNC1I1'
p550
(lp551
I95772505
aI96110322
aS'+'
asS'CDK13'
p552
(lp553
I39950255
aI40099580
aS'+'
asS'SRRT'
p554
(lp555
I100875078
aI100888664
aS'+'
asS'IMPDH1'
p556
(lp557
I128392276
aI128409987
aS'-'
asS'CDK14'
p558
(lp559
I90596361
aI91210590
aS'+'
asS'CLIP2'
p560
(lp561
I74289474
aI74405943
aS'+'
asS'HECW1-IT1'
p562
(lp563
I43117895
aI43163187
aS'+'
asS'ST7'
p564
(lp565
I116953326
aI117230021
aS'+'
asS'COL28A1'
p566
(lp567
I7358612
aI7535829
aS'-'
asS'CAV1'
p568
(lp569
I116524784
aI116561185
aS'+'
asS'LOC101926963'
p570
(lp571
I602844
aI608502
aS'+'
asS'GRID2IP'
p572
(lp573
I6496777
aI6551436
aS'-'
asS'NOD1'
p574
(lp575
I30424526
aI30478866
aS'-'
asS'LOC101927354'
p576
(lp577
I7255153
aI7278069
aS'+'
asS'MIR548F4'
p578
(lp579
I147378016
aI147378121
aS'-'
asS'CNOT4'
p580
(lp581
I135361794
aI135510127
aS'-'
asS'LOC100506937'
p582
(lp583
I132758969
aI132760632
aS'+'
asS'GTPBP10'
p584
(lp585
I90346664
aI90391455
aS'+'
asS'VWC2'
p586
(lp587
I49775332
aI49921950
aS'+'
asS'NOS3'
p588
(lp589
I150991055
aI151014599
aS'+'
asS'SNORA25B'
p590
(lp591
I115581314
aI115581441
aS'-'
asS'LOC100653233'
p592
(lp593
I57404766
aI57412147
aS'+'
asS'HERPUD2'
p594
(lp595
I35632659
aI35695135
aS'-'
asS'LRRC17'
p596
(lp597
I102912896
aI102945109
aS'+'
asS'ITGB8'
p598
(lp599
I20331101
aI20415759
aS'+'
asS'GALNTL5'
p600
(lp601
I151956378
aI152019934
aS'+'
asS'COA1'
p602
(lp603
I43608455
aI43729541
aS'-'
asS'BUD31'
p604
(lp605
I99408977
aI99419616
aS'+'
asS'HGF'
p606
(lp607
I81699007
aI81770198
aS'-'
asS'SEC61G'
p608
(lp609
I54752246
aI54759246
aS'-'
asS'MIR93'
p610
(lp611
I100093767
aI100093847
aS'-'
asS'ALKBH4'
p612
(lp613
I102456219
aI102464874
aS'-'
asS'SEM1'
p614
(lp615
I96481625
aI96709775
aS'-'
asS'CPVL'
p616
(lp617
I28995230
aI29195451
aS'-'
asS'LRGUK'
p618
(lp619
I134127351
aI134264591
aS'+'
asS'LOC100506098'
p620
(lp621
I20217576
aI20221699
aS'+'
asS'EGFR-AS1'
p622
(lp623
I55179749
aI55188949
aS'-'
asS'AOAH'
p624
(lp625
I36512940
aI36724549
aS'-'
asS'MYL7'
p626
(lp627
I44138863
aI44141332
aS'-'
asS'LRWD1'
p628
(lp629
I102464882
aI102473168
aS'+'
asS'EXOC4'
p630
(lp631
I133253066
aI134065760
aS'+'
asS'PRKAG2-AS1'
p632
(lp633
I151877041
aI151879223
aS'+'
asS'C7orf61'
p634
(lp635
I100456614
aI100464271
aS'-'
asS'GIMAP7'
p636
(lp637
I150514871
aI150521073
aS'+'
asS'LOC646762'
p638
(lp639
I29645921
aI29685138
aS'-'
asS'C7orf65'
p640
(lp641
I47655243
aI47661648
aS'+'
asS'C7orf66'
p642
(lp643
I108883974
aI108884587
aS'-'
asS'POU6F2-AS2'
p644
(lp645
I38979894
aI39013567
aS'-'
asS'ZNF398'
p646
(lp647
I149126415
aI149183026
aS'+'
asS'MAD1L1'
p648
(lp649
I1815791
aI2232948
aS'-'
asS'MNX1-AS1'
p650
(lp651
I157010856
aI157016424
aS'+'
asS'POU6F2-AS1'
p652
(lp653
I39404598
aI39406346
aS'-'
asS'KDM7A'
p654
(lp655
I140084745
aI140176941
aS'-'
asS'RBAKDN'
p656
(lp657
I5072059
aI5073223
aS'+'
asS'TMEM176A'
p658
(lp659
I150800765
aI150805120
aS'+'
asS'ATP6V0E2'
p660
(lp661
I149872967
aI149880712
aS'+'
asS'LOC100134040'
p662
(lp663
I150041354
aI150045372
aS'+'
asS'ZNF394'
p664
(lp665
I99486518
aI99500308
aS'-'
asS'FAM126A'
p666
(lp667
I22941258
aI23014151
aS'-'
asS'EEPD1'
p668
(lp669
I36153226
aI36301543
aS'+'
asS'BZW2'
p670
(lp671
I16646133
aI16706523
aS'+'
asS'LOC107986845'
p672
(lp673
I128386681
aI128392347
aS'+'
asS'SNORA22'
p674
(lp675
I65755525
aI65755659
aS'+'
asS'KCP'
p676
(lp677
I128876864
aI128910709
aS'-'
asS'TMEM270'
p678
(lp679
I73861158
aI73865893
aS'+'
asS'IMMP2L'
p680
(lp681
I110663049
aI111562517
aS'-'
asS'CFTR-AS1'
p682
(lp683
I117542520
aI117564676
aS'-'
asS'AGMO'
p684
(lp685
I15200317
aI15562015
aS'-'
asS'KPNA7'
p686
(lp687
I99173573
aI99207489
aS'-'
asS'TSPAN12'
p688
(lp689
I120787319
aI120858123
aS'-'
asS'TSPAN13'
p690
(lp691
I16753754
aI16784536
aS'+'
asS'LINC00957'
p692
(lp693
I44039048
aI44044296
aS'+'
asS'NCF1'
p694
(lp695
I74773961
aI74789376
aS'+'
asS'OR9A2'
p696
(lp697
I143026199
aI143027132
aS'-'
asS'HEPACAM2'
p698
(lp699
I93188540
aI93232198
aS'-'
asS'HRAT92'
p700
(lp701
I520390
aI525232
aS'+'
asS'LOC102724434'
p702
(lp703
I116275605
aI116286727
aS'-'
asS'OR9A4'
p704
(lp705
I141918875
aI141919820
aS'+'
asS'TMEM184A'
p706
(lp707
I1542234
aI1556430
aS'-'
asS'MIR3666'
p708
(lp709
I114653344
aI114653455
aS'+'
asS'FEZF1'
p710
(lp711
I122301303
aI122304750
aS'-'
asS'MIR29B1'
p712
(lp713
I130877458
aI130877539
aS'-'
asS'URGCP'
p714
(lp715
I43875893
aI43926411
aS'-'
asS'STMP1'
p716
(lp717
I135662472
aI135676412
aS'+'
asS'CFAP69'
p718
(lp719
I90245173
aI90311063
aS'+'
asS'FEZF1-AS1'
p720
(lp721
I122303657
aI122310077
aS'+'
asS'ASB4'
p722
(lp723
I95485942
aI95540233
aS'+'
asS'NFE2L3'
p724
(lp725
I26152226
aI26187136
aS'+'
asS'EIF3B'
p726
(lp727
I2354085
aI2380742
aS'+'
asS'VOPP1'
p728
(lp729
I55470607
aI55572520
aS'-'
asS'GNG11'
p730
(lp731
I93921703
aI93926514
aS'+'
asS'MIR4468'
p732
(lp733
I138123757
aI138123821
aS'+'
asS'CNPY4'
p734
(lp735
I100119641
aI100125505
aS'+'
asS'LINC02476'
p736
(lp737
I119619429
aI119907375
aS'-'
asS'RELN'
p738
(lp739
I103471783
aI103989516
aS'-'
asS'MKLN1'
p740
(lp741
I131110095
aI131496639
aS'+'
asS'LOC101927446'
p742
(lp743
I90335222
aI90344096
aS'+'
asS'TRY2P'
p744
(lp745
I142268283
aI142272249
aS'-'
asS'KEL'
p746
(lp747
I142941113
aI142962416
aS'-'
asS'PDE1C'
p748
(lp749
I31783512
aI32428224
aS'-'
asS'DPY19L1P2'
p750
(lp751
I32826301
aI32838744
aS'+'
asS'DPY19L1P1'
p752
(lp753
I32580940
aI32719168
aS'-'
asS'MIR335'
p754
(lp755
I130496110
aI130496204
aS'+'
asS'ESYT2'
p756
(lp757
I158730997
aI158829628
aS'-'
asS'MRPL32'
p758
(lp759
I42932339
aI42937854
aS'+'
asS'NPSR1-AS1'
p760
(lp761
I34346511
aI34758272
aS'-'
asS'STRA8'
p762
(lp763
I135231978
aI135258492
aS'+'
asS'MIR3907'
p764
(lp765
I151433488
aI151433639
aS'-'
asS'MOXD2P'
p766
(lp767
I142240736
aI142247067
aS'-'
asS'TSC22D4'
p768
(lp769
I100466518
aI100479279
aS'-'
asS'LOC349160'
p770
(lp771
I136898772
aI137164341
aS'-'
asS'BAZ1B'
p772
(lp773
I73440397
aI73522285
aS'-'
asS'TBL2'
p774
(lp775
I73568945
aI73578710
aS'-'
asS'EPHA1'
p776
(lp777
I143391111
aI143408892
aS'-'
asS'AKR1B10'
p778
(lp779
I134527566
aI134541412
aS'+'
asS'CYP3A7-CYP3A51P'
p780
(lp781
I99684678
aI99735200
aS'-'
asS'PDIA4'
p782
(lp783
I149003061
aI149028690
aS'-'
asS'CZ1P-ASNS'
p784
(lp785
I97852116
aI97972358
aS'-'
asS'SYPL1'
p786
(lp787
I106090367
aI106112647
aS'-'
asS'SAMD9L'
p788
(lp789
I93130053
aI93148399
aS'-'
asS'LOC100240728'
p790
(lp791
I56482104
aI56483319
aS'-'
asS'LOC100506585'
p792
(lp793
I157854584
aI157866090
aS'+'
asS'HTR5A-AS1'
p794
(lp795
I155067068
aI155071557
aS'-'
asS'PRSS2'
p796
(lp797
I142770942
aI142774564
aS'+'
asS'MACC1-AS1'
p798
(lp799
I20141915
aI20153531
aS'+'
asS'TRA2A'
p800
(lp801
I23504781
aI23532041
aS'-'
asS'NOM1'
p802
(lp803
I156949722
aI156973182
aS'+'
asS'RPL13AP17'
p804
(lp805
I78347241
aI78359453
aS'+'
asS'LINC02604'
p806
(lp807
I66904119
aI66906297
aS'+'
asS'LOC401324'
p808
(lp809
I35313854
aI35376476
aS'+'
asS'TRIP6'
p810
(lp811
I100867327
aI100873454
aS'+'
asS'CYP3A7'
p812
(lp813
I99705036
aI99735200
aS'-'
asS'ACTB'
p814
(lp815
I5527145
aI5530709
aS'-'
asS'STEAP1B'
p816
(lp817
I22419443
aI22500282
aS'-'
asS'PLEKHA8'
p818
(lp819
I30028360
aI30130482
aS'+'
asS'ELMO1'
p820
(lp821
I36852905
aI37449326
aS'-'
asS'RAB19'
p822
(lp823
I140404042
aI140426250
aS'+'
asS'FOXP2'
p824
(lp825
I114086309
aI114693772
aS'+'
asS'GHRHR'
p826
(lp827
I30963952
aI30979528
aS'+'
asS'COPG2IT1'
p828
(lp829
I130543452
aI130546899
aS'+'
asS'OCM'
p830
(lp831
I5880797
aI5886363
aS'+'
asS'NOBOX'
p832
(lp833
I144397239
aI144410227
aS'-'
asS'MBLAC1'
p834
(lp835
I100126693
aI100128498
aS'+'
asS'ZNF479'
p836
(lp837
I57119618
aI57139864
aS'-'
asS'MIR6892'
p838
(lp839
I143382685
aI143382800
aS'+'
asS'SNX8'
p840
(lp841
I2251769
aI2314441
aS'-'
asS'COPS6'
p842
(lp843
I100088959
aI100092199
aS'+'
asS'ZNHIT1'
p844
(lp845
I101218164
aI101224190
aS'+'
asS'GGCT'
p846
(lp847
I30496620
aI30504841
aS'-'
asS'DDC-AS1'
p848
(lp849
I50531758
aI50543463
aS'+'
asS'SLC29A4'
p850
(lp851
I5282929
aI5304073
aS'+'
asS'ZBED6CL'
p852
(lp853
I150329848
aI150332721
aS'+'
asS'LOC105375545'
p854
(lp855
I143255298
aI143286334
aS'-'
asS'LAMB1'
p856
(lp857
I107923798
aI108003161
aS'-'
asS'CASD1'
p858
(lp859
I94509808
aI94557016
aS'+'
asS'MNX1'
p860
(lp861
I157004852
aI157010653
aS'-'
asS'LOC101928401'
p862
(lp863
I56534229
aI56538130
aS'-'
asS'C7orf55-LUC7L2'
p864
(lp865
I139341131
aI139423457
aS'+'
asS'ARL4A'
p866
(lp867
I12686826
aI12690933
aS'+'
asS'KIAA1324L'
p868
(lp869
I86876905
aI87059698
aS'-'
asS'POM121'
p870
(lp871
I72879334
aI72951440
aS'+'
asS'KMT2E'
p872
(lp873
I105014189
aI105114085
aS'+'
asS'RCC1L'
p874
(lp875
I75027119
aI75073881
aS'-'
asS'LOC101927974'
p876
(lp877
I107742752
aI107744581
aS'-'
asS'MIR590'
p878
(lp879
I74191197
aI74191294
aS'+'
asS'MGAM'
p880
(lp881
I141995878
aI142106747
aS'+'
asS'HSPB1'
p882
(lp883
I76302672
aI76304292
aS'+'
asS'DDX56'
p884
(lp885
I44565416
aI44574538
aS'-'
asS'CCL26'
p886
(lp887
I75769523
aI75789746
aS'-'
asS'MIR591'
p888
(lp889
I96219661
aI96219756
aS'-'
asS'CCZ1B'
p890
(lp891
I6798934
aI6826295
aS'-'
asS'EN2'
p892
(lp893
I155458128
aI155464831
aS'+'
asS'AKR1B15'
p894
(lp895
I134549096
aI134579840
aS'+'
asS'MIR5692C2'
p896
(lp897
I97964404
aI97964481
aS'-'
asS'SPDYE8P'
p898
(lp899
I73075983
aI73086034
aS'-'
asS'GCC1'
p900
(lp901
I127580627
aI127585600
aS'-'
asS'PPP1R9A'
p902
(lp903
I94907593
aI95296400
aS'+'
asS'MIR339'
p904
(lp905
I1022932
aI1023026
aS'-'
asS'LMBR1'
p906
(lp907
I156669011
aI156893208
aS'-'
asS'CLDN4'
p908
(lp909
I73830862
aI73832693
aS'+'
asS'LOC101929998'
p910
(lp911
I154055584
aI154060570
aS'-'
asS'PHKG1'
p912
(lp913
I56080282
aI56092996
aS'-'
asS'ORAI2'
p914
(lp915
I102433529
aI102456821
aS'+'
asS'LOC101927746'
p916
(lp917
I101308306
aI101311338
aS'+'
asS'TRIM4'
p918
(lp919
I99890406
aI99919600
aS'-'
asS'LOC105375483'
p920
(lp921
I123994621
aI124027646
aS'+'
asS'SPDYE18'
p922
(lp923
I77052732
aI77060881
aS'-'
asS'NUPR2'
p924
(lp925
I56114680
aI56116417
aS'-'
asS'NUDT1'
p926
(lp927
I2242221
aI2251145
aS'+'
asS'GCK'
p928
(lp929
I44143212
aI44189439
aS'-'
asS'PRR15'
p930
(lp931
I29563810
aI29567295
aS'+'
asS'RPL23P8'
p932
(lp933
I20827297
aI20827820
aS'+'
asS'GTF2IRD1'
p934
(lp935
I74453789
aI74602593
aS'+'
asS'GTF2IRD2'
p936
(lp937
I74796143
aI74851576
aS'-'
asS'IGFBP3'
p938
(lp939
I45912244
aI45921272
aS'-'
asS'IGFBP1'
p940
(lp941
I45888418
aI45893668
aS'+'
asS'NCF1C'
p942
(lp943
I75156577
aI75171998
aS'-'
asS'EIF4H'
p944
(lp945
I74174375
aI74197099
aS'+'
asS'HILPDA'
p946
(lp947
I128455829
aI128458418
aS'+'
asS'SHH'
p948
(lp949
I155802239
aI155812273
aS'-'
asS'BLVRA'
p950
(lp951
I43758672
aI43807342
aS'+'
asS'CALU'
p952
(lp953
I128739291
aI128773423
aS'+'
asS'EZH2'
p954
(lp955
I148807371
aI148884349
aS'-'
asS'ERV3-1-ZNF117'
p956
(lp957
I64974451
aI65006746
aS'-'
asS'FAM185A'
p958
(lp959
I102748951
aI102850706
aS'+'
asS'KLRG2'
p960
(lp961
I139452691
aI139483711
aS'-'
asS'PMS2P9'
p962
(lp963
I77039479
aI77053038
aS'+'
asS'HOTTIP'
p964
(lp965
I27200420
aI27207259
aS'+'
asS'LOC100507507'
p966
(lp967
I143379154
aI143381025
aS'-'
asS'LOC401312'
p968
(lp969
I22649959
aI22665533
aS'-'
asS'IRF5'
p970
(lp971
I128937031
aI128950042
aS'+'
asS'MTPN'
p972
(lp973
I135926754
aI135977456
aS'-'
asS'AZGP1'
p974
(lp975
I99966726
aI99976112
aS'-'
asS'PMS2P1'
p976
(lp977
I100320639
aI100336307
aS'-'
asS'PMS2P2'
p978
(lp979
I75343936
aI75358997
aS'-'
asS'PMS2P3'
p980
(lp981
I75507746
aI75528123
aS'-'
asS'PMS2P4'
p982
(lp983
I67276130
aI67302442
aS'-'
asS'PMS2P5'
p984
(lp985
I74890767
aI74921138
aS'+'
asS'PMS2P7'
p986
(lp987
I75320771
aI75359038
aS'-'
asS'TMEM213'
p988
(lp989
I138797993
aI138806759
aS'+'
asS'COX19'
p990
(lp991
I964851
aI975549
aS'-'
asS'LINC01022'
p992
(lp993
I158590628
aI158591933
aS'+'
asS'MIR550A2'
p994
(lp995
I32732980
aI32733077
aS'+'
asS'SAP25'
p996
(lp997
I100572229
aI100573820
aS'-'
asS'MIR4657'
p998
(lp999
I44881747
aI44881800
aS'-'
asS'ZNF117'
p1000
(lp1001
I64974451
aI64991036
aS'-'
asS'NXPH1'
p1002
(lp1003
I8433954
aI8752963
aS'+'
asS'VPS50'
p1004
(lp1005
I93232339
aI93361123
aS'+'
asS'RNU6-9'
p1006
(lp1007
I123790606
aI123790711
aS'-'
asS'BAIAP2L1'
p1008
(lp1009
I98291649
aI98401090
aS'-'
asS'RALA'
p1010
(lp1011
I39623552
aI39708124
aS'+'
asS'LINC00997'
p1012
(lp1013
I32758285
aI32762924
aS'+'
asS'NUDCD3'
p1014
(lp1015
I44382365
aI44490786
aS'-'
asS'TMEM130'
p1016
(lp1017
I98846487
aI98870050
aS'-'
asS'TAS2R41'
p1018
(lp1019
I143477872
aI143478796
aS'+'
asS'INMT'
p1020
(lp1021
I30752134
aI30757602
aS'+'
asS'HDAC9'
p1022
(lp1023
I18086941
aI19002414
aS'+'
asS'TMEM139'
p1024
(lp1025
I143284898
aI143288049
aS'+'
asS'LOC101927550'
p1026
(lp1027
I99013164
aI99036479
aS'+'
asS'LOC101927000'
p1028
(lp1029
I561957
aI565621
aS'+'
asS'RFC2'
p1030
(lp1031
I74231501
aI74254458
aS'-'
asS'LOC102723899'
p1032
(lp1033
I90469638
aI90513402
aS'+'
asS'ABHD11-AS1'
p1034
(lp1035
I73735068
aI73736000
aS'+'
asS'PRKAR2B'
p1036
(lp1037
I107044732
aI107161811
aS'+'
asS'PGAM2'
p1038
(lp1039
I44062726
aI44065567
aS'-'
asS'MRPS33'
p1040
(lp1041
I141006160
aI141014981
aS'-'
asS'PAXIP1-AS2'
p1042
(lp1043
I154928516
aI154949486
aS'+'
asS'MIR595'
p1044
(lp1045
I158532717
aI158532813
aS'-'
asS'SPDYE16'
p1046
(lp1047
I76533693
aI76540386
aS'-'
asS'CBX3'
p1048
(lp1049
I26201210
aI26213607
aS'+'
asS'MPLKIP'
p1050
(lp1051
I40132742
aI40134652
aS'-'
asS'ATXN7L1'
p1052
(lp1053
I105604773
aI105876585
aS'-'
asS'GTF2IP23'
p1054
(lp1055
I66847449
aI66884273
aS'+'
asS'MIR6874'
p1056
(lp1057
I5711839
aI5711910
aS'-'
asS'LOC101928861'
p1058
(lp1059
I133800492
aI133824888
aS'-'
asS'BET1'
p1060
(lp1061
I93962770
aI94004382
aS'-'
asS'RNU6-1'
p1062
(lp1063
I123790606
aI123790711
aS'-'
asS'ZNF722P'
p1064
(lp1065
I63998805
aI64023525
aS'+'
asS'LOC100128885'
p1066
(lp1067
I64574694
aI64618589
aS'+'
asS'SNORA5A'
p1068
(lp1069
I45104348
aI45104482
aS'-'
asS'SNORA5C'
p1070
(lp1071
I45104905
aI45105042
aS'-'
asS'SNORA5B'
p1072
(lp1073
I45105967
aI45106099
aS'-'
asS'GNB2'
p1074
(lp1075
I100673739
aI100679169
aS'+'
asS'KIAA0087'
p1076
(lp1077
I26533120
aI26538825
aS'-'
asS'ADAP1'
p1078
(lp1079
I897899
aI955407
aS'-'
asS'SSC4D'
p1080
(lp1081
I76389328
aI76409695
aS'-'
asS'C7orf69'
p1082
(lp1083
I47795290
aI47819846
aS'+'
asS'MLXIPL'
p1084
(lp1085
I73593193
aI73624543
aS'-'
asS'ACTL6B'
p1086
(lp1087
I100643102
aI100656461
aS'-'
asS'FBXO24'
p1088
(lp1089
I100586332
aI100601117
aS'+'
asS'GIMAP6'
p1090
(lp1091
I150625375
aI150632648
aS'-'
asS'CCZ1'
p1092
(lp1093
I5898709
aI5925972
aS'+'
asS'TTC26'
p1094
(lp1095
I139133743
aI139191986
aS'+'
asS'KIAA1147'
p1096
(lp1097
I141656727
aI141702153
aS'-'
asS'ASL'
p1098
(lp1099
I66075788
aI66093342
aS'+'
asS'TRIL'
p1100
(lp1101
I28953357
aI28958413
aS'-'
asS'MACC1'
p1102
(lp1103
I20134655
aI20217390
aS'-'
asS'MIR196B'
p1104
(lp1105
I27169479
aI27169563
aS'-'
asS'PUS7'
p1106
(lp1107
I105456500
aI105522258
aS'-'
asS'LOC102724555'
p1108
(lp1109
I123614160
aI123624957
aS'-'
asS'MIR183'
p1110
(lp1111
I129774904
aI129775014
aS'-'
asS'LOC730234'
p1112
(lp1113
I45805228
aI45807910
aS'+'
asS'YKT6'
p1114
(lp1115
I44200978
aI44214294
aS'+'
asS'FIGNL1'
p1116
(lp1117
I50437319
aI50450406
aS'-'
asS'DOCK4-AS1'
p1118
(lp1119
I111808504
aI111821779
aS'+'
asS'SNORD165'
p1120
(lp1121
I4837387
aI4837450
aS'-'
asS'AGAP3'
p1122
(lp1123
I151085830
aI151144436
aS'+'
asS'SND1'
p1124
(lp1125
I127652193
aI128092593
aS'+'
asS'TMEM140'
p1126
(lp1127
I135148013
aI135166215
aS'+'
asS'ISPD'
p1128
(lp1129
I16087526
aI16421322
aS'-'
asS'NAT16'
p1130
(lp1131
I101170492
aI101180276
aS'-'
asS'IGF2BP3'
p1132
(lp1133
I23310208
aI23470376
aS'-'
asS'ZNF800'
p1134
(lp1135
I127370042
aI127392724
aS'-'
asS'DKFZp434L192'
p1136
(lp1137
I56496222
aI56497284
aS'+'
asS'THAP5'
p1138
(lp1139
I108562143
aI108569768
aS'-'
asS'LOC100129603'
p1140
(lp1141
I3140930
aI3158573
aS'-'
asS'LOC100133091'
p1142
(lp1143
I76549340
aI76627982
aS'+'
asS'TMEM225B'
p1144
(lp1145
I99598065
aI99611045
aS'+'
asS'TES'
p1146
(lp1147
I116210538
aI116258783
aS'+'
asS'LINC01446'
p1148
(lp1149
I53655508
aI53811931
aS'-'
asS'LOC101928618'
p1150
(lp1151
I36095309
aI36100652
aS'+'
asS'LINC01445'
p1152
(lp1153
I54330696
aI54349845
aS'+'
asS'LINC01448'
p1154
(lp1155
I42661725
aI42706447
aS'-'
asS'LINC01449'
p1156
(lp1157
I41101603
aI41133501
aS'+'
asS'HOXA7'
p1158
(lp1159
I27153718
aI27156677
aS'-'
asS'HOXA6'
p1160
(lp1161
I27145582
aI27147774
aS'-'
asS'HOXA5'
p1162
(lp1163
I27141051
aI27143668
aS'-'
asS'HOXA4'
p1164
(lp1165
I27128506
aI27130780
aS'-'
asS'HOXA3'
p1166
(lp1167
I27106189
aI27127020
aS'-'
asS'HOXA2'
p1168
(lp1169
I27100353
aI27102775
aS'-'
asS'CDK6'
p1170
(lp1171
I92604920
aI92836627
aS'-'
asS'COBL'
p1172
(lp1173
I51016211
aI51316861
aS'-'
asS'LOC101409256'
p1174
(lp1175
I90396291
aI90398236
aS'+'
asS'CRHR2'
p1176
(lp1177
I30651942
aI30700103
aS'-'
asS'ZNF716'
p1178
(lp1179
I57450176
aI57473559
aS'+'
asS'HOXA9'
p1180
(lp1181
I27162437
aI27165537
aS'-'
asS'NRF1'
p1182
(lp1183
I129611701
aI129757082
aS'+'
asS'PHF14'
p1184
(lp1185
I10973871
aI11169623
aS'+'
asS'LOC105375504'
p1186
(lp1187
I130365649
aI130367127
aS'-'
asS'ZNF862'
p1188
(lp1189
I149838366
aI149867479
aS'+'
asS'CHPF2'
p1190
(lp1191
I151232488
aI151238827
aS'+'
asS'MTERF1'
p1192
(lp1193
I91872875
aI91880720
aS'-'
asS'FAM220A'
p1194
(lp1195
I6329410
aI6348967
aS'-'
asS'LOC100506682'
p1196
(lp1197
I127476882
aI127485804
aS'+'
asS'MRPS17'
p1198
(lp1199
I55951917
aI55955340
aS'+'
asS'LOC100287834'
p1200
(lp1201
I63349069
aI63351774
aS'+'
asS'OR2A2'
p1202
(lp1203
I144109582
aI144110539
aS'+'
asS'MIR1285-1'
p1204
(lp1205
I92204014
aI92204098
aS'-'
asS'BMPER'
p1206
(lp1207
I33904914
aI34156427
aS'+'
asS'LOC100506178'
p1208
(lp1209
I22563336
aI22573998
aS'+'
asS'AASS'
p1210
(lp1211
I122073549
aI122144249
aS'-'
asS'MIR4285'
p1212
(lp1213
I102293102
aI102293187
aS'+'
asS'ZNF713'
p1214
(lp1215
I55887455
aI55946450
aS'+'
asS'HIP1'
p1216
(lp1217
I75533297
aI75738972
aS'-'
asS'FERD3L'
p1218
(lp1219
I19144781
aI19145421
aS'-'
asS'POMZP3'
p1220
(lp1221
I76609985
aI76627303
aS'-'
asS'SNHG15'
p1222
(lp1223
I44983022
aI44986696
aS'-'
asS'ZNF733P'
p1224
(lp1225
I63291291
aI63304056
aS'-'
asS'ZNF3'
p1226
(lp1227
I100063846
aI100081764
aS'-'
asS'ZNF727'
p1228
(lp1229
I64045421
aI64085339
aS'+'
asS'SMKR1'
p1230
(lp1231
I129502530
aI129512918
aS'+'
asS'SUN3'
p1232
(lp1233
I47987148
aI48029119
aS'-'
asS'CLK2P1'
p1234
(lp1235
I23584715
aI23586527
aS'-'
asS'SUN1'
p1236
(lp1237
I816614
aI874920
aS'+'
asS'POR'
p1238
(lp1239
I75915154
aI75986855
aS'+'
asS'ICA1'
p1240
(lp1241
I8113184
aI8262612
aS'-'
asS'SPDYE11'
p1242
(lp1243
I73077250
aI73084238
aS'-'
asS'MIR3943'
p1244
(lp1245
I43150894
aI43150994
aS'+'
asS'CCDC71L'
p1246
(lp1247
I106654361
aI106661188
aS'-'
asS'ABCB1'
p1248
(lp1249
I87503862
aI87713323
aS'-'
asS'LINC01162'
p1250
(lp1251
I20835430
aI21023148
aS'+'
asS'VIPR2'
p1252
(lp1253
I159028174
aI159144957
aS'-'
asS'ABCB5'
p1254
(lp1255
I20615621
aI20757014
aS'+'
asS'ABCB4'
p1256
(lp1257
I87402044
aI87475703
aS'-'
asS'ATP6V0E2-AS1'
p1258
(lp1259
I149867693
aI149873862
aS'-'
asS'ABCB8'
p1260
(lp1261
I151028421
aI151047782
aS'+'
asS'CCT6A'
p1262
(lp1263
I56051684
aI56063989
aS'+'
asS'YWHAG'
p1264
(lp1265
I76326798
aI76358991
aS'-'
asS'SUMF2'
p1266
(lp1267
I56064285
aI56080672
aS'+'
asS'INTS1'
p1268
(lp1269
I1470276
aI1504382
aS'-'
asS'KCND2'
p1270
(lp1271
I120273174
aI120750335
aS'+'
asS'TMEM248'
p1272
(lp1273
I66921215
aI66958551
aS'+'
asS'RAC1'
p1274
(lp1275
I6374494
aI6403967
aS'+'
asS'RP9'
p1276
(lp1277
I33094797
aI33109390
aS'-'
asS'LSM5'
p1278
(lp1279
I32485332
aI32495258
aS'-'
asS'CARD11'
p1280
(lp1281
I2906075
aI3043945
aS'-'
asS'CHRM2'
p1282
(lp1283
I136868651
aI137017024
aS'+'
asS'TMEM243'
p1284
(lp1285
I87196161
aI87220587
aS'-'
asS'ELMO1-AS1'
p1286
(lp1287
I36997795
aI37013630
aS'+'
asS'MIR6509'
p1288
(lp1289
I135206994
aI135207078
aS'-'
asS'MIR1183'
p1290
(lp1291
I21471057
aI21471146
aS'+'
asS'SNORA15B-2'
p1292
(lp1293
I65070537
aI65070672
aS'+'
asS'CYTH3'
p1294
(lp1295
I6161780
aI6272611
aS'-'
asS'NPSR1'
p1296
(lp1297
I34658238
aI34878332
aS'+'
asS'CALD1'
p1298
(lp1299
I134779412
aI134970729
aS'+'
asS'PAPOLB'
p1300
(lp1301
I4857737
aI4861994
aS'-'
asS'LOC730338'
p1302
(lp1303
I46687878
aI46697122
aS'-'
asS'NPY'
p1304
(lp1305
I24284189
aI24291860
aS'+'
asS'CHST12'
p1306
(lp1307
I2403610
aI2448484
aS'+'
asS'ZSCAN25'
p1308
(lp1309
I99616947
aI99672538
aS'+'
asS'CALCR'
p1310
(lp1311
I93424486
aI93574730
aS'-'
asS'AGR2'
p1312
(lp1313
I16792639
aI16805114
aS'-'
asS'AGR3'
p1314
(lp1315
I16859405
aI16881989
aS'-'
asS'ZNF467'
p1316
(lp1317
I149764181
aI149773479
aS'-'
asS'LOC105375297'
p1318
(lp1319
I57221168
aI57222174
aS'-'
asS'SPDYE7P'
p1320
(lp1321
I72862756
aI72869091
aS'-'
asS'FAM71F1'
p1322
(lp1323
I128709060
aI128731743
aS'+'
asS'H2AFV'
p1324
(lp1325
I44826888
aI44848126
aS'-'
asS'TWISTNB'
p1326
(lp1327
I19695461
aI19709037
aS'-'
asS'MAGI2-AS3'
p1328
(lp1329
I79452956
aI79471208
aS'+'
asS'WIPF3'
p1330
(lp1331
I29806553
aI29917066
aS'+'
asS'TARP'
p1332
(lp1333
I38259642
aI38273647
aS'-'
asS'AOAH-IT1'
p1334
(lp1335
I36597833
aI36600120
aS'-'
asS'TAS2R60'
p1336
(lp1337
I143443452
aI143444409
aS'+'
asS'LOC389602'
p1338
(lp1339
I155961218
aI155968391
aS'+'
asS'GLCCI1'
p1340
(lp1341
I7968742
aI8089079
aS'+'
asS'ERV3-1'
p1342
(lp1343
I64990354
aI65006746
aS'-'
asS'ASB10'
p1344
(lp1345
I151175697
aI151187832
aS'-'
asS'FKBP14'
p1346
(lp1347
I30010582
aI30026801
aS'-'
asS'MIR5692A2'
p1348
(lp1349
I97963662
aI97963721
aS'+'
asS'FAM185BP'
p1350
(lp1351
I77081654
aI77122289
aS'-'
asS'LOC101928283'
p1352
(lp1353
I125184568
aI125379321
aS'+'
asS'MIR5692A1'
p1354
(lp1355
I97963657
aI97963726
aS'+'
asS'UBN2'
p1356
(lp1357
I139231236
aI139308236
aS'+'
asS'TBX20'
p1358
(lp1359
I35202429
aI35254100
aS'-'
asS'FAM3C'
p1360
(lp1361
I121348850
aI121396368
aS'-'
asS'PODXL'
p1362
(lp1363
I131500261
aI131556617
aS'-'
asS'FZD9'
p1364
(lp1365
I73433778
aI73436120
aS'+'
asS'CD36'
p1366
(lp1367
I80602187
aI80674418
aS'+'
asS'HRAT17'
p1368
(lp1369
I112954634
aI112995643
aS'-'
asS'GPER1'
p1370
(lp1371
I1086806
aI1093815
aS'+'
asS'CHN2'
p1372
(lp1373
I29146546
aI29514335
aS'+'
asS'CASTOR3'
p1374
(lp1375
I100200654
aI100272232
aS'-'
asS'CASTOR2'
p1376
(lp1377
I74964817
aI75031532
aS'+'
asS'CYP2W1'
p1378
(lp1379
I983180
aI989640
aS'+'
asS'C7orf50'
p1380
(lp1381
I996985
aI1138257
aS'-'
asS'LOC155060'
p1382
(lp1383
I149285280
aI149297312
aS'+'
asS'POP7'
p1384
(lp1385
I100706120
aI100707486
aS'+'
asS'CAV2'
p1386
(lp1387
I116499600
aI116508541
aS'+'
asS'GPR37'
p1388
(lp1389
I124743884
aI124766108
aS'-'
asS'KIAA1549'
p1390
(lp1391
I138831380
aI138981318
aS'-'
asS'MIR6838'
p1392
(lp1393
I44073377
aI44073433
aS'-'
asS'TOMM7'
p1394
(lp1395
I22812632
aI22822852
aS'-'
asS'SNORA14A'
p1396
(lp1397
I75943782
aI75943916
aS'+'
asS'NFE4'
p1398
(lp1399
I102973436
aI102978667
aS'+'
asS'PPP1R3A'
p1400
(lp1401
I113876826
aI113919027
aS'-'
asS'RNF32'
p1402
(lp1403
I156640658
aI156677126
aS'+'
asS'LOC101928605'
p1404
(lp1405
I144195320
aI144299589
aS'+'
asS'MPP6'
p1406
(lp1407
I24573345
aI24693703
aS'+'
asS'MIR6836'
p1408
(lp1409
I2257514
aI2257577
aS'-'
asS'MIR6837'
p1410
(lp1411
I44051765
aI44051829
aS'+'
asS'POU6F2'
p1412
(lp1413
I38978008
aI39464791
aS'+'
asS'LINC01392'
p1414
(lp1415
I115123598
aI115231355
aS'-'
asS'SNORA80D'
p1416
(lp1417
I6016876
aI6017011
aS'+'
asS'MAGI2'
p1418
(lp1419
I78017054
aI79453667
aS'-'
asS'UMAD1'
p1420
(lp1421
I7640635
aI7879220
aS'+'
asS'TRPV5'
p1422
(lp1423
I142908100
aI142933723
aS'-'
asS'RSBN1L'
p1424
(lp1425
I77696458
aI77783022
aS'+'
asS'WDR60'
p1426
(lp1427
I158839244
aI158946192
aS'+'
asS'TRPV6'
p1428
(lp1429
I142871202
aI142885745
aS'-'
asS'KLHDC10'
p1430
(lp1431
I130070508
aI130135720
aS'+'
asS'DMTF1'
p1432
(lp1433
I87152360
aI87196332
aS'+'
asS'GUSB'
p1434
(lp1435
I65960685
aI65982314
aS'-'
asS'ST7-OT3'
p1436
(lp1437
I117182680
aI117209937
aS'+'
asS'FAM183BP'
p1438
(lp1439
I38685345
aI38687089
aS'-'
asS'FAM131B'
p1440
(lp1441
I143353399
aI143362747
aS'-'
asS'WEE2-AS1'
p1442
(lp1443
I141704337
aI141738230
aS'-'
asS'LOC101928012'
p1444
(lp1445
I112622380
aI112708067
aS'+'
asS'TBXAS1'
p1446
(lp1447
I139778241
aI140020325
aS'+'
asS'CTAGE15'
p1448
(lp1449
I143571800
aI143574387
aS'+'
asS'AQP1'
p1450
(lp1451
I30911693
aI30925517
aS'+'
asS'TRIM24'
p1452
(lp1453
I138460333
aI138585587
aS'+'
asS'CREB5'
p1454
(lp1455
I28299320
aI28825894
aS'+'
asS'RNF216P1'
p1456
(lp1457
I4973984
aI4998169
aS'+'
asS'RNY4'
p1458
(lp1459
I148963314
aI148963410
aS'+'
asS'EVX1'
p1460
(lp1461
I27242544
aI27247819
aS'+'
asS'PPP1R35'
p1462
(lp1463
I100435276
aI100436473
aS'-'
asS'ZNF767P'
p1464
(lp1465
I149547153
aI149624790
aS'-'
asS'NACAD'
p1466
(lp1467
I45080436
aI45088894
aS'-'
asS'LOC100131257'
p1468
(lp1469
I7075769
aI7096786
aS'-'
asS'PER4'
p1470
(lp1471
I9634269
aI9635817
aS'+'
asS'DNAJB9'
p1472
(lp1473
I108569744
aI108574850
aS'+'
asS'LRRC72'
p1474
(lp1475
I16526879
aI16581489
aS'+'
asS'LINC01447'
p1476
(lp1477
I47621938
aI47629893
aS'+'
asS'ZAN'
p1478
(lp1479
I100733625
aI100797797
aS'+'
asS'CYREN'
p1480
(lp1481
I135092308
aI135170826
aS'-'
asS'GRM8'
p1482
(lp1483
I126438597
aI127252374
aS'-'
asS'ATP5MF'
p1484
(lp1485
I99458160
aI99466201
aS'-'
asS'ADCY1'
p1486
(lp1487
I45574521
aI45723115
aS'+'
asS'LOC100128325'
p1488
(lp1489
I130141730
aI130142618
aS'+'
asS'MIR490'
p1490
(lp1491
I136903166
aI136903294
aS'+'
asS'RBM48'
p1492
(lp1493
I92528794
aI92540481
aS'+'
asS'PTPN12'
p1494
(lp1495
I77537294
aI77640069
aS'+'
asS'LOC100130673'
p1496
(lp1497
I32456898
aI32458494
aS'-'
asS'NME8'
p1498
(lp1499
I37848596
aI37900400
aS'+'
asS'ZNF273'
p1500
(lp1501
I64903241
aI64931577
aS'+'
asS'ZCWPW1'
p1502
(lp1503
I100400871
aI100428808
aS'-'
asS'ZNF277'
p1504
(lp1505
I112206587
aI112343934
aS'+'
asS'RP9P'
p1506
(lp1507
I32916814
aI32943170
aS'-'
asS'POM121L12'
p1508
(lp1509
I53035655
aI53036925
aS'+'
asS'MIR148A'
p1510
(lp1511
I25949918
aI25949986
aS'-'
asS'LSM8'
p1512
(lp1513
I118184031
aI118204039
aS'+'
asS'RNF216'
p1514
(lp1515
I5620040
aI5781730
aS'-'
asS'AKR1B1'
p1516
(lp1517
I134442349
aI134459239
aS'-'
asS'ATP6V0A4'
p1518
(lp1519
I138706293
aI138798196
aS'-'
asS'WDR86-AS1'
p1520
(lp1521
I151409160
aI151413354
aS'+'
asS'PMS2CL'
p1522
(lp1523
I6735304
aI6751601
aS'+'
asS'EIF3IP1'
p1524
(lp1525
I109959226
aI109960213
aS'-'
asS'ARHGEF34P'
p1526
(lp1527
I144258995
aI144286003
aS'-'
asS'SKAP2'
p1528
(lp1529
I26667061
aI26864743
aS'-'
asS'ATP6V1FNB'
p1530
(lp1531
I128866347
aI128872047
aS'+'
asS'DOCK4'
p1532
(lp1533
I111726107
aI112206407
aS'-'
asS'TMEM176B'
p1534
(lp1535
I150791287
aI150801360
aS'-'
asS'ARHGEF35'
p1536
(lp1537
I144186082
aI144195698
aS'-'
asS'ZNF853'
p1538
(lp1539
I6615616
aI6624291
aS'+'
asS'NPTX2'
p1540
(lp1541
I98617284
aI98629869
aS'+'
asS'RBAK'
p1542
(lp1543
I5045820
aI5069488
aS'+'
asS'HOTAIRM1'
p1544
(lp1545
I27096093
aI27100258
aS'+'
asS'SEPT7'
p1546
(lp1547
I35800985
aI35907105
aS'+'
asS'XRCC2'
p1548
(lp1549
I152646501
aI152676165
aS'-'
asS'SPDYE2B'
p1550
(lp1551
I102551231
aI102562310
aS'+'
asS'SMURF1'
p1552
(lp1553
I99027434
aI99144120
aS'-'
asS'LEP'
p1554
(lp1555
I128241277
aI128257629
aS'+'
asS'SDHAF3'
p1556
(lp1557
I97116592
aI97181763
aS'+'
asS'LINC02587'
p1558
(lp1559
I15688377
aI15696892
aS'+'
asS'ELDR'
p1560
(lp1561
I55238435
aI55255635
aS'-'
asS'SLC25A13'
p1562
(lp1563
I96120219
aI96322147
aS'-'
asS'TNRC18'
p1564
(lp1565
I5306791
aI5423546
aS'-'
asS'VPS37D'
p1566
(lp1567
I73667843
aI73672110
aS'+'
asS'GSAP'
p1568
(lp1569
I77310750
aI77416400
aS'-'
asS'USP42'
p1570
(lp1571
I6104918
aI6161564
aS'+'
asS'GARS-DT'
p1572
(lp1573
I30548356
aI30577779
aS'-'
asS'ELFN1-AS1'
p1574
(lp1575
I1738630
aI1742310
aS'-'
asS'FAM71F2'
p1576
(lp1577
I128672265
aI128687872
aS'+'
asS'LOC101930085'
p1578
(lp1579
I35695205
aI35699412
aS'+'
asS'RBM33'
p1580
(lp1581
I155644508
aI155781485
aS'+'
asS'LOC100129148'
p1582
(lp1583
I139417462
aI139427526
aS'-'
asS'PNPLA8'
p1584
(lp1585
I108470421
aI108528161
aS'-'
asS'VGF'
p1586
(lp1587
I101162508
aI101165569
aS'-'
asS'ZFAND2A'
p1588
(lp1589
I1148849
aI1160196
aS'-'
asS'TFR2'
p1590
(lp1591
I100620415
aI100641550
aS'-'
asS'CCZ1P-OR7E38P'
p1592
(lp1593
I97966407
aI97972358
aS'-'
asS'EPHB6'
p1594
(lp1595
I142855013
aI142871093
aS'+'
asS'HOXA1'
p1596
(lp1597
I27092994
aI27096006
aS'-'
asS'EPHB4'
p1598
(lp1599
I100802564
aI100827521
aS'-'
asS'ATG9B'
p1600
(lp1601
I151012208
aI151024499
aS'-'
asS'EPHA1-AS1'
p1602
(lp1603
I143407812
aI143523447
aS'+'
asS'LOC101927391'
p1604
(lp1605
I7550103
aI7566065
aS'-'
asS'LOC105375556'
p1606
(lp1607
I147671678
aI147673144
aS'+'
asS'MKLN1-AS'
p1608
(lp1609
I131309743
aI131327779
aS'-'
asS'CCT6P3'
p1610
(lp1611
I65038353
aI65074713
aS'+'
asS'TRRAP'
p1612
(lp1613
I98878489
aI99013243
aS'+'
asS'CCM2'
p1614
(lp1615
I44999745
aI45076470
aS'+'
asS'TMUB1'
p1616
(lp1617
I151081084
aI151083493
aS'-'
asS'APTR'
p1618
(lp1619
I77657659
aI77696265
aS'-'
asS'LOC100507468'
p1620
(lp1621
I69594803
aI69597624
aS'-'
asS'GIMAP8'
p1622
(lp1623
I150450629
aI150479395
aS'+'
asS'DDC'
p1624
(lp1625
I50458435
aI50565457
aS'-'
asS'LOC112267983'
p1626
(lp1627
I39947520
aI39949419
aS'-'
asS'SCRN1'
p1628
(lp1629
I29920102
aI29990289
aS'-'
asS'CCT6P1'
p1630
(lp1631
I65751104
aI65763675
aS'+'
asS'LOC101927914'
p1632
(lp1633
I157466230
aI157499716
aS'+'
asS'GIMAP1'
p1634
(lp1635
I150716556
aI150724280
aS'+'
asS'GIMAP2'
p1636
(lp1637
I150685705
aI150693640
aS'+'
asS'ST7-AS1'
p1638
(lp1639
I116952446
aI116954334
aS'-'
asS'UBE2H'
p1640
(lp1641
I129830732
aI129952960
aS'-'
asS'CCDC136'
p1642
(lp1643
I128791409
aI128822133
aS'+'
asS'ABCA13'
p1644
(lp1645
I48171459
aI48647495
aS'+'
asS'MIR3609'
p1646
(lp1647
I98881649
aI98881729
aS'+'
asS'MIR4649'
p1648
(lp1649
I44110848
aI44110912
aS'+'
asS'MIR4648'
p1650
(lp1651
I2527073
aI2527145
aS'+'
asS'MRPS24'
p1652
(lp1653
I43866557
aI43869546
aS'-'
asS'CDHR3'
p1654
(lp1655
I105963210
aI106036431
aS'+'
asS'CDC14C'
p1656
(lp1657
I48924560
aI48927454
aS'+'
asS'PTCD1'
p1658
(lp1659
I99416738
aI99438839
aS'-'
asS'LRCH4'
p1660
(lp1661
I100574010
aI100586188
aS'-'
asS'STK31'
p1662
(lp1663
I23710166
aI23832511
aS'+'
asS'POLR2J4'
p1664
(lp1665
I43940894
aI44019194
aS'-'
asS'OR6V1'
p1666
(lp1667
I143052340
aI143053282
aS'+'
asS'RPS2P32'
p1668
(lp1669
I23490387
aI23491412
aS'+'
asS'AGFG2'
p1670
(lp1671
I100539210
aI100568220
aS'+'
asS'LOC646588'
p1672
(lp1673
I25593300
aI25790119
aS'-'
asS'POLR2J2'
p1674
(lp1675
I102636747
aI102671729
aS'-'
asS'POLR2J3'
p1676
(lp1677
I102537918
aI102572621
aS'-'
asS'STX1A'
p1678
(lp1679
I73699204
aI73719687
aS'-'
asS'LOC650226'
p1680
(lp1681
I56423703
aI56448375
aS'-'
asS'ARHGEF5'
p1682
(lp1683
I144355401
aI144380632
aS'+'
asS'AGBL3'
p1684
(lp1685
I134986507
aI135135778
aS'+'
asS'LAMB4'
p1686
(lp1687
I108023550
aI108130356
aS'-'
asS'LOC100287704'
p1688
(lp1689
I63349069
aI63351774
aS'+'
asS'MYO1G'
p1690
(lp1691
I44962660
aI44979105
aS'-'
asS'VSTM2A'
p1692
(lp1693
I54542324
aI54571080
aS'+'
asS'MTRNR2L6'
p1694
(lp1695
I142666298
aI142667693
aS'+'
asS'INSIG1'
p1696
(lp1697
I155297771
aI155310235
aS'+'
asS'NAMPT'
p1698
(lp1699
I106248297
aI106284983
aS'-'
asS'MIR182'
p1700
(lp1701
I129770382
aI129770492
aS'-'
asS'OR2A25'
p1702
(lp1703
I144074219
aI144075152
aS'+'
asS'OR2F1'
p1704
(lp1705
I143959926
aI143961015
aS'+'
asS'ITPRID1'
p1706
(lp1707
I31514070
aI31656502
aS'+'
asS'MIR29A'
p1708
(lp1709
I130876746
aI130876810
aS'-'
asS'CRYGN'
p1710
(lp1711
I151428831
aI151440813
aS'-'
asS'GIMAP5'
p1712
(lp1713
I150737347
aI150743649
aS'+'
asS'SEPT7-AS1'
p1714
(lp1715
I35754963
aI35800625
aS'-'
asS'KCTD7'
p1716
(lp1717
I66628880
aI66643229
aS'+'
asS'LOC401357'
p1718
(lp1719
I56809123
aI56812736
aS'-'
asS'DNAAF5'
p1720
(lp1721
I726700
aI786479
aS'+'
asS'MEOX2'
p1722
(lp1723
I15611211
aI15686683
aS'-'
asS'PHTF2'
p1724
(lp1725
I77798772
aI77957504
aS'+'
asS'LOC101928254'
p1726
(lp1727
I125229578
aI125264291
aS'-'
asS'THSD7A'
p1728
(lp1729
I11370434
aI11832198
aS'-'
asS'SNX13'
p1730
(lp1731
I17790760
aI17940508
aS'-'
asS'VPS41'
p1732
(lp1733
I38723942
aI38909200
aS'-'
asS'RNY1'
p1734
(lp1735
I148987135
aI148987248
aS'-'
asS'SNX10'
p1736
(lp1737
I26291877
aI26374329
aS'+'
asS'BCAP29'
p1738
(lp1739
I107579976
aI107623317
aS'+'
asS'HOXA13'
p1740
(lp1741
I27196879
aI27200106
aS'-'
asS'LOC100129484'
p1742
(lp1743
I5426282
aI5428927
aS'-'
asS'HOXA11'
p1744
(lp1745
I27181156
aI27185216
aS'-'
asS'HOXA10'
p1746
(lp1747
I27170590
aI27180261
aS'-'
asS'PSMA2'
p1748
(lp1749
I42916860
aI42932206
aS'-'
asS'LOC101927630'
p1750
(lp1751
I17463444
aI17558909
aS'-'
asS'SPAM1'
p1752
(lp1753
I123925231
aI123971407
aS'+'
asS'NUB1'
p1754
(lp1755
I151341760
aI151378461
aS'+'
asS'NSUN5P1'
p1756
(lp1757
I75410321
aI75416792
aS'+'
asS'TMEM209'
p1758
(lp1759
I130164712
aI130205498
aS'-'
asS'ZNF107'
p1760
(lp1761
I64666082
aI64711582
aS'+'
asS'LFNG'
p1762
(lp1763
I2512528
aI2528429
aS'+'
asS'BCL7B'
p1764
(lp1765
I73536352
aI73557735
aS'-'
asS'TAS2R38'
p1766
(lp1767
I141972630
aI141973773
aS'-'
asS'LOC101926943'
p1768
(lp1769
I74688936
aI74728918
aS'-'
asS'LINC01510'
p1770
(lp1771
I116563593
aI116614820
aS'-'
asS'NDUFA4'
p1772
(lp1773
I10931952
aI10940186
aS'-'
asS'NDUFA5'
p1774
(lp1775
I123536997
aI123601651
aS'-'
asS'CNPY1'
p1776
(lp1777
I155501257
aI155533844
aS'-'
asS'C7orf25'
p1778
(lp1779
I42909272
aI42912090
aS'-'
asS'DKFZP586I1420'
p1780
(lp1781
I30370049
aI30372794
aS'+'
asS'RABGEF1'
p1782
(lp1783
I66682090
aI66811461
aS'+'
asS'YWHAEP1'
p1784
(lp1785
I64433692
aI64435517
aS'+'
asS'TMBIM7P'
p1786
(lp1787
I92412549
aI92437314
aS'-'
asS'FLJ40288'
p1788
(lp1789
I132648793
aI132728769
aS'+'
asS'MIR6840'
p1790
(lp1791
I100356650
aI100356721
aS'+'
asS'SPDYE10P'
p1792
(lp1793
I75237186
aI75316867
aS'+'
asS'MIR4658'
p1794
(lp1795
I100156604
aI100156669
aS'-'
asS'ADAM22'
p1796
(lp1797
I87934142
aI88202889
aS'+'
asS'LOC102724094'
p1798
(lp1799
I101014319
aI101017608
aS'-'
asS'RNU6-2'
p1800
(lp1801
I123790606
aI123790711
aS'-'
asS'LOC105375429'
p1802
(lp1803
I100656560
aI100666426
aS'+'
asS'TYW1'
p1804
(lp1805
I66996804
aI67239520
aS'+'
asS'FSCN1'
p1806
(lp1807
I5592804
aI5606656
aS'+'
asS'PRKRIP1'
p1808
(lp1809
I102396356
aI102426682
aS'+'
asS'GALNT17'
p1810
(lp1811
I71132536
aI71713601
aS'+'
asS'LOC102724484'
p1812
(lp1813
I29199039
aI29208970
aS'-'
asS'UPK3BL1'
p1814
(lp1815
I102637024
aI102642791
aS'-'
asS'NEUROD6'
p1816
(lp1817
I31337460
aI31340924
aS'-'
asS'SFRP4'
p1818
(lp1819
I37905932
aI37916923
aS'-'
asS'GALNT11'
p1820
(lp1821
I152025673
aI152122347
aS'+'
asS'EIF2AK1'
p1822
(lp1823
I6022246
aI6059229
aS'-'
asS'WNT2'
p1824
(lp1825
I117276630
aI117323289
aS'-'
asS'LOC101927497'
p1826
(lp1827
I92836482
aI92917187
aS'+'
asS'KCNH2'
p1828
(lp1829
I150944955
aI150978314
aS'-'
asS'RARRES2'
p1830
(lp1831
I150338317
aI150341674
aS'-'
asS'ASNS'
p1832
(lp1833
I97852116
aI97928562
aS'-'
asS'ACTR3C'
p1834
(lp1835
I149881358
aI150323669
aS'-'
asS'PLXNA4'
p1836
(lp1837
I132123331
aI132576564
aS'-'
asS'IL6'
p1838
(lp1839
I22727141
aI22732002
aS'+'
asS'FIS1'
p1840
(lp1841
I101239611
aI101245090
aS'-'
asS'COL1A2'
p1842
(lp1843
I94394560
aI94431232
aS'+'
asS'HBP1'
p1844
(lp1845
I107168960
aI107202529
aS'+'
asS'ZMIZ2'
p1846
(lp1847
I44748565
aI44769880
aS'+'
asS'RHEB'
p1848
(lp1849
I151466011
aI151519895
aS'-'
asS'OR10AC1'
p1850
(lp1851
I143510866
aI143512011
aS'-'
asS'PPIA'
p1852
(lp1853
I44796635
aI44803123
aS'+'
asS'ABCF2'
p1854
(lp1855
I151207836
aI151227374
aS'-'
asS'TRIM74'
p1856
(lp1857
I72959484
aI72969466
aS'-'
asS'RBAK-RBAKDN'
p1858
(lp1859
I5045820
aI5073223
aS'+'
asS'SLC26A4-AS1'
p1860
(lp1861
I107656515
aI107661798
aS'-'
asS'DTX2'
p1862
(lp1863
I76461654
aI76505995
aS'+'
asS'LOC101927269'
p1864
(lp1865
I80371516
aI80374439
aS'-'
asS'SPDYE5'
p1866
(lp1867
I75493626
aI75504304
aS'+'
asS'SNORD151'
p1868
(lp1869
I47464719
aI47464803
aS'-'
asS'AIMP2'
p1870
(lp1871
I6009244
aI6023834
aS'+'
asS'MIR4284'
p1872
(lp1873
I73711316
aI73711397
aS'+'
asS'CYCS'
p1874
(lp1875
I25118650
aI25125361
aS'-'
asS'SPDYE2'
p1876
(lp1877
I102551231
aI102562310
aS'+'
asS'MOSPD3'
p1878
(lp1879
I100612101
aI100615377
aS'+'
asS'AEBP1'
p1880
(lp1881
I44104344
aI44114560
aS'+'
asS'WASL'
p1882
(lp1883
I123681926
aI123749071
aS'-'
asS'LOC101928782'
p1884
(lp1885
I131910219
aI131948953
aS'+'
asS'LINC00972'
p1886
(lp1887
I85421121
aI85489338
aS'+'
asS'GTF2IRD2B'
p1888
(lp1889
I75092555
aI75149817
aS'+'
asS'OR2A9P'
p1890
(lp1891
I144250470
aI144251455
aS'-'
asS'ADCYAP1R1'
p1892
(lp1893
I31052460
aI31111479
aS'+'
asS'SNORA114'
p1894
(lp1895
I2088911
aI2089052
aS'-'
asS'SNORA20B'
p1896
(lp1897
I39329002
aI39329134
aS'-'
asS'HOXA11-AS'
p1898
(lp1899
I27185407
aI27189293
aS'+'
asS'LOC100507642'
p1900
(lp1901
I149717
aI155461
aS'+'
asS'SPDYE14P'
p1902
(lp1903
I73076164
aI73084438
aS'-'
asS'FAM180A'
p1904
(lp1905
I135729597
aI135748846
aS'-'
asS'KLF14'
p1906
(lp1907
I130732553
aI130734033
aS'-'
asS'BRI3'
p1908
(lp1909
I98281666
aI98292963
aS'+'
asS'TAC1'
p1910
(lp1911
I97731958
aI97740472
aS'+'
asS'UNCX'
p1912
(lp1913
I1232381
aI1237326
aS'+'
asS'GAL3ST4'
p1914
(lp1915
I100159241
aI100168750
aS'-'
asS'RNF148'
p1916
(lp1917
I122701665
aI122702967
aS'-'
asS'PSMG3-AS1'
p1918
(lp1919
I1570072
aI1589625
aS'+'
asS'COPG2'
p1920
(lp1921
I130506238
aI130668758
aS'-'
asS'HNRNPA2B1'
p1922
(lp1923
I26189935
aI26200793
aS'-'
asS'MIR153-2'
p1924
(lp1925
I157574335
aI157574422
aS'-'
asS'TAS2R39'
p1926
(lp1927
I143183418
aI143184435
aS'+'
asS'FZD1'
p1928
(lp1929
I91264467
aI91268817
aS'+'
asS'DPP6'
p1930
(lp1931
I153748132
aI154894284
aS'+'
asS'SLC35B4'
p1932
(lp1933
I134289337
aI134317075
aS'-'
asS'KMT2C'
p1934
(lp1935
I152134924
aI152436003
aS'-'
asS'MUC3A'
p1936
(lp1937
I100949533
aI100968347
aS'+'
asS'URGCP-MRPS24'
p1938
(lp1939
I43866557
aI43906632
aS'-'
asS'LOC105375512'
p1940
(lp1941
I133099070
aI133108511
aS'-'
asS'LOC100130849'
p1942
(lp1943
I56875384
aI56882146
aS'-'
asS'TPST1'
p1944
(lp1945
I66205271
aI66360451
aS'+'
asS'MGC27345'
p1946
(lp1947
I128297684
aI128307763
aS'-'
asS'SNORD65C'
p1948
(lp1949
I23396445
aI23396516
aS'+'
asS'MEST'
p1950
(lp1951
I130486174
aI130506297
aS'+'
asS'MIR550A1'
p1952
(lp1953
I30289793
aI30289890
aS'+'
asS'LAMTOR4'
p1954
(lp1955
I100148898
aI100154212
aS'+'
asS'MIR550A3'
p1956
(lp1957
I29680733
aI29680828
aS'-'
asS'ANKRD7'
p1958
(lp1959
I118224703
aI118242730
aS'+'
asS'LMOD2'
p1960
(lp1961
I123655806
aI123664287
aS'+'
asS'RAMP3'
p1962
(lp1963
I45157767
aI45184251
aS'+'
asS'UPK3B'
p1964
(lp1965
I76510422
aI76527882
aS'+'
asS'MIR548N'
p1966
(lp1967
I34940759
aI34940834
aS'-'
asS'MIR548O'
p1968
(lp1969
I102405741
aI102405855
aS'-'
asS'LOC442497'
p1970
(lp1971
I379424
aI382879
aS'+'
asS'ZNF804B'
p1972
(lp1973
I88759367
aI89338528
aS'+'
asS'TAX1BP1'
p1974
(lp1975
I27739372
aI27829767
aS'+'
asS'LINC00996'
p1976
(lp1977
I150433653
aI150448140
aS'+'
asS'UPP1'
p1978
(lp1979
I48088602
aI48108733
aS'+'
asS'CASP2'
p1980
(lp1981
I143288214
aI143307696
aS'+'
asS'LOC100101148'
p1982
(lp1983
I75391948
aI75395413
aS'-'
asS'SNHG26'
p1984
(lp1985
I22854239
aI22861436
aS'+'
asS'C7orf43'
p1986
(lp1987
I100154419
aI100158721
aS'-'
asS'SSMEM1'
p1988
(lp1989
I130207863
aI130216844
aS'+'
asS'SRRM3'
p1990
(lp1991
I76201892
aI76287292
aS'+'
asS'NPVF'
p1992
(lp1993
I25224571
aI25228486
aS'-'
asS'PON1'
p1994
(lp1995
I95297675
aI95324706
aS'-'
asS'RPA3'
p1996
(lp1997
I7636562
aI7718607
aS'-'
asS'PON2'
p1998
(lp1999
I95404861
aI95435072
aS'-'
asS'PURB'
p2000
(lp2001
I44876292
aI44885385
aS'-'
asS'ASZ1'
p2002
(lp2003
I117363221
aI117427523
aS'-'
asS'RINT1'
p2004
(lp2005
I105532080
aI105567684
aS'+'
asS'LINC01176'
p2006
(lp2007
I30390884
aI30404054
aS'+'
asS'PDK4'
p2008
(lp2009
I95583496
aI95596613
aS'-'
asS'LOC100630923'
p2010
(lp2011
I102363860
aI102426682
aS'+'
asS'LOC100506302'
p2012
(lp2013
I155641915
aI155644406
aS'-'
asS'MIR3914-1'
p2014
(lp2015
I71307671
aI71307770
aS'-'
asS'KLHL7-DT'
p2016
(lp2017
I23101227
aI23105703
aS'-'
asS'TCAF1'
p2018
(lp2019
I143851367
aI143902185
aS'-'
asS'MIR3914-2'
p2020
(lp2021
I71307673
aI71307768
aS'+'
asS'C7orf71'
p2022
(lp2023
I26637870
aI26647270
aS'+'
asS'TMEM229A'
p2024
(lp2025
I124030915
aI124033469
aS'-'
asS'AOC1'
p2026
(lp2027
I150852476
aI150861291
aS'+'
asS'SBDSP1'
p2028
(lp2029
I72829372
aI72837399
aS'+'
asS'LOC100289561'
p2030
(lp2031
I102363818
aI102380749
aS'+'
asS'DNAH11'
p2032
(lp2033
I21543214
aI21901568
aS'+'
asS'LAT2'
p2034
(lp2035
I74209756
aI74229834
aS'+'
asS'NRCAM'
p2036
(lp2037
I108147625
aI108456397
aS'-'
asS'LINC01393'
p2038
(lp2039
I115078957
aI115126314
aS'+'
asS'ASB15'
p2040
(lp2041
I123601866
aI123637880
aS'+'
asS'LOC101927769'
p2042
(lp2043
I20296707
aI20311712
aS'+'
asS'RSPH10B2'
p2044
(lp2045
I6754108
aI6798765
aS'+'
asS'SSBP1'
p2046
(lp2047
I141738320
aI141750488
aS'+'
asS'EPO'
p2048
(lp2049
I100720799
aI100723701
aS'+'
asS'MAFK'
p2050
(lp2051
I1530731
aI1543043
aS'+'
asS'HIBADH'
p2052
(lp2053
I27525439
aI27663001
aS'-'
asS'SPDYE15P'
p2054
(lp2055
I73076164
aI73084438
aS'-'
asS'FMC1'
p2056
(lp2057
I139340449
aI139346319
aS'+'
asS'TRG-AS1'
p2058
(lp2059
I38341576
aI38378637
aS'+'
asS'ZYX'
p2060
(lp2061
I143381266
aI143391111
aS'+'
asS'GIGYF1'
p2062
(lp2063
I100679505
aI100689448
aS'-'
asS'FASTK'
p2064
(lp2065
I151076620
aI151080883
aS'-'
asS'DENND2A'
p2066
(lp2067
I140518419
aI140640813
aS'-'
asS'PKD1L1'
p2068
(lp2069
I47774651
aI47948491
aS'-'
asS'ST7-AS2'
p2070
(lp2071
I117112291
aI117145592
aS'-'
asS'AHCYL2'
p2072
(lp2073
I129225013
aI129430211
aS'+'
asS'ZP3'
p2074
(lp2075
I76397523
aI76442071
aS'+'
asS'ELFN1'
p2076
(lp2077
I1709161
aI1747954
aS'+'
asS'ZNF783'
p2078
(lp2079
I149262170
aI149284994
aS'+'
asS'ANKMY2'
p2080
(lp2081
I16599775
aI16645817
aS'-'
asS'WNT16'
p2082
(lp2083
I121325366
aI121341104
aS'+'
asS'OR2AE1'
p2084
(lp2085
I99876061
aI99877033
aS'-'
asS'ZNF786'
p2086
(lp2087
I149069640
aI149090777
aS'-'
asS'TTYH3'
p2088
(lp2089
I2631985
aI2664802
aS'+'
asS'UPK3BL2'
p2090
(lp2091
I102537918
aI102544788
aS'-'
asS'SEPT14'
p2092
(lp2093
I55793543
aI55862789
aS'-'
asS'ZNF789'
p2094
(lp2095
I99472891
aI99487594
aS'+'
asS'LOC100505938'
p2096
(lp2097
I8262224
aI8343281
aS'+'
asS'ZSCAN21'
p2098
(lp2099
I100049793
aI100065041
aS'+'
asS'LOC105375166'
p2100
(lp2101
I15667946
aI15681979
aS'+'
asS'LINC01372'
p2102
(lp2103
I67335975
aI67340026
aS'+'
asS'LNCPRESS1'
p2104
(lp2105
I101299612
aI101301346
aS'+'
asS'FAM221A'
p2106
(lp2107
I23680113
aI23702650
aS'+'
asS'COG5'
p2108
(lp2109
I107201743
aI107564514
aS'-'
asS'KLHL7'
p2110
(lp2111
I23105733
aI23175419
aS'+'
asS'LOC105375304'
p2112
(lp2113
I26372018
aI26399418
aS'-'
asS'PEX1'
p2114
(lp2115
I92487022
aI92528531
aS'-'
asS'GPR22'
p2116
(lp2117
I107470056
aI107475680
aS'+'
asS'PMS2'
p2118
(lp2119
I5970925
aI6009106
aS'-'
asS'CACNA2D1'
p2120
(lp2121
I81946443
aI82443956
aS'-'
asS'OR2A1-AS1'
p2122
(lp2123
I144238572
aI144355718
aS'-'
asS'BRAT1'
p2124
(lp2125
I2537809
aI2555758
aS'-'
asS'DPY19L2P4'
p2126
(lp2127
I90119399
aI90125600
aS'+'
asS'MKRN1'
p2128
(lp2129
I140453039
aI140479569
aS'-'
asS'CALN1'
p2130
(lp2131
I71779490
aI72447143
aS'-'
asS'DPY19L2P1'
p2132
(lp2133
I35081286
aI35186162
aS'-'
asS'DPY19L2P2'
p2134
(lp2135
I103175014
aI103280466
aS'-'
asS'DPY19L2P3'
p2136
(lp2137
I29685153
aI29742621
aS'+'
asS'MTURN'
p2138
(lp2139
I30134985
aI30162762
aS'+'
asS'ARPC1A'
p2140
(lp2141
I99325872
aI99366262
aS'+'
asS'RSPH10B'
p2142
(lp2143
I6754108
aI6798765
aS'+'
asS'TFPI2'
p2144
(lp2145
I93885396
aI93890991
aS'-'
asS'HYAL4'
p2146
(lp2147
I123845168
aI123877477
aS'+'
asS'ZKSCAN1'
p2148
(lp2149
I100015551
aI100045374
aS'+'
asS'ZKSCAN5'
p2150
(lp2151
I99504643
aI99533822
aS'+'
asS'ARPC1B'
p2152
(lp2153
I99374729
aI99394816
aS'+'
asS'ZNF890P'
p2154
(lp2155
I5121309
aI5144546
aS'-'
asS'MIR4650-2'
p2156
(lp2157
I67114321
aI67114397
aS'-'
asS'MIR4650-1'
p2158
(lp2159
I67114321
aI67114397
aS'-'
asS'GBX1'
p2160
(lp2161
I151148588
aI151167548
aS'-'
asS'LINC01006'
p2162
(lp2163
I156472098
aI156640535
aS'-'
asS'CFTR'
p2164
(lp2165
I117479962
aI117668664
aS'+'
asS'LINC01004'
p2166
(lp2167
I104981746
aI104991165
aS'-'
asS'LINC01005'
p2168
(lp2169
I64024415
aI64030102
aS'-'
asS'HTR5A'
p2170
(lp2171
I155070323
aI155087392
aS'+'
asS'PRSS1'
p2172
(lp2173
I142749467
aI142753076
aS'+'
asS'NCAPG2'
p2174
(lp2175
I158631168
aI158704831
aS'-'
asS'KMT2E-AS1'
p2176
(lp2177
I105010541
aI105014141
aS'-'
asS'FOXK1'
p2178
(lp2179
I4682298
aI4771443
aS'+'
asS'PDGFA'
p2180
(lp2181
I497259
aI519844
aS'-'
asS'LRRD1'
p2182
(lp2183
I92144883
aI92165276
aS'-'
asS'SVOPL'
p2184
(lp2185
I138594284
aI138679045
aS'-'
asS'TBRG4'
p2186
(lp2187
I45100099
aI45111747
aS'-'
asS'SNORA15B-1'
p2188
(lp2189
I65070537
aI65070672
aS'+'
asS'TMEM120A'
p2190
(lp2191
I75986836
aI75994674
aS'-'
asS'LOC101927021'
p2192
(lp2193
I1160373
aI1165958
aS'+'
asS'ZNF746'
p2194
(lp2195
I149472792
aI149497809
aS'-'
asS'CLEC2L'
p2196
(lp2197
I139523927
aI139544991
aS'+'
asS'PON3'
p2198
(lp2199
I95359871
aI95396375
aS'-'
asS'MGC4859'
p2200
(lp2201
I10449819
aI10779944
aS'-'
asS'LOC100128317'
p2202
(lp2203
I81576385
aI81691406
aS'-'
asS'OR2A12'
p2204
(lp2205
I144095107
aI144096040
aS'+'
asS'OCM2'
p2206
(lp2207
I97984700
aI97990104
aS'-'
asS'FAM200A'
p2208
(lp2209
I99546299
aI99552134
aS'-'
asS'ZNF815P'
p2210
(lp2211
I5823159
aI5854435
aS'+'
asS'GSTK1'
p2212
(lp2213
I143263428
aI143269129
aS'+'
asS'PTN'
p2214
(lp2215
I137227345
aI137343990
aS'-'
asS'C7orf33'
p2216
(lp2217
I148590765
aI148615860
aS'+'
asS'KBTBD2'
p2218
(lp2219
I32868165
aI32891856
aS'-'
asS'C7orf31'
p2220
(lp2221
I25134696
aI25180198
aS'-'
asS'CPA2'
p2222
(lp2223
I130266862
aI130289797
aS'+'
asS'STYXL1'
p2224
(lp2225
I75996336
aI76048003
aS'-'
asS'CPA1'
p2226
(lp2227
I130380370
aI130388108
aS'+'
asS'LSMEM1'
p2228
(lp2229
I112480852
aI112490888
aS'+'
asS'ABHD11'
p2230
(lp2231
I73736094
aI73738867
aS'-'
asS'CPA4'
p2232
(lp2233
I130293133
aI130324180
aS'+'
asS'CPA5'
p2234
(lp2235
I130344789
aI130368730
aS'+'
asS'LANCL2'
p2236
(lp2237
I55365447
aI55433742
aS'+'
asS'SBDS'
p2238
(lp2239
I66987676
aI66995696
aS'-'
asS'PILRB'
p2240
(lp2241
I100358002
aI100367831
aS'+'
asS'PRSS37'
p2242
(lp2243
I141836277
aI141841421
aS'-'
asS'GRIFIN'
p2244
(lp2245
I2475136
aI2476383
aS'-'
asS'TECPR1'
p2246
(lp2247
I98215442
aI98252251
aS'-'
asS'PCOLCE'
p2248
(lp2249
I100602362
aI100608175
aS'+'
asS'DBF4'
p2250
(lp2251
I87876228
aI87909541
aS'+'
asS'DLX6'
p2252
(lp2253
I97005977
aI97011040
aS'+'
asS'GPR146'
p2254
(lp2255
I1044572
aI1059269
aS'+'
asS'OPN1SW'
p2256
(lp2257
I128772488
aI128775790
aS'-'
asS'SAMD9'
p2258
(lp2259
I93099512
aI93118023
aS'-'
asS'PTPRN2'
p2260
(lp2261
I157539051
aI158587802
aS'-'
asS'ANLN'
p2262
(lp2263
I36389802
aI36453791
aS'+'
asS'LOC102724738'
p2264
(lp2265
I63346801
aI63350066
aS'-'
asS'LINC00525'
p2266
(lp2267
I47761475
aI47766772
aS'+'
asS'TFEC'
p2268
(lp2269
I115935147
aI116030813
aS'-'
asS'CLEC5A'
p2270
(lp2271
I141927356
aI141947007
aS'-'
asS'STAG3'
p2272
(lp2273
I100177723
aI100214387
aS'+'
asS'DNAJC30'
p2274
(lp2275
I73680917
aI73683451
aS'-'
asS'STRIP2'
p2276
(lp2277
I129434432
aI129488398
aS'+'
asS'ASIC3'
p2278
(lp2279
I151048291
aI151052756
aS'+'
asS'KIAA0895'
p2280
(lp2281
I36324149
aI36390125
aS'-'
asS'KDELR2'
p2282
(lp2283
I6461080
aI6484218
aS'-'
asS'SLC26A3'
p2284
(lp2285
I107765466
aI107803233
aS'-'
asS'SLC26A4'
p2286
(lp2287
I107660634
aI107717807
aS'+'
asS'SLC26A5'
p2288
(lp2289
I103352729
aI103446177
aS'-'
asS'LINC01003'
p2290
(lp2291
I152464123
aI152465546
aS'+'
asS'MMD2'
p2292
(lp2293
I4892244
aI4959213
aS'-'
asS'RNY3'
p2294
(lp2295
I148983754
aI148983856
aS'+'
asS'NDUFB2-AS1'
p2296
(lp2297
I140695335
aI140697077
aS'-'
asS'GET4'
p2298
(lp2299
I876553
aI896434
aS'+'
asS'GATAD1'
p2300
(lp2301
I92447447
aI92460067
aS'+'
asS'POLR2J'
p2302
(lp2303
I102473100
aI102478934
aS'-'
asS'ETV1'
p2304
(lp2305
I13891230
aI13991425
aS'-'
asS'TAF6'
p2306
(lp2307
I100107069
aI100119858
aS'-'
asS'AMPH'
p2308
(lp2309
I38383695
aI38631567
aS'-'
asS'YAE1'
p2310
(lp2311
I39566375
aI39612089
aS'+'
asS'LOC100506725'
p2312
(lp2313
I35716436
aI35719712
aS'+'
asS'TMEM60'
p2314
(lp2315
I77793727
aI77798434
aS'-'
asS'SLC13A4'
p2316
(lp2317
I135681238
aI135728204
aS'-'
asS'LOC101928168'
p2318
(lp2319
I29125032
aI29128172
aS'+'
asS'RASA4CP'
p2320
(lp2321
I44028886
aI44040623
aS'-'
asS'LUZP6'
p2322
(lp2323
I135926754
aI135977456
aS'-'
asS'PSMC2'
p2324
(lp2325
I103347523
aI103369395
aS'+'
asS'LINC01007'
p2326
(lp2327
I101562754
aI101569006
aS'-'
asS'TSPAN33'
p2328
(lp2329
I129144715
aI129169694
aS'+'
asS'AZGP1P1'
p2330
(lp2331
I99980761
aI99984237
aS'+'
asS'RNU6-8'
p2332
(lp2333
I123790606
aI123790711
aS'-'
asS'HECW1'
p2334
(lp2335
I43112598
aI43563339
aS'+'
asS'OR2F2'
p2336
(lp2337
I143935232
aI143936186
aS'+'
asS'RNF216-IT1'
p2338
(lp2339
I5662431
aI5680461
aS'-'
asS'RNU6-7'
p2340
(lp2341
I123790606
aI123790711
aS'-'
asS'MALSU1'
p2342
(lp2343
I23299320
aI23309561
aS'+'
asS'RBM28'
p2344
(lp2345
I128310382
aI128343908
aS'-'
asS'CLDN12'
p2346
(lp2347
I90403333
aI90415954
aS'+'
asS'C7orf57'
p2348
(lp2349
I48035510
aI48061297
aS'+'
asS'LOC100130880'
p2350
(lp2351
I137953347
aI137957966
aS'+'
asS'LOC105375131'
p2352
(lp2353
I4127611
aI4134837
aS'-'
asS'CLDN15'
p2354
(lp2355
I101232091
aI101238820
aS'-'
asS'MIR671'
p2356
(lp2357
I151238420
aI151238538
aS'+'
asS'MIR96'
p2358
(lp2359
I129774692
aI129774769
aS'-'
asS'JAZF1'
p2360
(lp2361
I27830579
aI28180795
aS'-'
asS'POT1'
p2362
(lp2363
I124822385
aI124929983
aS'-'
asS'GPNMB'
p2364
(lp2365
I23246696
aI23275110
aS'+'
asS'KRIT1'
p2366
(lp2367
I92198968
aI92246100
aS'-'
asS'LOC285889'
p2368
(lp2369
I156437788
aI156445588
aS'-'
asS'ARF5'
p2370
(lp2371
I127588351
aI127591705
aS'+'
asS'LOC101927870'
p2372
(lp2373
I103445206
aI103514007
aS'+'
asS'SNORA15'
p2374
(lp2375
I56060469
aI56060602
aS'+'
asS'MIR550B1'
p2376
(lp2377
I30289793
aI30289890
aS'-'
asS'MIR550B2'
p2378
(lp2379
I32732980
aI32733077
aS'-'
asS'IKZF1'
p2380
(lp2381
I50304082
aI50405100
aS'+'
asS'LOC100996654'
p2382
(lp2383
I54759312
aI54804963
aS'+'
asS'GNAI1'
p2384
(lp2385
I80134823
aI80219409
aS'+'
asS'MIR5707'
p2386
(lp2387
I158591615
aI158591696
aS'+'
asS'TNPO3'
p2388
(lp2389
I128954179
aI129055173
aS'-'
asS'LOC102723427'
p2390
(lp2391
I68020252
aI68032690
aS'+'
asS'TMED4'
p2392
(lp2393
I44577894
aI44582295
aS'-'
asS'GPR141'
p2394
(lp2395
I37683774
aI37743821
aS'+'
asS'SOSTDC1'
p2396
(lp2397
I16461480
aI16465738
aS'-'
asS'IQUB'
p2398
(lp2399
I123452181
aI123534664
aS'-'
asS'MIR4656'
p2400
(lp2401
I4788564
aI4788639
aS'-'
asS'HUS1'
p2402
(lp2403
I47963287
aI47979625
aS'-'
asS'SGCE'
p2404
(lp2405
I94585223
aI94656209
aS'-'
asS'MIR4655'
p2406
(lp2407
I1844179
aI1844253
aS'-'
asS'MIR4652'
p2408
(lp2409
I93716927
aI93717005
aS'+'
asS'MIR4653'
p2410
(lp2411
I101159472
aI101159555
aS'+'
asS'SPDYE17'
p2412
(lp2413
I73077347
aI73084772
aS'-'
asS'MIR4651'
p2414
(lp2415
I75915196
aI75915269
aS'+'
asS'ZC3HAV1L'
p2416
(lp2417
I139025705
aI139036029
aS'-'
asS'LOC105369146'
p2418
(lp2419
I81515746
aI81561819
aS'-'
asS'POLD2'
p2420
(lp2421
I44114679
aI44123570
aS'-'
asS'MIR3683'
p2422
(lp2423
I7066963
aI7067045
aS'-'
asS'ZNF680'
p2424
(lp2425
I64519876
aI64563127
aS'-'
asS'MIR25'
p2426
(lp2427
I100093559
aI100093643
aS'-'
asS'COL26A1'
p2428
(lp2429
I101362819
aI101559024
aS'+'
asS'ST7-OT4'
p2430
(lp2431
I116953847
aI116959817
aS'+'
asS'MAGI2-AS2'
p2432
(lp2433
I79008987
aI79012277
aS'+'
asS'LOC407835'
p2434
(lp2435
I129126270
aI129127996
aS'+'
asS'MRM2'
p2436
(lp2437
I2234290
aI2242198
aS'-'
asS'DAGLB'
p2438
(lp2439
I6409115
aI6448012
aS'-'
asS'ELN'
p2440
(lp2441
I74027788
aI74069906
aS'+'
asS'CTAGE8'
p2442
(lp2443
I144182969
aI144186081
aS'+'
asS'LOC441242'
p2444
(lp2445
I65647009
aI65770810
aS'-'
asS'SLC13A1'
p2446
(lp2447
I123113533
aI123199971
aS'-'
asS'LOC644090'
p2448
(lp2449
I151806661
aI151810820
aS'+'
asS'STAG3L4'
p2450
(lp2451
I67302637
aI67321526
aS'+'
asS'STAG3L3'
p2452
(lp2453
I72997294
aI73005943
aS'-'
asS'STAG3L2'
p2454
(lp2455
I74881989
aI74890612
aS'-'
asS'STAG3L1'
p2456
(lp2457
I75359199
aI75367809
aS'+'
asS'VSTM2A-OT1'
p2458
(lp2459
I54556969
aI54571726
aS'+'
asS'LOC100128653'
p2460
(lp2461
I1532452
aI1534880
aS'-'
asS'ACHE'
p2462
(lp2463
I100889993
aI100896129
aS'-'
asS'SNORD93'
p2464
(lp2465
I22856612
aI22856686
aS'+'
asS'SEMA3A'
p2466
(lp2467
I83958342
aI84194901
aS'-'
asS'DNAJB6'
p2468
(lp2469
I157337003
aI157417439
aS'+'
asS'SEMA3C'
p2470
(lp2471
I80742535
aI80922379
aS'-'
asS'JAZF1-AS1'
p2472
(lp2473
I28180456
aI28241377
aS'+'
asS'SEMA3E'
p2474
(lp2475
I83363237
aI83649139
aS'-'
asS'SEMA3D'
p2476
(lp2477
I84995555
aI85121931
aS'-'
asS'PSPH'
p2478
(lp2479
I56011050
aI56051575
aS'-'
asS'BMT2'
p2480
(lp2481
I112819146
aI112939877
aS'-'
asS'WDR91'
p2482
(lp2483
I135183837
aI135211564
aS'-'
asS'LINC01000'
p2484
(lp2485
I128641240
aI128660998
aS'+'
asS'GJC3'
p2486
(lp2487
I99923268
aI99929620
aS'-'
asS'ING3'
p2488
(lp2489
I120950762
aI120975657
aS'+'
asS'GPR85'
p2490
(lp2491
I113080412
aI113087778
aS'-'
asS'ZNF138'
p2492
(lp2493
I64794387
aI64853800
aS'+'
asS'MET'
p2494
(lp2495
I116672358
aI116798386
aS'+'
asS'MESTIT1'
p2496
(lp2497
I130487056
aI130491172
aS'-'
asS'HOXA10-AS'
p2498
(lp2499
I27168898
aI27171915
aS'+'
asS'LINC00265'
p2500
(lp2501
I39733567
aI39794623
aS'+'
asS'STEAP1'
p2502
(lp2503
I90154374
aI90164827
aS'+'
asS'STEAP2'
p2504
(lp2505
I90211685
aI90237678
aS'+'
asS'STEAP4'
p2506
(lp2507
I88276428
aI88306913
aS'-'
asS'CPED1'
p2508
(lp2509
I120988696
aI121297444
aS'+'
asS'LOC101928807'
p2510
(lp2511
I132260860
aI132264289
aS'+'
asS'AUTS2'
p2512
(lp2513
I69598918
aI70793068
aS'+'
asS'ZNF316'
p2514
(lp2515
I6637321
aI6658279
aS'+'
asS'NSUN5'
p2516
(lp2517
I73302515
aI73308867
aS'-'
asS'RUNDC3B'
p2518
(lp2519
I87628412
aI87832298
aS'+'
asS'LLCFC1'
p2520
(lp2521
I142939505
aI142940870
aS'+'
asS'DTX2P1-UPK3BP1-PMS2P11'
p2522
(lp2523
I76980821
aI77023759
aS'+'
asS'SPDYE6'
p2524
(lp2525
I102345745
aI102356444
aS'-'
asS'STAG3L5P-PVRIG2P-PILRB'
p2526
(lp2527
I100336064
aI100367831
aS'+'
asS'NCF1B'
p2528
(lp2529
I73220638
aI73235945
aS'+'
asS'CNTNAP2'
p2530
(lp2531
I146116360
aI148420996
aS'+'
asS'GS1-124K5.11'
p2532
(lp2533
I66530304
aI66592407
aS'-'
asS'GNAT3'
p2534
(lp2535
I80458634
aI80512009
aS'-'
asS'LRRC61'
p2536
(lp2537
I150309498
aI150338156
aS'+'
asS'LINC00244'
p2538
(lp2539
I156540490
aI156541101
aS'+'
asS'VWDE'
p2540
(lp2541
I12330884
aI12403941
aS'-'
asS'KCCAT333'
p2542
(lp2543
I17374916
aI17467256
aS'+'
asS'AVL9'
p2544
(lp2545
I32495425
aI32588741
aS'+'
asS'LHFPL3-AS1'
p2546
(lp2547
I104796505
aI104804092
aS'-'
asS'LHFPL3-AS2'
p2548
(lp2549
I104894627
aI104926645
aS'-'
asS'LOC100996437'
p2550
(lp2551
I66654518
aI66669602
aS'+'
asS'PLOD3'
p2552
(lp2553
I101205976
aI101217730
aS'-'
asS'ZC3HC1'
p2554
(lp2555
I130018285
aI130051451
aS'-'
asS'LINC-PINT'
p2556
(lp2557
I130941759
aI131109916
aS'-'
asS'C7orf77'
p2558
(lp2559
I124777291
aI124790810
aS'-'
asS'MIR3146'
p2560
(lp2561
I19705357
aI19705436
aS'-'
asS'LOC101928333'
p2562
(lp2563
I127215126
aI127229921
aS'+'
asS'VKORC1L1'
p2564
(lp2565
I65873098
aI65959563
aS'+'
asS'GLI3'
p2566
(lp2567
I41960949
aI42237209
aS'-'
asS'C1GALT1'
p2568
(lp2569
I7182614
aI7248649
aS'+'
asS'DGKI'
p2570
(lp2571
I137387649
aI137846864
aS'-'
asS'ATP5MF-PTCD1'
p2572
(lp2573
I99416738
aI99466201
aS'-'
asS'DGKB'
p2574
(lp2575
I14145048
aI14974777
aS'-'
asS'NSUN5P2'
p2576
(lp2577
I72948292
aI72954763
aS'-'
asS'LUARIS'
p2578
(lp2579
I43508727
aI43522542
aS'-'
asS'SPDYE13P'
p2580
(lp2581
I73076164
aI73084438
aS'-'
asS'MGAM2'
p2582
(lp2583
I142111748
aI142222324
aS'+'
asS'SCARNA28'
p2584
(lp2585
I98881696
aI98881890
aS'+'
asS'DPY19L1'
p2586
(lp2587
I34928880
aI35038041
aS'-'
asS'SRI'
p2588
(lp2589
I88205116
aI88226993
aS'-'
asS'TMEM106B'
p2590
(lp2591
I12211221
aI12237264
aS'+'
asS'ZNF92'
p2592
(lp2593
I65373798
aI65401135
aS'+'
asS'CCDC126'
p2594
(lp2595
I23597378
aI23644708
aS'+'
asS'PRPS1L1'
p2596
(lp2597
I18026775
aI18027863
aS'-'
asS'AP4M1'
p2598
(lp2599
I100101506
aI100107180
aS'+'
asS'ORC5'
p2600
(lp2601
I104126340
aI104208047
aS'-'
asS'AP5Z1'
p2602
(lp2603
I4775622
aI4794397
aS'+'
asS'LOC105375115'
p2604
(lp2605
I174919
aI176013
aS'+'
asS'GPC2'
p2606
(lp2607
I100169605
aI100177426
aS'-'
asS'ZNRF2P1'
p2608
(lp2609
I32727949
aI32729983
aS'+'
asS'POM121C'
p2610
(lp2611
I75416785
aI75486299
aS'-'
asS'ZNRF2P2'
p2612
(lp2613
I29684771
aI29685821
aS'-'
asS'LOC101927378'
p2614
(lp2615
I84532475
aI84584318
aS'+'
asS'TMEM168'
p2616
(lp2617
I112762381
aI112790423
aS'-'
asS'ANKRD61'
p2618
(lp2619
I6031375
aI6036552
aS'+'
asS'MIR489'
p2620
(lp2621
I93483935
aI93484019
aS'-'
asS'MIR3147'
p2622
(lp2623
I57405024
aI57405090
aS'+'
asS'REPIN1'
p2624
(lp2625
I150368188
aI150374044
aS'+'
asS'BBS9'
p2626
(lp2627
I33129539
aI33635767
aS'+'
asS'OR2A20P'
p2628
(lp2629
I144250673
aI144251603
aS'-'
asS'MIR4283-2'
p2630
(lp2631
I56955784
aI56955864
aS'-'
asS'MIR4283-1'
p2632
(lp2633
I56955784
aI56955864
aS'-'
asS'PAXIP1-AS1'
p2634
(lp2635
I155003432
aI155005703
aS'+'
asS'AKR1D1'
p2636
(lp2637
I138076431
aI138118304
aS'+'
asS'MIR589'
p2638
(lp2639
I5495818
aI5495917
aS'-'
asS'LOC101927420'
p2640
(lp2641
I87151422
aI87152493
aS'-'
asS'CREB3L2'
p2642
(lp2643
I137874978
aI138002101
aS'-'
asS'TSGA13'
p2644
(lp2645
I130668645
aI130687432
aS'-'
asS'LRRC4'
p2646
(lp2647
I128027070
aI128031437
aS'-'
asS'GNA12'
p2648
(lp2649
I2728105
aI2844325
aS'-'
asS'BRAF'
p2650
(lp2651
I140719326
aI140924928
aS'-'
asS'GNGT1'
p2652
(lp2653
I93906507
aI93911265
aS'+'
asS'UBE3C'
p2654
(lp2655
I157138960
aI157269372
aS'+'
asS'PVRIG'
p2656
(lp2657
I100219247
aI100221488
aS'+'
asS'SCIN'
p2658
(lp2659
I12570576
aI12653603
aS'+'
asS'NUPL2'
p2660
(lp2661
I23182047
aI23201006
aS'+'
asS'DUS4L'
p2662
(lp2663
I107563956
aI107578523
aS'+'
asS'PRRT4'
p2664
(lp2665
I128350324
aI128361685
aS'-'
as.