(dp1
S'HSF1'
p2
(lp3
I144291568
aI144314726
aS'+'
asS'LOC105375787'
p4
(lp5
I141254566
aI141256817
aS'+'
asS'MIR3610'
p6
(lp7
I116874727
aI116874800
aS'-'
asS'MIR30B'
p8
(lp9
I134800519
aI134800607
aS'-'
asS'LOC101241902'
p10
(lp11
I78722847
aI78724374
aS'-'
asS'GPAT4'
p12
(lp13
I41578187
aI41625001
aS'+'
asS'LOC728024'
p14
(lp15
I37746555
aI37748046
aS'-'
asS'JPH1'
p16
(lp17
I74234699
aI74321540
aS'-'
asS'MSC-AS1'
p18
(lp19
I71843122
aI72056312
aS'+'
asS'MIR1302-7'
p20
(lp21
I141786241
aI141786313
aS'-'
asS'CPQ'
p22
(lp23
I96645226
aI97143503
aS'+'
asS'SQLE'
p24
(lp25
I124998477
aI125022283
aS'+'
asS'DUSP26'
p26
(lp27
I33591329
aI33600106
aS'-'
asS'SAMD12'
p28
(lp29
I118131827
aI118621945
aS'-'
asS'DERL1'
p30
(lp31
I123013163
aI123042423
aS'-'
asS'ZNF703'
p32
(lp33
I37695781
aI37700019
aS'+'
asS'WDR97'
p34
(lp35
I144107691
aI144116383
aS'+'
asS'FAM90A2P'
p36
(lp37
I12173453
aI12177267
aS'-'
asS'MIR5692A1'
p38
(lp39
I12719126
aI12719195
aS'+'
asS'ZNF707'
p40
(lp41
I143684451
aI143695385
aS'+'
asS'ZNF706'
p42
(lp43
I101197037
aI101206064
aS'-'
asS'ZNF704'
p44
(lp45
I80628450
aI80874781
aS'-'
asS'SLURP2'
p46
(lp47
I142764337
aI142769828
aS'-'
asS'LOC100129129'
p48
(lp49
I11345747
aI11347516
aS'-'
asS'LOC101929470'
p50
(lp51
I29815003
aI29828504
aS'-'
asS'LINC02209'
p52
(lp53
I29921512
aI29953607
aS'+'
asS'ARHGEF10'
p54
(lp55
I1823975
aI1958641
aS'+'
asS'STAU2-AS1'
p56
(lp57
I73420073
aI73441518
aS'+'
asS'MIR1204'
p58
(lp59
I127795961
aI127796028
aS'+'
asS'LEPROTL1'
p60
(lp61
I30095405
aI30137706
aS'+'
asS'FAM90A10P'
p62
(lp63
I7769583
aI7771313
aS'+'
asS'TRIQK'
p64
(lp65
I92883529
aI92966144
aS'-'
asS'MFSD3'
p66
(lp67
I144509035
aI144511228
aS'+'
asS'WRN'
p68
(lp69
I31033261
aI31175871
aS'+'
asS'ASAP1-IT2'
p70
(lp71
I130082737
aI130084768
aS'-'
asS'GRINA'
p72
(lp73
I143990057
aI143993415
aS'+'
asS'CASC21'
p74
(lp75
I127244636
aI127392631
aS'+'
asS'PPP2R2A'
p76
(lp77
I26291490
aI26372679
aS'+'
asS'PHF20L1'
p78
(lp79
I132775357
aI132848807
aS'+'
asS'MIR1208'
p80
(lp81
I128150115
aI128150188
aS'+'
asS'MTUS1'
p82
(lp83
I17643793
aI17801579
aS'-'
asS'STK3'
p84
(lp85
I98454630
aI98942571
aS'-'
asS'MIR599'
p86
(lp87
I99536635
aI99536730
aS'-'
asS'LOC101927815'
p88
(lp89
I2530091
aI2728451
aS'-'
asS'GATA4'
p90
(lp91
I11676918
aI11760002
aS'+'
asS'MIR4469'
p92
(lp93
I42896196
aI42896275
aS'-'
asS'LOC104054148'
p94
(lp95
I101984431
aI101994850
aS'+'
asS'MIR6844'
p96
(lp97
I124508514
aI124508576
aS'-'
asS'TRAPPC9'
p98
(lp99
I139727725
aI140458579
aS'-'
asS'RNF139-AS1'
p100
(lp101
I124462496
aI124474563
aS'-'
asS'MIR4663'
p102
(lp103
I123215787
aI123215863
aS'-'
asS'TTI2'
p104
(lp105
I33498464
aI33513192
aS'-'
asS'MIR4661'
p106
(lp107
I91205484
aI91205558
aS'+'
asS'MIR4660'
p108
(lp109
I9048444
aI9048518
aS'+'
asS'TRMT9B'
p110
(lp111
I12945673
aI13029775
aS'+'
asS'MIR6846'
p112
(lp113
I144057320
aI144057380
aS'-'
asS'PARP10'
p114
(lp115
I143977151
aI143986471
aS'-'
asS'ERI1'
p116
(lp117
I9002803
aI9100099
aS'+'
asS'MIR6849'
p118
(lp119
I144400276
aI144400345
aS'-'
asS'RNU105C'
p120
(lp121
I54330685
aI54330895
aS'+'
asS'GML'
p122
(lp123
I142834800
aI142846846
aS'+'
asS'COX6C'
p124
(lp125
I99877994
aI99894014
aS'-'
asS'COLEC10'
p126
(lp127
I118952166
aI119108455
aS'+'
asS'MIR5708'
p128
(lp129
I80241388
aI80241473
aS'+'
asS'TNKS'
p130
(lp131
I9555934
aI9782346
aS'+'
asS'USP17L2'
p132
(lp133
I12137167
aI12138760
aS'-'
asS'MMP16'
p134
(lp135
I88037231
aI88327488
aS'-'
asS'USP17L7'
p136
(lp137
I12132416
aI12134009
aS'-'
asS'USP17L4'
p138
(lp139
I7337114
aI7338707
aS'+'
asS'LOC101929237'
p140
(lp141
I22877971
aI22888022
aS'+'
asS'USP17L8'
p142
(lp143
I7971660
aI7973253
aS'-'
asS'ATP6V1H'
p144
(lp145
I53715542
aI53843311
aS'-'
asS'TRHR'
p146
(lp147
I109087423
aI109119583
aS'+'
asS'IMPAD1'
p148
(lp149
I56957930
aI56993867
aS'-'
asS'RALYL'
p150
(lp151
I84182786
aI84921843
aS'+'
asS'PEG13'
p152
(lp153
I140094893
aI140100535
aS'-'
asS'PKHD1L1'
p154
(lp155
I109362476
aI109537214
aS'+'
asS'LOC101927588'
p156
(lp157
I124192690
aI124247398
aS'-'
asS'CHCHD7'
p158
(lp159
I56211637
aI56218798
aS'+'
asS'XPO7'
p160
(lp161
I21919668
aI22006585
aS'+'
asS'LOC401478'
p162
(lp163
I137809443
aI138083545
aS'-'
asS'DGAT1'
p164
(lp165
I144314582
aI144326919
aS'-'
asS'UQCRB'
p166
(lp167
I96226675
aI96235634
aS'-'
asS'SOX17'
p168
(lp169
I54457934
aI54460896
aS'+'
asS'EPPK1'
p170
(lp171
I143857318
aI143878464
aS'-'
asS'UBXN2B'
p172
(lp173
I58411263
aI58451501
aS'+'
asS'SNX31'
p174
(lp175
I100572883
aI100649665
aS'-'
asS'SNORD77B'
p176
(lp177
I100004581
aI100004651
aS'+'
asS'ZNF517'
p178
(lp179
I144798875
aI144810754
aS'+'
asS'LINC00681'
p180
(lp181
I12794239
aI12818291
aS'+'
asS'LINC01030'
p182
(lp183
I90592774
aI90606063
aS'-'
asS'PRSS55'
p184
(lp185
I10525545
aI10554166
aS'+'
asS'TSPYL5'
p186
(lp187
I97273485
aI97277948
aS'-'
asS'POU5F1B'
p188
(lp189
I127415611
aI127417196
aS'+'
asS'C8orf49'
p190
(lp191
I11761255
aI11763223
aS'+'
asS'C8orf48'
p192
(lp193
I13566868
aI13568288
aS'+'
asS'CHRAC1'
p194
(lp195
I140511297
aI140517153
aS'+'
asS'MCPH1-AS1'
p196
(lp197
I6615602
aI6708209
aS'-'
asS'C8orf44'
p198
(lp199
I66667551
aI66681142
aS'+'
asS'FAM90A25P'
p200
(lp201
I12414520
aI12418032
aS'-'
asS'KCNQ3'
p202
(lp203
I132120857
aI132480757
aS'-'
asS'ZC2HC1A'
p204
(lp205
I78666046
aI78719762
aS'+'
asS'MIR2052HG'
p206
(lp207
I74599865
aI74758352
aS'+'
asS'BLK'
p208
(lp209
I11493991
aI11564604
aS'+'
asS'DEFB136'
p210
(lp211
I11973936
aI11974599
aS'-'
asS'BRF2'
p212
(lp213
I37843879
aI37849913
aS'-'
asS'LOC105379393'
p214
(lp215
I42051749
aI42104987
aS'+'
asS'MIR548AA1'
p216
(lp217
I123348033
aI123348130
aS'+'
asS'CSGALNACT1'
p218
(lp219
I19404160
aI19758029
aS'-'
asS'ZDHHC2'
p220
(lp221
I17156481
aI17224799
aS'+'
asS'LOC102723701'
p222
(lp223
I37734760
aI37737426
aS'-'
asS'ERLIN2'
p224
(lp225
I37736578
aI37758429
aS'+'
asS'PTCSC1'
p226
(lp227
I133054958
aI133057767
aS'+'
asS'ZC3H3'
p228
(lp229
I143437654
aI143541450
aS'-'
asS'COL22A1'
p230
(lp231
I138588234
aI138914006
aS'-'
asS'ATAD2'
p232
(lp233
I123319850
aI123396465
aS'-'
asS'FAM167A-AS1'
p234
(lp235
I11368401
aI11438657
aS'+'
asS'BOP1'
p236
(lp237
I144262045
aI144291438
aS'-'
asS'UTP23'
p238
(lp239
I116766502
aI116774682
aS'+'
asS'FBXO32'
p240
(lp241
I123497886
aI123541253
aS'-'
asS'EMC2'
p242
(lp243
I108443582
aI108489188
aS'+'
asS'SLC18A1'
p244
(lp245
I20144854
aI20183206
aS'-'
asS'C8orf31'
p246
(lp247
I143039208
aI143054303
aS'+'
asS'EFCAB1'
p248
(lp249
I48710791
aI48735268
aS'-'
asS'C8orf37'
p250
(lp251
I95244912
aI95269234
aS'-'
asS'C8orf34'
p252
(lp253
I68330372
aI68819023
aS'+'
asS'LOC392196'
p254
(lp255
I12127857
aI12129297
aS'-'
asS'ASH2L'
p256
(lp257
I38105492
aI38140080
aS'+'
asS'LYNX1-SLURP2'
p258
(lp259
I142764337
aI142777848
aS'-'
asS'PAG1'
p260
(lp261
I80967810
aI81112068
aS'-'
asS'FLJ42969'
p262
(lp263
I101052053
aI101076251
aS'+'
asS'TOX'
p264
(lp265
I58805417
aI59119208
aS'-'
asS'SMILR'
p266
(lp267
I122414326
aI122568644
aS'-'
asS'LETM2'
p268
(lp269
I38386440
aI38409524
aS'+'
asS'TNFRSF10C'
p270
(lp271
I23102813
aI23117437
aS'+'
asS'TNFRSF10B'
p272
(lp273
I23020135
aI23069187
aS'-'
asS'TNFRSF10A'
p274
(lp275
I23191456
aI23225167
aS'-'
asS'NDUFAF6'
p276
(lp277
I94895767
aI95076813
aS'+'
asS'LOC101929128'
p278
(lp279
I9188998
aI9202856
aS'+'
asS'TNFRSF10D'
p280
(lp281
I23135590
aI23164027
aS'-'
asS'HTRA4'
p282
(lp283
I38974148
aI38988662
aS'+'
asS'COMMD5'
p284
(lp285
I144850165
aI144853578
aS'-'
asS'DCTN6'
p286
(lp287
I30156296
aI30183639
aS'+'
asS'MIR3148'
p288
(lp289
I29957271
aI29957348
aS'-'
asS'LOC286177'
p290
(lp291
I57261225
aI57266611
aS'+'
asS'NCOA2'
p292
(lp293
I70109761
aI70404238
aS'-'
asS'PSD3'
p294
(lp295
I18527302
aI19013686
aS'-'
asS'TMEM71'
p296
(lp297
I132709945
aI132760668
aS'-'
asS'GDAP1'
p298
(lp299
I74350382
aI74488872
aS'+'
asS'FAM91A1'
p300
(lp301
I123768438
aI123815450
aS'+'
asS'HPYR1'
p302
(lp303
I132560497
aI132561479
aS'-'
asS'ASPH'
p304
(lp305
I61500555
aI61714640
aS'-'
asS'LOC254896'
p306
(lp307
I23084354
aI23103557
aS'+'
asS'ZFHX4-AS1'
p308
(lp309
I76610878
aI76683275
aS'-'
asS'POLR2K'
p310
(lp311
I100150610
aI100154002
aS'+'
asS'ERICH5'
p312
(lp313
I98064521
aI98093610
aS'+'
asS'LOC157273'
p314
(lp315
I9325050
aI9335080
aS'+'
asS'MAPK15'
p316
(lp317
I143716348
aI143722458
aS'+'
asS'ADGRB1'
p318
(lp319
I142464015
aI142545007
aS'+'
asS'ERICH1'
p320
(lp321
I614736
aI731239
aS'-'
asS'LOC340357'
p322
(lp323
I12765848
aI12811478
aS'-'
asS'HGSNAT'
p324
(lp325
I43140448
aI43202827
aS'+'
asS'LONRF1'
p326
(lp327
I12721894
aI12755442
aS'-'
asS'LINC01288'
p328
(lp329
I34783920
aI34864798
aS'+'
asS'NAT2'
p330
(lp331
I18391281
aI18401215
aS'+'
asS'NAT1'
p332
(lp333
I18170461
aI18223689
aS'+'
asS'LOC100507516'
p334
(lp335
I53511780
aI53523965
aS'-'
asS'CALB1'
p336
(lp337
I90058607
aI90082881
aS'-'
asS'TCEA1'
p338
(lp339
I53966553
aI54022456
aS'-'
asS'FAM86B2'
p340
(lp341
I12183118
aI12194133
aS'-'
asS'FAM86B1'
p342
(lp343
I12182103
aI12194115
aS'-'
asS'PEX2'
p344
(lp345
I76980257
aI77001044
aS'-'
asS'GOT1L1'
p346
(lp347
I37934280
aI37940129
aS'-'
asS'UBE2V2'
p348
(lp349
I48008430
aI48064708
aS'+'
asS'RAB11FIP1'
p350
(lp351
I37858946
aI37899497
aS'-'
asS'LINC01608'
p352
(lp353
I110937689
aI111027433
aS'-'
asS'LINC01609'
p354
(lp355
I111098960
aI111236203
aS'-'
asS'LINC01605'
p356
(lp357
I37406463
aI37493913
aS'-'
asS'LINC01606'
p358
(lp359
I57218275
aI57232954
aS'+'
asS'LINC01607'
p360
(lp361
I79768141
aI79802842
aS'+'
asS'FGL1'
p362
(lp363
I17864390
aI17895538
aS'-'
asS'OXR1'
p364
(lp365
I106270177
aI106752693
aS'+'
asS'LINC01602'
p366
(lp367
I57978357
aI57984126
aS'+'
asS'LINC01603'
p368
(lp369
I69424870
aI69448244
aS'-'
asS'LRRC24'
p370
(lp371
I144522376
aI144527032
aS'-'
asS'CEBPD'
p372
(lp373
I47736913
aI47738164
aS'-'
asS'SNORA1B'
p374
(lp375
I55902722
aI55902855
aS'-'
asS'SDC2'
p376
(lp377
I96493653
aI96611809
aS'+'
asS'SNORD87'
p378
(lp379
I66922473
aI66922549
aS'-'
asS'GGH'
p380
(lp381
I63015079
aI63039051
aS'-'
asS'LOC101927752'
p382
(lp383
I1761962
aI1764584
aS'-'
asS'FABP12'
p384
(lp385
I81524980
aI81531390
aS'-'
asS'MYC'
p386
(lp387
I127735433
aI127742951
aS'+'
asS'SNORD3H'
p388
(lp389
I97358264
aI97358474
aS'+'
asS'LAPTM4B'
p390
(lp391
I97775787
aI97852602
aS'+'
asS'ALKAL1'
p392
(lp393
I52534036
aI52565430
aS'-'
asS'CHMP4C'
p394
(lp395
I81732452
aI81759513
aS'+'
asS'LOC105375744'
p396
(lp397
I124996988
aI124998198
aS'-'
asS'LOC105375773'
p398
(lp399
I133663760
aI133684066
aS'-'
asS'SBSPON'
p400
(lp401
I73064542
aI73093272
aS'-'
asS'RAB2A'
p402
(lp403
I60516909
aI60623644
aS'+'
asS'VXN'
p404
(lp405
I66493255
aI66518524
aS'+'
asS'BAALC'
p406
(lp407
I103140692
aI103230305
aS'+'
asS'SNORD3I'
p408
(lp409
I9058538
aI9058630
aS'-'
asS'SNORD3F'
p410
(lp411
I20614828
aI20614926
aS'-'
asS'LZTS1-AS1'
p412
(lp413
I20275772
aI20290458
aS'+'
asS'ZNF16'
p414
(lp415
I144930357
aI144950888
aS'-'
asS'MIR1234'
p416
(lp417
I144400085
aI144400165
aS'-'
asS'LOC101927066'
p418
(lp419
I96951863
aI97446497
aS'-'
asS'BIN3'
p420
(lp421
I22620710
aI22669148
aS'-'
asS'RGS22'
p422
(lp423
I99960935
aI100106116
aS'-'
asS'RGS20'
p424
(lp425
I53851807
aI53959304
aS'+'
asS'MIR548AZ'
p426
(lp427
I119325170
aI119325265
aS'+'
asS'EBAG9'
p428
(lp429
I109539699
aI109565996
aS'+'
asS'DEFA9P'
p430
(lp431
I6959288
aI6960161
aS'-'
asS'PPDPFL'
p432
(lp433
I49054335
aI49076083
aS'+'
asS'VPS28'
p434
(lp435
I144423600
aI144428563
aS'-'
asS'SULF1'
p436
(lp437
I69466623
aI69660912
aS'+'
asS'DPYS'
p438
(lp439
I104379423
aI104467049
aS'-'
asS'SLCO5A1'
p440
(lp441
I69672332
aI69835064
aS'-'
asS'DEFA5'
p442
(lp443
I7055304
aI7056739
aS'-'
asS'DEFA4'
p444
(lp445
I6935819
aI6938338
aS'-'
asS'DEFA3'
p446
(lp447
I7015868
aI7018294
aS'-'
asS'CPSF1'
p448
(lp449
I144393230
aI144409349
aS'-'
asS'DEFA1'
p450
(lp451
I6977648
aI6980092
aS'-'
asS'SLC45A4'
p452
(lp453
I141207165
aI141254629
aS'-'
asS'TMEM65'
p454
(lp455
I124310917
aI124372699
aS'-'
asS'ATP6V1B2'
p456
(lp457
I20197192
aI20221696
aS'+'
asS'EFR3A'
p458
(lp459
I131904087
aI132013639
aS'+'
asS'CTSB'
p460
(lp461
I11842524
aI11868150
aS'-'
asS'POTEA'
p462
(lp463
I43292441
aI43363185
aS'+'
asS'LOC100505501'
p464
(lp465
I59119209
aI59123478
aS'+'
asS'ZNF705D'
p466
(lp467
I12089337
aI12115516
aS'+'
asS'TONSL'
p468
(lp469
I144428779
aI144444429
aS'-'
asS'FAM84B'
p470
(lp471
I126552437
aI126558478
aS'-'
asS'TDH'
p472
(lp473
I11339636
aI11368452
aS'+'
asS'CA13'
p474
(lp475
I85245486
aI85284073
aS'+'
asS'MIR548A3'
p476
(lp477
I104484368
aI104484465
aS'-'
asS'DMTN'
p478
(lp479
I22048954
aI22082527
aS'+'
asS'DCSTAMP'
p480
(lp481
I104339795
aI104356689
aS'+'
asS'TMEM64'
p482
(lp483
I90621994
aI90645905
aS'-'
asS'LYPD2'
p484
(lp485
I142750149
aI142752534
aS'-'
asS'CNOT7'
p486
(lp487
I17224965
aI17246857
aS'-'
asS'DEFB107B'
p488
(lp489
I7495845
aI7509311
aS'+'
asS'LACTB2'
p490
(lp491
I70637265
aI70669212
aS'-'
asS'CA8'
p492
(lp493
I60185419
aI60281423
aS'-'
asS'LOC101929217'
p494
(lp495
I48620402
aI48623896
aS'+'
asS'HMBOX1'
p496
(lp497
I28890369
aI29053270
aS'+'
asS'CA3'
p498
(lp499
I85438826
aI85449038
aS'+'
asS'CA2'
p500
(lp501
I85463901
aI85481492
aS'+'
asS'DKK4'
p502
(lp503
I42374067
aI42377156
aS'-'
asS'PLEKHF2'
p504
(lp505
I95133720
aI95156685
aS'+'
asS'DEFA11P'
p506
(lp507
I7028600
aI7029489
aS'-'
asS'ANK1'
p508
(lp509
I41653224
aI41896762
aS'-'
asS'KIF13B'
p510
(lp511
I29067277
aI29263070
aS'-'
asS'SLURP1'
p512
(lp513
I142740943
aI142742411
aS'-'
asS'SYBU'
p514
(lp515
I109574175
aI109691791
aS'-'
asS'CYP11B2'
p516
(lp517
I142910558
aI142917843
aS'-'
asS'LOC101927141'
p518
(lp519
I82912103
aI82961924
aS'+'
asS'PPP3CC'
p520
(lp521
I22440969
aI22541144
aS'+'
asS'ZNF395'
p522
(lp523
I28345584
aI28386460
aS'-'
asS'TUSC3'
p524
(lp525
I15540086
aI15766649
aS'+'
asS'ZFPM2'
p526
(lp527
I105318918
aI105804539
aS'+'
asS'CYC1'
p528
(lp529
I144095034
aI144097527
aS'+'
asS'MIR8084'
p530
(lp531
I93029750
aI93029839
aS'+'
asS'FAM85A'
p532
(lp533
I12185735
aI12202526
aS'+'
asS'NCRNA00250'
p534
(lp535
I134838068
aI134842637
aS'+'
asS'PTDSS1'
p536
(lp537
I96261885
aI96334551
aS'+'
asS'FAM85B'
p538
(lp539
I8100761
aI8227503
aS'-'
asS'IKBKB'
p540
(lp541
I42271301
aI42332653
aS'+'
asS'PTK2B'
p542
(lp543
I27311481
aI27459391
aS'+'
asS'LINC01419'
p544
(lp545
I83403757
aI83408897
aS'+'
asS'REXO1L2P'
p546
(lp547
I85762820
aI85763899
aS'-'
asS'PYCR3'
p548
(lp549
I143603209
aI143609575
aS'-'
asS'LOC101927040'
p550
(lp551
I79769379
aI79871737
aS'-'
asS'MIR4659B'
p552
(lp553
I6745167
aI6745240
aS'-'
asS'C8orf59'
p554
(lp555
I85214052
aI85220422
aS'-'
asS'EIF3H'
p556
(lp557
I116642130
aI116755823
aS'-'
asS'CDCA2'
p558
(lp559
I25458930
aI25507917
aS'+'
asS'PEBP4'
p560
(lp561
I22713251
aI22941077
aS'-'
asS'DEFA6'
p562
(lp563
I6924693
aI6926076
aS'-'
asS'LOC105375843'
p564
(lp565
I55517187
aI55520978
aS'-'
asS'EIF3E'
p566
(lp567
I108201742
aI108248730
aS'-'
asS'LY6K'
p568
(lp569
I142700110
aI142704166
aS'+'
asS'ESRP1'
p570
(lp571
I94641135
aI94707466
aS'+'
asS'KCNU1'
p572
(lp573
I36784323
aI36936126
aS'+'
asS'RPL23AP53'
p574
(lp575
I208344
aI232318
aS'-'
asS'MTMR9'
p576
(lp577
I11284490
aI11328145
aS'+'
asS'BREA2'
p578
(lp579
I143697114
aI143698413
aS'+'
asS'MTMR7'
p580
(lp581
I17296793
aI17413351
aS'-'
asS'LOC101927915'
p582
(lp583
I137406100
aI137413588
aS'-'
asS'RP1L1'
p584
(lp585
I10606349
aI10655143
aS'-'
asS'LOC101929268'
p586
(lp587
I48551566
aI48698510
aS'+'
asS'ZNF705B'
p588
(lp589
I7926336
aI7952413
aS'+'
asS'ADRA1A'
p590
(lp591
I26748149
aI26865655
aS'-'
asS'CRISPLD1'
p592
(lp593
I74984472
aI75034561
aS'+'
asS'EXT1'
p594
(lp595
I117799364
aI118111819
aS'-'
asS'LOC102724612'
p596
(lp597
I63465848
aI63475482
aS'+'
asS'FAM92A'
p598
(lp599
I93700506
aI93729250
aS'+'
asS'IMPA1'
p600
(lp601
I81656915
aI81686354
aS'-'
asS'ZFPM2-AS1'
p602
(lp603
I105780409
aI106060503
aS'-'
asS'LPL'
p604
(lp605
I19939252
aI19967259
aS'+'
asS'SNAI2'
p606
(lp607
I48917680
aI48921440
aS'-'
asS'LINC00824'
p608
(lp609
I128405269
aI128564679
aS'-'
asS'SNORA99'
p610
(lp611
I11705361
aI11705558
aS'+'
asS'RNF19A'
p612
(lp613
I100257058
aI100336218
aS'-'
asS'LOC102723313'
p614
(lp615
I10729290
aI10772910
aS'+'
asS'MIR4664'
p616
(lp617
I143733082
aI143733153
aS'-'
asS'MIR124-2HG'
p618
(lp619
I64373327
aI64387504
aS'+'
asS'OPLAH'
p620
(lp621
I144051265
aI144060703
aS'-'
asS'LINC01151'
p622
(lp623
I122670384
aI122694106
aS'-'
asS'MIR383'
p624
(lp625
I14853437
aI14853510
aS'-'
asS'FABP5'
p626
(lp627
I81280535
aI81284775
aS'+'
asS'LINC02605'
p628
(lp629
I78837528
aI78840522
aS'+'
asS'LOC100288748'
p630
(lp631
I94637284
aI94639467
aS'-'
asS'PLEKHA2'
p632
(lp633
I38901234
aI38973911
aS'+'
asS'PRR23D2'
p634
(lp635
I7539627
aI7542450
aS'+'
asS'MIR598'
p636
(lp637
I11035205
aI11035302
aS'-'
asS'PRR23D1'
p638
(lp639
I7539626
aI7542450
aS'+'
asS'SPATC1'
p640
(lp641
I144012413
aI144047114
aS'+'
asS'SDAD1P1'
p642
(lp643
I26379260
aI26382953
aS'-'
asS'DEFT1P'
p644
(lp645
I6987177
aI6989721
aS'-'
asS'ELOC'
p646
(lp647
I73945137
aI73972287
aS'-'
asS'RECQL4'
p648
(lp649
I144511283
aI144517826
aS'-'
asS'STAR'
p650
(lp651
I38142699
aI38151082
aS'-'
asS'FAM83A-AS1'
p652
(lp653
I123201171
aI123202743
aS'-'
asS'MIR6893'
p654
(lp655
I144435550
aI144435619
aS'-'
asS'KHDRBS3'
p656
(lp657
I135457464
aI135647609
aS'+'
asS'COPS5'
p658
(lp659
I67043079
aI67062133
aS'-'
asS'YTHDF3'
p660
(lp661
I63168552
aI63212788
aS'+'
asS'MIR4470'
p662
(lp663
I61714787
aI61714859
aS'+'
asS'MIR4471'
p664
(lp665
I100382762
aI100382845
aS'+'
asS'ZNF596'
p666
(lp667
I232136
aI247340
aS'+'
asS'TRIB1'
p668
(lp669
I125430357
aI125438402
aS'+'
asS'CCAR2'
p670
(lp671
I22604631
aI22620470
aS'+'
asS'MTDH'
p672
(lp673
I97644183
aI97730260
aS'+'
asS'EXOSC4'
p674
(lp675
I144078618
aI144080648
aS'+'
asS'CYP11B1'
p676
(lp677
I142872356
aI142879820
aS'-'
asS'GTF2E2'
p678
(lp679
I30578317
aI30658241
aS'-'
asS'MIR3926-2'
p680
(lp681
I12727236
aI12727299
aS'+'
asS'MIR3926-1'
p682
(lp683
I12727231
aI12727304
aS'-'
asS'CCNE2'
p684
(lp685
I94880224
aI94895254
aS'-'
asS'LOC101927822'
p686
(lp687
I133886495
aI133902407
aS'+'
asS'NKAIN3-IT1'
p688
(lp689
I62977860
aI62984901
aS'+'
asS'POP1'
p690
(lp691
I98117292
aI98159841
aS'+'
asS'LOC649352'
p692
(lp693
I12379266
aI12379789
aS'-'
asS'ANGPT2'
p694
(lp695
I6499650
aI6563263
aS'-'
asS'LOC101929315'
p696
(lp697
I24490311
aI24514868
aS'-'
asS'TDRP'
p698
(lp699
I489789
aI545781
aS'-'
asS'ANGPT1'
p700
(lp701
I107249481
aI107498055
aS'-'
asS'FDFT1'
p702
(lp703
I11795572
aI11839309
aS'+'
asS'FAM135B'
p704
(lp705
I138130022
aI138497730
aS'-'
asS'ZNF623'
p706
(lp707
I143636012
aI143653730
aS'+'
asS'DPYSL2'
p708
(lp709
I26514192
aI26658177
aS'+'
asS'MIR6876'
p710
(lp711
I25345401
aI25345474
aS'+'
asS'MIR937'
p712
(lp713
I143812956
aI143813042
aS'-'
asS'LOC101929709'
p714
(lp715
I89717398
aI89757711
aS'-'
asS'ZBTB10'
p716
(lp717
I80485618
aI80526265
aS'+'
asS'LOC105375713'
p718
(lp719
I116652099
aI116654624
aS'+'
asS'RBM12B'
p720
(lp721
I93731500
aI93740996
aS'-'
asS'SLC39A4'
p722
(lp723
I144412413
aI144416895
aS'-'
asS'C8orf37-AS1'
p724
(lp725
I95268835
aI95810143
aS'+'
asS'SNX16'
p726
(lp727
I81799582
aI81842286
aS'-'
asS'LYNX1'
p728
(lp729
I142771196
aI142777848
aS'-'
asS'TBC1D31'
p730
(lp731
I123072706
aI123165169
aS'+'
asS'NAPRT'
p732
(lp733
I143574784
aI143578351
aS'-'
asS'LRRC14'
p734
(lp735
I144517964
aI144525175
aS'+'
asS'NEIL2'
p736
(lp737
I11769624
aI11787355
aS'+'
asS'NSD3'
p738
(lp739
I38275042
aI38382272
aS'-'
asS'WDYHV1'
p740
(lp741
I123416724
aI123448090
aS'+'
asS'DEFB103B'
p742
(lp743
I7428893
aI7430348
aS'-'
asS'DEFB103A'
p744
(lp745
I7428893
aI7430348
aS'-'
asS'USP17L3'
p746
(lp747
I7976392
aI7977985
aS'-'
asS'EPHX2'
p748
(lp749
I27491001
aI27544922
aS'+'
asS'NUDCD1'
p750
(lp751
I109240918
aI109334087
aS'-'
asS'C8orf58'
p752
(lp753
I22599600
aI22604149
aS'+'
asS'PIWIL2'
p754
(lp755
I22275279
aI22356866
aS'+'
asS'TEX15'
p756
(lp757
I30831543
aI30913012
aS'-'
asS'ZFHX4'
p758
(lp759
I76681279
aI76867285
aS'+'
asS'LOC286178'
p760
(lp761
I57746148
aI57750197
aS'+'
asS'USP17L1'
p762
(lp763
I7332386
aI7333979
aS'+'
asS'PDGFRL'
p764
(lp765
I17576432
aI17643133
aS'+'
asS'SMPD5'
p766
(lp767
I144049397
aI144050059
aS'+'
asS'CSMD3'
p768
(lp769
I112222929
aI113437013
aS'-'
asS'FABP4'
p770
(lp771
I81478496
aI81483238
aS'-'
asS'CSMD1'
p772
(lp773
I2935352
aI4994806
aS'-'
asS'ADAM32'
p774
(lp775
I39107528
aI39284917
aS'+'
asS'ADHFE1'
p776
(lp777
I66432482
aI66468809
aS'+'
asS'MIR596'
p778
(lp779
I1817230
aI1817307
aS'+'
asS'MIR597'
p780
(lp781
I9741671
aI9741768
aS'+'
asS'FABP9'
p782
(lp783
I81458382
aI81461523
aS'-'
asS'LOC101928087'
p784
(lp785
I142638595
aI142640645
aS'+'
asS'LOC101929229'
p786
(lp787
I10840025
aI10846509
aS'+'
asS'CA3-AS1'
p788
(lp789
I85441805
aI85464915
aS'-'
asS'INTS10'
p790
(lp791
I19817148
aI19852083
aS'+'
asS'ARMC1'
p792
(lp793
I65602455
aI65634217
aS'-'
asS'FAM167A'
p794
(lp795
I11421463
aI11466767
aS'-'
asS'LOC100287015'
p796
(lp797
I6403555
aI6406548
aS'-'
asS'RNF5P1'
p798
(lp799
I38600174
aI38601257
aS'-'
asS'AZIN1-AS1'
p800
(lp801
I102864270
aI102977876
aS'+'
asS'ENY2'
p802
(lp803
I109334322
aI109345960
aS'+'
asS'HAS2'
p804
(lp805
I121612115
aI121641440
aS'-'
asS'NBN'
p806
(lp807
I89933335
aI89984724
aS'-'
asS'ZNF572'
p808
(lp809
I124973294
aI124979388
aS'+'
asS'PLPP5'
p810
(lp811
I38263131
aI38269232
aS'-'
asS'FBXO25'
p812
(lp813
I406807
aI469875
aS'+'
asS'THAP1'
p814
(lp815
I42836673
aI42843331
aS'-'
asS'RRS1'
p816
(lp817
I66429027
aI66430733
aS'+'
asS'LOC102724710'
p818
(lp819
I92565442
aI92655494
aS'-'
asS'MIR8055'
p820
(lp821
I6622123
aI6622220
aS'-'
asS'TCF24'
p822
(lp823
I66946500
aI66962590
aS'-'
asS'LOC101926892'
p824
(lp825
I70471133
aI70485687
aS'+'
asS'TCIM'
p826
(lp827
I40153467
aI40155308
aS'+'
asS'CLU'
p828
(lp829
I27596916
aI27614811
aS'-'
asS'NUDT18'
p830
(lp831
I22106871
aI22109419
aS'-'
asS'NRBP2'
p832
(lp833
I143833584
aI143840974
aS'-'
asS'SNORD168'
p834
(lp835
I117920855
aI117920913
aS'-'
asS'MIR1205'
p836
(lp837
I127960632
aI127960695
aS'+'
asS'LINC01111'
p838
(lp839
I76406653
aI76524332
aS'+'
asS'ADAM3A'
p840
(lp841
I39451044
aI39522989
aS'-'
asS'TMED10P1'
p842
(lp843
I144994864
aI144998897
aS'+'
asS'FGF17'
p844
(lp845
I22042752
aI22048808
aS'+'
asS'CSPP1'
p846
(lp847
I67064367
aI67196614
aS'+'
asS'HHLA1'
p848
(lp849
I132061485
aI132105265
aS'-'
asS'RRS1-AS1'
p850
(lp851
I66419586
aI66428977
aS'-'
asS'REEP4'
p852
(lp853
I22138013
aI22141951
aS'-'
asS'TRAM1'
p854
(lp855
I70573217
aI70608459
aS'-'
asS'SBF1P1'
p856
(lp857
I55449196
aI55455321
aS'-'
asS'EXTL3-AS1'
p858
(lp859
I28698402
aI28701464
aS'-'
asS'NSMCE2'
p860
(lp861
I125091822
aI125367125
aS'+'
asS'CNBD1'
p862
(lp863
I86866447
aI87382727
aS'+'
asS'MIR2052'
p864
(lp865
I74705692
aI74705747
aS'+'
asS'LINC02099'
p866
(lp867
I29748308
aI29798492
aS'+'
asS'LOC101929528'
p868
(lp869
I58255770
aI58272101
aS'-'
asS'CA1'
p870
(lp871
I85328228
aI85378154
aS'-'
asS'DSCC1'
p872
(lp873
I119833940
aI119855930
aS'-'
asS'FER1L6'
p874
(lp875
I123851986
aI124120061
aS'+'
asS'PTK2'
p876
(lp877
I140658381
aI141002079
aS'-'
asS'DEFB134'
p878
(lp879
I11993176
aI12000752
aS'-'
asS'MTERF3'
p880
(lp881
I96239397
aI96261613
aS'-'
asS'NIPAL2'
p882
(lp883
I98189825
aI98294393
aS'-'
asS'ZMAT4'
p884
(lp885
I40530590
aI40897824
aS'-'
asS'LGI3'
p886
(lp887
I22146829
aI22156806
aS'-'
asS'MYBL1'
p888
(lp889
I66562174
aI66613249
aS'-'
asS'FAM83H-AS1'
p890
(lp891
I143734139
aI143746337
aS'+'
asS'SORBS3'
p892
(lp893
I22551737
aI22575495
aS'+'
asS'SOX7'
p894
(lp895
I10723767
aI10730574
aS'-'
asS'RDH10-AS1'
p896
(lp897
I73310905
aI73356461
aS'-'
asS'PLPBP'
p898
(lp899
I37762582
aI37779768
aS'+'
asS'YWHAZ'
p900
(lp901
I100918575
aI100953395
aS'-'
asS'ZNF7'
p902
(lp903
I144827517
aI144847508
aS'+'
asS'LOXL2'
p904
(lp905
I23296896
aI23404209
aS'-'
asS'PIP4P2'
p906
(lp907
I90994270
aI91040975
aS'-'
asS'DEFB104B'
p908
(lp909
I7470307
aI7475082
aS'-'
asS'ASAH1'
p910
(lp911
I18056298
aI18084998
aS'-'
asS'RAD54B'
p912
(lp913
I94371959
aI94475115
aS'-'
asS'SCARA5'
p914
(lp915
I27869881
aI27992852
aS'-'
asS'DDHD2'
p916
(lp917
I38231490
aI38262769
aS'+'
asS'DEFA10P'
p918
(lp919
I6968140
aI6969113
aS'-'
asS'OC90'
p920
(lp921
I132024219
aI132059380
aS'-'
asS'ZNF252P'
p922
(lp923
I144973588
aI145002899
aS'-'
asS'LOC101927798'
p924
(lp925
I133775550
aI133777352
aS'-'
asS'VIRMA'
p926
(lp927
I94487776
aI94553518
aS'-'
asS'RDH10'
p928
(lp929
I73294601
aI73325281
aS'+'
asS'MIR3150BHG'
p930
(lp931
I95066807
aI95073182
aS'-'
asS'TTPA'
p932
(lp933
I63059488
aI63086053
aS'-'
asS'RP1'
p934
(lp935
I54616066
aI54630834
aS'+'
asS'ST3GAL1'
p936
(lp937
I133454847
aI133571940
aS'-'
asS'MATN2'
p938
(lp939
I97869020
aI98036718
aS'+'
asS'TMEM249'
p940
(lp941
I144353225
aI144355609
aS'-'
asS'MIR875'
p942
(lp943
I99536785
aI99536861
aS'-'
asS'MIR5681A'
p944
(lp945
I74548542
aI74548617
aS'+'
asS'INTS9'
p946
(lp947
I28767657
aI28890181
aS'-'
asS'INTS8'
p948
(lp949
I94823289
aI94880493
aS'+'
asS'LSM1'
p950
(lp951
I38163320
aI38176730
aS'-'
asS'MTSS1'
p952
(lp953
I124550769
aI124728507
aS'-'
asS'EBF2'
p954
(lp955
I25841725
aI26045413
aS'-'
asS'KBTBD11'
p956
(lp957
I1973877
aI2006943
aS'+'
asS'CASC9'
p958
(lp959
I75223116
aI75278889
aS'-'
asS'CASC8'
p960
(lp961
I127289675
aI127482139
aS'-'
asS'MIR3622A'
p962
(lp963
I27701676
aI27701759
aS'+'
asS'SLA'
p964
(lp965
I133036727
aI133103066
aS'-'
asS'MIR3622B'
p966
(lp967
I27701672
aI27701767
aS'-'
asS'SLC20A2'
p968
(lp969
I42416461
aI42542213
aS'-'
asS'CYP7B1'
p970
(lp971
I64586592
aI64798791
aS'-'
asS'GPIHBP1'
p972
(lp973
I143213192
aI143217170
aS'+'
asS'AZIN1'
p974
(lp975
I102826301
aI102864200
aS'-'
asS'PSKH2'
p976
(lp977
I86047110
aI86069697
aS'-'
asS'SCRIB'
p978
(lp979
I143790919
aI143815379
aS'-'
asS'LOC102725080'
p980
(lp981
I13629689
aI13632576
aS'+'
asS'ABRA'
p982
(lp983
I106759482
aI106770244
aS'-'
asS'LY6E-DT'
p984
(lp985
I142982030
aI143018390
aS'-'
asS'ARHGAP39'
p986
(lp987
I144529178
aI144685812
aS'-'
asS'ATP6V1C1'
p988
(lp989
I103021019
aI103073057
aS'+'
asS'LOC389641'
p990
(lp991
I23225220
aI23230926
aS'+'
asS'PPP1R42'
p992
(lp993
I66964101
aI67028554
aS'-'
asS'CCN4'
p994
(lp995
I133191038
aI133231689
aS'+'
asS'LOC101927513'
p996
(lp997
I119062942
aI119068782
aS'-'
asS'MIR5692A2'
p998
(lp999
I12719131
aI12719190
aS'+'
asS'CHRNA2'
p1000
(lp1001
I27459760
aI27479296
aS'-'
asS'NDUFB9'
p1002
(lp1003
I124539101
aI124549986
aS'+'
asS'WWP1'
p1004
(lp1005
I86342764
aI86467949
aS'+'
asS'FBXO16'
p1006
(lp1007
I28428408
aI28490318
aS'-'
asS'NRG1-IT3'
p1008
(lp1009
I32440745
aI32442725
aS'+'
asS'NRG1-IT1'
p1010
(lp1011
I32025735
aI32139477
aS'+'
asS'DEFB107A'
p1012
(lp1013
I7495845
aI7509311
aS'+'
asS'POLR3D'
p1014
(lp1015
I22245105
aI22251167
aS'+'
asS'SLC30A8'
p1016
(lp1017
I116950272
aI117176714
aS'+'
asS'ZFAT-AS1'
p1018
(lp1019
I134598070
aI134600689
aS'+'
asS'FAM66D'
p1020
(lp1021
I12115781
aI12151189
aS'+'
asS'FAM66E'
p1022
(lp1023
I7955012
aI8008755
aS'+'
asS'FAM66B'
p1024
(lp1025
I7298743
aI7355363
aS'-'
asS'FAM66A'
p1026
(lp1027
I12362018
aI12411001
aS'+'
asS'SPIDR'
p1028
(lp1029
I47260877
aI47736001
aS'+'
asS'PPP1R3B'
p1030
(lp1031
I9136253
aI9151642
aS'-'
asS'TSNARE1'
p1032
(lp1033
I142212079
aI142403182
aS'-'
asS'TPD52'
p1034
(lp1035
I80034869
aI80171659
aS'-'
asS'TIGD5'
p1036
(lp1037
I143597903
aI143600315
aS'+'
asS'CNGB3'
p1038
(lp1039
I86573934
aI86743675
aS'-'
asS'GSDMC'
p1040
(lp1041
I129748195
aI129786888
aS'-'
asS'GSDMD'
p1042
(lp1043
I143553386
aI143563061
aS'+'
asS'OTUD6B-AS1'
p1044
(lp1045
I91059905
aI91070189
aS'-'
asS'DLGAP2'
p1046
(lp1047
I737718
aI1708476
aS'+'
asS'LOC401442'
p1048
(lp1049
I738547
aI740374
aS'+'
asS'FAM110B'
p1050
(lp1051
I57994553
aI58149718
aS'+'
asS'MIR548I3'
p1052
(lp1053
I8088940
aI8089089
aS'-'
asS'LNCOC1'
p1054
(lp1055
I142702251
aI142726973
aS'-'
asS'ADGRA2'
p1056
(lp1057
I37796882
aI37843986
aS'+'
asS'ATP6V0D2'
p1058
(lp1059
I86098909
aI86154225
aS'+'
asS'RHPN1-AS1'
p1060
(lp1061
I143366622
aI143368635
aS'-'
asS'HEY1'
p1062
(lp1063
I79764009
aI79767863
aS'-'
asS'CLN8'
p1064
(lp1065
I1763703
aI1786570
aS'+'
asS'ANKRD46'
p1066
(lp1067
I100509751
aI100559786
aS'-'
asS'SNTG1'
p1068
(lp1069
I49909725
aI50796656
aS'+'
asS'LRRC6'
p1070
(lp1071
I132570418
aI132675617
aS'-'
asS'EXTL3'
p1072
(lp1073
I28701472
aI28753690
aS'+'
asS'LOC101929488'
p1074
(lp1075
I57343786
aI57364856
aS'+'
asS'XKR6'
p1076
(lp1077
I10896145
aI11201366
aS'-'
asS'BAALC-AS1'
p1078
(lp1079
I103156989
aI103172140
aS'-'
asS'MIR7848'
p1080
(lp1081
I133046480
aI133046581
aS'-'
asS'MCMDC2'
p1082
(lp1083
I66870748
aI66922048
aS'+'
asS'BAALC-AS2'
p1084
(lp1085
I103132962
aI103141342
aS'-'
asS'GPT'
p1086
(lp1087
I144504081
aI144507172
aS'+'
asS'CCN3'
p1088
(lp1089
I119416445
aI119424433
aS'+'
asS'FOXH1'
p1090
(lp1091
I144473731
aI144476335
aS'-'
asS'LOC101929550'
p1092
(lp1093
I35672163
aI35710320
aS'-'
asS'FGFR1'
p1094
(lp1095
I38411137
aI38468834
aS'-'
asS'RSPO2'
p1096
(lp1097
I107899315
aI108083685
aS'-'
asS'MIR486-1'
p1098
(lp1099
I41660440
aI41660508
aS'-'
asS'TMEM74'
p1100
(lp1101
I108606849
aI108787615
aS'-'
asS'LOC101929172'
p1102
(lp1103
I21298238
aI21309449
aS'+'
asS'MIR486-2'
p1104
(lp1105
I41660443
aI41660507
aS'+'
asS'ADCY8'
p1106
(lp1107
I130780300
aI131040909
aS'-'
asS'MIR5194'
p1108
(lp1109
I130008333
aI130008453
aS'-'
asS'SNHG6'
p1110
(lp1111
I66921689
aI66925541
aS'-'
asS'LOC100507156'
p1112
(lp1113
I23336207
aI23366125
aS'+'
asS'SCRT1'
p1114
(lp1115
I144330564
aI144336281
aS'-'
asS'FBXL6'
p1116
(lp1117
I144355427
aI144358523
aS'-'
asS'CLVS1'
p1118
(lp1119
I61287969
aI61501629
aS'+'
asS'LOC101929269'
p1120
(lp1121
I11062651
aI11067089
aS'-'
asS'KCNV1'
p1122
(lp1123
I109963635
aI109975771
aS'-'
asS'MIR7160'
p1124
(lp1125
I2076588
aI2076640
aS'+'
asS'C8orf34-AS1'
p1126
(lp1127
I68303467
aI68331491
aS'-'
asS'RAD21-AS1'
p1128
(lp1129
I116874423
aI116876868
aS'+'
asS'LOC102724623'
p1130
(lp1131
I63856942
aI64368558
aS'-'
asS'HGH1'
p1132
(lp1133
I144137768
aI144140843
aS'+'
asS'DOCK5'
p1134
(lp1135
I25184722
aI25415716
aS'+'
asS'MROH5'
p1136
(lp1137
I141433828
aI141507230
aS'-'
asS'LOC392232'
p1138
(lp1139
I72202751
aI72251634
aS'-'
asS'PABPC1'
p1140
(lp1141
I100702915
aI100722088
aS'-'
asS'NDRG1'
p1142
(lp1143
I133237170
aI133297304
aS'-'
asS'CRH'
p1144
(lp1145
I66176376
aI66178645
aS'-'
asS'LOC102723322'
p1146
(lp1147
I85172076
aI85177041
aS'-'
asS'LINC01301'
p1148
(lp1149
I60402170
aI60413818
aS'-'
asS'THEM6'
p1150
(lp1151
I142727202
aI142736932
aS'+'
asS'MROH6'
p1152
(lp1153
I143566192
aI143572758
aS'-'
asS'PDLIM2'
p1154
(lp1155
I22580473
aI22598025
aS'+'
asS'NCALD'
p1156
(lp1157
I101686541
aI102124907
aS'-'
asS'EGR3'
p1158
(lp1159
I22687660
aI22693302
aS'-'
asS'FAM83H'
p1160
(lp1161
I143723932
aI143733779
aS'-'
asS'MIR4472-1'
p1162
(lp1163
I142176338
aI142176418
aS'+'
asS'VPS37A'
p1164
(lp1165
I17246957
aI17333432
aS'+'
asS'RRM2B'
p1166
(lp1167
I102204500
aI102239118
aS'-'
asS'PRNCR1'
p1168
(lp1169
I127079873
aI127092595
aS'+'
asS'LOC101929415'
p1170
(lp1171
I56445806
aI56552067
aS'+'
asS'TMEM70'
p1172
(lp1173
I73976141
aI73982783
aS'+'
asS'RNF139'
p1174
(lp1175
I124474766
aI124488618
aS'+'
asS'ANXA13'
p1176
(lp1177
I123680793
aI123737426
aS'-'
asS'NKAIN3'
p1178
(lp1179
I62248941
aI62999652
aS'+'
asS'TMEM75'
p1180
(lp1181
I127946558
aI127948723
aS'-'
asS'GEM'
p1182
(lp1183
I94249256
aI94262319
aS'-'
asS'TONSL-AS1'
p1184
(lp1185
I144435167
aI144439893
aS'+'
asS'LOC101929897'
p1186
(lp1187
I42255320
aI42270961
aS'-'
asS'LOC101929066'
p1188
(lp1189
I18084867
aI18097651
aS'+'
asS'LYPLA1'
p1190
(lp1191
I54046366
aI54102017
aS'-'
asS'XKR9'
p1192
(lp1193
I70669364
aI70735942
aS'+'
asS'DNAJC5B'
p1194
(lp1195
I66014977
aI66101243
aS'+'
asS'MAL2'
p1196
(lp1197
I119208362
aI119245673
aS'+'
asS'TRMT12'
p1198
(lp1199
I124450806
aI124453025
aS'+'
asS'UNC5D'
p1200
(lp1201
I35235456
aI35796550
aS'+'
asS'PDP1'
p1202
(lp1203
I93916922
aI93926068
aS'+'
asS'TP53INP1'
p1204
(lp1205
I94925971
aI94949387
aS'-'
asS'MIR2053'
p1206
(lp1207
I112643492
aI112643583
aS'+'
asS'CYP7A1'
p1208
(lp1209
I58490177
aI58500161
aS'-'
asS'LINC00599'
p1210
(lp1211
I9900063
aI9903329
aS'-'
asS'ZFAT'
p1212
(lp1213
I134477787
aI134713049
aS'-'
asS'LOC286059'
p1214
(lp1215
I23068228
aI23083619
aS'+'
asS'YTHDF3-AS1'
p1216
(lp1217
I63167724
aI63168442
aS'-'
asS'LOC100507464'
p1218
(lp1219
I49496762
aI49512180
aS'-'
asS'MRPS28'
p1220
(lp1221
I79918859
aI80030271
aS'-'
asS'MOS'
p1222
(lp1223
I56112941
aI56113982
aS'-'
asS'LINC00208'
p1224
(lp1225
I11576534
aI11581341
aS'+'
asS'LOC100310756'
p1226
(lp1227
I143556818
aI143558271
aS'-'
asS'EIF4EBP1'
p1228
(lp1229
I38030501
aI38060365
aS'+'
asS'NPBWR1'
p1230
(lp1231
I52939907
aI52940894
aS'+'
asS'CERNA3'
p1232
(lp1233
I56074591
aI56075274
aS'+'
asS'UBE2W'
p1234
(lp1235
I73780096
aI73878862
aS'-'
asS'MYOM2'
p1236
(lp1237
I2045042
aI2145456
aS'+'
asS'PMP2'
p1238
(lp1239
I81440325
aI81447523
aS'-'
asS'BAG4'
p1240
(lp1241
I38176587
aI38213301
aS'+'
asS'SMIM19'
p1242
(lp1243
I42541936
aI42555195
aS'+'
asS'SMIM18'
p1244
(lp1245
I30638599
aI30645952
aS'+'
asS'LOC102724874'
p1246
(lp1247
I77450696
aI77476331
aS'+'
asS'E2F5'
p1248
(lp1249
I85177153
aI85214518
aS'+'
asS'ZNF34'
p1250
(lp1251
I144772223
aI144787345
aS'-'
asS'VDAC3'
p1252
(lp1253
I42391760
aI42405937
aS'+'
asS'NSMAF'
p1254
(lp1255
I58583504
aI58659845
aS'-'
asS'CHMP7'
p1256
(lp1257
I23243636
aI23262000
aS'+'
asS'DENND3'
p1258
(lp1259
I141128611
aI141195804
aS'+'
asS'SLC52A2'
p1260
(lp1261
I144358556
aI144361286
aS'+'
asS'SLC10A5'
p1262
(lp1263
I81693655
aI81694972
aS'-'
asS'SDR16C5'
p1264
(lp1265
I56299647
aI56320776
aS'-'
asS'ZHX2'
p1266
(lp1267
I122781654
aI122974515
aS'+'
asS'MIR4659A'
p1268
(lp1269
I6745163
aI6745244
aS'+'
asS'CHRNB3'
p1270
(lp1271
I42697375
aI42737407
aS'+'
asS'ZHX1'
p1272
(lp1273
I123248449
aI123275541
aS'-'
asS'CCAT2'
p1274
(lp1275
I127400398
aI127402150
aS'+'
asS'CCAT1'
p1276
(lp1277
I127207381
aI127219268
aS'-'
asS'R3HCC1'
p1278
(lp1279
I23288091
aI23296279
aS'+'
asS'VCPIP1'
p1280
(lp1281
I66630252
aI66667217
aS'-'
asS'FAM160B2'
p1282
(lp1283
I22089153
aI22104380
aS'+'
asS'PENK'
p1284
(lp1285
I56440953
aI56446734
aS'-'
asS'SNORD173'
p1286
(lp1287
I103308977
aI103309081
aS'+'
asS'LINC00293'
p1288
(lp1289
I46840885
aI46855785
aS'+'
asS'LY6E'
p1290
(lp1291
I143018484
aI143022410
aS'+'
asS'LY6D'
p1292
(lp1293
I142784881
aI142786592
aS'-'
asS'BNIP3L'
p1294
(lp1295
I26383006
aI26413128
aS'+'
asS'FBXO43'
p1296
(lp1297
I100133359
aI100145871
aS'-'
asS'GOLGA7'
p1298
(lp1299
I41490395
aI41510980
aS'+'
asS'LOC101927543'
p1300
(lp1301
I120761252
aI120776832
aS'+'
asS'FER1L6-AS2'
p1302
(lp1303
I124046070
aI124171522
aS'-'
asS'FER1L6-AS1'
p1304
(lp1305
I123984137
aI124040782
aS'-'
asS'LY6H'
p1306
(lp1307
I143157913
aI143160636
aS'-'
asS'ZNF705G'
p1308
(lp1309
I7357975
aI7362968
aS'-'
asS'LINC02155'
p1310
(lp1311
I61889838
aI61894206
aS'+'
asS'PPP1R16A'
p1312
(lp1313
I144477981
aI144502121
aS'+'
asS'PNOC'
p1314
(lp1315
I28317267
aI28343351
aS'+'
asS'MIR30D'
p1316
(lp1317
I134804875
aI134804945
aS'-'
asS'ZNF696'
p1318
(lp1319
I143291388
aI143299950
aS'+'
asS'DEFT1P2'
p1320
(lp1321
I7006280
aI7008824
aS'-'
asS'MIR6841'
p1322
(lp1323
I24953795
aI24953867
aS'-'
asS'LINC02153'
p1324
(lp1325
I20973985
aI20995119
aS'+'
asS'SFRP1'
p1326
(lp1327
I41261961
aI41309473
aS'-'
asS'SGK3'
p1328
(lp1329
I66712780
aI66862022
aS'+'
asS'LOC101929622'
p1330
(lp1331
I37717578
aI37733493
aS'+'
asS'MIR6847'
p1332
(lp1333
I144079873
aI144079942
aS'+'
asS'SNORD13'
p1334
(lp1335
I33513474
aI33513578
aS'+'
asS'TSTA3'
p1336
(lp1337
I143612617
aI143617562
aS'-'
asS'MIR6848'
p1338
(lp1339
I144317245
aI144317315
aS'-'
asS'LOC102723729'
p1340
(lp1341
I41534304
aI41578368
aS'-'
asS'DEFB109A'
p1342
(lp1343
I12393283
aI12400365
aS'-'
asS'BHLHE22'
p1344
(lp1345
I64580237
aI64583634
aS'+'
asS'DEFB109B'
p1346
(lp1347
I7990414
aI7997521
aS'-'
asS'IL7'
p1348
(lp1349
I78732771
aI78805523
aS'-'
asS'AGPAT5'
p1350
(lp1351
I6708641
aI6761500
aS'+'
asS'ADRB3'
p1352
(lp1353
I37962989
aI37966599
aS'-'
asS'GPAA1'
p1354
(lp1355
I144082633
aI144086216
aS'+'
asS'ASNSP1'
p1356
(lp1357
I46579214
aI46617643
aS'-'
asS'PSCA'
p1358
(lp1359
I142670307
aI142682727
aS'+'
asS'MIR548D1'
p1360
(lp1361
I123348033
aI123348130
aS'-'
asS'ASAP1'
p1362
(lp1363
I130052104
aI130443660
aS'-'
asS'IDO2'
p1364
(lp1365
I39934954
aI40016391
aS'+'
asS'MIR4288'
p1366
(lp1367
I28505115
aI28505182
aS'-'
asS'IDO1'
p1368
(lp1369
I39913808
aI39928791
aS'+'
asS'CDH17'
p1370
(lp1371
I94127165
aI94217303
aS'-'
asS'SNTB1'
p1372
(lp1373
I120535744
aI120812069
aS'-'
asS'MIR3151'
p1374
(lp1375
I103154613
aI103154689
aS'+'
asS'MIR7112'
p1376
(lp1377
I144262672
aI144262737
aS'-'
asS'LOC102724708'
p1378
(lp1379
I67343833
aI67491868
aS'+'
asS'MIR4287'
p1380
(lp1381
I27886038
aI27886116
aS'-'
asS'MIR4286'
p1382
(lp1383
I10666977
aI10667070
aS'+'
asS'PINX1'
p1384
(lp1385
I10764960
aI10839899
aS'-'
asS'LINC00977'
p1386
(lp1387
I129216466
aI129241240
aS'-'
asS'LINC00976'
p1388
(lp1389
I128952878
aI128966001
aS'-'
asS'RUNX1T1'
p1390
(lp1391
I91954966
aI92103226
aS'-'
asS'LRRC69'
p1392
(lp1393
I91102618
aI91219254
aS'+'
asS'GINS4'
p1394
(lp1395
I41529205
aI41545046
aS'+'
asS'RB1CC1'
p1396
(lp1397
I52622457
aI52714466
aS'-'
asS'MICU3'
p1398
(lp1399
I17027237
aI17122639
aS'+'
asS'LOC100500773'
p1400
(lp1401
I95946984
aI95948348
aS'-'
asS'KLF10'
p1402
(lp1403
I102648776
aI102655902
aS'-'
asS'RNF170'
p1404
(lp1405
I42849636
aI42896723
aS'-'
asS'DEFB4B'
p1406
(lp1407
I7414862
aI7416832
aS'-'
asS'DEFB4A'
p1408
(lp1409
I7894564
aI7896716
aS'+'
asS'PXDNL'
p1410
(lp1411
I51319576
aI51809445
aS'-'
asS'NEFM'
p1412
(lp1413
I24913760
aI24919093
aS'+'
asS'NEFL'
p1414
(lp1415
I24950955
aI24956869
aS'-'
asS'ASAP1-IT1'
p1416
(lp1417
I130295354
aI130296533
aS'-'
asS'GDF6'
p1418
(lp1419
I96142332
aI96160792
aS'-'
asS'FAM86B3P'
p1420
(lp1421
I8228569
aI8244865
aS'+'
asS'ZFP41'
p1422
(lp1423
I143246938
aI143262705
aS'+'
asS'KCNS2'
p1424
(lp1425
I98427021
aI98430795
aS'+'
asS'PKIA-AS1'
p1426
(lp1427
I78533891
aI78558503
aS'-'
asS'NRG1'
p1428
(lp1429
I31639751
aI32743252
aS'+'
asS'EYA1'
p1430
(lp1431
I71197432
aI71547657
aS'-'
asS'PI15'
p1432
(lp1433
I74824536
aI74855044
aS'+'
asS'MIR548V'
p1434
(lp1435
I17681577
aI17681657
aS'-'
asS'LOC100130964'
p1436
(lp1437
I39563111
aI39580134
aS'+'
asS'SCARA3'
p1438
(lp1439
I27634059
aI27676769
aS'+'
asS'CLDN23'
p1440
(lp1441
I8702155
aI8704107
aS'+'
asS'OSR2'
p1442
(lp1443
I98944402
aI98952104
aS'+'
asS'SNORD65B'
p1444
(lp1445
I41426654
aI41426727
aS'+'
asS'MCM4'
p1446
(lp1447
I47960940
aI47978159
aS'+'
asS'RHOBTB2'
p1448
(lp1449
I22987416
aI23020197
aS'+'
asS'SARAF'
p1450
(lp1451
I30063011
aI30083208
aS'-'
asS'LOC100287846'
p1452
(lp1453
I47189306
aI47193262
aS'+'
asS'C8orf33'
p1454
(lp1455
I145052437
aI145056030
aS'+'
asS'OPRK1'
p1456
(lp1457
I53225715
aI53251697
aS'-'
asS'MAFA-AS1'
p1458
(lp1459
I143417678
aI143419150
aS'+'
asS'KCNK9'
p1460
(lp1461
I139600837
aI139703056
aS'-'
asS'PCAT1'
p1462
(lp1463
I127013153
aI127021014
aS'+'
asS'PCAT2'
p1464
(lp1465
I127072693
aI127082221
aS'-'
asS'RHPN1'
p1466
(lp1467
I143368875
aI143384221
aS'+'
asS'DEFB104A'
p1468
(lp1469
I7470307
aI7475082
aS'-'
asS'MIR4662B'
p1470
(lp1471
I124821977
aI124822058
aS'-'
asS'KIFC2'
p1472
(lp1473
I144466336
aI144474116
aS'+'
asS'MIR4662A'
p1474
(lp1475
I124821984
aI124822051
aS'+'
asS'LOC101929341'
p1476
(lp1477
I52194361
aI52199552
aS'+'
asS'ARC'
p1478
(lp1479
I142611043
aI142614472
aS'-'
asS'PURG'
p1480
(lp1481
I30995801
aI31033715
aS'-'
asS'FGF20'
p1482
(lp1483
I16992824
aI17002165
aS'-'
asS'UBR5-AS1'
p1484
(lp1485
I102239450
aI102252174
aS'+'
asS'FSBP'
p1486
(lp1487
I94427711
aI94436952
aS'-'
asS'LOC105375690'
p1488
(lp1489
I103481279
aI103501910
aS'-'
asS'TM2D2'
p1490
(lp1491
I38988807
aI38996522
aS'-'
asS'GSR'
p1492
(lp1493
I30678062
aI30727999
aS'-'
asS'MTBP'
p1494
(lp1495
I120445397
aI120523635
aS'+'
asS'WASHC5'
p1496
(lp1497
I125024260
aI125091819
aS'-'
asS'LOC102467222'
p1498
(lp1499
I20953632
aI20968938
aS'+'
asS'MFHAS1'
p1500
(lp1501
I8784488
aI8893621
aS'-'
asS'CCDC166'
p1502
(lp1503
I143706693
aI143708109
aS'-'
asS'SIRLNT'
p1504
(lp1505
I40333172
aI40343363
aS'-'
asS'PUF60'
p1506
(lp1507
I143816343
aI143829386
aS'-'
asS'MIR378D2'
p1508
(lp1509
I93916021
aI93916119
aS'-'
asS'MIR3674'
p1510
(lp1511
I1801124
aI1801192
aS'+'
asS'ZFAND1'
p1512
(lp1513
I81701330
aI81721304
aS'-'
asS'HAS2-AS1'
p1514
(lp1515
I121639345
aI121645324
aS'+'
asS'MAFA'
p1516
(lp1517
I143428059
aI143430432
aS'-'
asS'ZHX1-C8orf76'
p1518
(lp1519
I123226188
aI123274487
aS'-'
asS'MROH1'
p1520
(lp1521
I144148015
aI144261940
aS'+'
asS'PHYHIP'
p1522
(lp1523
I22219702
aI22232352
aS'-'
asS'MSR1'
p1524
(lp1525
I16107877
aI16192791
aS'-'
asS'LINC00964'
p1526
(lp1527
I124942007
aI124951095
aS'+'
asS'SAMD12-AS1'
p1528
(lp1529
I118621000
aI118726067
aS'+'
asS'LOC100128993'
p1530
(lp1531
I19183675
aI19245522
aS'-'
asS'BIN3-IT1'
p1532
(lp1533
I22640370
aI22642209
aS'-'
asS'SLC39A14'
p1534
(lp1535
I22367229
aI22434127
aS'+'
asS'SFTPC'
p1536
(lp1537
I22161670
aI22164478
aS'+'
asS'LINC00251'
p1538
(lp1539
I65161144
aI65180340
aS'-'
asS'PDE7A'
p1540
(lp1541
I65714333
aI65841734
aS'-'
asS'LINC01300'
p1542
(lp1543
I141340548
aI141344621
aS'+'
asS'IMPA1P1'
p1544
(lp1545
I81603883
aI81631277
aS'-'
asS'PTP4A3'
p1546
(lp1547
I141421387
aI141432454
aS'+'
asS'LOC101927845'
p1548
(lp1549
I134849934
aI134881899
aS'+'
asS'LOC101926908'
p1550
(lp1551
I72732044
aI72751843
aS'+'
asS'DEFB135'
p1552
(lp1553
I11982320
aI11984590
aS'+'
asS'LYN'
p1554
(lp1555
I55879826
aI56012447
aS'+'
asS'NECAB1'
p1556
(lp1557
I90791692
aI90959402
aS'+'
asS'ENTPD4'
p1558
(lp1559
I23429151
aI23457731
aS'-'
asS'FNTA'
p1560
(lp1561
I43056298
aI43085788
aS'+'
asS'MIR151A'
p1562
(lp1563
I140732563
aI140732653
aS'-'
asS'SPAG11B'
p1564
(lp1565
I7447753
aI7463670
aS'-'
asS'SPAG11A'
p1566
(lp1567
I7847879
aI7863797
aS'+'
asS'ENPP2'
p1568
(lp1569
I119557236
aI119673576
aS'-'
asS'CASC19'
p1570
(lp1571
I127187785
aI127197627
aS'-'
asS'FAM90A7P'
p1572
(lp1573
I7563787
aI7574398
aS'-'
asS'SPAG1'
p1574
(lp1575
I100158034
aI100241904
aS'+'
asS'LINC02055'
p1576
(lp1577
I136530797
aI136897601
aS'+'
asS'ADAM5'
p1578
(lp1579
I39314662
aI39402856
aS'+'
asS'AP3M2'
p1580
(lp1581
I42152945
aI42171183
aS'+'
asS'LOC102724804'
p1582
(lp1583
I96371925
aI96387438
aS'-'
asS'LOC401463'
p1584
(lp1585
I64574308
aI64581892
aS'-'
asS'GPR20'
p1586
(lp1587
I141356485
aI141367265
aS'-'
asS'PRKDC'
p1588
(lp1589
I47773107
aI47960183
aS'-'
asS'NKX6-3'
p1590
(lp1591
I41645177
aI41650817
aS'-'
asS'UBR5'
p1592
(lp1593
I102252273
aI102412700
aS'-'
asS'OTUD6B'
p1594
(lp1595
I91070343
aI91087095
aS'+'
asS'ADAM7'
p1596
(lp1597
I24440995
aI24509564
aS'+'
asS'FUT10'
p1598
(lp1599
I33370825
aI33473146
aS'-'
asS'ADAM2'
p1600
(lp1601
I39743735
aI39838289
aS'-'
asS'BMP1'
p1602
(lp1603
I22165139
aI22212326
aS'+'
asS'JRK'
p1604
(lp1605
I142657459
aI142669994
aS'-'
asS'EEF1D'
p1606
(lp1607
I143579721
aI143597675
aS'-'
asS'PPP2CB'
p1608
(lp1609
I30785609
aI30812836
aS'-'
asS'SNORD54'
p1610
(lp1611
I56073838
aI56073901
aS'-'
asS'MIR548H4'
p1612
(lp1613
I27048852
aI27048963
aS'-'
asS'ADAM9'
p1614
(lp1615
I38996985
aI39105260
aS'+'
asS'LINC00535'
p1616
(lp1617
I93346466
aI93700433
aS'-'
asS'LINC00534'
p1618
(lp1619
I90221487
aI90387959
aS'+'
asS'LINC00536'
p1620
(lp1621
I115950510
aI116325059
aS'-'
asS'LOC101928160'
p1622
(lp1623
I143708050
aI143713898
aS'+'
asS'GFRA2'
p1624
(lp1625
I21690397
aI21788875
aS'-'
asS'DEFB105A'
p1626
(lp1627
I7487668
aI7489593
aS'+'
asS'STC1'
p1628
(lp1629
I23841920
aI23854807
aS'-'
asS'KBTBD11-OT1'
p1630
(lp1631
I1971396
aI1976444
aS'+'
asS'ELP3'
p1632
(lp1633
I28090230
aI28191152
aS'+'
asS'POLB'
p1634
(lp1635
I42338454
aI42371813
aS'+'
asS'STMN4'
p1636
(lp1637
I27235322
aI27258439
aS'-'
asS'MIR5680'
p1638
(lp1639
I102125431
aI102125515
aS'+'
asS'STMN2'
p1640
(lp1641
I79610813
aI79666175
aS'+'
asS'HR'
p1642
(lp1643
I22114418
aI22131052
aS'-'
asS'PCM1'
p1644
(lp1645
I17922856
aI18029948
aS'+'
asS'MBOAT4'
p1646
(lp1647
I30131670
aI30144684
aS'-'
asS'SLC7A2'
p1648
(lp1649
I17497087
aI17570568
aS'+'
asS'TRIM35'
p1650
(lp1651
I27284885
aI27311319
aS'-'
asS'PKIA'
p1652
(lp1653
I78516100
aI78605267
aS'+'
asS'TRIM55'
p1654
(lp1655
I66127042
aI66175483
aS'+'
asS'SLC25A37'
p1656
(lp1657
I23528794
aI23575463
aS'+'
asS'PCMTD1'
p1658
(lp1659
I51817574
aI51899186
aS'-'
asS'FAM87A'
p1660
(lp1661
I375930
aI383174
aS'-'
asS'SLC25A32'
p1662
(lp1663
I103398637
aI103415335
aS'-'
asS'MIR3150A'
p1664
(lp1665
I95072913
aI95072993
aS'+'
asS'MSRA'
p1666
(lp1667
I10054268
aI10428891
aS'+'
asS'LOC100132813'
p1668
(lp1669
I109644114
aI109648084
aS'+'
asS'ST18'
p1670
(lp1671
I52110831
aI52409879
aS'-'
asS'ADAMDEC1'
p1672
(lp1673
I24384284
aI24406013
aS'+'
asS'PREX2'
p1674
(lp1675
I67952114
aI68237033
aS'+'
asS'CHD7'
p1676
(lp1677
I60678764
aI60868027
aS'+'
asS'SDR16C6P'
p1678
(lp1679
I56374717
aI56390710
aS'-'
asS'MIR3150B'
p1680
(lp1681
I95072910
aI95072996
aS'-'
asS'CPA6'
p1682
(lp1683
I67422169
aI67746385
aS'-'
asS'ZNF252P-AS1'
p1684
(lp1685
I145002810
aI145006046
aS'+'
asS'LOC729732'
p1686
(lp1687
I12537078
aI12665611
aS'-'
asS'UBXN8'
p1688
(lp1689
I30744164
aI30767004
aS'+'
asS'SCX'
p1690
(lp1691
I144266557
aI144268483
aS'+'
asS'MIR124-1'
p1692
(lp1693
I9903387
aI9903472
aS'-'
asS'MIR7705'
p1694
(lp1695
I100702967
aI100703024
aS'-'
asS'SNORD149'
p1696
(lp1697
I143506184
aI143506248
aS'-'
asS'MIR5681B'
p1698
(lp1699
I74548549
aI74548609
aS'-'
asS'MIR939'
p1700
(lp1701
I144394148
aI144394230
aS'-'
asS'LZTS1'
p1702
(lp1703
I20246164
aI20303981
aS'-'
asS'ODF1'
p1704
(lp1705
I102551588
aI102561018
aS'+'
asS'MRPL13'
p1706
(lp1707
I120395843
aI120445407
aS'-'
asS'SH2D4A'
p1708
(lp1709
I19313569
aI19396218
aS'+'
asS'MRPL15'
p1710
(lp1711
I54135220
aI54148514
aS'+'
asS'PVT1'
p1712
(lp1713
I127794532
aI128101253
aS'+'
asS'MED30'
p1714
(lp1715
I117520712
aI117540262
aS'+'
asS'LOC100506990'
p1716
(lp1717
I12437012
aI12566845
aS'+'
asS'KLHL38'
p1718
(lp1719
I123644442
aI123653801
aS'-'
asS'LINCR-0001'
p1720
(lp1721
I10474564
aI10481974
aS'+'
asS'CTHRC1'
p1722
(lp1723
I103371514
aI103383004
aS'+'
asS'PLEC'
p1724
(lp1725
I143915146
aI143976745
aS'-'
asS'RAD21'
p1726
(lp1727
I116845933
aI116874866
aS'-'
asS'SLC26A7'
p1728
(lp1729
I91209493
aI91398154
aS'+'
asS'MTFR1'
p1730
(lp1731
I65644652
aI65710563
aS'+'
asS'CYHR1'
p1732
(lp1733
I144449931
aI144465035
aS'-'
asS'NKX2-6'
p1734
(lp1735
I23702450
aI23706598
aS'-'
asS'SNORA72'
p1736
(lp1737
I98042085
aI98042217
aS'-'
asS'PBK'
p1738
(lp1739
I27809620
aI27838095
aS'-'
asS'TMEM67'
p1740
(lp1741
I93754843
aI93819232
aS'+'
asS'PRDM14'
p1742
(lp1743
I70051650
aI70071327
aS'-'
asS'DEFB105B'
p1744
(lp1745
I7487668
aI7489593
aS'+'
asS'DEPTOR'
p1746
(lp1747
I119873654
aI120050918
aS'+'
asS'TAF2'
p1748
(lp1749
I119730773
aI119832834
aS'-'
asS'LINC00967'
p1750
(lp1751
I66192113
aI66197319
aS'+'
asS'HNF4G'
p1752
(lp1753
I75407669
aI75566842
aS'+'
asS'LINC02237'
p1754
(lp1755
I111376638
aI111470617
aS'+'
asS'RBPMS'
p1756
(lp1757
I30384500
aI30572261
aS'+'
asS'TMEM68'
p1758
(lp1759
I55738743
aI55773407
aS'-'
asS'LINC00965'
p1760
(lp1761
I7260618
aI7263492
aS'-'
asS'NACA4P'
p1762
(lp1763
I101368892
aI101369595
aS'+'
asS'FLJ46284'
p1764
(lp1765
I92712961
aI92786060
aS'-'
asS'LINC00861'
p1766
(lp1767
I125922522
aI125951197
aS'-'
asS'DCAF4L2'
p1768
(lp1769
I87870742
aI87874068
aS'-'
asS'RNF122'
p1770
(lp1771
I33547753
aI33567128
aS'-'
asS'DLGAP2-AS1'
p1772
(lp1773
I1565509
aI1621664
aS'-'
asS'AGO2'
p1774
(lp1775
I140520150
aI140635546
aS'-'
asS'MCPH1'
p1776
(lp1777
I6406591
aI6648505
aS'+'
asS'LACTB2-AS1'
p1778
(lp1779
I70608576
aI70663278
aS'+'
asS'TNFRSF11B'
p1780
(lp1781
I118923556
aI118952144
aS'-'
asS'LINC01299'
p1782
(lp1783
I65527007
aI65562666
aS'-'
asS'LINC01298'
p1784
(lp1785
I95207006
aI95216374
aS'-'
asS'DEFB1'
p1786
(lp1787
I6870575
aI6878007
aS'-'
asS'SDCBP'
p1788
(lp1789
I58552923
aI58582860
aS'+'
asS'MIR548AO'
p1790
(lp1791
I41271047
aI41271143
aS'-'
asS'OR4F21'
p1792
(lp1793
I166085
aI167024
aS'-'
asS'LRRCC1'
p1794
(lp1795
I85107087
aI85146079
aS'+'
asS'LINC00051'
p1796
(lp1797
I142198355
aI142209003
aS'+'
asS'LINC00588'
p1798
(lp1799
I57279542
aI57284731
aS'+'
asS'LINC00589'
p1800
(lp1801
I29721259
aI29748109
aS'-'
asS'DEFB106A'
p1802
(lp1803
I7482503
aI7486387
aS'-'
asS'DEFB106B'
p1804
(lp1805
I7482503
aI7486387
aS'-'
asS'FZD3'
p1806
(lp1807
I28494204
aI28574268
aS'+'
asS'RPL8'
p1808
(lp1809
I144789764
aI144792446
aS'-'
asS'FZD6'
p1810
(lp1811
I103298432
aI103332866
aS'+'
asS'LINC01617'
p1812
(lp1813
I73878981
aI73883074
aS'+'
asS'C8orf86'
p1814
(lp1815
I38510833
aI38528662
aS'-'
asS'LOC105369147'
p1816
(lp1817
I103243537
aI103298818
aS'-'
asS'LINC01591'
p1818
(lp1819
I135234130
aI135299719
aS'+'
asS'LINC01592'
p1820
(lp1821
I68911802
aI69104190
aS'-'
asS'SGCZ'
p1822
(lp1823
I14084834
aI15238283
aS'-'
asS'MIR3686'
p1824
(lp1825
I129484056
aI129484142
aS'-'
asS'RPL7'
p1826
(lp1827
I73290638
aI73294466
aS'-'
asS'DEFB130A'
p1828
(lp1829
I12064388
aI12071747
aS'-'
asS'DUSP4'
p1830
(lp1831
I29333061
aI29350750
aS'-'
asS'LINC01181'
p1832
(lp1833
I103121031
aI103140355
aS'+'
asS'DEFB130B'
p1834
(lp1835
I12064388
aI12071747
aS'-'
asS'DLC1'
p1836
(lp1837
I13083362
aI13604616
aS'-'
asS'C8orf44-SGK3'
p1838
(lp1839
I66667551
aI66862022
aS'+'
asS'LOC101927657'
p1840
(lp1841
I126325494
aI126329533
aS'+'
asS'TERF1'
p1842
(lp1843
I73008863
aI73048123
aS'+'
asS'MIR1206'
p1844
(lp1845
I128008897
aI128008956
aS'+'
asS'RBM12B-AS1'
p1846
(lp1847
I93740110
aI93740819
aS'+'
asS'FAM49B'
p1848
(lp1849
I129839592
aI130017129
aS'-'
asS'TOP1MT'
p1850
(lp1851
I143309325
aI143359977
aS'-'
asS'PRAG1'
p1852
(lp1853
I8317735
aI8381834
aS'-'
asS'CHRNA6'
p1854
(lp1855
I42752635
aI42768786
aS'-'
asS'TGS1'
p1856
(lp1857
I55773231
aI55826445
aS'+'
asS'ARFGEF1'
p1858
(lp1859
I67197648
aI67343677
aS'-'
asS'ADAM28'
p1860
(lp1861
I24294039
aI24359018
aS'+'
asS'LY96'
p1862
(lp1863
I73991328
aI74029072
aS'+'
asS'LOC100130027'
p1864
(lp1865
I144808809
aI144827040
aS'-'
asS'KCNB2'
p1866
(lp1867
I72537390
aI72938349
aS'+'
asS'MIR1322'
p1868
(lp1869
I10825372
aI10825443
aS'-'
asS'POMK'
p1870
(lp1871
I43093505
aI43123180
aS'+'
asS'XKR5'
p1872
(lp1873
I6808519
aI6835644
aS'-'
asS'XKR4'
p1874
(lp1875
I55102456
aI55526151
aS'+'
asS'STAU2'
p1876
(lp1877
I73420368
aI73746927
aS'-'
asS'TRPS1'
p1878
(lp1879
I115408495
aI115669028
aS'-'
asS'OSGIN2'
p1880
(lp1881
I89901867
aI89927867
aS'+'
asS'TACC1'
p1882
(lp1883
I38728185
aI38853030
aS'+'
asS'PTTG3P'
p1884
(lp1885
I66767333
aI66768034
aS'-'
asS'MIR320A'
p1886
(lp1887
I22244961
aI22245043
aS'-'
asS'NUGGC'
p1888
(lp1889
I28021963
aI28083871
aS'-'
asS'CASC11'
p1890
(lp1891
I127700607
aI127733967
aS'-'
asS'RIMS2'
p1892
(lp1893
I103500747
aI104254428
aS'+'
asS'NKX3-1'
p1894
(lp1895
I23678692
aI23682937
aS'-'
asS'GNRH1'
p1896
(lp1897
I25419257
aI25425040
aS'-'
asS'SLC35G5'
p1898
(lp1899
I11330985
aI11332186
aS'+'
asS'DECR1'
p1900
(lp1901
I90001351
aI90053633
aS'+'
asS'ADCK5'
p1902
(lp1903
I144374046
aI144393238
aS'+'
asS'MAK16'
p1904
(lp1905
I33485166
aI33501260
aS'+'
asS'GS1-24F4.2'
p1906
(lp1907
I6835553
aI6842453
aS'+'
asS'MAF1'
p1908
(lp1909
I144104401
aI144107612
aS'+'
asS'ZNF251'
p1910
(lp1911
I144720908
aI144755585
aS'-'
asS'ZNF250'
p1912
(lp1913
I144876950
aI144902168
aS'-'
asS'KCTD9'
p1914
(lp1915
I25427847
aI25458468
aS'-'
asS'CCDC25'
p1916
(lp1917
I27733315
aI27772653
aS'-'
asS'CDC42P3'
p1918
(lp1919
I142995827
aI142997663
aS'+'
asS'CCDC26'
p1920
(lp1921
I129351693
aI129680239
aS'-'
asS'DCAF13'
p1922
(lp1923
I103415385
aI103443452
aS'+'
asS'RIPK2'
p1924
(lp1925
I89757746
aI89791064
aS'+'
asS'ADAM18'
p1926
(lp1927
I39584567
aI39730065
aS'+'
asS'TRPA1'
p1928
(lp1929
I72021250
aI72075584
aS'-'
asS'FAM83A'
p1930
(lp1931
I123179046
aI123210079
aS'+'
asS'MSC'
p1932
(lp1933
I71841541
aI71844496
aS'-'
asS'DEFA1B'
p1934
(lp1935
I6977648
aI6980092
aS'-'
asS'LOC100130298'
p1936
(lp1937
I60966120
aI60967748
aS'-'
asS'MIR3149'
p1938
(lp1939
I76966767
aI76966850
aS'-'
asS'PNMA2'
p1940
(lp1941
I26504679
aI26513967
aS'-'
asS'GASAL1'
p1942
(lp1943
I102806821
aI102811214
aS'+'
asS'RPS20'
p1944
(lp1945
I56068179
aI56074581
aS'-'
asS'GRHL2'
p1946
(lp1947
I101492438
aI101669724
aS'+'
asS'CPNE3'
p1948
(lp1949
I86514426
aI86561498
aS'+'
asS'ESCO2'
p1950
(lp1951
I27774540
aI27804907
aS'+'
asS'TATDN1'
p1952
(lp1953
I124488494
aI124539088
aS'-'
asS'MIR6843'
p1954
(lp1955
I27610600
aI27610751
aS'-'
asS'MIR6850'
p1956
(lp1957
I144791930
aI144791991
aS'-'
asS'SNORD38D'
p1958
(lp1959
I39018615
aI39018685
aS'-'
asS'DOK2'
p1960
(lp1961
I21908872
aI21913708
aS'-'
asS'RIDA'
p1962
(lp1963
I98102338
aI98117190
aS'-'
asS'GLI4'
p1964
(lp1965
I143267436
aI143276931
aS'+'
asS'LINC01289'
p1966
(lp1967
I63769429
aI63785497
aS'+'
asS'LOC105375800'
p1968
(lp1969
I143758493
aI143760508
aS'-'
asS'TG'
p1970
(lp1971
I132866959
aI133134899
aS'+'
asS'MAL2-AS1'
p1972
(lp1973
I119214622
aI119246857
aS'-'
asS'LOC286083'
p1974
(lp1975
I1296033
aI1302607
aS'-'
asS'VPS13B'
p1976
(lp1977
I99013265
aI99877586
aS'+'
asS'LRP12'
p1978
(lp1979
I104489230
aI104589024
aS'-'
asS'RBPMS-AS1'
p1980
(lp1981
I30382118
aI30385401
aS'-'
asS'DPY19L4'
p1982
(lp1983
I94719899
aI94793835
aS'+'
asS'RMDN1'
p1984
(lp1985
I86472348
aI86514348
aS'-'
asS'HOOK3'
p1986
(lp1987
I42896889
aI43030539
aS'+'
asS'MIR124-2'
p1988
(lp1989
I64379148
aI64379257
aS'+'
asS'MIR6842'
p1990
(lp1991
I27433369
aI27433434
aS'+'
asS'LOC101928902'
p1992
(lp1993
I144368936
aI144372871
aS'-'
asS'PLAT'
p1994
(lp1995
I42174717
aI42207724
aS'-'
asS'DEFA8P'
p1996
(lp1997
I6950725
aI6951599
aS'-'
asS'C8orf89'
p1998
(lp1999
I73241423
aI73259502
aS'-'
asS'C8orf88'
p2000
(lp2001
I90958477
aI90985257
aS'-'
asS'C8orf82'
p2002
(lp2003
I144526218
aI144529074
aS'-'
asS'MIR1207'
p2004
(lp2005
I128049151
aI128049238
aS'+'
asS'C8orf87'
p2006
(lp2007
I93134094
aI93166850
aS'-'
asS'KAT6A'
p2008
(lp2009
I41929478
aI42052026
aS'-'
asS'LINC00968'
p2010
(lp2011
I56518318
aI56559823
aS'-'
asS'NPM2'
p2012
(lp2013
I22024109
aI22036897
aS'+'
asS'PLAG1'
p2014
(lp2015
I56160908
aI56211300
aS'-'
asS'MIR6845'
p2016
(lp2017
I143837755
aI143837816
aS'-'
asS'COL14A1'
p2018
(lp2019
I120125107
aI120373575
aS'+'
asS'LOC100507071'
p2020
(lp2021
I22254575
aI22275162
aS'-'
asS'RPL30'
p2022
(lp2023
I98041709
aI98045590
aS'-'
asS'SLC7A13'
p2024
(lp2025
I86214065
aI86230381
aS'-'
asS'C8orf76'
p2026
(lp2027
I123219955
aI123241398
aS'-'
asS'C8orf74'
p2028
(lp2029
I10672636
aI10700593
aS'+'
asS'MIR661'
p2030
(lp2031
I143945190
aI143945279
aS'-'
asS'LOC101928058'
p2032
(lp2033
I1971178
aI1973345
aS'-'
asS'MINCR'
p2034
(lp2035
I143280154
aI143281700
aS'-'
asS'AARD'
p2036
(lp2037
I116938224
aI116944000
aS'+'
asS'LOC101929294'
p2038
(lp2039
I24295813
aI24548618
aS'-'
asS'SHARPIN'
p2040
(lp2041
I144098632
aI144104237
aS'-'
as.