(dp1
S'TRAF2'
p2
(lp3
I136886512
aI136926615
aS'+'
asS'SOHLH1'
p4
(lp5
I135693408
aI135699528
aS'-'
asS'OR1Q1'
p6
(lp7
I122614737
aI122615682
aS'+'
asS'MIR6081'
p8
(lp9
I95065349
aI95065446
aS'+'
asS'NCBP1'
p10
(lp11
I97633422
aI97673747
aS'+'
asS'SNORA30B'
p12
(lp13
I20786926
aI20787055
aS'+'
asS'ZDHHC12'
p14
(lp15
I128720869
aI128724129
aS'-'
asS'NELFB'
p16
(lp17
I137255299
aI137273548
aS'+'
asS'RIC1'
p18
(lp19
I5629106
aI5776556
aS'+'
asS'FRRS1L'
p20
(lp21
I109130292
aI109167291
aS'-'
asS'MIR1302-2'
p22
(lp23
I30143
aI30281
aS'+'
asS'NUTM2F'
p24
(lp25
I94318195
aI94328644
aS'-'
asS'ANP32B'
p26
(lp27
I97983340
aI98015942
aS'+'
asS'DPM2'
p28
(lp29
I127935094
aI127938484
aS'-'
asS'COL5A1-AS1'
p30
(lp31
I134649384
aI134652843
aS'-'
asS'LURAP1L-AS1'
p32
(lp33
I12699998
aI12814389
aS'-'
asS'MIR1302-9'
p34
(lp35
I30143
aI30281
aS'+'
asS'SEMA4D'
p36
(lp37
I89360790
aI89479696
aS'-'
asS'SNORD137'
p38
(lp39
I12972555
aI12972633
aS'-'
asS'IFNW1'
p40
(lp41
I21140631
aI21141901
aS'-'
asS'GAPVD1'
p42
(lp43
I125261793
aI125367207
aS'+'
asS'LHX2'
p44
(lp45
I124011609
aI124033163
aS'+'
asS'FAM201A'
p46
(lp47
I38621087
aI38623280
aS'+'
asS'ANKRD20A4-ANKRD20A20P'
p48
(lp49
I64369393
aI64469242
aS'+'
asS'HSPA5'
p50
(lp51
I125234852
aI125241343
aS'-'
asS'LHX6'
p52
(lp53
I122202576
aI122228812
aS'-'
asS'SLC28A3'
p54
(lp55
I84275849
aI84368498
aS'-'
asS'MAMDC2-AS1'
p56
(lp57
I70153133
aI70175888
aS'-'
asS'SNORD141B'
p58
(lp59
I133020429
aI133020534
aS'+'
asS'LOC51145'
p60
(lp61
I125743753
aI125745929
aS'-'
asS'ENTR1'
p62
(lp63
I136401921
aI136410614
aS'-'
asS'ANXA2P2'
p64
(lp65
I33624224
aI33625534
aS'+'
asS'MRPL50'
p66
(lp67
I101389966
aI101398637
aS'-'
asS'MIR4290'
p68
(lp69
I90023440
aI90023535
aS'-'
asS'LINC01492'
p70
(lp71
I103140527
aI103325033
aS'-'
asS'IFNA13'
p72
(lp73
I21367371
aI21368076
aS'-'
asS'GRIN1'
p74
(lp75
I137139156
aI137168762
aS'+'
asS'IFNA10'
p76
(lp77
I21206180
aI21207143
aS'-'
asS'IFNA17'
p78
(lp79
I21227242
aI21228222
aS'-'
asS'IFNA16'
p80
(lp81
I21216372
aI21217311
aS'-'
asS'IFNA14'
p82
(lp83
I21239201
aI21239979
aS'-'
asS'NPR2'
p84
(lp85
I35792408
aI35809731
aS'+'
asS'DNM1'
p86
(lp87
I128203354
aI128255248
aS'+'
asS'IFNK'
p88
(lp89
I27524313
aI27526498
aS'+'
asS'ANKRD18CP'
p90
(lp91
I97155892
aI97238742
aS'-'
asS'IFNE'
p92
(lp93
I21480839
aI21482313
aS'-'
asS'LCN12'
p94
(lp95
I136952272
aI136955497
aS'+'
asS'PTGR1'
p96
(lp97
I111549721
aI111599855
aS'-'
asS'PAPPA'
p98
(lp99
I116153791
aI116402321
aS'+'
asS'MIR4477B'
p100
(lp101
I41233754
aI41233835
aS'-'
asS'FAM205C'
p102
(lp103
I34889063
aI34895778
aS'-'
asS'FAM205A'
p104
(lp105
I34723052
aI34729538
aS'-'
asS'FAM242F'
p106
(lp107
I41694356
aI41699001
aS'-'
asS'PCSK5'
p108
(lp109
I75890643
aI76362339
aS'+'
asS'AK1'
p110
(lp111
I127866479
aI127879621
aS'-'
asS'ANKRD18A'
p112
(lp113
I38571363
aI38620660
aS'-'
asS'MIR4667'
p114
(lp115
I35608093
aI35608159
aS'+'
asS'COL15A1'
p116
(lp117
I98943712
aI99070792
aS'+'
asS'MIR4665'
p118
(lp119
I6007825
aI6007904
aS'+'
asS'MIR1268A'
p120
(lp121
I128352046
aI128662136
aS'+'
asS'ORM1'
p122
(lp123
I114323022
aI114326479
aS'+'
asS'AKAP2'
p124
(lp125
I110048597
aI110172511
aS'+'
asS'OR13C3'
p126
(lp127
I104535769
aI104536813
aS'-'
asS'TUBB4B'
p128
(lp129
I137241258
aI137243707
aS'+'
asS'OR13C8'
p130
(lp131
I104569167
aI104570130
aS'+'
asS'FAM95B1'
p132
(lp133
I64463598
aI64469259
aS'+'
asS'PTGER4P2-CDK2AP2P2'
p134
(lp135
I62838444
aI62847206
aS'+'
asS'ZBTB34'
p136
(lp137
I126860664
aI126885877
aS'+'
asS'ANGPTL2'
p138
(lp139
I127087347
aI127122635
aS'-'
asS'MIR219B'
p140
(lp141
I128392620
aI128392708
aS'+'
asS'PIP5KL1'
p142
(lp143
I127920880
aI127930777
aS'-'
asS'CEP78'
p144
(lp145
I78236061
aI78278437
aS'+'
asS'RMRP'
p146
(lp147
I35657750
aI35658018
aS'-'
asS'RLN1'
p148
(lp149
I5334931
aI5339873
aS'-'
asS'PHPT1'
p150
(lp151
I136848815
aI136851043
aS'+'
asS'UGCG'
p152
(lp153
I111896765
aI111935374
aS'+'
asS'URM1'
p154
(lp155
I128371318
aI128392016
aS'+'
asS'POLE3'
p156
(lp157
I113407238
aI113410749
aS'-'
asS'ELAVL2'
p158
(lp159
I23690104
aI23850640
aS'-'
asS'DIRAS2'
p160
(lp161
I90609831
aI90643105
aS'-'
asS'QSOX2'
p162
(lp163
I136206336
aI136245841
aS'-'
asS'C9orf50'
p164
(lp165
I129612224
aI129620776
aS'-'
asS'C9orf57'
p166
(lp167
I72051380
aI72060605
aS'-'
asS'LOC401557'
p168
(lp169
I135181608
aI135187306
aS'+'
asS'PUM3'
p170
(lp171
I2804154
aI2844130
aS'-'
asS'MIR23B'
p172
(lp173
I95085207
aI95085304
aS'+'
asS'POLR1E'
p174
(lp175
I37485934
aI37503697
aS'+'
asS'GTF3C5'
p176
(lp177
I133030674
aI133058503
aS'+'
asS'DENND4C'
p178
(lp179
I19230489
aI19374268
aS'+'
asS'SPATA31A1'
p180
(lp181
I39355668
aI39361962
aS'+'
asS'PTGDS'
p182
(lp183
I136977503
aI136981742
aS'+'
asS'GABBR2'
p184
(lp185
I98288081
aI98709197
aS'-'
asS'SPATA31A5'
p186
(lp187
I61190035
aI61196283
aS'+'
asS'SPATA31A7'
p188
(lp189
I61190035
aI61196280
aS'+'
asS'SPATA31A6'
p190
(lp191
I42183658
aI42189887
aS'+'
asS'DNAI1'
p192
(lp193
I34458751
aI34520989
aS'+'
asS'C9orf131'
p194
(lp195
I35041094
aI35045991
aS'+'
asS'RPL7A'
p196
(lp197
I133348213
aI133351425
aS'+'
asS'MIR219A2'
p198
(lp199
I128392617
aI128392714
aS'-'
asS'MIR3689C'
p200
(lp201
I134849297
aI134849369
aS'-'
asS'LOC497256'
p202
(lp203
I87867672
aI87939260
aS'-'
asS'LINC00032'
p204
(lp205
I27245683
aI27282793
aS'-'
asS'ENG'
p206
(lp207
I127815011
aI127854773
aS'-'
asS'NAIF1'
p208
(lp209
I128061232
aI128067320
aS'-'
asS'MIR3689A'
p210
(lp211
I134849174
aI134850644
aS'-'
asS'JAK2'
p212
(lp213
I4985085
aI5128183
aS'+'
asS'RASEF'
p214
(lp215
I82979584
aI83063128
aS'-'
asS'NFIL3'
p216
(lp217
I91409044
aI91424626
aS'-'
asS'CCL21'
p218
(lp219
I34709004
aI34710167
aS'-'
asS'SNX30'
p220
(lp221
I112750853
aI112874987
aS'+'
asS'ZNF510'
p222
(lp223
I96754548
aI96778129
aS'-'
asS'TOPORS'
p224
(lp225
I32540543
aI32552628
aS'-'
asS'CCL27'
p226
(lp227
I34661882
aI34662692
aS'-'
asS'AGPAT2'
p228
(lp229
I136673142
aI136687459
aS'-'
asS'MIRLET7F1'
p230
(lp231
I94176346
aI94176433
aS'+'
asS'STX17'
p232
(lp233
I99906653
aI99974534
aS'+'
asS'UCK1'
p234
(lp235
I131523795
aI131531275
aS'-'
asS'FIBCD1'
p236
(lp237
I130902439
aI130939247
aS'-'
asS'ABCA1'
p238
(lp239
I104781005
aI104928155
aS'-'
asS'SWI5'
p240
(lp241
I128275378
aI128288989
aS'+'
asS'LHX3'
p242
(lp243
I136196249
aI136205129
aS'-'
asS'CNTFR'
p244
(lp245
I34551431
aI34590140
aS'-'
asS'HMCN2'
p246
(lp247
I130265759
aI130434123
aS'+'
asS'ANAPC2'
p248
(lp249
I137174783
aI137188560
aS'-'
asS'MIR4290HG'
p250
(lp251
I90020653
aI90041499
aS'-'
asS'TMEM8B'
p252
(lp253
I35829227
aI35856240
aS'+'
asS'PSIP1'
p254
(lp255
I15464065
aI15511019
aS'-'
asS'NTNG2'
p256
(lp257
I132161946
aI132244531
aS'+'
asS'MIR600'
p258
(lp259
I123111545
aI123111643
aS'-'
asS'MIR601'
p260
(lp261
I123402524
aI123402603
aS'-'
asS'PRXL2C'
p262
(lp263
I96641250
aI96655317
aS'-'
asS'CAMSAP1'
p264
(lp265
I135808486
aI135907159
aS'-'
asS'LOC102723709'
p266
(lp267
I61867081
aI61869138
aS'-'
asS'MLANA'
p268
(lp269
I5890908
aI5909822
aS'+'
asS'LOC100129316'
p270
(lp271
I91063293
aI91075132
aS'-'
asS'WDR34'
p272
(lp273
I128633660
aI128656850
aS'-'
asS'WDR31'
p274
(lp275
I113313221
aI113340340
aS'-'
asS'MIR491'
p276
(lp277
I20716104
aI20716188
aS'+'
asS'IL11RA'
p278
(lp279
I34652184
aI34661901
aS'+'
asS'TTC39B'
p280
(lp281
I15170843
aI15307360
aS'-'
asS'CACNA1B'
p282
(lp283
I137877788
aI138124624
aS'+'
asS'ZBTB43'
p284
(lp285
I126805005
aI126838208
aS'+'
asS'MIR4289'
p286
(lp287
I88745835
aI88745905
aS'-'
asS'SMC5-AS1'
p288
(lp289
I70216058
aI70258874
aS'-'
asS'TOR2A'
p290
(lp291
I127731523
aI127735349
aS'-'
asS'SNHG7'
p292
(lp293
I136724593
aI136728184
aS'-'
asS'MIR4669'
p294
(lp295
I134379410
aI134379472
aS'+'
asS'RECK'
p296
(lp297
I36036912
aI36124455
aS'+'
asS'CACFD1'
p298
(lp299
I133459964
aI133470787
aS'+'
asS'TLE1'
p300
(lp301
I81583682
aI81689535
aS'-'
asS'FAM206A'
p302
(lp303
I108934399
aI108940954
aS'+'
asS'TLE4'
p304
(lp305
I79571772
aI79726881
aS'+'
asS'MIR4292'
p306
(lp307
I136830956
aI136831023
aS'+'
asS'FKTN'
p308
(lp309
I105558129
aI105641118
aS'+'
asS'DCTN3'
p310
(lp311
I34613544
aI34620523
aS'-'
asS'SLC25A25'
p312
(lp313
I128068199
aI128109258
aS'+'
asS'HINT2'
p314
(lp315
I35812959
aI35815045
aS'-'
asS'TSC1'
p316
(lp317
I132891347
aI132944633
aS'-'
asS'LINC01451'
p318
(lp319
I136612027
aI136617181
aS'-'
asS'LOC642929'
p320
(lp321
I66159958
aI66164906
aS'-'
asS'SLC25A51'
p322
(lp323
I37877574
aI37904353
aS'-'
asS'UBAC1'
p324
(lp325
I135932968
aI135961380
aS'-'
asS'FAM74A4'
p326
(lp327
I61205259
aI61212373
aS'+'
asS'FAM74A7'
p328
(lp329
I42198861
aI42206016
aS'+'
asS'FAM74A6'
p330
(lp331
I60929781
aI60935727
aS'+'
asS'FAM74A1'
p332
(lp333
I60929781
aI60935727
aS'+'
asS'FAM74A3'
p334
(lp335
I66970161
aI66977317
aS'-'
asS'SLC25A25-AS1'
p336
(lp337
I128111170
aI128118734
aS'-'
asS'NR4A3'
p338
(lp339
I99821854
aI99866891
aS'+'
asS'GARNL3'
p340
(lp341
I127263661
aI127393549
aS'+'
asS'SIT1'
p342
(lp343
I35649300
aI35650950
aS'-'
asS'CUTALP'
p344
(lp345
I120843074
aI120854373
aS'+'
asS'SETX'
p346
(lp347
I132261355
aI132354986
aS'-'
asS'CTNNAL1'
p348
(lp349
I108942568
aI109013594
aS'-'
asS'MIR3621'
p350
(lp351
I137169185
aI137169270
aS'-'
asS'AUH'
p352
(lp353
I91213814
aI91361969
aS'-'
asS'SPTLC1'
p354
(lp355
I92031133
aI92115474
aS'-'
asS'RXRA'
p356
(lp357
I134326462
aI134440586
aS'+'
asS'TMEM252'
p358
(lp359
I68536581
aI68540867
aS'-'
asS'SUGT1P1'
p360
(lp361
I33500755
aI33511166
aS'-'
asS'MIR4540'
p362
(lp363
I36864253
aI36864308
aS'-'
asS'BARX1'
p364
(lp365
I93951626
aI93955326
aS'-'
asS'FRMPD1'
p366
(lp367
I37651054
aI37746904
aS'+'
asS'NOL8'
p368
(lp369
I92297357
aI92325594
aS'-'
asS'SLC27A4'
p370
(lp371
I128340559
aI128361470
aS'+'
asS'NOL6'
p372
(lp373
I33461352
aI33473943
aS'-'
asS'RNF20'
p374
(lp375
I101533848
aI101563344
aS'+'
asS'LOC101928438'
p376
(lp377
I99585785
aI99819889
aS'-'
asS'LINC01502'
p378
(lp379
I135574924
aI135587112
aS'+'
asS'AK8'
p380
(lp381
I132725577
aI132878811
aS'-'
asS'APBA1'
p382
(lp383
I69427532
aI69672359
aS'-'
asS'ZNF883'
p384
(lp385
I112997119
aI113012192
aS'-'
asS'AK3'
p386
(lp387
I4709555
aI4742043
aS'-'
asS'NAA35'
p388
(lp389
I85941528
aI86025462
aS'+'
asS'ENHO'
p390
(lp391
I34521041
aI34523039
aS'-'
asS'DNAJB5-DT'
p392
(lp393
I34985410
aI34989379
aS'-'
asS'TAF1L'
p394
(lp395
I32629453
aI32635669
aS'-'
asS'MIR3689B'
p396
(lp397
I134850124
aI134850272
aS'-'
asS'AQP7P3'
p398
(lp399
I40463757
aI40498781
aS'-'
asS'LOC340512'
p400
(lp401
I106974832
aI107102988
aS'-'
asS'IFNA21'
p402
(lp403
I21165636
aI21166660
aS'-'
asS'MIR3689F'
p404
(lp405
I134850741
aI134850807
aS'-'
asS'ANKRD20A3'
p406
(lp407
I66109393
aI66152932
aS'-'
asS'CDK5RAP2'
p408
(lp409
I120388868
aI120580170
aS'-'
asS'SPATA31E1'
p410
(lp411
I87882856
aI87888899
aS'+'
asS'CIZ1'
p412
(lp413
I128166064
aI128204383
aS'-'
asS'LOC101927069'
p414
(lp415
I68953087
aI68975841
aS'-'
asS'VAV2'
p416
(lp417
I133761893
aI133992324
aS'-'
asS'PAEP'
p418
(lp419
I135561755
aI135566776
aS'+'
asS'PSMD5'
p420
(lp421
I120816053
aI120843021
aS'-'
asS'OR1N2'
p422
(lp423
I122553111
aI122554214
aS'+'
asS'OR1N1'
p424
(lp425
I122526357
aI122527293
aS'-'
asS'SH2D3C'
p426
(lp427
I127738316
aI127778666
aS'-'
asS'EBLN3P'
p428
(lp429
I37079895
aI37090401
aS'+'
asS'OR2S2'
p430
(lp431
I35957107
aI35958154
aS'-'
asS'CTSLP8'
p432
(lp433
I87844744
aI87847424
aS'+'
asS'TMEM250'
p434
(lp435
I136114580
aI136118885
aS'-'
asS'PGM5P2'
p436
(lp437
I41007014
aI41074625
aS'-'
asS'KIAA2026'
p438
(lp439
I5919007
aI6008003
aS'-'
asS'LINC01509'
p440
(lp441
I107420283
aI107466585
aS'-'
asS'MIR3651'
p442
(lp443
I92292457
aI92292547
aS'-'
asS'CER1'
p444
(lp445
I14719733
aI14722717
aS'-'
asS'LINC00484'
p446
(lp447
I91119061
aI91182762
aS'+'
asS'ACER2'
p448
(lp449
I19408926
aI19452502
aS'+'
asS'NFX1'
p450
(lp451
I33290416
aI33371163
aS'+'
asS'GFI1B'
p452
(lp453
I132945544
aI132991697
aS'+'
asS'MYORG'
p454
(lp455
I34366665
aI34376898
aS'-'
asS'PMPCA'
p456
(lp457
I136410572
aI136423761
aS'+'
asS'MIR548AW'
p458
(lp459
I132945706
aI132945771
aS'+'
asS'MIR548AU'
p460
(lp461
I93594840
aI93594894
aS'+'
asS'CELP'
p462
(lp463
I133082538
aI133087091
aS'+'
asS'TUBBP5'
p464
(lp465
I138150112
aI138177433
aS'+'
asS'GRIN3A'
p466
(lp467
I101569351
aI101738580
aS'-'
asS'ACTL7B'
p468
(lp469
I108854588
aI108855995
aS'-'
asS'ACTL7A'
p470
(lp471
I108862227
aI108863755
aS'+'
asS'KLF4'
p472
(lp473
I107484851
aI107489720
aS'-'
asS'STX17-AS1'
p474
(lp475
I99886317
aI99906601
aS'-'
asS'BRINP1'
p476
(lp477
I119166628
aI119369435
aS'-'
asS'FRG1HP'
p478
(lp479
I40992260
aI41039103
aS'+'
asS'HSD17B3'
p480
(lp481
I96235305
aI96302176
aS'-'
asS'PTPRD-AS1'
p482
(lp483
I8858017
aI8861727
aS'+'
asS'KLF9'
p484
(lp485
I70384596
aI70414657
aS'-'
asS'CBWD6'
p486
(lp487
I41131308
aI41189364
aS'-'
asS'CBWD5'
p488
(lp489
I65675833
aI65734041
aS'+'
asS'CBWD3'
p490
(lp491
I68241944
aI68300035
aS'+'
asS'TMEM215'
p492
(lp493
I32783498
aI32789201
aS'+'
asS'CBWD1'
p494
(lp495
I121037
aI179075
aS'-'
asS'DKFZP434A062'
p496
(lp497
I136322301
aI136327323
aS'-'
asS'LINC00092'
p498
(lp499
I96019731
aI96021811
aS'-'
asS'CREB3'
p500
(lp501
I35732319
aI35737008
aS'+'
asS'DDX11L5'
p502
(lp503
I11986
aI14525
aS'+'
asS'IGFBPL1'
p504
(lp505
I38406527
aI38424447
aS'-'
asS'CTSL3P'
p506
(lp507
I87772914
aI87786884
aS'+'
asS'LOC101929583'
p508
(lp509
I40499730
aI40566583
aS'+'
asS'FXN'
p510
(lp511
I69035562
aI69079077
aS'+'
asS'FPGS'
p512
(lp513
I127802857
aI127814081
aS'+'
asS'IL33'
p514
(lp515
I6215148
aI6257983
aS'+'
asS'ST6GALNAC6'
p516
(lp517
I127885320
aI127905348
aS'-'
asS'CRB2'
p518
(lp519
I123356196
aI123378753
aS'+'
asS'LOC403323'
p520
(lp521
I62857855
aI62898087
aS'-'
asS'CRAT'
p522
(lp523
I129094793
aI129110798
aS'-'
asS'CA9'
p524
(lp525
I35673917
aI35681157
aS'+'
asS'OR1J4'
p526
(lp527
I122519140
aI122520082
aS'+'
asS'CEL'
p528
(lp529
I133061977
aI133071863
aS'+'
asS'DNLZ'
p530
(lp531
I136361899
aI136363811
aS'-'
asS'BNC2'
p532
(lp533
I16409502
aI16870788
aS'-'
asS'SURF2'
p534
(lp535
I133356544
aI133361165
aS'+'
asS'MIR3152'
p536
(lp537
I18573305
aI18573379
aS'+'
asS'MIR3153'
p538
(lp539
I89312224
aI89312306
aS'+'
asS'BAAT'
p540
(lp541
I101360416
aI101385005
aS'-'
asS'LOC101929748'
p542
(lp543
I92805384
aI92808087
aS'-'
asS'GNA14-AS1'
p544
(lp545
I77447648
aI77526762
aS'+'
asS'OGN'
p546
(lp547
I92383270
aI92404699
aS'-'
asS'C9orf153'
p548
(lp549
I86220264
aI86259657
aS'-'
asS'C9orf152'
p550
(lp551
I110199565
aI110208133
aS'-'
asS'C9orf41-AS1'
p552
(lp553
I74952964
aI74997380
aS'+'
asS'ZNF462'
p554
(lp555
I106863096
aI107013634
aS'+'
asS'CDC37L1-DT'
p556
(lp557
I4676600
aI4679480
aS'-'
asS'C5-OT1'
p558
(lp559
I120942251
aI120952831
aS'-'
asS'SLC1A1'
p560
(lp561
I4490426
aI4587469
aS'+'
asS'GRHPR'
p562
(lp563
I37422709
aI37436989
aS'+'
asS'MIR31'
p564
(lp565
I21512114
aI21512185
aS'-'
asS'MIR32'
p566
(lp567
I109046228
aI109046298
aS'-'
asS'OLFM1'
p568
(lp569
I135075242
aI135121184
aS'+'
asS'SCARNA8'
p570
(lp571
I19063655
aI19063786
aS'-'
asS'MAN1B1'
p572
(lp573
I137086926
aI137109187
aS'+'
asS'IZUMO3'
p574
(lp575
I24543214
aI24545897
aS'-'
asS'REXO4'
p576
(lp577
I133406057
aI133418172
aS'-'
asS'ALAD'
p578
(lp579
I113386311
aI113401338
aS'-'
asS'TLN1'
p580
(lp581
I35697336
aI35732395
aS'-'
asS'LINC01410'
p582
(lp583
I62801464
aI62813486
aS'+'
asS'SHOC1'
p584
(lp585
I111686518
aI111795008
aS'-'
asS'CCDC183-AS1'
p586
(lp587
I136803926
aI136808848
aS'-'
asS'MAPKAP1'
p588
(lp589
I125437393
aI125707234
aS'-'
asS'LOC100272217'
p590
(lp591
I130577349
aI130579494
aS'-'
asS'ASB6'
p592
(lp593
I129634603
aI129642169
aS'-'
asS'FAM163B'
p594
(lp595
I133578414
aI133580246
aS'-'
asS'GSN-AS1'
p596
(lp597
I121280767
aI121285530
aS'-'
asS'GNG10'
p598
(lp599
I111661570
aI111670246
aS'+'
asS'RPSAP9'
p600
(lp601
I76398598
aI76400038
aS'+'
asS'LOC392364'
p602
(lp603
I87858042
aI87859056
aS'-'
asS'LOC107984035'
p604
(lp605
I41358861
aI41482101
aS'+'
asS'CTSV'
p606
(lp607
I97029676
aI97039643
aS'-'
asS'RNF208'
p608
(lp609
I137220246
aI137221323
aS'-'
asS'MIR147A'
p610
(lp611
I120244978
aI120245050
aS'-'
asS'MIR6877'
p612
(lp613
I133051995
aI133052059
aS'+'
asS'DMAC1'
p614
(lp615
I7796490
aI7799806
aS'-'
asS'SPIN1'
p616
(lp617
I88388381
aI88478707
aS'+'
asS'IFNA22P'
p618
(lp619
I21277687
aI21278563
aS'-'
asS'CDKN2B'
p620
(lp621
I22002902
aI22009313
aS'-'
asS'TYRP1'
p622
(lp623
I12693385
aI12710266
aS'+'
asS'CDKN2A'
p624
(lp625
I21967751
aI21995043
aS'-'
asS'MIR7150'
p626
(lp627
I123485528
aI123485622
aS'-'
asS'NRARP'
p628
(lp629
I137299630
aI137302251
aS'-'
asS'OR13C5'
p630
(lp631
I104598456
aI104599413
aS'-'
asS'LCNL1'
p632
(lp633
I136982992
aI136985758
aS'+'
asS'PTAR1'
p634
(lp635
I69709526
aI69760011
aS'-'
asS'STRBP'
p636
(lp637
I123121628
aI123268576
aS'-'
asS'UBE2R2'
p638
(lp639
I33817159
aI33920399
aS'+'
asS'ARRDC1'
p640
(lp641
I137605639
aI137615360
aS'+'
asS'FAM120AOS'
p642
(lp643
I93446493
aI93453601
aS'-'
asS'TESK1'
p644
(lp645
I35605283
aI35610041
aS'+'
asS'CENPP'
p646
(lp647
I92325467
aI92615155
aS'+'
asS'TMEM246-AS1'
p648
(lp649
I101468438
aI101481506
aS'+'
asS'LINC01251'
p650
(lp651
I33732974
aI33738416
aS'-'
asS'OR13C2'
p652
(lp653
I104604670
aI104605627
aS'-'
asS'SLC2A8'
p654
(lp655
I127397137
aI127407891
aS'+'
asS'PPP3R2'
p656
(lp657
I101591603
aI101594969
aS'-'
asS'SNORA17B'
p658
(lp659
I136726103
aI136726237
aS'-'
asS'SNORA17A'
p660
(lp661
I136726746
aI136726879
aS'-'
asS'RFX3'
p662
(lp663
I3218296
aI3526001
aS'-'
asS'LOC105376194'
p664
(lp665
I104270228
aI104286578
aS'+'
asS'LINC02603'
p666
(lp667
I94176569
aI94204566
aS'-'
asS'PTPRD-AS2'
p668
(lp669
I10613205
aI10620420
aS'+'
asS'LOC100129034'
p670
(lp671
I124353472
aI124359184
aS'+'
asS'LOC101929563'
p672
(lp673
I23500690
aI23672399
aS'-'
asS'MIR8081'
p674
(lp675
I106600927
aI106601022
aS'+'
asS'DMRT1'
p676
(lp677
I841689
aI969091
aS'+'
asS'DMRT2'
p678
(lp679
I1050345
aI1057554
aS'+'
asS'DMRT3'
p680
(lp681
I976967
aI991732
aS'+'
asS'WDR5'
p682
(lp683
I134136087
aI134159972
aS'+'
asS'VLDLR'
p684
(lp685
I2621773
aI2656103
aS'+'
asS'CAVIN4'
p686
(lp687
I100578078
aI100588387
aS'+'
asS'ALG2'
p688
(lp689
I99216424
aI99221964
aS'-'
asS'SPTAN1'
p690
(lp691
I128552557
aI128633665
aS'+'
asS'ARRDC1-AS1'
p692
(lp693
I137615331
aI137618895
aS'-'
asS'NMRK1'
p694
(lp695
I75060576
aI75088324
aS'-'
asS'OR13C9'
p696
(lp697
I104617247
aI104618204
aS'-'
asS'MIR4473'
p698
(lp699
I20411147
aI20411238
aS'-'
asS'MIR4476'
p700
(lp701
I36893461
aI36893531
aS'-'
asS'WHRN'
p702
(lp703
I114402079
aI114505456
aS'-'
asS'MIR4474'
p704
(lp705
I20502264
aI20502342
aS'-'
asS'MIR4475'
p706
(lp707
I36823538
aI36823599
aS'-'
asS'GAS2L1P2'
p708
(lp709
I97075670
aI97081945
aS'-'
asS'EXOSC3'
p710
(lp711
I37779713
aI37785092
aS'-'
asS'VPS13A-AS1'
p712
(lp713
I77176755
aI77177917
aS'-'
asS'MIR4668'
p714
(lp715
I111932099
aI111932169
aS'+'
asS'FAM189A2'
p716
(lp717
I69324571
aI69392474
aS'+'
asS'GLE1'
p718
(lp719
I128504691
aI128542301
aS'+'
asS'ADAMTSL2'
p720
(lp721
I133532163
aI133575519
aS'+'
asS'LOC101928775'
p722
(lp723
I115739669
aI115744239
aS'-'
asS'DDX58'
p724
(lp725
I32455301
aI32526324
aS'-'
asS'ADAMTSL1'
p726
(lp727
I18474152
aI18910949
aS'+'
asS'MIR4670'
p728
(lp729
I92527983
aI92528058
aS'-'
asS'MAN1B1-DT'
p730
(lp731
I137084945
aI137086817
aS'-'
asS'B3GNT10'
p732
(lp733
I120793495
aI120801728
aS'+'
asS'MIR4673'
p734
(lp735
I136519567
aI136519626
aS'-'
asS'INSL4'
p736
(lp737
I5231418
aI5233967
aS'+'
asS'INSL6'
p738
(lp739
I5163867
aI5185639
aS'-'
asS'TEX53'
p740
(lp741
I114656303
aI114657823
aS'-'
asS'LOC101927827'
p742
(lp743
I42579804
aI42586534
aS'-'
asS'LCN15'
p744
(lp745
I136759633
aI136764513
aS'-'
asS'TTC16'
p746
(lp747
I127716063
aI127731600
aS'+'
asS'CYSRT1'
p748
(lp749
I137225173
aI137226320
aS'+'
asS'LCN10'
p750
(lp751
I136738166
aI136742959
aS'-'
asS'FOCAD'
p752
(lp753
I20658308
aI20995955
aS'+'
asS'FAM129B'
p754
(lp755
I127505337
aI127579007
aS'-'
asS'B4GALT1-AS1'
p756
(lp757
I33166947
aI33179983
aS'+'
asS'SAPCD2'
p758
(lp759
I137062126
aI137070557
aS'-'
asS'SLC46A2'
p760
(lp761
I112878919
aI112890913
aS'-'
asS'MIR6722'
p762
(lp763
I136746892
aI136746970
aS'-'
asS'GXYLT1P3'
p764
(lp765
I40348498
aI40353658
aS'+'
asS'SNORA70C'
p766
(lp767
I117181065
aI117181201
aS'-'
asS'CFAP157'
p768
(lp769
I127706991
aI127714024
aS'+'
asS'PALM2'
p770
(lp771
I109640787
aI109951476
aS'+'
asS'C9orf40'
p772
(lp773
I74946582
aI74952886
aS'-'
asS'SLC24A2'
p774
(lp775
I19507451
aI19787019
aS'-'
asS'NUDT2'
p776
(lp777
I34329505
aI34343713
aS'+'
asS'C9orf43'
p778
(lp779
I113410643
aI113429684
aS'+'
asS'ZNF189'
p780
(lp781
I101398853
aI101410660
aS'+'
asS'C9orf47'
p782
(lp783
I88990862
aI88996142
aS'+'
asS'ASTN2'
p784
(lp785
I116423111
aI117415057
aS'-'
asS'SHB'
p786
(lp787
I37915897
aI38069213
aS'-'
asS'SET'
p788
(lp789
I128683654
aI128696396
aS'+'
asS'LOC101927450'
p790
(lp791
I79135422
aI79145666
aS'-'
asS'RFK'
p792
(lp793
I76385516
aI76394528
aS'-'
asS'LOC286297'
p794
(lp795
I65863791
aI65878507
aS'-'
asS'OBP2B'
p796
(lp797
I133205278
aI133209250
aS'-'
asS'LOC101928797'
p798
(lp799
I117648605
aI117657026
aS'+'
asS'HSD17B3-AS1'
p800
(lp801
I96246462
aI96250261
aS'+'
asS'LINC00950'
p802
(lp803
I35860273
aI35865518
aS'+'
asS'PRRX2'
p804
(lp805
I129665640
aI129722672
aS'+'
asS'HACD4'
p806
(lp807
I20999508
aI21031640
aS'-'
asS'RGP1'
p808
(lp809
I35749279
aI35753267
aS'+'
asS'FAM78A'
p810
(lp811
I131258077
aI131276510
aS'-'
asS'MIR1302-8'
p812
(lp813
I97363553
aI97363681
aS'-'
asS'MIR204'
p814
(lp815
I70809974
aI70810084
aS'-'
asS'SARDH'
p816
(lp817
I133663561
aI133739955
aS'-'
asS'LOC101927623'
p818
(lp819
I86127539
aI86157072
aS'+'
asS'CNTNAP3P2'
p820
(lp821
I67059459
aI67297156
aS'+'
asS'GAS1'
p822
(lp823
I86944361
aI86947506
aS'-'
asS'MIR4477A'
p824
(lp825
I41233754
aI41233835
aS'+'
asS'OR1J2'
p826
(lp827
I122510801
aI122511743
aS'+'
asS'OR1J1'
p828
(lp829
I122476957
aI122477926
aS'-'
asS'OBP2A'
p830
(lp831
I135546138
aI135549969
aS'+'
asS'TMC1'
p832
(lp833
I72521800
aI72836351
aS'+'
asS'CD72'
p834
(lp835
I35609978
aI35618427
aS'-'
asS'OR13D1'
p836
(lp837
I104694421
aI104695462
aS'+'
asS'FAM95C'
p838
(lp839
I38540566
aI38545372
aS'-'
asS'FOXE1'
p840
(lp841
I97853254
aI97856715
aS'+'
asS'TEX10'
p842
(lp843
I100302074
aI100352977
aS'-'
asS'CDKN2B-AS1'
p844
(lp845
I21994790
aI22121094
aS'+'
asS'CERCAM'
p846
(lp847
I128419159
aI128437351
aS'+'
asS'STXBP1'
p848
(lp849
I127612206
aI127692716
aS'+'
asS'CYLC2'
p850
(lp851
I102995310
aI103018488
aS'+'
asS'KIF12'
p852
(lp853
I114091637
aI114099057
aS'-'
asS'NOTCH1'
p854
(lp855
I136494432
aI136546048
aS'-'
asS'NPDC1'
p856
(lp857
I137039456
aI137046224
aS'-'
asS'SPOUT1'
p858
(lp859
I128819650
aI128829821
aS'-'
asS'SNORD62A'
p860
(lp861
I131485664
aI131485750
aS'+'
asS'PTPA'
p862
(lp863
I129110948
aI129148946
aS'+'
asS'ST6GALNAC4'
p864
(lp865
I127907885
aI127917026
aS'-'
asS'TNFSF15'
p866
(lp867
I114784634
aI114806128
aS'-'
asS'FAM157B'
p868
(lp869
I138216855
aI138272073
aS'+'
asS'S1PR3'
p870
(lp871
I88991408
aI89005154
aS'+'
asS'MIR3910-1'
p872
(lp873
I91636250
aI91636361
aS'+'
asS'EXOSC2'
p874
(lp875
I130693759
aI130704894
aS'+'
asS'KIAA1958'
p876
(lp877
I112486967
aI112665311
aS'+'
asS'TPM2'
p878
(lp879
I35681992
aI35690056
aS'-'
asS'DNAJB5'
p880
(lp881
I34989640
aI34998433
aS'+'
asS'FANCG'
p882
(lp883
I35073837
aI35080016
aS'-'
asS'MIR181A2'
p884
(lp885
I124692441
aI124692551
aS'+'
asS'TNFSF8'
p886
(lp887
I114893342
aI114930595
aS'-'
asS'FANCC'
p888
(lp889
I95099053
aI95317709
aS'-'
asS'C9orf129'
p890
(lp891
I93318198
aI93346414
aS'-'
asS'USP20'
p892
(lp893
I129835416
aI129881838
aS'+'
asS'LOC101927954'
p894
(lp895
I93008114
aI93014944
aS'-'
asS'FOXB2'
p896
(lp897
I77019654
aI77020953
aS'+'
asS'RANBP6'
p898
(lp899
I6011018
aI6015640
aS'-'
asS'TMEM210'
p900
(lp901
I137170927
aI137172046
aS'-'
asS'RAB14'
p902
(lp903
I121178132
aI121201869
aS'-'
asS'NRON'
p904
(lp905
I126407774
aI126410504
aS'-'
asS'LOC101928523'
p906
(lp907
I103999708
aI104000482
aS'+'
asS'MIR24-1'
p908
(lp909
I95086020
aI95086088
aS'+'
asS'MED22'
p910
(lp911
I133340900
aI133348156
aS'-'
asS'OR2K2'
p912
(lp913
I111327482
aI111328433
aS'-'
asS'FGD3'
p914
(lp915
I92947318
aI93036236
aS'+'
asS'PLPP6'
p916
(lp917
I4662293
aI4665272
aS'+'
asS'CKS2'
p918
(lp919
I89311194
aI89316703
aS'+'
asS'LOC494127'
p920
(lp921
I87083885
aI87085225
aS'-'
asS'RCL1'
p922
(lp923
I4792833
aI4861077
aS'+'
asS'IER5L'
p924
(lp925
I129175551
aI129178261
aS'-'
asS'COL5A1'
p926
(lp927
I134641804
aI134844842
aS'+'
asS'TMEM141'
p928
(lp929
I136791343
aI136793317
aS'+'
asS'NEK6'
p930
(lp931
I124257605
aI124352440
aS'+'
asS'FBXW2'
p932
(lp933
I120756975
aI120793462
aS'-'
asS'UHRF2'
p934
(lp935
I6413150
aI6507051
aS'+'
asS'TJP2'
p936
(lp937
I69121263
aI69255208
aS'+'
asS'PPP1R26-AS1'
p938
(lp939
I135462718
aI135472249
aS'-'
asS'LOC100506100'
p940
(lp941
I128724461
aI128733243
aS'+'
asS'C9orf72'
p942
(lp943
I27546545
aI27573866
aS'-'
asS'LOC651337'
p944
(lp945
I137784072
aI137788406
aS'-'
asS'XLOC_007697'
p946
(lp947
I42788399
aI42789608
aS'+'
asS'PIP5K1B'
p948
(lp949
I68705413
aI69009176
aS'+'
asS'LOC101448202'
p950
(lp951
I134819414
aI134872618
aS'-'
asS'LOC100128361'
p952
(lp953
I92618049
aI92620534
aS'+'
asS'FBXW5'
p954
(lp955
I136940434
aI136944738
aS'-'
asS'DAPK1-IT1'
p956
(lp957
I87553453
aI87554448
aS'+'
asS'ZFP37'
p958
(lp959
I113041814
aI113056791
aS'-'
asS'LINC02247'
p960
(lp961
I134293930
aI134295397
aS'-'
asS'GKAP1'
p962
(lp963
I83739420
aI83817837
aS'-'
asS'CDK9'
p964
(lp965
I127786025
aI127790773
aS'+'
asS'LOC102724156'
p966
(lp967
I88066435
aI88077900
aS'-'
asS'LPAR1'
p968
(lp969
I110873251
aI111039259
aS'-'
asS'MRPL41'
p970
(lp971
I137551856
aI137552555
aS'+'
asS'LCN6'
p972
(lp973
I136744017
aI136748528
aS'-'
asS'LCN1'
p974
(lp975
I135521437
aI135526540
aS'+'
asS'LOC101928932'
p976
(lp977
I138199934
aI138203453
aS'-'
asS'BARX1-DT'
p978
(lp979
I93955833
aI93957922
aS'+'
asS'LOC100133077'
p980
(lp981
I137867924
aI137892570
aS'-'
asS'RABGAP1'
p982
(lp983
I122941008
aI123104868
aS'+'
asS'GTF3C4'
p984
(lp985
I132670034
aI132694955
aS'+'
asS'DBH'
p986
(lp987
I133636362
aI133659344
aS'+'
asS'TGFBR1'
p988
(lp989
I99105088
aI99154191
aS'+'
asS'GLIDR'
p990
(lp991
I39803495
aI39810159
aS'-'
asS'PRSS3'
p992
(lp993
I33750465
aI33799231
aS'+'
asS'MEGF9'
p994
(lp995
I120600810
aI120714470
aS'-'
asS'LOC105376271'
p996
(lp997
I125199532
aI125200396
aS'-'
asS'RNF38'
p998
(lp999
I36336400
aI36401198
aS'-'
asS'NSMF'
p1000
(lp1001
I137447570
aI137459334
aS'-'
asS'RABL6'
p1002
(lp1003
I136807921
aI136841187
aS'+'
asS'SMARCA2'
p1004
(lp1005
I2015218
aI2193623
aS'+'
asS'SPATA31A3'
p1006
(lp1007
I66986303
aI66992550
aS'-'
asS'FAM219A'
p1008
(lp1009
I34398183
aI34458570
aS'-'
asS'RALGDS'
p1010
(lp1011
I133097719
aI133149220
aS'-'
asS'LOC440173'
p1012
(lp1013
I87008450
aI87042126
aS'-'
asS'LOC100128593'
p1014
(lp1015
I136746160
aI136749911
aS'+'
asS'XPA'
p1016
(lp1017
I97674908
aI97697409
aS'-'
asS'MIR6855'
p1018
(lp1019
I129869604
aI129869671
aS'+'
asS'RFX3-AS1'
p1020
(lp1021
I3668085
aI3691756
aS'+'
asS'LOC100505588'
p1022
(lp1023
I124006276
aI124009396
aS'-'
asS'KDM4C'
p1024
(lp1025
I6757349
aI7175648
aS'+'
asS'C9orf135-DT'
p1026
(lp1027
I69819404
aI69820739
aS'-'
asS'SPACA9'
p1028
(lp1029
I132878319
aI132890032
aS'+'
asS'TOR1A'
p1030
(lp1031
I129812941
aI129824162
aS'-'
asS'LOC101928786'
p1032
(lp1033
I138040502
aI138045071
aS'-'
asS'PAXX'
p1034
(lp1035
I136992417
aI136993988
aS'+'
asS'TOR1B'
p1036
(lp1037
I129803142
aI129811289
aS'+'
asS'NANS'
p1038
(lp1039
I98056731
aI98083077
aS'+'
asS'GGTA1P'
p1040
(lp1041
I121455040
aI121500027
aS'-'
asS'SECISBP2'
p1042
(lp1043
I89318472
aI89359663
aS'+'
asS'MIR873'
p1044
(lp1045
I28888878
aI28888955
aS'-'
asS'CARD19'
p1046
(lp1047
I93096122
aI93113295
aS'+'
asS'MIR876'
p1048
(lp1049
I28863625
aI28863706
aS'-'
asS'ZBTB5'
p1050
(lp1051
I37438102
aI37465410
aS'-'
asS'SSNA1'
p1052
(lp1053
I137188601
aI137190370
aS'+'
asS'DAB2IP'
p1054
(lp1055
I121567101
aI121785530
aS'+'
asS'TMEM246'
p1056
(lp1057
I101473157
aI101487221
aS'-'
asS'KANK1'
p1058
(lp1059
I470290
aI746106
aS'+'
asS'ENDOG'
p1060
(lp1061
I128818499
aI128822676
aS'+'
asS'VCP'
p1062
(lp1063
I35056065
aI35072742
aS'-'
asS'SPATA31D4'
p1064
(lp1065
I81928427
aI81934998
aS'+'
asS'SPATA31D3'
p1066
(lp1067
I81943499
aI81950094
aS'+'
asS'SPATA31D1'
p1068
(lp1069
I81988771
aI81995256
aS'+'
asS'LOC105376114'
p1070
(lp1071
I83707834
aI83713493
aS'+'
asS'PDCD1LG2'
p1072
(lp1073
I5510544
aI5571282
aS'+'
asS'AGTPBP1'
p1074
(lp1075
I85546538
aI85742029
aS'-'
asS'PBX3'
p1076
(lp1077
I125747337
aI125967376
aS'+'
asS'PGM5P3-AS1'
p1078
(lp1079
I72689
aI88826
aS'+'
asS'FAM205BP'
p1080
(lp1081
I34830266
aI34838586
aS'-'
asS'MIR3154'
p1082
(lp1083
I128244946
aI128245030
aS'-'
asS'MIR181A2HG'
p1084
(lp1085
I124658435
aI124698628
aS'+'
asS'DPH7'
p1086
(lp1087
I137554443
aI137578935
aS'-'
asS'PAPPA-AS1'
p1088
(lp1089
I116398157
aI116400606
aS'-'
asS'MSMP'
p1090
(lp1091
I35752990
aI35754277
aS'-'
asS'FAM225B'
p1092
(lp1093
I113104722
aI113111677
aS'-'
asS'DEC1'
p1094
(lp1095
I115141817
aI115402644
aS'+'
asS'MIR602'
p1096
(lp1097
I137838418
aI137838516
aS'+'
asS'MIR199B'
p1098
(lp1099
I128244720
aI128244830
aS'-'
asS'LOC105379450'
p1100
(lp1101
I67006924
aI67009022
aS'-'
asS'ZNF658'
p1102
(lp1103
I66903360
aI66932141
aS'+'
asS'CNTRL'
p1104
(lp1105
I121088295
aI121177608
aS'+'
asS'PTCH1'
p1106
(lp1107
I95442979
aI95517057
aS'-'
asS'MIR2861'
p1108
(lp1109
I127785917
aI127786007
aS'+'
asS'MUSK'
p1110
(lp1111
I110668770
aI110800998
aS'+'
asS'DOLK'
p1112
(lp1113
I128945529
aI128947733
aS'-'
asS'FKBP15'
p1114
(lp1115
I113165519
aI113221361
aS'-'
asS'LOC554249'
p1116
(lp1117
I39873856
aI39875395
aS'+'
asS'NDUFB6'
p1118
(lp1119
I32553525
aI32573184
aS'-'
asS'FBXO10'
p1120
(lp1121
I37510891
aI37576253
aS'-'
asS'EPB41L4B'
p1122
(lp1123
I109171973
aI109320964
aS'-'
asS'PTGS1'
p1124
(lp1125
I122370529
aI122395703
aS'+'
asS'TXNDC8'
p1126
(lp1127
I110303477
aI110337863
aS'-'
asS'LURAP1L'
p1128
(lp1129
I12775019
aI12823060
aS'+'
asS'RAPGEF1'
p1130
(lp1131
I131576769
aI131739944
aS'-'
asS'RLN2'
p1132
(lp1133
I5299865
aI5304611
aS'-'
asS'C9orf78'
p1134
(lp1135
I129827284
aI129835293
aS'-'
asS'LOC158434'
p1136
(lp1137
I96106660
aI96116411
aS'-'
asS'LOC158435'
p1138
(lp1139
I96065838
aI96101912
aS'+'
asS'PTENP1'
p1140
(lp1141
I33673503
aI33677420
aS'-'
asS'SEC61B'
p1142
(lp1143
I99222287
aI99230619
aS'+'
asS'TUSC1'
p1144
(lp1145
I25676388
aI25678858
aS'-'
asS'EQTN'
p1146
(lp1147
I27284655
aI27297139
aS'-'
asS'TOMM5'
p1148
(lp1149
I37588414
aI37592639
aS'-'
asS'LINGO2'
p1150
(lp1151
I27937620
aI29213967
aS'-'
asS'GAS1RR'
p1152
(lp1153
I86948697
aI87002033
aS'+'
asS'MIR1299'
p1154
(lp1155
I40929009
aI40929092
aS'-'
asS'C9orf163'
p1156
(lp1157
I136483494
aI136486067
aS'+'
asS'TRUB2'
p1158
(lp1159
I128309099
aI128322780
aS'-'
asS'RORB'
p1160
(lp1161
I74497335
aI74687201
aS'+'
asS'GADD45G'
p1162
(lp1163
I89605011
aI89606554
aS'+'
asS'LOC100132077'
p1164
(lp1165
I94332475
aI94360948
aS'+'
asS'INIP'
p1166
(lp1167
I112683948
aI112718149
aS'-'
asS'NUP214'
p1168
(lp1169
I131125560
aI131234670
aS'+'
asS'C9orf85'
p1170
(lp1171
I71911638
aI71986067
aS'+'
asS'CDKN2A-DT'
p1172
(lp1173
I21967138
aI21967754
aS'+'
asS'LOC101928195'
p1174
(lp1175
I63064490
aI63125869
aS'-'
asS'MFSD14C'
p1176
(lp1177
I96942912
aI97013682
aS'-'
asS'TUT7'
p1178
(lp1179
I86287732
aI86354487
aS'-'
asS'PRRT1B'
p1180
(lp1181
I131545522
aI131559199
aS'+'
asS'AQP7'
p1182
(lp1183
I33384949
aI33402682
aS'-'
asS'IARS'
p1184
(lp1185
I92210208
aI92293756
aS'-'
asS'CTSL'
p1186
(lp1187
I87726058
aI87731469
aS'+'
asS'AQP3'
p1188
(lp1189
I33441153
aI33447633
aS'-'
asS'LOC101927358'
p1190
(lp1191
I74371530
aI74383530
aS'+'
asS'SHC3'
p1192
(lp1193
I89005770
aI89178767
aS'-'
asS'WNK2'
p1194
(lp1195
I93184929
aI93320572
aS'+'
asS'INPP5E'
p1196
(lp1197
I136428618
aI136439845
aS'-'
asS'UNQ6494'
p1198
(lp1199
I89639782
aI89719759
aS'+'
asS'SH3GLB2'
p1200
(lp1201
I129007792
aI129028353
aS'-'
asS'CFAP77'
p1202
(lp1203
I132410195
aI132573319
aS'+'
asS'SURF1'
p1204
(lp1205
I133351804
aI133356485
aS'-'
asS'NDOR1'
p1206
(lp1207
I137205666
aI137219361
aS'+'
asS'LOC100506422'
p1208
(lp1209
I26066674
aI26118408
aS'+'
asS'KYAT1'
p1210
(lp1211
I128833112
aI128882523
aS'-'
asS'EGFL7'
p1212
(lp1213
I136658855
aI136672678
aS'+'
asS'SPAAR'
p1214
(lp1215
I35909489
aI35911621
aS'+'
asS'ROR2'
p1216
(lp1217
I91722600
aI91950228
aS'-'
asS'TRMO'
p1218
(lp1219
I97904488
aI97922570
aS'-'
asS'BRD3'
p1220
(lp1221
I134030323
aI134068019
aS'-'
asS'MORN5'
p1222
(lp1223
I122159907
aI122200088
aS'+'
asS'LOC105375972'
p1224
(lp1225
I9799391
aI9803787
aS'+'
asS'DNAJA1'
p1226
(lp1227
I33025202
aI33039907
aS'+'
asS'MRRF'
p1228
(lp1229
I122264602
aI122325315
aS'+'
asS'EDF1'
p1230
(lp1231
I136862113
aI136866336
aS'-'
asS'SYK'
p1232
(lp1233
I90801679
aI90898560
aS'+'
asS'KIF24'
p1234
(lp1235
I34252379
aI34329249
aS'-'
asS'KIF27'
p1236
(lp1237
I83834101
aI83921544
aS'-'
asS'OMD'
p1238
(lp1239
I92414244
aI92424554
aS'-'
asS'MIR3960'
p1240
(lp1241
I127785832
aI127785923
aS'+'
asS'RNF183'
p1242
(lp1243
I113297092
aI113299040
aS'-'
asS'CCDC187'
p1244
(lp1245
I136280941
aI136306901
aS'-'
asS'LOC103908605'
p1246
(lp1247
I42567858
aI42569349
aS'-'
asS'LOC103908604'
p1248
(lp1249
I62532561
aI62542812
aS'+'
asS'FREM1'
p1250
(lp1251
I14734665
aI14910995
aS'-'
asS'ZNF79'
p1252
(lp1253
I127424373
aI127445372
aS'+'
asS'TMEM268'
p1254
(lp1255
I114611290
aI114646418
aS'+'
asS'CCL19'
p1256
(lp1257
I34689569
aI34691277
aS'-'
asS'FGF7P3'
p1258
(lp1259
I39813783
aI39874566
aS'-'
asS'TRPM3'
p1260
(lp1261
I70529060
aI71446971
aS'-'
asS'FGF7P6'
p1262
(lp1263
I62376255
aI62435519
aS'+'
asS'KCNV2'
p1264
(lp1265
I2717525
aI2730037
aS'+'
asS'MSANTD3'
p1266
(lp1267
I100427212
aI100451734
aS'+'
asS'DOCK8'
p1268
(lp1269
I214864
aI465259
aS'+'
asS'AKNA'
p1270
(lp1271
I114336126
aI114394405
aS'-'
asS'IFNA7'
p1272
(lp1273
I21201468
aI21202205
aS'-'
asS'DNAJC25'
p1274
(lp1275
I111631351
aI111654351
aS'+'
asS'FUBP3'
p1276
(lp1277
I130579572
aI130638352
aS'+'
asS'MIR3911'
p1278
(lp1279
I127690686
aI127690795
aS'-'
asS'MED27'
p1280
(lp1281
I131860109
aI132079887
aS'-'
asS'STOML2'
p1282
(lp1283
I35099775
aI35103195
aS'-'
asS'HABP4'
p1284
(lp1285
I96450154
aI96491336
aS'+'
asS'SLC31A1'
p1286
(lp1287
I113221527
aI113264492
aS'+'
asS'SLC31A2'
p1288
(lp1289
I113150957
aI113164142
aS'+'
asS'SMU1'
p1290
(lp1291
I33041851
aI33076716
aS'-'
asS'SNORA84'
p1292
(lp1293
I92292460
aI92292593
aS'-'
asS'GPRACR'
p1294
(lp1295
I130140609
aI130144219
aS'-'
asS'MIR31HG'
p1296
(lp1297
I21454267
aI21559798
aS'-'
asS'SEC16A'
p1298
(lp1299
I136440095
aI136483759
aS'-'
asS'OR13J1'
p1300
(lp1301
I35869462
aI35870401
aS'-'
asS'LINC01241'
p1302
(lp1303
I25780055
aI25812968
aS'+'
asS'LINC01242'
p1304
(lp1305
I30388934
aI30408454
aS'-'
asS'LINC01243'
p1306
(lp1307
I31371610
aI31381490
aS'-'
asS'RMI1'
p1308
(lp1309
I83980358
aI84004072
aS'+'
asS'GLDC'
p1310
(lp1311
I6532463
aI6645692
aS'-'
asS'GLIS3-AS1'
p1312
(lp1313
I3898645
aI3901248
aS'+'
asS'TPRN'
p1314
(lp1315
I137191616
aI137200711
aS'-'
asS'CARD9'
p1316
(lp1317
I136363955
aI136373681
aS'-'
asS'PNPLA7'
p1318
(lp1319
I137459951
aI137550569
aS'-'
asS'B4GALT1'
p1320
(lp1321
I33110640
aI33167358
aS'-'
asS'MIR126'
p1322
(lp1323
I136670601
aI136670686
aS'+'
asS'TRPM6'
p1324
(lp1325
I74722494
aI74888094
aS'-'
asS'ASPN'
p1326
(lp1327
I92456206
aI92482506
aS'-'
asS'SNORD36A'
p1328
(lp1329
I133350455
aI133350527
aS'+'
asS'SURF4'
p1330
(lp1331
I133361448
aI133377949
aS'-'
asS'OR1B1'
p1332
(lp1333
I122628578
aI122629535
aS'-'
asS'PTCSC2'
p1334
(lp1335
I97699624
aI97853080
aS'-'
asS'FCN2'
p1336
(lp1337
I134880811
aI134887520
aS'+'
asS'FCN1'
p1338
(lp1339
I134903235
aI134918003
aS'-'
asS'DNAJC25-GNG10'
p1340
(lp1341
I111631351
aI111670246
aS'+'
asS'RALGPS1'
p1342
(lp1343
I126914773
aI127223166
aS'+'
asS'PTPDC1'
p1344
(lp1345
I94030793
aI94109856
aS'+'
asS'ARHGEF39'
p1346
(lp1347
I35659343
aI35665281
aS'-'
asS'PAX5'
p1348
(lp1349
I36833274
aI37034479
aS'-'
asS'RPP25L'
p1350
(lp1351
I34610484
aI34612113
aS'-'
asS'TBC1D13'
p1352
(lp1353
I128787206
aI128810432
aS'+'
asS'PTPN3'
p1354
(lp1355
I109375693
aI109498313
aS'-'
asS'LAMC3'
p1356
(lp1357
I131009116
aI131093059
aS'+'
asS'CORO2A'
p1358
(lp1359
I98120974
aI98192674
aS'-'
asS'APTX'
p1360
(lp1361
I32972605
aI33001641
aS'-'
asS'FRMD3'
p1362
(lp1363
I83242989
aI83538433
aS'-'
asS'HEMGN'
p1364
(lp1365
I97926790
aI97944915
aS'-'
asS'TOR4A'
p1366
(lp1367
I137277827
aI137282641
aS'+'
asS'CAAP1'
p1368
(lp1369
I26840684
aI26892828
aS'-'
asS'ANKRD19P'
p1370
(lp1371
I92809610
aI92838457
aS'+'
asS'ZNF618'
p1372
(lp1373
I113876281
aI114056595
aS'+'
asS'CDC14B'
p1374
(lp1375
I96500107
aI96619830
aS'-'
asS'LINC01231'
p1376
(lp1377
I3181588
aI3200500
aS'+'
asS'LINC01230'
p1378
(lp1379
I1048142
aI1048640
aS'+'
asS'LINC01235'
p1380
(lp1381
I13406379
aI13431329
aS'-'
asS'ATP6V1G1'
p1382
(lp1383
I114587713
aI114598872
aS'+'
asS'LINC01239'
p1384
(lp1385
I22646199
aI22824213
aS'+'
asS'PRR31'
p1386
(lp1387
I136969411
aI136972884
aS'+'
asS'SPATA6L'
p1388
(lp1389
I4588820
aI4666449
aS'-'
asS'NXNL2'
p1390
(lp1391
I88535100
aI88575789
aS'+'
asS'PHF2'
p1392
(lp1393
I93576626
aI93679587
aS'+'
asS'ORM2'
p1394
(lp1395
I114329788
aI114333256
aS'+'
asS'GPR107'
p1396
(lp1397
I130053705
aI130140169
aS'+'
asS'BAG1'
p1398
(lp1399
I33252470
aI33264761
aS'-'
asS'OR1L8'
p1400
(lp1401
I122567547
aI122568477
aS'-'
asS'MIR7-1'
p1402
(lp1403
I83969747
aI83969857
aS'-'
asS'OR1L4'
p1404
(lp1405
I122723989
aI122724925
aS'+'
asS'OR1L6'
p1406
(lp1407
I122749847
aI122750783
aS'+'
asS'OR1L1'
p1408
(lp1409
I122661715
aI122662648
aS'+'
asS'LOC100128076'
p1410
(lp1411
I92132833
aI92138629
aS'+'
asS'OR1L3'
p1412
(lp1413
I122675129
aI122676104
aS'+'
asS'NALT1'
p1414
(lp1415
I136547841
aI136549744
aS'+'
asS'MOB3B'
p1416
(lp1417
I27325208
aI27529852
aS'-'
asS'RPS6'
p1418
(lp1419
I19376255
aI19380237
aS'-'
asS'ADAMTS13'
p1420
(lp1421
I133414338
aI133459403
aS'+'
asS'SNORD36B'
p1422
(lp1423
I133350093
aI133350164
aS'+'
asS'PHF24'
p1424
(lp1425
I34957486
aI34982544
aS'+'
asS'SPATA31C2'
p1426
(lp1427
I88129304
aI88138481
aS'-'
asS'CHMP5'
p1428
(lp1429
I33264878
aI33282069
aS'+'
asS'SH3GL2'
p1430
(lp1431
I17578953
aI17797128
aS'+'
asS'EHMT1'
p1432
(lp1433
I137618991
aI137836126
aS'+'
asS'LOC101928525'
p1434
(lp1435
I135503272
aI135506447
aS'-'
asS'TMEM38B'
p1436
(lp1437
I105694540
aI105776629
aS'+'
asS'ZNF782'
p1438
(lp1439
I96816270
aI96854488
aS'-'
asS'LOC102724238'
p1440
(lp1441
I39873852
aI39876242
aS'+'
asS'LCN2'
p1442
(lp1443
I128149429
aI128153455
aS'+'
asS'ZER1'
p1444
(lp1445
I128729787
aI128771934
aS'-'
asS'GOLGA2'
p1446
(lp1447
I128255828
aI128275952
aS'-'
asS'IFNB1'
p1448
(lp1449
I21077104
aI21077963
aS'-'
asS'ZBTB26'
p1450
(lp1451
I122918028
aI122931551
aS'-'
asS'TMEM203'
p1452
(lp1453
I137204082
aI137205648
aS'-'
asS'LOC101926948'
p1454
(lp1455
I35646269
aI35647475
aS'+'
asS'TRIM14'
p1456
(lp1457
I98084352
aI98119353
aS'-'
asS'LOC105376306'
p1458
(lp1459
I133028151
aI133030422
aS'-'
asS'OR1K1'
p1460
(lp1461
I122800122
aI122801073
aS'+'
asS'LOC440896'
p1462
(lp1463
I41100966
aI41124814
aS'-'
asS'SNORA65'
p1464
(lp1465
I127448501
aI127448637
aS'-'
asS'MIR4478'
p1466
(lp1467
I122120081
aI122120167
aS'-'
asS'C5'
p1468
(lp1469
I120952335
aI121075174
aS'-'
asS'LOC101927847'
p1470
(lp1471
I89969415
aI89987486
aS'+'
asS'GALT'
p1472
(lp1473
I34646588
aI34650598
aS'+'
asS'BSPRY'
p1474
(lp1475
I113349531
aI113371233
aS'+'
asS'TAL2'
p1476
(lp1477
I105662456
aI105663104
aS'+'
asS'BRD3OS'
p1478
(lp1479
I134025475
aI134030460
aS'+'
asS'LCN9'
p1480
(lp1481
I135663321
aI135665909
aS'+'
asS'FOXD4'
p1482
(lp1483
I116230
aI118417
aS'-'
asS'NINJ1'
p1484
(lp1485
I93121488
aI93134288
aS'-'
asS'ABCA2'
p1486
(lp1487
I137007233
aI137028922
aS'-'
asS'RABEPK'
p1488
(lp1489
I125200541
aI125234159
aS'+'
asS'NDUFA8'
p1490
(lp1491
I122132465
aI122159819
aS'-'
asS'PHF19'
p1492
(lp1493
I120855650
aI120894896
aS'-'
asS'LOC105379807'
p1494
(lp1495
I61861563
aI61862615
aS'-'
asS'UAP1L1'
p1496
(lp1497
I137077500
aI137084538
aS'+'
asS'TPD52L3'
p1498
(lp1499
I6328348
aI6331900
aS'+'
asS'MVB12B'
p1500
(lp1501
I126326843
aI126507041
aS'+'
asS'LOC730098'
p1502
(lp1503
I34664162
aI34666056
aS'-'
asS'MIR27B'
p1504
(lp1505
I95085444
aI95085541
aS'+'
asS'GNAQ'
p1506
(lp1507
I77716273
aI78031449
aS'-'
asS'NAMA'
p1508
(lp1509
I99355339
aI99375257
aS'-'
asS'AIF1L'
p1510
(lp1511
I131096475
aI131123152
aS'+'
asS'GALNT12'
p1512
(lp1513
I98807669
aI98850081
aS'+'
asS'LOC100132781'
p1514
(lp1515
I96868899
aI96872228
aS'+'
asS'ARPC5L'
p1516
(lp1517
I124862117
aI124877733
aS'+'
asS'RUSC2'
p1518
(lp1519
I35489832
aI35561898
aS'+'
asS'PPP1R26'
p1520
(lp1521
I135479781
aI135488892
aS'+'
asS'C9orf135'
p1522
(lp1523
I69820804
aI69906235
aS'+'
asS'LINC00475'
p1524
(lp1525
I92141466
aI92159608
aS'+'
asS'LINC00476'
p1526
(lp1527
I95806087
aI95875977
aS'-'
asS'CD274'
p1528
(lp1529
I5450502
aI5470567
aS'+'
asS'C9orf139'
p1530
(lp1531
I137027463
aI137036782
aS'+'
asS'SLC35D2'
p1532
(lp1533
I96313436
aI96383710
aS'-'
asS'SIGMAR1'
p1534
(lp1535
I34634721
aI34637826
aS'-'
asS'SNORD141A'
p1536
(lp1537
I133020429
aI133020534
aS'+'
asS'GPSM1'
p1538
(lp1539
I136327475
aI136359605
aS'+'
asS'SCAI'
p1540
(lp1541
I124942608
aI125143559
aS'-'
asS'ECPAS'
p1542
(lp1543
I111360684
aI111484383
aS'-'
asS'SUGT1P4-STRA6LP'
p1544
(lp1545
I97238425
aI97297314
aS'+'
asS'STKLD1'
p1546
(lp1547
I133376412
aI133406096
aS'+'
asS'LOC100130548'
p1548
(lp1549
I134054289
aI134058805
aS'+'
asS'ECM2'
p1550
(lp1551
I92493546
aI92536092
aS'-'
asS'TTF1'
p1552
(lp1553
I132375548
aI132406851
aS'-'
asS'LRRC26'
p1554
(lp1555
I137168758
aI137170039
aS'-'
asS'ZMYND19'
p1556
(lp1557
I137582080
aI137590512
aS'-'
asS'ERMP1'
p1558
(lp1559
I5784571
aI5833081
aS'-'
asS'CDK20'
p1560
(lp1561
I87966443
aI87974780
aS'-'
asS'GNE'
p1562
(lp1563
I36214440
aI36277056
aS'-'
asS'NOXA1'
p1564
(lp1565
I137423394
aI137434406
aS'+'
asS'LOC613206'
p1566
(lp1567
I124259209
aI124261168
aS'-'
asS'ALDH1A1'
p1568
(lp1569
I72900661
aI72953317
aS'-'
asS'ENTPD2'
p1570
(lp1571
I137048106
aI137054061
aS'-'
asS'CDC37L1'
p1572
(lp1573
I4679552
aI4708398
aS'+'
asS'BANCR'
p1574
(lp1575
I69296680
aI69307056
aS'-'
asS'LINC01474'
p1576
(lp1577
I72871728
aI72874109
aS'-'
asS'GCNT1'
p1578
(lp1579
I76441665
aI76507416
aS'+'
asS'MELK'
p1580
(lp1581
I36572861
aI36677683
aS'+'
asS'SMC2-AS1'
p1582
(lp1583
I104080023
aI104092474
aS'-'
asS'AMBP'
p1584
(lp1585
I114060127
aI114078472
aS'-'
asS'LOC642943'
p1586
(lp1587
I92882566
aI92889555
aS'+'
asS'RNU6ATAC'
p1588
(lp1589
I134164439
aI134164564
aS'-'
asS'MLLT3'
p1590
(lp1591
I20341664
aI20622543
aS'-'
asS'NUP188'
p1592
(lp1593
I128947692
aI129007096
aS'+'
asS'NUTM2G'
p1594
(lp1595
I96929003
aI96942290
aS'+'
asS'LOC101928748'
p1596
(lp1597
I115119538
aI115138409
aS'-'
asS'CNTNAP3B'
p1598
(lp1599
I41891889
aI42129504
aS'-'
asS'LOC100132249'
p1600
(lp1601
I62834247
aI62838346
aS'-'
asS'RGS3'
p1602
(lp1603
I113444728
aI113597743
aS'+'
asS'MIR4291'
p1604
(lp1605
I93819356
aI93819421
aS'+'
asS'SPINK4'
p1606
(lp1607
I33240166
aI33248567
aS'+'
asS'ZCCHC7'
p1608
(lp1609
I37120471
aI37358148
aS'+'
asS'SLC2A6'
p1610
(lp1611
I133471093
aI133479154
aS'-'
asS'DPP7'
p1612
(lp1613
I137110539
aI137114743
aS'-'
asS'ANXA1'
p1614
(lp1615
I73151730
aI73170394
aS'+'
asS'SLC44A1'
p1616
(lp1617
I105244604
aI105438515
aS'+'
asS'LOC286359'
p1618
(lp1619
I97390836
aI97396691
aS'-'
asS'TXN'
p1620
(lp1621
I110243811
aI110256640
aS'-'
asS'MIR7114'
p1622
(lp1623
I137450025
aI137450086
aS'-'
asS'PKN3'
p1624
(lp1625
I128702503
aI128720920
aS'+'
asS'CDC26'
p1626
(lp1627
I113267010
aI113275589
aS'-'
asS'PIGO'
p1628
(lp1629
I35088687
aI35096601
aS'-'
asS'GLT6D1'
p1630
(lp1631
I135623655
aI135639540
aS'-'
asS'MIR4479'
p1632
(lp1633
I136886732
aI136886803
aS'+'
asS'ZNF367'
p1634
(lp1635
I96385942
aI96418387
aS'-'
asS'LRRC37A5P'
p1636
(lp1637
I111602830
aI111613553
aS'-'
asS'ZDHHC21'
p1638
(lp1639
I14611070
aI14693546
aS'-'
asS'ALDOB'
p1640
(lp1641
I101420559
aI101435774
aS'-'
asS'IPPK'
p1642
(lp1643
I92613183
aI92670265
aS'-'
asS'MIR3910-2'
p1644
(lp1645
I91636266
aI91636345
aS'-'
asS'SNAPC3'
p1646
(lp1647
I15422783
aI15461629
aS'+'
asS'ARID3C'
p1648
(lp1649
I34621457
aI34628014
aS'-'
asS'LINC02578'
p1650
(lp1651
I118679670
aI118745312
aS'+'
asS'FSD1L'
p1652
(lp1653
I105448033
aI105552433
aS'+'
asS'PCAT7'
p1654
(lp1655
I94555044
aI94568756
aS'+'
asS'LCN8'
p1656
(lp1657
I136754387
aI136758543
aS'-'
asS'CCDC171'
p1658
(lp1659
I15553006
aI15974039
aS'+'
asS'FAM166B'
p1660
(lp1661
I35561829
aI35563899
aS'-'
asS'DMRTA1'
p1662
(lp1663
I22446840
aI22452473
aS'+'
asS'WDR38'
p1664
(lp1665
I124853416
aI124857891
aS'+'
asS'PSAT1'
p1666
(lp1667
I78297074
aI78330093
aS'+'
asS'PRUNE2'
p1668
(lp1669
I76611375
aI76906087
aS'-'
asS'IFT74-AS1'
p1670
(lp1671
I26955779
aI26956307
aS'-'
asS'ASTN2-AS1'
p1672
(lp1673
I116504282
aI116562293
aS'+'
asS'COQ4'
p1674
(lp1675
I128322507
aI128334072
aS'+'
asS'SNORD62B'
p1676
(lp1677
I131485664
aI131485750
aS'+'
asS'LOC100507346'
p1678
(lp1679
I95463608
aI95470019
aS'+'
asS'MIRLET7D'
p1680
(lp1681
I94178833
aI94178920
aS'+'
asS'WASHC1'
p1682
(lp1683
I14510
aI29739
aS'-'
asS'TMOD1'
p1684
(lp1685
I97501179
aI97601743
aS'+'
asS'TEX48'
p1686
(lp1687
I114666433
aI114682089
aS'-'
asS'MIR6852'
p1688
(lp1689
I35710675
aI35710741
aS'-'
asS'ABHD17B'
p1690
(lp1691
I71862451
aI71911245
aS'-'
asS'DOLPP1'
p1692
(lp1693
I129081103
aI129090438
aS'+'
asS'ZFAND5'
p1694
(lp1695
I72351424
aI72365247
aS'-'
asS'PGM5-AS1'
p1696
(lp1697
I68355163
aI68357866
aS'-'
asS'FBP1'
p1698
(lp1699
I94603138
aI94640249
aS'-'
asS'FBP2'
p1700
(lp1701
I94558713
aI94593832
aS'-'
asS'PLIN2'
p1702
(lp1703
I19115760
aI19127606
aS'-'
asS'GSN'
p1704
(lp1705
I121201482
aI121332842
aS'+'
asS'FAM166A'
p1706
(lp1707
I137243582
aI137247792
aS'-'
asS'STPG3'
p1708
(lp1709
I137251260
aI137253483
aS'+'
asS'FRG1JP'
p1710
(lp1711
I63832049
aI63859634
aS'-'
asS'BNC2-AS1'
p1712
(lp1713
I16726813
aI16727524
aS'+'
asS'CEMIP2'
p1714
(lp1715
I71683365
aI71768884
aS'-'
asS'LOC101928119'
p1716
(lp1717
I94927019
aI94945554
aS'-'
asS'PALM2-AKAP2'
p1718
(lp1719
I109780296
aI110172511
aS'+'
asS'MYMK'
p1720
(lp1721
I133514585
aI133524946
aS'-'
asS'DDX31'
p1722
(lp1723
I132592996
aI132670401
aS'-'
asS'NTRK2'
p1724
(lp1725
I84668457
aI85027070
aS'+'
asS'MFSD14B'
p1726
(lp1727
I94374550
aI94460920
aS'+'
asS'GOLGA1'
p1728
(lp1729
I124878293
aI124941107
aS'-'
asS'SLC34A3'
p1730
(lp1731
I137230756
aI137236554
aS'+'
asS'FAM27B'
p1732
(lp1733
I67725482
aI67726743
aS'-'
asS'SUSD3'
p1734
(lp1735
I93058687
aI93085136
aS'+'
asS'CLIC3'
p1736
(lp1737
I136994607
aI136996572
aS'-'
asS'SUSD1'
p1738
(lp1739
I112040780
aI112175297
aS'-'
asS'PTBP3'
p1740
(lp1741
I112217714
aI112333664
aS'-'
asS'TTLL11'
p1742
(lp1743
I121821924
aI122093606
aS'-'
asS'STPG3-AS1'
p1744
(lp1745
I137250218
aI137253497
aS'-'
asS'RBM18'
p1746
(lp1747
I122239554
aI122264864
aS'-'
asS'MRPS2'
p1748
(lp1749
I135500630
aI135504673
aS'+'
asS'LOC101927502'
p1750
(lp1751
I81689712
aI81776899
aS'+'
asS'PPP6C'
p1752
(lp1753
I125146572
aI125189939
aS'-'
asS'C9orf64'
p1754
(lp1755
I83938311
aI83956986
aS'-'
asS'SPAG8'
p1756
(lp1757
I35807784
aI35812262
aS'-'
asS'ZNF484'
p1758
(lp1759
I92844195
aI92878038
aS'-'
asS'PRRC2B'
p1760
(lp1761
I131430089
aI131500188
aS'+'
asS'C9orf24'
p1762
(lp1763
I34379019
aI34397851
aS'-'
asS'TDRD7'
p1764
(lp1765
I97412019
aI97496123
aS'+'
asS'ZBTB6'
p1766
(lp1767
I122908055
aI122913328
aS'-'
asS'FAM221B'
p1768
(lp1769
I35817016
aI35828747
aS'-'
asS'CCIN'
p1770
(lp1771
I36169391
aI36171334
aS'+'
asS'OSTF1'
p1772
(lp1773
I75088481
aI75147198
aS'+'
asS'QRFP'
p1774
(lp1775
I130893427
aI130896812
aS'-'
asS'SPATA31D5P'
p1776
(lp1777
I81913436
aI81919927
aS'+'
asS'RALGAPA1P1'
p1778
(lp1779
I105519823
aI105527316
aS'+'
asS'SNAPC4'
p1780
(lp1781
I136375568
aI136398437
aS'-'
asS'GPR21'
p1782
(lp1783
I123033642
aI123035665
aS'+'
asS'SMIM27'
p1784
(lp1785
I32552233
aI32566860
aS'+'
asS'HSDL2'
p1786
(lp1787
I112379908
aI112472405
aS'+'
asS'KLHL9'
p1788
(lp1789
I21329670
aI21335432
aS'-'
asS'LOC102723566'
p1790
(lp1791
I127816065
aI127822520
aS'+'
asS'C8G'
p1792
(lp1793
I136945242
aI136946975
aS'+'
asS'BARHL1'
p1794
(lp1795
I132582605
aI132590253
aS'+'
asS'SAXO1'
p1796
(lp1797
I18927659
aI19049354
aS'-'
asS'MIR600HG'
p1798
(lp1799
I123109493
aI123115477
aS'-'
asS'LOC389705'
p1800
(lp1801
I14993326
aI15019724
aS'+'
asS'FLJ43315'
p1802
(lp1803
I64016949
aI64061612
aS'+'
asS'C9orf170'
p1804
(lp1805
I87148643
aI87159726
aS'+'
asS'MIR3074'
p1806
(lp1807
I95086013
aI95086094
aS'-'
asS'NIPSNAP3A'
p1808
(lp1809
I104747567
aI104760124
aS'+'
asS'MIR1302-10'
p1810
(lp1811
I30143
aI30281
aS'+'
asS'MIR1302-11'
p1812
(lp1813
I30143
aI30281
aS'+'
asS'EXD3'
p1814
(lp1815
I137306893
aI137423262
aS'-'
asS'TLR4'
p1816
(lp1817
I117704402
aI117724735
aS'+'
asS'PTGES2'
p1818
(lp1819
I128120692
aI128128462
aS'-'
asS'TSTD2'
p1820
(lp1821
I97600079
aI97633680
aS'-'
asS'ELP1'
p1822
(lp1823
I108867516
aI108934332
aS'-'
asS'PRSS47'
p1824
(lp1825
I92184331
aI92191156
aS'-'
asS'LOC389765'
p1826
(lp1827
I85806001
aI85842879
aS'+'
asS'HSPC324'
p1828
(lp1829
I136648609
aI136660421
aS'-'
asS'PTRH1'
p1830
(lp1831
I127713662
aI127715676
aS'-'
asS'MIR3689D2'
p1832
(lp1833
I134850276
aI134850356
aS'-'
asS'GLIS3'
p1834
(lp1835
I3824127
aI4300035
aS'-'
asS'MAMDC4'
p1836
(lp1837
I136852366
aI136860799
aS'+'
asS'MAMDC2'
p1838
(lp1839
I70043580
aI70226972
aS'+'
asS'LOC101928381'
p1840
(lp1841
I65791120
aI65802027
aS'+'
asS'LOC102724580'
p1842
(lp1843
I40499980
aI40578494
aS'+'
asS'MIGA2'
p1844
(lp1845
I129036510
aI129072082
aS'+'
asS'C9orf3'
p1846
(lp1847
I94726668
aI95087218
aS'+'
asS'CCDC180'
p1848
(lp1849
I97307627
aI97378751
aS'+'
asS'GLIPR2'
p1850
(lp1851
I36136535
aI36163913
aS'+'
asS'DBH-AS1'
p1852
(lp1853
I133654586
aI133657408
aS'-'
asS'CCDC183'
p1854
(lp1855
I136796337
aI136807741
aS'+'
asS'ANKS6'
p1856
(lp1857
I98732008
aI98796542
aS'-'
asS'UBAP2'
p1858
(lp1859
I33921692
aI34048949
aS'-'
asS'UBAP1'
p1860
(lp1861
I34179004
aI34252523
aS'+'
asS'HAUS6'
p1862
(lp1863
I19053136
aI19102942
aS'-'
asS'OR5C1'
p1864
(lp1865
I122788932
aI122789895
aS'+'
asS'INVS'
p1866
(lp1867
I100099184
aI100302175
aS'+'
asS'LINC00537'
p1868
(lp1869
I63812940
aI63819029
aS'+'
asS'DIPK1B'
p1870
(lp1871
I136712571
aI136724742
aS'+'
asS'COL27A1'
p1872
(lp1873
I114155536
aI114312511
aS'+'
asS'NIPSNAP3B'
p1874
(lp1875
I104763740
aI104777764
aS'+'
asS'MSANTD3-TMEFF1'
p1876
(lp1877
I100441905
aI100577636
aS'+'
asS'SPATA31C1'
p1878
(lp1879
I87917961
aI87923657
aS'+'
asS'NR5A1'
p1880
(lp1881
I124481235
aI124507399
aS'-'
asS'TMEM245'
p1882
(lp1883
I109015134
aI109119945
aS'-'
asS'ANKRD18B'
p1884
(lp1885
I33524412
aI33575442
aS'+'
asS'GBA2'
p1886
(lp1887
I35736861
aI35749236
aS'-'
asS'CARNMT1'
p1888
(lp1889
I74980793
aI75028430
aS'-'
asS'RNF224'
p1890
(lp1891
I137227565
aI137229638
aS'+'
asS'MPDZ'
p1892
(lp1893
I13105703
aI13279713
aS'-'
asS'C9orf106'
p1894
(lp1895
I129321015
aI129322603
aS'+'
asS'MIR7702'
p1896
(lp1897
I111271155
aI111271214
aS'-'
asS'ODF2'
p1898
(lp1899
I128455154
aI128501292
aS'+'
asS'FAM102A'
p1900
(lp1901
I127940581
aI127980533
aS'-'
asS'ISCA1'
p1902
(lp1903
I86264547
aI86282538
aS'-'
asS'PLPPR1'
p1904
(lp1905
I101028748
aI101325135
aS'+'
asS'PGM5'
p1906
(lp1907
I68356898
aI68531061
aS'+'
asS'IFT74'
p1908
(lp1909
I26946989
aI27066134
aS'+'
asS'MIR3927'
p1910
(lp1911
I109511474
aI109511545
aS'-'
asS'LMX1B'
p1912
(lp1913
I126614442
aI126701032
aS'+'
asS'ACO1'
p1914
(lp1915
I32384602
aI32450834
aS'+'
asS'PTGES'
p1916
(lp1917
I129738335
aI129753065
aS'-'
asS'ZNF658B'
p1918
(lp1919
I39443814
aI39464526
aS'-'
asS'SUGT1P4-STRA6LP-CCDC180'
p1920
(lp1921
I97238425
aI97377295
aS'+'
asS'LINC01507'
p1922
(lp1923
I79824529
aI80034555
aS'+'
asS'LINC01506'
p1924
(lp1925
I68543540
aI68546602
aS'-'
asS'OLFML2A'
p1926
(lp1927
I124777132
aI124814880
aS'+'
asS'LINC01504'
p1928
(lp1929
I72305435
aI72343210
aS'+'
asS'PRDM12'
p1930
(lp1931
I130664593
aI130682997
aS'+'
asS'LINC00474'
p1932
(lp1933
I115888163
aI115925207
aS'-'
asS'LINC01501'
p1934
(lp1935
I90462431
aI90582746
aS'-'
asS'LRRC19'
p1936
(lp1937
I26993136
aI27005693
aS'-'
asS'ANKRD20A2'
p1938
(lp1939
I66109846
aI66152966
aS'-'
asS'TMEFF1'
p1940
(lp1941
I100473237
aI100577636
aS'+'
asS'AQP7P1'
p1942
(lp1943
I63315242
aI63334520
aS'-'
asS'ANKRD20A1'
p1944
(lp1945
I66109846
aI66152966
aS'-'
asS'LOC105376331'
p1946
(lp1947
I137943629
aI137947060
aS'-'
asS'ANKRD20A4'
p1948
(lp1949
I64369562
aI64412691
aS'+'
asS'LINC01508'
p1950
(lp1951
I90300895
aI90433489
aS'-'
asS'ERCC6L2'
p1952
(lp1953
I95875617
aI96018453
aS'+'
asS'POMT1'
p1954
(lp1955
I131502901
aI131523806
aS'+'
asS'LINC01505'
p1956
(lp1957
I106616057
aI106679800
aS'+'
asS'LOC728673'
p1958
(lp1959
I62897375
aI62899777
aS'+'
asS'HRCT1'
p1960
(lp1961
I35906201
aI35907136
aS'+'
asS'MIRLET7A1'
p1962
(lp1963
I94175956
aI94176036
aS'+'
asS'FNBP1'
p1964
(lp1965
I129887186
aI130043194
aS'-'
asS'SMC2'
p1966
(lp1967
I104094259
aI104141419
aS'+'
asS'RAD23B'
p1968
(lp1969
I107283278
aI107332189
aS'+'
asS'ATP8B5P'
p1970
(lp1971
I35406754
aI35483029
aS'+'
asS'SMC5'
p1972
(lp1973
I70258961
aI70354873
aS'+'
asS'FAM120A'
p1974
(lp1975
I93451695
aI93566115
aS'+'
asS'STOM'
p1976
(lp1977
I121338987
aI121370304
aS'-'
asS'LINC00587'
p1978
(lp1979
I102519636
aI102657509
aS'+'
asS'PRPF4'
p1980
(lp1981
I113275633
aI113292905
aS'+'
asS'LINC00583'
p1982
(lp1983
I13927970
aI13945607
aS'+'
asS'ABL1'
p1984
(lp1985
I130713880
aI130887675
aS'+'
asS'PLAA'
p1986
(lp1987
I26903369
aI26947470
aS'-'
asS'LOC101929331'
p1988
(lp1989
I129282415
aI129285719
aS'+'
asS'TEK'
p1990
(lp1991
I27109140
aI27230178
aS'+'
asS'NR6A1'
p1992
(lp1993
I124517274
aI124771310
aS'-'
asS'CCDC107'
p1994
(lp1995
I35658289
aI35661503
aS'+'
asS'LINC01613'
p1996
(lp1997
I119935059
aI119937832
aS'+'
asS'TBC1D2'
p1998
(lp1999
I98198997
aI98255721
aS'-'
asS'SURF6'
p2000
(lp2001
I133330706
aI133336210
aS'-'
asS'PLPP7'
p2002
(lp2003
I131289693
aI131309262
aS'+'
asS'MIR455'
p2004
(lp2005
I114209433
aI114209529
aS'+'
asS'LINC01189'
p2006
(lp2007
I62452489
aI62522018
aS'+'
asS'HNRNPK'
p2008
(lp2009
I83968082
aI83980782
aS'-'
asS'LINC01503'
p2010
(lp2011
I129336922
aI129347477
aS'+'
asS'TRIM32'
p2012
(lp2013
I116687301
aI116701300
aS'+'
asS'LOC105379252'
p2014
(lp2015
I64463598
aI64469259
aS'+'
asS'C9orf92'
p2016
(lp2017
I16203934
aI16276313
aS'-'
asS'SNORD121B'
p2018
(lp2019
I33934296
aI33934375
aS'-'
asS'SNORD121A'
p2020
(lp2021
I33952763
aI33952854
aS'-'
asS'GBGT1'
p2022
(lp2023
I133152947
aI133163945
aS'-'
asS'RORB-AS1'
p2024
(lp2025
I74473434
aI74498553
aS'-'
asS'LRRC8A'
p2026
(lp2027
I128882111
aI128918038
aS'+'
asS'PHYHD1'
p2028
(lp2029
I128920894
aI128942041
aS'+'
asS'AJM1'
p2030
(lp2031
I136842505
aI136847345
aS'+'
asS'FAM225A'
p2032
(lp2033
I113112895
aI113119846
aS'+'
asS'ERP44'
p2034
(lp2035
I99979180
aI100099052
aS'-'
asS'UNC13B'
p2036
(lp2037
I35161968
aI35405338
aS'+'
asS'GOLM1'
p2038
(lp2039
I86026142
aI86100201
aS'-'
asS'OR13F1'
p2040
(lp2041
I104504262
aI104505222
aS'+'
asS'PTMAP11'
p2042
(lp2043
I96909074
aI96910455
aS'+'
asS'SNORD90'
p2044
(lp2045
I122880212
aI122880319
aS'-'
asS'PRRX2-AS1'
p2046
(lp2047
I129712893
aI129718706
aS'-'
asS'IFNA8'
p2048
(lp2049
I21409146
aI21410185
aS'+'
asS'PTENP1-AS'
p2050
(lp2051
I33677267
aI33688010
aS'+'
asS'CNTLN'
p2052
(lp2053
I17134990
aI17503923
aS'+'
asS'IFNA2'
p2054
(lp2055
I21384254
aI21385397
aS'-'
asS'IFNA1'
p2056
(lp2057
I21440453
aI21441316
aS'+'
asS'ZNF483'
p2058
(lp2059
I111525158
aI111578117
aS'+'
asS'PLGRKT'
p2060
(lp2061
I5357965
aI5437937
aS'-'
asS'IFNA6'
p2062
(lp2063
I21350317
aI21350887
aS'-'
asS'IFNA5'
p2064
(lp2065
I21304613
aI21305313
aS'-'
asS'IFNA4'
p2066
(lp2067
I21186618
aI21187599
aS'-'
asS'GDA'
p2068
(lp2069
I72114594
aI72252224
aS'+'
asS'PRKACG'
p2070
(lp2071
I69012532
aI69014123
aS'-'
asS'PSMB7'
p2072
(lp2073
I124353464
aI124415473
aS'-'
asS'CLTA'
p2074
(lp2075
I36190855
aI36212062
aS'+'
asS'RC3H2'
p2076
(lp2077
I122844564
aI122905351
aS'-'
asS'RPL12'
p2078
(lp2079
I127447673
aI127451432
aS'-'
asS'C9orf16'
p2080
(lp2081
I128160259
aI128163928
aS'+'
asS'PTGES2-AS1'
p2082
(lp2083
I128128528
aI128130634
aS'+'
asS'MIR2278'
p2084
(lp2085
I94809961
aI94810057
aS'+'
asS'HDHD3'
p2086
(lp2087
I113373415
aI113377009
aS'-'
asS'NCS1'
p2088
(lp2089
I130172577
aI130237304
aS'+'
asS'LOC101927575'
p2090
(lp2091
I84063442
aI84094579
aS'+'
asS'C9orf116'
p2092
(lp2093
I135495179
aI135499915
aS'-'
asS'DCAF12'
p2094
(lp2095
I34086382
aI34126773
aS'-'
asS'CNTNAP3'
p2096
(lp2097
I39072766
aI39288303
aS'-'
asS'DCAF10'
p2098
(lp2099
I37800553
aI37867668
aS'+'
asS'PDCL'
p2100
(lp2101
I122818096
aI122828656
aS'-'
asS'LRSAM1'
p2102
(lp2103
I127451485
aI127503501
aS'+'
asS'MIR4674'
p2104
(lp2105
I136546172
aI136546259
aS'-'
asS'MIR101-2'
p2106
(lp2107
I4850296
aI4850375
aS'+'
asS'FAM122A'
p2108
(lp2109
I68780064
aI68785566
aS'+'
asS'FAM27E3'
p2110
(lp2111
I67717497
aI67719179
aS'-'
asS'FAM27E2'
p2112
(lp2113
I41647673
aI41649440
aS'+'
asS'LOC441455'
p2114
(lp2115
I96725820
aI96727467
aS'+'
asS'SNORD24'
p2116
(lp2117
I133349395
aI133349470
aS'+'
asS'NTMT1'
p2118
(lp2119
I129608883
aI129636131
aS'+'
asS'MIR6856'
p2120
(lp2121
I130626296
aI130626363
aS'+'
asS'MIR6854'
p2122
(lp2123
I98229148
aI98229217
aS'-'
asS'UBQLN1'
p2124
(lp2125
I83659962
aI83708253
aS'-'
asS'SVEP1'
p2126
(lp2127
I110365248
aI110579741
aS'-'
asS'MIR6853'
p2128
(lp2129
I35732921
aI35732995
aS'+'
asS'MIR6851'
p2130
(lp2131
I33467868
aI33467935
aS'-'
asS'C9orf62'
p2132
(lp2133
I135343248
aI135346558
aS'+'
asS'FAM27C'
p2134
(lp2135
I61854083
aI61855340
aS'+'
asS'C9orf147'
p2136
(lp2137
I112451802
aI112487187
aS'-'
asS'C9orf66'
p2138
(lp2139
I213107
aI215893
aS'-'
asS'FUT7'
p2140
(lp2141
I137030173
aI137032840
aS'-'
asS'IDNK'
p2142
(lp2143
I83623048
aI83644130
aS'+'
asS'TRMT10B'
p2144
(lp2145
I37753802
aI37778972
aS'+'
asS'NACC2'
p2146
(lp2147
I136006536
aI136095289
aS'-'
asS'LOC101929116'
p2148
(lp2149
I126270123
aI126275915
aS'-'
asS'VLDLR-AS1'
p2150
(lp2151
I2535654
aI2622373
aS'-'
asS'VPS13A'
p2152
(lp2153
I77177444
aI77417483
aS'+'
asS'FAM214B'
p2154
(lp2155
I35104120
aI35115972
aS'-'
asS'DAPK1'
p2156
(lp2157
I87497227
aI87708634
aS'+'
asS'TRAF1'
p2158
(lp2159
I120902392
aI120929173
aS'-'
asS'MIR3689D1'
p2160
(lp2161
I134849608
aI134849682
aS'-'
asS'MIR3689E'
p2162
(lp2163
I134850569
aI134850641
aS'-'
asS'RRAGA'
p2164
(lp2165
I19049373
aI19051023
aS'+'
asS'SNORD36C'
p2166
(lp2167
I133350845
aI133350912
aS'+'
asS'ASS1'
p2168
(lp2169
I130444706
aI130501274
aS'+'
asS'MIR181B2'
p2170
(lp2171
I124693709
aI124693798
aS'+'
asS'ZNF169'
p2172
(lp2173
I94259265
aI94301829
aS'+'
asS'FOXD4L4'
p2174
(lp2175
I65737145
aI65738396
aS'+'
asS'FOXD4L5'
p2176
(lp2177
I65282100
aI65285209
aS'-'
asS'FOXD4L6'
p2178
(lp2179
I41126250
aI41128975
aS'-'
asS'LINC00963'
p2180
(lp2181
I129488659
aI129513689
aS'+'
asS'TNC'
p2182
(lp2183
I115019575
aI115118257
aS'-'
asS'FOXD4L3'
p2184
(lp2185
I68302866
aI68305084
aS'+'
asS'ALDH1B1'
p2186
(lp2187
I38392663
aI38398665
aS'+'
asS'DENND1A'
p2188
(lp2189
I123379653
aI123930138
aS'-'
asS'MTAP'
p2190
(lp2191
I21802635
aI21865970
aS'+'
asS'BICD2'
p2192
(lp2193
I92711362
aI92764801
aS'-'
asS'NFIB'
p2194
(lp2195
I14081842
aI14398983
aS'-'
asS'CNTFR-AS1'
p2196
(lp2197
I34568011
aI34583072
aS'+'
asS'MIR4672'
p2198
(lp2199
I127869414
aI127869495
aS'-'
asS'FAM138C'
p2200
(lp2201
I34393
aI35864
aS'-'
asS'FAM138A'
p2202
(lp2203
I34393
aI35864
aS'-'
asS'RPL35'
p2204
(lp2205
I124857878
aI124861961
aS'-'
asS'FAM138F'
p2206
(lp2207
I34393
aI35864
aS'-'
asS'KCNT1'
p2208
(lp2209
I135702184
aI135795502
aS'+'
asS'GNA14'
p2210
(lp2211
I77423078
aI77648316
aS'-'
asS'PTPRD'
p2212
(lp2213
I8314245
aI10612723
aS'-'
asS'FOCAD-AS1'
p2214
(lp2215
I20683301
aI20684750
aS'-'
asS'OR13C4'
p2216
(lp2217
I104526252
aI104527209
aS'-'
asS'ENTPD8'
p2218
(lp2219
I137434363
aI137441449
aS'-'
asS'PCA3'
p2220
(lp2221
I76764435
aI76787569
aS'+'
as.