(dp1
S'ZDHHC15'
p2
(lp3
I75368426
aI75523502
aS'-'
asS'ZCCHC13'
p4
(lp5
I74304189
aI74305034
aS'+'
asS'NYX'
p6
(lp7
I41447459
aI41475652
aS'+'
asS'MIR6086'
p8
(lp9
I13590291
aI13590346
aS'+'
asS'HTATSF1'
p10
(lp11
I136497078
aI136512344
aS'+'
asS'ZCCHC12'
p12
(lp13
I118823742
aI118826973
aS'+'
asS'SMIM10'
p14
(lp15
I134990990
aI134992473
aS'+'
asS'ZCCHC18'
p16
(lp17
I104112525
aI104115847
aS'+'
asS'MIR6089'
p18
(lp19
I2609190
aI2609254
aS'+'
asS'TRPC5OS'
p20
(lp21
I111876050
aI111903985
aS'+'
asS'OR13H1'
p22
(lp23
I131544073
aI131545000
aS'+'
asS'RTL8C'
p24
(lp25
I135032302
aI135033545
aS'+'
asS'RTL8B'
p26
(lp27
I135020503
aI135022536
aS'-'
asS'RTL8A'
p28
(lp29
I135050932
aI135052191
aS'-'
asS'GPM6B'
p30
(lp31
I13770921
aI13938824
aS'-'
asS'DUSP21'
p32
(lp33
I44844002
aI44844888
aS'+'
asS'MORF4L2-AS1'
p34
(lp35
I103687283
aI103692556
aS'+'
asS'MIR450B'
p36
(lp37
I134540184
aI134540262
aS'-'
asS'PPP4R3C'
p38
(lp39
I27460210
aI27463341
aS'-'
asS'DLG3'
p40
(lp41
I70444854
aI70505489
aS'+'
asS'MAGEA4-AS1'
p42
(lp43
I151904430
aI151911083
aS'-'
asS'LOC100421746'
p44
(lp45
I55280087
aI55288786
aS'+'
asS'TKTL1'
p46
(lp47
I154295673
aI154330363
aS'+'
asS'NR0B1'
p48
(lp49
I30304421
aI30309378
aS'-'
asS'TAZ'
p50
(lp51
I154411517
aI154421724
aS'+'
asS'MIR892A'
p52
(lp53
I145996668
aI145996743
aS'-'
asS'SMIM10L2B-AS1'
p54
(lp55
I135120620
aI135123601
aS'+'
asS'LINC01496'
p56
(lp57
I51499908
aI51507441
aS'-'
asS'NHS-AS1'
p58
(lp59
I17552348
aI17559127
aS'-'
asS'MIR374C'
p60
(lp61
I74218548
aI74218618
aS'+'
asS'MIR374B'
p62
(lp63
I74218546
aI74218618
aS'-'
asS'ABCD1'
p64
(lp65
I153724867
aI153744762
aS'+'
asS'OFD1'
p66
(lp67
I13734712
aI13769361
aS'+'
asS'MIR892C'
p68
(lp69
I145992749
aI145992826
aS'-'
asS'PCDH11X'
p70
(lp71
I91835460
aI92623229
aS'+'
asS'ARHGEF9-IT1'
p72
(lp73
I63670195
aI63671502
aS'-'
asS'SLITRK4'
p74
(lp75
I143622789
aI143636107
aS'-'
asS'SLC6A8'
p76
(lp77
I153688296
aI153696593
aS'+'
asS'SLITRK2'
p78
(lp79
I145817828
aI145825842
aS'+'
asS'SLC35A2'
p80
(lp81
I48903179
aI48911958
aS'-'
asS'ZNF41'
p82
(lp83
I47445177
aI47483269
aS'-'
asS'CT55'
p84
(lp85
I135156535
aI135171827
aS'-'
asS'MIR514B'
p86
(lp87
I147250150
aI147250230
aS'-'
asS'MIR362'
p88
(lp89
I50008963
aI50009027
aS'+'
asS'BGN'
p90
(lp91
I153494979
aI153509546
aS'+'
asS'GK'
p92
(lp93
I30653358
aI30731460
aS'+'
asS'FTH1P18'
p94
(lp95
I37042881
aI37043794
aS'-'
asS'RAB40A'
p96
(lp97
I103499752
aI103519489
aS'-'
asS'GATA1'
p98
(lp99
I48786573
aI48794310
aS'+'
asS'LINC00632'
p100
(lp101
I140709758
aI140772676
aS'+'
asS'LINC00630'
p102
(lp103
I102769152
aI102964522
aS'+'
asS'ZNF674'
p104
(lp105
I46497724
aI46545457
aS'-'
asS'PRRG1'
p106
(lp107
I37349274
aI37457295
aS'+'
asS'VCX2'
p108
(lp109
I8169943
aI8171267
aS'-'
asS'ELF4'
p110
(lp111
I130064919
aI130110713
aS'-'
asS'PHKA2-AS1'
p112
(lp113
I18890295
aI18894975
aS'+'
asS'TRAPPC2'
p114
(lp115
I13712241
aI13734635
aS'-'
asS'CXorf65'
p116
(lp117
I71103888
aI71106788
aS'-'
asS'SYAP1'
p118
(lp119
I16719611
aI16765340
aS'+'
asS'CXorf67'
p120
(lp121
I51406914
aI51408837
aS'+'
asS'CXorf66'
p122
(lp123
I139955724
aI139965518
aS'-'
asS'MIR361'
p124
(lp125
I85903635
aI85903707
aS'-'
asS'STARD8'
p126
(lp127
I68647668
aI68725842
aS'+'
asS'GPR119'
p128
(lp129
I130384344
aI130385537
aS'-'
asS'MIR19B2'
p130
(lp131
I134169670
aI134169766
aS'-'
asS'ACE2'
p132
(lp133
I15561032
aI15602069
aS'-'
asS'MIR325HG'
p134
(lp135
I76657797
aI77014532
aS'-'
asS'PNMA6E'
p136
(lp137
I153395638
aI153401420
aS'-'
asS'NXF2B'
p138
(lp139
I102247099
aI102326720
aS'+'
asS'HMGN5'
p140
(lp141
I81113700
aI81201942
aS'-'
asS'ENOX2'
p142
(lp143
I130623380
aI130903317
aS'-'
asS'L1CAM'
p144
(lp145
I153861513
aI153886174
aS'-'
asS'PLS3-AS1'
p146
(lp147
I115518188
aI115562731
aS'-'
asS'MIR23C'
p148
(lp149
I20017087
aI20017187
aS'-'
asS'TDGF1P3'
p150
(lp151
I110520311
aI110523021
aS'+'
asS'MAGEE2'
p152
(lp153
I75782987
aI75785244
aS'-'
asS'MAGEE1'
p154
(lp155
I76427652
aI76431353
aS'+'
asS'MIR652'
p156
(lp157
I110055328
aI110055426
aS'+'
asS'PLXNB3'
p158
(lp159
I153764195
aI153779346
aS'+'
asS'CD99L2'
p160
(lp161
I150766335
aI150898816
aS'-'
asS'GPRASP2'
p162
(lp163
I102712175
aI102717733
aS'+'
asS'MIR718'
p164
(lp165
I154019919
aI154019989
aS'-'
asS'GPRASP1'
p166
(lp167
I102651365
aI102659082
aS'+'
asS'XIST'
p168
(lp169
I73820650
aI73852753
aS'-'
asS'ATXN3L'
p170
(lp171
I13318648
aI13320399
aS'-'
asS'CHIC1'
p172
(lp173
I73563147
aI73687109
aS'+'
asS'WDR44'
p174
(lp175
I118346072
aI118449960
aS'+'
asS'WDR45'
p176
(lp177
I49074432
aI49101121
aS'-'
asS'SLC9A6'
p178
(lp179
I135985423
aI136047269
aS'+'
asS'DRP2'
p180
(lp181
I101219943
aI101264496
aS'+'
asS'APOO'
p182
(lp183
I23833347
aI23907940
aS'-'
asS'CETN2'
p184
(lp185
I152827326
aI152830757
aS'-'
asS'MTCP1'
p186
(lp187
I155064033
aI155071136
aS'-'
asS'INGX'
p188
(lp189
I71491680
aI71492449
aS'-'
asS'ZIC3'
p190
(lp191
I137566126
aI137577691
aS'+'
asS'TBC1D25'
p192
(lp193
I48539618
aI48562609
aS'+'
asS'INTS6L-AS1'
p194
(lp195
I135520082
aI135520674
aS'-'
asS'LINC00685'
p196
(lp197
I319144
aI321319
aS'+'
asS'HSD17B10'
p198
(lp199
I53431257
aI53434376
aS'-'
asS'FUNDC2'
p200
(lp201
I155026788
aI155056916
aS'+'
asS'MIR4768'
p202
(lp203
I17425880
aI17425954
aS'+'
asS'FUNDC1'
p204
(lp205
I44523638
aI44542859
aS'-'
asS'GUCY2F'
p206
(lp207
I109372905
aI109482056
aS'-'
asS'DNASE1L1'
p208
(lp209
I154401235
aI154412091
aS'-'
asS'USP27X-AS1'
p210
(lp211
I49876723
aI49879356
aS'-'
asS'BRCC3'
p212
(lp213
I155071419
aI155123074
aS'+'
asS'MIR4767'
p214
(lp215
I7147859
aI7147937
aS'+'
asS'COL4A6'
p216
(lp217
I108155606
aI108439497
aS'-'
asS'COL4A5'
p218
(lp219
I108439843
aI108697545
aS'+'
asS'LOC101928358'
p220
(lp221
I108736539
aI108738903
aS'+'
asS'FAM199X'
p222
(lp223
I104166474
aI104195901
aS'+'
asS'GDI1'
p224
(lp225
I154437153
aI154443467
aS'+'
asS'CHST7'
p226
(lp227
I46573686
aI46598496
aS'+'
asS'MAGEB2'
p228
(lp229
I30215557
aI30220089
aS'+'
asS'RENBP'
p230
(lp231
I153935268
aI153944643
aS'-'
asS'RPS6KA3'
p232
(lp233
I20149910
aI20266632
aS'-'
asS'RPS6KA6'
p234
(lp235
I84058345
aI84187935
aS'-'
asS'PDZD11'
p236
(lp237
I70286360
aI70289948
aS'-'
asS'ZDHHC9'
p238
(lp239
I129803287
aI129843934
aS'-'
asS'COX7B'
p240
(lp241
I77899467
aI77907376
aS'+'
asS'XGY2'
p242
(lp243
I2752295
aI2774996
aS'+'
asS'GABRQ'
p244
(lp245
I152638182
aI152653362
aS'+'
asS'PSMD10'
p246
(lp247
I108084204
aI108091644
aS'-'
asS'RIPPLY1'
p248
(lp249
I106900062
aI106903331
aS'-'
asS'MIR106A'
p250
(lp251
I134170197
aI134170278
aS'-'
asS'MIR1298'
p252
(lp253
I114715232
aI114715344
aS'+'
asS'GABRE'
p254
(lp255
I151953123
aI151974679
aS'-'
asS'FLNA'
p256
(lp257
I154348531
aI154374638
aS'-'
asS'NXF4'
p258
(lp259
I102549964
aI102571693
aS'+'
asS'CMC4'
p260
(lp261
I155061624
aI155071272
aS'-'
asS'RADX'
p262
(lp263
I106611929
aI106679443
aS'+'
asS'BEX5'
p264
(lp265
I102153706
aI102156014
aS'-'
asS'CD40LG'
p266
(lp267
I136648176
aI136660390
aS'+'
asS'GLA'
p268
(lp269
I101397790
aI101408013
aS'-'
asS'OTUD5'
p270
(lp271
I48922025
aI48958386
aS'-'
asS'FAM223A'
p272
(lp273
I154632472
aI154633182
aS'-'
asS'SMS'
p274
(lp275
I21940572
aI21994837
aS'+'
asS'SHROOM2'
p276
(lp277
I9786455
aI9949443
aS'+'
asS'XIAP'
p278
(lp279
I123859811
aI123913979
aS'+'
asS'FTHL17'
p280
(lp281
I31071240
aI31072053
aS'-'
asS'SNORA69'
p282
(lp283
I119787352
aI119787484
aS'-'
asS'LINC00892'
p284
(lp285
I136639542
aI136642429
aS'+'
asS'SHROOM4'
p286
(lp287
I50591644
aI50814044
aS'-'
asS'PTCHD1-AS'
p288
(lp289
I22193004
aI23293146
aS'-'
asS'PLP1'
p290
(lp291
I103776505
aI103792618
aS'+'
asS'PLP2'
p292
(lp293
I49171836
aI49175119
aS'+'
asS'ATP6AP2'
p294
(lp295
I40580963
aI40606636
aS'+'
asS'FAM226A'
p296
(lp297
I72777072
aI72779095
aS'+'
asS'LHFPL1'
p298
(lp299
I112630650
aI112680147
aS'-'
asS'ARMCX5-GPRASP2'
p300
(lp301
I102599497
aI102908104
aS'+'
asS'MIR6134'
p302
(lp303
I28495554
aI28495663
aS'-'
asS'SLC25A53'
p304
(lp305
I104099213
aI104157009
aS'-'
asS'MIR510'
p306
(lp307
I147272334
aI147272408
aS'-'
asS'LINC01456'
p308
(lp309
I17970172
aI18104644
aS'-'
asS'PCYT1B-AS1'
p310
(lp311
I24650072
aI24658237
aS'+'
asS'P2RY10'
p312
(lp313
I78945331
aI78963727
aS'+'
asS'LOC728660'
p314
(lp315
I140017267
aI140018037
aS'+'
asS'MIR450A1'
p316
(lp317
I134540340
aI134540431
aS'-'
asS'ALAS2'
p318
(lp319
I55009054
aI55031064
aS'-'
asS'RBM10'
p320
(lp321
I47145217
aI47186815
aS'+'
asS'IDS'
p322
(lp323
I149476989
aI149505354
aS'-'
asS'ZFX-AS1'
p324
(lp325
I24146224
aI24149654
aS'-'
asS'BRWD3'
p326
(lp327
I80669487
aI80809734
aS'-'
asS'BHLHB9'
p328
(lp329
I102720713
aI102752441
aS'+'
asS'CENPVL3'
p330
(lp331
I51617020
aI51618918
aS'-'
asS'CENPVL2'
p332
(lp333
I51681212
aI51682831
aS'-'
asS'CENPVL1'
p334
(lp335
I51681212
aI51682831
aS'-'
asS'SAGE1'
p336
(lp337
I135893633
aI135913061
aS'+'
asS'LINC01281'
p338
(lp339
I39304955
aI39327362
aS'-'
asS'LINC01282'
p340
(lp341
I39367284
aI39391774
aS'-'
asS'SPANXA2-OT1'
p342
(lp343
I141502848
aI141649939
aS'+'
asS'LONRF3'
p344
(lp345
I118974613
aI119018355
aS'+'
asS'DCX'
p346
(lp347
I111293778
aI111412232
aS'-'
asS'HCFC1'
p348
(lp349
I153947556
aI153971368
aS'-'
asS'SERTM2'
p350
(lp351
I111511661
aI111522399
aS'+'
asS'ZNF81'
p352
(lp353
I47836901
aI47922256
aS'+'
asS'MIR320D2'
p354
(lp355
I140926171
aI140926219
aS'-'
asS'CHRDL1'
p356
(lp357
I110673855
aI110796058
aS'-'
asS'PPEF1'
p358
(lp359
I18690925
aI18827916
aS'+'
asS'FRMPD4'
p360
(lp361
I12138465
aI12724523
aS'+'
asS'GRIPAP1'
p362
(lp363
I48973719
aI49002264
aS'-'
asS'IL3RA'
p364
(lp365
I1336615
aI1382689
aS'+'
asS'FRMPD3'
p366
(lp367
I107522449
aI107605251
aS'+'
asS'XACT'
p368
(lp369
I113616299
aI113938218
aS'-'
asS'PHEX-AS1'
p370
(lp371
I22162731
aI22172983
aS'-'
asS'ALG13'
p372
(lp373
I111681117
aI111760647
aS'+'
asS'CXorf21'
p374
(lp375
I30558823
aI30577916
aS'-'
asS'BRS3'
p376
(lp377
I136487965
aI136492439
aS'+'
asS'SRPK3'
p378
(lp379
I153781000
aI153785732
aS'+'
asS'GS1-594A7.3'
p380
(lp381
I15602880
aI15621484
aS'+'
asS'SNORA36A'
p382
(lp383
I154768527
aI154768657
aS'+'
asS'GEMIN8'
p384
(lp385
I14006725
aI14029916
aS'-'
asS'EDA'
p386
(lp387
I69616066
aI70039471
aS'+'
asS'RAB33A'
p388
(lp389
I130171798
aI130184870
aS'+'
asS'FAM156B'
p390
(lp391
I52947255
aI52964215
aS'-'
asS'FAM156A'
p392
(lp393
I52947255
aI52995472
aS'-'
asS'IL2RG'
p394
(lp395
I71107405
aI71111631
aS'-'
asS'F8'
p396
(lp397
I154835788
aI155022723
aS'-'
asS'SPIN2A'
p398
(lp399
I57135649
aI57137625
aS'-'
asS'SPIN2B'
p400
(lp401
I57119681
aI57121556
aS'-'
asS'ZNF630'
p402
(lp403
I48058177
aI48071658
aS'-'
asS'C1GALT1C1'
p404
(lp405
I120625673
aI120630150
aS'-'
asS'FAM236B'
p406
(lp407
I72781864
aI72782660
aS'-'
asS'SOX3'
p408
(lp409
I140502986
aI140505060
aS'-'
asS'MIR3937'
p410
(lp411
I39661215
aI39661321
aS'+'
asS'TMSB15B-AS1'
p412
(lp413
I103881746
aI103919548
aS'-'
asS'MIR1184-1'
p414
(lp415
I154887359
aI154887458
aS'-'
asS'MIR1184-2'
p416
(lp417
I154887359
aI154887458
aS'-'
asS'MIR1184-3'
p418
(lp419
I154887359
aI154887458
aS'-'
asS'LINC00893'
p420
(lp421
I149527590
aI149539752
aS'-'
asS'FAM236D'
p422
(lp423
I72912614
aI72913401
aS'+'
asS'LOC389895'
p424
(lp425
I140091666
aI140092911
aS'+'
asS'WASIR1'
p426
(lp427
I156014563
aI156016830
aS'-'
asS'SLC38A5'
p428
(lp429
I48458536
aI48470256
aS'-'
asS'RBM3'
p430
(lp431
I48574483
aI48581161
aS'+'
asS'CBLL2'
p432
(lp433
I22272912
aI22274459
aS'+'
asS'MORC4'
p434
(lp435
I106940733
aI107000244
aS'-'
asS'ZMYM3'
p436
(lp437
I71239623
aI71255197
aS'-'
asS'RPL36A-HNRNPH2'
p438
(lp439
I101390889
aI101414140
aS'+'
asS'FOXO4'
p440
(lp441
I71096148
aI71103534
aS'+'
asS'IGSF1'
p442
(lp443
I131273505
aI131289429
aS'-'
asS'FMR1'
p444
(lp445
I147911950
aI147951127
aS'+'
asS'RBMXL3'
p446
(lp447
I115189399
aI115192868
aS'+'
asS'MAGEA8'
p448
(lp449
I149881140
aI149885835
aS'+'
asS'AP1S2'
p450
(lp451
I15825805
aI15855014
aS'-'
asS'MAGEA3'
p452
(lp453
I152698751
aI152702347
aS'+'
asS'MAGEA2'
p454
(lp455
I152749862
aI152753884
aS'-'
asS'MAGEA1'
p456
(lp457
I153179283
aI153183878
aS'+'
asS'SNORD3E'
p458
(lp459
I70846080
aI70846295
aS'-'
asS'ARMCX6'
p460
(lp461
I101615117
aI101618001
aS'-'
asS'RS1'
p462
(lp463
I18639687
aI18672103
aS'-'
asS'EIF2S3'
p464
(lp465
I24054947
aI24078811
aS'+'
asS'GYG2'
p466
(lp467
I2828821
aI2882820
aS'+'
asS'TEX13D'
p468
(lp469
I124332659
aI124336862
aS'+'
asS'TEX13C'
p470
(lp471
I125319870
aI125325214
aS'+'
asS'DIAPH2'
p472
(lp473
I96684662
aI97600598
aS'+'
asS'MIR548AX'
p474
(lp475
I11318613
aI11318686
aS'-'
asS'PDZD4'
p476
(lp477
I153802165
aI153830567
aS'-'
asS'GJB1'
p478
(lp479
I71215211
aI71225215
aS'+'
asS'LOC286437'
p480
(lp481
I104122314
aI104124632
aS'-'
asS'CDK16'
p482
(lp483
I47218128
aI47229995
aS'+'
asS'OPHN1'
p484
(lp485
I68042343
aI68433457
aS'-'
asS'KIF4A'
p486
(lp487
I70290028
aI70420924
aS'+'
asS'MAGEA6'
p488
(lp489
I152766135
aI152769729
aS'-'
asS'CXCR3'
p490
(lp491
I71615915
aI71618517
aS'-'
asS'IRAK1'
p492
(lp493
I154010506
aI154019902
aS'-'
asS'RAI2'
p494
(lp495
I17800048
aI17861337
aS'-'
asS'MIR548AM'
p496
(lp497
I16627011
aI16627085
aS'-'
asS'LINC01284'
p498
(lp499
I51095835
aI51171421
aS'-'
asS'NHS'
p500
(lp501
I17375419
aI17735993
aS'+'
asS'MID1'
p502
(lp503
I10445309
aI10833690
aS'-'
asS'MIR891B'
p504
(lp505
I146001052
aI146001131
aS'-'
asS'KLF8'
p506
(lp507
I55908122
aI56291530
aS'+'
asS'MCTS1'
p508
(lp509
I120603888
aI120621161
aS'+'
asS'MIR3202-2'
p510
(lp511
I153981097
aI153981176
aS'-'
asS'SNORA35B'
p512
(lp513
I115126315
aI115126442
aS'-'
asS'VAMP7'
p514
(lp515
I155881279
aI155943769
aS'+'
asS'NLGN4X'
p516
(lp517
I5890025
aI6228882
aS'-'
asS'TMEM255A'
p518
(lp519
I120258649
aI120311536
aS'-'
asS'MIR767'
p520
(lp521
I152393420
aI152393529
aS'-'
asS'MIR766'
p522
(lp523
I119646737
aI119646848
aS'-'
asS'P2RY8'
p524
(lp525
I1462572
aI1537144
aS'-'
asS'MIR764'
p526
(lp527
I114639434
aI114639519
aS'+'
asS'SPANXB1'
p528
(lp529
I141002590
aI141003706
aS'+'
asS'SLC25A5'
p530
(lp531
I119468399
aI119471396
aS'+'
asS'VMA21'
p532
(lp533
I151396594
aI151409364
aS'+'
asS'STS'
p534
(lp535
I7147251
aI7354643
aS'+'
asS'SASH3'
p536
(lp537
I129779915
aI129795200
aS'+'
asS'P2RY4'
p538
(lp539
I70258165
aI70259804
aS'-'
asS'TEX13B'
p540
(lp541
I107980863
aI107982370
aS'-'
asS'ARSD'
p542
(lp543
I2903969
aI2929375
aS'-'
asS'ARSE'
p544
(lp545
I2934631
aI2968310
aS'-'
asS'ARSF'
p546
(lp547
I3040233
aI3112729
aS'+'
asS'CT47A4'
p548
(lp549
I120877490
aI120932297
aS'-'
asS'ZC4H2'
p550
(lp551
I64915801
aI65034744
aS'-'
asS'CT47A2'
p552
(lp553
I120877490
aI120932297
aS'-'
asS'CT47A1'
p554
(lp555
I120877490
aI120932297
aS'-'
asS'MAGEH1'
p556
(lp557
I55452088
aI55453568
aS'+'
asS'OGT'
p558
(lp559
I71533061
aI71575897
aS'+'
asS'ARMCX5'
p560
(lp561
I102599167
aI102604157
aS'+'
asS'ARMCX4'
p562
(lp563
I101418262
aI101535988
aS'+'
asS'ARSH'
p564
(lp565
I3006612
aI3033385
aS'+'
asS'ARMCX2'
p566
(lp567
I101655280
aI101659891
aS'-'
asS'CT47A9'
p568
(lp569
I120877490
aI120932297
aS'-'
asS'CT47A8'
p570
(lp571
I120877490
aI120932297
aS'-'
asS'LOC105377213'
p572
(lp573
I151515550
aI151516262
aS'+'
asS'MAP3K15'
p574
(lp575
I19360057
aI19515261
aS'-'
asS'CXorf49B'
p576
(lp577
I71714373
aI71718285
aS'-'
asS'MAGEA9B'
p578
(lp579
I149781929
aI149787737
aS'+'
asS'MAGED4B'
p580
(lp581
I52061826
aI52069272
aS'-'
asS'DMRTC1B'
p582
(lp583
I72872024
aI72875788
aS'-'
asS'CFP'
p584
(lp585
I47624212
aI47630305
aS'-'
asS'SYTL5'
p586
(lp587
I38006552
aI38128816
aS'+'
asS'SYTL4'
p588
(lp589
I100674490
aI100732148
aS'-'
asS'CLTRN'
p590
(lp591
I15627315
aI15665031
aS'-'
asS'LINC00891'
p592
(lp593
I71697195
aI71703406
aS'+'
asS'LINC00894'
p594
(lp595
I149938547
aI150016787
aS'+'
asS'MCF2'
p596
(lp597
I139581770
aI139708222
aS'-'
asS'RPGR'
p598
(lp599
I38269169
aI38327535
aS'-'
asS'HUWE1'
p600
(lp601
I53532095
aI53686729
aS'-'
asS'UPRT'
p602
(lp603
I75156368
aI75304897
aS'+'
asS'RIBC1'
p604
(lp605
I53422855
aI53431120
aS'+'
asS'ARAF'
p606
(lp607
I47561099
aI47571921
aS'+'
asS'LOC100101478'
p608
(lp609
I104060503
aI104062938
aS'-'
asS'ZXDA'
p610
(lp611
I57905429
aI57910633
aS'-'
asS'USP26'
p612
(lp613
I133025478
aI133028272
aS'-'
asS'TMEM185A'
p614
(lp615
I149596555
aI149631912
aS'-'
asS'SPIN3'
p616
(lp617
I56976369
aI56995555
aS'-'
asS'LOC100132831'
p618
(lp619
I40831216
aI40833196
aS'-'
asS'ARHGEF9'
p620
(lp621
I63634966
aI63785546
aS'-'
asS'ARHGEF6'
p622
(lp623
I136665550
aI136781344
aS'-'
asS'ASB9'
p624
(lp625
I15243986
aI15270467
aS'-'
asS'TNMD'
p626
(lp627
I100584792
aI100599885
aS'+'
asS'DYNLT3'
p628
(lp629
I37838835
aI37847636
aS'-'
asS'TGIF2LX'
p630
(lp631
I89921940
aI89922883
aS'+'
asS'NLGN3'
p632
(lp633
I71144830
aI71171201
aS'+'
asS'MTMR8'
p634
(lp635
I64268080
aI64395452
aS'-'
asS'FAM45BP'
p636
(lp637
I130494940
aI130497447
aS'+'
asS'SPIN4'
p638
(lp639
I63347227
aI63351339
aS'-'
asS'TEX28'
p640
(lp641
I154271264
aI154295211
aS'-'
asS'MTMR1'
p642
(lp643
I150692961
aI150765103
aS'+'
asS'UXT-AS1'
p644
(lp645
I47658832
aI47660111
aS'+'
asS'AKAP4'
p646
(lp647
I50190767
aI50201013
aS'-'
asS'GPC3-AS1'
p648
(lp649
I133897442
aI133897921
aS'+'
asS'H2AFB1'
p650
(lp651
I154885041
aI154885558
aS'+'
asS'PIR-FIGF'
p652
(lp653
I15345590
aI15491309
aS'-'
asS'SSX2B'
p654
(lp655
I52751203
aI52761536
aS'+'
asS'GAGE2D'
p656
(lp657
I49331581
aI49338952
aS'+'
asS'GAGE2E'
p658
(lp659
I49331604
aI49338948
aS'+'
asS'LOC389906'
p660
(lp661
I3817534
aI3843894
aS'-'
asS'CHM'
p662
(lp663
I85861179
aI86047565
aS'-'
asS'GAGE2B'
p664
(lp665
I49589528
aI49596808
aS'+'
asS'GAGE2C'
p666
(lp667
I49589528
aI49596837
aS'+'
asS'ESX1'
p668
(lp669
I104250037
aI104254933
aS'-'
asS'MIR2114'
p670
(lp671
I150228003
aI150228083
aS'+'
asS'DMRTC1'
p672
(lp673
I72872024
aI72875788
aS'-'
asS'SH3BGRL'
p674
(lp675
I81201803
aI81298547
aS'+'
asS'THOC2'
p676
(lp677
I123600560
aI123733054
aS'-'
asS'FTX'
p678
(lp679
I74028135
aI74293574
aS'-'
asS'MIR424'
p680
(lp681
I134546613
aI134546711
aS'-'
asS'H2AFB3'
p682
(lp683
I154885041
aI154885558
aS'+'
asS'LINC02595'
p684
(lp685
I45848073
aI45851490
aS'-'
asS'MIR421'
p686
(lp687
I74218376
aI74218461
aS'-'
asS'MIR384'
p688
(lp689
I76919272
aI76919360
aS'-'
asS'AVPR2'
p690
(lp691
I153902530
aI153907166
aS'+'
asS'PRRG3'
p692
(lp693
I151695257
aI151701591
aS'+'
asS'ZNF280C'
p694
(lp695
I130202706
aI130268899
aS'-'
asS'LINC02601'
p696
(lp697
I41275738
aI41276777
aS'+'
asS'MAMLD1'
p698
(lp699
I150363277
aI150514178
aS'+'
asS'ADGRG4'
p700
(lp701
I136300962
aI136416888
aS'+'
asS'FAM223B'
p702
(lp703
I154571247
aI154571957
aS'+'
asS'ADGRG2'
p704
(lp705
I18989306
aI19122637
aS'-'
asS'MIR8088'
p706
(lp707
I52336556
aI52336642
aS'-'
asS'UBE2E4P'
p708
(lp709
I14244264
aI14245423
aS'+'
asS'MIR542'
p710
(lp711
I134541340
aI134541437
aS'-'
asS'XPNPEP2'
p712
(lp713
I129738969
aI129769549
aS'+'
asS'PAK3'
p714
(lp715
I110944240
aI111227361
aS'+'
asS'PABPC5'
p716
(lp717
I91434597
aI91438584
aS'+'
asS'FOXP3'
p718
(lp719
I49250435
aI49264826
aS'-'
asS'FAM122B'
p720
(lp721
I134769565
aI134797232
aS'-'
asS'FAM122C'
p722
(lp723
I134804121
aI134854611
aS'+'
asS'MIR1277'
p724
(lp725
I118386393
aI118386471
aS'+'
asS'NSDHL'
p726
(lp727
I152830966
aI152869363
aS'+'
asS'MSL3'
p728
(lp729
I11758158
aI11775753
aS'+'
asS'VSIG4'
p730
(lp731
I66021737
aI66040125
aS'-'
asS'TMEM35A'
p732
(lp733
I101078846
aI101096366
aS'+'
asS'MIR6894'
p734
(lp735
I53198888
aI53198945
aS'-'
asS'HDX'
p736
(lp737
I84317873
aI84502479
aS'-'
asS'MAP2K4P1'
p738
(lp739
I73524274
aI73563085
aS'-'
asS'CT47A5'
p740
(lp741
I120877490
aI120932297
aS'-'
asS'SPANXN2'
p742
(lp743
I143712034
aI143720668
aS'-'
asS'TCEANC'
p744
(lp745
I13653105
aI13665408
aS'+'
asS'ATP7A'
p746
(lp747
I77910655
aI78050395
aS'+'
asS'AMELX'
p748
(lp749
I11293412
aI11300761
aS'+'
asS'CYSLTR1'
p750
(lp751
I78271471
aI78327691
aS'-'
asS'HCCS'
p752
(lp753
I11111285
aI11123084
aS'+'
asS'GPKOW'
p754
(lp755
I49113384
aI49123801
aS'-'
asS'SPANXN1'
p756
(lp757
I145247586
aI145256208
aS'+'
asS'ASMT'
p758
(lp759
I1595454
aI1643081
aS'+'
asS'TREX2'
p760
(lp761
I153444719
aI153446487
aS'-'
asS'DDX53'
p762
(lp763
I22999960
aI23002089
aS'+'
asS'GLOD5'
p764
(lp765
I48761749
aI48773648
aS'+'
asS'FTSJ1'
p766
(lp767
I48476020
aI48486364
aS'+'
asS'HSFX2'
p768
(lp769
I149592511
aI149595310
aS'-'
asS'STK26'
p770
(lp771
I132023216
aI132075943
aS'+'
asS'TIMM8A'
p772
(lp773
I101345660
aI101348742
aS'-'
asS'HSFX1'
p774
(lp775
I149592522
aI149595314
aS'-'
asS'SSX9P'
p776
(lp777
I48301549
aI48306179
aS'-'
asS'HSFX4'
p778
(lp779
I149548391
aI149549911
aS'-'
asS'TBC1D8B'
p780
(lp781
I106802688
aI106876147
aS'+'
asS'PABPC1L2B'
p782
(lp783
I73003512
aI73005712
aS'+'
asS'BMX'
p784
(lp785
I15500776
aI15556529
aS'+'
asS'YIPF6'
p786
(lp787
I68498781
aI68537285
aS'+'
asS'ZNF185'
p788
(lp789
I152914441
aI152973481
aS'+'
asS'MIR508'
p790
(lp791
I147236912
aI147237027
aS'-'
asS'F9'
p792
(lp793
I139530735
aI139563458
aS'+'
asS'ZNF182'
p794
(lp795
I47974850
aI48003995
aS'-'
asS'RAB41'
p796
(lp797
I70282171
aI70285002
aS'+'
asS'CT47A3'
p798
(lp799
I120877490
aI120932297
aS'-'
asS'TSIX'
p800
(lp801
I73792204
aI73829231
aS'+'
asS'MAGEB3'
p802
(lp803
I30230435
aI30237493
aS'+'
asS'MIR934'
p804
(lp805
I136550877
aI136550960
aS'+'
asS'MAGEB1'
p806
(lp807
I30243730
aI30252038
aS'+'
asS'MAGEB6'
p808
(lp809
I26192439
aI26195646
aS'+'
asS'MIR6895'
p810
(lp811
I53195410
aI53195488
aS'-'
asS'MAGEB4'
p812
(lp813
I30241939
aI30244191
aS'+'
asS'MAGEB5'
p814
(lp815
I26216168
aI26218270
aS'+'
asS'MAGEA4'
p816
(lp817
I151912888
aI151925170
aS'+'
asS'PHEX'
p818
(lp819
I22032443
aI22251310
aS'+'
asS'DKC1'
p820
(lp821
I154762741
aI154777689
aS'+'
asS'MIR1912'
p822
(lp823
I114651543
aI114651623
aS'+'
asS'DGAT2L6'
p824
(lp825
I70177482
aI70205703
aS'+'
asS'HNRNPH2'
p826
(lp827
I101408132
aI101414140
aS'+'
asS'CD99'
p828
(lp829
I2691132
aI2741309
aS'+'
asS'ATG4A'
p830
(lp831
I108091666
aI108154671
aS'+'
asS'OPN1MW3'
p832
(lp833
I154257559
aI154271090
aS'+'
asS'OPN1MW2'
p834
(lp835
I154257537
aI154271090
aS'+'
asS'MAOB'
p836
(lp837
I43766609
aI43882475
aS'-'
asS'MAOA'
p838
(lp839
I43654906
aI43746824
aS'+'
asS'LOC101928495'
p840
(lp841
I126109761
aI126115562
aS'+'
asS'HS6ST2'
p842
(lp843
I132626009
aI132961395
aS'-'
asS'MIR1911'
p844
(lp845
I114763183
aI114763263
aS'+'
asS'MIR3915'
p846
(lp847
I32583655
aI32583752
aS'-'
asS'PCDH19'
p848
(lp849
I100291643
aI100410273
aS'-'
asS'MECP2'
p850
(lp851
I154021812
aI154097731
aS'-'
asS'RPS26P11'
p852
(lp853
I72044408
aI72044961
aS'+'
asS'BTK'
p854
(lp855
I101349446
aI101390796
aS'-'
asS'LOC392452'
p856
(lp857
I45731087
aI45731757
aS'+'
asS'EFNB1'
p858
(lp859
I68828996
aI68842163
aS'+'
asS'LOC100506790'
p860
(lp861
I135396428
aI135397747
aS'+'
asS'HDAC6'
p862
(lp863
I48801376
aI48824982
aS'+'
asS'HDAC8'
p864
(lp865
I72329515
aI72573103
aS'-'
asS'INTS6L'
p866
(lp867
I135520625
aI135582535
aS'+'
asS'UBL4A'
p868
(lp869
I154483716
aI154486670
aS'-'
asS'TEX11'
p870
(lp871
I70528939
aI70908717
aS'-'
asS'MIR548F5'
p872
(lp873
I32641473
aI32641559
aS'-'
asS'SNORD61'
p874
(lp875
I136879198
aI136879271
aS'-'
asS'SPRY3'
p876
(lp877
I155612564
aI155782457
aS'+'
asS'CYLC1'
p878
(lp879
I83861125
aI83886700
aS'+'
asS'PGAM4'
p880
(lp881
I77967960
aI77969638
aS'-'
asS'MAGT1'
p882
(lp883
I77826364
aI77895568
aS'-'
asS'MIR374A'
p884
(lp885
I74287285
aI74287357
aS'-'
asS'TRPC5'
p886
(lp887
I111774313
aI112082776
aS'-'
asS'REPS2'
p888
(lp889
I16946657
aI17153272
aS'+'
asS'CT45A10'
p890
(lp891
I135880751
aI135893428
aS'-'
asS'GABRA3'
p892
(lp893
I152166233
aI152451315
aS'-'
asS'ITIH6'
p894
(lp895
I54748898
aI54798240
aS'-'
asS'GCNA'
p896
(lp897
I71578023
aI71613583
aS'+'
asS'RNU6-1'
p898
(lp899
I141118030
aI141118136
aS'-'
asS'CDKL5'
p900
(lp901
I18425604
aI18653629
aS'+'
asS'ERCC6L'
p902
(lp903
I72204654
aI72239047
aS'-'
asS'RNF128'
p904
(lp905
I106693837
aI106797016
aS'+'
asS'HYPM'
p906
(lp907
I37990816
aI37991317
aS'+'
asS'FANCB'
p908
(lp909
I14843406
aI14873069
aS'-'
asS'VENTXP1'
p910
(lp911
I26558336
aI26561052
aS'+'
asS'CNGA2'
p912
(lp913
I151734745
aI151745564
aS'+'
asS'DUSP9'
p914
(lp915
I153642442
aI153651326
aS'+'
asS'VGLL1'
p916
(lp917
I136532151
aI136556807
aS'+'
asS'MIR18B'
p918
(lp919
I134170040
aI134170111
aS'-'
asS'CT47B1'
p920
(lp921
I120872597
aI120875925
aS'-'
asS'RNF113A'
p922
(lp923
I119870531
aI119871828
aS'-'
asS'CA5B'
p924
(lp925
I15738288
aI15787625
aS'+'
asS'FGF13-AS1'
p926
(lp927
I138712106
aI138716601
aS'+'
asS'KLHL13'
p928
(lp929
I117897812
aI118117340
aS'-'
asS'CLIC2'
p930
(lp931
I155276206
aI155334681
aS'-'
asS'KLHL15'
p932
(lp933
I23983715
aI24027186
aS'-'
asS'CT47A6'
p934
(lp935
I120977605
aI120980924
aS'-'
asS'CSAG1'
p936
(lp937
I152727483
aI152733736
aS'-'
asS'LOC105373156'
p938
(lp939
I6226357
aI6230291
aS'+'
asS'LOC101928437'
p940
(lp941
I113042726
aI113520614
aS'+'
asS'GAB3'
p942
(lp943
I154675249
aI154751583
aS'-'
asS'NUDT10'
p944
(lp945
I51332230
aI51337525
aS'+'
asS'NUDT11'
p946
(lp947
I51490010
aI51496592
aS'-'
asS'LAMP2'
p948
(lp949
I120426147
aI120469349
aS'-'
asS'PTCHD1'
p950
(lp951
I23334867
aI23396801
aS'+'
asS'OPN1LW'
p952
(lp953
I154144223
aI154159032
aS'+'
asS'RPS4X'
p954
(lp955
I72272602
aI72277291
aS'-'
asS'TLR8-AS1'
p956
(lp957
I12902816
aI12943300
aS'-'
asS'LINC01560'
p958
(lp959
I47482715
aI47485227
aS'+'
asS'MIR20B'
p960
(lp961
I134169808
aI134169877
aS'-'
asS'TAF7L'
p962
(lp963
I101268252
aI101293071
aS'-'
asS'MIR503'
p964
(lp965
I134546327
aI134546398
aS'-'
asS'MIR502'
p966
(lp967
I50014597
aI50014683
aS'+'
asS'MIR501'
p968
(lp969
I50009721
aI50009805
aS'+'
asS'MIR507'
p970
(lp971
I147230983
aI147231077
aS'-'
asS'MIR506'
p972
(lp973
I147230719
aI147230843
aS'-'
asS'MIR4769'
p974
(lp975
I47587428
aI47587505
aS'+'
asS'UQCRBP1'
p976
(lp977
I56736787
aI56737584
aS'-'
asS'IRS4'
p978
(lp979
I108732496
aI108736377
aS'-'
asS'MIR513C'
p980
(lp981
I147189703
aI147189787
aS'-'
asS'UBE2NL'
p982
(lp983
I143884070
aI143885250
aS'+'
asS'SNORA109'
p984
(lp985
I55183480
aI55183607
aS'-'
asS'GDPD2'
p986
(lp987
I70423030
aI70433391
aS'+'
asS'ARX'
p988
(lp989
I25003695
aI25015948
aS'-'
asS'MIR92A2'
p990
(lp991
I134169537
aI134169612
aS'-'
asS'SOWAHD'
p992
(lp993
I119758612
aI119760202
aS'+'
asS'TTC3P1'
p994
(lp995
I75740537
aI75743079
aS'-'
asS'GLRA2'
p996
(lp997
I14529297
aI14731811
aS'+'
asS'TAF9B'
p998
(lp999
I78129747
aI78139682
aS'-'
asS'SNORA11C'
p1000
(lp1001
I47388649
aI47388776
aS'+'
asS'LPAR4'
p1002
(lp1003
I78747708
aI78757081
aS'+'
asS'CXorf51B'
p1004
(lp1005
I146809783
aI146810411
aS'+'
asS'LAGE3'
p1006
(lp1007
I154477768
aI154479257
aS'-'
asS'POLA1'
p1008
(lp1009
I24693832
aI24996985
aS'+'
asS'SPANXD'
p1010
(lp1011
I141697400
aI141698739
aS'-'
asS'RTL3'
p1012
(lp1013
I78656068
aI78659328
aS'-'
asS'XK'
p1014
(lp1015
I37685790
aI37732130
aS'+'
asS'CLDN34'
p1016
(lp1017
I9967357
aI9968002
aS'+'
asS'ARMCX3'
p1018
(lp1019
I101623129
aI101627841
aS'+'
asS'RHOXF1P1'
p1020
(lp1021
I120010716
aI120015551
aS'-'
asS'PRDX4'
p1022
(lp1023
I23667527
aI23686397
aS'+'
asS'SPANXA1'
p1024
(lp1025
I141583673
aI141584738
aS'-'
asS'SPANXA2'
p1026
(lp1027
I141583673
aI141584738
aS'-'
asS'ZNF711'
p1028
(lp1029
I85243990
aI85273362
aS'+'
asS'ZMAT1'
p1030
(lp1031
I101882287
aI101932066
aS'-'
asS'CXorf38'
p1032
(lp1033
I40626920
aI40647683
aS'-'
asS'RAB40AL'
p1034
(lp1035
I102937271
aI102938300
aS'+'
asS'ARMCX1'
p1036
(lp1037
I101550530
aI101554692
aS'+'
asS'MAGEA5'
p1038
(lp1039
I152114048
aI152117939
aS'-'
asS'TRMT2B'
p1040
(lp1041
I101009344
aI101052116
aS'-'
asS'SMARCA1'
p1042
(lp1043
I129446500
aI129523505
aS'-'
asS'PRKX'
p1044
(lp1045
I3604342
aI3713634
aS'-'
asS'VSIG1'
p1046
(lp1047
I108044969
aI108079184
aS'+'
asS'PAGE4'
p1048
(lp1049
I49829259
aI49834264
aS'+'
asS'ITGB1BP2'
p1050
(lp1051
I71301733
aI71305371
aS'+'
asS'PABPC5-AS1'
p1052
(lp1053
I91414902
aI91434999
aS'-'
asS'IQSEC2'
p1054
(lp1055
I53232875
aI53321324
aS'-'
asS'PAGE2'
p1056
(lp1057
I55089051
aI55092836
aS'+'
asS'ASMTL-AS1'
p1058
(lp1059
I1400530
aI1415421
aS'+'
asS'LINC01203'
p1060
(lp1061
I13335240
aI13341825
aS'+'
asS'LINC01204'
p1062
(lp1063
I45505387
aI45527239
aS'+'
asS'ZNF630-AS1'
p1064
(lp1065
I48056309
aI48067308
aS'+'
asS'MIR98'
p1066
(lp1067
I53556222
aI53556341
aS'-'
asS'MED12'
p1068
(lp1069
I71118555
aI71142454
aS'+'
asS'ABCB7'
p1070
(lp1071
I75051048
aI75156283
aS'-'
asS'ANOS1'
p1072
(lp1073
I8528873
aI8732137
aS'-'
asS'RLIM'
p1074
(lp1075
I74582975
aI74614626
aS'-'
asS'MAGEA9'
p1076
(lp1077
I149781936
aI149787737
aS'+'
asS'KCND1'
p1078
(lp1079
I48961377
aI48971844
aS'-'
asS'XAGE1A'
p1080
(lp1081
I52495667
aI52500811
aS'+'
asS'XAGE1B'
p1082
(lp1083
I52495667
aI52500811
aS'+'
asS'RP2'
p1084
(lp1085
I46837042
aI46882356
aS'+'
asS'NKAPP1'
p1086
(lp1087
I120236455
aI120245267
aS'-'
asS'TXLNG'
p1088
(lp1089
I16786431
aI16844519
aS'+'
asS'CENPI'
p1090
(lp1091
I101098181
aI101163673
aS'+'
asS'DCAF12L1'
p1092
(lp1093
I126549382
aI126552859
aS'-'
asS'XG'
p1094
(lp1095
I2752051
aI2816501
aS'+'
asS'CYBB'
p1096
(lp1097
I37780016
aI37813461
aS'+'
asS'ARR3'
p1098
(lp1099
I70268334
aI70281840
aS'+'
asS'CHMP1B2P'
p1100
(lp1101
I80228488
aI80335318
aS'-'
asS'VCX'
p1102
(lp1103
I7842261
aI7844143
aS'+'
asS'SCML1'
p1104
(lp1105
I17737448
aI17754988
aS'+'
asS'RAP2C'
p1106
(lp1107
I132203023
aI132219480
aS'-'
asS'CCNB3'
p1108
(lp1109
I50284539
aI50351912
aS'+'
asS'TCEAL3'
p1110
(lp1111
I103607905
aI103609927
aS'+'
asS'MAGEA11'
p1112
(lp1113
I149688236
aI149717268
aS'+'
asS'MAGEA10'
p1114
(lp1115
I152133310
aI152138578
aS'-'
asS'CH17-340M24.3'
p1116
(lp1117
I154424379
aI154428479
aS'-'
asS'ZNF157'
p1118
(lp1119
I47370599
aI47413699
aS'+'
asS'CXorf49'
p1120
(lp1121
I71714373
aI71718285
aS'-'
asS'TCEAL2'
p1122
(lp1123
I102125687
aI102127712
aS'+'
asS'PFKFB1'
p1124
(lp1125
I54933133
aI54998534
aS'-'
asS'OTC'
p1126
(lp1127
I38352482
aI38421450
aS'+'
asS'DLG3-AS1'
p1128
(lp1129
I70452955
aI70455994
aS'-'
asS'TCEAL1'
p1130
(lp1131
I103628719
aI103630948
aS'+'
asS'CSTF2'
p1132
(lp1133
I100820362
aI100841520
aS'+'
asS'JPX'
p1134
(lp1135
I73944323
aI74070382
aS'+'
asS'CUL4B'
p1136
(lp1137
I120524590
aI120575829
aS'-'
asS'SSR4'
p1138
(lp1139
I153794174
aI153798512
aS'+'
asS'ARHGAP36'
p1140
(lp1141
I131058241
aI131089885
aS'+'
asS'CXXC1P1'
p1142
(lp1143
I47707190
aI47736628
aS'+'
asS'SMIM10L2A'
p1144
(lp1145
I135421932
aI135428074
aS'+'
asS'SMIM10L2B'
p1146
(lp1147
I135094984
aI135098712
aS'-'
asS'SLC25A14'
p1148
(lp1149
I130339887
aI130373361
aS'+'
asS'MED14OS'
p1150
(lp1151
I40735395
aI40738701
aS'+'
asS'ZFX'
p1152
(lp1153
I24148988
aI24216089
aS'+'
asS'CRLF2'
p1154
(lp1155
I1190495
aI1212723
aS'-'
asS'TCEAL5'
p1156
(lp1157
I103273689
aI103276869
aS'-'
asS'SSX7'
p1158
(lp1159
I52644060
aI52654900
aS'-'
asS'FAM3A'
p1160
(lp1161
I154506158
aI154516242
aS'-'
asS'TBX22'
p1162
(lp1163
I80014755
aI80031769
aS'+'
asS'SSX4'
p1164
(lp1165
I48402081
aI48411899
aS'-'
asS'TAB3-AS1'
p1166
(lp1167
I30834622
aI30839073
aS'+'
asS'MIR548AJ2'
p1168
(lp1169
I38023894
aI38023986
aS'-'
asS'FIRRE'
p1170
(lp1171
I131691527
aI131830643
aS'-'
asS'TFDP3'
p1172
(lp1173
I133216668
aI133218348
aS'-'
asS'SSX6P'
p1174
(lp1175
I48107981
aI48120686
aS'+'
asS'PRKX-AS1'
p1176
(lp1177
I3659486
aI3668190
aS'+'
asS'MIR651'
p1178
(lp1179
I8126964
aI8127061
aS'+'
asS'GPR34'
p1180
(lp1181
I41688972
aI41697277
aS'+'
asS'PPP1R3F'
p1182
(lp1183
I49269842
aI49288093
aS'+'
asS'UXT'
p1184
(lp1185
I47651791
aI47659180
aS'-'
asS'MIRLET7F2'
p1186
(lp1187
I53557191
aI53557274
aS'-'
asS'MIR888'
p1188
(lp1189
I145994783
aI145994860
aS'-'
asS'FAM50A'
p1190
(lp1191
I154444125
aI154450654
aS'+'
asS'UBE2DNL'
p1192
(lp1193
I84934150
aI84934890
aS'+'
asS'MPP1'
p1194
(lp1195
I154778683
aI154805527
aS'-'
asS'KCNE5'
p1196
(lp1197
I109623699
aI109625168
aS'-'
asS'ATP6AP1'
p1198
(lp1199
I154428676
aI154436516
aS'+'
asS'CCDC160'
p1200
(lp1201
I134237212
aI134246207
aS'+'
asS'CACNA1F'
p1202
(lp1203
I49205062
aI49233371
aS'-'
asS'BCLAF3'
p1204
(lp1205
I19912861
aI19970264
aS'-'
asS'PPP2R3B'
p1206
(lp1207
I333932
aI386955
aS'-'
asS'MIR548I4'
p1208
(lp1209
I84225751
aI84225828
aS'-'
asS'LOC645188'
p1210
(lp1211
I141625863
aI141626731
aS'+'
asS'SRPX2'
p1212
(lp1213
I100644165
aI100671299
aS'+'
asS'GPR50-AS1'
p1214
(lp1215
I151175197
aI151177836
aS'-'
asS'DANT1'
p1216
(lp1217
I115840963
aI115905527
aS'+'
asS'DANT2'
p1218
(lp1219
I115840395
aI115969111
aS'-'
asS'MBNL3'
p1220
(lp1221
I132369314
aI132489968
aS'-'
asS'H2BFXP'
p1222
(lp1223
I104060503
aI104062938
aS'-'
asS'USP11'
p1224
(lp1225
I47232914
aI47248328
aS'+'
asS'MIR509-3'
p1226
(lp1227
I147260539
aI147260615
aS'-'
asS'MIR509-2'
p1228
(lp1229
I147258759
aI147258850
aS'-'
asS'MIR509-1'
p1230
(lp1231
I147260531
aI147260625
aS'-'
asS'LOC100132741'
p1232
(lp1233
I71697195
aI71703406
aS'+'
asS'FAM104B'
p1234
(lp1235
I55143101
aI55161195
aS'-'
asS'LAS1L'
p1236
(lp1237
I65512581
aI65534806
aS'-'
asS'WNK3'
p1238
(lp1239
I54192822
aI54358005
aS'-'
asS'CXorf51A'
p1240
(lp1241
I146809783
aI146810411
aS'+'
asS'SNORA11'
p1242
(lp1243
I54814369
aI54814500
aS'+'
asS'SLC25A6'
p1244
(lp1245
I1386151
aI1392146
aS'-'
asS'CLCN5'
p1246
(lp1247
I49922614
aI50099235
aS'+'
asS'CLCN4'
p1248
(lp1249
I10156944
aI10237659
aS'+'
asS'PJA1'
p1250
(lp1251
I69160737
aI69165522
aS'-'
asS'RPL10'
p1252
(lp1253
I154398064
aI154402339
aS'+'
asS'MIR6858'
p1254
(lp1255
I154450319
aI154450386
aS'+'
asS'ACOT9'
p1256
(lp1257
I23701055
aI23743287
aS'-'
asS'PRAF2'
p1258
(lp1259
I49071155
aI49074045
aS'-'
asS'LINC01402'
p1260
(lp1261
I120117641
aI120119700
aS'-'
asS'H2BFM'
p1262
(lp1263
I104039948
aI104042454
aS'+'
asS'MAGIX'
p1264
(lp1265
I49162842
aI49168156
aS'+'
asS'RBM41'
p1266
(lp1267
I107061887
aI107118827
aS'-'
asS'PCYT1B'
p1268
(lp1269
I24558086
aI24672862
aS'-'
asS'MIR505'
p1270
(lp1271
I139924147
aI139924231
aS'-'
asS'MIR504'
p1272
(lp1273
I138667710
aI138667793
aS'-'
asS'RBBP7'
p1274
(lp1275
I16844651
aI16870411
aS'-'
asS'PQBP1'
p1276
(lp1277
I48897911
aI48903145
aS'+'
asS'CT45A6'
p1278
(lp1279
I135794704
aI135802749
aS'-'
asS'NKAP'
p1280
(lp1281
I119925049
aI119943772
aS'-'
asS'SYP'
p1282
(lp1283
I49187811
aI49200202
aS'-'
asS'LINC00889'
p1284
(lp1285
I138614730
aI138617638
aS'-'
asS'ZNF275'
p1286
(lp1287
I153334154
aI153352926
aS'+'
asS'AMMECR1'
p1288
(lp1289
I110194185
aI110440233
aS'-'
asS'DIAPH2-AS1'
p1290
(lp1291
I97528363
aI97564535
aS'-'
asS'ZXDB'
p1292
(lp1293
I57591835
aI57597477
aS'+'
asS'TMLHE-AS1'
p1294
(lp1295
I155466539
aI155494110
aS'+'
asS'IKBKG'
p1296
(lp1297
I154542239
aI154565046
aS'+'
asS'MPC1L'
p1298
(lp1299
I40623565
aI40624139
aS'+'
asS'EMD'
p1300
(lp1301
I154379236
aI154381523
aS'+'
asS'CSF2RA'
p1302
(lp1303
I1268799
aI1309935
aS'+'
asS'DMD'
p1304
(lp1305
I31119227
aI33339609
aS'-'
asS'TEX13A'
p1306
(lp1307
I105218928
aI105220693
aS'-'
asS'GRIA3'
p1308
(lp1309
I123184242
aI123490915
aS'+'
asS'ZNF75D'
p1310
(lp1311
I135248588
aI135344087
aS'-'
asS'ARL13A'
p1312
(lp1313
I100969707
aI100990831
aS'+'
asS'ACTRT1'
p1314
(lp1315
I128050961
aI128052403
aS'-'
asS'SNORA48B'
p1316
(lp1317
I3532116
aI3532251
aS'-'
asS'PINCR'
p1318
(lp1319
I43176993
aI43226598
aS'+'
asS'ZFP92'
p1320
(lp1321
I153418322
aI153421628
aS'+'
asS'LINC02243'
p1322
(lp1323
I134949548
aI134953381
aS'+'
asS'ARHGAP4'
p1324
(lp1325
I153907375
aI153926260
aS'-'
asS'MIR1264'
p1326
(lp1327
I114652654
aI114652723
aS'+'
asS'ARHGAP6'
p1328
(lp1329
I11137544
aI11665920
aS'-'
asS'SEPT6'
p1330
(lp1331
I119615724
aI119693370
aS'-'
asS'JADE3'
p1332
(lp1333
I46912275
aI47061242
aS'+'
asS'PAGE3'
p1334
(lp1335
I55258415
aI55264916
aS'-'
asS'RGN'
p1336
(lp1337
I47078354
aI47093314
aS'+'
asS'PAGE1'
p1338
(lp1339
I49687450
aI49695993
aS'-'
asS'NXT2'
p1340
(lp1341
I109535780
aI109544698
aS'+'
asS'MIR548M'
p1342
(lp1343
I95063140
aI95063226
aS'-'
asS'SLC9A7'
p1344
(lp1345
I46599250
aI46759172
aS'-'
asS'TSPYL2'
p1346
(lp1347
I53082359
aI53088546
aS'+'
asS'NONO'
p1348
(lp1349
I71283191
aI71301171
aS'+'
asS'MIR514A3'
p1350
(lp1351
I147281942
aI147282030
aS'-'
asS'TCEAL8'
p1352
(lp1353
I103252994
aI103255193
aS'-'
asS'LINC02589'
p1354
(lp1355
I103530766
aI103554953
aS'-'
asS'AFF2'
p1356
(lp1357
I148500618
aI149000663
aS'+'
asS'LOC100126447'
p1358
(lp1359
I116810930
aI116817860
aS'-'
asS'FAM239A'
p1360
(lp1361
I3850991
aI3882351
aS'-'
asS'FAM239B'
p1362
(lp1363
I3885274
aI3920742
aS'-'
asS'PNPLA4'
p1364
(lp1365
I7898762
aI7927739
aS'-'
asS'MIR532'
p1366
(lp1367
I50003147
aI50003238
aS'+'
asS'PGK1'
p1368
(lp1369
I78104168
aI78126827
aS'+'
asS'SPANXN5'
p1370
(lp1371
I52796145
aI52797348
aS'-'
asS'GSPT2'
p1372
(lp1373
I51743384
aI51746230
aS'+'
asS'SSX8P'
p1374
(lp1375
I52622934
aI52633948
aS'+'
asS'KANTR'
p1376
(lp1377
I53094156
aI53148008
aS'+'
asS'FLJ44635'
p1378
(lp1379
I72144183
aI72161750
aS'+'
asS'MIR503HG'
p1380
(lp1381
I134543376
aI134546630
aS'-'
asS'MIR1587'
p1382
(lp1383
I39837560
aI39837613
aS'+'
asS'SCARNA9L'
p1384
(lp1385
I20136065
aI20136413
aS'-'
asS'PHKA1'
p1386
(lp1387
I72578813
aI72714181
aS'-'
asS'PHKA2'
p1388
(lp1389
I18892297
aI18984362
aS'-'
asS'UBA1'
p1390
(lp1391
I47190799
aI47215128
aS'+'
asS'FRMD7'
p1392
(lp1393
I132076985
aI132128020
aS'-'
asS'CT45A7'
p1394
(lp1395
I135794708
aI135802548
aS'-'
asS'MIR4454'
p1396
(lp1397
I92824851
aI92824903
aS'-'
asS'MIR514A1'
p1398
(lp1399
I147279246
aI147279344
aS'-'
asS'SPACA5'
p1400
(lp1401
I48004335
aI48009729
aS'+'
asS'IL13RA1'
p1402
(lp1403
I118727595
aI118794533
aS'+'
asS'MIR514A2'
p1404
(lp1405
I147281942
aI147282030
aS'-'
asS'MIR4536-1'
p1406
(lp1407
I55451494
aI55451582
aS'-'
asS'MIR4536-2'
p1408
(lp1409
I55451494
aI55451582
aS'+'
asS'VEGFD'
p1410
(lp1411
I15345595
aI15384413
aS'-'
asS'UBE2A'
p1412
(lp1413
I119574466
aI119584429
aS'+'
asS'NBDY'
p1414
(lp1415
I56729218
aI56819178
aS'+'
asS'LOC101927830'
p1416
(lp1417
I155466539
aI155494110
aS'+'
asS'PABPC1L2A'
p1418
(lp1419
I73077337
aI73079512
aS'-'
asS'GAGE1'
p1420
(lp1421
I49599012
aI49608536
aS'+'
asS'MIR3690'
p1422
(lp1423
I1293917
aI1293992
aS'+'
asS'PHF8'
p1424
(lp1425
I53936679
aI54045136
aS'-'
asS'PWWP3B'
p1426
(lp1427
I106168304
aI106208956
aS'+'
asS'PHF6'
p1428
(lp1429
I134373311
aI134428792
aS'+'
asS'AGTR2'
p1430
(lp1431
I116170704
aI116174972
aS'+'
asS'GPR173'
p1432
(lp1433
I53049323
aI53080614
aS'+'
asS'AMOT'
p1434
(lp1435
I112774876
aI112840815
aS'-'
asS'ZBTB33'
p1436
(lp1437
I120250751
aI120258396
aS'+'
asS'GPR174'
p1438
(lp1439
I79170971
aI79175317
aS'+'
asS'MIR1468'
p1440
(lp1441
I63786001
aI63786087
aS'-'
asS'SYN1'
p1442
(lp1443
I47571900
aI47619857
aS'-'
asS'XAGE5'
p1444
(lp1445
I52812203
aI52818298
aS'+'
asS'XAGE2'
p1446
(lp1447
I52369009
aI52375683
aS'+'
asS'XAGE3'
p1448
(lp1449
I52862528
aI52868088
aS'-'
asS'YY2'
p1450
(lp1451
I21855986
aI21858727
aS'+'
asS'EIF1AX'
p1452
(lp1453
I20124517
aI20141848
aS'-'
asS'SH2D1A'
p1454
(lp1455
I124346281
aI124373161
aS'+'
asS'H2AFB2'
p1456
(lp1457
I154884968
aI154885562
aS'+'
asS'MAGEC1'
p1458
(lp1459
I141903855
aI141909401
aS'+'
asS'MAGEC3'
p1460
(lp1461
I141838315
aI141897832
aS'+'
asS'MAGEC2'
p1462
(lp1463
I142202341
aI142205290
aS'-'
asS'PAGE5'
p1464
(lp1465
I55220345
aI55224108
aS'+'
asS'NDUFB11'
p1466
(lp1467
I47142215
aI47145210
aS'-'
asS'OPN1MW'
p1468
(lp1469
I154257537
aI154271805
aS'+'
asS'BCORL1'
p1470
(lp1471
I130005187
aI130058083
aS'+'
asS'DOCK11'
p1472
(lp1473
I118495908
aI118686160
aS'+'
asS'RAB39B'
p1474
(lp1475
I155258233
aI155264589
aS'-'
asS'SLC10A3'
p1476
(lp1477
I154487305
aI154490690
aS'-'
asS'CTPS2'
p1478
(lp1479
I16587998
aI16712979
aS'-'
asS'GPR101'
p1480
(lp1481
I137030147
aI137031674
aS'-'
asS'ZNF674-AS1'
p1482
(lp1483
I46545489
aI46548475
aS'+'
asS'HPRT1'
p1484
(lp1485
I134460164
aI134500668
aS'+'
asS'SPANXC'
p1486
(lp1487
I141241462
aI141242550
aS'-'
asS'CASK'
p1488
(lp1489
I41514935
aI41923034
aS'-'
asS'MAGEB10'
p1490
(lp1491
I27807989
aI27823014
aS'+'
asS'FHL1'
p1492
(lp1493
I136146701
aI136211359
aS'+'
asS'LOC101927635'
p1494
(lp1495
I48506528
aI48508839
aS'-'
asS'MMGT1'
p1496
(lp1497
I135960587
aI135974063
aS'-'
asS'GPR82'
p1498
(lp1499
I41724180
aI41730130
aS'+'
asS'NAA10'
p1500
(lp1501
I153929826
aI153935154
aS'-'
asS'MORF4L2'
p1502
(lp1503
I103675497
aI103688158
aS'-'
asS'FMR1-AS1'
p1504
(lp1505
I147909430
aI147911817
aS'-'
asS'SLC6A14'
p1506
(lp1507
I116436578
aI116461458
aS'+'
asS'RPL36A'
p1508
(lp1509
I101390889
aI101396154
aS'+'
asS'ZBED1'
p1510
(lp1511
I2486413
aI2500967
aS'-'
asS'IGBP1'
p1512
(lp1513
I70133467
aI70166323
aS'+'
asS'PDHA1'
p1514
(lp1515
I19343892
aI19361707
aS'+'
asS'EDA2R'
p1516
(lp1517
I66595639
aI66639298
aS'-'
asS'ETDA'
p1518
(lp1519
I135252060
aI135253582
aS'+'
asS'MIR660'
p1520
(lp1521
I50013240
aI50013337
aS'+'
asS'PUDP'
p1522
(lp1523
I7048919
aI7148190
aS'-'
asS'TCP11X2'
p1524
(lp1525
I102460318
aI102471812
aS'-'
asS'ETDB'
p1526
(lp1527
I135118955
aI135120526
aS'-'
asS'INE2'
p1528
(lp1529
I15785715
aI15787589
aS'-'
asS'ATRX'
p1530
(lp1531
I77504877
aI77786269
aS'-'
asS'INE1'
p1532
(lp1533
I47204847
aI47205855
aS'+'
asS'WAS'
p1534
(lp1535
I48683796
aI48691426
aS'+'
asS'CT83'
p1536
(lp1537
I116461685
aI116463033
aS'-'
asS'MIR892B'
p1538
(lp1539
I145997197
aI145997274
aS'-'
asS'FRMD8P1'
p1540
(lp1541
I65550621
aI65552421
aS'-'
asS'RAB9A'
p1542
(lp1543
I13689120
aI13709826
aS'+'
asS'PORCN'
p1544
(lp1545
I48508958
aI48520814
aS'+'
asS'LINC00850'
p1546
(lp1547
I149825707
aI149879799
aS'+'
asS'RAB9B'
p1548
(lp1549
I103776323
aI103832282
aS'-'
asS'BRDTP1'
p1550
(lp1551
I96337085
aI96337902
aS'-'
asS'LINC02154'
p1552
(lp1553
I13266047
aI13303452
aS'-'
asS'PLXNA3'
p1554
(lp1555
I154458280
aI154477779
aS'+'
asS'PBDC1'
p1556
(lp1557
I76172928
aI76178310
aS'+'
asS'CTAG1A'
p1558
(lp1559
I154585153
aI154586816
aS'+'
asS'WDR13'
p1560
(lp1561
I48597491
aI48608869
aS'+'
asS'LOC101928335'
p1562
(lp1563
I107894596
aI107935980
aS'-'
asS'TMSB15B'
p1564
(lp1565
I103918895
aI103974426
aS'+'
asS'TMSB15A'
p1566
(lp1567
I102513681
aI102516739
aS'-'
asS'PPEF1-AS1'
p1568
(lp1569
I18688643
aI18692687
aS'-'
asS'FLICR'
p1570
(lp1571
I49266220
aI49266475
aS'-'
asS'KIAA1210'
p1572
(lp1573
I119078634
aI119150579
aS'-'
asS'OCRL'
p1574
(lp1575
I129540254
aI129592560
aS'+'
asS'SAT1'
p1576
(lp1577
I23783157
aI23786223
aS'+'
asS'IL1RAPL1'
p1578
(lp1579
I28587563
aI29955900
aS'+'
asS'IL1RAPL2'
p1580
(lp1581
I104566314
aI105767829
aS'+'
asS'CSAG3'
p1582
(lp1583
I152753920
aI152760222
aS'+'
asS'MIR4328'
p1584
(lp1585
I78901193
aI78901249
aS'-'
asS'MIR4329'
p1586
(lp1587
I112780717
aI112780788
aS'-'
asS'MIR890'
p1588
(lp1589
I145994274
aI145994351
aS'-'
asS'CSAG4'
p1590
(lp1591
I152733826
aI152740983
aS'+'
asS'MOSPD2'
p1592
(lp1593
I14873404
aI14922166
aS'+'
asS'USP9X'
p1594
(lp1595
I41085634
aI41236579
aS'+'
asS'FAM236C'
p1596
(lp1597
I72912614
aI72913401
aS'+'
asS'ATP11C'
p1598
(lp1599
I139726345
aI139933017
aS'-'
asS'CT47A12'
p1600
(lp1601
I120877490
aI120932297
aS'-'
asS'CT47A11'
p1602
(lp1603
I120877490
aI120932297
aS'-'
asS'CT47A10'
p1604
(lp1605
I120877490
aI120932297
aS'-'
asS'FGD1'
p1606
(lp1607
I54445453
aI54496166
aS'-'
asS'MAGEA8-AS1'
p1608
(lp1609
I149878762
aI149897006
aS'-'
asS'S100G'
p1610
(lp1611
I16650157
aI16654668
aS'+'
asS'MID2'
p1612
(lp1613
I107825853
aI107931637
aS'+'
asS'NEXMIF'
p1614
(lp1615
I74732855
aI74925452
aS'-'
asS'PIN4'
p1616
(lp1617
I72181675
aI72263964
aS'+'
asS'TIMM17B'
p1618
(lp1619
I48893446
aI48898143
aS'-'
asS'NLRP2B'
p1620
(lp1621
I57677066
aI57680260
aS'-'
asS'PRICKLE3'
p1622
(lp1623
I49174802
aI49186400
aS'-'
asS'DHRSX'
p1624
(lp1625
I2219513
aI2500974
aS'-'
asS'LOC105373338'
p1626
(lp1627
I130802635
aI130806398
aS'+'
asS'CFAP47'
p1628
(lp1629
I35919733
aI36385317
aS'+'
asS'NAP1L2'
p1630
(lp1631
I73212300
aI73214874
aS'-'
asS'NAP1L3'
p1632
(lp1633
I93670925
aI93673683
aS'-'
asS'TMEM31'
p1634
(lp1635
I103710908
aI103714032
aS'+'
asS'NAP1L6'
p1636
(lp1637
I73126036
aI73128080
aS'-'
asS'MTRNR2L10'
p1638
(lp1639
I55181390
aI55182511
aS'-'
asS'MIR188'
p1640
(lp1641
I50003502
aI50003588
aS'+'
asS'APEX2'
p1642
(lp1643
I55000322
aI55007873
aS'+'
asS'MIR4330'
p1644
(lp1645
I151168221
aI151168326
aS'+'
asS'NDP-AS1'
p1646
(lp1647
I43949731
aI43971552
aS'+'
asS'GLRA4'
p1648
(lp1649
I103707343
aI103728624
aS'-'
asS'TSC22D3'
p1650
(lp1651
I107713221
aI107775988
aS'-'
asS'MID1IP1'
p1652
(lp1653
I38801431
aI38806530
aS'+'
asS'RBMX'
p1654
(lp1655
I136869193
aI136880780
aS'-'
asS'PIGA'
p1656
(lp1657
I15319450
aI15335554
aS'-'
asS'RPA4'
p1658
(lp1659
I96883907
aI96885451
aS'+'
asS'F8A2'
p1660
(lp1661
I154886374
aI154887490
aS'+'
asS'LRCH2'
p1662
(lp1663
I115110619
aI115234072
aS'-'
asS'POU3F4'
p1664
(lp1665
I83508260
aI83509767
aS'+'
asS'SUV39H1'
p1666
(lp1667
I48695553
aI48709015
aS'+'
asS'TBL1X'
p1668
(lp1669
I9463294
aI9719740
aS'+'
asS'GAGE2A'
p1670
(lp1671
I49589514
aI49596827
aS'+'
asS'SPANXN3'
p1672
(lp1673
I143508734
aI143517475
aS'-'
asS'CTAG2'
p1674
(lp1675
I154651971
aI154653579
aS'-'
asS'GTPBP6'
p1676
(lp1677
I304749
aI318819
aS'-'
asS'GRPR'
p1678
(lp1679
I16123300
aI16153518
aS'+'
asS'RTL5'
p1680
(lp1681
I72127110
aI72131901
aS'-'
asS'CD99P1'
p1682
(lp1683
I2609264
aI2657229
aS'+'
asS'MIR325'
p1684
(lp1685
I77005403
aI77005501
aS'-'
asS'MIR363'
p1686
(lp1687
I134169377
aI134169452
aS'-'
asS'VCX3B'
p1688
(lp1689
I8464829
aI8466510
aS'+'
asS'VCX3A'
p1690
(lp1691
I6533617
aI6535118
aS'-'
asS'HCFC1-AS1'
p1692
(lp1693
I153968764
aI153970091
aS'+'
asS'LINC01278'
p1694
(lp1695
I63426557
aI63561095
aS'-'
asS'MIR513B'
p1696
(lp1697
I147199043
aI147199127
aS'-'
asS'UTP14A'
p1698
(lp1699
I129906120
aI129929762
aS'+'
asS'FAM9B'
p1700
(lp1701
I9024231
aI9034127
aS'-'
asS'FAM9C'
p1702
(lp1703
I13035616
aI13044620
aS'-'
asS'CA5BP1'
p1704
(lp1705
I15674915
aI15703351
aS'+'
asS'FAM9A'
p1706
(lp1707
I8790795
aI8801383
aS'-'
asS'SNORA11E'
p1708
(lp1709
I52063346
aI52063473
aS'-'
asS'SNORA11D'
p1710
(lp1711
I52063346
aI52063473
aS'-'
asS'SNORA11G'
p1712
(lp1713
I54927304
aI54927435
aS'+'
asS'CXorf40A'
p1714
(lp1715
I149540973
aI149555338
aS'+'
asS'PDK3'
p1716
(lp1717
I24465226
aI24550466
aS'+'
asS'EBP'
p1718
(lp1719
I48521775
aI48528716
aS'+'
asS'MIR448'
p1720
(lp1721
I114823453
aI114823564
aS'+'
asS'LINC01201'
p1722
(lp1723
I131016468
aI131058146
aS'-'
asS'PASD1'
p1724
(lp1725
I151563534
aI151676739
aS'+'
asS'SNORA56'
p1726
(lp1727
I154774997
aI154775126
aS'+'
asS'ASB11'
p1728
(lp1729
I15281708
aI15315624
aS'-'
asS'ASB12'
p1730
(lp1731
I64224191
aI64230631
aS'-'
asS'SSX5'
p1732
(lp1733
I48186219
aI48196763
aS'-'
asS'SSX2'
p1734
(lp1735
I52751202
aI52761536
aS'+'
asS'SSX3'
p1736
(lp1737
I48346427
aI48356753
aS'-'
asS'TIMP1'
p1738
(lp1739
I47582290
aI47586791
aS'+'
asS'SSX1'
p1740
(lp1741
I48255316
aI48267444
aS'+'
asS'PNMA6A'
p1742
(lp1743
I153072413
aI153075019
aS'+'
asS'F8A3'
p1744
(lp1745
I154886374
aI154887490
aS'+'
asS'BCAP31'
p1746
(lp1747
I153700491
aI153724746
aS'-'
asS'CDX4'
p1748
(lp1749
I73447253
aI73454585
aS'+'
asS'PNMA6F'
p1750
(lp1751
I153317688
aI153321780
aS'-'
asS'LOC101059915'
p1752
(lp1753
I71667701
aI71671524
aS'+'
asS'PIH1D3'
p1754
(lp1755
I107206631
aI107244243
aS'+'
asS'MIR3672'
p1756
(lp1757
I121370971
aI121371053
aS'+'
asS'ERAS'
p1758
(lp1759
I48826512
aI48829869
aS'+'
asS'NDUFA1'
p1760
(lp1761
I119871770
aI119876666
aS'+'
asS'FAAH2'
p1762
(lp1763
I57286676
aI57489196
aS'+'
asS'MIR513A2'
p1764
(lp1765
I147225825
aI147225952
aS'-'
asS'ATP2B3'
p1766
(lp1767
I153536121
aI153582929
aS'+'
asS'LDOC1'
p1768
(lp1769
I141175745
aI141177214
aS'-'
asS'MIR513A1'
p1770
(lp1771
I147213462
aI147213591
aS'-'
asS'GAGE8'
p1772
(lp1773
I49331625
aI49338952
aS'+'
asS'CXorf58'
p1774
(lp1775
I23908005
aI23939507
aS'+'
asS'SUPT20HL2'
p1776
(lp1777
I24308214
aI24313393
aS'-'
asS'SUPT20HL1'
p1778
(lp1779
I24362682
aI24367842
aS'+'
asS'WWC3'
p1780
(lp1781
I10015754
aI10144478
aS'+'
asS'PRPS1'
p1782
(lp1783
I107628423
aI107651026
aS'+'
asS'CXorf56'
p1784
(lp1785
I119538148
aI119565434
aS'-'
asS'GAGE5'
p1786
(lp1787
I49341189
aI49529985
aS'+'
asS'GAGE4'
p1788
(lp1789
I49341181
aI49529981
aS'+'
asS'GAGE7'
p1790
(lp1791
I49341184
aI49529981
aS'+'
asS'GAGE6'
p1792
(lp1793
I49341182
aI49529981
aS'+'
asS'SPACA5B'
p1794
(lp1795
I48007740
aI48009736
aS'+'
asS'CAPN6'
p1796
(lp1797
I111245098
aI111270546
aS'-'
asS'ETDC'
p1798
(lp1799
I135309479
aI135309659
aS'+'
asS'MED14'
p1800
(lp1801
I40649542
aI40735552
aS'-'
asS'PIR'
p1802
(lp1803
I15384800
aI15493588
aS'-'
asS'FMR1NB'
p1804
(lp1805
I147981328
aI148026667
aS'+'
asS'CTAG1B'
p1806
(lp1807
I154585153
aI154586816
aS'+'
asS'MIR664B'
p1808
(lp1809
I154768595
aI154768656
aS'+'
asS'RTL9'
p1810
(lp1811
I110419056
aI110456334
aS'+'
asS'DDX3X'
p1812
(lp1813
I41333307
aI41364472
aS'+'
asS'MTM1'
p1814
(lp1815
I150568596
aI150673143
aS'+'
asS'MIR3202-1'
p1816
(lp1817
I153981096
aI153981177
aS'+'
asS'RTL4'
p1818
(lp1819
I112083024
aI112457245
aS'+'
asS'PAGE2B'
p1820
(lp1821
I55075055
aI55078903
aS'+'
asS'NKRF'
p1822
(lp1823
I119588336
aI119605883
aS'-'
asS'KLHL4'
p1824
(lp1825
I87517711
aI87670050
aS'+'
asS'TSPAN6'
p1826
(lp1827
I100627107
aI100637104
aS'-'
asS'TSPAN7'
p1828
(lp1829
I38561477
aI38688918
aS'+'
asS'FAM133A'
p1830
(lp1831
I93674012
aI93712274
aS'+'
asS'PNCK'
p1832
(lp1833
I153669732
aI153687771
aS'-'
asS'PABPC1L2B-AS1'
p1834
(lp1835
I72998387
aI73002856
aS'-'
asS'MIR548AN'
p1836
(lp1837
I106639813
aI106639896
aS'+'
asS'OTUD6A'
p1838
(lp1839
I70062490
aI70064179
aS'+'
asS'MBTPS2'
p1840
(lp1841
I21839537
aI21885423
aS'+'
asS'CCNQ'
p1842
(lp1843
I153587924
aI153599177
aS'-'
asS'HS6ST2-AS1'
p1844
(lp1845
I132667641
aI132669887
aS'+'
asS'MAGED1'
p1846
(lp1847
I51803058
aI51902356
aS'+'
asS'MAGED2'
p1848
(lp1849
I54807598
aI54816015
aS'+'
asS'LOC101928201'
p1850
(lp1851
I4627199
aI4633572
aS'-'
asS'AKAP14'
p1852
(lp1853
I119895972
aI119920716
aS'+'
asS'ACSL4'
p1854
(lp1855
I109641329
aI109733403
aS'-'
asS'SH3KBP1'
p1856
(lp1857
I19533964
aI19887626
aS'-'
asS'EGFL6'
p1858
(lp1859
I13569574
aI13633575
aS'+'
asS'MIR450A2'
p1860
(lp1861
I134540507
aI134540607
aS'-'
asS'TLR7'
p1862
(lp1863
I12867071
aI12890361
aS'+'
asS'SMPX'
p1864
(lp1865
I21705971
aI21758160
aS'-'
asS'TLR8'
p1866
(lp1867
I12906619
aI12923169
aS'+'
asS'KDM5C'
p1868
(lp1869
I53176276
aI53225422
aS'-'
asS'CT45A9'
p1870
(lp1871
I135846138
aI135854538
aS'-'
asS'CT45A8'
p1872
(lp1873
I135846497
aI135854538
aS'-'
asS'NCBP2L'
p1874
(lp1875
I107777732
aI107795777
aS'+'
asS'ATP1B4'
p1876
(lp1877
I120362084
aI120383249
aS'+'
asS'LOC101928389'
p1878
(lp1879
I17528434
aI17587160
aS'+'
asS'CT45A1'
p1880
(lp1881
I135713452
aI135723246
aS'+'
asS'MAGED4'
p1882
(lp1883
I52061826
aI52069272
aS'-'
asS'CT45A3'
p1884
(lp1885
I135760158
aI135768191
aS'-'
asS'CT45A2'
p1886
(lp1887
I135846497
aI135854538
aS'-'
asS'CT45A5'
p1888
(lp1889
I135794391
aI135802749
aS'-'
asS'MIR4770'
p1890
(lp1891
I6383905
aI6383963
aS'-'
asS'MOSPD1'
p1892
(lp1893
I134887625
aI134915344
aS'-'
asS'RBMX2'
p1894
(lp1895
I130401948
aI130413656
aS'+'
asS'NOX1'
p1896
(lp1897
I100843323
aI100874345
aS'-'
asS'BEX4'
p1898
(lp1899
I103215107
aI103217244
aS'+'
asS'SLC25A5-AS1'
p1900
(lp1901
I119466032
aI119469120
aS'-'
asS'BEX3'
p1902
(lp1903
I103376322
aI103378164
aS'+'
asS'PNMA3'
p1904
(lp1905
I153056408
aI153060467
aS'+'
asS'SRPX'
p1906
(lp1907
I38149334
aI38220924
aS'-'
asS'PNMA5'
p1908
(lp1909
I152988823
aI152994127
aS'-'
asS'PLAC1'
p1910
(lp1911
I134565842
aI134764322
aS'-'
asS'MIR223'
p1912
(lp1913
I66018869
aI66018979
aS'+'
asS'MIR221'
p1914
(lp1915
I45746156
aI45746266
aS'-'
asS'SNORA35'
p1916
(lp1917
I114630796
aI114630924
aS'+'
asS'MIR224'
p1918
(lp1919
I151958577
aI151958658
aS'-'
asS'CLDN2'
p1920
(lp1921
I106900163
aI106930861
aS'+'
asS'SNORA70'
p1922
(lp1923
I154400280
aI154400415
aS'+'
asS'HAUS7'
p1924
(lp1925
I153447664
aI153495525
aS'-'
asS'MIR3978'
p1926
(lp1927
I110082117
aI110082218
aS'+'
asS'LOC105373383'
p1928
(lp1929
I153599339
aI153599893
aS'+'
asS'TRO'
p1930
(lp1931
I54920562
aI54931431
aS'+'
asS'LANCL3'
p1932
(lp1933
I37571568
aI37677497
aS'+'
asS'FATE1'
p1934
(lp1935
I151716035
aI151723192
aS'+'
asS'ELK1'
p1936
(lp1937
I47635519
aI47650604
aS'-'
asS'TMEM187'
p1938
(lp1939
I153972539
aI153983195
aS'+'
asS'HTR2C'
p1940
(lp1941
I114584077
aI114910061
aS'+'
asS'SSX4B'
p1942
(lp1943
I48402081
aI48411910
aS'-'
asS'FAM226B'
p1944
(lp1945
I72777072
aI72779095
aS'+'
asS'SMC1A'
p1946
(lp1947
I53374148
aI53422728
aS'-'
asS'NXF5'
p1948
(lp1949
I101832111
aI101857577
aS'-'
asS'KLHL34'
p1950
(lp1951
I21655348
aI21658387
aS'-'
asS'NXF2'
p1952
(lp1953
I102247099
aI102326720
aS'+'
asS'NXF3'
p1954
(lp1955
I103075820
aI103093094
aS'-'
asS'STAG2'
p1956
(lp1957
I123960559
aI124102655
aS'+'
asS'NHSL2'
p1958
(lp1959
I71911087
aI72143574
aS'+'
asS'TFE3'
p1960
(lp1961
I49028725
aI49043517
aS'-'
asS'CXorf40B'
p1962
(lp1963
I149932196
aI149938498
aS'-'
asS'DIPK2B'
p1964
(lp1965
I45148372
aI45200901
aS'-'
asS'APLN'
p1966
(lp1967
I129645258
aI129654956
aS'-'
asS'EFHC2'
p1968
(lp1969
I44147881
aI44343677
aS'-'
asS'SAGE2P'
p1970
(lp1971
I135678665
aI135686094
aS'-'
asS'TMEM47'
p1972
(lp1973
I34627063
aI34657288
aS'-'
asS'SNX12'
p1974
(lp1975
I71059246
aI71073426
aS'-'
asS'ASMTL'
p1976
(lp1977
I1403138
aI1453762
aS'-'
asS'MAP7D3'
p1978
(lp1979
I136216815
aI136256482
aS'-'
asS'SLC25A43'
p1980
(lp1981
I119399294
aI119454474
aS'+'
asS'FGF16'
p1982
(lp1983
I77447674
aI77456522
aS'+'
asS'TAF1'
p1984
(lp1985
I71366238
aI71530361
aS'+'
asS'PPP1R2C'
p1986
(lp1987
I42777365
aI42778235
aS'-'
asS'FAM47C'
p1988
(lp1989
I37008358
aI37011666
aS'+'
asS'FAM47B'
p1990
(lp1991
I34942795
aI34944917
aS'+'
asS'FAM47A'
p1992
(lp1993
I34129751
aI34132330
aS'-'
asS'G6PD'
p1994
(lp1995
I154531389
aI154547586
aS'-'
asS'USP51'
p1996
(lp1997
I55484615
aI55489198
aS'-'
asS'ITM2A'
p1998
(lp1999
I79360383
aI79367552
aS'-'
asS'AR'
p2000
(lp2001
I67544622
aI67730619
aS'+'
asS'RNU6-8'
p2002
(lp2003
I141118030
aI141118136
aS'-'
asS'RNU6-9'
p2004
(lp2005
I141118029
aI141118136
aS'-'
asS'MIR500A'
p2006
(lp2007
I50008430
aI50008514
aS'+'
asS'MIR4666B'
p2008
(lp2009
I29574277
aI29574358
aS'+'
asS'AIFM1'
p2010
(lp2011
I130129362
aI130165887
aS'-'
asS'TCEAL9'
p2012
(lp2013
I103356451
aI103358469
aS'+'
asS'MIR500B'
p2014
(lp2015
I50010671
aI50010750
aS'+'
asS'RNU6-2'
p2016
(lp2017
I141118029
aI141118136
aS'-'
asS'LINC01546'
p2018
(lp2019
I3271819
aI3284653
aS'+'
asS'HSFX3'
p2020
(lp2021
I149548209
aI149549852
aS'-'
asS'HMGB3'
p2022
(lp2023
I150980507
aI150990775
aS'+'
asS'VBP1'
p2024
(lp2025
I155197006
aI155239841
aS'+'
asS'ARSD-AS1'
p2026
(lp2027
I2904903
aI2906122
aS'+'
asS'POF1B'
p2028
(lp2029
I85277395
aI85379665
aS'-'
asS'FAM120C'
p2030
(lp2031
I54068323
aI54183281
aS'-'
asS'FOXR2'
p2032
(lp2033
I55623399
aI55626188
aS'+'
asS'IL13RA2'
p2034
(lp2035
I115003974
aI115017644
aS'-'
asS'XKRX'
p2036
(lp2037
I100913441
aI100928909
aS'-'
asS'APOOL'
p2038
(lp2039
I85003876
aI85093315
aS'+'
asS'RNU6-7'
p2040
(lp2041
I141118030
aI141118136
aS'-'
asS'SPANXN4'
p2042
(lp2043
I143025917
aI143034280
aS'+'
asS'SCML2'
p2044
(lp2045
I18239312
aI18354724
aS'-'
asS'TENM1'
p2046
(lp2047
I124375905
aI124963817
aS'-'
asS'DDX11L16'
p2048
(lp2049
I156025657
aI156028183
aS'-'
asS'DCAF8L1'
p2050
(lp2051
I27977992
aI27981449
aS'-'
asS'PHKA1-AS1'
p2052
(lp2053
I72688948
aI72712348
aS'+'
asS'DCAF8L2'
p2054
(lp2055
I27590381
aI27749942
aS'+'
asS'MIR891A'
p2056
(lp2057
I146027793
aI146027872
aS'-'
asS'LOC101928402'
p2058
(lp2059
I123959232
aI123961341
aS'-'
asS'KRBOX4'
p2060
(lp2061
I46447188
aI46474639
aS'+'
asS'SNORD96B'
p2062
(lp2063
I110224988
aI110225060
aS'-'
asS'NDP'
p2064
(lp2065
I43948775
aI43973675
aS'-'
asS'NUP62CL'
p2066
(lp2067
I107123426
aI107206440
aS'-'
asS'IL9R'
p2068
(lp2069
I155997580
aI156010817
aS'+'
asS'RHOXF2B'
p2070
(lp2071
I120072263
aI120077693
aS'-'
asS'GNL3L'
p2072
(lp2073
I54530210
aI54567287
aS'+'
asS'GPR143'
p2074
(lp2075
I9725412
aI9765965
aS'-'
asS'SMIM9'
p2076
(lp2077
I154823347
aI154834662
aS'-'
asS'LCA10'
p2078
(lp2079
I153880671
aI153888973
aS'+'
asS'CNKSR2'
p2080
(lp2081
I21374297
aI21654695
aS'+'
asS'F8A1'
p2082
(lp2083
I154886359
aI154888061
aS'+'
asS'KDM6A'
p2084
(lp2085
I44873174
aI45112612
aS'+'
asS'MIR452'
p2086
(lp2087
I151959627
aI151959712
aS'-'
asS'FGF13'
p2088
(lp2089
I138631572
aI139205023
aS'-'
asS'PRR32'
p2090
(lp2091
I126819763
aI126821785
aS'+'
asS'CITED1'
p2092
(lp2093
I72301637
aI72307187
aS'-'
asS'LINC01186'
p2094
(lp2095
I46325923
aI46327674
aS'-'
asS'LOC101928336'
p2096
(lp2097
I119291528
aI119335610
aS'+'
asS'NRK'
p2098
(lp2099
I105822542
aI105958610
aS'+'
asS'AKAP17A'
p2100
(lp2101
I1591592
aI1602518
aS'+'
asS'MID1IP1-AS1'
p2102
(lp2103
I38801247
aI38803883
aS'-'
asS'MAGEA12'
p2104
(lp2105
I152733756
aI152737669
aS'+'
asS'FRMPD3-AS1'
p2106
(lp2107
I107512982
aI107545821
aS'-'
asS'EIF1AX-AS1'
p2108
(lp2109
I20139967
aI20140444
aS'+'
asS'SLC7A3'
p2110
(lp2111
I70925579
aI70931125
aS'-'
asS'GAGE12H'
p2112
(lp2113
I49541732
aI49549097
aS'+'
asS'GAGE12I'
p2114
(lp2115
I49341209
aI49529985
aS'+'
asS'GAGE12J'
p2116
(lp2117
I49322029
aI49329387
aS'+'
asS'TCEAL7'
p2118
(lp2119
I103330185
aI103332326
aS'+'
asS'TCEAL6'
p2120
(lp2121
I102139960
aI102142416
aS'-'
asS'BCOR'
p2122
(lp2123
I40051245
aI40177329
aS'-'
asS'TCEAL4'
p2124
(lp2125
I103576230
aI103587736
aS'+'
asS'MIR1321'
p2126
(lp2127
I85835779
aI85835858
aS'+'
asS'GAGE12B'
p2128
(lp2129
I49341182
aI49529921
aS'+'
asS'GAGE12C'
p2130
(lp2131
I49560841
aI49568208
aS'+'
asS'GAGE12D'
p2132
(lp2133
I49322025
aI49529995
aS'+'
asS'GAGE12E'
p2134
(lp2135
I49560841
aI49568208
aS'+'
asS'GAGE12F'
p2136
(lp2137
I49341113
aI49529985
aS'+'
asS'GAGE12G'
p2138
(lp2139
I49322033
aI49529985
aS'+'
asS'LOC101928128'
p2140
(lp2141
I85210705
aI85219289
aS'+'
asS'MIR545'
p2142
(lp2143
I74287103
aI74287209
aS'-'
asS'RHOXF1'
p2144
(lp2145
I120109052
aI120115937
aS'-'
asS'LINC00629'
p2146
(lp2147
I134550023
aI134560398
aS'+'
asS'UPF3B'
p2148
(lp2149
I119834025
aI119853028
aS'-'
asS'LINC00102'
p2150
(lp2151
I2612990
aI2615347
aS'-'
asS'RPL39'
p2152
(lp2153
I119786503
aI119791659
aS'-'
asS'GLUD2'
p2154
(lp2155
I121047607
aI121049942
aS'+'
asS'LINC00106'
p2156
(lp2157
I1397024
aI1399398
aS'+'
asS'FAM236A'
p2158
(lp2159
I72781864
aI72782660
aS'-'
asS'LINC00269'
p2160
(lp2161
I69179556
aI69209924
aS'+'
asS'CT47A7'
p2162
(lp2163
I120953282
aI120956600
aS'-'
asS'TMLHE'
p2164
(lp2165
I155489010
aI155612952
aS'-'
asS'MAGEB18'
p2166
(lp2167
I26138342
aI26140736
aS'+'
asS'LOC105373311'
p2168
(lp2169
I109732510
aI109734958
aS'+'
asS'SLC16A2'
p2170
(lp2171
I74421492
aI74533929
aS'+'
asS'LOC101927476'
p2172
(lp2173
I40262916
aI40287721
aS'+'
asS'TMSB4X'
p2174
(lp2175
I12975106
aI12977227
aS'+'
asS'DCAF12L2'
p2176
(lp2177
I126163498
aI126166097
aS'-'
asS'CCDC22'
p2178
(lp2179
I49235466
aI49250526
aS'+'
asS'RHOXF2'
p2180
(lp2181
I120072263
aI120077742
aS'-'
asS'MAGEB16'
p2182
(lp2183
I35798341
aI35803735
aS'+'
asS'MAGEB17'
p2184
(lp2185
I16167480
aI16171393
aS'+'
asS'MSN'
p2186
(lp2187
I65667643
aI65741931
aS'+'
asS'GPR50'
p2188
(lp2189
I151176583
aI151181465
aS'+'
asS'SRD5A1P1'
p2190
(lp2191
I139446818
aI139448973
aS'+'
asS'BMP15'
p2192
(lp2193
I50910734
aI50916641
aS'+'
asS'MIR676'
p2194
(lp2195
I70022856
aI70022923
aS'+'
asS'BEND2'
p2196
(lp2197
I18162930
aI18220904
aS'-'
asS'ZC3H12B'
p2198
(lp2199
I65488734
aI65507887
aS'+'
asS'AWAT1'
p2200
(lp2201
I70234654
aI70240661
aS'+'
asS'AWAT2'
p2202
(lp2203
I70040541
aI70049938
aS'-'
asS'LINC01285'
p2204
(lp2205
I118839555
aI118882014
aS'+'
asS'ZRSR2'
p2206
(lp2207
I15790450
aI15823259
aS'+'
asS'PRPS2'
p2208
(lp2209
I12791354
aI12824227
aS'+'
asS'IDH3G'
p2210
(lp2211
I153785765
aI153794523
aS'-'
asS'SERPINA7'
p2212
(lp2213
I106033198
aI106038727
aS'-'
asS'UBQLN2'
p2214
(lp2215
I56563592
aI56567010
aS'+'
asS'MIR6857'
p2216
(lp2217
I53405672
aI53405765
aS'-'
asS'CDR1'
p2218
(lp2219
I140783259
aI140784558
aS'-'
asS'TSR2'
p2220
(lp2221
I54440374
aI54448027
aS'+'
asS'FAM155B'
p2222
(lp2223
I69505234
aI69532508
aS'+'
asS'PLCXD1'
p2224
(lp2225
I276323
aI303355
aS'+'
asS'DGKK'
p2226
(lp2227
I50365406
aI50470738
aS'-'
asS'LOC101928627'
p2228
(lp2229
I36365625
aI36440292
aS'-'
asS'SCARNA23'
p2230
(lp2231
I24744440
aI24744570
aS'+'
asS'MIR105-2'
p2232
(lp2233
I152394411
aI152394492
aS'-'
asS'MIR105-1'
p2234
(lp2235
I152392218
aI152392299
aS'-'
asS'GS1-600G8.3'
p2236
(lp2237
I13310651
aI13319933
aS'+'
asS'ZNF449'
p2238
(lp2239
I135344770
aI135363413
aS'+'
asS'MIR222'
p2240
(lp2241
I45747014
aI45747124
aS'-'
asS'PLS3'
p2242
(lp2243
I115560849
aI115650859
aS'+'
asS'CPXCR1'
p2244
(lp2245
I88747224
aI88754784
aS'+'
asS'PIM2'
p2246
(lp2247
I48913181
aI48919136
aS'-'
asS'BEX2'
p2248
(lp2249
I103309345
aI103311046
aS'-'
asS'BEX1'
p2250
(lp2251
I103062652
aI103064240
aS'-'
asS'RRAGB'
p2252
(lp2253
I55717676
aI55758774
aS'+'
asS'SHOX'
p2254
(lp2255
I624343
aI659411
aS'+'
asS'USP27X'
p2256
(lp2257
I49879866
aI49882564
aS'+'
asS'PGRMC1'
p2258
(lp2259
I119236244
aI119244466
aS'+'
asS'MAGEA10-MAGEA5'
p2260
(lp2261
I152114048
aI152138578
aS'-'
asS'TENT5D'
p2262
(lp2263
I80335503
aI80445311
aS'+'
asS'LUZP4'
p2264
(lp2265
I115289716
aI115307556
aS'+'
asS'MAP7D2'
p2266
(lp2267
I20006712
aI20116996
aS'-'
asS'GPC3'
p2268
(lp2269
I133535745
aI133985646
aS'-'
asS'GPC4'
p2270
(lp2271
I133301035
aI133415177
aS'-'
asS'TMEM164'
p2272
(lp2273
I110002634
aI110184232
aS'+'
asS'LINC01545'
p2274
(lp2275
I46887418
aI46899704
aS'-'
asS'HEPH'
p2276
(lp2277
I66162548
aI66267388
aS'+'
asS'DACH2'
p2278
(lp2279
I86148450
aI86832602
aS'+'
asS'SATL1'
p2280
(lp2281
I85092285
aI85108968
aS'-'
asS'LOC105373378'
p2282
(lp2283
I153352028
aI153360109
aS'+'
asS'RHOXF1-AS1'
p2284
(lp2285
I120036235
aI120146855
aS'+'
asS'PCSK1N'
p2286
(lp2287
I48831091
aI48835638
aS'-'
asS'SYP-AS1'
p2288
(lp2289
I49198838
aI49202454
aS'+'
asS'RAP2C-AS1'
p2290
(lp2291
I132218506
aI132432811
aS'+'
asS'TAB3'
p2292
(lp2293
I30827441
aI30889394
aS'-'
asS'CCDC120'
p2294
(lp2295
I49053431
aI49069858
aS'+'
asS'GAGE10'
p2296
(lp2297
I49303645
aI49319844
aS'+'
asS'GAGE13'
p2298
(lp2299
I49331602
aI49338952
aS'+'
asS'AMER1'
p2300
(lp2301
I64185116
aI64205708
aS'-'
asS'LOC729609'
p2302
(lp2303
I19986816
aI19989779
aS'-'
asS'MXRA5'
p2304
(lp2305
I3308565
aI3346652
aS'-'
asS'LOC100129291'
p2306
(lp2307
I71662990
aI71666868
aS'-'
asS'H2BFWT'
p2308
(lp2309
I104011146
aI104013687
aS'-'
asS'MAGEA2B'
p2310
(lp2311
I152714585
aI152718607
aS'+'
as.