(dp1
S'ZFY'
p2
(lp3
I2935070
aI2982506
aS'+'
asS'CRLF2'
p4
(lp5
I1190495
aI1212723
aS'-'
asS'PPP2R3B'
p6
(lp7
I333932
aI386955
aS'-'
asS'MIR6089'
p8
(lp9
I2609190
aI2609254
aS'+'
asS'RBMY1E'
p10
(lp11
I21880075
aI21894486
aS'-'
asS'TSPY4'
p12
(lp13
I9337509
aI9340278
aS'+'
asS'TTTY6B'
p14
(lp15
I22144986
aI22146834
aS'+'
asS'EIF1AY'
p16
(lp17
I20575710
aI20593154
aS'+'
asS'RBMY1A1'
p18
(lp19
I21880075
aI21894526
aS'-'
asS'RBMY2EP'
p20
(lp21
I21395147
aI21401562
aS'-'
asS'VCY1B'
p22
(lp23
I13985771
aI13986508
aS'-'
asS'PRY'
p24
(lp25
I22071755
aI22096007
aS'-'
asS'RBMY1A3P'
p26
(lp27
I9317060
aI9322874
aS'-'
asS'DAZ3'
p28
(lp29
I24833819
aI24907040
aS'+'
asS'DAZ2'
p30
(lp31
I24833842
aI24907040
aS'+'
asS'DAZ1'
p32
(lp33
I23129354
aI23199092
aS'-'
asS'DDX3Y'
p34
(lp35
I12903998
aI12920478
aS'+'
asS'DHRSX'
p36
(lp37
I2219513
aI2500974
aS'-'
asS'DAZ4'
p38
(lp39
I24833819
aI24907040
aS'+'
asS'TTTY8B'
p40
(lp41
I6471030
aI6473630
aS'-'
asS'PRY2'
p42
(lp43
I22071755
aI22096007
aS'-'
asS'SLC25A6'
p44
(lp45
I1386151
aI1392146
aS'-'
asS'TTTY7B'
p46
(lp47
I6449467
aI6457906
aS'+'
asS'CDY1B'
p48
(lp49
I24045229
aI24048014
aS'-'
asS'HSFY1'
p50
(lp51
I18731439
aI18773715
aS'-'
asS'HSFY2'
p52
(lp53
I18731439
aI18773735
aS'-'
asS'KDM5D'
p54
(lp55
I19705414
aI19744939
aS'-'
asS'FAM41AY1'
p56
(lp57
I17500957
aI17516742
aS'+'
asS'LINC00102'
p58
(lp59
I2612990
aI2615347
aS'-'
asS'FAM41AY2'
p60
(lp61
I17500957
aI17516742
aS'+'
asS'CSF2RA'
p62
(lp63
I1268799
aI1309935
aS'+'
asS'FAM224B'
p64
(lp65
I18326553
aI18330850
aS'+'
asS'FAM224A'
p66
(lp67
I18326532
aI18330826
aS'+'
asS'GOLGA2P3Y'
p68
(lp69
I24209966
aI24214831
aS'-'
asS'AMELY'
p70
(lp71
I6865917
aI6874027
aS'-'
asS'RBMY3AP'
p72
(lp73
I9610720
aI9615153
aS'-'
asS'ASMT'
p74
(lp75
I1595454
aI1643081
aS'+'
asS'TTTY4C'
p76
(lp77
I22936454
aI22973284
aS'+'
asS'TTTY4B'
p78
(lp79
I22936454
aI22973284
aS'+'
asS'LOC100652931'
p80
(lp81
I22316677
aI22320384
aS'+'
asS'LINC00685'
p82
(lp83
I319144
aI321319
aS'+'
asS'NLGN4Y'
p84
(lp85
I14522615
aI14845653
aS'+'
asS'RPS4Y2'
p86
(lp87
I20756067
aI20781032
aS'+'
asS'GOLGA2P2Y'
p88
(lp89
I24209966
aI24214831
aS'-'
asS'CSPG4P1Y'
p90
(lp91
I24183433
aI24187231
aS'-'
asS'ASMTL'
p92
(lp93
I1403138
aI1453762
aS'-'
asS'TSPY10'
p94
(lp95
I9337463
aI9340278
aS'+'
asS'XGY2'
p96
(lp97
I2752295
aI2774996
aS'+'
asS'RBMY2FP'
p98
(lp99
I22308858
aI22316205
aS'+'
asS'MIR3690'
p100
(lp101
I1293917
aI1293992
aS'+'
asS'TXLNGY'
p102
(lp103
I19567357
aI19607170
aS'+'
asS'LINC00280'
p104
(lp105
I6357218
aI6361413
aS'-'
asS'BCORP1'
p106
(lp107
I19455430
aI19503153
aS'-'
asS'XKRY'
p108
(lp109
I17768979
aI17770560
aS'-'
asS'SPRY3'
p110
(lp111
I56954254
aI56968977
aS'+'
asS'DDX11L16'
p112
(lp113
I57212177
aI57214703
aS'-'
asS'CDY2A'
p114
(lp115
I17878260
aI17880220
aS'-'
asS'CDY2B'
p116
(lp117
I17878259
aI17880219
aS'-'
asS'ZFY-AS1'
p118
(lp119
I2966818
aI3002626
aS'-'
asS'IL9R'
p120
(lp121
I57184100
aI57197337
aS'+'
asS'RPS4Y1'
p122
(lp123
I2841581
aI2866956
aS'+'
asS'TTTY13'
p124
(lp125
I21583599
aI21594666
aS'-'
asS'LOC101929148'
p126
(lp127
I22101691
aI22147484
aS'-'
asS'TTTY2B'
p128
(lp129
I6406243
aI6428444
aS'-'
asS'XKRY2'
p130
(lp131
I17768979
aI17770560
aS'-'
asS'TTTY17A'
p132
(lp133
I22851583
aI22852715
aS'+'
asS'ZBED1'
p134
(lp135
I2486413
aI2500967
aS'-'
asS'AKAP17A'
p136
(lp137
I1591592
aI1602518
aS'+'
asS'TTTY9A'
p138
(lp139
I18581205
aI18590521
aS'-'
asS'TTTY23B'
p140
(lp141
I6242445
aI6243610
aS'-'
asS'IL3RA'
p142
(lp143
I1336615
aI1382689
aS'+'
asS'TSPY8'
p144
(lp145
I9337509
aI9340278
aS'+'
asS'TTTY21'
p146
(lp147
I6443433
aI6447077
aS'+'
asS'TTTY20'
p148
(lp149
I9329879
aI9334832
aS'-'
asS'TTTY23'
p150
(lp151
I6242445
aI6243610
aS'-'
asS'SRY'
p152
(lp153
I2786854
aI2787741
aS'-'
asS'TSPY3'
p154
(lp155
I9337463
aI9340278
aS'+'
asS'TSPY2'
p156
(lp157
I6246222
aI6249012
aS'+'
asS'TSPY1'
p158
(lp159
I9337463
aI9340278
aS'+'
asS'TTTY2'
p160
(lp161
I6406243
aI6428444
aS'-'
asS'TTTY3'
p162
(lp163
I25728489
aI25733388
aS'+'
asS'TTTY1'
p164
(lp165
I6390400
aI6411564
aS'+'
asS'TTTY6'
p166
(lp167
I22144964
aI22146831
aS'+'
asS'TTTY7'
p168
(lp169
I6449467
aI6457906
aS'+'
asS'TTTY4'
p170
(lp171
I22936454
aI22973284
aS'+'
asS'TTTY5'
p172
(lp173
I22296797
aI22298876
aS'-'
asS'TTTY3B'
p174
(lp175
I25728489
aI25733388
aS'+'
asS'TTTY8'
p176
(lp177
I6471030
aI6473630
aS'-'
asS'CD99'
p178
(lp179
I2691132
aI2741309
aS'+'
asS'LINC00106'
p180
(lp181
I1397024
aI1399398
aS'+'
asS'WASIR1'
p182
(lp183
I57201083
aI57203350
aS'-'
asS'TTTY14'
p184
(lp185
I18872500
aI19077547
aS'-'
asS'TTTY15'
p186
(lp187
I12662366
aI12692224
aS'+'
asS'TTTY16'
p188
(lp189
I7699356
aI7701247
aS'-'
asS'TTTY10'
p190
(lp191
I20465667
aI20519228
aS'-'
asS'TTTY11'
p192
(lp193
I8783319
aI8817382
aS'-'
asS'TTTY12'
p194
(lp195
I7804923
aI7810682
aS'+'
asS'PCDH11Y'
p196
(lp197
I5056089
aI5742228
aS'+'
asS'TMSB4Y'
p198
(lp199
I13703566
aI13706022
aS'+'
asS'TTTY17B'
p200
(lp201
I22851583
aI22852715
aS'+'
asS'TTTY17C'
p202
(lp203
I22851583
aI22852715
aS'+'
asS'TTTY18'
p204
(lp205
I8683369
aI8683878
aS'-'
asS'TTTY19'
p206
(lp207
I8704471
aI8705283
aS'+'
asS'TTTY9B'
p208
(lp209
I18581205
aI18590521
aS'-'
asS'USP9Y'
p210
(lp211
I12701230
aI12860843
aS'+'
asS'PRKY'
p212
(lp213
I7273971
aI7381547
aS'+'
asS'RBMY1J'
p214
(lp215
I22403409
aI22417649
aS'+'
asS'BPY2'
p216
(lp217
I25030900
aI25052104
aS'-'
asS'RBMY1B'
p218
(lp219
I21880307
aI21894526
aS'-'
asS'ASMTL-AS1'
p220
(lp221
I1400530
aI1415421
aS'+'
asS'RBMY1F'
p222
(lp223
I22308862
aI22417881
aS'+'
asS'PLCXD1'
p224
(lp225
I276323
aI303355
aS'+'
asS'RBMY1D'
p226
(lp227
I21880075
aI21894526
aS'-'
asS'TGIF2LY'
p228
(lp229
I3579084
aI3580041
aS'+'
asS'GYG2P1'
p230
(lp231
I12406115
aI12421590
aS'-'
asS'LINC00278'
p232
(lp233
I3002995
aI3102272
aS'+'
asS'LINC00279'
p234
(lp235
I8638293
aI8645129
aS'+'
asS'FAM197Y2'
p236
(lp237
I9369856
aI9375462
aS'-'
asS'FAM197Y3'
p238
(lp239
I9499340
aI9504941
aS'-'
asS'FAM197Y6'
p240
(lp241
I9390190
aI9395808
aS'-'
asS'FAM197Y7'
p242
(lp243
I9369856
aI9375462
aS'-'
asS'FAM197Y4'
p244
(lp245
I9369856
aI9375462
aS'-'
asS'FAM197Y5'
p246
(lp247
I9369856
aI9375462
aS'-'
asS'SHOX'
p248
(lp249
I624343
aI659411
aS'+'
asS'FAM197Y8'
p250
(lp251
I9369856
aI9375462
aS'-'
asS'FAM197Y9'
p252
(lp253
I6258332
aI6263935
aS'-'
asS'CDY1'
p254
(lp255
I24045229
aI24048014
aS'-'
asS'P2RY8'
p256
(lp257
I1462572
aI1537144
aS'-'
asS'GTPBP6'
p258
(lp259
I304749
aI318819
aS'-'
asS'VCY'
p260
(lp261
I13985771
aI13986512
aS'-'
asS'UTY'
p262
(lp263
I13248378
aI13480670
aS'-'
asS'CD99P1'
p264
(lp265
I2609264
aI2657229
aS'+'
asS'TTTY21B'
p266
(lp267
I6443433
aI6447077
aS'+'
asS'TBL1Y'
p268
(lp269
I6910685
aI7091683
aS'+'
asS'VAMP7'
p270
(lp271
I57067799
aI57130289
aS'+'
asS'TTTY22'
p272
(lp273
I9801152
aI9813245
aS'+'
asS'PRORY'
p274
(lp275
I21382973
aI21386360
aS'-'
asS'NLGN4Y-AS1'
p276
(lp277
I14793641
aI14804033
aS'-'
asS'BPY2B'
p278
(lp279
I25030900
aI25052104
aS'-'
asS'BPY2C'
p280
(lp281
I25030900
aI25052104
aS'-'
asS'TTTY1B'
p282
(lp283
I6390400
aI6411564
aS'+'
as.