(dp1
S'ZFY'
p2
(lp3
I2935070
aI2982506
aS'+'
aI3522
aI3850
aI4210
aI4530
aI4876
aI5233
aI5546
aI5867
aI6214
asS'CRLF2'
p4
(lp5
I1190495
aI1212723
aS'-'
aI0
aI0
aI0
aI0
aI0
aI0
aI0
aI0
aI0
asS'PPP2R3B'
p6
(lp7
I333932
aI386955
aS'-'
aI0
aI0
aI0
aI0
aI0
aI0
aI0
aI0
aI0
asS'MIR6089'
p8
(lp9
I2609190
aI2609254
aS'+'
aI0
aI0
aI0
aI0
aI0
aI0
aI0
aI0
aI0
asS'RBMY1E'
p10
(lp11
I21880075
aI21894486
aS'-'
aI1105
aI1272
aI1606
aI1985
aI2359
aI2670
aI2893
aI3271
aI3692
asS'TSPY4'
p12
(lp13
I9337509
aI9340278
aS'+'
aI84
aI269
aI654
aI894
aI1299
aI1703
aI2064
aI2232
aI2667
asS'TTTY6B'
p14
(lp15
I22144986
aI22146834
aS'+'
aI67
aI257
aI443
aI608
aI780
aI950
aI1120
aI1322
aI1496
asS'EIF1AY'
p16
(lp17
I20575710
aI20593154
aS'+'
aI1446
aI1782
aI2156
aI2538
aI2870
aI3093
aI3516
aI3831
aI4146
asS'RBMY1A1'
p18
(lp19
I21880075
aI21894526
aS'-'
aI1105
aI1275
aI1611
aI1988
aI2360
aI2672
aI2893
aI3275
aI3697
asS'RBMY2EP'
p20
(lp21
I21395147
aI21401562
aS'-'
aI536
aI793
aI987
aI1456
aI1912
aI2318
aI2618
aI3016
aI3412
asS'VCY1B'
p22
(lp23
I13985771
aI13986508
aS'-'
aI11
aI390
aI689
aI1046
aI1496
aI1815
aI2089
aI2416
aI2745
asS'PRY'
p24
(lp25
I22071755
aI22096007
aS'-'
aI1378
aI1555
aI1754
aI1960
aI2135
aI2295
aI2465
aI2639
aI2803
asS'RBMY1A3P'
p26
(lp27
I9317060
aI9322874
aS'-'
aI490
aI706
aI1115
aI1265
aI1470
aI1791
aI2186
aI2326
aI2512
asS'DAZ3'
p28
(lp29
I24833819
aI24907040
aS'+'
aI6034
aI6370
aI6715
aI7055
aI7410
aI7731
aI8114
aI8583
aI9041
asS'DAZ2'
p30
(lp31
I24833842
aI24907040
aS'+'
aI6034
aI6369
aI6713
aI7054
aI7410
aI7728
aI8113
aI8579
aI9038
asS'DAZ1'
p32
(lp33
I23129354
aI23199092
aS'-'
aI5653
aI5990
aI6352
aI6674
aI7030
aI7347
aI7734
aI8200
aI8662
asS'DDX3Y'
p34
(lp35
I12903998
aI12920478
aS'+'
aI1290
aI1692
aI2023
aI2357
aI2717
aI3081
aI3347
aI3697
aI4063
asS'DHRSX'
p36
(lp37
I2219513
aI2500974
aS'-'
aI0
aI0
aI0
aI0
aI0
aI0
aI0
aI0
aI0
asS'DAZ4'
p38
(lp39
I24833819
aI24907040
aS'+'
aI6034
aI6370
aI6715
aI7055
aI7410
aI7731
aI8114
aI8583
aI9041
asS'TTTY8B'
p40
(lp41
I6471030
aI6473630
aS'-'
aI98
aI438
aI734
aI987
aI1270
aI1701
aI2130
aI2458
aI2796
asS'PRY2'
p42
(lp43
I22071755
aI22096007
aS'-'
aI1378
aI1555
aI1754
aI1960
aI2135
aI2295
aI2465
aI2639
aI2803
asS'SLC25A6'
p44
(lp45
I1386151
aI1392146
aS'-'
aI0
aI0
aI0
aI0
aI0
aI0
aI0
aI0
aI0
asS'TTTY7B'
p46
(lp47
I6449467
aI6457906
aS'+'
aI324
aI517
aI694
aI854
aI1134
aI1291
aI1479
aI1638
aI1827
asS'CDY1B'
p48
(lp49
I24045229
aI24048014
aS'-'
aI169
aI512
aI937
aI1223
aI1480
aI1793
aI2117
aI2569
aI3043
asS'HSFY1'
p50
(lp51
I18731439
aI18773715
aS'-'
aI2895
aI3366
aI3777
aI4305
aI4627
aI4944
aI5256
aI5640
aI6036
asS'HSFY2'
p52
(lp53
I18731439
aI18773735
aS'-'
aI2896
aI3367
aI3777
aI4307
aI4629
aI4944
aI5256
aI5643
aI6036
asS'KDM5D'
p54
(lp55
I19705414
aI19744939
aS'-'
aI2901
aI3332
aI3588
aI3980
aI4359
aI4751
aI5065
aI5390
aI5725
asS'FAM41AY1'
p56
(lp57
I17500957
aI17516742
aS'+'
aI1113
aI1413
aI1724
aI2155
aI2428
aI2827
aI3169
aI3663
aI4058
asS'LINC00102'
p58
(lp59
I2612990
aI2615347
aS'-'
aI0
aI0
aI0
aI0
aI0
aI0
aI0
aI0
aI0
asS'FAM41AY2'
p60
(lp61
I17500957
aI17516742
aS'+'
aI1113
aI1413
aI1724
aI2155
aI2428
aI2827
aI3169
aI3663
aI4058
asS'CSF2RA'
p62
(lp63
I1268799
aI1309935
aS'+'
aI0
aI0
aI0
aI0
aI0
aI0
aI0
aI0
aI0
asS'FAM224B'
p64
(lp65
I18326553
aI18330850
aS'+'
aI203
aI420
aI728
aI1028
aI1293
aI1615
aI1965
aI2194
aI2454
asS'FAM224A'
p66
(lp67
I18326532
aI18330826
aS'+'
aI201
aI418
aI727
aI1027
aI1292
aI1617
aI1965
aI2194
aI2453
asS'GOLGA2P3Y'
p68
(lp69
I24209966
aI24214831
aS'-'
aI134
aI394
aI685
aI1017
aI1353
aI1763
aI2094
aI2364
aI2822
asS'AMELY'
p70
(lp71
I6865917
aI6874027
aS'-'
aI615
aI1012
aI1376
aI1759
aI2042
aI2333
aI2608
aI2889
aI3102
asS'RBMY3AP'
p72
(lp73
I9610720
aI9615153
aS'-'
aI373
aI788
aI1089
aI1376
aI1832
aI2247
aI2568
aI2964
aI3303
asS'ASMT'
p74
(lp75
I1595454
aI1643081
aS'+'
aI0
aI0
aI0
aI0
aI0
aI0
aI0
aI0
aI0
asS'TTTY4C'
p76
(lp77
I22936454
aI22973284
aS'+'
aI2378
aI2718
aI3068
aI3384
aI3674
aI4003
aI4325
aI4649
aI4955
asS'TTTY4B'
p78
(lp79
I22936454
aI22973284
aS'+'
aI2378
aI2718
aI3068
aI3384
aI3674
aI4003
aI4325
aI4649
aI4955
asS'LOC100652931'
p80
(lp81
I22316677
aI22320384
aS'+'
aI273
aI685
aI961
aI1246
aI1530
aI1838
aI2246
aI2713
aI3172
asS'LINC00685'
p82
(lp83
I319144
aI321319
aS'+'
aI0
aI0
aI0
aI0
aI0
aI0
aI0
aI0
aI0
asS'NLGN4Y'
p84
(lp85
I14522615
aI14845653
aS'+'
aI23164
aI23539
aI23936
aI24219
aI24510
aI24840
aI25103
aI25456
aI25785
asS'RPS4Y2'
p86
(lp87
I20756067
aI20781032
aS'+'
aI1353
aI1598
aI1863
aI2086
aI2303
aI2577
aI2803
aI3166
aI3538
asS'GOLGA2P2Y'
p88
(lp89
I24209966
aI24214831
aS'-'
aI134
aI394
aI685
aI1017
aI1353
aI1763
aI2094
aI2364
aI2822
asS'CSPG4P1Y'
p90
(lp91
I24183433
aI24187231
aS'-'
aI72
aI174
aI421
aI740
aI992
aI1128
aI1336
aI1609
aI1900
asS'ASMTL'
p92
(lp93
I1403138
aI1453762
aS'-'
aI0
aI0
aI0
aI0
aI0
aI0
aI0
aI0
aI0
asS'TSPY10'
p94
(lp95
I9337463
aI9340278
aS'+'
aI85
aI272
aI656
aI899
aI1302
aI1707
aI2072
aI2237
aI2670
asS'XGY2'
p96
(lp97
I2752295
aI2774996
aS'+'
aI0
aI0
aI0
aI0
aI0
aI0
aI0
aI0
aI0
asS'RBMY2FP'
p98
(lp99
I22308858
aI22316205
aS'+'
aI588
aI762
aI1108
aI1322
aI1725
aI2178
aI2638
aI3047
aI3444
asS'MIR3690'
p100
(lp101
I1293917
aI1293992
aS'+'
aI0
aI0
aI0
aI0
aI0
aI0
aI0
aI0
aI0
asS'TXLNGY'
p102
(lp103
I19567357
aI19607170
aS'+'
aI3212
aI3633
aI3973
aI4328
aI4642
aI5054
aI5374
aI5775
aI6112
asS'LINC00280'
p104
(lp105
I6357218
aI6361413
aS'-'
aI339
aI564
aI751
aI928
aI1142
aI1358
aI1616
aI1796
aI1969
asS'BCORP1'
p106
(lp107
I19455430
aI19503153
aS'-'
aI3213
aI3483
aI3807
aI4121
aI4467
aI4802
aI5169
aI5574
aI5861
asS'XKRY'
p108
(lp109
I17768979
aI17770560
aS'-'
aI142
aI529
aI938
aI1548
aI1965
aI2401
aI2751
aI3079
aI3330
asS'SPRY3'
p110
(lp111
I56954254
aI56968977
aS'+'
aI0
aI0
aI0
aI0
aI0
aI0
aI0
aI0
aI0
asS'DDX11L16'
p112
(lp113
I57212177
aI57214703
aS'-'
aI0
aI0
aI0
aI0
aI0
aI0
aI0
aI0
aI0
asS'CDY2A'
p114
(lp115
I17878260
aI17880220
aS'-'
aI91
aI431
aI834
aI1090
aI1351
aI1669
aI2064
aI2460
aI2949
asS'CDY2B'
p116
(lp117
I17878259
aI17880219
aS'-'
aI91
aI431
aI834
aI1090
aI1351
aI1668
aI2064
aI2460
aI2949
asS'ZFY-AS1'
p118
(lp119
I2966818
aI3002626
aS'-'
aI2641
aI2883
aI3201
aI3509
aI3805
aI4178
aI4450
aI4799
aI5140
asS'IL9R'
p120
(lp121
I57184100
aI57197337
aS'+'
aI0
aI0
aI0
aI0
aI0
aI0
aI0
aI0
aI0
asS'RPS4Y1'
p122
(lp123
I2841581
aI2866956
aS'+'
aI1391
aI1666
aI2071
aI2365
aI2737
aI3058
aI3399
aI3667
aI3988
asS'LOC101929148'
p124
(lp125
I22101691
aI22147484
aS'-'
aI1643
aI1795
aI1964
aI2230
aI2614
aI3015
aI3398
aI3790
aI3955
asS'TTTY2B'
p126
(lp127
I6406243
aI6428444
aS'-'
aI781
aI1031
aI1220
aI1396
aI1580
aI1775
aI1960
aI2168
aI2347
asS'XKRY2'
p128
(lp129
I17768979
aI17770560
aS'-'
aI142
aI529
aI938
aI1548
aI1965
aI2401
aI2751
aI3079
aI3330
asS'TTTY17A'
p130
(lp131
I22851583
aI22852715
aS'+'
aI54
aI383
aI739
aI1095
aI1414
aI1715
aI2028
aI2357
aI2696
asS'ZBED1'
p132
(lp133
I2486413
aI2500967
aS'-'
aI0
aI0
aI0
aI0
aI0
aI0
aI0
aI0
aI0
asS'AKAP17A'
p134
(lp135
I1591592
aI1602518
aS'+'
aI0
aI0
aI0
aI0
aI0
aI0
aI0
aI0
aI0
asS'TTTY9A'
p136
(lp137
I18581205
aI18590521
aS'-'
aI619
aI980
aI1285
aI1580
aI1952
aI2278
aI2647
aI2969
aI3275
asS'TTTY23B'
p138
(lp139
I6242445
aI6243610
aS'-'
aI43
aI156
aI465
aI758
aI1121
aI1235
aI1515
aI1884
aI2266
asS'IL3RA'
p140
(lp141
I1336615
aI1382689
aS'+'
aI0
aI0
aI0
aI0
aI0
aI0
aI0
aI0
aI0
asS'TSPY8'
p142
(lp143
I9337509
aI9340278
aS'+'
aI84
aI269
aI654
aI894
aI1299
aI1703
aI2064
aI2232
aI2667
asS'TTTY21'
p144
(lp145
I6443433
aI6447077
aS'+'
aI129
aI306
aI496
aI744
aI914
aI1100
aI1256
aI1444
aI1627
asS'TTTY20'
p146
(lp147
I9329879
aI9334832
aS'-'
aI397
aI498
aI798
aI1089
aI1453
aI1554
aI1837
aI2131
aI2498
asS'TTTY23'
p148
(lp149
I6242445
aI6243610
aS'-'
aI43
aI156
aI465
aI758
aI1121
aI1235
aI1515
aI1884
aI2266
asS'SRY'
p150
(lp151
I2786854
aI2787741
aS'-'
aI46
aI432
aI787
aI1123
aI1434
aI1710
aI2035
aI2367
aI2746
asS'TSPY3'
p152
(lp153
I9337463
aI9340278
aS'+'
aI85
aI272
aI656
aI899
aI1302
aI1707
aI2072
aI2237
aI2670
asS'TSPY2'
p154
(lp155
I6246222
aI6249012
aS'+'
aI83
aI279
aI668
aI1024
aI1422
aI1783
aI2204
aI2602
aI3048
asS'TSPY1'
p156
(lp157
I9337463
aI9340278
aS'+'
aI85
aI272
aI656
aI899
aI1302
aI1707
aI2072
aI2237
aI2670
asS'TTTY2'
p158
(lp159
I6406243
aI6428444
aS'-'
aI781
aI1031
aI1220
aI1396
aI1580
aI1775
aI1960
aI2168
aI2347
asS'TTTY3'
p160
(lp161
I25728489
aI25733388
aS'+'
aI468
aI832
aI1334
aI1667
aI2008
aI2352
aI2707
aI3089
aI3475
asS'TTTY1'
p162
(lp163
I6390400
aI6411564
aS'+'
aI762
aI1048
aI1240
aI1451
aI1628
aI1826
aI2108
aI2443
aI2701
asS'TTTY6'
p164
(lp165
I22144964
aI22146831
aS'+'
aI69
aI257
aI443
aI609
aI781
aI951
aI1121
aI1323
aI1498
asS'TTTY7'
p166
(lp167
I6449467
aI6457906
aS'+'
aI324
aI517
aI694
aI854
aI1134
aI1291
aI1479
aI1638
aI1827
asS'TTTY4'
p168
(lp169
I22936454
aI22973284
aS'+'
aI2378
aI2718
aI3068
aI3384
aI3674
aI4003
aI4325
aI4649
aI4955
asS'TTTY5'
p170
(lp171
I22296797
aI22298876
aS'-'
aI95
aI442
aI616
aI1000
aI1412
aI1819
aI2104
aI2401
aI2786
asS'TTTY3B'
p172
(lp173
I25728489
aI25733388
aS'+'
aI468
aI832
aI1334
aI1667
aI2008
aI2352
aI2707
aI3089
aI3475
asS'TTTY8'
p174
(lp175
I6471030
aI6473630
aS'-'
aI98
aI438
aI734
aI987
aI1270
aI1701
aI2130
aI2458
aI2796
asS'CD99'
p176
(lp177
I2691132
aI2741309
aS'+'
aI0
aI0
aI0
aI0
aI0
aI0
aI0
aI0
aI0
asS'LINC00106'
p178
(lp179
I1397024
aI1399398
aS'+'
aI0
aI0
aI0
aI0
aI0
aI0
aI0
aI0
aI0
asS'WASIR1'
p180
(lp181
I57201083
aI57203350
aS'-'
aI0
aI0
aI0
aI0
aI0
aI0
aI0
aI0
aI0
asS'TTTY14'
p182
(lp183
I18872500
aI19077547
aS'-'
aI13877
aI14134
aI14419
aI14716
aI15051
aI15365
aI15691
aI16030
aI16309
asS'TTTY15'
p184
(lp185
I12662366
aI12692224
aS'+'
aI2042
aI2404
aI2696
aI3103
aI3413
aI3767
aI4168
aI4465
aI4779
asS'TTTY16'
p186
(lp187
I7699356
aI7701247
aS'-'
aI95
aI396
aI681
aI981
aI1292
aI1549
aI1775
aI2138
aI2406
asS'TTTY10'
p188
(lp189
I20465667
aI20519228
aS'-'
aI3968
aI4446
aI4728
aI5023
aI5349
aI5654
aI6037
aI6285
aI6650
asS'TTTY11'
p190
(lp191
I8783319
aI8817382
aS'-'
aI2432
aI2857
aI3244
aI3560
aI3951
aI4385
aI4782
aI5173
aI5730
asS'TTTY12'
p192
(lp193
I7804923
aI7810682
aS'+'
aI399
aI714
aI1084
aI1410
aI1765
aI2075
aI2400
aI2688
aI3056
asS'TTTY13'
p194
(lp195
I21583599
aI21594666
aS'-'
aI452
aI591
aI746
aI1028
aI1360
aI1749
aI2073
aI2437
aI2897
asS'TMSB4Y'
p196
(lp197
I13703566
aI13706022
aS'+'
aI130
aI416
aI748
aI1016
aI1337
aI1668
aI2042
aI2366
aI2720
asS'TTTY17B'
p198
(lp199
I22851583
aI22852715
aS'+'
aI54
aI383
aI739
aI1095
aI1414
aI1715
aI2028
aI2357
aI2696
asS'TTTY17C'
p200
(lp201
I22851583
aI22852715
aS'+'
aI54
aI383
aI739
aI1095
aI1414
aI1715
aI2028
aI2357
aI2696
asS'TTTY18'
p202
(lp203
I8683369
aI8683878
aS'-'
aI19
aI216
aI431
aI634
aI829
aI1053
aI1289
aI1560
aI1747
asS'TTTY19'
p204
(lp205
I8704471
aI8705283
aS'+'
aI38
aI235
aI432
aI655
aI845
aI1028
aI1204
aI1385
aI1571
asS'TTTY9B'
p206
(lp207
I18581205
aI18590521
aS'-'
aI619
aI980
aI1285
aI1580
aI1952
aI2278
aI2647
aI2969
aI3275
asS'USP9Y'
p208
(lp209
I12701230
aI12860843
aS'+'
aI12391
aI12701
aI13052
aI13388
aI13734
aI14061
aI14435
aI14777
aI15086
asS'PRKY'
p210
(lp211
I7273971
aI7381547
aS'+'
aI6036
aI6310
aI6592
aI6880
aI7082
aI7378
aI7717
aI8064
aI8295
asS'RBMY1J'
p212
(lp213
I22403409
aI22417649
aS'+'
aI1100
aI1281
aI1724
aI2067
aI2523
aI2916
aI3285
aI3697
aI4044
asS'BPY2'
p214
(lp215
I25030900
aI25052104
aS'-'
aI1411
aI1704
aI2034
aI2357
aI2698
aI3020
aI3362
aI3706
aI4055
asS'RBMY1B'
p216
(lp217
I21880307
aI21894526
aS'-'
aI1087
aI1257
aI1593
aI1970
aI2342
aI2654
aI2875
aI3257
aI3679
asS'ASMTL-AS1'
p218
(lp219
I1400530
aI1415421
aS'+'
aI0
aI0
aI0
aI0
aI0
aI0
aI0
aI0
aI0
asS'RBMY1F'
p220
(lp221
I22308862
aI22417881
aS'+'
aI8173
aI8348
aI8694
aI8908
aI9310
aI9763
aI10224
aI10633
aI11030
asS'PLCXD1'
p222
(lp223
I276323
aI303355
aS'+'
aI0
aI0
aI0
aI0
aI0
aI0
aI0
aI0
aI0
asS'RBMY1D'
p224
(lp225
I21880075
aI21894526
aS'-'
aI1105
aI1275
aI1611
aI1988
aI2360
aI2672
aI2893
aI3275
aI3697
asS'TGIF2LY'
p226
(lp227
I3579084
aI3580041
aS'+'
aI35
aI425
aI953
aI1472
aI1882
aI2288
aI2764
aI3142
aI3566
asS'GYG2P1'
p228
(lp229
I12406115
aI12421590
aS'-'
aI806
aI1062
aI1379
aI1732
aI2013
aI2251
aI2482
aI2663
aI3153
asS'LINC00278'
p230
(lp231
I3002995
aI3102272
aS'+'
aI7433
aI7755
aI8173
aI8541
aI8872
aI9298
aI9612
aI10002
aI10419
asS'LINC00279'
p232
(lp233
I8638293
aI8645129
aS'+'
aI252
aI432
aI578
aI767
aI949
aI1193
aI1507
aI1691
aI1866
asS'FAM197Y2'
p234
(lp235
I9369856
aI9375462
aS'-'
aI380
aI482
aI795
aI1087
aI1449
aI1550
aI1696
aI1696
aI1696
asS'FAM197Y3'
p236
(lp237
I9499340
aI9504941
aS'-'
aI377
aI479
aI784
aI1075
aI1437
aI1539
aI1838
aI2141
aI2517
asS'FAM197Y6'
p238
(lp239
I9390190
aI9395808
aS'-'
aI379
aI480
aI619
aI619
aI619
aI619
aI619
aI619
aI619
asS'FAM197Y7'
p240
(lp241
I9369856
aI9375462
aS'-'
aI380
aI482
aI795
aI1087
aI1449
aI1550
aI1696
aI1696
aI1696
asS'FAM197Y4'
p242
(lp243
I9369856
aI9375462
aS'-'
aI380
aI482
aI795
aI1087
aI1449
aI1550
aI1696
aI1696
aI1696
asS'FAM197Y5'
p244
(lp245
I9369856
aI9375462
aS'-'
aI380
aI482
aI795
aI1087
aI1449
aI1550
aI1696
aI1696
aI1696
asS'SHOX'
p246
(lp247
I624343
aI659411
aS'+'
aI0
aI0
aI0
aI0
aI0
aI0
aI0
aI0
aI0
asS'FAM197Y8'
p248
(lp249
I9369856
aI9375462
aS'-'
aI380
aI482
aI795
aI1087
aI1449
aI1550
aI1696
aI1696
aI1696
asS'FAM197Y9'
p250
(lp251
I6258332
aI6263935
aS'-'
aI381
aI505
aI776
aI1173
aI1546
aI1900
aI2197
aI2513
aI2896
asS'CDY1'
p252
(lp253
I24045229
aI24048014
aS'-'
aI169
aI512
aI937
aI1223
aI1480
aI1793
aI2117
aI2569
aI3043
asS'P2RY8'
p254
(lp255
I1462572
aI1537144
aS'-'
aI0
aI0
aI0
aI0
aI0
aI0
aI0
aI0
aI0
asS'GTPBP6'
p256
(lp257
I304749
aI318819
aS'-'
aI0
aI0
aI0
aI0
aI0
aI0
aI0
aI0
aI0
asS'VCY'
p258
(lp259
I13985771
aI13986512
aS'-'
aI11
aI390
aI690
aI1046
aI1496
aI1815
aI2090
aI2416
aI2745
asS'UTY'
p260
(lp261
I13248378
aI13480670
aS'-'
aI17706
aI18110
aI18434
aI18797
aI19174
aI19510
aI19910
aI20261
aI20542
asS'CD99P1'
p262
(lp263
I2609264
aI2657229
aS'+'
aI0
aI0
aI0
aI0
aI0
aI0
aI0
aI0
aI0
asS'TTTY21B'
p264
(lp265
I6443433
aI6447077
aS'+'
aI129
aI306
aI496
aI744
aI914
aI1100
aI1256
aI1444
aI1627
asS'TBL1Y'
p266
(lp267
I6910685
aI7091683
aS'+'
aI10123
aI10398
aI10653
aI10907
aI11231
aI11572
aI11943
aI12289
aI12723
asS'VAMP7'
p268
(lp269
I57067799
aI57130289
aS'+'
aI0
aI0
aI0
aI0
aI0
aI0
aI0
aI0
aI0
asS'TTTY22'
p270
(lp271
I9801152
aI9813245
aS'+'
aI533
aI730
aI912
aI1094
aI1307
aI1559
aI1775
aI1944
aI2122
asS'PRORY'
p272
(lp273
I21382973
aI21386360
aS'-'
aI125
aI430
aI817
aI1219
aI1489
aI1681
aI2140
aI2607
aI3003
asS'NLGN4Y-AS1'
p274
(lp275
I14793641
aI14804033
aS'-'
aI1038
aI1412
aI1758
aI2064
aI2391
aI2690
aI3031
aI3378
aI3716
asS'BPY2B'
p276
(lp277
I25030900
aI25052104
aS'-'
aI1411
aI1704
aI2034
aI2357
aI2698
aI3020
aI3362
aI3706
aI4055
asS'BPY2C'
p278
(lp279
I25030900
aI25052104
aS'-'
aI1411
aI1704
aI2034
aI2357
aI2698
aI3020
aI3362
aI3706
aI4055
asS'PCDH11Y'
p280
(lp281
I5056089
aI5742228
aS'+'
aI55895
aI56387
aI56767
aI57074
aI57535
aI57969
aI58417
aI58839
aI59341
asS'TTTY1B'
p282
(lp283
I6390400
aI6411564
aS'+'
aI762
aI1048
aI1240
aI1451
aI1628
aI1826
aI2108
aI2443
aI2701
as.