(dp1
S'Plekhg2'
p2
(lp3
I28359602
aI28372688
aS'-'
aI28359804
asS'Strn4'
p4
(lp5
I16815888
aI16840931
aS'+'
aI16816352
asS'Cers3'
p6
(lp7
I66733104
aI66823692
aS'+'
aI66733653
asS'Gm30544'
p8
(lp9
I37320971
aI37327894
aS'+'
aI37327894
asS'Gm30543'
p10
(lp11
I27329803
aI27336812
aS'+'
aI27336812
asS'4931406P16Rik'
p12
(lp13
I34236706
aI34313577
aS'-'
aI34238928
asS'Shank2'
p14
(lp15
I143978052
aI144424494
aS'+'
aI144031263
asS'Shank1'
p16
(lp17
I44307898
aI44357939
aS'+'
aI44312706
asS'Scube2'
p18
(lp19
I109798689
aI109865679
aS'-'
aI109799252
asS'Syt9'
p20
(lp21
I107370704
aI107548656
aS'+'
aI107548656
asS'Drd4'
p22
(lp23
I141291973
aI141296238
aS'+'
aI141292037
asS'Syt3'
p24
(lp25
I44384098
aI44400030
aS'+'
aI44385970
asS'Syt5'
p26
(lp27
I4539764
aI4547695
aS'-'
aI4540097
asS'LOC108167419'
p28
(lp29
I43114165
aI43151386
aS'+'
aI43151386
asS'Sult2b1'
p30
(lp31
I45729982
aI45759555
aS'-'
aI45729999
asS'LOC108167411'
p32
(lp33
I25267754
aI25270827
aS'-'
aI25270827
asS'LOC108167412'
p34
(lp35
I27556543
aI27559504
aS'+'
aI27556850
asS'Cyp2r1'
p36
(lp37
I114550122
aI114565621
aS'-'
aI114550271
asS'LOC108167414'
p38
(lp39
I29283575
aI29288356
aS'-'
aI29288356
asS'LOC108167415'
p40
(lp41
I29619476
aI29622580
aS'+'
aI29619581
asS'Bcl3'
p42
(lp43
I19808461
aI19822767
aS'-'
aI19808871
asS'LOC108167417'
p44
(lp45
I30454700
aI30455622
aS'+'
aI30455622
asS'Ccdc114'
p46
(lp47
I45923163
aI45948963
aS'+'
aI45924510
asS'Ube3a'
p48
(lp49
I59228751
aI59306727
aS'+'
aI59247215
asS'Tomt'
p50
(lp51
I101899802
aI101906359
aS'-'
aI101900302
asS'Mir210'
p52
(lp53
I141221383
aI141221493
aS'-'
aI141221493
asS'Akt2'
p54
(lp55
I27591556
aI27639453
aS'+'
aI27608707
asS'LOC108167326'
p56
(lp57
I48877957
aI48909109
aS'+'
aI48909109
asS'1700007K09Rik'
p58
(lp59
I131325929
aI131331434
aS'-'
aI131326098
asS'Gm33555'
p60
(lp61
I130273262
aI130315535
aS'-'
aI130315535
asS'Myadm'
p62
(lp63
I3289037
aI3299349
aS'+'
aI3296723
asS'LOC108167329'
p64
(lp65
I101346910
aI101347938
aS'-'
aI101347938
asS'Wdr88'
p66
(lp67
I35236135
aI35276494
aS'-'
aI35236470
asS'Gm33394'
p68
(lp69
I98502587
aI98506647
aS'-'
aI98506647
asS'Cebpa'
p70
(lp71
I35119292
aI35121928
aS'+'
aI35120057
asS'Vmn2r79'
p72
(lp73
I86996464
aI87037968
aS'+'
aI86996464
asS'Vmn2r78'
p74
(lp75
I86915348
aI86955177
aS'+'
aI86915348
asS'Vmn2r75'
p76
(lp77
I86148041
aI86171724
aS'-'
aI86148041
asS'Vmn2r74'
p78
(lp79
I85951866
aI85961482
aS'-'
aI85951866
asS'Vmn2r77'
p80
(lp81
I86795140
aI86812032
aS'+'
aI86795140
asS'Vmn2r76'
p82
(lp83
I86225205
aI86246201
aS'-'
aI86225205
asS'Vmn2r71'
p84
(lp85
I85615461
aI85624547
aS'+'
aI85615461
asS'Vmn2r70'
p86
(lp87
I85558702
aI85569088
aS'-'
aI85558702
asS'Vmn2r73'
p88
(lp89
I85857546
aI85875938
aS'-'
aI85857546
asS'Vmn2r72'
p90
(lp91
I85737783
aI85754981
aS'-'
aI85737783
asS'Apoc4'
p92
(lp93
I19678083
aI19681460
aS'-'
aI19678146
asS'Gm33323'
p94
(lp95
I129764777
aI129793027
aS'+'
aI129793027
asS'Apoc2'
p96
(lp97
I19671578
aI19677941
aS'-'
aI19671760
asS'Apoc1'
p98
(lp99
I19689479
aI19692659
aS'-'
aI19689575
asS'Mir7051'
p100
(lp101
I43457496
aI43457569
aS'+'
aI43457569
asS'Zfp710'
p102
(lp103
I80024813
aI80092751
aS'+'
aI80081076
asS'Xrra1'
p104
(lp105
I99859217
aI99917824
aS'+'
aI99867350
asS'Bckdk'
p106
(lp107
I127904072
aI127909664
aS'+'
aI127904930
asS'Zfp715'
p108
(lp109
I43296521
aI43313309
aS'-'
aI43297873
asS'Edrf1'
p110
(lp111
I133637531
aI133672973
aS'+'
aI133672973
asS'1600014C10Rik'
p112
(lp113
I38183216
aI38197568
aS'+'
aI38188616
asS'Cog7'
p114
(lp115
I121922835
aI121981706
aS'-'
aI121923301
asS'Pde3b'
p116
(lp117
I114411891
aI114537942
aS'+'
aI114537942
asS'Gm30774'
p118
(lp119
I76359706
aI76368660
aS'-'
aI76368660
asS'Gm29872'
p120
(lp121
I136373630
aI136390415
aS'-'
aI136390415
asS'Gm30771'
p122
(lp123
I38061702
aI38097757
aS'+'
aI38097757
asS'Art5'
p124
(lp125
I102096878
aI102100307
aS'-'
aI102097113
asS'Gm31028'
p126
(lp127
I44906141
aI44907429
aS'+'
aI44907429
asS'A230056P14Rik'
p128
(lp129
I55962530
aI55980096
aS'+'
aI55980096
asS'Nosip'
p130
(lp131
I45062428
aI45078503
aS'+'
aI45073494
asS'Stx1b'
p132
(lp133
I127803899
aI127823863
aS'-'
aI127807308
asS'Snrpd2'
p134
(lp135
I19149837
aI19152726
aS'+'
aI19149892
asS'Ercc1'
p136
(lp137
I19345070
aI19356524
aS'+'
aI19345612
asS'Ercc2'
p138
(lp139
I19382038
aI19395692
aS'+'
aI19382054
asS'LOC105242920'
p140
(lp141
I37327978
aI37329923
aS'+'
aI37329923
asS'Mir7058'
p142
(lp143
I126367970
aI126368045
aS'-'
aI126368045
asS'Gm34282'
p144
(lp145
I115132425
aI115171203
aS'+'
aI115171203
asS'Gm34283'
p146
(lp147
I130702500
aI130728516
aS'-'
aI130728516
asS'1810049I09Rik'
p148
(lp149
I65212813
aI65213451
aS'-'
aI65213451
asS'Vsig10l'
p150
(lp151
I43463061
aI43472019
aS'+'
aI43472019
asS'Gga2'
p152
(lp153
I121986721
aI122021198
aS'-'
aI121989690
asS'Gm6792'
p154
(lp155
I6252636
aI6281861
aS'+'
aI6252807
asS'Zfp628'
p156
(lp157
I4915172
aI4922003
aS'+'
aI4918780
asS'Gm35309'
p158
(lp159
I118329485
aI118332597
aS'+'
aI118332597
asS'Zfp626'
p160
(lp161
I27804211
aI27822923
aS'+'
aI27807203
asS'Mir708'
p162
(lp163
I96249423
aI96249532
aS'+'
aI96249532
asS'Rassf10'
p164
(lp165
I112953961
aI112957458
aS'+'
aI112954193
asS'Aspdh'
p166
(lp167
I44465434
aI44467751
aS'+'
aI44465471
asS'Slc7a9'
p168
(lp169
I35448727
aI35466003
aS'+'
aI35449799
asS'Tshz3'
p170
(lp171
I36697736
aI36773553
aS'+'
aI36731263
asS'4931431B13Rik'
p172
(lp173
I128192049
aI128203328
aS'-'
aI128203328
asS'Gm12781'
p174
(lp175
I34655569
aI34661202
aS'+'
aI34661202
asS'Vmn2r-ps60'
p176
(lp177
I42430104
aI42430369
aS'-'
aI42430369
asS'Gm35249'
p178
(lp179
I132538239
aI132541874
aS'+'
aI132541874
asS'Gm12784'
p180
(lp181
I34547205
aI34560149
aS'+'
aI34560149
asS'Zscan4b'
p182
(lp183
I10900739
aI10905050
aS'-'
aI10900796
asS'Zscan4c'
p184
(lp185
I11005744
aI11010547
aS'+'
aI11006555
asS'Gm33771'
p186
(lp187
I130374767
aI130382948
aS'-'
aI130382948
asS'Zscan4a'
p188
(lp189
I10794240
aI10799065
aS'-'
aI10799065
asS'Zscan4f'
p190
(lp191
I11397914
aI11402318
aS'+'
aI11398748
asS'Zscan4d'
p192
(lp193
I11160882
aI11167460
aS'-'
aI11161920
asS'9330104G04Rik'
p194
(lp195
I16871343
aI16875291
aS'-'
aI16875291
asS'Gm39019'
p196
(lp197
I58706732
aI58740339
aS'-'
aI58740339
asS'Gm39014'
p198
(lp199
I55273379
aI55276701
aS'+'
aI55276701
asS'Gm39015'
p200
(lp201
I55765093
aI55768618
aS'-'
aI55768618
asS'Slc17a6'
p202
(lp203
I51621829
aI51671126
aS'+'
aI51622634
asS'Gm39017'
p204
(lp205
I57276320
aI57281650
aS'-'
aI57281650
asS'Gm39010'
p206
(lp207
I46041577
aI46042423
aS'+'
aI46042423
asS'Gm39011'
p208
(lp209
I46855506
aI46861231
aS'-'
aI46861231
asS'Gm39012'
p210
(lp211
I46957539
aI46970301
aS'+'
aI46970301
asS'St5'
p212
(lp213
I109523919
aI109703621
aS'-'
aI109524645
asS'Snora30'
p214
(lp215
I127527896
aI127528003
aS'+'
aI127528003
asS'Gm32309'
p216
(lp217
I108969682
aI108992084
aS'-'
aI108992084
asS'Clrn3'
p218
(lp219
I135511455
aI135528654
aS'-'
aI135513938
asS'Folh1'
p220
(lp221
I86719056
aI86776049
aS'-'
aI86719658
asS'Spint2'
p222
(lp223
I29256329
aI29281977
aS'-'
aI29256670
asS'Fsd2'
p224
(lp225
I81534353
aI81566981
aS'-'
aI81534995
asS'Psmd8'
p226
(lp227
I29174186
aI29180673
aS'-'
aI29174609
asS'Kcnc3'
p228
(lp229
I44590660
aI44604751
aS'+'
aI44590885
asS'Gm30395'
p230
(lp231
I138097507
aI138123578
aS'-'
aI138123578
asS'Zfp536'
p232
(lp233
I37318022
aI37774173
aS'-'
aI37320855
asS'Gm33607'
p234
(lp235
I130309651
aI130315943
aS'+'
aI130315943
asS'Itpripl2'
p236
(lp237
I118485110
aI118491975
aS'-'
aI118489726
asS'Gm7367'
p238
(lp239
I60155428
aI60156829
aS'+'
aI60156829
asS'Prrg2'
p240
(lp241
I45053583
aI45062882
aS'-'
aI45054178
asS'Gm36127'
p242
(lp243
I4841310
aI4844985
aS'+'
aI4844985
asS'Krtdap'
p244
(lp245
I30787904
aI30791083
aS'+'
aI30787926
asS'Hps5'
p246
(lp247
I46760471
aI46796064
aS'-'
aI46761389
asS'Ubfd1'
p248
(lp249
I122067182
aI122082199
aS'+'
aI122067282
asS'Rbmxl2'
p250
(lp251
I107209444
aI107210916
aS'+'
aI107209509
asS'Cox6b1'
p252
(lp253
I30616973
aI30626151
aS'-'
aI30617108
asS'Lamtor1'
p254
(lp255
I101905836
aI101911903
aS'+'
aI101905998
asS'Trim34b'
p256
(lp257
I104329470
aI104336617
aS'+'
aI104329547
asS'Zfp446'
p258
(lp259
I12977316
aI12985717
aS'+'
aI12979036
asS'Gm38940'
p260
(lp261
I5056372
aI5056837
aS'-'
aI5056837
asS'Zfp444'
p262
(lp263
I6172512
aI6193104
aS'+'
aI6183890
asS'Ffar1'
p264
(lp265
I30860567
aI30861470
aS'-'
aI30860567
asS'Gm38944'
p266
(lp267
I6342994
aI6345193
aS'-'
aI6345193
asS'Gm38947'
p268
(lp269
I13192116
aI13205238
aS'-'
aI13194433
asS'Gm38946'
p270
(lp271
I13171967
aI13173057
aS'+'
aI13173057
asS'Gm38948'
p272
(lp273
I15980709
aI15984800
aS'+'
aI15984800
asS'Aqp11'
p274
(lp275
I97726378
aI97738247
aS'-'
aI97726624
asS'LOC108167416'
p276
(lp277
I30280392
aI30282187
aS'+'
aI30282187
asS'Slc27a5'
p278
(lp279
I12988345
aI12998192
aS'-'
aI12988475
asS'Fgf21'
p280
(lp281
I45613897
aI45619350
aS'-'
aI45614019
asS'Vmn1r176'
p282
(lp283
I23834811
aI23835726
aS'-'
aI23834811
asS'Vmn1r177'
p284
(lp285
I23865519
aI23866449
aS'-'
aI23865519
asS'Vmn1r174'
p286
(lp287
I23753910
aI23754852
aS'+'
aI23753910
asS'Vmn1r175'
p288
(lp289
I23808285
aI23809200
aS'-'
aI23808285
asS'Vmn1r172'
p290
(lp291
I23658315
aI23660663
aS'+'
aI23659691
asS'Vmn1r173'
p292
(lp293
I23702341
aI23703283
aS'+'
aI23702341
asS'Vmn1r170'
p294
(lp295
I23606174
aI23607089
aS'+'
aI23606174
asS'Vmn1r171'
p296
(lp297
I23631987
aI23633568
aS'+'
aI23632351
asS'Cdhr5'
p298
(lp299
I141269079
aI141276792
aS'-'
aI141269149
asS'Vmn1r178'
p300
(lp301
I23893528
aI23894443
aS'+'
aI23893528
asS'Vmn1r179'
p302
(lp303
I23928385
aI23929357
aS'+'
aI23928385
asS'Sox6os'
p304
(lp305
I116031746
aI116032548
aS'+'
aI116032548
asS'Zfp143'
p306
(lp307
I110061669
aI110095396
aS'+'
aI110069490
asS'Gm36633'
p308
(lp309
I71947526
aI71962018
aS'-'
aI71962018
asS'Kctd21'
p310
(lp311
I97332315
aI97350216
aS'+'
aI97347321
asS'Zfp146'
p312
(lp313
I30160486
aI30169779
aS'-'
aI30161736
asS'Fank1'
p314
(lp315
I133776854
aI133881536
aS'+'
aI133776957
asS'Olfr303'
p316
(lp317
I86394536
aI86395496
aS'-'
aI86394536
asS'Olfr295'
p318
(lp319
I86583902
aI86586206
aS'+'
aI86585276
asS'Olfr301'
p320
(lp321
I86403848
aI86413299
aS'+'
aI86407841
asS'Olfr307'
p322
(lp323
I86335452
aI86336394
aS'-'
aI86335452
asS'Olfr305'
p324
(lp325
I86363375
aI86364335
aS'-'
aI86363375
asS'Olfr304'
p326
(lp327
I86385656
aI86386658
aS'-'
aI86385656
asS'Olfr309'
p328
(lp329
I86306184
aI86307111
aS'-'
aI86306184
asS'Olfr308'
p330
(lp331
I86321023
aI86321950
aS'-'
aI86321023
asS'Rgs9bp'
p332
(lp333
I35578992
aI35585582
aS'-'
aI35584506
asS'Efl1'
p334
(lp335
I82648613
aI82777852
aS'+'
aI82649540
asS'Emp3'
p336
(lp337
I45918022
aI45921426
aS'-'
aI45918065
asS'Gm33098'
p338
(lp339
I111210365
aI111220995
aS'+'
aI111220995
asS'Ggn'
p340
(lp341
I29170209
aI29173933
aS'+'
aI29171088
asS'Olfr290'
p342
(lp343
I84915780
aI84916728
aS'+'
aI84915780
asS'Olfr523'
p344
(lp345
I140176103
aI140177057
aS'+'
aI140176103
asS'Olfr522'
p346
(lp347
I140162009
aI140162948
aS'-'
aI140162009
asS'Paf1'
p348
(lp349
I28392995
aI28399383
aS'+'
aI28393207
asS'Olfr292'
p350
(lp351
I86688340
aI86695384
aS'+'
aI86694457
asS'Gm9962'
p352
(lp353
I57387271
aI57409941
aS'+'
aI57409941
asS'Tex36'
p354
(lp355
I133587023
aI133602115
aS'-'
aI133587181
asS'Cyp2e1'
p356
(lp357
I140763831
aI140774981
aS'+'
aI140763850
asS'Olfr524'
p358
(lp359
I140201335
aI140205279
aS'-'
aI140201811
asS'Gm10640'
p360
(lp361
I31162357
aI31170641
aS'+'
aI31170641
asS'B4galnt4'
p362
(lp363
I141061273
aI141072119
aS'+'
aI141061273
asS'Aldoa'
p364
(lp365
I126795233
aI126807834
aS'-'
aI126795418
asS'Gm10648'
p366
(lp367
I28870544
aI28876334
aS'-'
aI28876334
asS'Vmn1r139'
p368
(lp369
I22096866
aI22097760
aS'+'
aI22096866
asS'Zik1'
p370
(lp371
I10487223
aI10495381
aS'-'
aI10489776
asS'Tmem80'
p372
(lp373
I141328129
aI141337155
aS'+'
aI141333658
asS'Neu3'
p374
(lp375
I99811438
aI99828417
aS'-'
aI99813257
asS'Olfr574'
p376
(lp377
I102948466
aI102949507
aS'+'
aI102948466
asS'Olfr635'
p378
(lp379
I103979175
aI103980141
aS'+'
aI103979175
asS'Klk1b16'
p380
(lp381
I44122253
aI44141610
aS'+'
aI44122292
asS'Klk1b11'
p382
(lp383
I43995876
aI43999875
aS'+'
aI43995904
asS'Olfr632'
p384
(lp385
I103937381
aI103938335
aS'+'
aI103937381
asS'Olfr631'
p386
(lp387
I103915561
aI103930666
aS'+'
aI103928824
asS'Olfr575'
p388
(lp389
I102954663
aI102955620
aS'-'
aI102954663
asS'Ano5'
p390
(lp391
I51510016
aI51597754
aS'+'
aI51510283
asS'Ano1'
p392
(lp393
I144588548
aI144752045
aS'-'
aI144589998
asS'Olfr639'
p394
(lp395
I104011749
aI104012700
aS'-'
aI104011749
asS'Olfr638'
p396
(lp397
I104003258
aI104004224
aS'+'
aI104003258
asS'Mir202'
p398
(lp399
I139957688
aI139957760
aS'-'
aI139957760
asS'Olfr570'
p400
(lp401
I102813309
aI102901380
aS'+'
aI102900368
asS'Nkx6-2'
p402
(lp403
I139579375
aI139582797
aS'-'
aI139582797
asS'Irf3'
p404
(lp405
I44997647
aI45002848
aS'+'
aI44998712
asS'Irf7'
p406
(lp407
I141263182
aI141266499
aS'-'
aI141263224
asS'Spcs2'
p408
(lp409
I99838902
aI99870340
aS'-'
aI99839696
asS'Crxos'
p410
(lp411
I15882616
aI15900299
aS'+'
aI15900299
asS'Olfr672'
p412
(lp413
I104995963
aI104996902
aS'-'
aI104995963
asS'4930433I11Rik'
p414
(lp415
I40987608
aI40994833
aS'+'
aI40987705
asS'Tmem159'
p416
(lp417
I120102425
aI120120986
aS'+'
aI120104733
asS'Mettl9'
p418
(lp419
I121032790
aI121076835
aS'+'
aI121032808
asS'BC089491'
p420
(lp421
I28284651
aI28291134
aS'-'
aI28287964
asS'Zfp850'
p422
(lp423
I27984470
aI28014115
aS'-'
aI27988711
asS'Gm30807'
p424
(lp425
I126091951
aI126094714
aS'-'
aI126094714
asS'Blvrb'
p426
(lp427
I27447977
aI27465981
aS'+'
aI27448117
asS'Gm30808'
p428
(lp429
I138700974
aI138703253
aS'+'
aI138703253
asS'Vps33b'
p430
(lp431
I80269654
aI80291579
aS'+'
aI80269983
asS'Gtf2h1'
p432
(lp433
I46796093
aI46823800
aS'+'
aI46801686
asS'LOC108167409'
p434
(lp435
I16921730
aI16923538
aS'+'
aI16923538
asS'LOC108167408'
p436
(lp437
I12870868
aI12873480
aS'-'
aI12873480
asS'Eid2b'
p438
(lp439
I28277705
aI28280129
aS'+'
aI28277780
asS'Cyp2s1'
p440
(lp441
I25802475
aI25816530
aS'-'
aI25803562
asS'Ccdc90b'
p442
(lp443
I92561148
aI92582294
aS'+'
aI92561535
asS'LOC108167406'
p444
(lp445
I9521995
aI9523976
aS'-'
aI9523976
asS'LOC108167405'
p446
(lp447
I8775901
aI8777384
aS'-'
aI8777384
asS'LOC108167404'
p448
(lp449
I5038439
aI5048733
aS'+'
aI5048733
asS'Gm34079'
p450
(lp451
I67524344
aI67542243
aS'+'
aI67542243
asS'LOC108167337'
p452
(lp453
I116726278
aI116732315
aS'+'
aI116732315
asS'Fcgbp'
p454
(lp455
I28071235
aI28120864
aS'+'
aI28071582
asS'Gm31735'
p456
(lp457
I29970601
aI29983761
aS'-'
aI29983761
asS'Gm8708'
p458
(lp459
I22893552
aI22899614
aS'-'
aI22893739
asS'Ppme1'
p460
(lp461
I100326736
aI100371896
aS'-'
aI100327863
asS'Lypd5'
p462
(lp463
I24349223
aI24353833
aS'+'
aI24349244
asS'Uba2'
p464
(lp465
I34140696
aI34168529
aS'-'
aI34141284
asS'Olfr514'
p466
(lp467
I108825064
aI108825997
aS'-'
aI108825064
asS'Gm33382'
p468
(lp469
I39282965
aI39354694
aS'+'
aI39354694
asS'Vmn2r68'
p470
(lp471
I85221517
aI85237704
aS'-'
aI85221517
asS'Vmn2r69'
p472
(lp473
I85406375
aI85415676
aS'-'
aI85406375
asS'Vmn2r62'
p474
(lp475
I42764437
aI42793496
aS'-'
aI42764437
asS'Vmn2r63'
p476
(lp477
I42903250
aI42933789
aS'-'
aI42903250
asS'Vmn2r60'
p478
(lp479
I42116470
aI42195776
aS'+'
aI42116470
asS'Vmn2r61'
p480
(lp481
I42260052
aI42300755
aS'+'
aI42260052
asS'Vmn2r66'
p482
(lp483
I84994644
aI85012020
aS'-'
aI84994644
asS'Vmn2r67'
p484
(lp485
I85136239
aI85155902
aS'-'
aI85136239
asS'Olfr1336'
p486
(lp487
I6460510
aI6461455
aS'+'
aI6460510
asS'Vmn2r65'
p488
(lp489
I84940168
aI84964009
aS'-'
aI84940168
asS'Gm32345'
p490
(lp491
I63873057
aI63876967
aS'-'
aI63876967
asS'Gm15545'
p492
(lp493
I44986899
aI44994601
aS'+'
aI44994601
asS'Gm14548'
p494
(lp495
I3884200
aI3898159
aS'-'
aI3884290
asS'Gm15541'
p496
(lp497
I27502718
aI27507831
aS'-'
aI27507831
asS'Olfr686'
p498
(lp499
I105203387
aI105204341
aS'-'
aI105203387
asS'Atxn2l'
p500
(lp501
I126491707
aI126503644
aS'-'
aI126492453
asS'Olfr684'
p502
(lp503
I105156741
aI105157680
aS'-'
aI105156741
asS'Dmpk'
p504
(lp505
I19083832
aI19093821
aS'+'
aI19093821
asS'Bbc3'
p506
(lp507
I16308319
aI16318205
aS'+'
aI16312140
asS'LOC102638993'
p508
(lp509
I101547871
aI101557457
aS'+'
aI101557457
asS'Gm32963'
p510
(lp511
I65052099
aI65054964
aS'+'
aI65054964
asS'Gm32962'
p512
(lp513
I49752854
aI49756161
aS'+'
aI49756161
asS'Gm32112'
p514
(lp515
I80893687
aI80894345
aS'+'
aI80894345
asS'A030001D20Rik'
p516
(lp517
I45635672
aI45638772
aS'-'
aI45638772
asS'Crebzf'
p518
(lp519
I90442733
aI90448382
aS'+'
aI90443014
asS'Brsk2'
p520
(lp521
I141949750
aI142004244
aS'+'
aI141950085
asS'Brsk1'
p522
(lp523
I4690748
aI4715997
aS'+'
aI4691079
asS'Pold1'
p524
(lp525
I44532743
aI44548815
aS'-'
aI44532788
asS'1700008O03Rik'
p526
(lp527
I44360042
aI44385692
aS'-'
aI44360185
asS'Athl1'
p528
(lp529
I140941395
aI140947664
aS'+'
aI140941498
asS'Olfr693'
p530
(lp531
I106677533
aI106678485
aS'-'
aI106677533
asS'Bag3'
p532
(lp533
I128523582
aI128546981
aS'+'
aI128523858
asS'Trim72'
p534
(lp535
I128003423
aI128011393
aS'+'
aI128004483
asS'Gm5334'
p536
(lp537
I68618455
aI68620009
aS'+'
aI68620009
asS'Tubgcp5'
p538
(lp539
I55794124
aI55831459
aS'+'
aI55831459
asS'Olfr692'
p540
(lp541
I105368327
aI105369317
aS'+'
aI105368327
asS'Gm39016'
p542
(lp543
I55988072
aI55993284
aS'+'
aI55993284
asS'Gm39029'
p544
(lp545
I69056821
aI69064762
aS'-'
aI69064762
asS'Zfp719'
p546
(lp547
I43579585
aI43593710
aS'+'
aI43584158
asS'Clns1a'
p548
(lp549
I97696656
aI97720793
aS'+'
aI97696729
asS'Gm35037'
p550
(lp551
I3452309
aI3475833
aS'+'
aI3475833
asS'Gm39021'
p552
(lp553
I60280102
aI60284618
aS'-'
aI60284618
asS'Gm39020'
p554
(lp555
I58842544
aI59081916
aS'+'
aI59081916
asS'Gm39023'
p556
(lp557
I63823238
aI63852688
aS'-'
aI63852688
asS'LOC102640325'
p558
(lp559
I6397957
aI6409771
aS'+'
aI6409771
asS'Fuz'
p560
(lp561
I44896078
aI44900624
aS'+'
aI44896251
asS'Gm39024'
p562
(lp563
I63956387
aI63959355
aS'+'
aI63959355
asS'Gm39027'
p564
(lp565
I67832909
aI67849868
aS'-'
aI67849868
asS'Pde2a'
p566
(lp567
I101421690
aI101512829
aS'+'
aI101421924
asS'P2ry2'
p568
(lp569
I100996567
aI101012053
aS'-'
aI100997974
asS'P2ry6'
p570
(lp571
I100937629
aI100975497
aS'-'
aI100938163
asS'Tsks'
p572
(lp573
I44929576
aI44958041
aS'+'
aI44929747
asS'Pvr'
p574
(lp575
I19903577
aI19921143
aS'-'
aI19905126
asS'4930432E11Rik'
p576
(lp577
I29556614
aI29576779
aS'+'
aI29576779
asS'Gm34811'
p578
(lp579
I41203186
aI41210029
aS'-'
aI41210029
asS'Zfp524'
p580
(lp581
I5015251
aI5018493
aS'+'
aI5017474
asS'Clcn4'
p582
(lp583
I7282308
aI7300870
aS'-'
aI7284183
asS'Gm1988'
p584
(lp585
I39170036
aI39179797
aS'-'
aI39170499
asS'Ikzf5'
p586
(lp587
I131388648
aI131410506
aS'-'
aI131391636
asS'Ino80e'
p588
(lp589
I126851583
aI126862371
aS'-'
aI126852769
asS'Rsph6a'
p590
(lp591
I19054686
aI19074447
aS'+'
aI19054744
asS'Gm32630'
p592
(lp593
I16930313
aI16932609
aS'-'
aI16932609
asS'Gm32633'
p594
(lp595
I63986226
aI64024758
aS'+'
aI64024758
asS'Scgb1b12'
p596
(lp597
I32334181
aI32335501
aS'+'
aI32334197
asS'Obox7'
p598
(lp599
I14659707
aI14665996
aS'+'
aI14664036
asS'Obox6'
p600
(lp601
I15833249
aI15839679
aS'-'
aI15833476
asS'Obox5'
p602
(lp603
I15750369
aI15759274
aS'+'
aI15757536
asS'Obox3'
p604
(lp605
I15625305
aI15639777
aS'-'
aI15625734
asS'Obox2'
p606
(lp607
I15388850
aI15398545
aS'+'
aI15396844
asS'Scgb1b19'
p608
(lp609
I33287306
aI33288491
aS'+'
aI33287306
asS'Gm1966'
p610
(lp611
I106595548
aI106644645
aS'-'
aI106596742
asS'Gm30075'
p612
(lp613
I73201862
aI73238687
aS'-'
aI73238687
asS'Scn1b'
p614
(lp615
I31116523
aI31127035
aS'-'
aI31117228
asS'Tmem238'
p616
(lp617
I4784784
aI4789560
aS'-'
aI4789011
asS'Fadd'
p618
(lp619
I144578322
aI144582436
aS'-'
aI144580528
asS'Gucy2d'
p620
(lp621
I98440415
aI98477478
aS'+'
aI98440508
asS'2200002D01Rik'
p622
(lp623
I29247520
aI29248467
aS'-'
aI29247593
asS'Vmn2r57'
p624
(lp625
I41399731
aI41448641
aS'-'
aI41399731
asS'Gm39036'
p626
(lp627
I73602797
aI73604109
aS'+'
aI73604109
asS'Gm39037'
p628
(lp629
I74626249
aI74627514
aS'+'
aI74627514
asS'Nlrp4b'
p630
(lp631
I10687792
aI10730158
aS'+'
aI10710125
asS'Nlrp4c'
p632
(lp633
I6045160
aI6105149
aS'+'
aI6060594
asS'Gm38954'
p634
(lp635
I19405688
aI19408309
aS'+'
aI19408309
asS'Nlrp4a'
p636
(lp637
I26435613
aI26476142
aS'+'
aI26444211
asS'Gm38952'
p638
(lp639
I18956196
aI18957536
aS'-'
aI18957536
asS'A530021J07Rik'
p640
(lp641
I83148462
aI83179432
aS'+'
aI83179432
asS'Nlrp4d'
p642
(lp643
I10358840
aI10388935
aS'-'
aI10358840
asS'Nlrp4e'
p644
(lp645
I23301191
aI23362277
aS'+'
aI23301281
asS'Gm30236'
p646
(lp647
I73780523
aI73784153
aS'+'
aI73784153
asS'Mgmt'
p648
(lp649
I136894467
aI137128193
aS'+'
aI136919955
asS'4933421I07Rik'
p650
(lp651
I42445461
aI42448080
aS'-'
aI42446177
asS'Fgf15'
p652
(lp653
I144896531
aI144900953
aS'+'
aI144896678
asS'Syt17'
p654
(lp655
I118380712
aI118448913
aS'-'
aI118381855
asS'Thumpd1'
p656
(lp657
I119715092
aI119723614
aS'-'
aI119716671
asS'Hdgfrp3'
p658
(lp659
I81881255
aI81934459
aS'-'
aI81886077
asS'Adamts17'
p660
(lp661
I66839739
aI67153171
aS'+'
aI66839835
asS'Mypop'
p662
(lp663
I18990059
aI19001766
aS'+'
aI18992109
asS'Gabrg3'
p664
(lp665
I56716464
aI57387217
aS'-'
aI56724412
asS'E230029C05Rik'
p666
(lp667
I90029158
aI90049071
aS'+'
aI90049071
asS'Gm39031'
p668
(lp669
I70708124
aI70716474
aS'+'
aI70716474
asS'Lins1'
p670
(lp671
I66689888
aI66717256
aS'+'
aI66717256
asS'Ovch2'
p672
(lp673
I107781543
aI107801179
aS'-'
aI107781637
asS'Gm32563'
p674
(lp675
I109252931
aI109256986
aS'+'
aI109256986
asS'Olfr310'
p676
(lp677
I86268729
aI86269811
aS'-'
aI86268788
asS'Napsa'
p678
(lp679
I44572444
aI44586846
aS'+'
aI44572615
asS'Gm16638'
p680
(lp681
I83596597
aI83631925
aS'-'
aI83631925
asS'LOC108167413'
p682
(lp683
I27678830
aI27690211
aS'-'
aI27690211
asS'Gm34172'
p684
(lp685
I99516644
aI99529638
aS'-'
aI99529638
asS'LOC102637163'
p686
(lp687
I32836569
aI32837751
aS'+'
aI32836569
asS'Gm38569'
p688
(lp689
I25583817
aI25595233
aS'+'
aI25595233
asS'Peg3'
p690
(lp691
I6703891
aI6730441
aS'-'
aI6707505
asS'Olfr538'
p692
(lp693
I140574154
aI140575087
aS'+'
aI140574154
asS'Olfr539'
p694
(lp695
I140667288
aI140668248
aS'+'
aI140667288
asS'Cyp2b9'
p696
(lp697
I26173334
aI26210661
aS'+'
aI26173500
asS'Olfr530'
p698
(lp699
I140372684
aI140373608
aS'-'
aI140372684
asS'Olfr531'
p700
(lp701
I140400129
aI140401044
aS'-'
aI140400129
asS'Olfr532'
p702
(lp703
I140418841
aI140419771
aS'-'
aI140418841
asS'Olfr533'
p704
(lp705
I140466202
aI140467165
aS'+'
aI140466202
asS'Olfr535'
p706
(lp707
I140492639
aI140493578
aS'+'
aI140492639
asS'Olfr536'
p708
(lp709
I140500852
aI140507318
aS'-'
aI140503533
asS'2310010J17Rik'
p710
(lp711
I90124835
aI90129936
aS'-'
aI90129936
asS'Gm10670'
p712
(lp713
I20473959
aI20474925
aS'-'
aI20473959
asS'Art2a-ps'
p714
(lp715
I101552452
aI101560865
aS'-'
aI101560865
asS'Scgb2b15'
p716
(lp717
I32827682
aI32829653
aS'-'
aI32827845
asS'Fbxl19'
p718
(lp719
I127743956
aI127769483
aS'+'
aI127745825
asS'Snord88a'
p720
(lp721
I44250149
aI44250221
aS'+'
aI44250221
asS'Snord88c'
p722
(lp723
I44249854
aI44249938
aS'+'
aI44249938
asS'Dkk3'
p724
(lp725
I112116021
aI112159121
aS'-'
aI112118210
asS'Vmn1r169'
p726
(lp727
I23577184
aI23578099
aS'+'
aI23577184
asS'Vmn1r168'
p728
(lp729
I23540719
aI23541649
aS'+'
aI23540719
asS'Igsf23'
p730
(lp731
I19937304
aI19950743
aS'-'
aI19938244
asS'Vmn1r160'
p732
(lp733
I22871223
aI22872147
aS'+'
aI22871223
asS'Vmn1r163'
p734
(lp735
I23055539
aI23056463
aS'+'
aI23055539
asS'Armc5'
p736
(lp737
I128237356
aI128245100
aS'+'
aI128238126
asS'Vmn1r165'
p738
(lp739
I23217331
aI23218255
aS'+'
aI23217331
asS'Vmn1r167'
p740
(lp741
I23504641
aI23505589
aS'-'
aI23504641
asS'Vmn1r166'
p742
(lp743
I23250761
aI23251682
aS'-'
aI23250761
asS'Olfr624'
p744
(lp745
I103670102
aI103671029
aS'-'
aI103670102
asS'Olfr620'
p746
(lp747
I103611409
aI103612351
aS'-'
aI103611409
asS'Olfr622'
p748
(lp749
I103639184
aI103640138
aS'-'
aI103639184
asS'Olfr623'
p750
(lp751
I103660243
aI103661318
aS'-'
aI103660294
asS'Olfr628'
p752
(lp753
I103731927
aI103732878
aS'+'
aI103731927
asS'Olfr629'
p754
(lp755
I103740200
aI103741322
aS'-'
aI103740293
asS'Mark4'
p756
(lp757
I19425101
aI19458797
aS'-'
aI19426346
asS'Fbrs'
p758
(lp759
I127477494
aI127491806
aS'+'
aI127479198
asS'Rnh1'
p760
(lp761
I141160325
aI141172851
aS'-'
aI141160477
asS'Bckdha'
p762
(lp763
I25629851
aI25658761
aS'-'
aI25630262
asS'Gp6'
p764
(lp765
I4362852
aI4397905
aS'-'
aI4368862
asS'Nrip3'
p766
(lp767
I109758055
aI109781545
aS'-'
aI109761173
asS'Wdr73'
p768
(lp769
I80890722
aI80901269
aS'-'
aI80901269
asS'Gp2'
p770
(lp771
I119442543
aI119459272
aS'-'
aI119442780
asS'2610020H08Rik'
p772
(lp773
I119794021
aI119882697
aS'+'
aI119805258
asS'Gfy'
p774
(lp775
I45176348
aI45179597
aS'-'
aI45176437
asS'Gprc5b'
p776
(lp777
I118972039
aI118995211
aS'-'
aI118975158
asS'Tmem160'
p778
(lp779
I16452778
aI16455490
aS'+'
aI16452962
asS'Tcerg1l'
p780
(lp781
I138208971
aI138397730
aS'-'
aI138209690
asS'Il18bp'
p782
(lp783
I102015076
aI102018155
aS'-'
aI102015745
asS'Gm36159'
p784
(lp785
I24447993
aI24451335
aS'+'
aI24451335
asS'LOC108167502'
p786
(lp787
I116657880
aI116665163
aS'+'
aI116665163
asS'LOC108167503'
p788
(lp789
I120579358
aI120582592
aS'+'
aI120582592
asS'LOC105242405'
p790
(lp791
I8084945
aI8093054
aS'-'
aI8093054
asS'Gm9801'
p792
(lp793
I62193479
aI62278840
aS'-'
aI62278840
asS'LOC108167507'
p794
(lp795
I145069040
aI145070017
aS'+'
aI145070017
asS'LOC108167504'
p796
(lp797
I120582600
aI120589816
aS'+'
aI120589816
asS'H19'
p798
(lp799
I142575529
aI142578146
aS'-'
aI142578146
asS'Gm40449'
p800
(lp801
I99300273
aI99304493
aS'-'
aI99304493
asS'Gm40448'
p802
(lp803
I92877427
aI92889994
aS'+'
aI92889994
asS'Gsk3a'
p804
(lp805
I25228258
aI25237851
aS'-'
aI25228853
asS'Sbk2'
p806
(lp807
I4956909
aI4964470
aS'-'
aI4957080
asS'Sbk3'
p808
(lp809
I4965246
aI4983395
aS'-'
aI4967339
asS'Ucp2'
p810
(lp811
I100493357
aI100499629
aS'+'
aI100496822
asS'Ucp3'
p812
(lp813
I100472990
aI100486432
aS'+'
aI100479466
asS'Dmwd'
p814
(lp815
I19076089
aI19082778
aS'+'
aI19076269
asS'Cckbr'
p816
(lp817
I105425558
aI105436339
aS'+'
aI105426024
asS'Ctr9'
p818
(lp819
I111028950
aI111056377
aS'+'
aI111029136
asS'Ryr1'
p820
(lp821
I29003339
aI29125179
aS'-'
aI29003457
asS'4930505K13Rik'
p822
(lp823
I120156114
aI120166001
aS'+'
aI120166001
asS'Gemin7'
p824
(lp825
I19564948
aI19573343
aS'-'
aI19565278
asS'Gm10109'
p826
(lp827
I44221013
aI44246657
aS'-'
aI44246657
asS'LOC108167436'
p828
(lp829
I67488010
aI67522791
aS'+'
aI67522791
asS'LOC108167437'
p830
(lp831
I70562872
aI70584961
aS'+'
aI70584961
asS'Sae1'
p832
(lp833
I16320235
aI16387896
aS'-'
aI16327836
asS'Nav2'
p834
(lp835
I48959072
aI49610088
aS'+'
aI48964365
asS'LOC108167432'
p836
(lp837
I62161338
aI62191142
aS'-'
aI62191142
asS'Lig1'
p838
(lp839
I13277312
aI13311427
aS'+'
aI13280156
asS'Grin2d'
p840
(lp841
I45831882
aI45871050
aS'-'
aI45832709
asS'Cln3'
p842
(lp843
I126572085
aI126585817
aS'-'
aI126572266
asS'Gm32571'
p844
(lp845
I139358079
aI139360900
aS'-'
aI139360900
asS'Itgad'
p846
(lp847
I128173932
aI128205504
aS'+'
aI128173972
asS'Fam189a1'
p848
(lp849
I64756090
aI65156564
aS'-'
aI64759096
asS'LOC108167439'
p850
(lp851
I71370231
aI71379885
aS'+'
aI71379885
asS'Gm32884'
p852
(lp853
I128856351
aI128906446
aS'+'
aI128906446
asS'LOC102635948'
p854
(lp855
I139949997
aI139978980
aS'+'
aI139978980
asS'Csrp3'
p856
(lp857
I48830397
aI48848051
aS'-'
aI48830629
asS'Gm33570'
p858
(lp859
I66581856
aI66585518
aS'+'
aI66585518
asS'Hnrnpul1'
p860
(lp861
I25721171
aI25756245
aS'-'
aI25722246
asS'Mir3102'
p862
(lp863
I100882305
aI100882409
aS'-'
aI100882409
asS'Prss53'
p864
(lp865
I127885851
aI127892961
aS'-'
aI127886261
asS'Gm15579'
p866
(lp867
I143600090
aI143600858
aS'+'
aI143600858
asS'Zfp865'
p868
(lp869
I5020313
aI5033226
aS'+'
aI5029017
asS'Acadsb'
p870
(lp871
I131410600
aI131446211
aS'+'
aI131410745
asS'Gm38499'
p872
(lp873
I19249434
aI19256546
aS'+'
aI19255372
asS'Tmem41b'
p874
(lp875
I109972186
aI109986230
aS'-'
aI109974781
asS'Gm34664'
p876
(lp877
I68842137
aI68916024
aS'-'
aI68916024
asS'Mir707'
p878
(lp879
I44849698
aI44849771
aS'+'
aI44849771
asS'Tpcn2'
p880
(lp881
I145181632
aI145283985
aS'-'
aI145283985
asS'Rhcg'
p882
(lp883
I79593362
aI79617657
aS'-'
aI79594805
asS'Gm32082'
p884
(lp885
I30588901
aI30591524
aS'+'
aI30591524
asS'Zfp629'
p886
(lp887
I127607030
aI127615785
aS'-'
aI127610031
asS'Adam8'
p888
(lp889
I139978931
aI139993120
aS'-'
aI139979476
asS'Gm8600'
p890
(lp891
I21670359
aI21676421
aS'-'
aI21670546
asS'Gm30717'
p892
(lp893
I125417359
aI125428886
aS'-'
aI125428886
asS'Zfp324'
p894
(lp895
I12965812
aI12974244
aS'+'
aI12970569
asS'Ltbp4'
p896
(lp897
I27305139
aI27339709
aS'-'
aI27305395
asS'Saal1'
p898
(lp899
I46686107
aI46710651
aS'-'
aI46689362
asS'Mkrn3'
p900
(lp901
I62417592
aI62420139
aS'-'
aI62418406
asS'Gm34062'
p902
(lp903
I99251511
aI99255191
aS'+'
aI99255191
asS'9130019O22Rik'
p904
(lp905
I127382259
aI127387166
aS'-'
aI127384296
asS'Ppp1r14a'
p906
(lp907
I29289319
aI29293390
aS'+'
aI29289334
asS'Gm32707'
p908
(lp909
I128344308
aI128347852
aS'-'
aI128347852
asS'Gm35625'
p910
(lp911
I133602254
aI133616257
aS'+'
aI133616257
asS'Zfp14'
p912
(lp913
I30036356
aI30051937
aS'-'
aI30038052
asS'Ebf3'
p914
(lp915
I137193719
aI137322777
aS'-'
aI137196384
asS'Ndnl2'
p916
(lp917
I64871649
aI64873040
aS'-'
aI64872078
asS'Zfp606'
p918
(lp919
I12478304
aI12496235
aS'+'
aI12479715
asS'Zfp607'
p920
(lp921
I27859825
aI27903063
aS'+'
aI27862556
asS'Orai3'
p922
(lp923
I127769814
aI127775150
aS'+'
aI127769988
asS'Numa1'
p924
(lp925
I101934001
aI102014959
aS'+'
aI101977408
asS'Ftl1'
p926
(lp927
I45457943
aI45459886
aS'-'
aI45458106
asS'Cox7a1'
p928
(lp929
I30184170
aI30186030
aS'+'
aI30184230
asS'Ttc23'
p930
(lp931
I67647318
aI67726577
aS'+'
aI67662346
asS'Krtap5-4'
p932
(lp933
I142303501
aI142304503
aS'+'
aI142303594
asS'Krtap5-5'
p934
(lp935
I142228794
aI142229971
aS'-'
aI142229185
asS'LOC108167513'
p936
(lp937
I110598952
aI110602925
aS'-'
aI110602925
asS'Ttll13'
p938
(lp939
I80246375
aI80260821
aS'+'
aI80247294
asS'Krtap5-2'
p940
(lp941
I142174531
aI142176005
aS'-'
aI142174837
asS'Krtap5-3'
p942
(lp943
I142201363
aI142203015
aS'+'
aI142201427
asS'Mir344-2'
p944
(lp945
I61940026
aI61940106
aS'-'
aI61940106
asS'Usp29'
p946
(lp947
I6730559
aI6967220
aS'+'
aI6961138
asS'Gm31284'
p948
(lp949
I84430280
aI84457068
aS'+'
aI84457068
asS'Gm35534'
p950
(lp951
I34983345
aI34990113
aS'-'
aI34990113
asS'Cadm4'
p952
(lp953
I24482022
aI24504533
aS'+'
aI24482098
asS'Kcne3'
p954
(lp955
I100176506
aI100184869
aS'+'
aI100184177
asS'Gm31445'
p956
(lp957
I61197064
aI61290671
aS'-'
aI61290671
asS'Tmc7'
p958
(lp959
I118535840
aI118584790
aS'-'
aI118584790
asS'Kif22'
p960
(lp961
I127027728
aI127042466
aS'-'
aI127027792
asS'Gm38720'
p962
(lp963
I27925377
aI27927382
aS'+'
aI27927382
asS'Gm33627'
p964
(lp965
I66826684
aI66839791
aS'-'
aI66839791
asS'Gm33626'
p966
(lp967
I18318717
aI18321091
aS'-'
aI18321091
asS'LOC102637691'
p968
(lp969
I59426514
aI59454604
aS'-'
aI59454604
asS'Olfr1532-ps1'
p970
(lp971
I106908125
aI106915123
aS'+'
aI106908192
asS'Med29'
p972
(lp973
I28385246
aI28392690
aS'-'
aI28386781
asS'9830147E19Rik'
p974
(lp975
I42577536
aI42644886
aS'-'
aI42579782
asS'Prpf31'
p976
(lp977
I3629984
aI3642485
aS'+'
aI3630565
asS'Med25'
p978
(lp979
I44876764
aI44892664
aS'-'
aI44878024
asS'Rassf7'
p980
(lp981
I141215629
aI141218658
aS'+'
aI141216727
asS'Plk1'
p982
(lp983
I122159434
aI122169884
aS'+'
aI122159542
asS'Sphk2'
p984
(lp985
I45709462
aI45718002
aS'-'
aI45710724
asS'Tsku'
p986
(lp987
I98350667
aI98361391
aS'-'
aI98352057
asS'V1rd19'
p988
(lp989
I24003110
aI24004028
aS'+'
aI24003110
asS'Gm4070'
p990
(lp991
I105895117
aI105953967
aS'-'
aI105896559
asS'Mir293'
p992
(lp993
I3220342
aI3220422
aS'+'
aI3220422
asS'Mir292'
p994
(lp995
I3219188
aI3219270
aS'+'
aI3219270
asS'Gm39034'
p996
(lp997
I71282411
aI71287581
aS'-'
aI71287581
asS'Gm39035'
p998
(lp999
I72306861
aI72323340
aS'+'
aI72323340
asS'Gm39032'
p1000
(lp1001
I70802039
aI70811451
aS'+'
aI70811451
asS'Gm39033'
p1002
(lp1003
I71090996
aI71123278
aS'+'
aI71123278
asS'Mir295'
p1004
(lp1005
I3220772
aI3220841
aS'+'
aI3220841
asS'Mir294'
p1006
(lp1007
I3220640
aI3220724
aS'+'
aI3220724
asS'Ttc9b'
p1008
(lp1009
I27653923
aI27656207
aS'+'
aI27653926
asS'Olfr527'
p1010
(lp1011
I140335863
aI140336781
aS'+'
aI140335863
asS'Gm39038'
p1012
(lp1013
I78552851
aI78575605
aS'-'
aI78575605
asS'Gm21276'
p1014
(lp1015
I38762405
aI38770304
aS'-'
aI38770304
asS'LOC102639040'
p1016
(lp1017
I133001442
aI133005561
aS'+'
aI133005561
asS'Gm36656'
p1018
(lp1019
I36914161
aI36917400
aS'+'
aI36917400
asS'Gm21057'
p1020
(lp1021
I80062709
aI80075257
aS'-'
aI80075257
asS'Hmx3'
p1022
(lp1023
I131541136
aI131546027
aS'+'
aI131542962
asS'Ankrd27'
p1024
(lp1025
I35586225
aI35639226
aS'+'
aI35591780
asS'Tial1'
p1026
(lp1027
I128439771
aI128461668
aS'-'
aI128442532
asS'Gm32579'
p1028
(lp1029
I81708151
aI81716866
aS'-'
aI81716866
asS'Cnot3'
p1030
(lp1031
I3645268
aI3661109
aS'+'
aI3650850
asS'1700110I07Rik'
p1032
(lp1033
I41060616
aI41089843
aS'-'
aI41089843
asS'Gm16157'
p1034
(lp1035
I68266338
aI68276594
aS'-'
aI68276594
asS'Sars2'
p1036
(lp1037
I28741967
aI28753879
aS'+'
aI28742015
asS'Vimp'
p1038
(lp1039
I66079648
aI66089405
aS'+'
aI66079713
asS'Mir3105'
p1040
(lp1041
I144009253
aI144009338
aS'+'
aI144009338
asS'Mir3104'
p1042
(lp1043
I141992178
aI141992241
aS'+'
aI141992241
asS'Mir3103'
p1044
(lp1045
I128288368
aI128288435
aS'-'
aI128288435
asS'1810008I18Rik'
p1046
(lp1047
I65804051
aI65806223
aS'+'
aI65806223
asS'Mir3101'
p1048
(lp1049
I27176005
aI27176093
aS'-'
aI27176093
asS'Mir3100'
p1050
(lp1051
I19086827
aI19086892
aS'+'
aI19086892
asS'Hmx2'
p1052
(lp1053
I131548772
aI131558867
aS'+'
aI131554306
asS'Oscar'
p1054
(lp1055
I3609812
aI3616157
aS'-'
aI3610763
asS'Cd33'
p1056
(lp1057
I43527398
aI43537424
aS'-'
aI43528861
asS'Uvrag'
p1058
(lp1059
I98886741
aI99141168
aS'-'
aI98887889
asS'Cd37'
p1060
(lp1061
I45233636
aI45239234
aS'-'
aI45234143
asS'Ech1'
p1062
(lp1063
I28825337
aI28832239
aS'+'
aI28825360
asS'Scgb1b29'
p1064
(lp1065
I32441540
aI32442844
aS'+'
aI32441540
asS'Scgb1b20'
p1066
(lp1067
I33373233
aI33374559
aS'+'
aI33373249
asS'Foxi2'
p1068
(lp1069
I135410366
aI135413615
aS'+'
aI135410384
asS'Scgb1b27'
p1070
(lp1071
I34021566
aI34022881
aS'+'
aI34021567
asS'Scgb1b24'
p1072
(lp1073
I33743798
aI33745103
aS'+'
aI33743798
asS'Ndufab1'
p1074
(lp1075
I122088043
aI122101848
aS'-'
aI122091593
asS'Slc17a7'
p1076
(lp1077
I45163920
aI45176139
aS'+'
aI45164082
asS'Ehd2'
p1078
(lp1079
I15946962
aI15967531
aS'-'
aI15950240
asS'Atg16l2'
p1080
(lp1081
I101286324
aI101302263
aS'-'
aI101302263
asS'Ttyh1'
p1082
(lp1083
I4119529
aI4135407
aS'+'
aI4125600
asS'Gm10668'
p1084
(lp1085
I20724800
aI20725824
aS'-'
aI20724918
asS'Gm10666'
p1086
(lp1087
I22133775
aI22134741
aS'-'
aI22133775
asS'4933406I18Rik'
p1088
(lp1089
I114315478
aI114415161
aS'-'
aI114415161
asS'Gm10665'
p1090
(lp1091
I22463109
aI22464075
aS'-'
aI22463109
asS'Gm10662'
p1092
(lp1093
I23132622
aI23144478
aS'-'
aI23132995
asS'Gm29443'
p1094
(lp1095
I16613823
aI16632643
aS'+'
aI16632643
asS'Zfp296'
p1096
(lp1097
I19577286
aI19580656
aS'+'
aI19577381
asS'Slc6a5'
p1098
(lp1099
I49906970
aI49963864
aS'+'
aI49907027
asS'Eml2'
p1100
(lp1101
I19176415
aI19206482
aS'+'
aI19206482
asS'Igsf6'
p1102
(lp1103
I121064066
aI121074530
aS'-'
aI121065460
asS'Gvin1'
p1104
(lp1105
I106156534
aI106215340
aS'-'
aI106157976
asS'Vmn1r118'
p1106
(lp1107
I20911426
aI20912347
aS'-'
aI20911426
asS'Vmn1r119'
p1108
(lp1109
I21011531
aI21012455
aS'-'
aI21011531
asS'Gm29683'
p1110
(lp1111
I70178867
aI70337822
aS'-'
aI70337822
asS'Vmn1r114'
p1112
(lp1113
I20811220
aI20812186
aS'-'
aI20811220
asS'Vmn1r115'
p1114
(lp1115
I20844097
aI20844985
aS'-'
aI20844097
asS'Vmn1r116'
p1116
(lp1117
I20872255
aI20873179
aS'+'
aI20872255
asS'Vmn1r117'
p1118
(lp1119
I20883197
aI20884121
aS'-'
aI20883197
asS'Vmn1r111'
p1120
(lp1121
I20702295
aI20703216
aS'-'
aI20702295
asS'Vmn1r112'
p1122
(lp1123
I20771184
aI20772078
aS'+'
aI20771184
asS'Vmn1r113'
p1124
(lp1125
I20787284
aI20788208
aS'+'
aI20787284
asS'Olfr611'
p1126
(lp1127
I103517410
aI103518382
aS'-'
aI103517410
asS'Olfr610'
p1128
(lp1129
I103505996
aI103506944
aS'-'
aI103505996
asS'Gm30482'
p1130
(lp1131
I9791066
aI9793047
aS'-'
aI9793047
asS'Olfr612'
p1132
(lp1133
I103538260
aI103539232
aS'-'
aI103538260
asS'Olfr615'
p1134
(lp1135
I103560478
aI103561420
aS'+'
aI103560478
asS'Olfr617'
p1136
(lp1137
I103584023
aI103584980
aS'+'
aI103584023
asS'Olfr616'
p1138
(lp1139
I103564323
aI103565277
aS'-'
aI103564323
asS'Olfr619'
p1140
(lp1141
I103603588
aI103604712
aS'+'
aI103603655
asS'Snord116l2'
p1142
(lp1143
I59876934
aI59877024
aS'-'
aI59877024
asS'1700039E15Rik'
p1144
(lp1145
I45277330
aI45288996
aS'+'
aI45279883
asS'Zfand6'
p1146
(lp1147
I84615044
aI84689879
aS'-'
aI84615819
asS'2900076A07Rik'
p1148
(lp1149
I81523549
aI81531498
aS'+'
aI81531498
asS'Rpl18'
p1150
(lp1151
I45718070
aI45720835
aS'+'
aI45718136
asS'Hspbp1'
p1152
(lp1153
I4660514
aI4685123
aS'-'
aI4660770
asS'Doc2a'
p1154
(lp1155
I126846985
aI126852705
aS'+'
aI126848585
asS'Snora52'
p1156
(lp1157
I141448802
aI141448936
aS'+'
aI141448936
asS'Cpeb1'
p1158
(lp1159
I81347025
aI81456936
aS'-'
aI81348340
asS'Gm29729'
p1160
(lp1161
I60833595
aI60922937
aS'-'
aI60922937
asS'Mir675'
p1162
(lp1163
I142577063
aI142577147
aS'-'
aI142577147
asS'Olfr504'
p1164
(lp1165
I108564836
aI108565793
aS'-'
aI108564836
asS'Olfr507'
p1166
(lp1167
I108621813
aI108622764
aS'+'
aI108621813
asS'Olfr506'
p1168
(lp1169
I108612308
aI108613253
aS'+'
aI108612308
asS'Olfr503'
p1170
(lp1171
I108544526
aI108545498
aS'+'
aI108544526
asS'Olfr502'
p1172
(lp1173
I108523003
aI108523948
aS'-'
aI108523003
asS'LOC108167463'
p1174
(lp1175
I132896877
aI132900134
aS'+'
aI132900134
asS'Proser3'
p1176
(lp1177
I30539128
aI30552438
aS'-'
aI30539440
asS'Olfr509'
p1178
(lp1179
I108645608
aI108646574
aS'-'
aI108645608
asS'Olfr508'
p1180
(lp1181
I108629993
aI108630926
aS'+'
aI108629993
asS'Gm4498'
p1182
(lp1183
I20232907
aI20233828
aS'-'
aI20232907
asS'C2cd3'
p1184
(lp1185
I100372232
aI100470159
aS'+'
aI100372441
asS'Klf13'
p1186
(lp1187
I63886350
aI63938915
aS'-'
aI63891507
asS'Gm40452'
p1188
(lp1189
I113048894
aI113050767
aS'-'
aI113050767
asS'Gm40453'
p1190
(lp1191
I116434780
aI116436926
aS'+'
aI116434882
asS'Gm40454'
p1192
(lp1193
I118180960
aI118182367
aS'-'
aI118182367
asS'Gm40455'
p1194
(lp1195
I119966342
aI119994747
aS'+'
aI119994747
asS'Gm40457'
p1196
(lp1197
I128493821
aI128499847
aS'-'
aI128499847
asS'Muc2'
p1198
(lp1199
I141690339
aI141754694
aS'+'
aI141690368
asS'Nphs1'
p1200
(lp1201
I30458205
aI30487121
aS'+'
aI30458462
asS'Muc6'
p1202
(lp1203
I141634048
aI141655308
aS'-'
aI141634048
asS'Aldh16a1'
p1204
(lp1205
I45141839
aI45154538
aS'-'
aI45141940
asS'Izumo2'
p1206
(lp1207
I44708699
aI44719845
aS'+'
aI44708742
asS'Gm30829'
p1208
(lp1209
I60923151
aI60961459
aS'-'
aI60961459
asS'Kcnc1'
p1210
(lp1211
I46396456
aI46438706
aS'+'
aI46397677
asS'Gm33027'
p1212
(lp1213
I129401118
aI129403300
aS'-'
aI129403300
asS'Fosb'
p1214
(lp1215
I19302695
aI19310226
aS'-'
aI19304840
asS'Mrpl17'
p1216
(lp1217
I105803781
aI105811087
aS'-'
aI105809856
asS'LOC102641859'
p1218
(lp1219
I97681849
aI97696640
aS'-'
aI97696640
asS'LOC108167421'
p1220
(lp1221
I45016399
aI45017692
aS'+'
aI45017692
asS'LOC108167420'
p1222
(lp1223
I44587377
aI44590368
aS'+'
aI44590368
asS'LOC108167423'
p1224
(lp1225
I45715456
aI45716877
aS'+'
aI45716877
asS'LOC108167422'
p1226
(lp1227
I45129787
aI45130871
aS'-'
aI45130871
asS'LOC108167425'
p1228
(lp1229
I46441238
aI46442183
aS'+'
aI46442183
asS'LOC108167424'
p1230
(lp1231
I45963493
aI45971220
aS'-'
aI45971220
asS'Sult2a8'
p1232
(lp1233
I14410688
aI14446769
aS'-'
aI14411706
asS'LOC108167426'
p1234
(lp1235
I48724654
aI48748191
aS'-'
aI48748191
asS'Sult2a6'
p1236
(lp1237
I14222402
aI14254870
aS'-'
aI14222476
asS'Sult2a7'
p1238
(lp1239
I14465158
aI14492926
aS'-'
aI14465158
asS'Sult2a4'
p1240
(lp1241
I13909676
aI13989588
aS'-'
aI13909785
asS'Sult2a5'
p1242
(lp1243
I13623966
aI13670807
aS'+'
aI13624044
asS'Sult2a2'
p1244
(lp1245
I13733505
aI13779637
aS'+'
aI13733558
asS'Sult2a3'
p1246
(lp1247
I14067554
aI14122993
aS'-'
aI14067554
asS'Sult2a1'
p1248
(lp1249
I13796245
aI13837410
aS'-'
aI13796354
asS'Gm8720'
p1250
(lp1251
I23066532
aI23067456
aS'-'
aI23066532
asS'Olfr613'
p1252
(lp1253
I103550367
aI103555504
aS'+'
aI103551786
asS'Fes'
p1254
(lp1255
I80377757
aI80387946
aS'-'
aI80377931
asS'4933406J10Rik'
p1256
(lp1257
I82743345
aI82755644
aS'-'
aI82755644
asS'Gm33560'
p1258
(lp1259
I141122862
aI141126228
aS'+'
aI141126228
asS'Tgfb1'
p1260
(lp1261
I25687001
aI25705077
aS'+'
aI25687868
asS'Sptbn4'
p1262
(lp1263
I27356382
aI27447704
aS'-'
aI27357291
asS'Ntn5'
p1264
(lp1265
I45684021
aI45694556
aS'+'
aI45684464
asS'Rfpl4'
p1266
(lp1267
I5109786
aI5116911
aS'-'
aI5110316
asS'Kif7'
p1268
(lp1269
I79698097
aI79715772
aS'-'
aI79698547
asS'LOC108167514'
p1270
(lp1271
I127576055
aI127579244
aS'-'
aI127579244
asS'LOC108167511'
p1272
(lp1273
I49121936
aI49165578
aS'-'
aI49165578
asS'Nr1h2'
p1274
(lp1275
I44549615
aI44553968
aS'-'
aI44549984
asS'LOC108167512'
p1276
(lp1277
I96907621
aI96951521
aS'-'
aI96951521
asS'Bcl2l12'
p1278
(lp1279
I44991221
aI44997579
aS'-'
aI44991403
asS'C230062I16Rik'
p1280
(lp1281
I29960892
aI29969664
aS'+'
aI29969664
asS'Gm34121'
p1282
(lp1283
I56038353
aI56050076
aS'-'
aI56050076
asS'BC024978'
p1284
(lp1285
I27196181
aI27206123
aS'+'
aI27197013
asS'Nfatc2ip'
p1286
(lp1287
I126382852
aI126397255
aS'-'
aI126384980
asS'Gm38439'
p1288
(lp1289
I37293174
aI37300411
aS'+'
aI37300411
asS'Gm6249'
p1290
(lp1291
I136667954
aI136710604
aS'-'
aI136710604
asS'Nell1os'
p1292
(lp1293
I50517308
aI50575884
aS'-'
aI50575884
asS'Fam160a2'
p1294
(lp1295
I105371210
aI105400054
aS'-'
aI105378770
asS'Ampd3'
p1296
(lp1297
I110767929
aI110812400
aS'+'
aI110767954
asS'4933417O13Rik'
p1298
(lp1299
I143322771
aI143330650
aS'-'
aI143330650
asS'Snrpa1'
p1300
(lp1301
I66060335
aI66074587
aS'+'
aI66060610
asS'5830411N06Rik'
p1302
(lp1303
I140247278
aI140300734
aS'+'
aI140300734
asS'Ins2'
p1304
(lp1305
I142678655
aI142679726
aS'-'
aI142678712
asS'Gm18853'
p1306
(lp1307
I106185742
aI106190099
aS'-'
aI106190099
asS'Gm33290'
p1308
(lp1309
I51772978
aI51777779
aS'+'
aI51777779
asS'Snrpn'
p1310
(lp1311
I59982501
aI60140219
aS'-'
aI59983239
asS'Zfp28'
p1312
(lp1313
I6383317
aI6396637
aS'+'
aI6383393
asS'Mir7-2'
p1314
(lp1315
I78888276
aI78888373
aS'+'
aI78888373
asS'Zfp27'
p1316
(lp1317
I29893330
aI29906570
aS'-'
aI29894078
asS'Zfp619'
p1318
(lp1319
I39517765
aI39540415
aS'+'
aI39517861
asS'Map3k10'
p1320
(lp1321
I27656378
aI27674609
aS'-'
aI27656663
asS'Polr3e'
p1322
(lp1323
I120917743
aI120947432
aS'+'
aI120922932
asS'4930483O08Rik'
p1324
(lp1325
I133128250
aI133142457
aS'+'
aI133142457
asS'Phox2a'
p1326
(lp1327
I101818312
aI101822726
aS'+'
aI101818497
asS'Ceacam20'
p1328
(lp1329
I19965411
aI19991113
aS'+'
aI19965487
asS'Gm34725'
p1330
(lp1331
I131936618
aI131963737
aS'-'
aI131963737
asS'Snord15a'
p1332
(lp1333
I99482784
aI99482932
aS'-'
aI99482932
asS'Mir5620'
p1334
(lp1335
I7298890
aI7298946
aS'+'
aI7298946
asS'Nars2'
p1336
(lp1337
I96951526
aI97064758
aS'+'
aI96951803
asS'Nipa1'
p1338
(lp1339
I55978483
aI56019573
aS'-'
aI55979391
asS'Gm6882'
p1340
(lp1341
I21426999
aI21427941
aS'-'
aI21426999
asS'Nr2f2'
p1342
(lp1343
I70351949
aI70366746
aS'-'
aI70354656
asS'Gm33586'
p1344
(lp1345
I112983358
aI113010892
aS'+'
aI113010892
asS'Shisa7'
p1346
(lp1347
I4825551
aI4844784
aS'-'
aI4829634
asS'LOC105242840'
p1348
(lp1349
I3467787
aI3474788
aS'-'
aI3474788
asS'Qpctl'
p1350
(lp1351
I19140216
aI19149196
aS'-'
aI19141153
asS'Nps'
p1352
(lp1353
I135268618
aI135272942
aS'+'
aI135268638
asS'Gm6866'
p1354
(lp1355
I41210020
aI41219441
aS'+'
aI41210164
asS'Zfp507'
p1356
(lp1357
I35772345
aI35802989
aS'-'
aI35775960
asS'A930016O22Rik'
p1358
(lp1359
I19417465
aI19421417
aS'-'
aI19421417
asS'Gm35297'
p1360
(lp1361
I34522340
aI34547064
aS'-'
aI34547064
asS'Gm12758'
p1362
(lp1363
I34233292
aI34236732
aS'+'
aI34236732
asS'Gm34838'
p1364
(lp1365
I69391547
aI69400198
aS'-'
aI69400198
asS'Olfr78'
p1366
(lp1367
I102740720
aI102759471
aS'-'
aI102742038
asS'Xpo6'
p1368
(lp1369
I126101717
aI126200519
aS'-'
aI126102288
asS'Sez6l2'
p1370
(lp1371
I126950435
aI126970610
aS'+'
aI126951037
asS'Ppp1r15a'
p1372
(lp1373
I45522916
aI45526268
aS'-'
aI45522992
asS'Fam187b'
p1374
(lp1375
I30973803
aI30989726
aS'+'
aI30989726
asS'Atp4a'
p1376
(lp1377
I30712208
aI30725534
aS'+'
aI30712250
asS'Gm32164'
p1378
(lp1379
I90055374
aI90063506
aS'-'
aI90063506
asS'Gm32786'
p1380
(lp1381
I142095893
aI142137923
aS'+'
aI142137923
asS'Gm20083'
p1382
(lp1383
I73183604
aI73192432
aS'+'
aI73192432
asS'Gm42400'
p1384
(lp1385
I81731402
aI81737634
aS'+'
aI81737634
asS'Ctbp2'
p1386
(lp1387
I132987150
aI133123749
aS'-'
aI132988170
asS'Olfr66'
p1388
(lp1389
I103881305
aI103882241
aS'-'
aI103881305
asS'Chid1'
p1390
(lp1391
I141493135
aI141539857
aS'-'
aI141496047
asS'Gm38939'
p1392
(lp1393
I4866186
aI4871785
aS'+'
aI4871785
asS'Flt3l'
p1394
(lp1395
I45131182
aI45136490
aS'-'
aI45136490
asS'Isoc2b'
p1396
(lp1397
I4844959
aI4866179
aS'-'
aI4845269
asS'Prkcdbp'
p1398
(lp1399
I105480615
aI105482197
aS'-'
aI105480820
asS'Isoc2a'
p1400
(lp1401
I4877052
aI4895717
aS'+'
aI4891192
asS'Gm34908'
p1402
(lp1403
I132360360
aI132386552
aS'-'
aI132386552
asS'Zfp473'
p1404
(lp1405
I44731481
aI44748617
aS'-'
aI44732228
asS'Lyrm1'
p1406
(lp1407
I119895795
aI119916756
aS'+'
aI119909803
asS'Gm21269'
p1408
(lp1409
I73825923
aI73836549
aS'+'
aI73836549
asS'Gm39043'
p1410
(lp1411
I83814083
aI83838259
aS'+'
aI83838259
asS'Gm38596'
p1412
(lp1413
I14532917
aI14536041
aS'+'
aI14536041
asS'Gm39041'
p1414
(lp1415
I79298949
aI79302400
aS'+'
aI79302400
asS'Gm39040'
p1416
(lp1417
I79243822
aI79247576
aS'-'
aI79247576
asS'Gm39047'
p1418
(lp1419
I86890297
aI86897738
aS'+'
aI86897738
asS'Gm32766'
p1420
(lp1421
I118358169
aI118370075
aS'-'
aI118358169
asS'Mir9-3hg'
p1422
(lp1423
I79500025
aI79534403
aS'+'
aI79534403
asS'Gm39044'
p1424
(lp1425
I84153953
aI84164914
aS'-'
aI84164914
asS'Gm5065'
p1426
(lp1427
I5350541
aI5360682
aS'+'
aI5360682
asS'Cyth2'
p1428
(lp1429
I45806636
aI45814316
aS'-'
aI45807760
asS'Sept1'
p1430
(lp1431
I127214441
aI127232987
aS'-'
aI127214757
asS'Cic'
p1432
(lp1433
I25267655
aI25294145
aS'+'
aI25270845
asS'Gm36865'
p1434
(lp1435
I72745570
aI72826646
aS'-'
aI72826646
asS'Sympk'
p1436
(lp1437
I19024376
aI19054622
aS'+'
aI19028882
asS'Kctd15'
p1438
(lp1439
I34639014
aI34655509
aS'-'
aI34640290
asS'Gm42369'
p1440
(lp1441
I4738989
aI4739994
aS'-'
aI4739994
asS'Tacc2'
p1442
(lp1443
I130553008
aI130767705
aS'+'
aI130577483
asS'Nap1l4'
p1444
(lp1445
I143513578
aI143549196
aS'-'
aI143514598
asS'C330022C24Rik'
p1446
(lp1447
I140837220
aI140845689
aS'-'
aI140845689
asS'Dbx1'
p1448
(lp1449
I49631498
aI49636835
aS'-'
aI49632447
asS'Dctpp1'
p1450
(lp1451
I127256958
aI127260667
aS'-'
aI127257035
asS'Mir291b'
p1452
(lp1453
I3219481
aI3219560
aS'+'
aI3219560
asS'Mrgprb13'
p1454
(lp1455
I48311303
aI48312323
aS'+'
aI48311303
asS'Gm32849'
p1456
(lp1457
I49073270
aI49093226
aS'+'
aI49093226
asS'Rpl14-ps1'
p1458
(lp1459
I45324957
aI45325651
aS'+'
aI45325651
asS'Fgf3'
p1460
(lp1461
I144837956
aI144844447
aS'+'
aI144838707
asS'Mir291a'
p1462
(lp1463
I3218918
aI3219000
aS'+'
aI3219000
asS'Gm29087'
p1464
(lp1465
I38528335
aI38537304
aS'+'
aI38537304
asS'A230077H06Rik'
p1466
(lp1467
I40849152
aI40898324
aS'-'
aI40898324
asS'Zfp329'
p1468
(lp1469
I12803777
aI12818860
aS'-'
aI12810026
asS'Cd22'
p1470
(lp1471
I30865403
aI30880342
aS'-'
aI30880342
asS'1700011C11Rik'
p1472
(lp1473
I71961174
aI72027317
aS'+'
aI72027317
asS'Gm26891'
p1474
(lp1475
I27927548
aI27928474
aS'+'
aI27928474
asS'Vmn1r62'
p1476
(lp1477
I5674603
aI5676599
aS'+'
aI5675321
asS'Ptpre'
p1478
(lp1479
I135537823
aI135686294
aS'+'
aI135538063
asS'Ceacam19'
p1480
(lp1481
I19875741
aI19887965
aS'-'
aI19878126
asS'Ceacam18'
p1482
(lp1483
I43634738
aI43649295
aS'+'
aI43634763
asS'Ceacam15'
p1484
(lp1485
I16671330
aI16675705
aS'-'
aI16671919
asS'Ceacam14'
p1486
(lp1487
I17812681
aI17815627
aS'+'
aI17812763
asS'Ceacam16'
p1488
(lp1489
I19852096
aI19871488
aS'-'
aI19852302
asS'Ceacam11'
p1490
(lp1491
I17972166
aI17978556
aS'+'
aI17972248
asS'Ceacam10'
p1492
(lp1493
I24777166
aI24784656
aS'+'
aI24777275
asS'Ceacam13'
p1494
(lp1495
I18009888
aI18019220
aS'+'
aI18009969
asS'Ceacam12'
p1496
(lp1497
I18065928
aI18077986
aS'+'
aI18066060
asS'Gm40450'
p1498
(lp1499
I99511649
aI99517153
aS'+'
aI99517153
asS'Dpysl4'
p1500
(lp1501
I139085980
aI139101795
aS'+'
aI139090219
asS'Gm20482'
p1502
(lp1503
I8854745
aI8863029
aS'-'
aI8863029
asS'Gm4532'
p1504
(lp1505
I127232417
aI127233130
aS'-'
aI127233130
asS'1500012K07Rik'
p1506
(lp1507
I75308701
aI75331419
aS'+'
aI75331419
asS'Gm40451'
p1508
(lp1509
I112668457
aI112672262
aS'-'
aI112672262
asS'Palb2'
p1510
(lp1511
I122107261
aI122132980
aS'-'
aI122132980
asS'Gm30928'
p1512
(lp1513
I126337035
aI126356055
aS'-'
aI126356055
asS'E130201H02Rik'
p1514
(lp1515
I120597624
aI120598475
aS'+'
aI120598475
asS'Arl6ip1'
p1516
(lp1517
I118118889
aI118129625
aS'-'
aI118120291
asS'Relt'
p1518
(lp1519
I100845846
aI100863483
aS'-'
aI100847429
asS'Fchsd2'
p1520
(lp1521
I101108710
aI101284405
aS'+'
aI101191759
asS'Relb'
p1522
(lp1523
I19606221
aI19629438
aS'-'
aI19606552
asS'Gm10610'
p1524
(lp1525
I83536809
aI83550693
aS'-'
aI83550693
asS'1700123J17Rik'
p1526
(lp1527
I126224246
aI126248238
aS'-'
aI126248238
asS'Gm30059'
p1528
(lp1529
I122267464
aI122273871
aS'+'
aI122273871
asS'Gm36260'
p1530
(lp1531
I71373009
aI71379654
aS'-'
aI71379654
asS'LOC108167451'
p1532
(lp1533
I101581594
aI101582829
aS'+'
aI101582829
asS'Tnfrsf26'
p1534
(lp1535
I143607684
aI143627845
aS'-'
aI143610043
asS'Olfr550'
p1536
(lp1537
I102571430
aI102579662
aS'+'
aI102571826
asS'1700012D14Rik'
p1538
(lp1539
I111117672
aI111122675
aS'-'
aI111122675
asS'Prmt3'
p1540
(lp1541
I49778357
aI49858265
aS'+'
aI49778476
asS'Prmt1'
p1542
(lp1543
I44976754
aI44986420
aS'-'
aI44986420
asS'Zfp260'
p1544
(lp1545
I30094781
aI30107622
aS'+'
aI30104676
asS'Gm10584'
p1546
(lp1547
I132315663
aI132318291
aS'+'
aI132318291
asS'Mrgprb3'
p1548
(lp1549
I48642862
aI48643801
aS'-'
aI48642862
asS'Mrgprb2'
p1550
(lp1551
I48550964
aI48558086
aS'-'
aI48551958
asS'Mrgprb1'
p1552
(lp1553
I48444112
aI48456342
aS'-'
aI48447109
asS'Mrgprb5'
p1554
(lp1555
I48168016
aI48168985
aS'-'
aI48168016
asS'Mrgprb4'
p1556
(lp1557
I48198212
aI48199178
aS'-'
aI48198212
asS'Vmn1r107'
p1558
(lp1559
I20668917
aI20669841
aS'+'
aI20668917
asS'Vmn1r104'
p1560
(lp1561
I20533836
aI20534760
aS'+'
aI20533836
asS'Vmn1r103'
p1562
(lp1563
I20509616
aI20510534
aS'-'
aI20509616
asS'Vmn1r101'
p1564
(lp1565
I20441669
aI20442593
aS'-'
aI20441669
asS'Vmn1r100'
p1566
(lp1567
I20417941
aI20418865
aS'+'
aI20417941
asS'Calm3'
p1568
(lp1569
I16915378
aI16924032
aS'-'
aI16916947
asS'Olfr608'
p1570
(lp1571
I103470040
aI103470991
aS'+'
aI103470040
asS'Olfr609'
p1572
(lp1573
I103491916
aI103492876
aS'-'
aI103491916
asS'Olfr606'
p1574
(lp1575
I103451338
aI103452298
aS'+'
aI103451338
asS'Olfr607'
p1576
(lp1577
I103460222
aI103464126
aS'-'
aI103460222
asS'Olfr605'
p1578
(lp1579
I103442139
aI103443150
aS'-'
aI103442176
asS'Ric3'
p1580
(lp1581
I109034318
aI109083331
aS'-'
aI109038443
asS'Olfr600'
p1582
(lp1583
I103345981
aI103346926
aS'-'
aI103345981
asS'Clec11a'
p1584
(lp1585
I44303765
aI44306959
aS'-'
aI44304540
asS'Klk1'
p1586
(lp1587
I44225359
aI44229622
aS'+'
aI44228627
asS'Fiz1'
p1588
(lp1589
I5007055
aI5014728
aS'-'
aI5008014
asS'Klk5'
p1590
(lp1591
I43834156
aI43851180
aS'+'
aI43842315
asS'Klk6'
p1592
(lp1593
I43824543
aI43832027
aS'+'
aI43826056
asS'Klk7'
p1594
(lp1595
I43811293
aI43816387
aS'+'
aI43811960
asS'Klk8'
p1596
(lp1597
I43797576
aI43803826
aS'+'
aI43798062
asS'Klk9'
p1598
(lp1599
I43791587
aI43796758
aS'+'
aI43791996
asS'Tubgcp2'
p1600
(lp1601
I139995954
aI140036674
aS'-'
aI139996030
asS'Gipr'
p1602
(lp1603
I19156062
aI19170248
aS'-'
aI19157367
asS'Stim1'
p1604
(lp1605
I102261513
aI102437319
aS'+'
aI102354583
asS'Izumo1'
p1606
(lp1607
I45621810
aI45627242
aS'+'
aI45622796
asS'Gm33926'
p1608
(lp1609
I67428900
aI67440397
aS'-'
aI67440397
asS'Mtmr10'
p1610
(lp1611
I64287669
aI64340806
aS'+'
aI64287781
asS'Gm36464'
p1612
(lp1613
I36936105
aI36961464
aS'+'
aI36961464
asS'Atp5sl'
p1614
(lp1615
I25619413
aI25625550
aS'+'
aI25619442
asS'Olfr512'
p1616
(lp1617
I108713354
aI108714335
aS'+'
aI108713354
asS'Olfr513'
p1618
(lp1619
I108754857
aI108755787
aS'+'
aI108754857
asS'Olfr510'
p1620
(lp1621
I108666423
aI108668362
aS'+'
aI108667417
asS'Olfr516'
p1622
(lp1623
I108845063
aI108846008
aS'-'
aI108845063
asS'Olfr517'
p1624
(lp1625
I108868207
aI108869152
aS'-'
aI108868207
asS'Trim34a'
p1626
(lp1627
I104244443
aI104262239
aS'+'
aI104262239
asS'Pak4'
p1628
(lp1629
I28558818
aI28598184
aS'-'
aI28559649
asS'Ceacam5'
p1630
(lp1631
I17713216
aI17761154
aS'+'
aI17713446
asS'Olfr518'
p1632
(lp1633
I108880602
aI108881604
aS'-'
aI108880602
asS'Olfr519'
p1634
(lp1635
I108893460
aI108894405
aS'-'
aI108893460
asS'Pak1'
p1636
(lp1637
I97830930
aI97912381
aS'+'
aI97854459
asS'Scgb2b30'
p1638
(lp1639
I32146239
aI32148032
aS'-'
aI32146239
asS'Adm'
p1640
(lp1641
I110627668
aI110629819
aS'+'
aI110628278
asS'Gm40460'
p1642
(lp1643
I142239754
aI142241113
aS'-'
aI142240343
asS'Ccp110'
p1644
(lp1645
I118712514
aI118737024
aS'+'
aI118715373
asS'Cyfip1'
p1646
(lp1647
I55842070
aI55932633
aS'+'
aI55871859
asS'Lrrk1'
p1648
(lp1649
I66258744
aI66388341
aS'-'
aI66259915
asS'Etv2'
p1650
(lp1651
I30633617
aI30636509
aS'-'
aI30633633
asS'Lipt2'
p1652
(lp1653
I100159276
aI100160931
aS'+'
aI100159281
asS'Gm33031'
p1654
(lp1655
I139582974
aI139604098
aS'+'
aI139604098
asS'Ruvbl2'
p1656
(lp1657
I45421895
aI45435332
aS'-'
aI45421979
asS'A230057D06Rik'
p1658
(lp1659
I61705849
aI61927574
aS'-'
aI61927574
asS'Pwwp2b'
p1660
(lp1661
I139248481
aI139267253
aS'+'
aI139248518
asS'Fus'
p1662
(lp1663
I127966787
aI127982032
aS'+'
aI127967564
asS'Pop4'
p1664
(lp1665
I38262811
aI38271388
aS'-'
aI38263172
asS'Tmem126a'
p1666
(lp1667
I90450711
aI90457208
aS'-'
aI90450742
asS'Tmem126b'
p1668
(lp1669
I90468832
aI90475995
aS'-'
aI90468977
asS'Olfr618'
p1670
(lp1671
I103597317
aI103598274
aS'+'
aI103597317
asS'Eif4g2'
p1672
(lp1673
I111067984
aI111083030
aS'-'
aI111072691
asS'Cabp5'
p1674
(lp1675
I13385959
aI13408887
aS'+'
aI13388454
asS'BC024386'
p1676
(lp1677
I140906063
aI140907979
aS'+'
aI140907979
asS'E2f8'
p1678
(lp1679
I48866428
aI48882073
aS'-'
aI48867046
asS'Lgi4'
p1680
(lp1681
I31058824
aI31070922
aS'+'
aI31060563
asS'Cyp2b13'
p1682
(lp1683
I26061494
aI26096196
aS'+'
aI26061519
asS'Gm8995'
p1684
(lp1685
I106503885
aI106529200
aS'-'
aI106529200
asS'Gde1'
p1686
(lp1687
I118688557
aI118705738
aS'-'
aI118689002
asS'Cyp2b19'
p1688
(lp1689
I26757141
aI26772630
aS'+'
aI26757186
asS'Bola2'
p1690
(lp1691
I126695999
aI126696693
aS'+'
aI126696036
asS'Inafm1'
p1692
(lp1693
I16272012
aI16273692
aS'-'
aI16272897
asS'Iglon5'
p1694
(lp1695
I43472906
aI43490023
aS'-'
aI43474462
asS'Gm15510'
p1696
(lp1697
I5046945
aI5051486
aS'-'
aI5051486
asS'Gm15517'
p1698
(lp1699
I44261346
aI44263736
aS'+'
aI44263736
asS'1700008J07Rik'
p1700
(lp1701
I127510437
aI127512869
aS'-'
aI127512869
asS'LOC100505025'
p1702
(lp1703
I73310379
aI73315193
aS'+'
aI73315193
asS'Gm30459'
p1704
(lp1705
I74765986
aI74771243
aS'+'
aI74771243
asS'Akap13'
p1706
(lp1707
I75455533
aI75754609
aS'+'
aI75534818
asS'5830432E09Rik'
p1708
(lp1709
I135648456
aI135652314
aS'-'
aI135652314
asS'Arrb1'
p1710
(lp1711
I99535485
aI99606771
aS'+'
aI99535778
asS'Tmc4'
p1712
(lp1713
I3665753
aI3677553
aS'-'
aI3665939
asS'Tmc5'
p1714
(lp1715
I118597295
aI118675086
aS'+'
aI118623078
asS'Cemip'
p1716
(lp1717
I83932856
aI84086693
aS'-'
aI83935620
asS'Tmc3'
p1718
(lp1719
I83584300
aI83626852
aS'+'
aI83585091
asS'Mia'
p1720
(lp1721
I27179740
aI27181149
aS'-'
aI27179810
asS'Gm34645'
p1722
(lp1723
I131824770
aI131827922
aS'-'
aI131827922
asS'Olfr641'
p1724
(lp1725
I104039797
aI104040736
aS'+'
aI104039797
asS'Gm8660'
p1726
(lp1727
I22370121
aI22371039
aS'-'
aI22370121
asS'4930543E12Rik'
p1728
(lp1729
I113100235
aI113142015
aS'-'
aI113142015
asS'Mrpl23'
p1730
(lp1731
I142532723
aI142540747
aS'+'
aI142532738
asS'Olfr646'
p1732
(lp1733
I104097315
aI104107219
aS'+'
aI104097315
asS'Spib'
p1734
(lp1735
I44525996
aI44532087
aS'-'
aI44528080
asS'Dmkn'
p1736
(lp1737
I30763723
aI30781064
aS'+'
aI30763923
asS'Herc2'
p1738
(lp1739
I56050154
aI56231800
aS'+'
aI56050876
asS'Ppp1r12c'
p1740
(lp1741
I4481518
aI4502221
aS'-'
aI4482071
asS'Igfl3'
p1742
(lp1743
I18176493
aI18181862
aS'+'
aI18176526
asS'Gm15645'
p1744
(lp1745
I105861780
aI105863327
aS'+'
aI105863327
asS'Nkpd1'
p1746
(lp1747
I19516235
aI19525057
aS'+'
aI19517508
asS'Zfp667'
p1748
(lp1749
I6286185
aI6307676
aS'+'
aI6289404
asS'Gm32539'
p1750
(lp1751
I141924302
aI141943498
aS'+'
aI141943498
asS'Scgb2b4-ps'
p1752
(lp1753
I31399584
aI31403178
aS'-'
aI31399584
asS'Zfp668'
p1754
(lp1755
I127863037
aI127876040
aS'-'
aI127866150
asS'Gm35353'
p1756
(lp1757
I42505826
aI42510268
aS'+'
aI42510268
asS'LOC108167429'
p1758
(lp1759
I51621393
aI51624320
aS'-'
aI51624320
asS'Ap2a1'
p1760
(lp1761
I44900372
aI44929490
aS'-'
aI44900737
asS'LOC105243101'
p1762
(lp1763
I142257646
aI142258354
aS'-'
aI142257646
asS'LOC108167428'
p1764
(lp1765
I49763630
aI49770162
aS'+'
aI49770162
asS'Gm34999'
p1766
(lp1767
I118259482
aI118280424
aS'+'
aI118280424
asS'Gm31510'
p1768
(lp1769
I79271683
aI79273127
aS'-'
aI79273127
asS'Klc3'
p1770
(lp1771
I19394439
aI19404448
aS'-'
aI19394869
asS'Hamp'
p1772
(lp1773
I30942367
aI30944017
aS'-'
aI30942476
asS'Sgf29'
p1774
(lp1775
I126649297
aI126672779
aS'+'
aI126661073
asS'Cd3eap'
p1776
(lp1777
I19356006
aI19359483
aS'-'
aI19356980
asS'Olfr53'
p1778
(lp1779
I140646451
aI140652919
aS'+'
aI140651980
asS'B230209E15Rik'
p1780
(lp1781
I61529409
aI61615327
aS'-'
aI61615327
asS'Gm34365'
p1782
(lp1783
I130601945
aI130619491
aS'-'
aI130619491
asS'Sec11a'
p1784
(lp1785
I80915378
aI80947550
aS'-'
aI80915853
asS'Acer3'
p1786
(lp1787
I98213659
aI98309527
aS'-'
aI98216836
asS'Apoe'
p1788
(lp1789
I19696243
aI19699188
aS'-'
aI19696379
asS'Olfr711'
p1790
(lp1791
I106971367
aI106975451
aS'-'
aI106971397
asS'Olfr467'
p1792
(lp1793
I107814585
aI107815506
aS'+'
aI107814585
asS'Olfr65'
p1794
(lp1795
I103906341
aI103907447
aS'+'
aI103906440
asS'Olfr64'
p1796
(lp1797
I103892809
aI103894471
aS'-'
aI103892809
asS'Gm12763'
p1798
(lp1799
I33653460
aI33657731
aS'+'
aI33657731
asS'Gm12762'
p1800
(lp1801
I34231181
aI34233991
aS'-'
aI34233991
asS'Gm34350'
p1802
(lp1803
I67801580
aI67831285
aS'+'
aI67831285
asS'Olfr60'
p1804
(lp1805
I140345051
aI140345987
aS'-'
aI140345051
asS'Olfr69'
p1806
(lp1807
I103767276
aI103771594
aS'-'
aI103767444
asS'Olfr68'
p1808
(lp1809
I103777395
aI103778343
aS'-'
aI103777395
asS'Ccer2'
p1810
(lp1811
I28755320
aI28758965
aS'+'
aI28756480
asS'Trim30a'
p1812
(lp1813
I104409024
aI104465193
aS'-'
aI104411076
asS'Trim30b'
p1814
(lp1815
I104355397
aI104358646
aS'-'
aI104357167
asS'Trim30c'
p1816
(lp1817
I104379116
aI104400852
aS'-'
aI104400852
asS'4933430H16Rik'
p1818
(lp1819
I82937937
aI82971391
aS'-'
aI82971391
asS'Agbl1'
p1820
(lp1821
I76229886
aI77124698
aS'+'
aI76229886
asS'Pld3'
p1822
(lp1823
I27531644
aI27553207
aS'-'
aI27532297
asS'4932431P20Rik'
p1824
(lp1825
I29519064
aI29537864
aS'+'
aI29537864
asS'Gm7710'
p1826
(lp1827
I73617387
aI73619702
aS'-'
aI73619702
asS'Zfp36'
p1828
(lp1829
I28376783
aI28379228
aS'-'
aI28377557
asS'Nkx1-2'
p1830
(lp1831
I132596238
aI132599637
aS'-'
aI132597112
asS'Zfp30'
p1832
(lp1833
I29783949
aI29794703
aS'+'
aI29789399
asS'Kirrel2'
p1834
(lp1835
I30447765
aI30457515
aS'-'
aI30448118
asS'Ifitm10'
p1836
(lp1837
I142325834
aI142373779
aS'-'
aI142328542
asS'Stard5'
p1838
(lp1839
I83632016
aI83642328
aS'+'
aI83632040
asS'2310057M21Rik'
p1840
(lp1841
I131340861
aI131362845
aS'-'
aI131343569
asS'Gm32178'
p1842
(lp1843
I80956404
aI80981426
aS'-'
aI80981426
asS'AI314278'
p1844
(lp1845
I89426305
aI89432077
aS'+'
aI89432077
asS'Unc45a'
p1846
(lp1847
I80325291
aI80341000
aS'-'
aI80325619
asS'Ubqlnl'
p1848
(lp1849
I104148258
aI104150556
aS'-'
aI104148455
asS'Polr2l'
p1850
(lp1851
I141471859
aI141475153
aS'-'
aI141473295
asS'Polr2i'
p1852
(lp1853
I30232073
aI30233387
aS'+'
aI30232345
asS'Dock1'
p1854
(lp1855
I134670604
aI135173647
aS'+'
aI134670798
asS'Gm39050'
p1856
(lp1857
I97759323
aI97801159
aS'-'
aI97801159
asS'Gm32772'
p1858
(lp1859
I17287646
aI17366538
aS'-'
aI17366538
asS'Gm39053'
p1860
(lp1861
I98433481
aI98437946
aS'+'
aI98437946
asS'Gm39054'
p1862
(lp1863
I98816130
aI98821934
aS'+'
aI98821934
asS'Gm39055'
p1864
(lp1865
I98906589
aI98910998
aS'+'
aI98910998
asS'Gm39056'
p1866
(lp1867
I99500463
aI99505945
aS'+'
aI99505945
asS'Gm39057'
p1868
(lp1869
I100163322
aI100171156
aS'-'
aI100171156
asS'Gm39058'
p1870
(lp1871
I100535590
aI100536980
aS'-'
aI100536980
asS'Gm39059'
p1872
(lp1873
I100541353
aI100544119
aS'-'
aI100544119
asS'Rps13'
p1874
(lp1875
I116331506
aI116334190
aS'-'
aI116331549
asS'Slc28a1'
p1876
(lp1877
I81114448
aI81170416
aS'+'
aI81115538
asS'Gm5725'
p1878
(lp1879
I21843343
aI21844267
aS'-'
aI21843343
asS'Gm5726'
p1880
(lp1881
I20544833
aI20545757
aS'-'
aI20544833
asS'BC046251'
p1882
(lp1883
I65582030
aI65619347
aS'+'
aI65619347
asS'Gm5728'
p1884
(lp1885
I20374492
aI20375410
aS'-'
aI20374492
asS'Gm33204'
p1886
(lp1887
I112009775
aI112012475
aS'+'
aI112012475
asS'Olfr486'
p1888
(lp1889
I108171797
aI108172742
aS'-'
aI108171797
asS'Rps15a'
p1890
(lp1891
I118104373
aI118116147
aS'-'
aI118109099
asS'Sh2b1'
p1892
(lp1893
I126466992
aI126475265
aS'-'
aI126467396
asS'Olfr480'
p1894
(lp1895
I108065767
aI108066796
aS'-'
aI108065767
asS'Gm36071'
p1896
(lp1897
I71154229
aI71186863
aS'+'
aI71186863
asS'Olfr481'
p1898
(lp1899
I108080795
aI108081734
aS'+'
aI108080795
asS'Olfr2'
p1900
(lp1901
I107000874
aI107005558
aS'-'
aI107000874
asS'Fbxo46'
p1902
(lp1903
I19119858
aI19138261
aS'+'
aI19135457
asS'Olfr6'
p1904
(lp1905
I106955983
aI106956934
aS'-'
aI106955983
asS'Hsd17b14'
p1906
(lp1907
I45554855
aI45567319
aS'+'
aI45554978
asS'Olfr5'
p1908
(lp1909
I6480215
aI6487115
aS'-'
aI6480215
asS'Eri2'
p1910
(lp1911
I119783825
aI119794058
aS'-'
aI119785209
asS'Man2a2'
p1912
(lp1913
I80349094
aI80371392
aS'-'
aI80371392
asS'Vmn1r73'
p1914
(lp1915
I11756256
aI11757168
aS'+'
aI11756256
asS'Mir1964'
p1916
(lp1917
I29773293
aI29773376
aS'+'
aI29773376
asS'Mir1963'
p1918
(lp1919
I29083635
aI29083694
aS'-'
aI29083694
asS'Mir1962'
p1920
(lp1921
I135566161
aI135566282
aS'+'
aI135566282
asS'Vasp'
p1922
(lp1923
I19256928
aI19271854
aS'-'
aI19257716
asS'Erich4'
p1924
(lp1925
I25614620
aI25615892
aS'-'
aI25615063
asS'Olfr521'
p1926
(lp1927
I99767163
aI99768130
aS'+'
aI99767163
asS'Rnf121'
p1928
(lp1929
I102019136
aI102072437
aS'-'
aI102020371
asS'Whamm'
p1930
(lp1931
I81571249
aI81596837
aS'+'
aI81585103
asS'Olfr520'
p1932
(lp1933
I99735144
aI99736095
aS'+'
aI99735144
asS'Trim12a'
p1934
(lp1935
I104299892
aI104315850
aS'-'
aI104300836
asS'Trim12c'
p1936
(lp1937
I104338753
aI104353358
aS'-'
aI104340774
asS'Insc'
p1938
(lp1939
I114743680
aI114850380
aS'+'
aI114743880
asS'Tbx6'
p1940
(lp1941
I126781482
aI126785548
aS'+'
aI126781506
asS'Olfr525'
p1942
(lp1943
I140322700
aI140323630
aS'+'
aI140322700
asS'C86187'
p1944
(lp1945
I46967746
aI46975911
aS'-'
aI46975911
asS'Gm36212'
p1946
(lp1947
I71234644
aI71265466
aS'-'
aI71265466
asS'Gm36210'
p1948
(lp1949
I4897697
aI4907717
aS'-'
aI4898979
asS'Cacng3'
p1950
(lp1951
I122671743
aI122769393
aS'+'
aI122671773
asS'Plpp4'
p1952
(lp1953
I129257019
aI129391412
aS'+'
aI129257113
asS'Cyp2b23'
p1954
(lp1955
I26665226
aI26686430
aS'-'
aI26665932
asS'AI467606'
p1956
(lp1957
I127090764
aI127093986
aS'+'
aI127092254
asS'Vmn1r132'
p1958
(lp1959
I21612744
aI21615147
aS'+'
aI21614091
asS'Olfr294'
p1960
(lp1961
I86615635
aI86616643
aS'-'
aI86615635
asS'Vmn1r130'
p1962
(lp1963
I21511779
aI21512703
aS'+'
aI21511779
asS'Vmn1r131'
p1964
(lp1965
I21545169
aI21546090
aS'-'
aI21545169
asS'Olfr291'
p1966
(lp1967
I84853570
aI84857318
aS'+'
aI84856364
asS'Vmn1r137'
p1968
(lp1969
I21994586
aI21995510
aS'+'
aI21994586
asS'Olfr293'
p1970
(lp1971
I86663663
aI86664674
aS'+'
aI86663663
asS'Vmn1r135'
p1972
(lp1973
I21832350
aI21833274
aS'+'
aI21832350
asS'Dbp'
p1974
(lp1975
I45705092
aI45710155
aS'+'
aI45705623
asS'Vmn1r138'
p1976
(lp1977
I22027976
aI22028897
aS'-'
aI22027976
asS'Ceacam-ps1'
p1978
(lp1979
I16649029
aI16657478
aS'-'
aI16657478
asS'Olfr299'
p1980
(lp1981
I86465412
aI86466405
aS'+'
aI86465412
asS'Olfr298'
p1982
(lp1983
I86488550
aI86489549
aS'-'
aI86488550
asS'Ifitm3'
p1984
(lp1985
I141009589
aI141010744
aS'-'
aI141009724
asS'LOC101055953'
p1986
(lp1987
I25881999
aI25885834
aS'-'
aI25882011
asS'Olfr679'
p1988
(lp1989
I105085717
aI105086665
aS'+'
aI105085717
asS'Olfr678'
p1990
(lp1991
I105069468
aI105070410
aS'+'
aI105069468
asS'Ifitm6'
p1992
(lp1993
I141015811
aI141016892
aS'-'
aI141016003
asS'Ifitm5'
p1994
(lp1995
I140948961
aI140950239
aS'-'
aI140949235
asS'Gm39030'
p1996
(lp1997
I70341415
aI70351235
aS'-'
aI70351235
asS'Olfr671'
p1998
(lp1999
I104972475
aI104975995
aS'-'
aI104972475
asS'Olfr670'
p2000
(lp2001
I104959791
aI104960730
aS'-'
aI104959791
asS'Olfr677'
p2002
(lp2003
I105056247
aI105057186
aS'+'
aI105056247
asS'Olfr676'
p2004
(lp2005
I105031566
aI105036153
aS'+'
aI105031566
asS'Olfr675'
p2006
(lp2007
I105024024
aI105024966
aS'-'
aI105024024
asS'Gm10046'
p2008
(lp2009
I27765672
aI27770972
aS'+'
aI27770972
asS'Mrgprf'
p2010
(lp2011
I145300908
aI145309557
aS'+'
aI145303880
asS'1700015G11Rik'
p2012
(lp2013
I52011679
aI52015716
aS'-'
aI52011829
asS'Gm36696'
p2014
(lp2015
I72110463
aI72118598
aS'+'
aI72118598
asS'Gm36694'
p2016
(lp2017
I24071173
aI24077901
aS'-'
aI24071173
asS'3110009M11Rik'
p2018
(lp2019
I83864177
aI83865534
aS'-'
aI83865534
asS'Chsy1'
p2020
(lp2021
I66109514
aI66173798
aS'+'
aI66109910
asS'Sycp1-ps1'
p2022
(lp2023
I18786301
aI18789414
aS'+'
aI18789414
asS'Cyp2a5'
p2024
(lp2025
I26835338
aI26843264
aS'+'
aI26835363
asS'Cyp2a4'
p2026
(lp2027
I26307191
aI26315088
aS'+'
aI26307217
asS'Olfr707'
p2028
(lp2029
I106891183
aI106892107
aS'-'
aI106891183
asS'Olfr706'
p2030
(lp2031
I106885864
aI106886815
aS'-'
aI106885864
asS'Olfr705'
p2032
(lp2033
I106873292
aI106874243
aS'-'
aI106873292
asS'Olfr704'
p2034
(lp2035
I106864981
aI106865929
aS'+'
aI106864981
asS'Myh14'
p2036
(lp2037
I44605802
aI44670843
aS'-'
aI44606209
asS'Olfr702'
p2038
(lp2039
I106823488
aI106826743
aS'-'
aI106823567
asS'Olfr701'
p2040
(lp2041
I106814143
aI106820709
aS'+'
aI106818084
asS'Olfr700'
p2042
(lp2043
I106805509
aI106806460
aS'-'
aI106805509
asS'2610206C17Rik'
p2044
(lp2045
I84689639
aI84776549
aS'+'
aI84776549
asS'Gm26793'
p2046
(lp2047
I144894120
aI144895807
aS'-'
aI144895807
asS'Mphosph10'
p2048
(lp2049
I64376540
aI64392236
aS'-'
aI64376654
asS'Uqcrc2'
p2050
(lp2051
I120635188
aI120659523
aS'+'
aI120635289
asS'U2af2'
p2052
(lp2053
I5061143
aI5079938
aS'+'
aI5062287
asS'LOC105242401'
p2054
(lp2055
I38719891
aI38725615
aS'-'
aI38719955
asS'Ate1'
p2056
(lp2057
I130391519
aI130521274
aS'-'
aI130394557
asS'Gm8979'
p2058
(lp2059
I106075730
aI106079148
aS'-'
aI106079148
asS'Caly'
p2060
(lp2061
I140069884
aI140082569
aS'-'
aI140070346
asS'Chp2'
p2062
(lp2063
I122208620
aI122222415
aS'+'
aI122219711
asS'3300002P13Rik'
p2064
(lp2065
I3421664
aI3423445
aS'-'
aI3423445
asS'Capn5'
p2066
(lp2067
I98121558
aI98178274
aS'-'
aI98123872
asS'Mboat7'
p2068
(lp2069
I3677788
aI3693525
aS'-'
aI3678458
asS'Gm8989'
p2070
(lp2071
I106322395
aI106324528
aS'-'
aI106324528
asS'LOC108167358'
p2072
(lp2073
I142283462
aI142289754
aS'+'
aI142283491
asS'Gm2381'
p2074
(lp2075
I42816826
aI42867234
aS'-'
aI42867234
asS'Gm8453'
p2076
(lp2077
I22228563
aI22229484
aS'-'
aI22228563
asS'Pgap2'
p2078
(lp2079
I102210212
aI102238564
aS'+'
aI102226280
asS'Gm30440'
p2080
(lp2081
I83970180
aI84024735
aS'+'
aI84024735
asS'Gm15506'
p2082
(lp2083
I98682330
aI98693341
aS'-'
aI98693341
asS'Gm42395'
p2084
(lp2085
I62297386
aI62309919
aS'-'
aI62309919
asS'1810026B05Rik'
p2086
(lp2087
I73539797
aI73558395
aS'-'
aI73558395
asS'Gm32695'
p2088
(lp2089
I81831660
aI81849058
aS'+'
aI81849058
asS'LOC105243004'
p2090
(lp2091
I98719497
aI98727090
aS'-'
aI98727090
asS'Ccdc8'
p2092
(lp2093
I16994587
aI16996645
aS'+'
aI16994587
asS'Ccdc9'
p2094
(lp2095
I16273533
aI16286814
aS'-'
aI16273911
asS'Olfr654'
p2096
(lp2097
I104587754
aI104588780
aS'+'
aI104587754
asS'Acsm1'
p2098
(lp2099
I119617762
aI119662515
aS'+'
aI119622509
asS'Acsm3'
p2100
(lp2101
I119760882
aI119784896
aS'+'
aI119767945
asS'Acsm2'
p2102
(lp2103
I119554339
aI119600694
aS'+'
aI119554468
asS'Acsm5'
p2104
(lp2105
I119526130
aI119543328
aS'+'
aI119534349
asS'Acsm4'
p2106
(lp2107
I119690025
aI119714566
aS'+'
aI119693648
asS'Cdc42ep5'
p2108
(lp2109
I4151262
aI4164741
aS'-'
aI4151334
asS'Akt1s1'
p2110
(lp2111
I44849125
aI44855418
aS'+'
aI44849142
asS'A730056A06Rik'
p2112
(lp2113
I73313805
aI73375774
aS'-'
aI73375774
asS'Samd4b'
p2114
(lp2115
I28399521
aI28436191
aS'-'
aI28401588
asS'Gm31649'
p2116
(lp2117
I13023707
aI13024678
aS'-'
aI13023999
asS'Shkbp1'
p2118
(lp2119
I27342127
aI27356015
aS'-'
aI27342312
asS'Gm8677'
p2120
(lp2121
I22533963
aI22534887
aS'-'
aI22533963
asS'Gm31882'
p2122
(lp2123
I46718885
aI46721322
aS'+'
aI46721322
asS'Gdpd3'
p2124
(lp2125
I126766413
aI126775645
aS'+'
aI126766470
asS'Mamstr'
p2126
(lp2127
I45639191
aI45648206
aS'+'
aI45640781
asS'Glrx3'
p2128
(lp2129
I137436200
aI137468190
aS'+'
aI137468190
asS'Rras'
p2130
(lp2131
I45018006
aI45021644
aS'+'
aI45018015
asS'Tnni2'
p2132
(lp2133
I142440489
aI142444410
aS'+'
aI142442490
asS'Snrnp70'
p2134
(lp2135
I45376453
aI45395742
aS'-'
aI45395742
asS'Cd19'
p2136
(lp2137
I126408447
aI126415143
aS'-'
aI126409371
asS'C030029H02Rik'
p2138
(lp2139
I136268323
aI136318511
aS'+'
aI136318511
asS'Gm34744'
p2140
(lp2141
I19749671
aI19790390
aS'+'
aI19790390
asS'Mir297-1'
p2142
(lp2143
I10958436
aI10958512
aS'-'
aI10958512
asS'Gm35611'
p2144
(lp2145
I35086112
aI35096631
aS'+'
aI35096631
asS'9530053A07Rik'
p2146
(lp2147
I28129465
aI28164811
aS'+'
aI28129823
asS'Ppfibp2'
p2148
(lp2149
I107595060
aI107748441
aS'+'
aI107595301
asS'Gm38591'
p2150
(lp2151
I28243021
aI28243753
aS'-'
aI28243021
asS'Plekha1'
p2152
(lp2153
I130860555
aI130913308
aS'+'
aI130877753
asS'Gm39039'
p2154
(lp2155
I78893774
aI78895782
aS'-'
aI78895782
asS'E430016F16Rik'
p2156
(lp2157
I78581065
aI78718220
aS'-'
aI78718220
asS'Olfr576'
p2158
(lp2159
I102965101
aI102966040
aS'+'
aI102965101
asS'Ano9'
p2160
(lp2161
I141101218
aI141117806
aS'-'
aI141101899
asS'Tnfrsf22'
p2162
(lp2163
I143634807
aI143649664
aS'-'
aI143639257
asS'Olfr630'
p2164
(lp2165
I103754149
aI103757350
aS'-'
aI103754623
asS'Pcsk6'
p2166
(lp2167
I65862135
aI66050386
aS'+'
aI65862170
asS'1700095J03Rik'
p2168
(lp2169
I109438617
aI109444901
aS'+'
aI109444901
asS'Wdr11'
p2170
(lp2171
I129591862
aI129635738
aS'+'
aI129591977
asS'Gm39105'
p2172
(lp2173
I135424131
aI135429914
aS'-'
aI135429914
asS'Lair1'
p2174
(lp2175
I4007081
aI4073507
aS'-'
aI4009690
asS'Nmb'
p2176
(lp2177
I80902226
aI80913681
aS'-'
aI80902432
asS'Gm34225'
p2178
(lp2179
I115014773
aI115065778
aS'+'
aI115065778
asS'Gm39103'
p2180
(lp2181
I134020399
aI134039439
aS'+'
aI134039439
asS'Fam181b'
p2182
(lp2183
I93079878
aI93081722
aS'+'
aI93080020
asS'Gm16451'
p2184
(lp2185
I22117321
aI22118245
aS'-'
aI22117321
asS'2410002F23Rik'
p2186
(lp2187
I44246719
aI44252317
aS'+'
aI44250672
asS'Bub3'
p2188
(lp2189
I131560369
aI131571892
aS'+'
aI131560709
asS'Gm17102'
p2190
(lp2191
I41393697
aI41397453
aS'+'
aI41397453
asS'Gm9234'
p2192
(lp2193
I121014928
aI121015677
aS'-'
aI121015677
asS'Gm26604'
p2194
(lp2195
I29071657
aI29079911
aS'+'
aI29079911
asS'Psma1'
p2196
(lp2197
I114264549
aI114276116
aS'-'
aI114264899
asS'Mrgpra2a'
p2198
(lp2199
I47426324
aI47452167
aS'-'
aI47426512
asS'Mrpl46'
p2200
(lp2201
I78775340
aI78783089
aS'-'
aI78775456
asS'Mrgpra2b'
p2202
(lp2203
I47463798
aI47489585
aS'-'
aI47463986
asS'Olfr703'
p2204
(lp2205
I106844612
aI106845572
aS'+'
aI106844612
asS'Mrpl48'
p2206
(lp2207
I100549116
aI100607996
aS'-'
aI100607996
asS'Bcl7c'
p2208
(lp2209
I127661453
aI127708944
aS'-'
aI127666848
asS'Gm31479'
p2210
(lp2211
I45595526
aI45603548
aS'+'
aI45603548
asS'D030047H15Rik'
p2212
(lp2213
I4126339
aI4136926
aS'-'
aI4136926
asS'Gltscr1'
p2214
(lp2215
I15970670
aI16048085
aS'-'
aI15971777
asS'Gltscr2'
p2216
(lp2217
I15937834
aI15946108
aS'-'
aI15937882
asS'Gm33659'
p2218
(lp2219
I113151600
aI113157621
aS'+'
aI113157621
asS'Magel2'
p2220
(lp2221
I62376978
aI62381640
aS'+'
aI62377349
asS'LOC102640292'
p2222
(lp2223
I59869730
aI59905152
aS'-'
aI59872259
asS'Gm39108'
p2224
(lp2225
I137090545
aI137096416
aS'-'
aI137096416
asS'Ppp1r13l'
p2226
(lp2227
I19359718
aI19378540
aS'+'
aI19368567
asS'Wnt11'
p2228
(lp2229
I98834915
aI98854743
aS'+'
aI98847197
asS'Zdhhc13'
p2230
(lp2231
I48789002
aI48827437
aS'+'
aI48789110
asS'Meis3'
p2232
(lp2233
I16175095
aI16186510
aS'+'
aI16175555
asS'Gm42398'
p2234
(lp2235
I80543159
aI80556074
aS'-'
aI80556074
asS'Prkrir'
p2236
(lp2237
I98703127
aI98718062
aS'+'
aI98703389
asS'Gm42391'
p2238
(lp2239
I59529363
aI59536867
aS'-'
aI59536867
asS'Gm42390'
p2240
(lp2241
I59518131
aI59523764
aS'-'
aI59523764
asS'Gm32765'
p2242
(lp2243
I128429939
aI128437818
aS'+'
aI128437818
asS'Lgals7'
p2244
(lp2245
I28863852
aI28866285
aS'+'
aI28864480
asS'Gm42394'
p2246
(lp2247
I60437688
aI60444043
aS'-'
aI60444043
asS'Gm42397'
p2248
(lp2249
I70957919
aI70975030
aS'+'
aI70975030
asS'Lgals4'
p2250
(lp2251
I28833178
aI28841710
aS'+'
aI28834181
asS'Hif3a'
p2252
(lp2253
I17030992
aI17062427
aS'-'
aI17035867
asS'Zfp418'
p2254
(lp2255
I7171352
aI7183560
aS'+'
aI7171531
asS'Gm36848'
p2256
(lp2257
I121768448
aI121777845
aS'-'
aI121777845
asS'Gm36849'
p2258
(lp2259
I136353190
aI136356722
aS'+'
aI136356722
asS'LOC108167434'
p2260
(lp2261
I64130873
aI64134371
aS'+'
aI64130979
asS'Tnfrsf23'
p2262
(lp2263
I143665806
aI143686422
aS'-'
aI143668565
asS'Gm5737'
p2264
(lp2265
I120812364
aI120831899
aS'+'
aI120812364
asS'Gm39069'
p2266
(lp2267
I110779267
aI110782800
aS'-'
aI110782800
asS'Gm39068'
p2268
(lp2269
I110739660
aI110743500
aS'+'
aI110743500
asS'Gmfg'
p2270
(lp2271
I28437446
aI28446895
aS'+'
aI28441691
asS'Gm39065'
p2272
(lp2273
I106561044
aI106567925
aS'-'
aI106567925
asS'Tdrd12'
p2274
(lp2275
I35466940
aI35538162
aS'-'
aI35538162
asS'Gm39067'
p2276
(lp2277
I108954158
aI108955256
aS'-'
aI108955256
asS'Gm39066'
p2278
(lp2279
I108184603
aI108185725
aS'+'
aI108185725
asS'Gm39061'
p2280
(lp2281
I101988667
aI101990948
aS'-'
aI101990948
asS'Gm39063'
p2282
(lp2283
I105544900
aI105554275
aS'-'
aI105554275
asS'Gm39062'
p2284
(lp2285
I102113386
aI102122062
aS'+'
aI102122062
asS'Olfr601'
p2286
(lp2287
I103358223
aI103359213
aS'-'
aI103358247
asS'Mypopos'
p2288
(lp2289
I18993366
aI18999315
aS'-'
aI18999315
asS'Ndn'
p2290
(lp2291
I62348276
aI62349928
aS'+'
aI62348407
asS'Ckm'
p2292
(lp2293
I19411093
aI19421583
aS'+'
aI19414137
asS'Gm36847'
p2294
(lp2295
I105482643
aI105522672
aS'+'
aI105522672
asS'Nccrp1'
p2296
(lp2297
I28543595
aI28547254
aS'-'
aI28544131
asS'Cep89'
p2298
(lp2299
I35397000
aI35439828
aS'+'
aI35439828
asS'Gm39086'
p2300
(lp2301
I126615584
aI126618481
aS'-'
aI126618481
asS'Gm39085'
p2302
(lp2303
I125333121
aI125333681
aS'+'
aI125333681
asS'Gm39084'
p2304
(lp2305
I123076173
aI123100717
aS'-'
aI123100717
asS'Gm39083'
p2306
(lp2307
I122935835
aI122940358
aS'+'
aI122940358
asS'Gm39082'
p2308
(lp2309
I122924514
aI122935787
aS'+'
aI122935787
asS'Gm39081'
p2310
(lp2311
I121479951
aI121540236
aS'-'
aI121540236
asS'Gm32861'
p2312
(lp2313
I110285501
aI110289142
aS'-'
aI110289142
asS'Gm36062'
p2314
(lp2315
I135395648
aI135398261
aS'-'
aI135398261
asS'Uri1'
p2316
(lp2317
I37959991
aI38023575
aS'-'
aI37961514
asS'Gm39087'
p2318
(lp2319
I126621768
aI126635179
aS'+'
aI126635179
asS'Zfp780b'
p2320
(lp2321
I27959799
aI27979157
aS'-'
aI27962707
asS'Gm31097'
p2322
(lp2323
I45188926
aI45191494
aS'+'
aI45191494
asS'Pex11a'
p2324
(lp2325
I79735956
aI79743126
aS'-'
aI79737341
asS'BB114814'
p2326
(lp2327
I131283586
aI131306452
aS'+'
aI131288238
asS'Dhdh'
p2328
(lp2329
I45473562
aI45488796
aS'-'
aI45475265
asS'Bnip3'
p2330
(lp2331
I138890835
aI138909506
aS'-'
aI138891914
asS'Rhpn2'
p2332
(lp2333
I35334179
aI35392287
aS'+'
aI35392287
asS'Gm39080'
p2334
(lp2335
I119730803
aI119739429
aS'+'
aI119739429
asS'4632427E13Rik'
p2336
(lp2337
I92740705
aI92741459
aS'-'
aI92741459
asS'Gm16982'
p2338
(lp2339
I141610065
aI141613747
aS'-'
aI141613747
asS'Ngrn'
p2340
(lp2341
I80261214
aI80265378
aS'+'
aI80261259
asS'Gm32236'
p2342
(lp2343
I30820295
aI30828594
aS'+'
aI30828594
asS'Olfr642'
p2344
(lp2345
I104049407
aI104050352
aS'-'
aI104049407
asS'Alpk3'
p2346
(lp2347
I81057469
aI81105612
aS'+'
aI81105612
asS'Etfb'
p2348
(lp2349
I43444071
aI43457800
aS'+'
aI43457800
asS'Olfr643'
p2350
(lp2351
I104058655
aI104059600
aS'-'
aI104058655
asS'Gm19897'
p2352
(lp2353
I28774898
aI28781514
aS'-'
aI28781514
asS'Cdkn1c'
p2354
(lp2355
I143458338
aI143461073
aS'-'
aI143459116
asS'Olfr640'
p2356
(lp2357
I104021371
aI104022316
aS'-'
aI104021371
asS'Vmn1r125'
p2358
(lp2359
I21272178
aI21273102
aS'+'
aI21272178
asS'Vmn1r124'
p2360
(lp2361
I21259693
aI21260617
aS'-'
aI21259693
asS'Vmn1r127'
p2362
(lp2363
I21318943
aI21319861
aS'-'
aI21318943
asS'Vmn1r126'
p2364
(lp2365
I21300501
aI21301467
aS'-'
aI21300501
asS'Vmn1r121'
p2366
(lp2367
I21097568
aI21098513
aS'-'
aI21097568
asS'Speer9-ps1'
p2368
(lp2369
I3128145
aI3144992
aS'+'
aI3144992
asS'Vmn1r123'
p2370
(lp2371
I21162184
aI21163108
aS'+'
aI21162184
asS'Vmn1r122'
p2372
(lp2373
I21133210
aI21134128
aS'-'
aI21133210
asS'Nlrp5-ps'
p2374
(lp2375
I14530653
aI14622478
aS'-'
aI14622478
asS'Mtag2'
p2376
(lp2377
I45366162
aI45367948
aS'+'
aI45367948
asS'Gpr139'
p2378
(lp2379
I119144322
aI119184374
aS'-'
aI119144322
asS'Vmn1r128'
p2380
(lp2381
I21349372
aI21350296
aS'+'
aI21349372
asS'Olfr668'
p2382
(lp2383
I104924805
aI104925762
aS'-'
aI104924805
asS'Olfr669'
p2384
(lp2385
I104938527
aI104939481
aS'+'
aI104938527
asS'Rcn3'
p2386
(lp2387
I45082915
aI45092257
aS'-'
aI45083255
asS'Olfr644'
p2388
(lp2389
I104068084
aI104069029
aS'-'
aI104068084
asS'Rrp8'
p2390
(lp2391
I105731729
aI105737385
aS'-'
aI105733023
asS'Fam174b'
p2392
(lp2393
I73740306
aI73776919
aS'+'
aI73740502
asS'Lrrc32'
p2394
(lp2395
I98489300
aI98501831
aS'+'
aI98494221
asS'Olfr645'
p2396
(lp2397
I104084130
aI104085078
aS'-'
aI104084130
asS'Capn12'
p2398
(lp2399
I28881655
aI28893585
aS'+'
aI28881723
asS'Olfr666'
p2400
(lp2401
I104892669
aI104893626
aS'-'
aI104892669
asS'Chrdl2'
p2402
(lp2403
I100006403
aI100034726
aS'+'
aI100006565
asS'Gm33122'
p2404
(lp2405
I129644124
aI129658085
aS'-'
aI129658085
asS'Gm35484'
p2406
(lp2407
I35021049
aI35029209
aS'-'
aI35029209
asS'Abcc8'
p2408
(lp2409
I46104522
aI46180039
aS'-'
aI46104623
asS'Zfp592'
p2410
(lp2411
I80993683
aI81045162
aS'+'
aI81023289
asS'Abcc6'
p2412
(lp2413
I45974109
aI46030481
aS'-'
aI45976835
asS'Gm36449'
p2414
(lp2415
I120841126
aI120842637
aS'-'
aI120842637
asS'Olfr648'
p2416
(lp2417
I104179455
aI104180406
aS'-'
aI104179455
asS'Prkd2'
p2418
(lp2419
I16842901
aI16870461
aS'+'
aI16843623
asS'Aen'
p2420
(lp2421
I78895926
aI78908833
aS'+'
aI78902407
asS'Snord23'
p2422
(lp2423
I15938761
aI15938860
aS'-'
aI15938860
asS'Rlbp1'
p2424
(lp2425
I79374864
aI79387043
aS'-'
aI79375559
asS'Bcat2'
p2426
(lp2427
I45569762
aI45589710
aS'+'
aI45575681
asS'Gm35970'
p2428
(lp2429
I134410265
aI134414649
aS'+'
aI134414649
asS'Cib1'
p2430
(lp2431
I80227155
aI80232805
aS'-'
aI80227364
asS'Aamdc'
p2432
(lp2433
I97550339
aI97579509
aS'-'
aI97550600
asS'Olfr714'
p2434
(lp2435
I107073829
aI107074783
aS'+'
aI107073829
asS'Gm30874'
p2436
(lp2437
I138733526
aI138828897
aS'-'
aI138828897
asS'Olfr716'
p2438
(lp2439
I107147317
aI107148262
aS'+'
aI107147317
asS'Hpx'
p2440
(lp2441
I105591610
aI105600116
aS'-'
aI105591681
asS'Olfr710'
p2442
(lp2443
I106944066
aI106948312
aS'-'
aI106944066
asS'Myod1'
p2444
(lp2445
I46376473
aI46379092
aS'+'
aI46376672
asS'Gm30873'
p2446
(lp2447
I84334496
aI84347871
aS'+'
aI84347871
asS'Olfr713'
p2448
(lp2449
I107036135
aI107037110
aS'+'
aI107036135
asS'Il11'
p2450
(lp2451
I4772377
aI4782857
aS'-'
aI4773566
asS'Npas1'
p2452
(lp2453
I16455717
aI16476816
aS'-'
aI16456097
asS'Mir1191'
p2454
(lp2455
I27205535
aI27205655
aS'+'
aI27205655
asS'Hpn'
p2456
(lp2457
I31098724
aI31115326
aS'-'
aI31099034
asS'D930028M14Rik'
p2458
(lp2459
I25152456
aI25156630
aS'+'
aI25156630
asS'Bc1'
p2460
(lp2461
I144914469
aI144914623
aS'+'
aI144914623
asS'Slc25a22'
p2462
(lp2463
I141429748
aI141437874
aS'-'
aI141431104
asS'Igf1r'
p2464
(lp2465
I67951832
aI68233668
aS'+'
aI67952858
asS'Gpr4'
p2466
(lp2467
I19212537
aI19224176
aS'+'
aI19222154
asS'Prodh2'
p2468
(lp2469
I30493657
aI30513402
aS'+'
aI30493683
asS'4933432K03Rik'
p2470
(lp2471
I121587385
aI121589836
aS'-'
aI121589836
asS'Munc'
p2472
(lp2473
I46371402
aI46372492
aS'+'
aI46372492
asS'Gm35889'
p2474
(lp2475
I35152556
aI35158264
aS'-'
aI35158264
asS'Olfm5'
p2476
(lp2477
I104153012
aI104164816
aS'-'
aI104153763
asS'Tpp1'
p2478
(lp2479
I105744810
aI105752235
aS'-'
aI105746631
asS'Mir6238'
p2480
(lp2481
I53891760
aI53891889
aS'-'
aI53891889
asS'Mctp2'
p2482
(lp2483
I72077829
aI72306595
aS'-'
aI72080788
asS'Zfp936'
p2484
(lp2485
I43177587
aI43192109
aS'+'
aI43177700
asS'Vrk3'
p2486
(lp2487
I44748628
aI44777515
aS'+'
aI44753816
asS'Aqp8'
p2488
(lp2489
I123462293
aI123468003
aS'+'
aI123462446
asS'Zfp939'
p2490
(lp2491
I39449522
aI39477427
aS'+'
aI39477427
asS'LOC108167492'
p2492
(lp2493
I25837949
aI25839958
aS'+'
aI25839958
asS'LOC108167497'
p2494
(lp2495
I36171303
aI36189215
aS'+'
aI36189215
asS'LOC108167498'
p2496
(lp2497
I41293405
aI41320518
aS'-'
aI41320518
asS'LOC108167499'
p2498
(lp2499
I75427079
aI75437437
aS'-'
aI75437437
asS'Bet1l'
p2500
(lp2501
I140853383
aI140856383
aS'-'
aI140854455
asS'Cuzd1'
p2502
(lp2503
I131308553
aI131322292
aS'-'
aI131308740
asS'Catsperg1'
p2504
(lp2505
I29181531
aI29215631
aS'-'
aI29181671
asS'Catsperg2'
p2506
(lp2507
I29697216
aI29727048
aS'-'
aI29697638
asS'Chd2'
p2508
(lp2509
I73426651
aI73541746
aS'-'
aI73429666
asS'Smim17'
p2510
(lp2511
I6415174
aI6431086
aS'+'
aI6424716
asS'1600010M07Rik'
p2512
(lp2513
I109998376
aI110006646
aS'-'
aI110006646
asS'Atp10a'
p2514
(lp2515
I58656141
aI58830244
aS'+'
aI58658454
asS'Cox6a2'
p2516
(lp2517
I128205434
aI128206366
aS'-'
aI128205728
asS'Ifnl2'
p2518
(lp2519
I28508783
aI28510532
aS'-'
aI28508860
asS'Ifnl3'
p2520
(lp2521
I28522832
aI28524401
aS'+'
aI28522835
asS'LOC105243053'
p2522
(lp2523
I126502346
aI126532013
aS'+'
aI126532013
asS'Gm10603'
p2524
(lp2525
I100463048
aI100467382
aS'-'
aI100467382
asS'Sbsn'
p2526
(lp2527
I30748970
aI30756134
aS'+'
aI30751561
asS'1700025J12Rik'
p2528
(lp2529
I121589902
aI121591591
aS'+'
aI121591591
asS'Gm31652'
p2530
(lp2531
I61329638
aI61336236
aS'-'
aI61336236
asS'Gm31653'
p2532
(lp2533
I79396495
aI79399128
aS'-'
aI79399128
asS'Hnrnpl'
p2534
(lp2535
I28808545
aI28822268
aS'+'
aI28810910
asS'6330420H09Rik'
p2536
(lp2537
I135853681
aI135855976
aS'+'
aI135855976
asS'2610021A01Rik'
p2538
(lp2539
I41599226
aI41628533
aS'+'
aI41628533
asS'Zfp141'
p2540
(lp2541
I42473385
aI42505753
aS'-'
aI42474988
asS'Gm31897'
p2542
(lp2543
I127287796
aI127291896
aS'+'
aI127291896
asS'Gm33248'
p2544
(lp2545
I129667424
aI129693964
aS'+'
aI129693964
asS'Gm33247'
p2546
(lp2547
I112216935
aI112217834
aS'+'
aI112217834
asS'9030624J02Rik'
p2548
(lp2549
I118740196
aI118841489
aS'+'
aI118740674
asS'Vmn1r157'
p2550
(lp2551
I22761696
aI22762590
aS'+'
aI22761696
asS'BC030336'
p2552
(lp2553
I120677619
aI120734854
aS'+'
aI120677764
asS'Gpr26'
p2554
(lp2555
I131966459
aI131985633
aS'+'
aI131966927
asS'Mir7046'
p2556
(lp2557
I24970009
aI24970075
aS'-'
aI24970075
asS'Vmn1r159'
p2558
(lp2559
I22842687
aI22843605
aS'-'
aI22842687
asS'Isg20'
p2560
(lp2561
I78913423
aI78920396
aS'+'
aI78914346
asS'Msx3'
p2562
(lp2563
I140046155
aI140049969
aS'-'
aI140047981
asS'Hbb-bh2'
p2564
(lp2565
I103838800
aI103840734
aS'-'
aI103840734
asS'Hbb-bh1'
p2566
(lp2567
I103841637
aI103843162
aS'-'
aI103841751
asS'Nlrp5'
p2568
(lp2569
I23385888
aI23441923
aS'+'
aI23404109
asS'Gm35378'
p2570
(lp2571
I34629433
aI34631558
aS'+'
aI34631558
asS'Nlrp6'
p2572
(lp2573
I140920901
aI140929192
aS'+'
aI140921057
asS'Usp17le'
p2574
(lp2575
I104767960
aI104777470
aS'-'
aI104768310
asS'Nlrp2'
p2576
(lp2577
I5298546
aI5351035
aS'-'
aI5298735
asS'Zfp646'
p2578
(lp2579
I127876804
aI127885996
aS'+'
aI127878652
asS'Tenm4'
p2580
(lp2581
I96171243
aI96911093
aS'+'
aI96550076
asS'Gm15880'
p2582
(lp2583
I80636016
aI80644384
aS'+'
aI80644384
asS'Mir344d-2'
p2584
(lp2585
I61685271
aI61685351
aS'-'
aI61685351
asS'Gm15396'
p2586
(lp2587
I44579967
aI44590619
aS'-'
aI44590619
asS'Mki67'
p2588
(lp2589
I135689787
aI135716409
aS'-'
aI135690088
asS'Fzd4'
p2590
(lp2591
I89404365
aI89410110
aS'+'
aI89404686
asS'Gm30684'
p2592
(lp2593
I38033155
aI38062429
aS'-'
aI38062429
asS'2310034P14Rik'
p2594
(lp2595
I83883952
aI83885194
aS'+'
aI83883971
asS'D930030F02Rik'
p2596
(lp2597
I144741613
aI144770512
aS'+'
aI144770512
asS'Hcst'
p2598
(lp2599
I30417711
aI30419854
aS'-'
aI30417805
asS'Il4i1'
p2600
(lp2601
I44836287
aI44840809
aS'+'
aI44836524
asS'Cxcl17'
p2602
(lp2603
I25400052
aI25412886
aS'-'
aI25400346
asS'Stard10'
p2604
(lp2605
I101317090
aI101346312
aS'+'
aI101317224
asS'Gm16442'
p2606
(lp2607
I20121655
aI20122579
aS'-'
aI20121655
asS'Gm38670'
p2608
(lp2609
I30552827
aI30552904
aS'+'
aI30552904
asS'Tyrobp'
p2610
(lp2611
I30413787
aI30417582
aS'+'
aI30413838
asS'2200002J24Rik'
p2612
(lp2613
I30698885
aI30710298
aS'+'
aI30699782
asS'Ccdc97'
p2614
(lp2615
I25711111
aI25719817
aS'-'
aI25712992
asS'LOC105242891'
p2616
(lp2617
I28167272
aI28169671
aS'-'
aI28169671
asS'Olfr46'
p2618
(lp2619
I140601339
aI140611124
aS'+'
aI140610167
asS'Olfr45'
p2620
(lp2621
I140690906
aI140691842
aS'+'
aI140690906
asS'Polg'
p2622
(lp2623
I79448909
aI79466306
aS'-'
aI79466306
asS'Ric8a'
p2624
(lp2625
I140857396
aI140863731
aS'+'
aI140857470
asS'Smg1'
p2626
(lp2627
I118131307
aI118243657
aS'-'
aI118135540
asS'Gm33663'
p2628
(lp2629
I143463334
aI143466781
aS'-'
aI143466781
asS'Zfp790'
p2630
(lp2631
I29816005
aI29832041
aS'+'
aI29823135
asS'Gm33109'
p2632
(lp2633
I17580751
aI17584370
aS'-'
aI17584370
asS'Smg9'
p2634
(lp2635
I24399597
aI24422777
aS'+'
aI24403397
asS'Zfp59'
p2636
(lp2637
I27838583
aI27856774
aS'+'
aI27842854
asS'Gm42386'
p2638
(lp2639
I59354871
aI59360494
aS'-'
aI59360494
asS'Gm42387'
p2640
(lp2641
I59349269
aI59353023
aS'-'
aI59353023
asS'Gm42385'
p2642
(lp2643
I57519644
aI57590410
aS'-'
aI57590410
asS'Gm32353'
p2644
(lp2645
I91932764
aI91960762
aS'-'
aI91960762
asS'Gm42380'
p2646
(lp2647
I38791630
aI38861814
aS'+'
aI38861814
asS'Kcnk6'
p2648
(lp2649
I29221927
aI29232522
aS'-'
aI29225035
asS'Slc7a10'
p2650
(lp2651
I35186351
aI35201116
aS'+'
aI35186481
asS'Cd177'
p2652
(lp2653
I24743982
aI24760334
aS'-'
aI24744217
asS'Gm42388'
p2654
(lp2655
I59482794
aI59484689
aS'-'
aI59484689
asS'Gm42389'
p2656
(lp2657
I59495889
aI59497780
aS'-'
aI59497780
asS'Abhd2'
p2658
(lp2659
I79273265
aI79361601
aS'+'
aI79297013
asS'Zfp420'
p2660
(lp2661
I29859966
aI29877296
aS'+'
aI29874356
asS'Tnrc6a'
p2662
(lp2663
I123031100
aI123195296
aS'+'
aI123061718
asS'Oca2'
p2664
(lp2665
I56239592
aI56536499
aS'+'
aI56254787
asS'Gm32680'
p2666
(lp2667
I139684053
aI139686742
aS'+'
aI139686742
asS'Nat14'
p2668
(lp2669
I4918882
aI4925006
aS'+'
aI4923257
asS'Zfp428'
p2670
(lp2671
I24507086
aI24515682
aS'+'
aI24515682
asS'Jakmip3'
p2672
(lp2673
I138940729
aI139083976
aS'+'
aI138989388
asS'Rab4b'
p2674
(lp2675
I27168432
aI27178883
aS'-'
aI27172651
asS'Sepw1'
p2676
(lp2677
I15917207
aI15922371
aS'-'
aI15919862
asS'4930413G21Rik'
p2678
(lp2679
I122969057
aI122970459
aS'-'
aI122970459
asS'Gm35083'
p2680
(lp2681
I118323099
aI118328648
aS'-'
aI118328648
asS'Gm35082'
p2682
(lp2683
I100674985
aI100678142
aS'+'
aI100678142
asS'Gm39078'
p2684
(lp2685
I119603248
aI119604834
aS'-'
aI119604834
asS'Gm39079'
p2686
(lp2687
I119610689
aI119620435
aS'-'
aI119620435
asS'Me3'
p2688
(lp2689
I89632202
aI89854045
aS'+'
aI89632910
asS'Gm39072'
p2690
(lp2691
I113669625
aI113684665
aS'-'
aI113684665
asS'Gm39070'
p2692
(lp2693
I112199554
aI112203992
aS'+'
aI112203992
asS'Gm39071'
p2694
(lp2695
I112186830
aI112187850
aS'-'
aI112187850
asS'Gm39076'
p2696
(lp2697
I118985039
aI118988595
aS'+'
aI118988595
asS'Gm39074'
p2698
(lp2699
I116718389
aI116726131
aS'+'
aI116726131
asS'Gm39075'
p2700
(lp2701
I117228617
aI117323667
aS'+'
aI117323667
asS'Ndufa3'
p2702
(lp2703
I3617372
aI3620161
aS'+'
aI3617397
asS'Fam175b'
p2704
(lp2705
I132859224
aI132885114
aS'+'
aI132859234
asS'Gm36830'
p2706
(lp2707
I37092799
aI37112821
aS'+'
aI37112821
asS'Pepd'
p2708
(lp2709
I34912406
aI35044708
aS'+'
aI34912437
asS'Gm39094'
p2710
(lp2711
I129658096
aI129663062
aS'+'
aI129663062
asS'Gm39095'
p2712
(lp2713
I129810846
aI129823801
aS'+'
aI129823801
asS'Gm6567'
p2714
(lp2715
I73097751
aI73102068
aS'-'
aI73102068
asS'Arhgap33'
p2716
(lp2717
I30522225
aI30535060
aS'-'
aI30522587
asS'Gm39090'
p2718
(lp2719
I127690927
aI127701645
aS'+'
aI127701645
asS'Arhgap35'
p2720
(lp2721
I16494472
aI16614993
aS'-'
aI16497652
asS'Gm39092'
p2722
(lp2723
I128358792
aI128367010
aS'-'
aI128367010
asS'Gm39093'
p2724
(lp2725
I128843063
aI128845369
aS'+'
aI128845369
asS'Bsph2'
p2726
(lp2727
I13554865
aI13571067
aS'-'
aI13554980
asS'Pycard'
p2728
(lp2729
I127991372
aI127993867
aS'-'
aI127992711
asS'Bsph1'
p2730
(lp2731
I13450840
aI13473450
aS'+'
aI13450913
asS'Gm29796'
p2732
(lp2733
I82810902
aI82823444
aS'+'
aI82823444
asS'Gm39099'
p2734
(lp2735
I131461727
aI131472218
aS'+'
aI131472218
asS'Gm19950'
p2736
(lp2737
I119626518
aI119642645
aS'-'
aI119642645
asS'Mir330'
p2738
(lp2739
I19181464
aI19181562
aS'+'
aI19181562
asS'Gapdhs'
p2740
(lp2741
I30729776
aI30744791
aS'-'
aI30729886
asS'Usp35'
p2742
(lp2743
I97309405
aI97332273
aS'-'
aI97332273
asS'Trpc2'
p2744
(lp2745
I102083115
aI102096864
aS'+'
aI102083171
asS'Hbb-bs'
p2746
(lp2747
I103826522
aI103827928
aS'-'
aI103826664
asS'Mapk3'
p2748
(lp2749
I126759625
aI126765816
aS'+'
aI126759645
asS'Rnf141'
p2750
(lp2751
I110799468
aI110844452
aS'-'
aI110844452
asS'Nctc1'
p2752
(lp2753
I142544608
aI142558598
aS'-'
aI142558598
asS'Vmn1r120'
p2754
(lp2755
I21052866
aI21053784
aS'-'
aI21052866
asS'Gm36234'
p2756
(lp2757
I35919871
aI35923093
aS'-'
aI35923093
asS'Slco3a1'
p2758
(lp2759
I74275417
aI74554780
aS'-'
aI74276005
asS'Gm30912'
p2760
(lp2761
I38141869
aI38144151
aS'-'
aI38144151
asS'Tfpt'
p2762
(lp2763
I3620323
aI3629929
aS'-'
aI3620354
asS'Gm31597'
p2764
(lp2765
I45742043
aI45750846
aS'+'
aI45750846
asS'Rasl2-9'
p2766
(lp2767
I5124941
aI5125950
aS'-'
aI5125278
asS'Gm21948'
p2768
(lp2769
I44816369
aI44840804
aS'+'
aI44834055
asS'Tbc1d17'
p2770
(lp2771
I44840775
aI44849079
aS'-'
aI44841228
asS'Folr2'
p2772
(lp2773
I101839987
aI101857190
aS'-'
aI101840174
asS'Dlg2'
p2774
(lp2775
I90476179
aI92449106
aS'+'
aI90476789
asS'Olfr479'
p2776
(lp2777
I108054423
aI108056061
aS'+'
aI108054983
asS'Olfr478'
p2778
(lp2779
I108031300
aI108033961
aS'-'
aI108031396
asS'Vmn1r129'
p2780
(lp2781
I21360367
aI21361291
aS'-'
aI21360367
asS'Mir6537'
p2782
(lp2783
I25097065
aI25097175
aS'-'
aI25097175
asS'Olfr476'
p2784
(lp2785
I107967398
aI107968331
aS'+'
aI107967398
asS'Olfr471'
p2786
(lp2787
I107847463
aI107862555
aS'-'
aI107847463
asS'Olfr470'
p2788
(lp2789
I107844786
aI107845731
aS'-'
aI107844786
asS'Olfr473'
p2790
(lp2791
I107933521
aI107934454
aS'+'
aI107933521
asS'Olfr472'
p2792
(lp2793
I107902718
aI107903651
aS'+'
aI107902718
asS'Mrgpra9'
p2794
(lp2795
I47234918
aI47252848
aS'-'
aI47234918
asS'Rabep2'
p2796
(lp2797
I126428424
aI126445901
aS'+'
aI126445901
asS'LOC102637012'
p2798
(lp2799
I47058068
aI47075630
aS'-'
aI47058903
asS'Wee1'
p2800
(lp2801
I110121981
aI110143286
aS'+'
aI110122349
asS'Mrgpra1'
p2802
(lp2803
I47334874
aI47354240
aS'-'
aI47334933
asS'Nlrp9a'
p2804
(lp2805
I26535022
aI26574148
aS'+'
aI26535106
asS'Mir211'
p2806
(lp2807
I64205805
aI64205911
aS'+'
aI64205911
asS'Nlrp9c'
p2808
(lp2809
I26364886
aI26394243
aS'-'
aI26364886
asS'Nlrp9b'
p2810
(lp2811
I19991392
aI20062942
aS'+'
aI20019171
asS'Olfr497'
p2812
(lp2813
I108422572
aI108423517
aS'+'
aI108422572
asS'Olfr541'
p2814
(lp2815
I140704252
aI140705191
aS'+'
aI140704252
asS'Olfr495'
p2816
(lp2817
I108395121
aI108396114
aS'+'
aI108395121
asS'Olfr494'
p2818
(lp2819
I108367491
aI108368436
aS'+'
aI108367491
asS'LOC102642386'
p2820
(lp2821
I41545583
aI41560905
aS'-'
aI41545673
asS'Olfr492'
p2822
(lp2823
I108322729
aI108323674
aS'-'
aI108322729
asS'Olfr491'
p2824
(lp2825
I108316895
aI108317828
aS'+'
aI108316895
asS'Olfr490'
p2826
(lp2827
I108286179
aI108287124
aS'-'
aI108286179
asS'LOC102637815'
p2828
(lp2829
I116334235
aI116348181
aS'+'
aI116348181
asS'Olfr498'
p2830
(lp2831
I108465325
aI108466318
aS'+'
aI108465325
asS'LOC102636907'
p2832
(lp2833
I130519655
aI130529293
aS'+'
aI130529293
asS'Det1'
p2834
(lp2835
I78822955
aI78847360
aS'-'
aI78823121
asS'Olfr545'
p2836
(lp2837
I102493822
aI102494773
aS'-'
aI102493822
asS'Zfp180'
p2838
(lp2839
I24081896
aI24107709
aS'+'
aI24097841
asS'Utf1'
p2840
(lp2841
I139943855
aI139945112
aS'+'
aI139943873
asS'4933405O20Rik'
p2842
(lp2843
I50599189
aI50600528
aS'+'
aI50599219
asS'Tmem135'
p2844
(lp2845
I89140026
aI89404274
aS'-'
aI89141837
asS'Nfkbib'
p2846
(lp2847
I28758250
aI28766644
aS'-'
aI28759102
asS'Snord34'
p2848
(lp2849
I45126602
aI45126668
aS'-'
aI45126668
asS'Snord33'
p2850
(lp2851
I45126863
aI45126945
aS'-'
aI45126945
asS'Nfkbid'
p2852
(lp2853
I30421732
aI30428748
aS'+'
aI30424445
asS'Yif1b'
p2854
(lp2855
I29236475
aI29247529
aS'+'
aI29244104
asS'Olfr661'
p2856
(lp2857
I104688016
aI104688976
aS'+'
aI104688016
asS'Lat'
p2858
(lp2859
I126363826
aI126369588
aS'-'
aI126364202
asS'Psenen'
p2860
(lp2861
I30561864
aI30563184
aS'-'
aI30561994
asS'Mir6404'
p2862
(lp2863
I143933114
aI143933208
aS'+'
aI143933208
asS'Rgma'
p2864
(lp2865
I73375519
aI73419899
aS'+'
aI73375874
asS'Olfr663'
p2866
(lp2867
I104703568
aI104704603
aS'+'
aI104703568
asS'Zranb1'
p2868
(lp2869
I132931141
aI132985411
aS'+'
aI132949621
asS'Prkcb'
p2870
(lp2871
I122289124
aI122634402
aS'+'
aI122289344
asS'4933402C05Rik'
p2872
(lp2873
I6039106
aI6042555
aS'+'
aI6042555
asS'Prkcg'
p2874
(lp2875
I3303531
aI3331099
aS'+'
aI3303789
asS'Olfr665'
p2876
(lp2877
I104880708
aI104881659
aS'+'
aI104880708
asS'Mir6394'
p2878
(lp2879
I96305666
aI96305765
aS'+'
aI96305765
asS'Ntrk3'
p2880
(lp2881
I78179985
aI78578436
aS'-'
aI78578436
asS'Fam24a'
p2882
(lp2883
I131334621
aI131336716
aS'+'
aI131335508
asS'Ccnd1'
p2884
(lp2885
I144929930
aI144939937
aS'-'
aI144932606
asS'Gm33068'
p2886
(lp2887
I65371641
aI65374397
aS'+'
aI65374397
asS'Lsm14a'
p2888
(lp2889
I34344638
aI34389637
aS'-'
aI34345934
asS'Gm33067'
p2890
(lp2891
I39146487
aI39205890
aS'+'
aI39205890
asS'Gm36546'
p2892
(lp2893
I43669262
aI43671884
aS'-'
aI43671884
asS'Olfr655'
p2894
(lp2895
I104596252
aI104597179
aS'-'
aI104596252
asS'Fancf'
p2896
(lp2897
I51860576
aI51862267
aS'-'
aI51861222
asS'Olfr657'
p2898
(lp2899
I104635675
aI104636635
aS'+'
aI104635675
asS'Olfr656'
p2900
(lp2901
I104617656
aI104618646
aS'+'
aI104617656
asS'Olfr651'
p2902
(lp2903
I104552883
aI104553952
aS'+'
aI104552920
asS'Clptm1'
p2904
(lp2905
I19631579
aI19665030
aS'-'
aI19633690
asS'Olfr653'
p2906
(lp2907
I104579623
aI104580669
aS'+'
aI104579647
asS'Gm3189'
p2908
(lp2909
I3948644
aI3983758
aS'-'
aI3948644
asS'Grm5'
p2910
(lp2911
I87584167
aI88135063
aS'+'
aI87602543
asS'Gm38976'
p2912
(lp2913
I28146094
aI28148502
aS'-'
aI28148502
asS'Gm35894'
p2914
(lp2915
I70586452
aI70589443
aS'-'
aI70589443
asS'Olfr658'
p2916
(lp2917
I104642879
aI104647305
aS'-'
aI104644398
asS'Fanci'
p2918
(lp2919
I79392311
aI79450265
aS'+'
aI79395911
asS'Lrrc28'
p2920
(lp2921
I67513409
aI67645333
aS'-'
aI67645333
asS'C230079O03Rik'
p2922
(lp2923
I136332215
aI136349415
aS'-'
aI136349415
asS'Spns1'
p2924
(lp2925
I126370059
aI126377934
aS'-'
aI126377934
asS'Rbbp6'
p2926
(lp2927
I122970563
aI123002572
aS'+'
aI122970961
asS'Olfr568'
p2928
(lp2929
I102877121
aI102878063
aS'+'
aI102877121
asS'Syngr4'
p2930
(lp2931
I45884635
aI45896737
aS'-'
aI45885130
asS'LOC108167482'
p2932
(lp2933
I43153157
aI43155410
aS'+'
aI43153157
asS'Hsd3b7'
p2934
(lp2935
I127800600
aI127803803
aS'+'
aI127801522
asS'LOC108167485'
p2936
(lp2937
I98699608
aI98702981
aS'-'
aI98699608
asS'LOC108167484'
p2938
(lp2939
I81934064
aI82015926
aS'+'
aI81934064
asS'Olfr1350'
p2940
(lp2941
I6569992
aI6570919
aS'+'
aI6569992
asS'Nova2'
p2942
(lp2943
I18925887
aI18965319
aS'+'
aI18926079
asS'Ffar2'
p2944
(lp2945
I30818030
aI30823707
aS'-'
aI30819120
asS'Ffar3'
p2946
(lp2947
I30854329
aI30856178
aS'-'
aI30854933
asS'Cox6b2'
p2948
(lp2949
I4751791
aI4753094
aS'-'
aI4751921
asS'Homer2'
p2950
(lp2951
I81600480
aI81706925
aS'-'
aI81610252
asS'Gm8653'
p2952
(lp2953
I22200340
aI22201264
aS'-'
aI22200340
asS'Arntl'
p2954
(lp2955
I113178469
aI113314126
aS'+'
aI113280662
asS'Ptdss2'
p2956
(lp2957
I141131285
aI141156154
aS'+'
aI141131401
asS'Lmtk3'
p2958
(lp2959
I45784248
aI45806891
aS'+'
aI45785605
asS'Arap1'
p2960
(lp2961
I101347647
aI101412586
aS'+'
aI101372992
asS'4931406B18Rik'
p2962
(lp2963
I43492043
aI43505938
aS'-'
aI43495628
asS'Tph1'
p2964
(lp2965
I46644640
aI46672537
aS'-'
aI46647425
asS'Rrm1'
p2966
(lp2967
I102441694
aI102469771
aS'+'
aI102442024
asS'Picalm'
p2968
(lp2969
I90130231
aI90209447
aS'+'
aI90130572
asS'Gm15412'
p2970
(lp2971
I96339482
aI96341964
aS'-'
aI96341964
asS'Gm15413'
p2972
(lp2973
I96791432
aI96801549
aS'-'
aI96801549
asS'Ascl2'
p2974
(lp2975
I142966822
aI143008033
aS'-'
aI142967917
asS'Ascl3'
p2976
(lp2977
I109727464
aI109731732
aS'-'
aI109727585
asS'Rabac1'
p2978
(lp2979
I24969749
aI24972728
aS'-'
aI24969920
asS'Gm9271'
p2980
(lp2981
I39362410
aI39368671
aS'-'
aI39362597
asS'Ccdc189'
p2982
(lp2983
I127582382
aI127588595
aS'-'
aI127583410
asS'Rinl'
p2984
(lp2985
I28788846
aI28798965
aS'+'
aI28788915
asS'Art2b'
p2986
(lp2987
I101575728
aI101585583
aS'-'
aI101578859
asS'Stk33'
p2988
(lp2989
I109279212
aI109439076
aS'-'
aI109279664
asS'Psmd13'
p2990
(lp2991
I140882393
aI140898642
aS'+'
aI140882471
asS'Tsen34'
p2992
(lp2993
I3693435
aI3701014
aS'+'
aI3694601
asS'Zfp658'
p2994
(lp2995
I43562201
aI43576142
aS'+'
aI43564783
asS'Gm34760'
p2996
(lp2997
I100131879
aI100137487
aS'+'
aI100137487
asS'Gm34762'
p2998
(lp2999
I117719377
aI117759196
aS'-'
aI117759196
asS'Gm29978'
p3000
(lp3001
I136677090
aI136680444
aS'-'
aI136680444
asS'Gm29976'
p3002
(lp3003
I83341270
aI83383189
aS'-'
aI83383189
asS'Lrrc51'
p3004
(lp3005
I101912988
aI101933923
aS'-'
aI101913070
asS'Gm34561'
p3006
(lp3007
I144426131
aI144431330
aS'-'
aI144431330
asS'Gm38689'
p3008
(lp3009
I13380219
aI13385877
aS'+'
aI13380788
asS'Taldo1'
p3010
(lp3011
I141392159
aI141402976
aS'+'
aI141392221
asS'Eed'
p3012
(lp3013
I89954730
aI89981419
aS'-'
aI89955536
asS'Gm32816'
p3014
(lp3015
I128461793
aI128475575
aS'+'
aI128475575
asS'Xrcc1'
p3016
(lp3017
I24546703
aI24573436
aS'+'
aI24573436
asS'Olfr297'
p3018
(lp3019
I86526758
aI86527691
aS'+'
aI86526758
asS'4933436H12Rik'
p3020
(lp3021
I68417423
aI68426133
aS'+'
aI68426133
asS'Fgfr2'
p3022
(lp3023
I130162450
aI130266944
aS'-'
aI130266944
asS'Mvp'
p3024
(lp3025
I126986859
aI127014594
aS'-'
aI126986982
asS'Ccdc89'
p3026
(lp3027
I90426311
aI90428664
aS'+'
aI90426583
asS'Gm35567'
p3028
(lp3029
I133215953
aI133221529
aS'+'
aI133221529
asS'Ccdc83'
p3030
(lp3031
I90223499
aI90265299
aS'-'
aI90223918
asS'Ccdc81'
p3032
(lp3033
I89866147
aI89903629
aS'-'
aI89866504
asS'Mir344f'
p3034
(lp3035
I62046180
aI62046248
aS'-'
aI62046248
asS'Mir344g'
p3036
(lp3037
I61982288
aI61982359
aS'-'
aI61982359
asS'Mir344e'
p3038
(lp3039
I61735536
aI61735602
aS'-'
aI61735602
asS'Mir344b'
p3040
(lp3041
I61790518
aI61790581
aS'-'
aI61790581
asS'Mir344c'
p3042
(lp3043
I61837310
aI61837402
aS'-'
aI61837402
asS'Olfr33'
p3044
(lp3045
I102713454
aI102714411
aS'-'
aI102713454
asS'Psmc4'
p3046
(lp3047
I28041701
aI28050092
aS'-'
aI28041806
asS'Mir344i'
p3048
(lp3049
I62085222
aI62085310
aS'-'
aI62085310
asS'Zfp788'
p3050
(lp3051
I41632732
aI41651534
aS'+'
aI41633691
asS'Ints4'
p3052
(lp3053
I97480950
aI97541398
aS'+'
aI97481096
asS'Zfp784'
p3054
(lp3055
I5034445
aI5038446
aS'-'
aI5035663
asS'Zfp787'
p3056
(lp3057
I6131488
aI6159550
aS'-'
aI6132104
asS'Gm34878'
p3058
(lp3059
I118050559
aI118059838
aS'-'
aI118059838
asS'Gm35364'
p3060
(lp3061
I133123548
aI133124611
aS'+'
aI133123668
asS'Gm35363'
p3062
(lp3063
I101518191
aI101538664
aS'-'
aI101538664
asS'Dctn5'
p3064
(lp3065
I122133040
aI122149044
aS'+'
aI122133133
asS'Zfp61'
p3066
(lp3067
I24291044
aI24302516
aS'-'
aI24291056
asS'Zfp60'
p3068
(lp3069
I27731408
aI27751689
aS'+'
aI27736955
asS'9130023H24Rik'
p3070
(lp3071
I128234450
aI128238031
aS'-'
aI128236405
asS'Olfr715'
p3072
(lp3073
I107128351
aI107129482
aS'-'
aI107128443
asS'Mir9-3'
p3074
(lp3075
I79505263
aI79505353
aS'+'
aI79505353
asS'Clip3'
p3076
(lp3077
I30291681
aI30308367
aS'+'
aI30292200
asS'Zfp84'
p3078
(lp3079
I29768551
aI29781419
aS'+'
aI29771370
asS'Cnfn'
p3080
(lp3081
I25367615
aI25369724
aS'-'
aI25367747
asS'LOC105247259'
p3082
(lp3083
I59460280
aI59479504
aS'-'
aI59479504
asS'Zfp82'
p3084
(lp3085
I30056033
aI30072823
aS'-'
aI30056152
asS'Gm35147'
p3086
(lp3087
I132460248
aI132465818
aS'-'
aI132465818
asS'Fam169b'
p3088
(lp3089
I68273838
aI68363089
aS'+'
aI68273875
asS'Gm8149'
p3090
(lp3091
I98895216
aI98906485
aS'+'
aI98906485
asS'l7Rn6'
p3092
(lp3093
I89917528
aI89941223
aS'-'
aI89919001
asS'LOC105247253'
p3094
(lp3095
I40190889
aI40191353
aS'+'
aI40190934
asS'Klhl35'
p3096
(lp3097
I99466003
aI99474022
aS'+'
aI99468250
asS'Gm34782'
p3098
(lp3099
I69056741
aI69079291
aS'+'
aI69079291
asS'B230206H07Rik'
p3100
(lp3101
I141359177
aI141365110
aS'-'
aI141365110
asS'E130304I02Rik'
p3102
(lp3103
I35802591
aI35838074
aS'+'
aI35838074
asS'Tead2'
p3104
(lp3105
I45215752
aI45233619
aS'+'
aI45217218
asS'Tead1'
p3106
(lp3107
I112679319
aI112906805
aS'+'
aI112759482
asS'Sirt3'
p3108
(lp3109
I140863662
aI140882309
aS'-'
aI140864062
asS'Gm36044'
p3110
(lp3111
I18822787
aI18826231
aS'-'
aI18824533
asS'1700120G07Rik'
p3112
(lp3113
I135191764
aI135196002
aS'-'
aI135196002
asS'Gm39045'
p3114
(lp3115
I84411347
aI84417371
aS'-'
aI84417371
asS'Sirt2'
p3116
(lp3117
I28766661
aI28788661
aS'+'
aI28766728
asS'Synm'
p3118
(lp3119
I67730160
aI67759742
aS'-'
aI67733226
asS'Il16'
p3120
(lp3121
I83643597
aI83746271
aS'-'
aI83643888
asS'Prss23'
p3122
(lp3123
I89509099
aI89527238
aS'-'
aI89509710
asS'Gpx2-ps1'
p3124
(lp3125
I100264543
aI100265561
aS'+'
aI100265561
asS'6330408A02Rik'
p3126
(lp3127
I13258966
aI13278721
aS'-'
aI13259677
asS'Gm39049'
p3128
(lp3129
I95775448
aI95781171
aS'+'
aI95781171
asS'Gm32031'
p3130
(lp3131
I47008487
aI47009013
aS'+'
aI47009013
asS'Kmt2b'
p3132
(lp3133
I30568854
aI30588726
aS'-'
aI30569160
asS'Gm39048'
p3134
(lp3135
I91015738
aI91016298
aS'+'
aI91016298
asS'Ccdc61'
p3136
(lp3137
I18890882
aI18910411
aS'-'
aI18891075
asS'Mzf1'
p3138
(lp3139
I13042302
aI13054764
aS'-'
aI13043267
asS'Gm4759'
p3140
(lp3141
I106421549
aI106441073
aS'-'
aI106441073
asS'Fbxo17'
p3142
(lp3143
I28716748
aI28738132
aS'+'
aI28732499
asS'1700029B22Rik'
p3144
(lp3145
I131146438
aI131150578
aS'+'
aI131150578
asS'Oat'
p3146
(lp3147
I132557474
aI132576398
aS'-'
aI132558169
asS'Mir139'
p3148
(lp3149
I101475375
aI101475443
aS'+'
aI101475443
asS'Cend1'
p3150
(lp3151
I141426445
aI141429540
aS'-'
aI141427455
asS'Gm5114'
p3152
(lp3153
I39407293
aI39413160
aS'-'
aI39407616
asS'Gm5113'
p3154
(lp3155
I30169921
aI30180209
aS'+'
aI30178488
asS'Dact3'
p3156
(lp3157
I16875316
aI16887301
aS'+'
aI16875424
asS'B130024G19Rik'
p3158
(lp3159
I70365382
aI70411146
aS'+'
aI70411146
asS'Gm36864'
p3160
(lp3161
I44236248
aI44244313
aS'+'
aI44244313
asS'Scgb2b33'
p3162
(lp3163
I33111668
aI33113458
aS'-'
aI33111668
asS'Muc5ac'
p3164
(lp3165
I141788957
aI141819217
aS'+'
aI141788998
asS'D630041G03Rik'
p3166
(lp3167
I4467244
aI4470884
aS'-'
aI4470884
asS'Myo7a'
p3168
(lp3169
I98051053
aI98119524
aS'-'
aI98051626
asS'Pth2'
p3170
(lp3171
I45176543
aI45181800
aS'+'
aI45181293
asS'C030039L03Rik'
p3172
(lp3173
I27674660
aI27706484
aS'+'
aI27692501
asS'Olfr469'
p3174
(lp3175
I107822522
aI107823467
aS'-'
aI107822522
asS'Paox'
p3176
(lp3177
I140115793
aI140134334
aS'+'
aI140115808
asS'Kctd14'
p3178
(lp3179
I97436379
aI97458512
aS'+'
aI97436394
asS'AF357399'
p3180
(lp3181
I28351539
aI28351633
aS'+'
aI28351633
asS'Gm4971'
p3182
(lp3183
I73685491
aI73686563
aS'-'
aI73686563
asS'Crym'
p3184
(lp3185
I120186383
aI120201988
aS'-'
aI120186633
asS'Snord116l1'
p3186
(lp3187
I59894621
aI59894711
aS'-'
aI59894711
asS'Dyrk1b'
p3188
(lp3189
I28180091
aI28197910
aS'+'
aI28180347
asS'Tyr'
p3190
(lp3191
I87424770
aI87493512
aS'-'
aI87429048
asS'Hirip3'
p3192
(lp3193
I126861971
aI126865122
aS'+'
aI126862451
asS'Olfr484'
p3194
(lp3195
I108124295
aI108125261
aS'-'
aI108124295
asS'Olfr485'
p3196
(lp3197
I108158917
aI108159871
aS'-'
aI108158917
asS'Rps11'
p3198
(lp3199
I45122387
aI45124389
aS'-'
aI45122434
asS'Olfr487'
p3200
(lp3201
I108211582
aI108212527
aS'-'
aI108211582
asS'Rps17'
p3202
(lp3203
I81342732
aI81345234
aS'-'
aI81342768
asS'Rps16'
p3204
(lp3205
I28350688
aI28352698
aS'+'
aI28350803
asS'Olfr482'
p3206
(lp3207
I108094596
aI108095568
aS'-'
aI108094596
asS'Olfr483'
p3208
(lp3209
I108103310
aI108104258
aS'+'
aI108103310
asS'Tulp2'
p3210
(lp3211
I45482025
aI45522382
aS'+'
aI45515465
asS'Rps19'
p3212
(lp3213
I24884375
aI24889806
aS'+'
aI24885135
asS'Olfr488'
p3214
(lp3215
I108255191
aI108256136
aS'-'
aI108255191
asS'Gm27252'
p3216
(lp3217
I63896388
aI63900537
aS'+'
aI63900537
asS'Copb1'
p3218
(lp3219
I114215558
aI114254680
aS'-'
aI114215877
asS'Mir6416'
p3220
(lp3221
I64249982
aI64250099
aS'-'
aI64250099
asS'Syce1'
p3222
(lp3223
I140777228
aI140787854
aS'-'
aI140777660
asS'Gm20684'
p3224
(lp3225
I65858543
aI65862172
aS'-'
aI65860546
asS'Acan'
p3226
(lp3227
I79053201
aI79115099
aS'+'
aI79082194
asS'Nomo1'
p3228
(lp3229
I46033695
aI46084212
aS'+'
aI46033831
asS'Ctu1'
p3230
(lp3231
I43671975
aI43678300
aS'+'
aI43675138
asS'Cnga4'
p3232
(lp3233
I105397449
aI105409101
aS'+'
aI105404691
asS'1700028J19Rik'
p3234
(lp3235
I44229928
aI44236122
aS'-'
aI44236122
asS'Gm33015'
p3236
(lp3237
I51441889
aI51444075
aS'-'
aI51444075
asS'Otoa'
p3238
(lp3239
I121083437
aI121163089
aS'+'
aI121091543
asS'Vstm2b'
p3240
(lp3241
I40898341
aI40929972
aS'+'
aI40899367
asS'Gm30892'
p3242
(lp3243
I78727472
aI78734644
aS'-'
aI78734644
asS'Otog'
p3244
(lp3245
I46240986
aI46311434
aS'+'
aI46241028
asS'Nipa2'
p3246
(lp3247
I55931265
aI55962493
aS'-'
aI55932915
asS'1700028B04Rik'
p3248
(lp3249
I28496940
aI28497492
aS'+'
aI28497492
asS'Mir6389'
p3250
(lp3251
I57581060
aI57581162
aS'+'
aI57581162
asS'Prcp'
p3252
(lp3253
I92875252
aI92934581
aS'+'
aI92875338
asS'Hrc'
p3254
(lp3255
I45335268
aI45338973
aS'+'
aI45335426
asS'Fgf4'
p3256
(lp3257
I144861385
aI144865243
aS'+'
aI144861504
asS'Lsp1'
p3258
(lp3259
I142460811
aI142494868
aS'+'
aI142460898
asS'Vmn1r85'
p3260
(lp3261
I13084288
aI13085215
aS'-'
aI13084288
asS'Vmn1r84'
p3262
(lp3263
I12361807
aI12362764
aS'-'
aI12361807
asS'Vmn1r87'
p3264
(lp3265
I13131470
aI13132358
aS'-'
aI13131470
asS'Vmn1r86'
p3266
(lp3267
I13101996
aI13102947
aS'-'
aI13101996
asS'Vmn1r81'
p3268
(lp3269
I12259758
aI12260679
aS'-'
aI12259758
asS'Vmn1r80'
p3270
(lp3271
I12192964
aI12193891
aS'+'
aI12192964
asS'Vmn1r83'
p3272
(lp3273
I12320249
aI12322128
aS'-'
aI12320249
asS'Vmn1r82'
p3274
(lp3275
I12304804
aI12305719
aS'+'
aI12304804
asS'Atf5'
p3276
(lp3277
I44812255
aI44816658
aS'-'
aI44816658
asS'Gramd1a'
p3278
(lp3279
I31130126
aI31155936
aS'-'
aI31155936
asS'Olfr649'
p3280
(lp3281
I104189266
aI104190205
aS'-'
aI104189266
asS'Vmn1r89'
p3282
(lp3283
I13219338
aI13220289
aS'+'
aI13219338
asS'Vmn1r88'
p3284
(lp3285
I13177718
aI13178669
aS'+'
aI13177718
asS'Tm2d3'
p3286
(lp3287
I65693416
aI65701913
aS'+'
aI65693478
asS'1700003G18Rik'
p3288
(lp3289
I116081761
aI116093149
aS'-'
aI116093149
asS'Pdilt'
p3290
(lp3291
I119486585
aI119528621
aS'-'
aI119486723
asS'Bax'
p3292
(lp3293
I45461699
aI45468205
aS'-'
aI45461823
asS'Erf'
p3294
(lp3295
I25242559
aI25250758
aS'-'
aI25244248
asS'Olfr1349'
p3296
(lp3297
I6514198
aI6520355
aS'-'
aI6514473
asS'Olfr1348'
p3298
(lp3299
I6501285
aI6502224
aS'-'
aI6501285
asS'Gm2115'
p3300
(lp3301
I84528953
aI84578339
aS'+'
aI84578339
asS'Olfr1344'
p3302
(lp3303
I6439901
aI6440867
aS'+'
aI6439901
asS'Olfr1347'
p3304
(lp3305
I6487912
aI6488872
aS'-'
aI6487912
asS'Olfr1346'
p3306
(lp3307
I6474111
aI6475053
aS'+'
aI6474111
asS'Inpp5a'
p3308
(lp3309
I139389108
aI139579652
aS'+'
aI139389389
asS'Inpp5f'
p3310
(lp3311
I128611364
aI128696436
aS'+'
aI128611594
asS'Hbb-y'
p3312
(lp3313
I103851753
aI103853207
aS'-'
aI103851873
asS'Snord35a'
p3314
(lp3315
I45126346
aI45126435
aS'-'
aI45126435
asS'Snord35b'
p3316
(lp3317
I45123024
aI45123111
aS'-'
aI45123111
asS'Ppp1r37'
p3318
(lp3319
I19530966
aI19562398
aS'-'
aI19531510
asS'Pold3'
p3320
(lp3321
I100082110
aI100121560
aS'-'
aI100083651
asS'Gm39098'
p3322
(lp3323
I130644561
aI130645932
aS'-'
aI130645932
asS'Plin1'
p3324
(lp3325
I79721163
aI79732903
aS'-'
aI79721420
asS'Mesdc1'
p3326
(lp3327
I83880494
aI83884341
aS'-'
aI83882132
asS'Mesdc2'
p3328
(lp3329
I83891999
aI83901532
aS'+'
aI83892289
asS'Rtn2'
p3330
(lp3331
I19282623
aI19296164
aS'+'
aI19282831
asS'Plekha4'
p3332
(lp3333
I45526329
aI45554229
aS'+'
aI45530574
asS'Plekha7'
p3334
(lp3335
I116123484
aI116308376
aS'-'
aI116124797
asS'Psg29'
p3336
(lp3337
I17203476
aI17215756
aS'+'
aI17203667
asS'Psg28'
p3338
(lp3339
I18422535
aI18432055
aS'-'
aI18422889
asS'Psg25'
p3340
(lp3341
I18519701
aI18532227
aS'-'
aI18521161
asS'Nsmce4a'
p3342
(lp3343
I130532522
aI130547412
aS'-'
aI130547412
asS'Psg27'
p3344
(lp3345
I18556513
aI18567305
aS'-'
aI18556851
asS'Psg26'
p3346
(lp3347
I18474576
aI18484196
aS'-'
aI18475053
asS'Psg21'
p3348
(lp3349
I18646653
aI18656725
aS'-'
aI18647200
asS'Psg20'
p3350
(lp3351
I18674365
aI18685992
aS'-'
aI18674365
asS'Psg23'
p3352
(lp3353
I18606342
aI18616501
aS'-'
aI18606911
asS'Psg22'
p3354
(lp3355
I18718054
aI18727438
aS'+'
aI18718159
asS'Gm9268'
p3356
(lp3357
I43018797
aI43048106
aS'+'
aI43018797
asS'Ap2s1'
p3358
(lp3359
I16738406
aI16749294
aS'+'
aI16749294
asS'Apoc4-apoc2'
p3360
(lp3361
I19671578
aI19681460
aS'-'
aI19671760
asS'Prr12'
p3362
(lp3363
I45027706
aI45052881
aS'-'
aI45028477
asS'Omp'
p3364
(lp3365
I98143358
aI98145447
aS'-'
aI98144926
asS'Prr14'
p3366
(lp3367
I127465024
aI127476767
aS'+'
aI127472251
asS'Aurkc'
p3368
(lp3369
I6977207
aI7003091
aS'+'
aI6996278
asS'Prr19'
p3370
(lp3371
I25301358
aI25304133
aS'+'
aI25302878
asS'Syne4'
p3372
(lp3373
I30314815
aI30319045
aS'+'
aI30314958
asS'BC051019'
p3374
(lp3375
I109712180
aI109723933
aS'-'
aI109712527
asS'Abca14'
p3376
(lp3377
I120203893
aI120325354
aS'+'
aI120207378
asS'Abca15'
p3378
(lp3379
I120328485
aI120407663
aS'+'
aI120332170
asS'Abca16'
p3380
(lp3381
I120409646
aI120544813
aS'+'
aI120435930
asS'Sdhaf1'
p3382
(lp3383
I30321408
aI30322375
aS'-'
aI30321972
asS'Arhgef1'
p3384
(lp3385
I24902916
aI24926594
aS'+'
aI24907733
asS'Pkp3'
p3386
(lp3387
I141078228
aI141090510
aS'+'
aI141078323
asS'Mir5121'
p3388
(lp3389
I45126917
aI45126991
aS'-'
aI45126991
asS'Ipo7'
p3390
(lp3391
I110018247
aI110056609
aS'+'
aI110018424
asS'Gm29903'
p3392
(lp3393
I122235264
aI122244231
aS'-'
aI122244231
asS'Gm30061'
p3394
(lp3395
I137145813
aI137149465
aS'+'
aI137149465
asS'Hspb6'
p3396
(lp3397
I30552555
aI30555439
aS'+'
aI30552656
asS'Fxyd7'
p3398
(lp3399
I31042514
aI31051454
aS'-'
aI31042881
asS'Fxyd5'
p3400
(lp3401
I31032722
aI31042331
aS'-'
aI31032968
asS'Fxyd3'
p3402
(lp3403
I31070534
aI31076697
aS'-'
aI31070700
asS'Rgs10'
p3404
(lp3405
I128373620
aI128419201
aS'-'
aI128373895
asS'Fxyd1'
p3406
(lp3407
I31051677
aI31055874
aS'-'
aI31051951
asS'Zg16'
p3408
(lp3409
I127050155
aI127052705
aS'-'
aI127050283
asS'Scgb1b30'
p3410
(lp3411
I34095430
aI34100837
aS'+'
aI34095513
asS'Mical2'
p3412
(lp3413
I112225835
aI112355194
aS'+'
aI112271305
asS'Wdr62'
p3414
(lp3415
I30240137
aI30280421
aS'-'
aI30240220
asS'Nell1'
p3416
(lp3417
I49975349
aI50863289
aS'+'
aI49975388
asS'Ptprh'
p3418
(lp3419
I4548613
aI4604041
aS'-'
aI4549347
asS'Rpl27a'
p3420
(lp3421
I109519194
aI109522369
aS'+'
aI109519219
asS'Acpt'
p3422
(lp3423
I44252009
aI44261347
aS'-'
aI44252029
asS'Mir7064'
p3424
(lp3425
I143570670
aI143570759
aS'-'
aI143570759
asS'Gm6833'
p3426
(lp3427
I38952273
aI38962397
aS'-'
aI38953206
asS'Snord116'
p3428
(lp3429
I59675989
aI59676079
aS'-'
aI59676079
asS'Bcam'
p3430
(lp3431
I19756137
aI19770532
aS'-'
aI19756613
asS'Pnmal2'
p3432
(lp3433
I16944681
aI16948828
aS'+'
aI16945092
asS'Pnmal1'
p3434
(lp3435
I16949839
aI16964607
aS'+'
aI16960221
asS'Mir7061'
p3436
(lp3437
I130908267
aI130908335
aS'+'
aI130908335
asS'Lrp3'
p3438
(lp3439
I35200877
aI35215493
aS'-'
aI35215493
asS'Atp2a1'
p3440
(lp3441
I126445859
aI126463103
aS'-'
aI126446100
asS'LOC105243090'
p3442
(lp3443
I142211525
aI142213081
aS'+'
aI142211858
asS'Zfp78'
p3444
(lp3445
I6363307
aI6382605
aS'+'
aI6371363
asS'Gm33442'
p3446
(lp3447
I66254770
aI66277801
aS'+'
aI66277801
asS'Gm6909'
p3448
(lp3449
I11181222
aI11188812
aS'+'
aI11188812
asS'Gm33234'
p3450
(lp3451
I65690058
aI65693161
aS'-'
aI65693161
asS'Tmem9b'
p3452
(lp3453
I109735835
aI109752263
aS'-'
aI109736835
asS'Aplp1'
p3454
(lp3455
I30434979
aI30445602
aS'-'
aI30435292
asS'Btbd16'
p3456
(lp3457
I130774068
aI130825899
aS'+'
aI130777127
asS'Zfp74'
p3458
(lp3459
I29932660
aI29954441
aS'-'
aI29934241
asS'Btbd10'
p3460
(lp3461
I113315630
aI113371112
aS'-'
aI113316428
asS'Zscan22'
p3462
(lp3463
I12897808
aI12909083
aS'+'
aI12897819
asS'Gm6902'
p3464
(lp3465
I23272787
aI23275243
aS'-'
aI23273194
asS'Sertad1'
p3466
(lp3467
I27486952
aI27490314
aS'+'
aI27489255
asS'Sertad3'
p3468
(lp3469
I27473839
aI27477364
aS'+'
aI27476142
asS'Mir3099'
p3470
(lp3471
I6803586
aI6803670
aS'+'
aI6803670
asS'Zfp94'
p3472
(lp3473
I24301794
aI24320259
aS'-'
aI24302554
asS'Chrna7'
p3474
(lp3475
I63098691
aI63212526
aS'-'
aI63099223
asS'Leng1'
p3476
(lp3477
I3660106
aI3665840
aS'-'
aI3661140
asS'Zfp93'
p3478
(lp3479
I24267984
aI24277151
aS'+'
aI24271655
asS'Sema4b'
p3480
(lp3481
I80186840
aI80226524
aS'+'
aI80198652
asS'Leng9'
p3482
(lp3483
I4148182
aI4149872
aS'-'
aI4148217
asS'Leng8'
p3484
(lp3485
I4137052
aI4148177
aS'+'
aI4138750
asS'Klhl25'
p3486
(lp3487
I75848337
aI75874130
aS'+'
aI75865347
asS'C5ar2'
p3488
(lp3489
I16234584
aI16244154
aS'-'
aI16236923
asS'Zfp688'
p3490
(lp3491
I127418962
aI127422939
aS'-'
aI127419126
asS'Zfp689'
p3492
(lp3493
I127442135
aI127449158
aS'-'
aI127443953
asS'Pgpep1l'
p3494
(lp3495
I68236449
aI68264484
aS'-'
aI68236938
asS'Tmem91'
p3496
(lp3497
I25669138
aI25679567
aS'-'
aI25669339
asS'Phrf1'
p3498
(lp3499
I141228263
aI141262751
aS'+'
aI141262751
asS'Gm10619'
p3500
(lp3501
I73808221
aI73816503
aS'-'
aI73816503
asS'LOC102640399'
p3502
(lp3503
I59678920
aI59794856
aS'-'
aI59794856
asS'Mesp1'
p3504
(lp3505
I79792240
aI79793590
aS'-'
aI79792522
asS'Mesp2'
p3506
(lp3507
I79810726
aI79813431
aS'+'
aI79810928
asS'4930479H17Rik'
p3508
(lp3509
I30346596
aI30353946
aS'-'
aI30353946
asS'Fam53b'
p3510
(lp3511
I132712083
aI132813196
aS'-'
aI132715642
asS'Numbl'
p3512
(lp3513
I27258437
aI27282145
aS'+'
aI27264889
asS'Ndufc2'
p3514
(lp3515
I97400002
aI97407800
aS'+'
aI97400188
asS'Olfr697'
p3516
(lp3517
I106740904
aI106741956
aS'-'
aI106740978
asS'Ctf2'
p3518
(lp3519
I127718959
aI127725616
aS'-'
aI127719210
asS'Ctf1'
p3520
(lp3521
I127712701
aI127718188
aS'+'
aI127712754
asS'Ankrd42'
p3522
(lp3523
I92584182
aI92637142
aS'-'
aI92584458
asS'Spred3'
p3524
(lp3525
I29157266
aI29169854
aS'-'
aI29157692
asS'Arhgap17'
p3526
(lp3527
I123279148
aI123370034
aS'-'
aI123283817
asS'Mef2a'
p3528
(lp3529
I67231164
aI67372997
aS'-'
aI67234867
asS'Acp7'
p3530
(lp3531
I28607633
aI28631355
aS'-'
aI28607939
asS'Gm32029'
p3532
(lp3533
I30410915
aI30413705
aS'-'
aI30413705
asS'Gm35040'
p3534
(lp3535
I79535736
aI79558537
aS'+'
aI79558537
asS'Btbd1'
p3536
(lp3537
I81792073
aI81829431
aS'-'
aI81793567
asS'LOC545966'
p3538
(lp3539
I48909131
aI48910008
aS'+'
aI48910008
asS'Zscan2'
p3540
(lp3541
I80860736
aI80878675
aS'+'
aI80863268
asS'Adamtsl3'
p3542
(lp3543
I82335397
aI82614450
aS'+'
aI82335907
asS'Fam168a'
p3544
(lp3545
I100706701
aI100841646
aS'+'
aI100786821
asS'Rplp2'
p3546
(lp3547
I141447463
aI141451350
aS'+'
aI141447908
asS'Rnf169'
p3548
(lp3549
I99920253
aI99980642
aS'-'
aI99925301
asS'1500002F19Rik'
p3550
(lp3551
I132874613
aI132897571
aS'-'
aI132897571
asS'Galnt18'
p3552
(lp3553
I111471655
aI111780067
aS'-'
aI111471936
asS'Mtg1'
p3554
(lp3555
I140137563
aI140150786
aS'+'
aI140137664
asS'Cd151'
p3556
(lp3557
I141467361
aI141471481
aS'+'
aI141469261
asS'Adam12'
p3558
(lp3559
I133883198
aI134225097
aS'-'
aI133887941
asS'Gm4187'
p3560
(lp3561
I22328793
aI22329717
aS'-'
aI22328793
asS'Gm30335'
p3562
(lp3563
I123592021
aI123639762
aS'+'
aI123639762
asS'LOC102636183'
p3564
(lp3565
I112526632
aI112536312
aS'-'
aI112536312
asS'Scgb2b21'
p3566
(lp3567
I33518487
aI33520455
aS'-'
aI33518643
asS'Scgb2b20'
p3568
(lp3569
I33364342
aI33366319
aS'-'
aI33364504
asS'Scgb2b27'
p3570
(lp3571
I34011918
aI34013942
aS'-'
aI34012421
asS'Scgb2b26'
p3572
(lp3573
I33942996
aI33944985
aS'-'
aI33943165
asS'Scgb2b24'
p3574
(lp3575
I33737192
aI33739295
aS'-'
aI33737346
asS'Ppp6r1'
p3576
(lp3577
I4631494
aI4658950
aS'-'
aI4632240
asS'Gm4565'
p3578
(lp3579
I22582078
aI22588127
aS'-'
aI22582485
asS'Gm4567'
p3580
(lp3581
I22713597
aI22719710
aS'-'
aI22714004
asS'Ptgir'
p3582
(lp3583
I16905418
aI16910905
aS'+'
aI16906778
asS'Chmp2a'
p3584
(lp3585
I13032005
aI13034777
aS'-'
aI13032074
asS'Zfp235'
p3586
(lp3587
I24130932
aI24143244
aS'+'
aI24135300
asS'Exoc3l2'
p3588
(lp3589
I19463147
aI19496762
aS'+'
aI19469484
asS'4930567K12Rik'
p3590
(lp3591
I92092205
aI92119511
aS'-'
aI92119511
asS'Cd79a'
p3592
(lp3593
I24897510
aI24902197
aS'+'
aI24897521
asS'Cox8b'
p3594
(lp3595
I140898941
aI140900446
aS'-'
aI140898987
asS'Ldhc'
p3596
(lp3597
I46861262
aI46878142
aS'+'
aI46861769
asS'Adgra1'
p3598
(lp3599
I139834173
aI139878088
aS'+'
aI139840805
asS'Pnpla2'
p3600
(lp3601
I141455187
aI141460743
aS'+'
aI141455286
asS'Gm36817'
p3602
(lp3603
I83037377
aI83048173
aS'+'
aI83048173
asS'Taf10'
p3604
(lp3605
I105742893
aI105744379
aS'-'
aI105743044
asS'Pafah1b3'
p3606
(lp3607
I25295047
aI25297973
aS'-'
aI25295088
asS'Six5'
p3608
(lp3609
I19094543
aI19098345
aS'+'
aI19094636
asS'Map6'
p3610
(lp3611
I99267446
aI99337137
aS'+'
aI99268021
asS'Mir343'
p3612
(lp3613
I19386642
aI19386717
aS'+'
aI19386717
asS'Mir344'
p3614
(lp3615
I61877769
aI61877864
aS'-'
aI61877864
asS'Trim30e-ps1'
p3616
(lp3617
I104532958
aI104535361
aS'-'
aI104535361
asS'Alg8'
p3618
(lp3619
I97371616
aI97392159
aS'+'
aI97371637
asS'Ticrr'
p3620
(lp3621
I79660195
aI79698148
aS'+'
aI79660339
asS'Gm10081'
p3622
(lp3623
I107105911
aI107106859
aS'-'
aI107105911
asS'Gm20744'
p3624
(lp3625
I82070386
aI82081758
aS'+'
aI82081758
asS'Odf3'
p3626
(lp3627
I140847915
aI140850925
aS'+'
aI140848354
asS'Gm7696'
p3628
(lp3629
I8351075
aI8353704
aS'-'
aI8353704
asS'Olfr582'
p3630
(lp3631
I103041480
aI103042440
aS'+'
aI103041480
asS'Iqgap1'
p3632
(lp3633
I80711582
aI80815539
aS'-'
aI80713831
asS'Vmn2r-ps54'
p3634
(lp3635
I41668013
aI41727193
aS'+'
aI41727193
asS'Lrrc4b'
p3636
(lp3637
I44442486
aI44463351
aS'+'
aI44444909
asS'Zfp128'
p3638
(lp3639
I12881177
aI12893422
aS'+'
aI12881294
asS'Ppfia1'
p3640
(lp3641
I144476754
aI144553729
aS'-'
aI144479038
asS'U2af1l4'
p3642
(lp3643
I30563339
aI30565364
aS'+'
aI30563355
asS'Tspan32'
p3644
(lp3645
I143004909
aI143019486
aS'+'
aI143005109
asS'Gm26802'
p3646
(lp3647
I19298259
aI19300793
aS'-'
aI19300793
asS'Tnnt1'
p3648
(lp3649
I4504568
aI4516000
aS'-'
aI4504754
asS'Tnnt3'
p3650
(lp3651
I142498770
aI142516213
aS'+'
aI142501637
asS'Rasip1'
p3652
(lp3653
I45627536
aI45639092
aS'+'
aI45627769
asS'Dennd5a'
p3654
(lp3655
I109893779
aI109960470
aS'-'
aI109894631
asS'LOC101055864'
p3656
(lp3657
I20592971
aI20599021
aS'-'
aI20593378
asS'Gm36675'
p3658
(lp3659
I136153157
aI136160317
aS'+'
aI136160317
asS'3100003L05Rik'
p3660
(lp3661
I124625669
aI124708935
aS'-'
aI124708935
asS'Gm36567'
p3662
(lp3663
I36918994
aI36922188
aS'-'
aI36922188
asS'Gm5901'
p3664
(lp3665
I105375094
aI105378377
aS'+'
aI105375097
asS'Sox6'
p3666
(lp3667
I115470871
aI116038744
aS'-'
aI115476917
asS'EU599041'
p3668
(lp3669
I43214038
aI43227252
aS'+'
aI43223667
asS'AW146154'
p3670
(lp3671
I41478873
aI41499890
aS'-'
aI41480283
asS'Cd2bp2'
p3672
(lp3673
I127191659
aI127196077
aS'-'
aI127193819
asS'2310014F06Rik'
p3674
(lp3675
I112596532
aI112664189
aS'-'
aI112664189
asS'Cttn'
p3676
(lp3677
I144435730
aI144471004
aS'-'
aI144436964
asS'Spty2d1'
p3678
(lp3679
I46990395
aI47008414
aS'-'
aI46993292
asS'Vmn1r93'
p3680
(lp3681
I20138122
aI20139088
aS'-'
aI20138122
asS'Vmn1r90'
p3682
(lp3683
I14561241
aI14562171
aS'-'
aI14561241
asS'Vmn1r91'
p3684
(lp3685
I20101157
aI20102081
aS'+'
aI20101157
asS'Vmn1r94'
p3686
(lp3687
I20167459
aI20168377
aS'-'
aI20167459
asS'Hipk4'
p3688
(lp3689
I27523260
aI27531175
aS'+'
aI27523516
asS'Calca'
p3690
(lp3691
I114625902
aI114636431
aS'-'
aI114632439
asS'4732471J01Rik'
p3692
(lp3693
I25394712
aI25566417
aS'+'
aI25566417
asS'Zim2'
p3694
(lp3695
I6651747
aI6662368
aS'-'
aI6662368
asS'Zim3'
p3696
(lp3697
I6955684
aI6976662
aS'-'
aI6976662
asS'Il21r'
p3698
(lp3699
I125603428
aI125633570
aS'+'
aI125622881
asS'Lin37'
p3700
(lp3701
I30555481
aI30559723
aS'-'
aI30555526
asS'D7Ertd128e'
p3702
(lp3703
I30881952
aI30886446
aS'+'
aI30886446
asS'Chrna10'
p3704
(lp3705
I102111261
aI102116983
aS'-'
aI102112038
asS'Rab6a'
p3706
(lp3707
I100607585
aI100641268
aS'+'
aI100608223
asS'Fam103a1'
p3708
(lp3709
I81762952
aI81769490
aS'+'
aI81767553
asS'Calcb'
p3710
(lp3711
I114716554
aI114723365
aS'+'
aI114719741
asS'Zfp526'
p3712
(lp3713
I25219846
aI25227876
aS'+'
aI25221425
asS'Faap24'
p3714
(lp3715
I35392151
aI35396767
aS'-'
aI35392824
asS'Furin'
p3716
(lp3717
I80389193
aI80405441
aS'-'
aI80390706
asS'Lyve1'
p3718
(lp3719
I110850606
aI110862953
aS'-'
aI110852171
asS'Gm6124'
p3720
(lp3721
I39219163
aI39225269
aS'-'
aI39219371
asS'Il27'
p3722
(lp3723
I126589008
aI126595021
aS'-'
aI126589294
asS'Igflr1'
p3724
(lp3725
I30565426
aI30567962
aS'+'
aI30566215
asS'Cpxm2'
p3726
(lp3727
I132032686
aI132154761
aS'-'
aI132032853
asS'Olfr603'
p3728
(lp3729
I103383061
aI103384000
aS'-'
aI103383061
asS'Plekhb1'
p3730
(lp3731
I100643895
aI100662394
aS'-'
aI100644932
asS'Sigirr'
p3732
(lp3733
I141091174
aI141100605
aS'-'
aI141091337
asS'1700120K04Rik'
p3734
(lp3735
I127603902
aI127604445
aS'-'
aI127604445
asS'Dnaaf3'
p3736
(lp3737
I4522947
aI4532488
aS'-'
aI4523315
asS'Tomm40'
p3738
(lp3739
I19701312
aI19715429
aS'-'
aI19701717
asS'Fuom'
p3740
(lp3741
I140099469
aI140105396
aS'-'
aI140099642
asS'Arpin'
p3742
(lp3743
I79925358
aI79935264
aS'-'
aI79926841
asS'Trappc6a'
p3744
(lp3745
I19508728
aI19516145
aS'+'
aI19508748
asS'A730082K24Rik'
p3746
(lp3747
I114948649
aI114983967
aS'+'
aI114983967
asS'Ubqln3'
p3748
(lp3749
I104140620
aI104143321
aS'-'
aI104140904
asS'Klk4'
p3750
(lp3751
I43881171
aI43885804
aS'+'
aI43881648
asS'Fam196a'
p3752
(lp3753
I134881907
aI134938430
aS'-'
aI134884407
asS'Tspan4'
p3754
(lp3755
I141475235
aI141493427
aS'+'
aI141482503
asS'Gm29918'
p3756
(lp3757
I25576377
aI25578386
aS'-'
aI25578386
asS'Gm29919'
p3758
(lp3759
I37203137
aI37204454
aS'-'
aI37204454
asS'Cars'
p3760
(lp3761
I143557229
aI143600090
aS'-'
aI143557871
asS'Pidd1'
p3762
(lp3763
I141438112
aI141445744
aS'-'
aI141445744
asS'Gm4969'
p3764
(lp3765
I19098898
aI19118531
aS'-'
aI19099045
asS'Fah'
p3766
(lp3767
I84585158
aI84605942
aS'-'
aI84585264
asS'Peg12'
p3768
(lp3769
I62461870
aI62464510
aS'-'
aI62463495
asS'Ldha'
p3770
(lp3771
I46845803
aI46855627
aS'+'
aI46855627
asS'Dnajb13'
p3772
(lp3773
I100503019
aI100514815
aS'-'
aI100503156
asS'A230006K03Rik'
p3774
(lp3775
I61010263
aI61090414
aS'-'
aI61090414
asS'Parva'
p3776
(lp3777
I112427705
aI112591688
aS'+'
aI112427964
asS'Gm34140'
p3778
(lp3779
I67711490
aI67717180
aS'-'
aI67717180
asS'Fam83e'
p3780
(lp3781
I45721219
aI45729492
aS'+'
aI45722180
asS'Gm34891'
p3782
(lp3783
I19830060
aI19847605
aS'+'
aI19847605
asS'Olfr17'
p3784
(lp3785
I107097466
aI107098414
aS'+'
aI107097466
asS'Gm42376'
p3786
(lp3787
I30392398
aI30398644
aS'-'
aI30398644
asS'Pgm2l1'
p3788
(lp3789
I100227393
aI100278872
aS'+'
aI100278872
asS'Rpl17-ps10'
p3790
(lp3791
I72648749
aI72649344
aS'-'
aI72649344
asS'Obox1'
p3792
(lp3793
I15547256
aI15556846
aS'+'
aI15555161
asS'Micalcl'
p3794
(lp3795
I112368307
aI112413104
aS'+'
aI112380293
asS'4933402N03Rik'
p3796
(lp3797
I131138346
aI131146283
aS'-'
aI131138495
asS'Kcnj11'
p3798
(lp3799
I46097125
aI46100867
aS'-'
aI46098724
asS'Gm15774'
p3800
(lp3801
I120871390
aI120880298
aS'-'
aI120880298
asS'Kcnj14'
p3802
(lp3803
I45816466
aI45824747
aS'-'
aI45817615
asS'Gm33697'
p3804
(lp3805
I139543099
aI139551497
aS'-'
aI139551497
asS'Uevld'
p3806
(lp3807
I46923215
aI46958518
aS'-'
aI46926320
asS'Zscan18'
p3808
(lp3809
I12768089
aI12810890
aS'-'
aI12769200
asS'Crtc3'
p3810
(lp3811
I80586626
aI80688942
aS'-'
aI80589742
asS'Gm32903'
p3812
(lp3813
I82236195
aI82254657
aS'-'
aI82254657
asS'Gm32902'
p3814
(lp3815
I64057289
aI64057807
aS'-'
aI64057807
asS'Eps8l1'
p3816
(lp3817
I4460630
aI4480481
aS'+'
aI4480481
asS'Eps8l2'
p3818
(lp3819
I141338910
aI141363020
aS'+'
aI141363020
asS'Htra1'
p3820
(lp3821
I130936202
aI130985658
aS'+'
aI130936271
asS'Ptpn5'
p3822
(lp3823
I47077794
aI47133697
aS'-'
aI47078824
asS'Prss36'
p3824
(lp3825
I127932637
aI127946725
aS'-'
aI127932829
asS'Rras2'
p3826
(lp3827
I114046781
aI114117781
aS'-'
aI114048163
asS'Dnajc19-ps'
p3828
(lp3829
I103882572
aI103883104
aS'-'
aI103882653
asS'Ap2a2'
p3830
(lp3831
I141562179
aI141633011
aS'+'
aI141562359
asS'Gm16158'
p3832
(lp3833
I68351383
aI68353581
aS'-'
aI68353581
asS'Gm35724'
p3834
(lp3835
I35128896
aI35142427
aS'+'
aI35142427
asS'Il4ra'
p3836
(lp3837
I125552281
aI125579474
aS'+'
aI125565654
asS'Gm5593'
p3838
(lp3839
I42105768
aI42107302
aS'-'
aI42107302
asS'Gm5592'
p3840
(lp3841
I41284326
aI41290183
aS'+'
aI41284471
asS'Gm5591'
p3842
(lp3843
I38518138
aI38528193
aS'-'
aI38518879
asS'Gm5590'
p3844
(lp3845
I39444978
aI39450137
aS'-'
aI39450137
asS'Gm5595'
p3846
(lp3847
I42660107
aI42692718
aS'-'
aI42661609
asS'Pcf11'
p3848
(lp3849
I92643709
aI92670051
aS'-'
aI92644561
asS'Scaf1'
p3850
(lp3851
I45002947
aI45016359
aS'-'
aI45003179
asS'Lsr'
p3852
(lp3853
I30957769
aI30973469
aS'-'
aI30957865
asS'B430319F04Rik'
p3854
(lp3855
I110765766
aI110769588
aS'-'
aI110769588
asS'Lypd4'
p3856
(lp3857
I24864618
aI24869780
aS'-'
aI24864690
asS'Abhd17c'
p3858
(lp3859
I84109355
aI84151893
aS'-'
aI84110581
asS'Lypd3'
p3860
(lp3861
I24636569
aI24641118
aS'+'
aI24636589
asS'Tollip'
p3862
(lp3863
I141881581
aI141902411
aS'-'
aI141884366
asS'Lysmd4'
p3864
(lp3865
I67222543
aI67228468
aS'+'
aI67223618
asS'Ilk'
p3866
(lp3867
I105736589
aI105742925
aS'+'
aI105737148
asS'Gm33398'
p3868
(lp3869
I129763932
aI129764651
aS'-'
aI129764651
asS'Olfr691'
p3870
(lp3871
I105336745
aI105337714
aS'-'
aI105336745
asS'Dcun1d3'
p3872
(lp3873
I119853162
aI119896169
aS'-'
aI119857572
asS'Olfr690'
p3874
(lp3875
I105329216
aI105330278
aS'-'
aI105329242
asS'Mcee'
p3876
(lp3877
I64392611
aI64412121
aS'+'
aI64392797
asS'Mir7668'
p3878
(lp3879
I29906508
aI29906567
aS'+'
aI29906567
asS'Dnhd1'
p3880
(lp3881
I105650812
aI105721800
aS'+'
aI105651207
asS'Gm31213'
p3882
(lp3883
I78938945
aI78954525
aS'-'
aI78954525
asS'Dpy19l3'
p3884
(lp3885
I35685499
aI35754454
aS'-'
aI35690780
asS'Olfr695'
p3886
(lp3887
I106713731
aI106716345
aS'-'
aI106713731
asS'Vkorc1'
p3888
(lp3889
I127893062
aI127895617
aS'-'
aI127893288
asS'Olfr694'
p3890
(lp3891
I106688781
aI106691307
aS'-'
aI106688781
asS'Kcnn4'
p3892
(lp3893
I24369824
aI24385212
aS'+'
aI24385212
asS'D7Ertd443e'
p3894
(lp3895
I134266273
aI134520134
aS'-'
aI134266612
asS'Mrps12'
p3896
(lp3897
I28739640
aI28741899
aS'-'
aI28739868
asS'Mrps11'
p3898
(lp3899
I78783130
aI78792988
aS'+'
aI78783358
asS'Mir7234'
p3900
(lp3901
I73819589
aI73819641
aS'+'
aI73819641
asS'Gm4177'
p3902
(lp3903
I21795810
aI21796728
aS'-'
aI21795810
asS'Gm4175'
p3904
(lp3905
I21760530
aI21761475
aS'-'
aI21760530
asS'Pde8a'
p3906
(lp3907
I81213803
aI81333622
aS'+'
aI81213914
asS'Scgb2b17'
p3908
(lp3909
I33054581
aI33056552
aS'-'
aI33054744
asS'Gm38955'
p3910
(lp3911
I19715622
aI19720152
aS'+'
aI19720152
asS'Scgb2b12'
p3912
(lp3913
I32325285
aI32327245
aS'-'
aI32325441
asS'Scgb2b10'
p3914
(lp3915
I32091995
aI32093939
aS'-'
aI32092144
asS'Scgb2b11'
p3916
(lp3917
I32209172
aI32211142
aS'-'
aI32209334
asS'Mir344h-2'
p3918
(lp3919
I61742365
aI61742425
aS'-'
aI61742425
asS'Mir344h-1'
p3920
(lp3921
I61739349
aI61739409
aS'-'
aI61739409
asS'Anks4b'
p3922
(lp3923
I120173857
aI120183716
aS'+'
aI120173918
asS'Gm21115'
p3924
(lp3925
I38446453
aI38452548
aS'-'
aI38446620
asS'Scgb2b18'
p3926
(lp3927
I33171891
aI33173861
aS'-'
aI33172053
asS'Scgb2b19'
p3928
(lp3929
I33278365
aI33280341
aS'-'
aI33278531
asS'Sec1'
p3930
(lp3931
I45677685
aI45694402
aS'-'
aI45678451
asS'LOC108167444'
p3932
(lp3933
I82945389
aI82951317
aS'+'
aI82951317
asS'Opa3'
p3934
(lp3935
I19228388
aI19246817
aS'+'
aI19228442
asS'LOC108167443'
p3936
(lp3937
I81610125
aI81613479
aS'+'
aI81613479
asS'LOC108167442'
p3938
(lp3939
I81501302
aI81505185
aS'+'
aI81505185
asS'Olfr243'
p3940
(lp3941
I103716595
aI103717546
aS'+'
aI103716595
asS'Ctsc'
p3942
(lp3943
I88278084
aI88315861
aS'+'
aI88278202
asS'Ctsd'
p3944
(lp3945
I142375915
aI142387870
aS'-'
aI142376570
asS'Scnn1g'
p3946
(lp3947
I121734420
aI121768477
aS'+'
aI121740420
asS'AI987944'
p3948
(lp3949
I41372929
aI41393379
aS'-'
aI41374341
asS'Scnn1b'
p3950
(lp3951
I121865037
aI121918728
aS'+'
aI121899238
asS'Gm36809'
p3952
(lp3953
I24953523
aI24954476
aS'-'
aI24954476
asS'BC017158'
p3954
(lp3955
I128271378
aI128298131
aS'-'
aI128272517
asS'Prrt2'
p3956
(lp3957
I127017541
aI127021211
aS'-'
aI127018719
asS'Fan1'
p3958
(lp3959
I64345976
aI64374136
aS'-'
aI64346757
asS'Snord64'
p3960
(lp3961
I59978810
aI59978856
aS'-'
aI59978856
asS'Vmn1r185'
p3962
(lp3963
I26611118
aI26612078
aS'-'
aI26611118
asS'Vmn1r184'
p3964
(lp3965
I26266830
aI26267775
aS'+'
aI26266830
asS'Vmn1r183'
p3966
(lp3967
I24054773
aI24055691
aS'+'
aI24054773
asS'Vmn1r181'
p3968
(lp3969
I23983960
aI23985048
aS'+'
aI23984111
asS'Vmn1r180'
p3970
(lp3971
I23952386
aI23953356
aS'+'
aI23952413
asS'Gabra5'
p3972
(lp3973
I57407671
aI57510101
aS'-'
aI57408606
asS'Gm36371'
p3974
(lp3975
I6157218
aI6163584
aS'+'
aI6163584
asS'Mrvi1'
p3976
(lp3977
I110868269
aI110982909
aS'-'
aI110871358
asS'Zfp110'
p3978
(lp3979
I12834809
aI12850584
aS'+'
aI12835482
asS'Zfp111'
p3980
(lp3981
I24193214
aI24208149
aS'-'
aI24198081
asS'Zfp112'
p3982
(lp3983
I24111897
aI24127829
aS'+'
aI24112375
asS'Umod'
p3984
(lp3985
I119462707
aI119479262
aS'-'
aI119463216
asS'Zfp114'
p3986
(lp3987
I24175020
aI24183170
aS'+'
aI24177842
asS'Peg3os'
p3988
(lp3989
I6706759
aI6707624
aS'+'
aI6707624
asS'Trim68'
p3990
(lp3991
I102677578
aI102687329
aS'-'
aI102678286
asS'Gm4224'
p3992
(lp3993
I12221315
aI12225807
aS'+'
aI12225807
asS'Smpd1'
p3994
(lp3995
I105554359
aI105558389
aS'+'
aI105554531
asS'Gm4553'
p3996
(lp3997
I142163027
aI142167022
aS'-'
aI142164834
asS'BC049730'
p3998
(lp3999
I24709214
aI24714535
aS'+'
aI24710157
asS'Nudt19'
p4000
(lp4001
I35547189
aI35556304
aS'-'
aI35556304
asS'Gm4559'
p4002
(lp4003
I142273763
aI142274363
aS'-'
aI142273763
asS'Trim66'
p4004
(lp4005
I109449000
aI109516762
aS'-'
aI109453974
asS'Arfip2'
p4006
(lp4007
I105634200
aI105640416
aS'-'
aI105636237
asS'Idh2'
p4008
(lp4009
I80094845
aI80115350
aS'-'
aI80095115
asS'Atp1a3'
p4010
(lp4011
I24978166
aI25005937
aS'-'
aI24978547
asS'Napa'
p4012
(lp4013
I16098642
aI16117975
aS'+'
aI16098676
asS'Snord15b'
p4014
(lp4015
I99479562
aI99479707
aS'-'
aI99479707
asS'Snrpa'
p4016
(lp4017
I27187005
aI27196271
aS'-'
aI27187204
asS'Mylpf'
p4018
(lp4019
I127208847
aI127214288
aS'+'
aI127212917
asS'Cyp2a12'
p4020
(lp4021
I27029089
aI27036818
aS'+'
aI27029105
asS'Usp31'
p4022
(lp4023
I121642020
aI121707253
aS'-'
aI121648183
asS'Nsmce1'
p4024
(lp4025
I125467643
aI125491575
aS'-'
aI125467763
asS'Vmn1r69'
p4026
(lp4027
I10579755
aI10581487
aS'-'
aI10579842
asS'Vmn1r68'
p4028
(lp4029
I10527209
aI10528169
aS'-'
aI10527209
asS'Vmn1r67'
p4030
(lp4031
I10446788
aI10447787
aS'+'
aI10446810
asS'Vmn1r66'
p4032
(lp4033
I10273827
aI10275351
aS'-'
aI10274171
asS'Vmn1r65'
p4034
(lp4035
I6007749
aI6011010
aS'-'
aI6008234
asS'Vmn1r64'
p4036
(lp4037
I5883579
aI5884542
aS'-'
aI5883579
asS'Vmn1r63'
p4038
(lp4039
I5802728
aI5826229
aS'-'
aI5802728
asS'Gm6518'
p4040
(lp4041
I28477277
aI28479875
aS'-'
aI28477323
asS'Vmn1r61'
p4042
(lp4043
I5610410
aI5611313
aS'-'
aI5610410
asS'Vmn1r60'
p4044
(lp4045
I5544196
aI5545099
aS'-'
aI5544196
asS'LOC108167454'
p4046
(lp4047
I105762743
aI105779417
aS'+'
aI105779417
asS'LOC108167455'
p4048
(lp4049
I109143661
aI109152563
aS'+'
aI109152563
asS'LOC108167456'
p4050
(lp4051
I112459571
aI112465909
aS'+'
aI112465909
asS'LOC108167457'
p4052
(lp4053
I115392183
aI115398303
aS'-'
aI115398303
asS'LOC108167450'
p4054
(lp4055
I101253494
aI101259603
aS'-'
aI101259603
asS'Snurf'
p4056
(lp4057
I59982500
aI60005156
aS'-'
aI59995448
asS'LOC108167452'
p4058
(lp4059
I102470455
aI102476684
aS'+'
aI102476684
asS'LOC108167453'
p4060
(lp4061
I104356156
aI104362694
aS'+'
aI104362694
asS'Kctd13'
p4062
(lp4063
I126928843
aI126947897
aS'+'
aI126929054
asS'LOC108167458'
p4064
(lp4065
I116281504
aI116291478
aS'-'
aI116291478
asS'LOC108167459'
p4066
(lp4067
I125316660
aI125323685
aS'-'
aI125323685
asS'Scgb1b3'
p4068
(lp4069
I31375591
aI31376916
aS'+'
aI31375607
asS'Scgb1b2'
p4070
(lp4071
I31290518
aI31291816
aS'-'
aI31290639
asS'Ceacam3'
p4072
(lp4073
I17150197
aI17163754
aS'+'
aI17150399
asS'Ceacam2'
p4074
(lp4075
I25516041
aI25540004
aS'-'
aI25518065
asS'Scgb1b7'
p4076
(lp4077
I31712664
aI31713980
aS'+'
aI31712681
asS'Dkkl1'
p4078
(lp4079
I45207524
aI45212604
aS'-'
aI45207589
asS'Ceacam9'
p4080
(lp4081
I16721928
aI16726110
aS'+'
aI16721969
asS'Bnc1'
p4082
(lp4083
I81966661
aI81992299
aS'-'
aI81968342
asS'LOC102635992'
p4084
(lp4085
I32100868
aI32102050
aS'+'
aI32100868
asS'Gm14377'
p4086
(lp4087
I47108714
aI47112714
aS'+'
aI47112714
asS'Gm28258'
p4088
(lp4089
I70372022
aI70379741
aS'-'
aI70379741
asS'Gm38451'
p4090
(lp4091
I61090433
aI61161581
aS'-'
aI61161581
asS'Alkbh6'
p4092
(lp4093
I30308752
aI30314303
aS'+'
aI30309505
asS'Sv2b'
p4094
(lp4095
I75114893
aI75309262
aS'-'
aI75117594
asS'Nucb1'
p4096
(lp4097
I45492673
aI45510408
aS'-'
aI45493836
asS'Nucb2'
p4098
(lp4099
I116504354
aI116540588
aS'+'
aI116521836
asS'Gm4881'
p4100
(lp4101
I24926955
aI24944496
aS'-'
aI24927444
asS'Gm4887'
p4102
(lp4103
I104821145
aI104822276
aS'+'
aI104821203
asS'Gm4884'
p4104
(lp4105
I41032718
aI41045302
aS'+'
aI41032876
asS'Gm32694'
p4106
(lp4107
I49561797
aI49563691
aS'+'
aI49563691
asS'B9d2'
p4108
(lp4109
I25679670
aI25686562
aS'+'
aI25681386
asS'Pik3c2a'
p4110
(lp4111
I116337264
aI116443599
aS'-'
aI116340040
asS'Zkscan2'
p4112
(lp4113
I123478630
aI123500449
aS'-'
aI123479849
asS'Zbtb45'
p4114
(lp4115
I13005665
aI13010168
aS'-'
aI13006123
asS'9130208D14Rik'
p4116
(lp4117
I105823256
aI105856011
aS'-'
aI105856011
asS'Mob2'
p4118
(lp4119
I142008534
aI142061073
aS'-'
aI142009542
asS'Ceacam1'
p4120
(lp4121
I25461701
aI25477625
aS'-'
aI25463780
asS'Phlda2'
p4122
(lp4123
I143501544
aI143503145
aS'-'
aI143501815
asS'Gm30501'
p4124
(lp4125
I125210420
aI125216918
aS'+'
aI125216918
asS'4933427G17Rik'
p4126
(lp4127
I120982440
aI121014787
aS'+'
aI120988985
asS'Gm15448'
p4128
(lp4129
I3816761
aI3825942
aS'-'
aI3816867
asS'Ptov1'
p4130
(lp4131
I44863066
aI44870485
aS'-'
aI44870485
asS'Nupr1'
p4132
(lp4133
I126623245
aI126625470
aS'-'
aI126624902
asS'Mrgprd'
p4134
(lp4135
I145314834
aI145324059
aS'+'
aI145321393
asS'Mrgpre'
p4136
(lp4137
I143778362
aI143784500
aS'-'
aI143780831
asS'LOC101056115'
p4138
(lp4139
I42705036
aI42715367
aS'-'
aI42708011
asS'Mrgprg'
p4140
(lp4141
I143763709
aI143766993
aS'-'
aI143764503
asS'Mrgprb8'
p4142
(lp4143
I48388525
aI48389648
aS'+'
aI48388582
asS'Ppp2r2d'
p4144
(lp4145
I138846383
aI138883057
aS'+'
aI138872891
asS'Prr33'
p4146
(lp4147
I142491079
aI142506771
aS'-'
aI142506771
asS'Eef2k'
p4148
(lp4149
I120842828
aI120907217
aS'+'
aI120858419
asS'Dpf1'
p4150
(lp4151
I29303958
aI29317592
aS'+'
aI29303963
asS'Gm5115'
p4152
(lp4153
I99929645
aI99932287
aS'-'
aI99932287
asS'Gm38997'
p4154
(lp4155
I41010785
aI41032587
aS'-'
aI41032587
asS'Ap3s2'
p4156
(lp4157
I79875324
aI79920640
aS'-'
aI79880483
asS'P4ha3'
p4158
(lp4159
I100285519
aI100319699
aS'+'
aI100285532
asS'Mogat2'
p4160
(lp4161
I99219083
aI99238611
aS'-'
aI99219804
asS'Tnni3'
p4162
(lp4163
I4518304
aI4522718
aS'-'
aI4518367
asS'Gdpd4'
p4164
(lp4165
I97919957
aI98049663
aS'+'
aI97957820
asS'Gdpd5'
p4166
(lp4167
I99381414
aI99460984
aS'+'
aI99441187
asS'Gm31740'
p4168
(lp4169
I79542836
aI79550625
aS'-'
aI79550625
asS'Gm33515'
p4170
(lp4171
I66428646
aI66430494
aS'+'
aI66430494
asS'Sergef'
p4172
(lp4173
I46443158
aI46639807
aS'-'
aI46443188
asS'Vmn2r39'
p4174
(lp4175
I9014749
aI9030682
aS'-'
aI9014749
asS'Vmn2r38'
p4176
(lp4177
I9074795
aI9097765
aS'-'
aI9074795
asS'Cd163l1'
p4178
(lp4179
I140197217
aI140231139
aS'+'
aI140220462
asS'Gm33770'
p4180
(lp4181
I98830657
aI98836055
aS'-'
aI98836055
asS'Vmn2r31'
p4182
(lp4183
I7383984
aI7399627
aS'-'
aI7383984
asS'Vmn2r30'
p4184
(lp4185
I7312068
aI7337493
aS'-'
aI7312273
asS'Vmn2r33'
p4186
(lp4187
I7550966
aI7566786
aS'-'
aI7550966
asS'Vmn2r32'
p4188
(lp4189
I7463968
aI7479973
aS'-'
aI7463968
asS'Vmn2r35'
p4190
(lp4191
I7786150
aI7819867
aS'-'
aI7786150
asS'Vmn2r34'
p4192
(lp4193
I7671828
aI7689398
aS'-'
aI7671828
asS'Vmn2r37'
p4194
(lp4195
I9205548
aI9223653
aS'-'
aI9206102
asS'Vmn2r36'
p4196
(lp4197
I7876652
aI7902462
aS'-'
aI7876652
asS'Gm35209'
p4198
(lp4199
I69799122
aI69801739
aS'-'
aI69801739
asS'Egln2'
p4200
(lp4201
I27158657
aI27166802
aS'-'
aI27159155
asS'Gm15133'
p4202
(lp4203
I104315030
aI104324838
aS'+'
aI104324838
asS'Upk1a'
p4204
(lp4205
I30603091
aI30612734
aS'-'
aI30603597
asS'Rsf1'
p4206
(lp4207
I97579895
aI97692782
aS'+'
aI97579903
asS'Mir3569'
p4208
(lp4209
I30589379
aI30589437
aS'+'
aI30589437
asS'Grwd1'
p4210
(lp4211
I45825225
aI45830808
aS'-'
aI45825775
asS'Eif3k'
p4212
(lp4213
I28971371
aI28981888
aS'-'
aI28971406
asS'Th'
p4214
(lp4215
I142892775
aI142899966
aS'-'
aI142893030
asS'Gm39096'
p4216
(lp4217
I130086542
aI130094907
aS'-'
aI130094907
asS'Gm3912'
p4218
(lp4219
I7359870
aI7374624
aS'-'
aI7374624
asS'Tarsl2'
p4220
(lp4221
I65644897
aI65692093
aS'+'
aI65644944
asS'Ifitm1'
p4222
(lp4223
I140967428
aI140969827
aS'+'
aI140968255
asS'Map4k1'
p4224
(lp4225
I28982049
aI29003279
aS'+'
aI28983253
asS'LOC102637615'
p4226
(lp4227
I33063464
aI33064646
aS'+'
aI33063464
asS'Cfap161'
p4228
(lp4229
I83775611
aI83798025
aS'-'
aI83775969
asS'Maz'
p4230
(lp4231
I127021449
aI127026553
aS'-'
aI127021454
asS'Usp17lc'
p4232
(lp4233
I103416695
aI103419174
aS'+'
aI103416717
asS'Usp17lb'
p4234
(lp4235
I104840256
aI104842597
aS'-'
aI104840311
asS'Usp17la'
p4236
(lp4237
I104857015
aI104862667
aS'+'
aI104859392
asS'Gm16938'
p4238
(lp4239
I98177193
aI98184804
aS'+'
aI98184804
asS'Mag'
p4240
(lp4241
I30899174
aI30914921
aS'-'
aI30899530
asS'Usp17ld'
p4242
(lp4243
I103250085
aI103252505
aS'-'
aI103250085
asS'Gm39097'
p4244
(lp4245
I130334876
aI130337404
aS'+'
aI130337404
asS'Gm38525'
p4246
(lp4247
I104355395
aI104369881
aS'-'
aI104356849
asS'Cldnd2'
p4248
(lp4249
I43439191
aI43443480
aS'+'
aI43441645
asS'2310022A10Rik'
p4250
(lp4251
I27553259
aI27582099
aS'+'
aI27582099
asS'Srcap'
p4252
(lp4253
I127511982
aI127561219
aS'+'
aI127516147
asS'Cebpg'
p4254
(lp4255
I35046421
aI35056566
aS'-'
aI35050383
asS'Snora23'
p4256
(lp4257
I110046363
aI110046547
aS'+'
aI110046547
asS'Zfp819'
p4258
(lp4259
I43606899
aI43619095
aS'+'
aI43612575
asS'Gm32647'
p4260
(lp4261
I94042495
aI95326426
aS'+'
aI95326426
asS'Grik5'
p4262
(lp4263
I25009848
aI25072369
aS'-'
aI25010368
asS'Gm32315'
p4264
(lp4265
I139232969
aI139235003
aS'-'
aI139235003
asS'Gm33661'
p4266
(lp4267
I130326070
aI130340759
aS'-'
aI130340759
asS'4833412C05Rik'
p4268
(lp4269
I67784537
aI67803496
aS'-'
aI67803496
asS'Mir1839'
p4270
(lp4271
I81529915
aI81529988
aS'+'
aI81529988
asS'Cyp2b10'
p4272
(lp4273
I25897657
aI25926624
aS'+'
aI25897684
asS'Rbm42'
p4274
(lp4275
I30640994
aI30650228
aS'-'
aI30641107
asS'Cyb5r2'
p4276
(lp4277
I107748445
aI107758199
aS'-'
aI107748651
asS'Anapc15'
p4278
(lp4279
I101881299
aI101901849
aS'+'
aI101897794
asS'Scgb2b6'
p4280
(lp4281
I31617737
aI31619526
aS'-'
aI31617737
asS'Scgb2b7'
p4282
(lp4283
I31703778
aI31705754
aS'-'
aI31703940
asS'Scgb2b1'
p4284
(lp4285
I31263735
aI31265935
aS'+'
aI31263756
asS'Scgb2b2'
p4286
(lp4287
I31302768
aI31304977
aS'+'
aI31302781
asS'Scgb2b3'
p4288
(lp4289
I31359037
aI31362072
aS'-'
aI31359037
asS'Prss8'
p4290
(lp4291
I127925716
aI127930113
aS'-'
aI127926325
asS'Gm6818'
p4292
(lp4293
I38398168
aI38408045
aS'-'
aI38399008
asS'Fbl'
p4294
(lp4295
I28169747
aI28179269
aS'+'
aI28169808
asS'1700049G17Rik'
p4296
(lp4297
I27907391
aI27929430
aS'-'
aI27910039
asS'Gm17757'
p4298
(lp4299
I105924343
aI105928691
aS'-'
aI105928691
asS'Far1os'
p4300
(lp4301
I113538025
aI113564987
aS'-'
aI113564987
asS'Olfml1'
p4302
(lp4303
I107567432
aI107591365
aS'+'
aI107567765
asS'Adck4'
p4304
(lp4305
I27228606
aI27257946
aS'+'
aI27233467
asS'Gm36011'
p4306
(lp4307
I71088426
aI71116539
aS'-'
aI71116539
asS'Rnf40'
p4308
(lp4309
I127588697
aI127603605
aS'+'
aI127588996
asS'Foxa3'
p4310
(lp4311
I19013282
aI19023539
aS'-'
aI19014137
asS'Fbxo27'
p4312
(lp4313
I28692786
aI28699338
aS'+'
aI28692800
asS'Clasrp'
p4314
(lp4315
I19581037
aI19604517
aS'-'
aI19581115
asS'Otud7a'
p4316
(lp4317
I63444744
aI63766232
aS'+'
aI63650814
asS'Zfp574'
p4318
(lp4319
I25075678
aI25082481
aS'+'
aI25079554
asS'Zfp575'
p4320
(lp4321
I24583837
aI24587641
aS'-'
aI24585494
asS'Gm35597'
p4322
(lp4323
I101870859
aI101879577
aS'+'
aI101879577
asS'Gm4763'
p4324
(lp4325
I24714590
aI24726934
aS'-'
aI24715170
asS'Usp47'
p4326
(lp4327
I112023482
aI112111384
aS'+'
aI112023707
asS'Nanos2'
p4328
(lp4329
I18987523
aI18988962
aS'+'
aI18987604
asS'Zfp579'
p4330
(lp4331
I4992851
aI4996101
aS'-'
aI4993221
asS'Gtf3c1'
p4332
(lp4333
I125640953
aI125707688
aS'-'
aI125641505
asS'5830403F22Rik'
p4334
(lp4335
I134184894
aI134194886
aS'-'
aI134194886
asS'Gdpgp1'
p4336
(lp4337
I80232892
aI80241420
aS'+'
aI80238222
asS'Coq7'
p4338
(lp4339
I118509658
aI118533356
aS'-'
aI118509809
asS'Gm32486'
p4340
(lp4341
I139271265
aI139297077
aS'-'
aI139297077
asS'Gm32263'
p4342
(lp4343
I48755140
aI48768324
aS'-'
aI48768324
asS'Psg-ps1'
p4344
(lp4345
I17672312
aI17682060
aS'+'
aI17682060
asS'Gm10575'
p4346
(lp4347
I141461480
aI141467783
aS'-'
aI141467783
asS'Gm36356'
p4348
(lp4349
I135485831
aI135492305
aS'+'
aI135492305
asS'Gm10578'
p4350
(lp4351
I137234682
aI137242609
aS'+'
aI137242609
asS'Gys1'
p4352
(lp4353
I45434838
aI45456617
aS'+'
aI45435052
asS'Ap3b2'
p4354
(lp4355
I81460398
aI81494037
aS'-'
aI81460650
asS'R74862'
p4356
(lp4357
I143021783
aI143053686
aS'-'
aI143053686
asS'Trpm4'
p4358
(lp4359
I45303346
aI45334069
aS'-'
aI45334069
asS'Trpm5'
p4360
(lp4361
I143071528
aI143094642
aS'-'
aI143072347
asS'Dhx32'
p4362
(lp4363
I133720934
aI133782785
aS'-'
aI133721227
asS'Gm33990'
p4364
(lp4365
I53630797
aI53660791
aS'-'
aI53660791
asS'Dhx34'
p4366
(lp4367
I16197219
aI16222079
aS'-'
aI16222079
asS'Trpm1'
p4368
(lp4369
I64153834
aI64269772
aS'+'
aI64154031
asS'Gm20501'
p4370
(lp4371
I141943703
aI141949712
aS'-'
aI141949712
asS'Fcgrt'
p4372
(lp4373
I45092991
aI45103846
aS'-'
aI45093245
asS'1700010N08Rik'
p4374
(lp4375
I38276878
aI38443057
aS'+'
aI38443057
asS'Kcnq1'
p4376
(lp4377
I143106741
aI143427050
aS'+'
aI143106891
asS'Spn'
p4378
(lp4379
I127123632
aI127144614
aS'-'
aI127144614
asS'Sipa1l3'
p4380
(lp4381
I29320371
aI29519065
aS'-'
aI29322143
asS'Thrsp'
p4382
(lp4383
I97412932
aI97417550
aS'-'
aI97417050
asS'D430042O09Rik'
p4384
(lp4385
I125707856
aI125874793
aS'+'
aI125752987
asS'Tssc4'
p4386
(lp4387
I143068091
aI143071093
aS'+'
aI143069634
asS'Gm33190'
p4388
(lp4389
I51496798
aI51570320
aS'-'
aI51570320
asS'Mir7060'
p4390
(lp4391
I127489250
aI127489387
aS'+'
aI127489387
asS'Gm36340'
p4392
(lp4393
I36153771
aI36158013
aS'+'
aI36158013
asS'Mir7062'
p4394
(lp4395
I139986808
aI139986874
aS'-'
aI139986874
asS'Mir7063'
p4396
(lp4397
I141620700
aI141620791
aS'+'
aI141620791
asS'LOC102633596'
p4398
(lp4399
I12792586
aI12803660
aS'-'
aI12803660
asS'BC048679'
p4400
(lp4401
I81494271
aI81498367
aS'-'
aI81494345
asS'Blm'
p4402
(lp4403
I80454992
aI80535119
aS'-'
aI80455258
asS'C5ar1'
p4404
(lp4405
I16246742
aI16259540
aS'-'
aI16248037
asS'Knop1'
p4406
(lp4407
I118842216
aI118855998
aS'-'
aI118845782
asS'Gabrb3'
p4408
(lp4409
I57590517
aI57828802
aS'+'
aI57590568
asS'Zfp109'
p4410
(lp4411
I24227794
aI24237598
aS'-'
aI24228047
asS'Zfp108'
p4412
(lp4413
I24254732
aI24262445
aS'+'
aI24255875
asS'Pdcd2l'
p4414
(lp4415
I34184496
aI34196647
aS'-'
aI34184680
asS'Olfr589'
p4416
(lp4417
I103154791
aI103155745
aS'-'
aI103154791
asS'Gm39009'
p4418
(lp4419
I45765352
aI45775793
aS'+'
aI45775793
asS'Olfr585'
p4420
(lp4421
I103097742
aI103098699
aS'+'
aI103097742
asS'Olfr584'
p4422
(lp4423
I103085519
aI103086479
aS'+'
aI103085519
asS'Olfr586'
p4424
(lp4425
I103121828
aI103122782
aS'-'
aI103121828
asS'Olfr583'
p4426
(lp4427
I103051299
aI103052259
aS'+'
aI103051299
asS'Slc6a16'
p4428
(lp4429
I45240752
aI45273365
aS'+'
aI45257531
asS'Cd81'
p4430
(lp4431
I143052749
aI143067930
aS'+'
aI143053000
asS'Tarm1'
p4432
(lp4433
I3486498
aI3502643
aS'-'
aI3487011
asS'Gm21123'
p4434
(lp4435
I110690162
aI110699732
aS'-'
aI110699732
asS'4931431F19Rik'
p4436
(lp4437
I104127912
aI104129823
aS'-'
aI104128082
asS'Serpinh1'
p4438
(lp4439
I99345374
aI99353239
aS'-'
aI99346119
asS'Gm21129'
p4440
(lp4441
I38816063
aI38826161
aS'-'
aI38816996
asS'Gm29735'
p4442
(lp4443
I142154801
aI142158190
aS'-'
aI142156453
asS'Olfr566'
p4444
(lp4445
I102856320
aI102857271
aS'-'
aI102856320
asS'Olfr564'
p4446
(lp4447
I102803479
aI102804430
aS'+'
aI102803479
asS'Olfr561'
p4448
(lp4449
I102774525
aI102775470
aS'+'
aI102774525
asS'Olfr560'
p4450
(lp4451
I102752982
aI102753927
aS'-'
aI102752982
asS'Olfr569'
p4452
(lp4453
I102887206
aI102895672
aS'-'
aI102887206
asS'Gm39002'
p4454
(lp4455
I44420589
aI44431931
aS'-'
aI44420825
asS'Gm36584'
p4456
(lp4457
I82831387
aI82867021
aS'-'
aI82867021
asS'Mir290b'
p4458
(lp4459
I3218637
aI3218695
aS'-'
aI3218695
asS'Ppfia3'
p4460
(lp4461
I45339125
aI45367019
aS'-'
aI45340201
asS'Lipe'
p4462
(lp4463
I25379644
aI25398486
aS'-'
aI25379960
asS'Pmis2'
p4464
(lp4465
I30670721
aI30671605
aS'-'
aI30671605
asS'Olfr699'
p4466
(lp4467
I106790048
aI106790999
aS'-'
aI106790048
asS'Olfr698'
p4468
(lp4469
I106752450
aI106753386
aS'-'
aI106752450
asS'Vmn1r78'
p4470
(lp4471
I12152463
aI12153405
aS'+'
aI12152463
asS'Vmn1r79'
p4472
(lp4473
I12176192
aI12177113
aS'+'
aI12176192
asS'Vmn1r74'
p4474
(lp4475
I11846774
aI11847689
aS'+'
aI11846774
asS'Vmn1r75'
p4476
(lp4477
I11880342
aI11881260
aS'+'
aI11880342
asS'Vmn1r76'
p4478
(lp4479
I11930310
aI11931285
aS'-'
aI11930310
asS'Vmn1r77'
p4480
(lp4481
I12036845
aI12042219
aS'+'
aI12041298
asS'Vmn1r70'
p4482
(lp4483
I10633586
aI10634483
aS'+'
aI10633586
asS'Vmn1r71'
p4484
(lp4485
I10747501
aI10749538
aS'-'
aI10747835
asS'Vmn1r72'
p4486
(lp4487
I11669598
aI11679317
aS'-'
aI11669598
asS'Kptn'
p4488
(lp4489
I16119875
aI16127516
aS'+'
aI16119958
asS'LOC108167447'
p4490
(lp4491
I98366992
aI98415615
aS'-'
aI98415615
asS'LOC108167446'
p4492
(lp4493
I90043431
aI90047523
aS'-'
aI90047523
asS'LOC108167445'
p4494
(lp4495
I89510876
aI89511868
aS'+'
aI89511868
asS'Gm23450'
p4496
(lp4497
I3415065
aI3415156
aS'+'
aI3415156
asS'Chst15'
p4498
(lp4499
I132235778
aI132323534
aS'-'
aI132238273
asS'Ntf5'
p4500
(lp4501
I45413694
aI45417179
aS'+'
aI45415445
asS'LOC108167441'
p4502
(lp4503
I81209727
aI81210787
aS'+'
aI81210787
asS'LOC108167440'
p4504
(lp4505
I75769037
aI75782161
aS'-'
aI75782161
asS'Oraov1'
p4506
(lp4507
I144915102
aI144931146
aS'+'
aI144915237
asS'LOC108167448'
p4508
(lp4509
I100189260
aI100192666
aS'-'
aI100192666
asS'Scgb1c1'
p4510
(lp4511
I140845564
aI140846769
aS'+'
aI140845576
asS'Bccip'
p4512
(lp4513
I133709332
aI133721145
aS'+'
aI133709357
asS'Gm2128'
p4514
(lp4515
I41153663
aI41159287
aS'+'
aI41153869
asS'Tufm'
p4516
(lp4517
I126487353
aI126490731
aS'+'
aI126487447
asS'Tjp1'
p4518
(lp4519
I65296164
aI65527808
aS'-'
aI65297572
asS'Bloc1s3'
p4520
(lp4521
I19505782
aI19508358
aS'-'
aI19507013
asS'Cdr2'
p4522
(lp4523
I120957035
aI120982312
aS'-'
aI120957932
asS'Kcnq1ot1'
p4524
(lp4525
I143213110
aI143296547
aS'-'
aI143296547
asS'Nadsyn1'
p4526
(lp4527
I143795588
aI143822853
aS'-'
aI143795948
asS'Tmem150b'
p4528
(lp4529
I4706831
aI4725251
aS'-'
aI4709007
asS'Pagr1a'
p4530
(lp4531
I127015050
aI127017352
aS'-'
aI127015269
asS'2310016G11Rik'
p4532
(lp4533
I44668150
aI44677918
aS'+'
aI44677918
asS'Psg16'
p4534
(lp4535
I17074039
aI17133450
aS'+'
aI17090565
asS'Psg17'
p4536
(lp4537
I18813936
aI18821591
aS'-'
aI18814416
asS'Ypel3'
p4538
(lp4539
I126776974
aI126780514
aS'+'
aI126777836
asS'Eif3c'
p4540
(lp4541
I126546910
aI126566366
aS'-'
aI126546997
asS'Psg18'
p4542
(lp4543
I18345743
aI18355039
aS'-'
aI18345843
asS'Psg19'
p4544
(lp4545
I18789124
aI18798510
aS'-'
aI18790050
asS'Eif3f'
p4546
(lp4547
I108934414
aI108941942
aS'+'
aI108934431
asS'Setd1a'
p4548
(lp4549
I127776103
aI127800122
aS'+'
aI127778127
asS'Gm26550'
p4550
(lp4551
I24620192
aI24638419
aS'-'
aI24638419
asS'Klk1b5'
p4552
(lp4553
I44216473
aI44220703
aS'+'
aI44216500
asS'Phldb3'
p4554
(lp4555
I24610277
aI24629296
aS'+'
aI24611344
asS'Snord14a'
p4556
(lp4557
I116333170
aI116333257
aS'-'
aI116333257
asS'Gm19345'
p4558
(lp4559
I19852002
aI19858355
aS'+'
aI19852156
asS'Gm34877'
p4560
(lp4561
I100200775
aI100227209
aS'-'
aI100227209
asS'Ears2'
p4562
(lp4563
I122034161
aI122067086
aS'-'
aI122039074
asS'1810010D01Rik'
p4564
(lp4565
I145205817
aI145208119
aS'-'
aI145208119
asS'4930571K23Rik'
p4566
(lp4567
I125368860
aI125371013
aS'+'
aI125369021
asS'Rdh13'
p4568
(lp4569
I4425666
aI4445846
aS'-'
aI4427557
asS'Mir290a'
p4570
(lp4571
I3218625
aI3218708
aS'+'
aI3218708
asS'Swap70'
p4572
(lp4573
I110221702
aI110283506
aS'+'
aI110221810
asS'B3gnt6'
p4574
(lp4575
I98192414
aI98199475
aS'-'
aI98193575
asS'Gm29931'
p4576
(lp4577
I136496224
aI136503554
aS'+'
aI136503554
asS'Capns1'
p4578
(lp4579
I30186941
aI30198794
aS'-'
aI30187506
asS'Qprt'
p4580
(lp4581
I127107769
aI127122029
aS'-'
aI127108022
asS'Klk12'
p4582
(lp4583
I43768662
aI43774704
aS'+'
aI43769198
asS'Klk13'
p4584
(lp4585
I43713142
aI43727864
aS'+'
aI43713830
asS'Klk10'
p4586
(lp4587
I43781053
aI43785410
aS'+'
aI43781534
asS'Klk11'
p4588
(lp4589
I43774616
aI43779263
aS'+'
aI43774758
asS'B3gnt8'
p4590
(lp4591
I25627587
aI25629492
aS'+'
aI25628146
asS'Klk14'
p4592
(lp4593
I43680879
aI43695507
aS'+'
aI43681451
asS'Klk15'
p4594
(lp4595
I43929404
aI43939852
aS'+'
aI43933770
asS'4930583K01Rik'
p4596
(lp4597
I118243906
aI118245551
aS'+'
aI118245551
asS'Gm32916'
p4598
(lp4599
I120590764
aI120629699
aS'+'
aI120590764
asS'Slco2b1'
p4600
(lp4601
I99657803
aI99711340
aS'-'
aI99660040
asS'Gm38405'
p4602
(lp4603
I99871364
aI99917376
aS'-'
aI99917376
asS'Gpi1'
p4604
(lp4605
I34201326
aI34230336
aS'-'
aI34202413
asS'Gm5602'
p4606
(lp4607
I130862447
aI130866234
aS'-'
aI130866234
asS'Vmn2r28'
p4608
(lp4609
I5480455
aI5493851
aS'-'
aI5480640
asS'Vmn2r29'
p4610
(lp4611
I7212995
aI7278289
aS'-'
aI7278289
asS'Usf2'
p4612
(lp4613
I30945247
aI30956803
aS'-'
aI30946579
asS'Gm8693'
p4614
(lp4615
I22691396
aI22692317
aS'-'
aI22691396
asS'Stx4a'
p4616
(lp4617
I127840642
aI127850988
aS'+'
aI127842038
asS'Sycn'
p4618
(lp4619
I28540884
aI28542210
aS'+'
aI28540909
asS'Mir3572'
p4620
(lp4621
I3655961
aI3656047
aS'+'
aI3656047
asS'Gm5601'
p4622
(lp4623
I119739893
aI119742244
aS'+'
aI119740127
asS'Zfp583'
p4624
(lp4625
I6311403
aI6331285
aS'-'
aI6316304
asS'Zfp580'
p4626
(lp4627
I5051531
aI5053723
aS'+'
aI5052816
asS'B230311B06Rik'
p4628
(lp4629
I118591848
aI118596830
aS'+'
aI118592154
asS'Gm38627'
p4630
(lp4631
I102505480
aI102506425
aS'+'
aI102506425
asS'Pla2g4c'
p4632
(lp4633
I13311506
aI13360672
aS'+'
aI13316482
asS'Gm22496'
p4634
(lp4635
I59333159
aI59347582
aS'-'
aI59347582
asS'Gm32850'
p4636
(lp4637
I82119828
aI82161656
aS'+'
aI82161656
asS'Cblc'
p4638
(lp4639
I19779717
aI19796809
aS'-'
aI19780837
asS'Prap1'
p4640
(lp4641
I140093395
aI140097203
aS'+'
aI140093460
asS'Rab30'
p4642
(lp4643
I92741713
aI92837117
aS'+'
aI92819990
asS'Pira2'
p4644
(lp4645
I3836807
aI3845104
aS'-'
aI3838202
asS'Pira1'
p4646
(lp4647
I3731625
aI3739949
aS'-'
aI3733020
asS'Pnkp'
p4648
(lp4649
I44856478
aI44862927
aS'+'
aI44860097
asS'Pira6'
p4650
(lp4651
I4274123
aI4284827
aS'+'
aI4274188
asS'Rab38'
p4652
(lp4653
I88430272
aI88491572
aS'+'
aI88430401
asS'Gm33504'
p4654
(lp4655
I140994790
aI141004898
aS'-'
aI141004898
asS'Scgb2b23-ps'
p4656
(lp4657
I33625144
aI33653281
aS'-'
aI33653281
asS'Hapln3'
p4658
(lp4659
I79117056
aI79133290
aS'-'
aI79117209
asS'Nox4'
p4660
(lp4661
I87246404
aI87398710
aS'+'
aI87246845
asS'Gm39119'
p4662
(lp4663
I144904533
aI144910569
aS'-'
aI144910569
asS'Slc22a18'
p4664
(lp4665
I143473725
aI143499334
aS'+'
aI143476197
asS'Klk1b7-ps'
p4666
(lp4667
I43945011
aI43945927
aS'+'
aI43945927
asS'Gm39111'
p4668
(lp4669
I139605889
aI139635046
aS'+'
aI139635046
asS'9430041J12Rik'
p4670
(lp4671
I4074124
aI4120728
aS'-'
aI4120728
asS'Gm39112'
p4672
(lp4673
I140657009
aI140676567
aS'-'
aI140676567
asS'Gm39115'
p4674
(lp4675
I142134430
aI142137086
aS'-'
aI142135335
asS'Gm39114'
p4676
(lp4677
I141058451
aI141060964
aS'-'
aI141060964
asS'Gm39117'
p4678
(lp4679
I142844603
aI142857205
aS'-'
aI142857205
asS'Gm39116'
p4680
(lp4681
I142713796
aI142743246
aS'-'
aI142743246
asS'Sh3gl3'
p4682
(lp4683
I82259907
aI82307420
aS'+'
aI82270792
asS'Hamp2'
p4684
(lp4685
I30922371
aI30924181
aS'-'
aI30922507
asS'Pla2g4c-ps'
p4686
(lp4687
I13372628
aI13375488
aS'+'
aI13375488
asS'Kat8'
p4688
(lp4689
I127912516
aI127925762
aS'+'
aI127912531
asS'Gm1096'
p4690
(lp4691
I24687907
aI24695219
aS'+'
aI24688784
asS'2810047C21Rik1'
p4692
(lp4693
I9869967
aI9876963
aS'-'
aI9876963
asS'Dhcr7'
p4694
(lp4695
I143823166
aI143848410
aS'+'
aI143836643
asS'Gm33720'
p4696
(lp4697
I98763017
aI98769841
aS'+'
aI98769841
asS'Gm33721'
p4698
(lp4699
I113243591
aI113262903
aS'-'
aI113262903
asS'Iqck'
p4700
(lp4701
I118855774
aI118972652
aS'+'
aI118855774
asS'Car11'
p4702
(lp4703
I45699791
aI45704616
aS'+'
aI45700272
asS'Snora3'
p4704
(lp4705
I109520131
aI109520251
aS'+'
aI109520251
asS'Akip1'
p4706
(lp4707
I109703671
aI109712186
aS'+'
aI109703951
asS'Gm35219'
p4708
(lp4709
I101348207
aI101355423
aS'-'
aI101355423
asS'Gsg1l'
p4710
(lp4711
I125878411
aI126082763
aS'-'
aI125881140
asS'Gm7207'
p4712
(lp4713
I11460898
aI11468583
aS'-'
aI11460898
asS'Ccdc155'
p4714
(lp4715
I45183618
aI45204923
aS'-'
aI45204923
asS'Mir483'
p4716
(lp4717
I142654923
aI142654996
aS'-'
aI142654996
asS'Dmrtc2'
p4718
(lp4719
I24869828
aI24877655
aS'+'
aI24872481
asS'4930554H23Rik'
p4720
(lp4721
I63344691
aI63444529
aS'-'
aI63444529
asS'Exosc5'
p4722
(lp4723
I25659152
aI25668032
aS'+'
aI25659235
asS'Fam98c'
p4724
(lp4725
I29152509
aI29156359
aS'-'
aI29152703
asS'Zfp566'
p4726
(lp4727
I30077336
aI30090510
aS'-'
aI30077593
asS'Gm5157'
p4728
(lp4729
I21184559
aI21185616
aS'-'
aI21184710
asS'Gm35588'
p4730
(lp4731
I43253740
aI43265645
aS'+'
aI43253864
asS'Arhgef17'
p4732
(lp4733
I100869745
aI100932161
aS'-'
aI100873399
asS'Fam71e1'
p4734
(lp4735
I44496609
aI44504266
aS'+'
aI44496814
asS'Fam71e2'
p4736
(lp4737
I4753225
aI4771270
aS'-'
aI4753574
asS'Zfp568'
p4738
(lp4739
I29983954
aI30028282
aS'+'
aI29987772
asS'Coro1a'
p4740
(lp4741
I126699773
aI126704816
aS'-'
aI126699880
asS'Prx'
p4742
(lp4743
I27499304
aI27520041
aS'+'
aI27504979
asS'Gm39091'
p4744
(lp4745
I128181766
aI128184096
aS'-'
aI128184096
asS'Arhgap33os'
p4746
(lp4747
I30515121
aI30522193
aS'+'
aI30522193
asS'Nup98'
p4748
(lp4749
I102119399
aI102210187
aS'-'
aI102120453
asS'Nectin2'
p4750
(lp4751
I19716643
aI19749573
aS'-'
aI19717514
asS'Gm33989'
p4752
(lp4753
I39542061
aI39580590
aS'+'
aI39563794
asS'Dll3'
p4754
(lp4755
I28293554
aI28301785
aS'-'
aI28293920
asS'Gm38584'
p4756
(lp4757
I69475367
aI69491037
aS'-'
aI69491037
asS'Gm29638'
p4758
(lp4759
I12949979
aI12961887
aS'+'
aI12961887
asS'Gm29791'
p4760
(lp4761
I44788659
aI44791078
aS'-'
aI44791078
asS'Gm26944'
p4762
(lp4763
I92637186
aI92647257
aS'+'
aI92647257
asS'Gm3960'
p4764
(lp4765
I112021950
aI112023495
aS'-'
aI112023495
asS'Lrrc56'
p4766
(lp4767
I141194111
aI141210055
aS'+'
aI141196002
asS'Irf2bp1'
p4768
(lp4769
I19004064
aI19006763
aS'+'
aI19004436
asS'Gm38588'
p4770
(lp4771
I98481264
aI98486221
aS'+'
aI98486221
asS'Muc5b'
p4772
(lp4773
I141839011
aI141873089
aS'+'
aI141839116
asS'Tub'
p4774
(lp4775
I109010879
aI109034459
aS'+'
aI109011100
asS'Mex3b'
p4776
(lp4777
I82867332
aI82871576
aS'+'
aI82867650
asS'Urah'
p4778
(lp4779
I140835022
aI140837968
aS'+'
aI140835198
asS'Mybpc2'
p4780
(lp4781
I44501716
aI44524722
aS'-'
aI44503610
asS'Art1'
p4782
(lp4783
I102101705
aI102111758
aS'+'
aI102111758
asS'Mir7050'
p4784
(lp4785
I31040257
aI31040317
aS'-'
aI31040317
asS'Mir7053'
p4786
(lp4787
I44538105
aI44538178
aS'-'
aI44538178
asS'Mir7052'
p4788
(lp4789
I44470346
aI44470411
aS'+'
aI44470411
asS'Mir7055'
p4790
(lp4791
I45173302
aI45173361
aS'+'
aI45173361
asS'Mir7054'
p4792
(lp4793
I45012425
aI45012487
aS'-'
aI45012487
asS'Mir7057'
p4794
(lp4795
I66381666
aI66381724
aS'-'
aI66381724
asS'Mir7056'
p4796
(lp4797
I47083165
aI47083224
aS'-'
aI47083224
asS'Mir7059'
p4798
(lp4799
I126579473
aI126579532
aS'-'
aI126579532
asS'Gm16336'
p4800
(lp4801
I110904984
aI110905851
aS'+'
aI110905851
asS'Ppp4c'
p4802
(lp4803
I126785867
aI126792471
aS'-'
aI126786161
asS'Vmn1r95'
p4804
(lp4805
I20193709
aI20194633
aS'+'
aI20193709
asS'Mill2'
p4806
(lp4807
I18839955
aI18865407
aS'+'
aI18839991
asS'Mill1'
p4808
(lp4809
I18245346
aI18266092
aS'+'
aI18245609
asS'Irgc1'
p4810
(lp4811
I24431925
aI24445682
aS'-'
aI24431998
asS'Gm42378'
p4812
(lp4813
I35415045
aI35448650
aS'-'
aI35448650
asS'Wtip'
p4814
(lp4815
I34109540
aI34133317
aS'-'
aI34133317
asS'Pdcd5'
p4816
(lp4817
I35641984
aI35647482
aS'-'
aI35642134
asS'Cracr2b'
p4818
(lp4819
I141460869
aI141466613
aS'+'
aI141461011
asS'Olfr598'
p4820
(lp4821
I103328487
aI103329447
aS'+'
aI103328487
asS'Olfr599'
p4822
(lp4823
I103338055
aI103339003
aS'+'
aI103338055
asS'Olfr592'
p4824
(lp4825
I103186602
aI103187541
aS'+'
aI103186602
asS'Olfr593'
p4826
(lp4827
I103211861
aI103212845
aS'+'
aI103211861
asS'Olfr591'
p4828
(lp4829
I103172690
aI103173635
aS'-'
aI103172690
asS'Olfr596'
p4830
(lp4831
I103309722
aI103310661
aS'+'
aI103309722
asS'Olfr597'
p4832
(lp4833
I103320412
aI103321360
aS'+'
aI103320412
asS'Olfr594'
p4834
(lp4835
I103219719
aI103220655
aS'+'
aI103219719
asS'Zim1'
p4836
(lp4837
I6674443
aI6696541
aS'-'
aI6676922
asS'Gm10693'
p4838
(lp4839
I3860622
aI3869264
aS'-'
aI3869264
asS'Gm4201'
p4840
(lp4841
I22564422
aI22565343
aS'-'
aI22564422
asS'Gm21136'
p4842
(lp4843
I38864076
aI38870077
aS'-'
aI38864196
asS'Ipw'
p4844
(lp4845
I59619157
aI59678878
aS'-'
aI59678878
asS'Lmo1'
p4846
(lp4847
I109138568
aI109175341
aS'-'
aI109138870
asS'Lilra6'
p4848
(lp4849
I3908276
aI3915585
aS'-'
aI3908685
asS'Lilra5'
p4850
(lp4851
I4237643
aI4243690
aS'+'
aI4237757
asS'0610005C13Rik'
p4852
(lp4853
I45567794
aI45575176
aS'-'
aI45575176
asS'D830044I16Rik'
p4854
(lp4855
I126972619
aI126976167
aS'-'
aI126976167
asS'Tsg101'
p4856
(lp4857
I46889026
aI46919930
aS'-'
aI46889614
asS'Snhg14'
p4858
(lp4859
I59969576
aI59974431
aS'-'
aI59974431
asS'Apba2'
p4860
(lp4861
I64501705
aI64753878
aS'+'
aI64695063
asS'Olfr577'
p4862
(lp4863
I102973051
aI102973990
aS'-'
aI102973051
asS'Cyp2f2'
p4864
(lp4865
I27119954
aI27133660
aS'+'
aI27121570
asS'Olfr571'
p4866
(lp4867
I102908868
aI102909837
aS'-'
aI102908868
asS'Olfr572'
p4868
(lp4869
I102927629
aI102928586
aS'+'
aI102927629
asS'Gm38978'
p4870
(lp4871
I28927420
aI28932124
aS'+'
aI28932124
asS'Haus5'
p4872
(lp4873
I30653707
aI30664994
aS'-'
aI30653976
asS'Olfr578'
p4874
(lp4875
I102984220
aI102985162
aS'-'
aI102984220
asS'4933402C06Rik'
p4876
(lp4877
I40674736
aI40691260
aS'+'
aI40691260
asS'Dmbt1'
p4878
(lp4879
I131032060
aI131121628
aS'+'
aI131032084
asS'LOC108167501'
p4880
(lp4881
I113706093
aI113711001
aS'-'
aI113711001
asS'LOC108167506'
p4882
(lp4883
I142247900
aI142255284
aS'-'
aI142255284
asS'Mmp21'
p4884
(lp4885
I133674269
aI133680061
aS'-'
aI133674405
asS'Zfp747'
p4886
(lp4887
I127372536
aI127376050
aS'-'
aI127373727
asS'Nphs1os'
p4888
(lp4889
I30462163
aI30465591
aS'-'
aI30465591
asS'Dchs1'
p4890
(lp4891
I105752988
aI105788322
aS'-'
aI105753457
asS'Olfr687'
p4892
(lp4893
I105227716
aI105276545
aS'+'
aI105227716
asS'Spon1'
p4894
(lp4895
I113765997
aI114043375
aS'+'
aI113766328
asS'Olfr685'
p4896
(lp4897
I105180360
aI105181311
aS'-'
aI105180360
asS'Prc1'
p4898
(lp4899
I80294450
aI80316259
aS'+'
aI80294580
asS'Olfr683'
p4900
(lp4901
I105143349
aI105144309
aS'-'
aI105143349
asS'Olfr681'
p4902
(lp4903
I105121458
aI105122406
aS'+'
aI105121458
asS'Lim2'
p4904
(lp4905
I43430100
aI43435991
aS'+'
aI43430590
asS'D7Ertd143e'
p4906
(lp4907
I3218783
aI3221015
aS'+'
aI3221015
asS'Olfr688'
p4908
(lp4909
I105288094
aI105289060
aS'+'
aI105288094
asS'Olfr689'
p4910
(lp4911
I105314005
aI105314968
aS'+'
aI105314005
asS'Mettl10'
p4912
(lp4913
I132827232
aI132852725
aS'-'
aI132827763
asS'Osbpl5'
p4914
(lp4915
I143688761
aI143756980
aS'-'
aI143689818
asS'4930533N22Rik'
p4916
(lp4917
I75030210
aI75075166
aS'+'
aI75075166
asS'Gpatch1'
p4918
(lp4919
I35276543
aI35318440
aS'-'
aI35276780
asS'Ddias'
p4920
(lp4921
I92857524
aI92874286
aS'-'
aI92858005
asS'Dgat2'
p4922
(lp4923
I99153662
aI99182713
aS'-'
aI99154545
asS'LOC108167476'
p4924
(lp4925
I20989412
aI20992829
aS'+'
aI20989412
asS'Deaf1'
p4926
(lp4927
I141297175
aI141338783
aS'-'
aI141297511
asS'Saa4'
p4928
(lp4929
I46727997
aI46732543
aS'-'
aI46729521
asS'Saa3'
p4930
(lp4931
I46711997
aI46715676
aS'-'
aI46712125
asS'Saa2'
p4932
(lp4933
I46751768
aI46754313
aS'+'
aI46752290
asS'Saa1'
p4934
(lp4935
I46740496
aI46743071
aS'-'
aI46740703
asS'Hddc3'
p4936
(lp4937
I80343073
aI80346716
aS'+'
aI80343137
asS'Gm6176'
p4938
(lp4939
I22050480
aI22051504
aS'-'
aI22050598
asS'LOC102636989'
p4940
(lp4941
I143866843
aI143900066
aS'+'
aI143869178
asS'Dedd2'
p4942
(lp4943
I25202837
aI25219873
aS'-'
aI25203539
asS'4930441H08Rik'
p4944
(lp4945
I71909694
aI71939191
aS'+'
aI71939191
asS'Inppl1'
p4946
(lp4947
I101822631
aI101838226
aS'-'
aI101823312
asS'Olfr474'
p4948
(lp4949
I107954642
aI107955575
aS'+'
aI107954642
asS'Gm39089'
p4950
(lp4951
I127647904
aI127651409
aS'-'
aI127651409
asS'Gm28075'
p4952
(lp4953
I37140411
aI37156841
aS'+'
aI37156841
asS'Gm28076'
p4954
(lp4955
I37129855
aI37140361
aS'-'
aI37140361
asS'Gm28077'
p4956
(lp4957
I37300563
aI37305176
aS'+'
aI37305176
asS'Far1'
p4958
(lp4959
I113513833
aI113570888
aS'+'
aI113539277
asS'Htatip2'
p4960
(lp4961
I49759043
aI49778361
aS'+'
aI49759598
asS'Fkrp'
p4962
(lp4963
I16809266
aI16816788
aS'-'
aI16810450
asS'Siglech'
p4964
(lp4965
I55768183
aI55778925
aS'+'
aI55768285
asS'Dnah3'
p4966
(lp4967
I119922670
aI120095676
aS'-'
aI119922716
asS'Siglece'
p4968
(lp4969
I43651069
aI43660161
aS'-'
aI43651485
asS'Siglecf'
p4970
(lp4971
I43351340
aI43359470
aS'+'
aI43351547
asS'Siglecg'
p4972
(lp4973
I43408198
aI43418349
aS'+'
aI43408559
asS'Slc5a2'
p4974
(lp4975
I128265696
aI128272433
aS'+'
aI128265696
asS'Dusp8'
p4976
(lp4977
I142079493
aI142095858
aS'-'
aI142081859
asS'Gm9519'
p4978
(lp4979
I17637498
aI17651482
aS'-'
aI17651482
asS'Timm50'
p4980
(lp4981
I28305515
aI28311885
aS'-'
aI28305928
asS'Tex101'
p4982
(lp4983
I24668011
aI24672050
aS'-'
aI24668172
asS'Kdm8'
p4984
(lp4985
I125444444
aI125463651
aS'+'
aI125455126
asS'Sbk1'
p4986
(lp4987
I126248401
aI126295016
aS'+'
aI126289863
asS'Asb7'
p4988
(lp4989
I66644564
aI66689649
aS'-'
aI66647785
asS'Mfge8'
p4990
(lp4991
I79133767
aI79149060
aS'-'
aI79134408
asS'Ssc5d'
p4992
(lp4993
I4925126
aI4944828
aS'+'
aI4925492
asS'Igf2os'
p4994
(lp4995
I142659692
aI142670356
aS'+'
aI142670356
asS'Gm30560'
p4996
(lp4997
I125397980
aI125405814
aS'+'
aI125405814
asS'Gm7789'
p4998
(lp4999
I10988506
aI10995982
aS'-'
aI10995982
asS'Zfp954'
p5000
(lp5001
I7114682
aI7121476
aS'-'
aI7115292
asS'Cyp2t4'
p5002
(lp5003
I27153713
aI27158564
aS'+'
aI27153713
asS'5430431A17Rik'
p5004
(lp5005
I44484516
aI44485413
aS'+'
aI44485413
asS'Saxo2'
p5006
(lp5007
I82632960
aI82648565
aS'-'
aI82634463
asS'Itgax'
p5008
(lp5009
I128129567
aI128150657
aS'+'
aI128129619
asS'Vmn1r148'
p5010
(lp5011
I22412230
aI22414669
aS'+'
aI22413582
asS'Pirb'
p5012
(lp5013
I3712531
aI3720447
aS'-'
aI3712650
asS'Timm10b'
p5014
(lp5015
I105640060
aI105656992
aS'+'
aI105656992
asS'Slc1a5'
p5016
(lp5017
I16781345
aI16798274
aS'+'
aI16781900
asS'Vmn2r53'
p5018
(lp5019
I12581469
aI12606544
aS'-'
aI12581469
asS'Vmn2r52'
p5020
(lp5021
I10158651
aI10176286
aS'-'
aI10158651
asS'Vmn2r51'
p5022
(lp5023
I10087197
aI10105659
aS'-'
aI10087197
asS'Vmn2r50'
p5024
(lp5025
I10037234
aI10053178
aS'-'
aI10037234
asS'Gm32846'
p5026
(lp5027
I17396815
aI17527674
aS'-'
aI17527674
asS'Vmn2r56'
p5028
(lp5029
I12693859
aI12733320
aS'-'
aI12693997
asS'Vmn2r55'
p5030
(lp5031
I12651705
aI12684991
aS'-'
aI12651705
asS'Vmn2r54'
p5032
(lp5033
I12615232
aI12636134
aS'-'
aI12615232
asS'Vmn2r59'
p5034
(lp5035
I42011791
aI42058981
aS'-'
aI42011791
asS'Vmn2r58'
p5036
(lp5037
I41836880
aI41872670
aS'-'
aI41836880
asS'Luzp2'
p5038
(lp5039
I54835193
aI55268888
aS'+'
aI55063275
asS'Gm35325'
p5040
(lp5041
I70207297
aI70213193
aS'+'
aI70213193
asS'Taok2'
p5042
(lp5043
I126865676
aI126886296
aS'-'
aI126886296
asS'Vwa3a'
p5044
(lp5045
I120735693
aI120805546
aS'+'
aI120740110
asS'Igf2'
p5046
(lp5047
I142650767
aI142666816
aS'-'
aI142653815
asS'Gm19463'
p5048
(lp5049
I132314911
aI132316306
aS'-'
aI132316306
asS'Lhpp'
p5050
(lp5051
I132610613
aI132706420
aS'+'
aI132610705
asS'Coa4'
p5052
(lp5053
I100537179
aI100540372
aS'+'
aI100539081
asS'Apbb1'
p5054
(lp5055
I105558483
aI105581924
aS'-'
aI105558882
asS'LOC108167427'
p5056
(lp5057
I49639856
aI49648987
aS'+'
aI49648987
asS'Olfr667'
p5058
(lp5059
I104916313
aI104917294
aS'-'
aI104916313
asS'Zfp771'
p5060
(lp5061
I127244479
aI127254807
aS'+'
aI127244494
asS'Zfp772'
p5062
(lp5063
I7202121
aI7209998
aS'-'
aI7203439
asS'Zfp773'
p5064
(lp5065
I7130677
aI7136755
aS'-'
aI7132179
asS'Gm30196'
p5066
(lp5067
I60293182
aI60294091
aS'+'
aI60293182
asS'Gm34621'
p5068
(lp5069
I144415621
aI144419277
aS'-'
aI144419277
asS'Spaca4'
p5070
(lp5071
I45725106
aI45725816
aS'-'
aI45725192
asS'Cpt1c'
p5072
(lp5073
I44958482
aI44974845
aS'-'
aI44974845
asS'A330076H08Rik'
p5074
(lp5075
I61943900
aI61982303
aS'-'
aI61982303
asS'E430018J23Rik'
p5076
(lp5077
I127390829
aI127393662
aS'-'
aI127391427
asS'Gm30751'
p5078
(lp5079
I138486658
aI138608418
aS'-'
aI138608418
asS'Folr1'
p5080
(lp5081
I101858330
aI101870788
aS'-'
aI101858463
asS'9430038I01Rik'
p5082
(lp5083
I137375568
aI137411921
aS'-'
aI137376299
asS'LOC108167435'
p5084
(lp5085
I66282353
aI66287433
aS'+'
aI66287433
asS'Fut2'
p5086
(lp5087
I45648590
aI45666394
aS'-'
aI45650302
asS'Fut1'
p5088
(lp5089
I45617265
aI45620876
aS'+'
aI45618623
asS'Gm39110'
p5090
(lp5091
I137469261
aI137472179
aS'+'
aI137472179
asS'Itgal'
p5092
(lp5093
I127296259
aI127335137
aS'+'
aI127296468
asS'Rhog'
p5094
(lp5095
I102239122
aI102250118
aS'-'
aI102239668
asS'LOC108167433'
p5096
(lp5097
I63901721
aI63909189
aS'-'
aI63909189
asS'Fam57b'
p5098
(lp5099
I126814040
aI126830215
aS'+'
aI126819829
asS'4930402F11Rik'
p5100
(lp5101
I69496093
aI69499689
aS'+'
aI69499689
asS'Gm38989'
p5102
(lp5103
I35232384
aI35234814
aS'-'
aI35234814
asS'Gm38988'
p5104
(lp5105
I35163336
aI35173793
aS'-'
aI35173793
asS'Gm38984'
p5106
(lp5107
I31036522
aI31057714
aS'+'
aI31057714
asS'Gm38987'
p5108
(lp5109
I34812992
aI34844179
aS'+'
aI34844179
asS'Gm38983'
p5110
(lp5111
I29763787
aI29768417
aS'-'
aI29768417
asS'Gm38982'
p5112
(lp5113
I29553466
aI29555628
aS'-'
aI29555628
asS'Rpl13a'
p5114
(lp5115
I45125562
aI45128745
aS'-'
aI45125945
asS'Mir762'
p5116
(lp5117
I127708486
aI127708562
aS'+'
aI127708562
asS'Gm35665'
p5118
(lp5119
I35134553
aI35142285
aS'-'
aI35142285
asS'Pou2f2'
p5120
(lp5121
I25091151
aI25179992
aS'-'
aI25092962
asS'Gm34445'
p5122
(lp5123
I143949272
aI143956363
aS'-'
aI143956363
asS'Gm34822'
p5124
(lp5125
I117849938
aI117851343
aS'-'
aI117851343
asS'Supt5'
p5126
(lp5127
I28314890
aI28338804
aS'-'
aI28315123
asS'Hras'
p5128
(lp5129
I141189933
aI141194004
aS'-'
aI141191432
asS'Olfr67'
p5130
(lp5131
I103787211
aI103791830
aS'-'
aI103787312
asS'Gm29258'
p5132
(lp5133
I39308188
aI39317629
aS'-'
aI39308366
asS'Cacng8'
p5134
(lp5135
I3394041
aI3415605
aS'+'
aI3394224
asS'Gm34821'
p5136
(lp5137
I100173422
aI100176631
aS'-'
aI100176631
asS'Gng8'
p5138
(lp5139
I16891735
aI16895451
aS'+'
aI16894943
asS'Gm2511'
p5140
(lp5141
I43511164
aI43519083
aS'-'
aI43511189
asS'Olfr61'
p5142
(lp5143
I140637702
aI140638638
aS'+'
aI140637702
asS'Gas2'
p5144
(lp5145
I51862262
aI51994516
aS'+'
aI51887928
asS'Olfr477'
p5146
(lp5147
I107990366
aI107991299
aS'+'
aI107990366
asS'Cacng6'
p5148
(lp5149
I3423579
aI3435667
aS'+'
aI3424661
asS'Cacng7'
p5150
(lp5151
I3332023
aI3368221
aS'+'
aI3336584
asS'Gm32061'
p5152
(lp5153
I62337786
aI62423821
aS'-'
aI62423821
asS'Actn4'
p5154
(lp5155
I28893247
aI28962352
aS'-'
aI28894228
asS'Tescl'
p5156
(lp5157
I24333079
aI24333965
aS'-'
aI24333202
asS'Ppp5c'
p5158
(lp5159
I17004639
aI17027914
aS'-'
aI17005108
asS'Trim21'
p5160
(lp5161
I102557919
aI102565482
aS'-'
aI102559121
asS'Asphd1'
p5162
(lp5163
I126945980
aI126950322
aS'-'
aI126946100
asS'Rsf1os1'
p5164
(lp5165
I97598348
aI97645112
aS'-'
aI97645112
asS'1810019N24Rik'
p5166
(lp5167
I12948600
aI12961892
aS'-'
aI12961892
asS'Gm16174'
p5168
(lp5169
I19814981
aI19818618
aS'+'
aI19818618
asS'1110004F10Rik'
p5170
(lp5171
I116093379
aI116105210
aS'+'
aI116093462
asS'Zfp551'
p5172
(lp5173
I12412548
aI12422739
aS'-'
aI12415389
asS'Zfp553'
p5174
(lp5175
I127233254
aI127238042
aS'+'
aI127235274
asS'Sult1a1'
p5176
(lp5177
I126672864
aI126690426
aS'-'
aI126673142
asS'Lrrc27'
p5178
(lp5179
I139212863
aI139242979
aS'+'
aI139214722
asS'Gm4141'
p5180
(lp5181
I20575320
aI20576241
aS'-'
aI20575320
asS'C230091D08Rik'
p5182
(lp5183
I59307923
aI59324149
aS'-'
aI59324149
asS'Eid2'
p5184
(lp5185
I28267880
aI28269168
aS'+'
aI28267954
asS'Anpep'
p5186
(lp5187
I79821802
aI79848189
aS'-'
aI79822223
asS'2310002F09Rik'
p5188
(lp5189
I43745465
aI43755936
aS'-'
aI43755936
asS'Gm39101'
p5190
(lp5191
I132405989
aI132417412
aS'+'
aI132417412
asS'Kcna7'
p5192
(lp5193
I45405959
aI45411382
aS'+'
aI45406361
asS'Ethe1'
p5194
(lp5195
I24587542
aI24608925
aS'+'
aI24593930
asS'Gm39109'
p5196
(lp5197
I137132560
aI137137204
aS'+'
aI137137204
asS'E030018B13Rik'
p5198
(lp5199
I63916856
aI63920539
aS'+'
aI63917061
asS'Cfap46'
p5200
(lp5201
I139600913
aI139683815
aS'-'
aI139601157
asS'Tmem265'
p5202
(lp5203
I127561222
aI127565271
aS'+'
aI127563124
asS'Xntrpc'
p5204
(lp5205
I102065490
aI102096864
aS'+'
aI102096864
asS'Mrgpra3'
p5206
(lp5207
I47588949
aI47601372
aS'-'
aI47589186
asS'Trim30d'
p5208
(lp5209
I104470013
aI104507849
aS'-'
aI104472042
asS'Gm32110'
p5210
(lp5211
I38927764
aI38979932
aS'+'
aI38979932
asS'Axl'
p5212
(lp5213
I25756499
aI25788733
aS'-'
aI25758661
asS'Gm38967'
p5214
(lp5215
I25483185
aI25486853
aS'-'
aI25486853
asS'Gm38966'
p5216
(lp5217
I24875747
aI24884549
aS'-'
aI24884549
asS'Gm38965'
p5218
(lp5219
I24853794
aI24854785
aS'+'
aI24854785
asS'Gm38964'
p5220
(lp5221
I24355065
aI24355873
aS'-'
aI24355873
asS'Rasgrp4'
p5222
(lp5223
I29134932
aI29153961
aS'+'
aI29153961
asS'Gm31152'
p5224
(lp5225
I12864283
aI12869804
aS'-'
aI12869804
asS'Mrgpra6'
p5226
(lp5227
I47185716
aI47189416
aS'-'
aI47189416
asS'Gm38969'
p5228
(lp5229
I25618667
aI25619524
aS'-'
aI25619524
asS'Gm38968'
p5230
(lp5231
I25388634
aI25389558
aS'+'
aI25389558
asS'Mrgpra4'
p5232
(lp5233
I47980793
aI47982296
aS'-'
aI47980909
asS'Vmn1r151'
p5234
(lp5235
I22498760
aI22499678
aS'-'
aI22498760
asS'Vmn1r152'
p5236
(lp5237
I22522966
aI22523890
aS'+'
aI22522966
asS'Vmn1r155'
p5238
(lp5239
I22658017
aI22658941
aS'+'
aI22658017
asS'Mir7048'
p5240
(lp5241
I25217667
aI25217725
aS'-'
aI25217725
asS'Mir7049'
p5242
(lp5243
I28560924
aI28560984
aS'-'
aI28560984
asS'Vmn1r158'
p5244
(lp5245
I22789858
aI22790782
aS'-'
aI22789858
asS'Mir7047'
p5246
(lp5247
I24987603
aI24987667
aS'-'
aI24987667
asS'Mir344d-3'
p5248
(lp5249
I61726248
aI61726328
aS'-'
aI61726328
asS'Gm4454'
p5250
(lp5251
I38566999
aI38573069
aS'-'
aI38567162
asS'Mir344d-1'
p5252
(lp5253
I61683123
aI61683192
aS'-'
aI61683192
asS'Emc10'
p5254
(lp5255
I44489937
aI44496513
aS'-'
aI44490871
asS'Tmem190'
p5256
(lp5257
I4781765
aI4784341
aS'+'
aI4782047
asS'B130055M24Rik'
p5258
(lp5259
I127448647
aI127461238
aS'+'
aI127461238
asS'Olfr493'
p5260
(lp5261
I108346034
aI108346979
aS'-'
aI108346034
asS'Cdipt'
p5262
(lp5263
I126975913
aI126980501
aS'+'
aI126976763
asS'Phkg2'
p5264
(lp5265
I127573347
aI127583307
aS'+'
aI127573871
asS'Nlrp14'
p5266
(lp5267
I107127431
aI107198103
aS'+'
aI107181172
asS'3110040N11Rik'
p5268
(lp5269
I81780282
aI81790466
aS'-'
aI81783042
asS'1700010L04Rik'
p5270
(lp5271
I82850134
aI82861575
aS'+'
aI82861575
asS'Nlrp10'
p5272
(lp5273
I108921852
aI108930158
aS'-'
aI108924249
asS'Nlrp12'
p5274
(lp5275
I3219494
aI3250159
aS'-'
aI3250159
asS'Gm4216'
p5276
(lp5277
I23019005
aI23019923
aS'-'
aI23019005
asS'Gm4214'
p5278
(lp5279
I22983728
aI22984673
aS'-'
aI22983728
asS'Olfr554'
p5280
(lp5281
I102640247
aI102641201
aS'+'
aI102640247
asS'Arnt2'
p5282
(lp5283
I84246273
aI84410188
aS'-'
aI84251335
asS'Stk32c'
p5284
(lp5285
I139103637
aI139213307
aS'-'
aI139104222
asS'Olfr543'
p5286
(lp5287
I102476772
aI102477902
aS'-'
aI102476857
asS'Gm24576'
p5288
(lp5289
I15946196
aI15947790
aS'+'
aI15947790
asS'Cyp2g1'
p5290
(lp5291
I26808926
aI26821197
aS'+'
aI26808926
asS'Olfr544'
p5292
(lp5293
I102484113
aI102488307
aS'-'
aI102484113
asS'Olfr547'
p5294
(lp5295
I102534748
aI102535688
aS'+'
aI102534748
asS'Olfr549'
p5296
(lp5297
I102554285
aI102555236
aS'+'
aI102554285
asS'Gm20670'
p5298
(lp5299
I64057636
aI64068796
aS'+'
aI64068796
asS'Cyp2a22'
p5300
(lp5301
I26931630
aI26939386
aS'-'
aI26932350
asS'Svip'
p5302
(lp5303
I51997160
aI52006018
aS'-'
aI51999762
asS'Ncr1'
p5304
(lp5305
I4337677
aI4345156
aS'+'
aI4337748
asS'Tmem86a'
p5306
(lp5307
I47050639
aI47054776
aS'+'
aI47050780
asS'Tmem86b'
p5308
(lp5309
I4628039
aI4631404
aS'-'
aI4628370
asS'Vmn1r56'
p5310
(lp5311
I5194915
aI5196747
aS'-'
aI5195683
asS'Vmn1r57'
p5312
(lp5313
I5220477
aI5221410
aS'+'
aI5220477
asS'Vmn1r55'
p5314
(lp5315
I5146489
aI5147422
aS'-'
aI5146489
asS'Nup62'
p5316
(lp5317
I44816087
aI44831836
aS'+'
aI44828562
asS'Sytl2'
p5318
(lp5319
I90302354
aI90410719
aS'+'
aI90348791
asS'Gm36722'
p5320
(lp5321
I36652542
aI36697277
aS'-'
aI36697277
asS'Itgam'
p5322
(lp5323
I128062639
aI128118491
aS'+'
aI128062742
asS'Vmn1r58'
p5324
(lp5325
I5408886
aI5413145
aS'-'
aI5410296
asS'Vmn1r59'
p5326
(lp5327
I5453826
aI5454759
aS'-'
aI5453826
asS'Tgfb1i1'
p5328
(lp5329
I128246811
aI128255699
aS'+'
aI128248894
asS'Mir7686'
p5330
(lp5331
I139957565
aI139957622
aS'-'
aI139957622
asS'Ifitm2'
p5332
(lp5333
I140954838
aI140955961
aS'-'
aI140954984
asS'LOC102632142'
p5334
(lp5335
I44267616
aI44273158
aS'-'
aI44267623
asS'Ube2m'
p5336
(lp5337
I13035119
aI13038275
aS'-'
aI13035613
asS'Thap8'
p5338
(lp5339
I30289095
aI30290314
aS'+'
aI30289095
asS'Plaur'
p5340
(lp5341
I24460936
aI24475968
aS'+'
aI24462509
asS'Slx1b'
p5342
(lp5343
I126688926
aI126695783
aS'-'
aI126691625
asS'Arrdc4'
p5344
(lp5345
I68736993
aI68749238
aS'-'
aI68739476
asS'Slc5a11'
p5346
(lp5347
I123214758
aI123274390
aS'+'
aI123235619
asS'Gm6164'
p5348
(lp5349
I20204683
aI20205607
aS'-'
aI20204683
asS'Pstk'
p5350
(lp5351
I131371112
aI131392768
aS'+'
aI131371173
asS'Ube2s'
p5352
(lp5353
I4808013
aI4812340
aS'-'
aI4808154
asS'Lin7b'
p5354
(lp5355
I45367890
aI45370564
aS'-'
aI45367976
asS'Gm36431'
p5356
(lp5357
I135816460
aI135827559
aS'+'
aI135827559
asS'Gm36430'
p5358
(lp5359
I104351816
aI104355748
aS'+'
aI104355748
asS'Zfp511'
p5360
(lp5361
I140036390
aI140040605
aS'+'
aI140036453
asS'Gm5893'
p5362
(lp5363
I24818794
aI24840275
aS'+'
aI24840275
asS'Gm5891'
p5364
(lp5365
I21909433
aI21921291
aS'-'
aI21909806
asS'Ovol3'
p5366
(lp5367
I30233420
aI30237187
aS'-'
aI30233438
asS'Lrfn3'
p5368
(lp5369
I30355513
aI30362772
aS'-'
aI30355637
asS'Lrfn1'
p5370
(lp5371
I28451984
aI28468242
aS'+'
aI28458657
asS'Pddc1'
p5372
(lp5373
I141408183
aI141414125
aS'-'
aI141408957
asS'Mir292b'
p5374
(lp5375
I3219197
aI3219259
aS'-'
aI3219259
asS'Plekhf1'
p5376
(lp5377
I38220653
aI38227994
aS'-'
aI38221302
asS'Sephs2'
p5378
(lp5379
I127271878
aI127274059
aS'-'
aI127272560
asS'1700102J08Rik'
p5380
(lp5381
I129917716
aI129924725
aS'-'
aI129924725
asS'Vmn1r-ps79'
p5382
(lp5383
I20356625
aI20358918
aS'-'
aI20358918
asS'Rps5'
p5384
(lp5385
I12922310
aI12926686
aS'+'
aI12922973
asS'Sbf2'
p5386
(lp5387
I110308010
aI110614953
aS'-'
aI110309397
asS'Rps3'
p5388
(lp5389
I99477895
aI99483709
aS'-'
aI99479276
asS'Sec23ip'
p5390
(lp5391
I128744869
aI128784836
aS'+'
aI128745021
asS'Zbtb32'
p5392
(lp5393
I30589679
aI30602820
aS'-'
aI30589929
asS'Kndc1'
p5394
(lp5395
I139894695
aI139941540
aS'+'
aI139895186
asS'Rps9'
p5396
(lp5397
I3703953
aI3706897
aS'+'
aI3704351
asS'4930543N07Rik'
p5398
(lp5399
I138554241
aI138566994
aS'+'
aI138566994
asS'Snord32a'
p5400
(lp5401
I45127382
aI45127463
aS'-'
aI45127463
asS'Zfp941'
p5402
(lp5403
I140807452
aI140822203
aS'-'
aI140822203
asS'Zfp940'
p5404
(lp5405
I29843937
aI29853753
aS'-'
aI29844779
asS'LOC108167468'
p5406
(lp5407
I144019069
aI144026560
aS'-'
aI144026560
asS'Mcmbp'
p5408
(lp5409
I128696440
aI128740429
aS'-'
aI128698443
asS'LOC108167465'
p5410
(lp5411
I139386468
aI139388983
aS'-'
aI139388983
asS'LOC108167464'
p5412
(lp5413
I137630515
aI137654033
aS'-'
aI137654033
asS'LOC108167467'
p5414
(lp5415
I142668177
aI142669709
aS'-'
aI142669709
asS'LOC108167466'
p5416
(lp5417
I142118317
aI142125213
aS'-'
aI142120069
asS'LOC108167460'
p5418
(lp5419
I126484339
aI126486514
aS'-'
aI126486514
asS'Suv420h2'
p5420
(lp5421
I4740091
aI4747514
aS'+'
aI4741871
asS'LOC108167462'
p5422
(lp5423
I132465924
aI132466807
aS'+'
aI132466807
asS'Tm6sf1'
p5424
(lp5425
I81859000
aI81884079
aS'+'
aI81884079
asS'Ccdc106'
p5426
(lp5427
I5053822
aI5060785
aS'+'
aI5056184
asS'Gab2'
p5428
(lp5429
I97081750
aI97308951
aS'+'
aI97081825
asS'Gm34052'
p5430
(lp5431
I39863525
aI39870691
aS'+'
aI39870691
asS'Gm33527'
p5432
(lp5433
I112994292
aI113004975
aS'-'
aI113004975
asS'Gm36737'
p5434
(lp5435
I136173127
aI136181614
aS'-'
aI136181614
asS'Vmn2r40'
p5436
(lp5437
I8907733
aI8931402
aS'-'
aI8907733
asS'Vmn2r41'
p5438
(lp5439
I8137904
aI8161551
aS'-'
aI8137904
asS'Vmn2r42'
p5440
(lp5441
I8183264
aI8200320
aS'-'
aI8184212
asS'Vmn2r43'
p5442
(lp5443
I8244347
aI8260599
aS'-'
aI8244624
asS'Vmn2r44'
p5444
(lp5445
I8367459
aI8383238
aS'-'
aI8367459
asS'Vmn2r45'
p5446
(lp5447
I8471468
aI8488959
aS'-'
aI8471468
asS'Vmn2r46'
p5448
(lp5449
I9754635
aI9770571
aS'-'
aI9754635
asS'Vmn2r47'
p5450
(lp5451
I9816781
aI9841325
aS'-'
aI9816781
asS'Vmn2r48'
p5452
(lp5453
I9927623
aI9953585
aS'-'
aI9927623
asS'Vmn2r49'
p5454
(lp5455
I9976244
aI9992139
aS'-'
aI9976244
asS'Mapk1ip1'
p5456
(lp5457
I138835817
aI138846267
aS'-'
aI138835907
asS'Megf8'
p5458
(lp5459
I25316751
aI25365916
aS'+'
aI25317506
asS'Zscan5b'
p5460
(lp5461
I6222277
aI6239412
aS'+'
aI6230178
asS'Gm15927'
p5462
(lp5463
I3632110
aI3645354
aS'-'
aI3645354
asS'Zfp764'
p5464
(lp5465
I127379761
aI127406830
aS'-'
aI127406830
asS'Zp2'
p5466
(lp5467
I120126771
aI120145414
aS'-'
aI120126944
asS'Gm15928'
p5468
(lp5469
I3993099
aI3994506
aS'-'
aI3994506
asS'Zfp768'
p5470
(lp5471
I127342794
aI127345314
aS'-'
aI127343256
asS'Mir6401'
p5472
(lp5473
I139779017
aI139779126
aS'+'
aI139779126
asS'Xndc1'
p5474
(lp5475
I102065490
aI102083762
aS'+'
aI102071316
asS'Gm34612'
p5476
(lp5477
I68792321
aI68818694
aS'+'
aI68818694
asS'Nkg7'
p5478
(lp5479
I43437137
aI43438246
aS'+'
aI43437303
asS'Gm34549'
p5480
(lp5481
I68488070
aI68490897
aS'+'
aI68490897
asS'B130016D09Rik'
p5482
(lp5483
I142283213
aI142289754
aS'+'
aI142289754
asS'Gm5155'
p5484
(lp5485
I17871743
aI17919043
aS'+'
aI17871960
asS'Pinlyp'
p5486
(lp5487
I24541653
aI24546620
aS'-'
aI24541736
asS'Sprn'
p5488
(lp5489
I140150627
aI140154659
aS'-'
aI140153213
asS'Apobr'
p5490
(lp5491
I126584911
aI126589112
aS'+'
aI126585011
asS'Gm32945'
p5492
(lp5493
I97418652
aI97420144
aS'+'
aI97420144
asS'Gm38998'
p5494
(lp5495
I42692854
aI42697790
aS'+'
aI42697790
asS'Gm38999'
p5496
(lp5497
I43427642
aI43429836
aS'+'
aI43427685
asS'Gm38992'
p5498
(lp5499
I36538520
aI36543017
aS'-'
aI36543017
asS'Gm38993'
p5500
(lp5501
I36626486
aI36649175
aS'-'
aI36649175
asS'Gm38990'
p5502
(lp5503
I35953647
aI35960933
aS'-'
aI35960933
asS'Gm38991'
p5504
(lp5505
I36076254
aI36102297
aS'+'
aI36102297
asS'Gm38996'
p5506
(lp5507
I40295865
aI40303819
aS'+'
aI40303819
asS'Tbcb'
p5508
(lp5509
I30224130
aI30232029
aS'-'
aI30224232
asS'Gm38994'
p5510
(lp5511
I37172082
aI37173446
aS'-'
aI37173446
asS'Gm38995'
p5512
(lp5513
I37205757
aI37208602
aS'+'
aI37208602
asS'Trim3'
p5514
(lp5515
I105604462
aI105633571
aS'-'
aI105604607
asS'Trim5'
p5516
(lp5517
I104263385
aI104288413
aS'-'
aI104265366
asS'Lhb'
p5518
(lp5519
I45417486
aI45421855
aS'+'
aI45420952
asS'Rccd1'
p5520
(lp5521
I80294590
aI80324689
aS'-'
aI80324689
asS'Gm4541'
p5522
(lp5523
I21445772
aI21465923
aS'+'
aI21465923
asS'Xylt1'
p5524
(lp5525
I117380978
aI117667630
aS'+'
aI117381178
asS'Gm35271'
p5526
(lp5527
I70202843
aI70207234
aS'+'
aI70207234
asS'Pglyrp1'
p5528
(lp5529
I18884689
aI18890438
aS'+'
aI18884725
asS'Kdelr1'
p5530
(lp5531
I45872839
aI45883726
aS'+'
aI45873010
asS'Gm17768'
p5532
(lp5533
I43078043
aI43099377
aS'+'
aI43078170
asS'Gm32059'
p5534
(lp5535
I16046581
aI16047666
aS'+'
aI16047666
asS'Gm39557'
p5536
(lp5537
I17415977
aI17418408
aS'+'
aI17418408
asS'Gm39008'
p5538
(lp5539
I45659045
aI45665823
aS'+'
aI45665823
asS'Gm39007'
p5540
(lp5541
I45666310
aI45677620
aS'+'
aI45677620
asS'Gm39006'
p5542
(lp5543
I45299158
aI45302360
aS'-'
aI45302360
asS'Gm39003'
p5544
(lp5545
I44446892
aI44451818
aS'-'
aI44451818
asS'AU018091'
p5546
(lp5547
I3154657
aI3169252
aS'-'
aI3155977
asS'Gm39001'
p5548
(lp5549
I44374496
aI44375903
aS'+'
aI44375903
asS'Gm39000'
p5550
(lp5551
I43461499
aI43464170
aS'-'
aI43464170
asS'LOC102639173'
p5552
(lp5553
I101838062
aI101844525
aS'+'
aI101844525
asS'Gm34280'
p5554
(lp5555
I99693024
aI99714226
aS'+'
aI99694269
asS'Zfp383'
p5556
(lp5557
I29908280
aI29916807
aS'+'
aI29910220
asS'Zfp382'
p5558
(lp5559
I30121564
aI30140758
aS'+'
aI30130673
asS'Klk1b1'
p5560
(lp5561
I43966750
aI43971318
aS'+'
aI43966786
asS'Gm4133'
p5562
(lp5563
I20333141
aI20334065
aS'-'
aI20333141
asS'Klk1b3'
p5564
(lp5565
I44198190
aI44202351
aS'+'
aI44198246
asS'Galp'
p5566
(lp5567
I6197089
aI6216137
aS'+'
aI6202800
asS'Klk1b4'
p5568
(lp5569
I44207432
aI44211754
aS'+'
aI44207453
asS'1700112J16Rik'
p5570
(lp5571
I67204081
aI67222458
aS'-'
aI67222458
asS'Pth'
p5572
(lp5573
I113385575
aI113388573
aS'-'
aI113385816
asS'Klk1b9'
p5574
(lp5575
I43976060
aI43980376
aS'+'
aI43976096
asS'Klk1b8'
p5576
(lp5577
I43950665
aI43954944
aS'+'
aI43950690
asS'Gm30384'
p5578
(lp5579
I74696024
aI74719265
aS'-'
aI74719265
asS'Mir150'
p5580
(lp5581
I45121756
aI45121821
aS'+'
aI45121821
asS'Zc3h4'
p5582
(lp5583
I16399709
aI16437698
aS'+'
aI16400880
asS'Zfp541'
p5584
(lp5585
I16061774
aI16096340
aS'+'
aI16071941
asS'Rnf225'
p5586
(lp5587
I12927415
aI12931072
aS'+'
aI12927895
asS'Pih1d1'
p5588
(lp5589
I45154302
aI45160065
aS'+'
aI45156309
asS'Gm30149'
p5590
(lp5591
I73583284
aI73608740
aS'-'
aI73608740
asS'Sct'
p5592
(lp5593
I141278328
aI141279133
aS'-'
aI141278409
asS'4933440M02Rik'
p5594
(lp5595
I125331781
aI125349786
aS'-'
aI125349786
asS'Epn1'
p5596
(lp5597
I5080203
aI5098179
aS'+'
aI5083754
asS'Echs1'
p5598
(lp5599
I140105722
aI140116423
aS'-'
aI140106311
asS'Mrgprx1'
p5600
(lp5601
I48020970
aI48027597
aS'-'
aI48021028
asS'Mrgprx2'
p5602
(lp5603
I48478618
aI48499270
aS'-'
aI48482009
asS'Ush1c'
p5604
(lp5605
I46195350
aI46238490
aS'-'
aI46195721
asS'Tmem219'
p5606
(lp5607
I126886218
aI126928683
aS'-'
aI126888922
asS'Gm42379'
p5608
(lp5609
I35658901
aI35660340
aS'-'
aI35660340
asS'Gm38977'
p5610
(lp5611
I28547765
aI28550229
aS'+'
aI28550229
asS'Gm38972'
p5612
(lp5613
I27480520
aI27486840
aS'-'
aI27486840
asS'Gm38973'
p5614
(lp5615
I27649194
aI27653676
aS'-'
aI27653676
asS'Gm42373'
p5616
(lp5617
I17306795
aI17311529
aS'+'
aI17311529
asS'Gm42372'
p5618
(lp5619
I16983476
aI16988146
aS'+'
aI16983593
asS'Gm42370'
p5620
(lp5621
I7984603
aI7986453
aS'-'
aI7986453
asS'Gm42377'
p5622
(lp5623
I30989790
aI31029001
aS'-'
aI31029001
asS'Gm38979'
p5624
(lp5625
I29029574
aI29030065
aS'+'
aI29030065
asS'Gm42375'
p5626
(lp5627
I26304420
aI26307094
aS'-'
aI26307094
asS'Uros'
p5628
(lp5629
I133686141
aI133710510
aS'-'
aI133686978
asS'Gm33827'
p5630
(lp5631
I98869259
aI98876632
aS'-'
aI98876632
asS'6430531B16Rik'
p5632
(lp5633
I139972302
aI139978755
aS'-'
aI139972466
asS'Tpbgl'
p5634
(lp5635
I99624066
aI99627103
aS'-'
aI99625493
asS'4930451I11Rik'
p5636
(lp5637
I126830467
aI126831544
aS'-'
aI126830565
asS'Tbc1d10b'
p5638
(lp5639
I127197458
aI127208468
aS'-'
aI127198570
asS'Vmn1r143'
p5640
(lp5641
I22189376
aI22190300
aS'+'
aI22189376
asS'Vmn1r142'
p5642
(lp5643
I22163117
aI22164035
aS'-'
aI22163117
asS'Emsy'
p5644
(lp5645
I98587129
aI98659557
aS'-'
aI98590689
asS'Ppm1n'
p5646
(lp5647
I19276804
aI19280193
aS'-'
aI19277197
asS'Vmn1r149'
p5648
(lp5649
I22437305
aI22438229
aS'-'
aI22437305
asS'Ccne1'
p5650
(lp5651
I38097983
aI38107490
aS'-'
aI38098514
asS'Olfr633'
p5652
(lp5653
I103946567
aI103947506
aS'+'
aI103946567
asS'Gm6579'
p5654
(lp5655
I29798230
aI29800115
aS'-'
aI29800115
asS'Gm33898'
p5656
(lp5657
I52887594
aI52976998
aS'+'
aI52976998
asS'Aldh1a3'
p5658
(lp5659
I66390891
aI66427477
aS'-'
aI66392688
asS'Hs3st4'
p5660
(lp5661
I123983180
aI124398989
aS'+'
aI123983180
asS'Trim28'
p5662
(lp5663
I13024151
aI13031032
aS'+'
aI13024718
asS'Hs3st2'
p5664
(lp5665
I121391609
aI121501768
aS'+'
aI121391628
asS'5430419D17Rik'
p5666
(lp5667
I131174401
aI131250945
aS'+'
aI131174420
asS'St8sia2'
p5668
(lp5669
I73939118
aI74013727
aS'-'
aI73943178
asS'LOC108167438'
p5670
(lp5671
I71032051
aI71035420
aS'-'
aI71035420
asS'Gm4598'
p5672
(lp5673
I24661293
aI24663109
aS'+'
aI24663109
asS'Itpkc'
p5674
(lp5675
I27207169
aI27228597
aS'-'
aI27208240
asS'Gm36286'
p5676
(lp5677
I36043595
aI36052703
aS'+'
aI36052703
asS'Clpb'
p5678
(lp5679
I101663592
aI101790721
aS'+'
aI101663810
asS'9130221H12Rik'
p5680
(lp5681
I25228722
aI25230264
aS'+'
aI25230264
asS'Ern2'
p5682
(lp5683
I122169892
aI122186231
aS'-'
aI122170065
asS'Gm4265'
p5684
(lp5685
I129962164
aI129978669
aS'+'
aI129978669
asS'Olfr558'
p5686
(lp5687
I102702322
aI102712054
aS'+'
aI102709260
asS'Olfr559'
p5688
(lp5689
I102723531
aI102724488
aS'-'
aI102723531
asS'Olfr556'
p5690
(lp5691
I102669900
aI102670923
aS'+'
aI102669921
asS'Olfr557'
p5692
(lp5693
I102698215
aI102699272
aS'+'
aI102698239
asS'Gm9999'
p5694
(lp5695
I46976631
aI46987803
aS'+'
aI46987803
asS'Olfr555'
p5696
(lp5697
I102658822
aI102659770
aS'+'
aI102658822
asS'Olfr552'
p5698
(lp5699
I102604355
aI102605309
aS'+'
aI102604355
asS'Olfr553'
p5700
(lp5701
I102614006
aI102614987
aS'-'
aI102614006
asS'0610006L08Rik'
p5702
(lp5703
I74818808
aI74853810
aS'-'
aI74853810
asS'Olfr551'
p5704
(lp5705
I102587740
aI102588819
aS'-'
aI102587793
asS'Gm10651'
p5706
(lp5707
I27948904
aI27949815
aS'-'
aI27949154
asS'Gm10302'
p5708
(lp5709
I9547710
aI9572254
aS'-'
aI9547710
asS'Lmntd2'
p5710
(lp5711
I141209989
aI141214527
aS'-'
aI141214527
asS'Trim6'
p5712
(lp5713
I104218794
aI104235152
aS'+'
aI104225557
asS'Lcmt1'
p5714
(lp5715
I123377981
aI123430358
aS'+'
aI123378148
asS'Irgq'
p5716
(lp5717
I24530647
aI24538600
aS'+'
aI24531385
asS'Wdr93'
p5718
(lp5719
I79743160
aI79785952
aS'+'
aI79749119
asS'LOC101055630'
p5720
(lp5721
I59360488
aI59412606
aS'-'
aI59368460
asS'Gm36736'
p5722
(lp5723
I121312973
aI121337213
aS'-'
aI121337213
asS'Mir326'
p5724
(lp5725
I99552268
aI99552363
aS'+'
aI99552363
asS'Hbb-bt'
p5726
(lp5727
I103812523
aI103813923
aS'-'
aI103812655
asS'Pdzd9'
p5728
(lp5729
I120658902
aI120677562
aS'-'
aI120659962
asS'Josd2'
p5730
(lp5731
I44467979
aI44471658
aS'+'
aI44468823
asS'Crx'
p5732
(lp5733
I15865946
aI15879955
aS'-'
aI15867779
asS'2900092C05Rik'
p5734
(lp5735
I12512550
aI12556323
aS'+'
aI12512578
asS'Gm31966'
p5736
(lp5737
I79935517
aI79939014
aS'+'
aI79939014
asS'Syt8'
p5738
(lp5739
I142434704
aI142440399
aS'+'
aI142436932
asS'Krtap5-1'
p5740
(lp5741
I142296376
aI142297069
aS'-'
aI142296376
asS'Olfr652'
p5742
(lp5743
I104564151
aI104565212
aS'+'
aI104564222
asS'Gm26633'
p5744
(lp5745
I79018052
aI79053323
aS'-'
aI79053323
asS'Klk1b21'
p5746
(lp5747
I44004615
aI44106583
aS'+'
aI44004638
asS'Klk1b22'
p5748
(lp5749
I44112672
aI44116922
aS'+'
aI44112701
asS'Slc8a2'
p5750
(lp5751
I16129114
aI16161063
aS'+'
aI16133844
asS'Klk1b24'
p5752
(lp5753
I44188233
aI44192455
aS'+'
aI44188272
asS'Klk1b26'
p5754
(lp5755
I44012677
aI44016969
aS'+'
aI44012719
asS'Klk1b27'
p5756
(lp5757
I44052289
aI44056712
aS'+'
aI44052340
asS'Gm33145'
p5758
(lp5759
I111282909
aI111285680
aS'-'
aI111285680
asS'Gm10013'
p5760
(lp5761
I142279856
aI142280939
aS'-'
aI142280224
asS'Gm36420'
p5762
(lp5763
I36597141
aI36603864
aS'-'
aI36603864
asS'Rpl28'
p5764
(lp5765
I4792887
aI4794562
aS'+'
aI4792922
asS'Olfr659'
p5766
(lp5767
I104670703
aI104671672
aS'+'
aI104670703
asS'Gm33148'
p5768
(lp5769
I142591658
aI142620811
aS'+'
aI142620811
asS'Tmem147'
p5770
(lp5771
I30727700
aI30729534
aS'-'
aI30727779
asS'Chst8'
p5772
(lp5773
I34674467
aI34812711
aS'-'
aI34675158
asS'Tmem145'
p5774
(lp5775
I25305994
aI25316196
aS'+'
aI25306163
asS'Tmem143'
p5776
(lp5777
I45896989
aI45917418
aS'+'
aI45897078
asS'Gm26705'
p5778
(lp5779
I99260480
aI99267218
aS'-'
aI99267218
asS'Gm26708'
p5780
(lp5781
I84152116
aI84266498
aS'+'
aI84266498
as.