(dp1
S'Gm21292'
p2
(lp3
I9131004
aI9132555
aS'-'
aI9131701
asS'Gm16501'
p4
(lp5
I2720338
aI2720674
aS'-'
aI2720338
asS'Kdm5d'
p6
(lp7
I897658
aI943813
aS'+'
aI897965
asS'Gm20842'
p8
(lp9
I72039008
aI72039692
aS'-'
aI72039008
asS'Gm20845'
p10
(lp11
I72554825
aI72581022
aS'+'
aI72556270
asS'Orly'
p12
(lp13
I78564790
aI78575409
aS'-'
aI78575409
asS'Gm28220'
p14
(lp15
I85999758
aI86002999
aS'+'
aI86002999
asS'Gm28225'
p16
(lp17
I82675726
aI82678966
aS'+'
aI82678966
asS'Rbmy'
p18
(lp19
I2830679
aI2841858
aS'+'
aI2833558
asS'Gm21861'
p20
(lp21
I58801701
aI58814582
aS'-'
aI58814582
asS'Gm21191'
p22
(lp23
I48528006
aI48551989
aS'-'
aI48528006
asS'Gm28127'
p24
(lp25
I29219691
aI29222056
aS'+'
aI29222056
asS'LOC108168549'
p26
(lp27
I68464867
aI68465685
aS'+'
aI68464867
asS'LOC108168548'
p28
(lp29
I38476256
aI38502253
aS'-'
aI38476256
asS'LOC108168547'
p30
(lp31
I28245547
aI28271527
aS'-'
aI28245547
asS'LOC108168546'
p32
(lp33
I50954847
aI50955531
aS'-'
aI50954847
asS'LOC108168545'
p34
(lp35
I35105880
aI35131848
aS'-'
aI35105880
asS'LOC108168544'
p36
(lp37
I35301253
aI35302063
aS'+'
aI35301253
asS'LOC108168543'
p38
(lp39
I63055054
aI63055872
aS'-'
aI63055188
asS'LOC108168542'
p40
(lp41
I27692627
aI27693311
aS'+'
aI27692627
asS'Gm21996'
p42
(lp43
I89700320
aI89745342
aS'-'
aI89700353
asS'LOC108168540'
p44
(lp45
I50435041
aI50435859
aS'-'
aI50435175
asS'Zfy2'
p46
(lp47
I2106174
aI2170409
aS'-'
aI2106298
asS'Zfy1'
p48
(lp49
I725206
aI797409
aS'-'
aI725414
asS'Gm21683'
p50
(lp51
I73313828
aI73314512
aS'-'
aI73313828
asS'Gm28998'
p52
(lp53
I7255233
aI7279825
aS'+'
aI7255233
asS'Gm21704'
p54
(lp55
I3367142
aI3378783
aS'-'
aI3367503
asS'Gm20931'
p56
(lp57
I55213719
aI55239862
aS'+'
aI55215143
asS'Gm20934'
p58
(lp59
I65723109
aI65723919
aS'-'
aI65723235
asS'Gm29276'
p60
(lp61
I42569201
aI42582235
aS'-'
aI42582235
asS'Gm10352'
p62
(lp63
I2900988
aI2912210
aS'+'
aI2904132
asS'Gm29426'
p64
(lp65
I44385912
aI44388191
aS'-'
aI44388191
asS'Gm20807'
p66
(lp67
I13044508
aI13045207
aS'+'
aI13044508
asS'Gm20806'
p68
(lp69
I78835720
aI78836719
aS'-'
aI78835859
asS'Gm20809'
p70
(lp71
I24456404
aI24457399
aS'+'
aI24456581
asS'LOC108168657'
p72
(lp73
I10065797
aI10066481
aS'-'
aI10065797
asS'LOC108168656'
p74
(lp75
I81203809
aI81204493
aS'-'
aI81203809
asS'LOC108168655'
p76
(lp77
I81724618
aI81725302
aS'-'
aI81724618
asS'Gm28518'
p78
(lp79
I33382664
aI33385900
aS'-'
aI33385900
asS'LOC108168653'
p80
(lp81
I28733497
aI28734181
aS'+'
aI28733497
asS'Gm28260'
p82
(lp83
I35458445
aI35461685
aS'-'
aI35461685
asS'LOC108168651'
p84
(lp85
I73239220
aI73239904
aS'-'
aI73239220
asS'LOC108168650'
p86
(lp87
I65939278
aI65939962
aS'-'
aI65939278
asS'LOC108168659'
p88
(lp89
I76575726
aI76576410
aS'-'
aI76575726
asS'LOC108168658'
p90
(lp91
I5727495
aI5728179
aS'+'
aI5727495
asS'Usp9y'
p92
(lp93
I1298960
aI1459782
aS'-'
aI1298965
asS'Gm28300'
p94
(lp95
I90603500
aI90605864
aS'-'
aI90605864
asS'Gm28301'
p96
(lp97
I90665345
aI90667625
aS'-'
aI90667625
asS'LOC108168598'
p98
(lp99
I53125396
aI53126206
aS'-'
aI53125522
asS'LOC108168599'
p100
(lp101
I23868562
aI23869372
aS'+'
aI23868562
asS'LOC108168645'
p102
(lp103
I90836781
aI90843905
aS'-'
aI90843905
asS'LOC108168590'
p104
(lp105
I48857918
aI48882421
aS'+'
aI48857918
asS'LOC108168591'
p106
(lp107
I67405710
aI67406629
aS'-'
aI67405710
asS'LOC108168592'
p108
(lp109
I78101501
aI78102420
aS'-'
aI78101501
asS'Gm21799'
p110
(lp111
I37100608
aI37101427
aS'+'
aI37100608
asS'LOC108168594'
p112
(lp113
I51126645
aI51151458
aS'+'
aI51126645
asS'LOC108168595'
p114
(lp115
I65043534
aI65068363
aS'-'
aI65043706
asS'LOC108168596'
p116
(lp117
I61945749
aI61947950
aS'-'
aI61945749
asS'LOC108168597'
p118
(lp119
I67339048
aI67341379
aS'-'
aI67339187
asS'Gm29647'
p120
(lp121
I46481180
aI46494106
aS'+'
aI46494106
asS'Gm21317'
p122
(lp123
I82225208
aI82251378
aS'+'
aI82226648
asS'Gm29081'
p124
(lp125
I34670133
aI34673374
aS'-'
aI34673374
asS'Gm28422'
p126
(lp127
I79257492
aI79260745
aS'+'
aI79260745
asS'Gm21310'
p128
(lp129
I10144860
aI10145559
aS'-'
aI10144860
asS'Gm21095'
p130
(lp131
I84097278
aI84123388
aS'+'
aI84098701
asS'Gm21094'
p132
(lp133
I32607552
aI32620428
aS'-'
aI32620428
asS'Gm29089'
p134
(lp135
I321657
aI323296
aS'-'
aI323296
asS'Gm21708'
p136
(lp137
I3399183
aI3410167
aS'-'
aI3399544
asS'Gm21258'
p138
(lp139
I52780027
aI52806250
aS'+'
aI52781461
asS'Gm21256'
p140
(lp141
I47450974
aI47463847
aS'+'
aI47463847
asS'LOC108168644'
p142
(lp143
I90824263
aI90829395
aS'-'
aI90825314
asS'Gm29286'
p144
(lp145
I43803099
aI43805379
aS'+'
aI43805379
asS'Gm21170'
p146
(lp147
I47667102
aI47691098
aS'-'
aI47667102
asS'Gm28606'
p148
(lp149
I75653225
aI75656465
aS'+'
aI75656465
asS'Gm21489'
p150
(lp151
I61317798
aI61342377
aS'-'
aI61318395
asS'Gm30737'
p152
(lp153
I14402153
aI14426602
aS'+'
aI14402153
asS'LOC108168506'
p154
(lp155
I29628677
aI29684603
aS'-'
aI29628688
asS'Gm28764'
p156
(lp157
I32494400
aI32497636
aS'-'
aI32497636
asS'LOC108168509'
p158
(lp159
I36709293
aI36735305
aS'-'
aI36709293
asS'Tspy-ps'
p160
(lp161
I1055763
aI1058868
aS'-'
aI1058868
asS'Gm31511'
p162
(lp163
I15155265
aI15168330
aS'+'
aI15168330
asS'Gm35843'
p164
(lp165
I19867878
aI19880935
aS'+'
aI19880935
asS'Gm29582'
p166
(lp167
I30725674
aI30738546
aS'-'
aI30738546
asS'Gm29740'
p168
(lp169
I23672814
aI23697377
aS'-'
aI23672814
asS'Gm21677'
p170
(lp171
I3294971
aI3306449
aS'-'
aI3295332
asS'Gm21672'
p172
(lp173
I70196849
aI70199046
aS'-'
aI70196849
asS'Gm21678'
p174
(lp175
I18742352
aI18743166
aS'-'
aI18742467
asS'Uba1y'
p176
(lp177
I818712
aI844224
aS'+'
aI820820
asS'LOC108168619'
p178
(lp179
I51605783
aI51607974
aS'-'
aI51605807
asS'LOC108168618'
p180
(lp181
I64227047
aI64229238
aS'-'
aI64227071
asS'LOC108168613'
p182
(lp183
I70706021
aI70706829
aS'-'
aI70706145
asS'LOC108168612'
p184
(lp185
I72382454
aI72383262
aS'-'
aI72382578
asS'LOC108168611'
p186
(lp187
I82787059
aI82787743
aS'-'
aI82787059
asS'LOC108168610'
p188
(lp189
I79074232
aI79074940
aS'-'
aI79074256
asS'LOC108168617'
p190
(lp191
I80681819
aI80682503
aS'-'
aI80681819
asS'LOC108168616'
p192
(lp193
I82567523
aI82568207
aS'-'
aI82567523
asS'LOC108168615'
p194
(lp195
I34781125
aI34781809
aS'+'
aI34781125
asS'LOC108168614'
p196
(lp197
I12383183
aI12383867
aS'+'
aI12383183
asS'Gm20910'
p198
(lp199
I21096897
aI21097711
aS'+'
aI21096897
asS'LOC102639191'
p200
(lp201
I31621864
aI31634741
aS'-'
aI31634741
asS'Gm20858'
p202
(lp203
I25727934
aI25753940
aS'-'
aI25753940
asS'Gm20857'
p204
(lp205
I25214847
aI25240906
aS'-'
aI25240906
asS'Gm20854'
p206
(lp207
I85528522
aI85529519
aS'-'
aI85528659
asS'Gm20852'
p208
(lp209
I66739796
aI66742170
aS'-'
aI66739926
asS'Gm20850'
p210
(lp211
I75715303
aI75741507
aS'+'
aI75716745
asS'Gm20851'
p212
(lp213
I18208480
aI18209294
aS'+'
aI18208480
asS'Gm21756'
p214
(lp215
I33246465
aI33270466
aS'+'
aI33246465
asS'Gm21454'
p216
(lp217
I13376402
aI13378797
aS'+'
aI13377979
asS'Gm21758'
p218
(lp219
I59395279
aI59408253
aS'+'
aI59408253
asS'Eif2s3y'
p220
(lp221
I1010577
aI1046811
aS'+'
aI1010616
asS'Gm28840'
p222
(lp223
I70801930
aI70812605
aS'-'
aI70812605
asS'LOC108168578'
p224
(lp225
I8069309
aI8069993
aS'-'
aI8069309
asS'LOC108168579'
p226
(lp227
I84562710
aI84563394
aS'-'
aI84562710
asS'LOC108168572'
p228
(lp229
I28342886
aI28343910
aS'-'
aI28343367
asS'LOC108168573'
p230
(lp231
I27823500
aI27824524
aS'-'
aI27823981
asS'LOC108168570'
p232
(lp233
I49842791
aI49845127
aS'-'
aI49842926
asS'LOC108168571'
p234
(lp235
I83789840
aI83790566
aS'-'
aI83789882
asS'LOC108168576'
p236
(lp237
I75539714
aI75540398
aS'-'
aI75539714
asS'LOC108168577'
p238
(lp239
I85888961
aI85889645
aS'-'
aI85888961
asS'LOC108168574'
p240
(lp241
I49317941
aI49320270
aS'-'
aI49318069
asS'LOC108168575'
p242
(lp243
I56018107
aI56020480
aS'-'
aI56018234
asS'Gm28597'
p244
(lp245
I41242209
aI41255476
aS'+'
aI41255476
asS'Gm20921'
p246
(lp247
I64858668
aI64859352
aS'-'
aI64858668
asS'Gm28987'
p248
(lp249
I28908996
aI28911276
aS'-'
aI28911276
asS'Gm20928'
p250
(lp251
I14029584
aI14030398
aS'-'
aI14029699
asS'Gm20929'
p252
(lp253
I53843930
aI53870109
aS'+'
aI53845367
asS'4932431L22Rik'
p254
(lp255
I70367449
aI70370577
aS'+'
aI70370577
asS'Sly'
p256
(lp257
I57187205
aI57213358
aS'+'
aI57188630
asS'Gm20816'
p258
(lp259
I68537954
aI68540286
aS'+'
aI68539471
asS'Gm20815'
p260
(lp261
I8832248
aI8835169
aS'-'
aI8832955
asS'Gm28938'
p262
(lp263
I28330277
aI28333513
aS'-'
aI28333513
asS'Gm20819'
p264
(lp265
I88534802
aI88578064
aS'+'
aI88541511
asS'Gm35134'
p266
(lp267
I19114449
aI19138897
aS'+'
aI19114449
asS'LOC108168662'
p268
(lp269
I65205324
aI65206008
aS'-'
aI65205324
asS'LOC108168663'
p270
(lp271
I69017823
aI69018507
aS'+'
aI69017823
asS'LOC108168660'
p272
(lp273
I52607637
aI52608321
aS'-'
aI52607637
asS'LOC108168661'
p274
(lp275
I46757398
aI46758082
aS'+'
aI46757398
asS'LOC108168666'
p276
(lp277
I86869371
aI86870055
aS'-'
aI86869371
asS'LOC108168667'
p278
(lp279
I86365739
aI86366423
aS'-'
aI86365739
asS'LOC108168664'
p280
(lp281
I34486833
aI34487517
aS'+'
aI34486833
asS'LOC108168665'
p282
(lp283
I86943635
aI86944319
aS'-'
aI86943635
asS'LOC108168668'
p284
(lp285
I83852375
aI83853059
aS'-'
aI83852375
asS'LOC108168669'
p286
(lp287
I7167093
aI7167777
aS'-'
aI7167093
asS'Gm28504'
p288
(lp289
I43160241
aI43173182
aS'-'
aI43173182
asS'Gm28074'
p290
(lp291
I59022159
aI59025399
aS'-'
aI59025399
asS'Gm28073'
p292
(lp293
I58956280
aI58958645
aS'-'
aI58958645
asS'LOC108168589'
p294
(lp295
I64012312
aI64013120
aS'-'
aI64012436
asS'LOC108168588'
p296
(lp297
I51391037
aI51391845
aS'-'
aI51391161
asS'LOC108168583'
p298
(lp299
I25482700
aI25483408
aS'+'
aI25482700
asS'LOC108168582'
p300
(lp301
I81457991
aI81483890
aS'+'
aI81459428
asS'LOC108168581'
p302
(lp303
I23306766
aI23307474
aS'+'
aI23306766
asS'LOC108168580'
p304
(lp305
I72819646
aI72821815
aS'-'
aI72819646
asS'LOC108168587'
p306
(lp307
I67948841
aI67949651
aS'+'
aI67948841
asS'LOC108168586'
p308
(lp309
I23097864
aI23098572
aS'+'
aI23097864
asS'LOC108168585'
p310
(lp311
I25995820
aI25996528
aS'+'
aI25995820
asS'LOC108168584'
p312
(lp313
I24969605
aI24970313
aS'+'
aI24969605
asS'Gm20867'
p314
(lp315
I77960878
aI77963204
aS'-'
aI77961006
asS'Gm20865'
p316
(lp317
I21241591
aI21243822
aS'+'
aI21243091
asS'Ddx3y'
p318
(lp319
I1260715
aI1286628
aS'-'
aI1263287
asS'Gm20868'
p320
(lp321
I71297831
aI71300148
aS'-'
aI71300148
asS'Gm28207'
p322
(lp323
I56125272
aI56128511
aS'+'
aI56128511
asS'Gm21248'
p324
(lp325
I79958397
aI79959081
aS'-'
aI79958397
asS'Gm21245'
p326
(lp327
I52261942
aI52262626
aS'-'
aI52261942
asS'Gm4064'
p328
(lp329
I2785164
aI2796224
aS'-'
aI2785525
asS'Gm21241'
p330
(lp331
I43953618
aI43977638
aS'+'
aI43953618
asS'Gm21242'
p332
(lp333
I79664747
aI79667079
aS'-'
aI79664886
asS'Gm21064'
p334
(lp335
I4341126
aI4381724
aS'+'
aI4342543
asS'Gm10256'
p336
(lp337
I2862138
aI2873496
aS'+'
aI2865209
asS'LOC108168538'
p338
(lp339
I28443742
aI28444552
aS'+'
aI28443742
asS'LOC108168539'
p340
(lp341
I51680405
aI51681223
aS'-'
aI51680539
asS'LOC108168536'
p342
(lp343
I61102261
aI61115133
aS'+'
aI61115133
asS'LOC108168537'
p344
(lp345
I27924317
aI27925128
aS'+'
aI27924317
asS'LOC108168534'
p346
(lp347
I90741967
aI90750205
aS'-'
aI90742026
asS'LOC108168535'
p348
(lp349
I60241216
aI60254114
aS'+'
aI60254114
asS'LOC108168532'
p350
(lp351
I77320429
aI77345055
aS'+'
aI77320429
asS'LOC108168533'
p352
(lp353
I77694231
aI77718842
aS'+'
aI77694231
asS'LOC108168530'
p354
(lp355
I72221060
aI72245698
aS'-'
aI72221060
asS'Gm21405'
p356
(lp357
I58574463
aI58599040
aS'+'
aI58574463
asS'Gm21409'
p358
(lp359
I84746674
aI84772755
aS'+'
aI84748106
asS'Gm20747'
p360
(lp361
I53415956
aI53418307
aS'-'
aI53416091
asS'LOC108168541'
p362
(lp363
I26947543
aI26948227
aS'+'
aI26947543
asS'Gm29386'
p364
(lp365
I35190745
aI35193986
aS'-'
aI35193986
asS'Gm21660'
p366
(lp367
I18623063
aI18623762
aS'-'
aI18623063
asS'LOC108168626'
p368
(lp369
I26508823
aI26509507
aS'+'
aI26508823
asS'LOC108168627'
p370
(lp371
I27253915
aI27254599
aS'+'
aI27253915
asS'LOC108168624'
p372
(lp373
I72894023
aI72895204
aS'-'
aI72894520
asS'LOC108168625'
p374
(lp375
I55557520
aI55559830
aS'-'
aI55557659
asS'LOC108168622'
p376
(lp377
I22513859
aI22514670
aS'+'
aI22513859
asS'LOC108168623'
p378
(lp379
I72967528
aI72968709
aS'-'
aI72968025
asS'LOC108168620'
p380
(lp381
I85167986
aI85168797
aS'-'
aI85168113
asS'LOC108168621'
p382
(lp383
I80463118
aI80463929
aS'-'
aI80463245
asS'Gm20917'
p384
(lp385
I79148792
aI79149787
aS'-'
aI79148927
asS'Gm20916'
p386
(lp387
I79319546
aI79345666
aS'+'
aI79320987
asS'LOC108168628'
p388
(lp389
I27998839
aI27999523
aS'+'
aI27998839
asS'LOC108168629'
p390
(lp391
I81799283
aI81799967
aS'-'
aI81799283
asS'Gm29255'
p392
(lp393
I73425314
aI73428553
aS'+'
aI73428553
asS'Gm20828'
p394
(lp395
I11197161
aI11197848
aS'-'
aI11197161
asS'Gm28576'
p396
(lp397
I7724388
aI7749003
aS'+'
aI7724388
asS'Gm20823'
p398
(lp399
I62462509
aI62464845
aS'-'
aI62462644
asS'Gm20822'
p400
(lp401
I15882558
aI15883245
aS'-'
aI15882558
asS'Gm20820'
p402
(lp403
I86061802
aI86087758
aS'+'
aI86063193
asS'Gm20827'
p404
(lp405
I41375730
aI41376429
aS'-'
aI41375730
asS'Gm20826'
p406
(lp407
I7636215
aI7636973
aS'-'
aI7636289
asS'Gm28326'
p408
(lp409
I58426655
aI58429889
aS'+'
aI58429889
asS'Gm6026'
p410
(lp411
I2599098
aI2599434
aS'+'
aI2599098
asS'Sry'
p412
(lp413
I2662470
aI2663658
aS'-'
aI2662470
asS'Gm33272'
p414
(lp415
I90793686
aI90806846
aS'+'
aI90806846
asS'Gm21440'
p416
(lp417
I13252390
aI13254832
aS'+'
aI13254008
asS'Gm21658'
p418
(lp419
I78035030
aI78035714
aS'-'
aI78035030
asS'Gm28850'
p420
(lp421
I40431917
aI40434282
aS'-'
aI40434282
asS'LOC108168565'
p422
(lp423
I54185856
aI54188230
aS'-'
aI54185986
asS'LOC108168564'
p424
(lp425
I52445858
aI52470686
aS'-'
aI52446030
asS'LOC108168567'
p426
(lp427
I84440153
aI84440964
aS'-'
aI84440280
asS'LOC108168566'
p428
(lp429
I86434083
aI86434894
aS'-'
aI86434210
asS'LOC108168561'
p430
(lp431
I73535546
aI73536230
aS'-'
aI73535546
asS'LOC108168560'
p432
(lp433
I30423566
aI30425930
aS'+'
aI30425930
asS'LOC108168563'
p434
(lp435
I80756350
aI80757034
aS'-'
aI80756350
asS'LOC108168562'
p436
(lp437
I74300211
aI74300895
aS'-'
aI74300211
asS'Gm20795'
p438
(lp439
I40806530
aI40807229
aS'+'
aI40806530
asS'Gm20794'
p440
(lp441
I60456887
aI60481481
aS'-'
aI60457484
asS'LOC108168569'
p442
(lp443
I57016705
aI57017520
aS'-'
aI57016836
asS'LOC108168568'
p444
(lp445
I55043072
aI55044004
aS'-'
aI55043320
asS'Gm20793'
p446
(lp447
I40682045
aI40682744
aS'+'
aI40682045
asS'Gm20792'
p448
(lp449
I48311869
aI48324745
aS'+'
aI48324745
asS'LOC108167378'
p450
(lp451
I75197281
aI75221863
aS'+'
aI75197281
asS'Gm20777'
p452
(lp453
I10750127
aI10750826
aS'-'
aI10750127
asS'Gm20898'
p454
(lp455
I36090006
aI36092408
aS'+'
aI36091590
asS'Gm3376'
p456
(lp457
I3771672
aI3783271
aS'+'
aI3774804
asS'Gm20773'
p458
(lp459
I13495641
aI13496455
aS'+'
aI13495641
asS'Gm20772'
p460
(lp461
I17876354
aI17877053
aS'+'
aI17876354
asS'Uty'
p462
(lp463
I1085186
aI1245771
aS'-'
aI1087652
asS'Gm29565'
p464
(lp465
I78150851
aI78154091
aS'+'
aI78154091
asS'Ssty1'
p466
(lp467
I18089166
aI18091551
aS'+'
aI18090733
asS'Ssty2'
p468
(lp469
I67045742
aI67048072
aS'-'
aI67045882
asS'Gm29215'
p470
(lp471
I40367716
aI40370075
aS'-'
aI40370075
asS'LOC108168671'
p472
(lp473
I75025391
aI75026075
aS'-'
aI75025391
asS'LOC108168670'
p474
(lp475
I74788962
aI74789646
aS'-'
aI74788962
asS'LOC105242410'
p476
(lp477
I61130386
aI61134209
aS'+'
aI61130624
asS'Gm28284'
p478
(lp479
I58688585
aI58691821
aS'-'
aI58691821
asS'Gm28280'
p480
(lp481
I43865260
aI43867624
aS'+'
aI43867624
asS'Gm28365'
p482
(lp483
I87054716
aI87057954
aS'+'
aI87057954
asS'Gm21366'
p484
(lp485
I22835126
aI22861274
aS'-'
aI22835281
asS'Gm20877'
p486
(lp487
I17093878
aI17095887
aS'+'
aI17095073
asS'Gm20870'
p488
(lp489
I71693466
aI71718031
aS'+'
aI71693466
asS'Gm20871'
p490
(lp491
I59606709
aI59632758
aS'-'
aI59632758
asS'Gm20873'
p492
(lp493
I6268724
aI6269542
aS'+'
aI6268724
asS'Gm21379'
p494
(lp495
I12688109
aI12690067
aS'+'
aI12688136
asS'Gm36891'
p496
(lp497
I20697421
aI20710303
aS'+'
aI20710303
asS'Gm20879'
p498
(lp499
I89999545
aI90000528
aS'+'
aI89999716
asS'Gm21118'
p500
(lp501
I70271440
aI70272124
aS'-'
aI70271440
asS'LOC108168528'
p502
(lp503
I71223231
aI71224005
aS'-'
aI71223231
asS'Erdr1'
p504
(lp505
I90785441
aI90816465
aS'+'
aI90816465
asS'LOC108168521'
p506
(lp507
I62980391
aI62981165
aS'-'
aI62980391
asS'LOC108168520'
p508
(lp509
I62192288
aI62216942
aS'+'
aI62192288
asS'LOC108168525'
p510
(lp511
I68268846
aI68293479
aS'-'
aI68268846
asS'LOC108168524'
p512
(lp513
I67606849
aI67631468
aS'-'
aI67606849
asS'LOC108168527'
p514
(lp515
I70443304
aI70467966
aS'+'
aI70443304
asS'Gm21180'
p516
(lp517
I77074044
aI77076246
aS'-'
aI77074044
asS'Gm20738'
p518
(lp519
I37957819
aI37960138
aS'+'
aI37959326
asS'Gm29393'
p520
(lp521
I88994449
aI88997689
aS'+'
aI88997689
asS'Gm20737'
p522
(lp523
I10533620
aI10534428
aS'-'
aI10533729
asS'Gm20736'
p524
(lp525
I65377689
aI65403913
aS'+'
aI65379123
asS'LOC108168558'
p526
(lp527
I51853543
aI51878105
aS'+'
aI51853543
asS'LOC108168559'
p528
(lp529
I87116851
aI87142720
aS'+'
aI87118245
asS'LOC108168554'
p530
(lp531
I21166082
aI21166766
aS'+'
aI21166082
asS'LOC108168555'
p532
(lp533
I35895524
aI35920106
aS'-'
aI35895524
asS'Gm28133'
p534
(lp535
I66079009
aI66082248
aS'-'
aI66082248
asS'LOC108168557'
p536
(lp537
I63229850
aI63254453
aS'+'
aI63229850
asS'LOC108168550'
p538
(lp539
I62020394
aI62021078
aS'-'
aI62020394
asS'LOC108168551'
p540
(lp541
I27495921
aI27521935
aS'-'
aI27495921
asS'LOC108168552'
p542
(lp543
I26750800
aI26776814
aS'-'
aI26750800
asS'LOC108168553'
p544
(lp545
I50609674
aI50634266
aS'+'
aI50609674
asS'Gm21693'
p546
(lp547
I3326745
aI3345329
aS'-'
aI3327106
asS'LOC108168556'
p548
(lp549
I77148604
aI77149422
aS'-'
aI77148738
asS'Srsy'
p550
(lp551
I17935718
aI17937324
aS'-'
aI17937324
asS'LOC108168631'
p552
(lp553
I53050778
aI53051486
aS'-'
aI53050802
asS'LOC108168630'
p554
(lp555
I65648476
aI65649184
aS'-'
aI65648500
asS'LOC108168632'
p556
(lp557
I68023541
aI68024225
aS'+'
aI68023541
asS'LOC108168635'
p558
(lp559
I48669647
aI48670459
aS'-'
aI48669775
asS'LOC108168634'
p560
(lp561
I61459903
aI61460715
aS'-'
aI61460031
asS'LOC108168637'
p562
(lp563
I10322750
aI10323434
aS'-'
aI10322750
asS'LOC108168639'
p564
(lp565
I48339998
aI48343821
aS'+'
aI48340236
asS'LOC108168638'
p566
(lp567
I6916433
aI6917118
aS'-'
aI6916433
asS'Gm20906'
p568
(lp569
I87552392
aI87575495
aS'+'
aI87552392
asS'Gm20907'
p570
(lp571
I64301780
aI64302598
aS'-'
aI64301914
asS'Gm20901'
p572
(lp573
I38774735
aI38800793
aS'-'
aI38775332
asS'Gapdh-ps15'
p574
(lp575
I38619727
aI38620971
aS'+'
aI38619782
asS'Gm20903'
p576
(lp577
I73669296
aI73695445
aS'+'
aI73670733
asS'Gm29360'
p578
(lp579
I38935103
aI38937383
aS'-'
aI38937383
asS'Rbm31y'
p580
(lp581
I17400760
aI17402718
aS'+'
aI17400787
asS'LOC105247282'
p582
(lp583
I8257891
aI8283913
aS'+'
aI8259329
asS'LOC105247287'
p584
(lp585
I83536125
aI83556933
aS'+'
aI83537566
asS'Gm39552'
p586
(lp587
I1114066
aI1120066
aS'-'
aI1120066
asS'Gm39555'
p588
(lp589
I2346568
aI2348631
aS'+'
aI2348631
asS'LOC108168654'
p590
(lp591
I88804769
aI88805453
aS'-'
aI88804769
asS'Gm29024'
p592
(lp593
I36905313
aI36906132
aS'+'
aI36905313
asS'Gm29027'
p594
(lp595
I36794109
aI36797345
aS'-'
aI36797345
asS'LOC108168652'
p596
(lp597
I23381503
aI23382187
aS'+'
aI23381503
asS'Gm20838'
p598
(lp599
I33530259
aI33543149
aS'-'
aI33543149
asS'Gm28522'
p600
(lp601
I33740210
aI33742489
aS'-'
aI33742489
asS'LOC108168646'
p602
(lp603
I50880175
aI50880859
aS'-'
aI50880175
asS'LOC108168647'
p604
(lp605
I63500914
aI63501598
aS'-'
aI63500914
asS'LOC108168640'
p606
(lp607
I33511165
aI33514987
aS'-'
aI33511293
asS'LOC108168641'
p608
(lp609
I90429392
aI90433213
aS'+'
aI90429630
asS'LOC108168642'
p610
(lp611
I5045444
aI5046128
aS'+'
aI5045444
asS'LOC108168643'
p612
(lp613
I30155237
aI30157598
aS'+'
aI30157598
asS'Gm20831'
p614
(lp615
I17965159
aI17967601
aS'+'
aI17966777
asS'Gm20833'
p616
(lp617
I17757508
aI17758207
aS'+'
aI17757508
asS'LOC108168648'
p618
(lp619
I53341570
aI53342254
aS'-'
aI53341570
asS'LOC108168649'
p620
(lp621
I35644172
aI35644856
aS'+'
aI35644172
asS'Gm20836'
p622
(lp623
I13910342
aI13911041
aS'-'
aI13910342
asS'Gm20837'
p624
(lp625
I90401274
aI90414119
aS'+'
aI90414119
asS'Gm21835'
p626
(lp627
I37430479
aI37431163
aS'+'
aI37430479
asS'Gm21425'
p628
(lp629
I13163581
aI13164280
aS'+'
aI13163581
asS'Gm28617'
p630
(lp631
I40494487
aI40496767
aS'-'
aI40496767
asS'Gm21737'
p632
(lp633
I31373425
aI31397419
aS'+'
aI31373425
asS'Gm21739'
p634
(lp635
I44251475
aI44264429
aS'-'
aI44264429
asS'LOC108168607'
p636
(lp637
I34561733
aI34562417
aS'+'
aI34561733
asS'Gm21647'
p638
(lp639
I34285090
aI34316212
aS'+'
aI34285090
asS'Gm21943'
p640
(lp641
I57531416
aI57533726
aS'-'
aI57531555
asS'LOC108168510'
p642
(lp643
I37233615
aI37259618
aS'-'
aI37233615
asS'LOC108168511'
p644
(lp645
I40290985
aI40315451
aS'-'
aI40290985
asS'LOC108168515'
p646
(lp647
I49572578
aI49597230
aS'+'
aI49572578
asS'LOC108168516'
p648
(lp649
I50360381
aI50361155
aS'-'
aI50360381
asS'Gm20908'
p650
(lp651
I64474689
aI64499257
aS'+'
aI64474689
asS'G530011O06Rik'
p652
(lp653
I90751139
aI90755050
aS'-'
aI90755050
asS'Gm29204'
p654
(lp655
I61224997
aI61228233
aS'+'
aI61228233
asS'1700020D14Rik'
p656
(lp657
I206149
aI207789
aS'+'
aI207789
asS'LOC108168593'
p658
(lp659
I63747921
aI63772733
aS'+'
aI63747921
asS'LOC108168608'
p660
(lp661
I69352609
aI69353419
aS'+'
aI69352609
asS'LOC108168609'
p662
(lp663
I23031064
aI23032047
aS'+'
aI23031234
asS'LOC108168600'
p664
(lp665
I69982748
aI69983559
aS'-'
aI69982875
asS'LOC108168601'
p666
(lp667
I74011349
aI74012160
aS'-'
aI74011476
asS'LOC108168602'
p668
(lp669
I54968753
aI54969437
aS'-'
aI54968753
asS'LOC108168603'
p670
(lp671
I69092806
aI69093490
aS'+'
aI69092806
asS'LOC108168604'
p672
(lp673
I69625834
aI69626518
aS'-'
aI69625834
asS'LOC108168605'
p674
(lp675
I76500783
aI76501467
aS'-'
aI76500783
asS'LOC108168606'
p676
(lp677
I78761354
aI78762038
aS'-'
aI78761354
asS'Gm28486'
p678
(lp679
I31290380
aI31292742
aS'+'
aI31292742
asS'Gm28357'
p680
(lp681
I4885199
aI4887558
aS'-'
aI4887558
asS'Gm29338'
p682
(lp683
I84677586
aI84680826
aS'+'
aI84680826
asS'Gm28291'
p684
(lp685
I54290513
aI54293753
aS'+'
aI54293753
asS'Gm29504'
p686
(lp687
I90275223
aI90277501
aS'+'
aI90277501
as.