(dp1
S'NPIPB10P'
p2
(lp3
I29038655
aI29052726
aS'+'
asS'PABPN1L'
p4
(lp5
I88863333
aI88866618
aS'-'
asS'AC010287.1'
p6
(lp7
I58597589
aI58597945
aS'-'
asS'RPS27P26'
p8
(lp9
I70444674
aI70444912
aS'-'
asS'RPS27P27'
p10
(lp11
I59088837
aI59089091
aS'+'
asS'AC010547.5'
p12
(lp13
I71447600
aI71489311
aS'-'
asS'AC010547.4'
p14
(lp15
I71430262
aI71433376
aS'-'
asS'JPH3'
p16
(lp17
I87601835
aI87697927
aS'+'
asS'RBM22P12'
p18
(lp19
I31680847
aI31682101
aS'+'
asS'MTND5P34'
p20
(lp21
I55007982
aI55008306
aS'+'
asS'MTND5P33'
p22
(lp23
I10720015
aI10721464
aS'-'
asS'COX6CP1'
p24
(lp25
I11903923
aI11904137
aS'-'
asS'ANKS4B'
p26
(lp27
I21233665
aI21253845
aS'+'
asS'PMM2'
p28
(lp29
I8788823
aI8847868
aS'+'
asS'AC002519.2'
p30
(lp31
I31802947
aI31807973
aS'+'
asS'ADAMTS18'
p32
(lp33
I77282128
aI77435114
aS'-'
asS'TP53TG3GP'
p34
(lp35
I35207903
aI35208236
aS'-'
asS'SOD1P2'
p36
(lp37
I51107571
aI51108021
aS'+'
asS'NDUFAB1'
p38
(lp39
I23581002
aI23596356
aS'-'
asS'HSPE1P7'
p40
(lp41
I74612596
aI74613221
aS'-'
asS'SMG1'
p42
(lp43
I18804853
aI18926454
aS'-'
asS'CLDN9'
p44
(lp45
I3012456
aI3014505
aS'+'
asS'HBQ1'
p46
(lp47
I180453
aI181181
aS'+'
asS'PPP4C'
p48
(lp49
I30075990
aI30085377
aS'+'
asS'ZCCHC14'
p50
(lp51
I87406246
aI87492045
aS'-'
asS'AC130464.1'
p52
(lp53
I26354796
aI26358355
aS'-'
asS'AC105429.2'
p54
(lp55
I87467138
aI87467654
aS'+'
asS'NOB1'
p56
(lp57
I69741867
aI69754940
aS'-'
asS'SLC5A11'
p58
(lp59
I24845841
aI24911628
aS'+'
asS'SPN'
p60
(lp61
I29663255
aI29670876
aS'+'
asS'CKBP1'
p62
(lp63
I46842632
aI46844618
aS'-'
asS'IRX5'
p64
(lp65
I54930862
aI54934485
aS'+'
asS'ZC3H18'
p66
(lp67
I88570381
aI88631966
aS'+'
asS'FGFR3P5'
p68
(lp69
I35232412
aI35235984
aS'-'
asS'IRX6'
p70
(lp71
I55323760
aI55330760
aS'+'
asS'VAC14'
p72
(lp73
I70687439
aI70801161
aS'-'
asS'AC009120.1'
p74
(lp75
I74312609
aI74313390
aS'-'
asS'IRX3'
p76
(lp77
I54283304
aI54286763
aS'-'
asS'TMEM186'
p78
(lp79
I8780384
aI8797642
aS'-'
asS'DOC2A'
p80
(lp81
I30010919
aI30023219
aS'-'
asS'TAF1C'
p82
(lp83
I84177847
aI84187070
aS'-'
asS'SLC38A7'
p84
(lp85
I58665109
aI58685104
aS'-'
asS'ZNF689'
p86
(lp87
I30604618
aI30624012
aS'-'
asS'CYCSP39'
p88
(lp89
I25454339
aI25454647
aS'-'
asS'AC074143.1'
p90
(lp91
I67163385
aI67165808
aS'+'
asS'AC010547.7'
p92
(lp93
I71420483
aI71421518
aS'+'
asS'AC009122.1'
p94
(lp95
I75714224
aI75726442
aS'-'
asS'NUP93'
p96
(lp97
I56730105
aI56844769
aS'+'
asS'SLC38A8'
p98
(lp99
I84009784
aI84042157
aS'-'
asS'AC009117.1'
p100
(lp101
I82434828
aI82435381
aS'+'
asS'ZNF48'
p102
(lp103
I30378314
aI30399927
aS'+'
asS'APRT'
p104
(lp105
I88809339
aI88811944
aS'-'
asS'AC127455.1'
p106
(lp107
I87945058
aI87945202
aS'-'
asS'AC109462.1'
p108
(lp109
I55352721
aI55353088
aS'-'
asS'TGFB1I1'
p110
(lp111
I31472059
aI31477958
aS'+'
asS'IQCK'
p112
(lp113
I19716456
aI19858467
aS'+'
asS'VN1R3'
p114
(lp115
I31807926
aI31808844
aS'-'
asS'GLIS2'
p116
(lp117
I4314761
aI4339597
aS'+'
asS'RAB40C'
p118
(lp119
I589357
aI629271
aS'+'
asS'PRR25'
p120
(lp121
I805443
aI813861
aS'+'
asS'COX6A2'
p122
(lp123
I31427731
aI31428428
aS'-'
asS'FRG2HP'
p124
(lp125
I35335277
aI35336889
aS'-'
asS'AC018552.1'
p126
(lp127
I57713782
aI57714957
aS'+'
asS'ZKSCAN2'
p128
(lp129
I25236001
aI25257931
aS'-'
asS'ZNF174'
p130
(lp131
I3401420
aI3409370
aS'+'
asS'RPS15AP34'
p132
(lp133
I63350763
aI63351149
aS'-'
asS'AC106785.1'
p134
(lp135
I35722268
aI35722529
aS'-'
asS'LITAF'
p136
(lp137
I11556557
aI11636381
aS'-'
asS'ERI2'
p138
(lp139
I20796340
aI20900349
aS'-'
asS'AC007346.1'
p140
(lp141
I52942139
aI52943005
aS'+'
asS'ATF7IP2'
p142
(lp143
I10386055
aI10483638
aS'+'
asS'MT1A'
p144
(lp145
I56638666
aI56640087
aS'+'
asS'FUS'
p146
(lp147
I31180110
aI31194871
aS'+'
asS'SNRNP25'
p148
(lp149
I53010
aI57669
aS'+'
asS'RBM22P13'
p150
(lp151
I31863633
aI31864876
aS'+'
asS'EEF2KMT'
p152
(lp153
I5084304
aI5097808
aS'-'
asS'ZNF778'
p154
(lp155
I89217710
aI89237071
aS'+'
asS'MAF'
p156
(lp157
I79585843
aI79599902
aS'-'
asS'ATMIN'
p158
(lp159
I81035847
aI81047358
aS'+'
asS'ZSCAN10'
p160
(lp161
I3088890
aI3099317
aS'-'
asS'NPW'
p162
(lp163
I2009926
aI2020592
aS'+'
asS'TUBB8P7'
p164
(lp165
I90093154
aI90096354
aS'+'
asS'AC133485.4'
p166
(lp167
I32189262
aI32189481
aS'+'
asS'AC104151.1'
p168
(lp169
I76553417
aI76819624
aS'+'
asS'CTCF'
p170
(lp171
I67562407
aI67639183
aS'+'
asS'ZNF771'
p172
(lp173
I30407629
aI30431108
aS'+'
asS'AC018554.3'
p174
(lp175
I60358455
aI60359480
aS'-'
asS'MMP15'
p176
(lp177
I58025566
aI58046901
aS'+'
asS'AC136624.4'
p178
(lp179
I16260866
aI16261235
aS'-'
asS'NTN3'
p180
(lp181
I2471499
aI2474145
aS'+'
asS'ATP2A1'
p182
(lp183
I28878405
aI28904464
aS'+'
asS'AC136624.1'
p184
(lp185
I16094192
aI16095209
aS'-'
asS'COX6CP16'
p186
(lp187
I85278820
aI85279035
aS'-'
asS'NAA60'
p188
(lp189
I3443611
aI3486963
aS'+'
asS'AARS'
p190
(lp191
I70252295
aI70289543
aS'-'
asS'AC138904.2'
p192
(lp193
I28341437
aI28341543
aS'+'
asS'TANGO6'
p194
(lp195
I68843606
aI69085180
aS'+'
asS'GTF3C1'
p196
(lp197
I27460613
aI27549913
aS'-'
asS'AC023827.1'
p198
(lp199
I48849919
aI48850015
aS'-'
asS'EDC4'
p200
(lp201
I67873023
aI67884503
aS'+'
asS'AC034105.5'
p202
(lp203
I31952160
aI31952473
aS'+'
asS'AC034105.4'
p204
(lp205
I31963803
aI31964079
aS'+'
asS'AC034105.3'
p206
(lp207
I31894542
aI31894983
aS'-'
asS'AC034105.2'
p208
(lp209
I31870887
aI31871124
aS'-'
asS'PMFBP1'
p210
(lp211
I72119101
aI72172450
aS'-'
asS'ZG16B'
p212
(lp213
I2830253
aI2839585
aS'+'
asS'AC145285.8'
p214
(lp215
I28773824
aI28777534
aS'-'
asS'AC096996.1'
p216
(lp217
I48059671
aI48059995
aS'-'
asS'AC009108.1'
p218
(lp219
I86525457
aI86526252
aS'+'
asS'AC133065.3'
p220
(lp221
I10840384
aI10841544
aS'-'
asS'AGGF1P6'
p222
(lp223
I35489237
aI35490212
aS'+'
asS'MTHFSD'
p224
(lp225
I86530176
aI86555210
aS'-'
asS'XPO6'
p226
(lp227
I28097995
aI28211869
aS'-'
asS'BCAP31P2'
p228
(lp229
I32869985
aI32873128
aS'+'
asS'AGGF1P9'
p230
(lp231
I35347385
aI35348297
aS'+'
asS'AGGF1P8'
p232
(lp233
I35258630
aI35259629
aS'+'
asS'KATNB1'
p234
(lp235
I57735730
aI57757250
aS'+'
asS'TPSP2'
p236
(lp237
I1286351
aI1288837
aS'-'
asS'PAM16'
p238
(lp239
I4331549
aI4351265
aS'-'
asS'ANKS3'
p240
(lp241
I4696510
aI4734377
aS'-'
asS'ABCA17P'
p242
(lp243
I2340922
aI2426699
aS'+'
asS'AC093249.4'
p244
(lp245
I30587662
aI30587920
aS'-'
asS'AC018552.3'
p246
(lp247
I57603137
aI57603697
aS'+'
asS'FBXL16'
p248
(lp249
I692500
aI705829
aS'-'
asS'FBXL19'
p250
(lp251
I30923071
aI30948776
aS'+'
asS'RRN3P2'
p252
(lp253
I29074976
aI29116718
aS'+'
asS'RRN3P1'
p254
(lp255
I21799668
aI21820384
aS'-'
asS'MAP1LC3B'
p256
(lp257
I87391800
aI87404779
aS'+'
asS'AC079414.2'
p258
(lp259
I78055824
aI78056927
aS'-'
asS'ABCA3'
p260
(lp261
I2275881
aI2340746
aS'-'
asS'EEF2K'
p262
(lp263
I22206282
aI22288732
aS'+'
asS'Z97634.1'
p264
(lp265
I382097
aI392960
aS'+'
asS'MT1JP'
p266
(lp267
I56635739
aI56637086
aS'+'
asS'PRSS53'
p268
(lp269
I31083437
aI31089628
aS'-'
asS'NMRAL1'
p270
(lp271
I4474684
aI4495763
aS'-'
asS'AC133539.2'
p272
(lp273
I87892955
aI87893735
aS'+'
asS'AC136443.1'
p274
(lp275
I14727282
aI14733347
aS'-'
asS'DNASE1L2'
p276
(lp277
I2235816
aI2238711
aS'+'
asS'AC132186.1'
p278
(lp279
I66450998
aI66451351
aS'-'
asS'AC018695.5'
p280
(lp281
I85814425
aI85815062
aS'-'
asS'C16orf52'
p282
(lp283
I22008209
aI22087534
aS'+'
asS'AKTIP'
p284
(lp285
I53491040
aI53503251
aS'-'
asS'ARHGAP23P1'
p286
(lp287
I33907419
aI33937024
aS'-'
asS'AC138869.1'
p288
(lp289
I33154352
aI33154475
aS'-'
asS'AC092120.3'
p290
(lp291
I89458870
aI89459437
aS'+'
asS'CHST5'
p292
(lp293
I75528535
aI75535170
aS'-'
asS'CHST4'
p294
(lp295
I71525233
aI71538746
aS'+'
asS'WWOX'
p296
(lp297
I78099413
aI79212667
aS'+'
asS'CHST6'
p298
(lp299
I75472052
aI75495028
aS'-'
asS'ITGAX'
p300
(lp301
I31355134
aI31382997
aS'+'
asS'CENPBD1'
p302
(lp303
I89969791
aI89972534
aS'-'
asS'ACTG1P16'
p304
(lp305
I50058150
aI50059231
aS'-'
asS'ZNRF1'
p306
(lp307
I74999030
aI75110994
aS'+'
asS'VN1R65P'
p308
(lp309
I31554105
aI31554912
aS'+'
asS'TFAP4'
p310
(lp311
I4257186
aI4273075
aS'-'
asS'RPL23AP86'
p312
(lp313
I2922662
aI2923202
aS'-'
asS'IGHV3OR16-11'
p314
(lp315
I33858896
aI33859352
aS'-'
asS'MTCO3P24'
p316
(lp317
I10723836
aI10724617
aS'-'
asS'CORO1A'
p318
(lp319
I30183422
aI30189076
aS'+'
asS'AC012175.1'
p320
(lp321
I5838131
aI5838661
aS'-'
asS'ACSM1'
p322
(lp323
I20623486
aI20697744
aS'-'
asS'DCUN1D3'
p324
(lp325
I20854925
aI20900384
aS'-'
asS'ITGAL'
p326
(lp327
I30472658
aI30523185
aS'+'
asS'FBXO31'
p328
(lp329
I87330811
aI87389850
aS'-'
asS'LARP7P2'
p330
(lp331
I19819504
aI19819628
aS'-'
asS'AC009132.1'
p332
(lp333
I74842587
aI74843883
aS'+'
asS'AC108081.1'
p334
(lp335
I57332379
aI57332599
aS'-'
asS'AC026468.1'
p336
(lp337
I69975238
aI69975344
aS'+'
asS'ITGAD'
p338
(lp339
I31393312
aI31426505
aS'+'
asS'FOXC2'
p340
(lp341
I86567251
aI86569728
aS'+'
asS'MRPS21P7'
p342
(lp343
I49708006
aI49708243
aS'+'
asS'CD19'
p344
(lp345
I28931939
aI28939346
aS'+'
asS'AC145285.3'
p346
(lp347
I28700294
aI28701540
aS'-'
asS'MYH11'
p348
(lp349
I15703172
aI15857011
aS'-'
asS'AC145285.1'
p350
(lp351
I28813980
aI28814673
aS'-'
asS'AC018554.2'
p352
(lp353
I60357214
aI60357474
aS'+'
asS'POLR2C'
p354
(lp355
I57462387
aI57472010
aS'+'
asS'DUX4L47'
p356
(lp357
I34142456
aI34142849
aS'+'
asS'CAPNS2'
p358
(lp359
I55566672
aI55567687
aS'+'
asS'AC093525.2'
p360
(lp361
I2496032
aI2520218
aS'+'
asS'AC092139.1'
p362
(lp363
I81476023
aI81476519
aS'-'
asS'ENPP7P14'
p364
(lp365
I5110793
aI5148685
aS'-'
asS'AC093525.1'
p366
(lp367
I2513965
aI2527955
aS'+'
asS'CDH13'
p368
(lp369
I82626803
aI83800640
aS'+'
asS'AC008740.1'
p370
(lp371
I21347139
aI21352138
aS'+'
asS'CCDC189'
p372
(lp373
I30757467
aI30762710
aS'-'
asS'PARD6A'
p374
(lp375
I67660948
aI67662778
aS'+'
asS'NUDT16L1'
p376
(lp377
I4693694
aI4695859
aS'+'
asS'SPSB3'
p378
(lp379
I1778037
aI1793700
aS'-'
asS'SNTB2'
p380
(lp381
I69187129
aI69309052
aS'+'
asS'NPIPB14P'
p382
(lp383
I69976388
aI69996188
aS'-'
asS'AC018558.4'
p384
(lp385
I35435303
aI35436341
aS'-'
asS'TSC2'
p386
(lp387
I2047465
aI2088712
aS'+'
asS'HS3ST2'
p388
(lp389
I22814177
aI22916338
aS'+'
asS'TP53TG3F'
p390
(lp391
I33459045
aI33462246
aS'+'
asS'CIITA'
p392
(lp393
I10877198
aI10932281
aS'+'
asS'AC135050.2'
p394
(lp395
I31083439
aI31094602
aS'-'
asS'TP53TG3E'
p396
(lp397
I33303739
aI33306935
aS'+'
asS'TP53TG3B'
p398
(lp399
I33360274
aI33363478
aS'+'
asS'TP53TG3C'
p400
(lp401
I33193659
aI33196858
aS'+'
asS'FAHD1'
p402
(lp403
I1826967
aI1840207
aS'+'
asS'AC012186.1'
p404
(lp405
I46649126
aI46649849
aS'+'
asS'AC116553.2'
p406
(lp407
I35879036
aI35879498
aS'-'
asS'RNF151'
p408
(lp409
I1966823
aI1968948
aS'+'
asS'RPS3AP2'
p410
(lp411
I1477830
aI1478583
aS'+'
asS'IGSF6'
p412
(lp413
I21639537
aI21652660
aS'-'
asS'KIAA0513'
p414
(lp415
I85027751
aI85094220
aS'+'
asS'MVP'
p416
(lp417
I29820394
aI29848039
aS'+'
asS'AC007225.1'
p418
(lp419
I46789898
aI46792040
aS'+'
asS'AC007225.2'
p420
(lp421
I46850999
aI46851254
aS'+'
asS'DBNDD1'
p422
(lp423
I90004865
aI90019473
aS'-'
asS'HERC2P5'
p424
(lp425
I32742353
aI32775368
aS'+'
asS'HERC2P4'
p426
(lp427
I32103245
aI32152513
aS'-'
asS'CTF1'
p428
(lp429
I30896607
aI30903560
aS'+'
asS'PLA2G15'
p430
(lp431
I68245344
aI68261062
aS'+'
asS'SULT1A4'
p432
(lp433
I29459889
aI29464976
aS'+'
asS'SULT1A1'
p434
(lp435
I28605582
aI28623586
aS'-'
asS'MYLK3'
p436
(lp437
I46707666
aI46763246
aS'-'
asS'SULT1A3'
p438
(lp439
I30199231
aI30204028
aS'+'
asS'FAM96B'
p440
(lp441
I66932055
aI66934400
aS'-'
asS'CCNYL3'
p442
(lp443
I35040164
aI35084313
aS'+'
asS'C16orf62'
p444
(lp445
I19555415
aI19701163
aS'+'
asS'CLUHP11'
p446
(lp447
I35068211
aI35085060
aS'+'
asS'MVD'
p448
(lp449
I88651935
aI88663110
aS'-'
asS'BFAR'
p450
(lp451
I14632815
aI14669236
aS'+'
asS'CHTF18'
p452
(lp453
I788046
aI797975
aS'+'
asS'SH2B1'
p454
(lp455
I28846689
aI28874205
aS'+'
asS'MTCYBP33'
p456
(lp457
I10718633
aI10719762
aS'-'
asS'AC007603.3'
p458
(lp459
I49954985
aI49968730
aS'-'
asS'NOL3'
p460
(lp461
I67170497
aI67175735
aS'+'
asS'RAB11FIP3'
p462
(lp463
I425619
aI523011
aS'+'
asS'IGHV3OR16-15'
p464
(lp465
I32903442
aI32903894
aS'+'
asS'AC009171.1'
p466
(lp467
I4130555
aI4130820
aS'+'
asS'AC002310.3'
p468
(lp469
I30537202
aI30538231
aS'-'
asS'IL21R'
p470
(lp471
I27402162
aI27452042
aS'+'
asS'CCDC113'
p472
(lp473
I58249936
aI58283836
aS'+'
asS'AC002310.4'
p474
(lp475
I30534227
aI30558279
aS'-'
asS'AC002310.5'
p476
(lp477
I30525923
aI30534852
aS'-'
asS'HBZP1'
p478
(lp479
I163122
aI165156
aS'+'
asS'UBFD1'
p480
(lp481
I23557362
aI23574389
aS'+'
asS'C16orf58'
p482
(lp483
I31489489
aI31508413
aS'-'
asS'C16orf59'
p484
(lp485
I2460080
aI2464963
aS'+'
asS'SSTR5'
p486
(lp487
I1078781
aI1080142
aS'+'
asS'METTL26'
p488
(lp489
I634427
aI636366
aS'-'
asS'AC120114.5'
p490
(lp491
I29817239
aI29830627
aS'+'
asS'AP1G1'
p492
(lp493
I71729000
aI71809201
aS'-'
asS'TMEM8A'
p494
(lp495
I370773
aI381982
aS'-'
asS'CMTR2'
p496
(lp497
I71281389
aI71289609
aS'-'
asS'CDIP1'
p498
(lp499
I4510675
aI4538470
aS'-'
asS'AC009120.3'
p500
(lp501
I74220929
aI74221427
aS'+'
asS'MGRN1'
p502
(lp503
I4624790
aI4690974
aS'+'
asS'C16orf54'
p504
(lp505
I29742463
aI29746006
aS'-'
asS'SYCE1L'
p506
(lp507
I77199397
aI77213005
aS'+'
asS'NRN1L'
p508
(lp509
I67884908
aI67888855
aS'+'
asS'UNKL'
p510
(lp511
I1363205
aI1414720
aS'-'
asS'AHSP'
p512
(lp513
I31527864
aI31528803
aS'+'
asS'MT2A'
p514
(lp515
I56608199
aI56609497
aS'+'
asS'ABAT'
p516
(lp517
I8674565
aI8784575
aS'+'
asS'MARF1'
p518
(lp519
I15594386
aI15643166
aS'-'
asS'MTATP6P24'
p520
(lp521
I10724620
aI10725296
aS'-'
asS'PSMD7'
p522
(lp523
I74296775
aI74306288
aS'+'
asS'CCDC78'
p524
(lp525
I722588
aI726880
aS'-'
asS'ZNF688'
p526
(lp527
I30569346
aI30572734
aS'-'
asS'AC005632.1'
p528
(lp529
I21532945
aI21550373
aS'-'
asS'CHP2'
p530
(lp531
I23754627
aI23758951
aS'+'
asS'SPNS1'
p532
(lp533
I28974772
aI28984548
aS'+'
asS'PLCG2'
p534
(lp535
I81779258
aI81962693
aS'+'
asS'MAZ'
p536
(lp537
I29806106
aI29811160
aS'+'
asS'ZNF19'
p538
(lp539
I71478970
aI71565089
aS'-'
asS'MLKL'
p540
(lp541
I74671861
aI74700914
aS'-'
asS'AC092368.2'
p542
(lp543
I46571537
aI46572136
aS'+'
asS'NDE1'
p544
(lp545
I15643267
aI15726353
aS'+'
asS'AC136619.2'
p546
(lp547
I16541217
aI16541847
aS'-'
asS'AC137803.1'
p548
(lp549
I15358978
aI15362674
aS'+'
asS'SMG1P6'
p550
(lp551
I29425800
aI29447026
aS'-'
asS'HMGN2P3'
p552
(lp553
I26032539
aI26032811
aS'-'
asS'HERPUD1'
p554
(lp555
I56932048
aI56944863
aS'+'
asS'GEMIN8P2'
p556
(lp557
I58776540
aI58777563
aS'+'
asS'BICDL2'
p558
(lp559
I3027712
aI3036926
aS'-'
asS'GAS8'
p560
(lp561
I90019643
aI90043472
aS'+'
asS'AC079416.1'
p562
(lp563
I53298224
aI53299792
aS'+'
asS'CDK10'
p564
(lp565
I89680737
aI89696353
aS'+'
asS'AC136619.1'
p566
(lp567
I16394912
aI16398594
aS'-'
asS'CNEP1R1'
p568
(lp569
I50024410
aI50037088
aS'+'
asS'FRG2IP'
p570
(lp571
I35405747
aI35407349
aS'-'
asS'AC130651.1'
p572
(lp573
I15931697
aI15932294
aS'-'
asS'CA5AP1'
p574
(lp575
I29618785
aI29636328
aS'-'
asS'AC020765.4'
p576
(lp577
I28602340
aI28604519
aS'+'
asS'NUBP1'
p578
(lp579
I10743845
aI10769351
aS'+'
asS'AC020765.3'
p580
(lp581
I28599241
aI28601881
aS'-'
asS'PGP'
p582
(lp583
I2211997
aI2214807
aS'-'
asS'APOBR'
p584
(lp585
I28494649
aI28498970
aS'+'
asS'ZNF646'
p586
(lp587
I31074422
aI31084196
aS'+'
asS'RPGRIP1L'
p588
(lp589
I53597683
aI53703889
aS'-'
asS'HSD17B2'
p590
(lp591
I82035232
aI82098534
aS'+'
asS'NLRC3'
p592
(lp593
I3539038
aI3577400
aS'-'
asS'N4BP1'
p594
(lp595
I48546097
aI48620148
aS'-'
asS'AC023825.1'
p596
(lp597
I57013071
aI57014100
aS'-'
asS'MTRNR2L4'
p598
(lp599
I3370979
aI3372740
aS'-'
asS'AC138907.6'
p600
(lp601
I32715931
aI32716056
aS'+'
asS'AC009053.1'
p602
(lp603
I74332402
aI74368161
aS'-'
asS'HEATR3'
p604
(lp605
I50065941
aI50106387
aS'+'
asS'AGGF1P7'
p606
(lp607
I35547917
aI35548829
aS'+'
asS'AC009053.4'
p608
(lp609
I74393076
aI74393183
aS'-'
asS'TLDC1'
p610
(lp611
I84489363
aI84554033
aS'-'
asS'ABHD17AP8'
p612
(lp613
I32199902
aI32202822
aS'+'
asS'ADAT1'
p614
(lp615
I75599100
aI75622466
aS'-'
asS'AC023818.1'
p616
(lp617
I48334471
aI48334854
aS'-'
asS'PRMT7'
p618
(lp619
I68311134
aI68358553
aS'+'
asS'E4F1'
p620
(lp621
I2223566
aI2235742
aS'+'
asS'RRN3'
p622
(lp623
I15060022
aI15094317
aS'-'
asS'IL34'
p624
(lp625
I70579895
aI70660682
aS'+'
asS'AC007342.2'
p626
(lp627
I53362019
aI53363678
aS'-'
asS'IL32'
p628
(lp629
I3065641
aI3082192
aS'+'
asS'ACSM2B'
p630
(lp631
I20536226
aI20576367
aS'-'
asS'ZNF500'
p632
(lp633
I4748239
aI4767218
aS'-'
asS'MMP25'
p634
(lp635
I3046681
aI3060726
aS'+'
asS'DPPA2P4'
p636
(lp637
I56686851
aI56688052
aS'+'
asS'VN1R64P'
p638
(lp639
I31546805
aI31547737
aS'+'
asS'AC141273.3'
p640
(lp641
I20616409
aI20616532
aS'-'
asS'MSLN'
p642
(lp643
I760762
aI768862
aS'+'
asS'TP53TG3'
p644
(lp645
I32673531
aI32676732
aS'-'
asS'RPS27AP16'
p646
(lp647
I61055399
aI61055964
aS'-'
asS'AC133552.4'
p648
(lp649
I25071490
aI25072727
aS'-'
asS'E2F4'
p650
(lp651
I67192169
aI67198918
aS'+'
asS'CKLF'
p652
(lp653
I66552563
aI66566251
aS'+'
asS'RAB26'
p654
(lp655
I2140803
aI2153070
aS'+'
asS'AC026461.4'
p656
(lp657
I56676132
aI56677763
aS'+'
asS'AC009075.2'
p658
(lp659
I72278268
aI72278568
aS'+'
asS'CA7'
p660
(lp661
I66844379
aI66854149
aS'+'
asS'AC010401.1'
p662
(lp663
I13922332
aI13922679
aS'-'
asS'CYB5B'
p664
(lp665
I69424525
aI69466266
aS'+'
asS'SPIRE2'
p666
(lp667
I89828508
aI89871319
aS'+'
asS'AC093249.3'
p668
(lp669
I30615256
aI30615679
aS'-'
asS'ZNF469'
p670
(lp671
I88427471
aI88440757
aS'+'
asS'TAT'
p672
(lp673
I71565660
aI71577130
aS'-'
asS'TPSD1'
p674
(lp675
I1256133
aI1258998
aS'+'
asS'CMTM2'
p676
(lp677
I66579448
aI66588275
aS'+'
asS'CMTM3'
p678
(lp679
I66604032
aI66613892
aS'+'
asS'CMTM1'
p680
(lp681
I66566393
aI66579137
aS'+'
asS'AC133552.1'
p682
(lp683
I25015978
aI25021023
aS'+'
asS'CMTM4'
p684
(lp685
I66614750
aI66696707
aS'-'
asS'AC133552.2'
p686
(lp687
I25031881
aI25058109
aS'+'
asS'RARRES2P8'
p688
(lp689
I35543279
aI35543645
aS'-'
asS'RARRES2P9'
p690
(lp691
I35344091
aI35344559
aS'-'
asS'DEXI'
p692
(lp693
I10928891
aI10942460
aS'-'
asS'AC002400.1'
p694
(lp695
I23500905
aI23501630
aS'+'
asS'NTAN1'
p696
(lp697
I15037854
aI15056079
aS'-'
asS'FAM173A'
p698
(lp699
I720581
aI722589
aS'+'
asS'RARRES2P6'
p700
(lp701
I35255192
aI35255633
aS'-'
asS'RARRES2P7'
p702
(lp703
I35414279
aI35414747
aS'-'
asS'NQO1'
p704
(lp705
I69706996
aI69726506
aS'-'
asS'AC126755.5'
p706
(lp707
I18313294
aI18316984
aS'+'
asS'RPS3P7'
p708
(lp709
I78825281
aI78826006
aS'+'
asS'AC145350.3'
p710
(lp711
I33059936
aI33060098
aS'+'
asS'DCTPP1'
p712
(lp713
I30423619
aI30430075
aS'-'
asS'AC093249.5'
p714
(lp715
I30624285
aI30624714
aS'-'
asS'TNRC6A'
p716
(lp717
I24610209
aI24750777
aS'+'
asS'RARRES2P5'
p718
(lp719
I35221583
aI35222048
aS'-'
asS'NUDT21'
p720
(lp721
I56429133
aI56451375
aS'-'
asS'ARL2BP'
p722
(lp723
I57245098
aI57253635
aS'+'
asS'SUB1P4'
p724
(lp725
I23537061
aI23537556
aS'+'
asS'DHX38'
p726
(lp727
I72093562
aI72112912
aS'+'
asS'RPL18P13'
p728
(lp729
I76235055
aI76235623
aS'-'
asS'VPS9D1'
p730
(lp731
I89707134
aI89720986
aS'-'
asS'SLX1A'
p732
(lp733
I30193904
aI30197561
aS'+'
asS'HSPE1P5'
p734
(lp735
I68686399
aI68686670
aS'+'
asS'AC004233.2'
p736
(lp737
I2988256
aI3002016
aS'+'
asS'EIF3C'
p738
(lp739
I28688558
aI28735598
aS'+'
asS'FRG2KP'
p740
(lp741
I31563185
aI31567716
aS'-'
asS'B3GNT9'
p742
(lp743
I67148105
aI67151214
aS'-'
asS'COTL1'
p744
(lp745
I84565594
aI84618077
aS'-'
asS'GNG13'
p746
(lp747
I798041
aI800733
aS'-'
asS'SLC12A4'
p748
(lp749
I67943474
aI67968694
aS'-'
asS'CBFB'
p750
(lp751
I67029147
aI67101058
aS'+'
asS'AC004381.2'
p752
(lp753
I20711473
aI20732990
aS'+'
asS'FOXF1'
p754
(lp755
I86510527
aI86515418
aS'+'
asS'SLC12A3'
p756
(lp757
I56865207
aI56915850
aS'+'
asS'ZNF263'
p758
(lp759
I3263800
aI3291029
aS'+'
asS'CDH1'
p760
(lp761
I68737225
aI68835548
aS'+'
asS'LPCAT2'
p762
(lp763
I55508998
aI55586670
aS'+'
asS'CDH3'
p764
(lp765
I68644836
aI68700295
aS'+'
asS'CARHSP1'
p766
(lp767
I8852943
aI8869012
aS'-'
asS'CDH5'
p768
(lp769
I66366622
aI66404782
aS'+'
asS'AC009127.3'
p770
(lp771
I72004239
aI72004803
aS'-'
asS'TMEM114'
p772
(lp773
I8537605
aI8589749
aS'-'
asS'NPIPB4'
p774
(lp775
I21857335
aI21880827
aS'-'
asS'KAT8'
p776
(lp777
I31115754
aI31131393
aS'+'
asS'AC092375.3'
p778
(lp779
I21833516
aI21833621
aS'+'
asS'AC093519.1'
p780
(lp781
I86906175
aI86906472
aS'-'
asS'AF001550.2'
p782
(lp783
I21299903
aI21300506
aS'+'
asS'AC098965.1'
p784
(lp785
I16952502
aI16953468
aS'-'
asS'AL032819.3'
p786
(lp787
I1431035
aI1433397
aS'+'
asS'NOMO2'
p788
(lp789
I18417325
aI18562211
aS'-'
asS'NOMO3'
p790
(lp791
I16232495
aI16294814
aS'+'
asS'NOMO1'
p792
(lp793
I14833681
aI14896160
aS'+'
asS'AC009094.1'
p794
(lp795
I60024578
aI60025141
aS'-'
asS'AC007906.2'
p796
(lp797
I53035690
aI53052873
aS'-'
asS'FAM92B'
p798
(lp799
I85098358
aI85112508
aS'-'
asS'TERF2IP'
p800
(lp801
I75656207
aI75761872
aS'+'
asS'CCDC154'
p802
(lp803
I1434388
aI1444556
aS'-'
asS'AC012184.2'
p804
(lp805
I70299224
aI70372582
aS'+'
asS'SNAI3'
p806
(lp807
I88677682
aI88686493
aS'-'
asS'AC099521.1'
p808
(lp809
I68477237
aI68477570
aS'-'
asS'CENPT'
p810
(lp811
I67828157
aI67847458
aS'-'
asS'CNOT1'
p812
(lp813
I58519951
aI58629886
aS'-'
asS'AC133561.1'
p814
(lp815
I33976039
aI33987630
aS'+'
asS'DYNLRB2'
p816
(lp817
I80540734
aI80550641
aS'+'
asS'PDXDC1'
p818
(lp819
I14975012
aI15139339
aS'+'
asS'PCMTD1P2'
p820
(lp821
I34139189
aI34139543
aS'+'
asS'ZNF843'
p822
(lp823
I31432593
aI31443025
aS'-'
asS'AC092375.1'
p824
(lp825
I21938865
aI21944958
aS'+'
asS'FA2H'
p826
(lp827
I74712955
aI74774825
aS'-'
asS'RHBDL1'
p828
(lp829
I675666
aI678268
aS'+'
asS'C16orf96'
p830
(lp831
I4556490
aI4600714
aS'+'
asS'SNN'
p832
(lp833
I11668414
aI11679159
aS'+'
asS'ADGRG5'
p834
(lp835
I57542421
aI57577189
aS'+'
asS'HSD3B7'
p836
(lp837
I30985211
aI30989152
aS'+'
asS'C16orf92'
p838
(lp839
I30023726
aI30027736
aS'+'
asS'PDXDC2P'
p840
(lp841
I70010751
aI70065776
aS'-'
asS'C16orf90'
p842
(lp843
I3493484
aI3495480
aS'-'
asS'C16orf91'
p844
(lp845
I1419744
aI1420800
aS'-'
asS'NETO2'
p846
(lp847
I47077703
aI47143997
aS'-'
asS'UQCRC2'
p848
(lp849
I21952660
aI21983660
aS'+'
asS'ELMO3'
p850
(lp851
I67199111
aI67204029
aS'+'
asS'CLUAP1'
p852
(lp853
I3500924
aI3539048
aS'+'
asS'CD2BP2'
p854
(lp855
I30350766
aI30355361
aS'-'
asS'MTND6P33'
p856
(lp857
I10719833
aI10720015
aS'+'
asS'NFATC3'
p858
(lp859
I68085458
aI68229258
aS'+'
asS'SMPD3'
p860
(lp861
I68358325
aI68448688
aS'-'
asS'RRAD'
p862
(lp863
I66921685
aI66925644
aS'-'
asS'ALG1'
p864
(lp865
I5033960
aI5085390
aS'+'
asS'KCNG4'
p866
(lp867
I84218667
aI84239698
aS'-'
asS'AC120498.5'
p868
(lp869
I1280161
aI1280544
aS'-'
asS'RBBP6'
p870
(lp871
I24540195
aI24572863
aS'+'
asS'NPIPB15'
p872
(lp873
I74377878
aI74392080
aS'+'
asS'SLC9A3R2'
p874
(lp875
I2026868
aI2039026
aS'+'
asS'NPIPB11'
p876
(lp877
I29381354
aI29404029
aS'-'
asS'ZNF597'
p878
(lp879
I3432422
aI3443542
aS'-'
asS'BCKDK'
p880
(lp881
I31106107
aI31112567
aS'+'
asS'NPIPB12'
p882
(lp883
I29484690
aI29505820
aS'-'
asS'ZNF598'
p884
(lp885
I1997654
aI2009823
aS'-'
asS'KIF22'
p886
(lp887
I29790719
aI29805384
aS'+'
asS'EXOSC6'
p888
(lp889
I70246778
aI70251930
aS'-'
asS'FUK'
p890
(lp891
I70454421
aI70480274
aS'+'
asS'BANP'
p892
(lp893
I87951432
aI88077317
aS'+'
asS'GFER'
p894
(lp895
I1984213
aI1987749
aS'+'
asS'MT1X'
p896
(lp897
I56682424
aI56684196
aS'+'
asS'YPEL3'
p898
(lp899
I30092577
aI30096915
aS'-'
asS'ARHGAP17'
p900
(lp901
I24919385
aI25015331
aS'-'
asS'KARSP3'
p902
(lp903
I68002432
aI68004952
aS'-'
asS'CCL22'
p904
(lp905
I57358772
aI57366190
aS'+'
asS'MKL2'
p906
(lp907
I14071322
aI14266771
aS'+'
asS'MPHOSPH6'
p908
(lp909
I82147798
aI82170193
aS'-'
asS'MT1L'
p910
(lp911
I56617476
aI56618818
aS'+'
asS'MT1M'
p912
(lp913
I56632233
aI56633986
aS'+'
asS'AC141586.1'
p914
(lp915
I2603350
aI2630494
aS'+'
asS'MT1H'
p916
(lp917
I56669814
aI56671129
aS'+'
asS'ZNF768'
p918
(lp919
I30524133
aI30526821
aS'-'
asS'DRC7'
p920
(lp921
I57694800
aI57731453
aS'+'
asS'ZNF764'
p922
(lp923
I30553764
aI30558498
aS'-'
asS'MT1F'
p924
(lp925
I56657694
aI56659303
aS'+'
asS'MT1G'
p926
(lp927
I56666731
aI56668065
aS'-'
asS'RARRES2P10'
p928
(lp929
I35485766
aI35486225
aS'-'
asS'PHKG2'
p930
(lp931
I30748270
aI30761176
aS'+'
asS'MT1B'
p932
(lp933
I56651899
aI56653204
aS'+'
asS'ZNF276'
p934
(lp935
I89720985
aI89740903
aS'+'
asS'ORAI3'
p936
(lp937
I30949152
aI30956461
aS'+'
asS'AC007599.1'
p938
(lp939
I47561307
aI47562480
aS'-'
asS'PRR14'
p940
(lp941
I30650780
aI30656412
aS'+'
asS'RAB43P1'
p942
(lp943
I46626404
aI46626992
aS'-'
asS'IGHV3OR16-6'
p944
(lp945
I32915074
aI32915536
aS'+'
asS'AC007224.1'
p946
(lp947
I8731416
aI8731559
aS'-'
asS'NUPR1'
p948
(lp949
I28532708
aI28539174
aS'-'
asS'KIAA0895L'
p950
(lp951
I67175604
aI67184040
aS'-'
asS'NUDT7'
p952
(lp953
I77722492
aI77742260
aS'+'
asS'LAT'
p954
(lp955
I28984826
aI28990783
aS'+'
asS'SNX29P2'
p956
(lp957
I29350746
aI29370272
aS'+'
asS'TK2'
p958
(lp959
I66508003
aI66550412
aS'-'
asS'ACSM5P1'
p960
(lp961
I20586550
aI20607107
aS'-'
asS'ZNF23'
p962
(lp963
I71447597
aI71462759
aS'-'
asS'AC133485.1'
p964
(lp965
I32213380
aI32213503
aS'-'
asS'TELO2'
p966
(lp967
I1493363
aI1510457
aS'+'
asS'BCAR1'
p968
(lp969
I75228187
aI75268053
aS'-'
asS'NTHL1'
p970
(lp971
I2039815
aI2047866
aS'-'
asS'AC025279.2'
p972
(lp973
I29312350
aI29331277
aS'+'
asS'DNAH3'
p974
(lp975
I20933111
aI21159441
aS'-'
asS'PLA2G10'
p976
(lp977
I14672545
aI14694669
aS'-'
asS'KRT18P18'
p978
(lp979
I72728616
aI72729894
aS'+'
asS'RIPOR1'
p980
(lp981
I67518418
aI67538471
aS'+'
asS'IRF8'
p982
(lp983
I85898803
aI85922609
aS'+'
asS'AC136932.1'
p984
(lp985
I34120470
aI34120677
aS'+'
asS'ZNF971P'
p986
(lp987
I35447852
aI35449411
aS'-'
asS'AC137761.2'
p988
(lp989
I32811029
aI32811251
aS'-'
asS'NUBP2'
p990
(lp991
I1782901
aI1789191
aS'+'
asS'FBRS'
p992
(lp993
I30658431
aI30670814
aS'+'
asS'SNX29'
p994
(lp995
I11976738
aI12574289
aS'+'
asS'AC010650.1'
p996
(lp997
I77892422
aI77892915
aS'+'
asS'IGHV3OR16-13'
p998
(lp999
I33827214
aI33827661
aS'+'
asS'IGHV3OR16-12'
p1000
(lp1001
I33802764
aI33803217
aS'+'
asS'TMEM219'
p1002
(lp1003
I29940885
aI29973050
aS'+'
asS'IGHV3OR16-10'
p1004
(lp1005
I32995048
aI32995505
aS'+'
asS'NDUFA5P11'
p1006
(lp1007
I47598654
aI47598996
aS'-'
asS'SHISA9'
p1008
(lp1009
I12901620
aI13240413
aS'+'
asS'CREBBP'
p1010
(lp1011
I3725054
aI3880726
aS'-'
asS'NUTF2'
p1012
(lp1013
I67846732
aI67872567
aS'+'
asS'TMC5'
p1014
(lp1015
I19410723
aI19499113
aS'+'
asS'TMC7'
p1016
(lp1017
I18984287
aI19063942
aS'+'
asS'PSMB10'
p1018
(lp1019
I67934502
aI67937087
aS'-'
asS'CDT1'
p1020
(lp1021
I88803213
aI88809258
aS'+'
asS'NOXO1'
p1022
(lp1023
I1980540
aI1984192
aS'-'
asS'AC106785.4'
p1024
(lp1025
I35802869
aI35803280
aS'-'
asS'AC092133.1'
p1026
(lp1027
I35118238
aI35118956
aS'-'
asS'ZFHX3'
p1028
(lp1029
I72782885
aI73059698
aS'-'
asS'MTND1P8'
p1030
(lp1031
I3369957
aI3370906
aS'-'
asS'AC126773.3'
p1032
(lp1033
I68651056
aI68651948
aS'-'
asS'ELOB'
p1034
(lp1035
I2771414
aI2777297
aS'-'
asS'TIGD7'
p1036
(lp1037
I3298832
aI3305645
aS'-'
asS'AC141257.3'
p1038
(lp1039
I33345182
aI33345396
aS'+'
asS'SLC25A1P4'
p1040
(lp1041
I35173316
aI35174093
aS'+'
asS'XYLT1'
p1042
(lp1043
I17101769
aI17470881
aS'-'
asS'CFAP20'
p1044
(lp1045
I58113588
aI58129450
aS'-'
asS'Z84721.1'
p1046
(lp1047
I168679
aI169334
aS'+'
asS'ZFPM1'
p1048
(lp1049
I88453317
aI88537016
aS'+'
asS'QPRT'
p1050
(lp1051
I29679037
aI29698699
aS'+'
asS'IFT140'
p1052
(lp1053
I1510427
aI1612110
aS'-'
asS'GSG1L'
p1054
(lp1055
I27787535
aI28063509
aS'-'
asS'AC025279.3'
p1056
(lp1057
I29380242
aI29380345
aS'+'
asS'SLX4'
p1058
(lp1059
I3581181
aI3611598
aS'-'
asS'UBL5P4'
p1060
(lp1061
I11968508
aI11968743
aS'-'
asS'AC018695.1'
p1062
(lp1063
I85815873
aI85816536
aS'-'
asS'AC025283.1'
p1064
(lp1065
I3323192
aI3323925
aS'-'
asS'AC025283.2'
p1066
(lp1067
I3365112
aI3479550
aS'+'
asS'MTCYBP28'
p1068
(lp1069
I82120638
aI82121769
aS'-'
asS'VKORC1'
p1070
(lp1071
I31091175
aI31095980
aS'-'
asS'AMDHD2'
p1072
(lp1073
I2520365
aI2531422
aS'+'
asS'TRADD'
p1074
(lp1075
I67154180
aI67160298
aS'-'
asS'TPSAB1'
p1076
(lp1077
I1240696
aI1242554
aS'+'
asS'WDR24'
p1078
(lp1079
I684622
aI690400
aS'-'
asS'AC008740.3'
p1080
(lp1081
I21315911
aI21339037
aS'+'
asS'AC018555.1'
p1082
(lp1083
I60654235
aI60656649
aS'-'
asS'CENPN'
p1084
(lp1085
I81007214
aI81033114
aS'+'
asS'GNAO1'
p1086
(lp1087
I56191347
aI56357457
aS'+'
asS'AC137800.1'
p1088
(lp1089
I32602575
aI32615639
aS'+'
asS'DDX19A'
p1090
(lp1091
I70346829
aI70373383
aS'+'
asS'DDX19B'
p1092
(lp1093
I70289767
aI70333820
aS'+'
asS'AC025281.1'
p1094
(lp1095
I65938189
aI65938453
aS'-'
asS'HAS3'
p1096
(lp1097
I69106257
aI69118719
aS'+'
asS'ATP6V0C'
p1098
(lp1099
I2513870
aI2520218
aS'+'
asS'CA5A'
p1100
(lp1101
I87881546
aI87936516
aS'-'
asS'RPL23AP91'
p1102
(lp1103
I57321352
aI57322117
aS'+'
asS'FANCA'
p1104
(lp1105
I89737549
aI89816646
aS'-'
asS'AC018846.1'
p1106
(lp1107
I63703483
aI63703665
aS'+'
asS'ATP5A1P3'
p1108
(lp1109
I72005037
aI72006543
aS'-'
asS'AC092121.1'
p1110
(lp1111
I59166951
aI59167152
aS'-'
asS'SEPHS2'
p1112
(lp1113
I30443631
aI30446181
aS'-'
asS'HNRNPA1P48'
p1114
(lp1115
I51645756
aI51647132
aS'+'
asS'AC007346.2'
p1116
(lp1117
I53010395
aI53011286
aS'-'
asS'SPATA33'
p1118
(lp1119
I89657802
aI89671267
aS'+'
asS'Z69890.1'
p1120
(lp1121
I231134
aI231472
aS'+'
asS'TP53TG3HP'
p1122
(lp1123
I35506592
aI35507170
aS'-'
asS'FOXL1'
p1124
(lp1125
I86578506
aI86582160
aS'+'
asS'PDF'
p1126
(lp1127
I69328621
aI69330595
aS'-'
asS'CMC2'
p1128
(lp1129
I80976003
aI81020270
aS'-'
asS'AC099489.2'
p1130
(lp1131
I11380859
aI11381118
aS'-'
asS'AC099489.1'
p1132
(lp1133
I11372015
aI11523588
aS'-'
asS'AC142381.1'
p1134
(lp1135
I32051825
aI32052280
aS'+'
asS'ATXN2L'
p1136
(lp1137
I28823035
aI28837237
aS'+'
asS'AC137800.2'
p1138
(lp1139
I32618733
aI32618852
aS'+'
asS'ADAM3B'
p1140
(lp1141
I49517762
aI49518601
aS'-'
asS'AC010547.6'
p1142
(lp1143
I71443055
aI71443856
aS'-'
asS'BCAP31P1'
p1144
(lp1145
I33988406
aI33991551
aS'-'
asS'AC007012.1'
p1146
(lp1147
I6721786
aI6721960
aS'+'
asS'GPT2'
p1148
(lp1149
I46884378
aI46931297
aS'+'
asS'STX4'
p1150
(lp1151
I31033095
aI31040163
aS'+'
asS'LRRC36'
p1152
(lp1153
I67326844
aI67385200
aS'+'
asS'VPS35P1'
p1154
(lp1155
I35090501
aI35104834
aS'+'
asS'DCTN5'
p1156
(lp1157
I23641392
aI23677455
aS'+'
asS'GDPD3'
p1158
(lp1159
I30104810
aI30113856
aS'-'
asS'AC009093.3'
p1160
(lp1161
I29053732
aI29107445
aS'-'
asS'NSMCE1'
p1162
(lp1163
I27224991
aI27268794
aS'-'
asS'PKD1P1'
p1164
(lp1165
I16310341
aI16334190
aS'+'
asS'TMF1P1'
p1166
(lp1167
I13458326
aI13458698
aS'+'
asS'PKD1P5'
p1168
(lp1169
I18374521
aI18401940
aS'-'
asS'PKD1P6'
p1170
(lp1171
I15125242
aI15154564
aS'-'
asS'SNRPEP3'
p1172
(lp1173
I20238972
aI20239247
aS'-'
asS'SRCAP'
p1174
(lp1175
I30699141
aI30741409
aS'+'
asS'SMG1P7'
p1176
(lp1177
I70219870
aI70246610
aS'-'
asS'NAGPA'
p1178
(lp1179
I5024844
aI5033934
aS'-'
asS'PDPK2P'
p1180
(lp1181
I2616121
aI2643296
aS'-'
asS'EXOC3L1'
p1182
(lp1183
I67184366
aI67190204
aS'-'
asS'AC010542.3'
p1184
(lp1185
I66469812
aI66517312
aS'-'
asS'HSDL1'
p1186
(lp1187
I84122281
aI84145188
aS'-'
asS'HNRNPCP4'
p1188
(lp1189
I11242653
aI11243552
aS'+'
asS'AC106788.1'
p1190
(lp1191
I22545698
aI22576865
aS'+'
asS'ERCC4'
p1192
(lp1193
I13920157
aI13952345
aS'+'
asS'AC092119.1'
p1194
(lp1195
I21998310
aI21999656
aS'+'
asS'SF3B3'
p1196
(lp1197
I70523788
aI70577668
aS'+'
asS'USP7'
p1198
(lp1199
I8892094
aI8963484
aS'-'
asS'AC106782.1'
p1200
(lp1201
I30204316
aI30207182
aS'-'
asS'TMEM265'
p1202
(lp1203
I30740381
aI30744281
aS'+'
asS'AC106782.3'
p1204
(lp1205
I30218220
aI30221930
aS'+'
asS'AC106782.4'
p1206
(lp1207
I30214409
aI30214699
aS'+'
asS'AFG3L1P'
p1208
(lp1209
I89972631
aI90000668
aS'+'
asS'AC012181.1'
p1210
(lp1211
I56906534
aI56906956
aS'+'
asS'AC106820.1'
p1212
(lp1213
I2332313
aI2332732
aS'-'
asS'AC007347.2'
p1214
(lp1215
I54114697
aI54114878
aS'-'
asS'PRSS8'
p1216
(lp1217
I31131433
aI31135762
aS'-'
asS'AC018558.5'
p1218
(lp1219
I35528367
aI35529318
aS'-'
asS'AC137527.2'
p1220
(lp1221
I51244054
aI51244123
aS'+'
asS'FAM192A'
p1222
(lp1223
I57152466
aI57186064
aS'-'
asS'LSM3P5'
p1224
(lp1225
I78355529
aI78355834
aS'+'
asS'ZNF720'
p1226
(lp1227
I31713247
aI31794869
aS'+'
asS'AC040169.2'
p1228
(lp1229
I84119293
aI84121153
aS'+'
asS'IGHV2OR16-5'
p1230
(lp1231
I32847713
aI32848156
aS'+'
asS'RPS2P45'
p1232
(lp1233
I69033986
aI69036042
aS'+'
asS'AXIN1'
p1234
(lp1235
I287440
aI352659
aS'-'
asS'GABARAPL2'
p1236
(lp1237
I75566351
aI75577881
aS'+'
asS'TNFRSF12A'
p1238
(lp1239
I3018445
aI3022086
aS'+'
asS'ABHD17AP9'
p1240
(lp1241
I33140850
aI33143797
aS'+'
asS'COX4I1'
p1242
(lp1243
I85799622
aI85807002
aS'+'
asS'UBE2I'
p1244
(lp1245
I1308880
aI1327018
aS'+'
asS'PHKB'
p1246
(lp1247
I47461326
aI47701523
aS'+'
asS'CES1P2'
p1248
(lp1249
I55728115
aI55750111
aS'+'
asS'ARHGDIG'
p1250
(lp1251
I268727
aI282084
aS'+'
asS'IGHV1OR16-2'
p1252
(lp1253
I32978461
aI32978891
aS'+'
asS'NARFL'
p1254
(lp1255
I729753
aI741002
aS'-'
asS'AC034105.1'
p1256
(lp1257
I31962063
aI31962381
aS'+'
asS'NOD2'
p1258
(lp1259
I50697139
aI50733077
aS'+'
asS'C16orf45'
p1260
(lp1261
I15434295
aI15588259
aS'+'
asS'C16orf46'
p1262
(lp1263
I81053497
aI81077213
aS'-'
asS'AC023824.3'
p1264
(lp1265
I35134514
aI35135075
aS'+'
asS'CFDP1'
p1266
(lp1267
I75293710
aI75433485
aS'-'
asS'ST3GAL2'
p1268
(lp1269
I70379435
aI70439088
aS'-'
asS'SNRPCP20'
p1270
(lp1271
I5289200
aI5289409
aS'-'
asS'VASN'
p1272
(lp1273
I4371848
aI4383528
aS'+'
asS'ZC3H7A'
p1274
(lp1275
I11750586
aI11797267
aS'-'
asS'GNPTG'
p1276
(lp1277
I1351923
aI1364113
aS'+'
asS'ABCD1P3'
p1278
(lp1279
I32475051
aI32478250
aS'-'
asS'PRKCB'
p1280
(lp1281
I23836001
aI24220611
aS'+'
asS'GALNS'
p1282
(lp1283
I88813734
aI88856966
aS'-'
asS'AC009163.5'
p1284
(lp1285
I75504658
aI75516280
aS'-'
asS'PYDC1'
p1286
(lp1287
I31215962
aI31217359
aS'-'
asS'C2orf69P1'
p1288
(lp1289
I35552909
aI35554001
aS'+'
asS'CES1'
p1290
(lp1291
I55802854
aI55833337
aS'-'
asS'AC133552.5'
p1292
(lp1293
I25069570
aI25070109
aS'+'
asS'CES3'
p1294
(lp1295
I66961237
aI66975096
aS'+'
asS'CES2'
p1296
(lp1297
I66934460
aI66945096
aS'+'
asS'ANKRD26P1'
p1298
(lp1299
I46471539
aI46569097
aS'-'
asS'ZNF720P1'
p1300
(lp1301
I31601593
aI31603531
aS'-'
asS'AC140504.1'
p1302
(lp1303
I15395754
aI15515348
aS'+'
asS'HBA1'
p1304
(lp1305
I176680
aI177522
aS'+'
asS'AC135776.3'
p1306
(lp1307
I35023339
aI35023765
aS'+'
asS'KDM8'
p1308
(lp1309
I27203495
aI27221768
aS'+'
asS'HBA2'
p1310
(lp1311
I172847
aI173710
aS'+'
asS'ABCC6'
p1312
(lp1313
I16148928
aI16223464
aS'-'
asS'METTL9'
p1314
(lp1315
I21597222
aI21655324
aS'+'
asS'AC136944.6'
p1316
(lp1317
I33484887
aI33485131
aS'+'
asS'AC136944.5'
p1318
(lp1319
I33495943
aI33496093
aS'-'
asS'AC009060.2'
p1320
(lp1321
I70202354
aI70202459
aS'+'
asS'IST1'
p1322
(lp1323
I71845996
aI71917094
aS'+'
asS'AGGF1P5'
p1324
(lp1325
I35420291
aI35421209
aS'+'
asS'WFIKKN1'
p1326
(lp1327
I629239
aI634116
aS'+'
asS'AC074051.1'
p1328
(lp1329
I5270174
aI5270954
aS'+'
asS'AC022206.1'
p1330
(lp1331
I7126293
aI7126639
aS'-'
asS'AC074051.3'
p1332
(lp1333
I5207088
aI5207439
aS'+'
asS'DDX28'
p1334
(lp1335
I68021274
aI68023442
aS'-'
asS'AC074051.5'
p1336
(lp1337
I5365797
aI5366688
aS'+'
asS'AMFR'
p1338
(lp1339
I56361452
aI56425538
aS'-'
asS'AC040162.4'
p1340
(lp1341
I68013436
aI68015911
aS'-'
asS'CTRB1'
p1342
(lp1343
I75219000
aI75224924
aS'+'
asS'AC040162.1'
p1344
(lp1345
I67929614
aI67936017
aS'-'
asS'PSKH1'
p1346
(lp1347
I67893272
aI67929678
aS'+'
asS'AC040162.2'
p1348
(lp1349
I67855955
aI67856111
aS'-'
asS'IGHV1OR16-1'
p1350
(lp1351
I32034853
aI32035326
aS'+'
asS'AC092725.2'
p1352
(lp1353
I27133483
aI27135179
aS'-'
asS'IGHV1OR16-3'
p1354
(lp1355
I32059084
aI32059372
aS'+'
asS'BOLA2'
p1356
(lp1357
I29443056
aI29454562
aS'-'
asS'MMP2'
p1358
(lp1359
I55389700
aI55506237
aS'+'
asS'ZSCAN32'
p1360
(lp1361
I3382081
aI3401065
aS'-'
asS'TUFM'
p1362
(lp1363
I28842411
aI28846408
aS'-'
asS'TRAPPC2L'
p1364
(lp1365
I88857086
aI88862686
aS'+'
asS'SLC6A2'
p1366
(lp1367
I55656644
aI55706192
aS'+'
asS'AC009086.1'
p1368
(lp1369
I29624517
aI29624825
aS'+'
asS'BOLA2B'
p1370
(lp1371
I30192935
aI30194306
aS'-'
asS'WWP2'
p1372
(lp1373
I69762306
aI69941741
aS'+'
asS'HSF4'
p1374
(lp1375
I67164743
aI67169939
aS'+'
asS'EMC8'
p1376
(lp1377
I85778624
aI85799608
aS'-'
asS'MOCS1P1'
p1378
(lp1379
I48496990
aI48498601
aS'+'
asS'RNPS1'
p1380
(lp1381
I2253116
aI2268412
aS'-'
asS'VN2R10P'
p1382
(lp1383
I77220406
aI77221258
aS'+'
asS'PHLPP2'
p1384
(lp1385
I71644924
aI71724701
aS'-'
asS'POLR3E'
p1386
(lp1387
I22297375
aI22335101
aS'+'
asS'AC009127.1'
p1388
(lp1389
I71991151
aI71991305
aS'-'
asS'IL27'
p1390
(lp1391
I28501974
aI28512051
aS'-'
asS'AC004754.1'
p1392
(lp1393
I249547
aI269943
aS'+'
asS'ATP2C2'
p1394
(lp1395
I84368527
aI84464187
aS'+'
asS'RANBP10'
p1396
(lp1397
I67723066
aI67806652
aS'-'
asS'AC106886.5'
p1398
(lp1399
I30704067
aI30745169
aS'+'
asS'POLR3K'
p1400
(lp1401
I46407
aI53628
aS'-'
asS'AC106886.1'
p1402
(lp1403
I30821068
aI30822110
aS'-'
asS'CPPED1'
p1404
(lp1405
I12659799
aI12804017
aS'-'
asS'CACNA1H'
p1406
(lp1407
I1153121
aI1221772
aS'+'
asS'MTND4LP24'
p1408
(lp1409
I10723065
aI10723355
aS'-'
asS'MTND4LP25'
p1410
(lp1411
I49066567
aI49066729
aS'-'
asS'USB1'
p1412
(lp1413
I57999546
aI58020542
aS'+'
asS'CNGB1'
p1414
(lp1415
I57882340
aI57971112
aS'-'
asS'ACSM3'
p1416
(lp1417
I20610243
aI20775920
aS'+'
asS'AC007494.1'
p1418
(lp1419
I47262741
aI47263500
aS'+'
asS'ACSM5'
p1420
(lp1421
I20409534
aI20441336
aS'+'
asS'CBFA2T3'
p1422
(lp1423
I88874858
aI88977204
aS'-'
asS'C1QL1P1'
p1424
(lp1425
I35574834
aI35575494
aS'+'
asS'AC133561.3'
p1426
(lp1427
I34013394
aI34013830
aS'-'
asS'TPSG1'
p1428
(lp1429
I1221651
aI1225257
aS'-'
asS'MSLNL'
p1430
(lp1431
I769428
aI783370
aS'-'
asS'CLN3'
p1432
(lp1433
I28477294
aI28495550
aS'-'
asS'TAOK2'
p1434
(lp1435
I29974281
aI29992261
aS'+'
asS'MARVELD3'
p1436
(lp1437
I71626187
aI71641965
aS'+'
asS'RPL10P14'
p1438
(lp1439
I50151280
aI50151577
aS'-'
asS'ATP6V0D1'
p1440
(lp1441
I67438019
aI67481237
aS'-'
asS'MAPK8IP3'
p1442
(lp1443
I1706183
aI1770317
aS'+'
asS'AC137527.1'
p1444
(lp1445
I51277852
aI51279112
aS'+'
asS'GP2'
p1446
(lp1447
I20309572
aI20327580
aS'-'
asS'SCNN1B'
p1448
(lp1449
I23302270
aI23381299
aS'+'
asS'MC1R'
p1450
(lp1451
I89913418
aI89920973
aS'+'
asS'ZNF205'
p1452
(lp1453
I3112560
aI3120517
aS'+'
asS'CETP'
p1454
(lp1455
I56961850
aI56983845
aS'+'
asS'ZNF200'
p1456
(lp1457
I3222325
aI3235456
aS'-'
asS'PRDM7'
p1458
(lp1459
I90057780
aI90075930
aS'-'
asS'TVP23CP2'
p1460
(lp1461
I14200357
aI14200979
aS'+'
asS'TBC1D24'
p1462
(lp1463
I2475051
aI2505734
aS'+'
asS'CLCN7'
p1464
(lp1465
I1444935
aI1475580
aS'-'
asS'ACSM2A'
p1466
(lp1467
I20451576
aI20487667
aS'+'
asS'AQP8'
p1468
(lp1469
I25215731
aI25228932
aS'+'
asS'METTL22'
p1470
(lp1471
I8621688
aI8649654
aS'+'
asS'RRN3P3'
p1472
(lp1473
I22418672
aI22437715
aS'-'
asS'IL9RP3'
p1474
(lp1475
I29336
aI38321
aS'-'
asS'AC133561.5'
p1476
(lp1477
I34015260
aI34015477
aS'+'
asS'RPL13'
p1478
(lp1479
I89560657
aI89566828
aS'+'
asS'USP31'
p1480
(lp1481
I23061406
aI23149270
aS'-'
asS'BRD7'
p1482
(lp1483
I50315957
aI50368934
aS'-'
asS'SETD6'
p1484
(lp1485
I58515482
aI58521181
aS'+'
asS'DNAJA2'
p1486
(lp1487
I46955362
aI46973788
aS'-'
asS'DNAJA3'
p1488
(lp1489
I4425805
aI4456775
aS'+'
asS'ADCY7'
p1490
(lp1491
I50246148
aI50299011
aS'+'
asS'NME3'
p1492
(lp1493
I1770286
aI1771730
aS'-'
asS'DHODH'
p1494
(lp1495
I72008588
aI72027664
aS'+'
asS'CCL17'
p1496
(lp1497
I57404767
aI57416062
aS'+'
asS'ADCY9'
p1498
(lp1499
I3962651
aI4116185
aS'-'
asS'MCRIP2'
p1500
(lp1501
I636903
aI648474
aS'+'
asS'AC138915.1'
p1502
(lp1503
I32439069
aI32441159
aS'-'
asS'PRSS27'
p1504
(lp1505
I2712424
aI2720551
aS'-'
asS'AC009161.1'
p1506
(lp1507
I62357371
aI62357746
aS'+'
asS'PRSS21'
p1508
(lp1509
I2818927
aI2826304
aS'+'
asS'PRSS22'
p1510
(lp1511
I2852727
aI2858170
aS'-'
asS'AC005632.3'
p1512
(lp1513
I21538487
aI21538794
aS'+'
asS'REXO5'
p1514
(lp1515
I20806499
aI20849668
aS'+'
asS'AC009133.6'
p1516
(lp1517
I29812261
aI29820092
aS'+'
asS'VN1R67P'
p1518
(lp1519
I31801585
aI31802497
aS'-'
asS'SYNGR3'
p1520
(lp1521
I1989945
aI1994275
aS'+'
asS'EME2'
p1522
(lp1523
I1773326
aI1780627
aS'+'
asS'C16orf74'
p1524
(lp1525
I85690170
aI85751129
aS'-'
asS'HSPE1P16'
p1526
(lp1527
I26062750
aI26063097
aS'-'
asS'WDR90'
p1528
(lp1529
I649325
aI667833
aS'+'
asS'C16orf70'
p1530
(lp1531
I67109988
aI67148539
aS'+'
asS'C16orf71'
p1532
(lp1533
I4734272
aI4749396
aS'+'
asS'C16orf72'
p1534
(lp1535
I9091648
aI9121640
aS'+'
asS'PRSS54'
p1536
(lp1537
I58279997
aI58295047
aS'-'
asS'ZNF75A'
p1538
(lp1539
I3305486
aI3318852
aS'+'
asS'SULT1A2'
p1540
(lp1541
I28591943
aI28597109
aS'-'
asS'C16orf78'
p1542
(lp1543
I49373823
aI49399431
aS'+'
asS'MRPL28'
p1544
(lp1545
I367384
aI370527
aS'-'
asS'AC141273.2'
p1546
(lp1547
I20618205
aI20620758
aS'-'
asS'TNFRSF17'
p1548
(lp1549
I11965107
aI11968068
aS'+'
asS'CDYL2'
p1550
(lp1551
I80597906
aI80804329
aS'-'
asS'ZFP90'
p1552
(lp1553
I68539316
aI68576040
aS'+'
asS'ZNF668'
p1554
(lp1555
I31060850
aI31074320
aS'-'
asS'GLYR1'
p1556
(lp1557
I4803203
aI4847342
aS'-'
asS'AL031708.1'
p1558
(lp1559
I1632259
aI1686715
aS'+'
asS'CMIP'
p1560
(lp1561
I81445170
aI81711762
aS'+'
asS'NDRG4'
p1562
(lp1563
I58463665
aI58513628
aS'+'
asS'EIF1P4'
p1564
(lp1565
I2822659
aI2822993
aS'-'
asS'CRISPLD2'
p1566
(lp1567
I84819984
aI84909510
aS'+'
asS'C16orf89'
p1568
(lp1569
I5044122
aI5066110
aS'-'
asS'SLC9A5'
p1570
(lp1571
I67237683
aI67272190
aS'+'
asS'SMG1P4'
p1572
(lp1573
I21879338
aI21916024
aS'-'
asS'FAM234A'
p1574
(lp1575
I234802
aI268971
aS'+'
asS'MT1CP'
p1576
(lp1577
I56648248
aI56649514
aS'+'
asS'AC009163.2'
p1578
(lp1579
I75528532
aI75545428
aS'-'
asS'AC026462.1'
p1580
(lp1581
I52655307
aI52656045
aS'+'
asS'SMG1P1'
p1582
(lp1583
I22437401
aI22491826
aS'+'
asS'AC092143.1'
p1584
(lp1585
I89919165
aI89936092
aS'+'
asS'C16orf82'
p1586
(lp1587
I27066707
aI27069165
aS'+'
asS'TEKT5'
p1588
(lp1589
I10627501
aI10694945
aS'-'
asS'SMG1P5'
p1590
(lp1591
I30267553
aI30335054
aS'-'
asS'C16orf87'
p1592
(lp1593
I46796607
aI46831162
aS'-'
asS'C16orf86'
p1594
(lp1595
I67666816
aI67668758
aS'+'
asS'SCNN1G'
p1596
(lp1597
I23182715
aI23216883
aS'+'
asS'PDPR'
p1598
(lp1599
I70113626
aI70162537
aS'+'
asS'SYT17'
p1600
(lp1601
I19168249
aI19268334
aS'+'
asS'AC092368.1'
p1602
(lp1603
I46573763
aI46575094
aS'+'
asS'CX3CL1'
p1604
(lp1605
I57372458
aI57385048
aS'+'
asS'PRM1'
p1606
(lp1607
I11280836
aI11281350
aS'-'
asS'DUXAP11'
p1608
(lp1609
I59655602
aI59656336
aS'+'
asS'AC026458.1'
p1610
(lp1611
I5078168
aI5078605
aS'-'
asS'CDC37P2'
p1612
(lp1613
I28413703
aI28415018
aS'+'
asS'AGRP'
p1614
(lp1615
I67482571
aI67483813
aS'-'
asS'GSPT1'
p1616
(lp1617
I11868128
aI11915920
aS'-'
asS'AC093536.1'
p1618
(lp1619
I64260570
aI64261239
aS'-'
asS'GFOD2'
p1620
(lp1621
I67674533
aI67719421
aS'-'
asS'METRN'
p1622
(lp1623
I715115
aI719655
aS'+'
asS'ACSF3'
p1624
(lp1625
I89093809
aI89155846
aS'+'
asS'AC009169.1'
p1626
(lp1627
I60925733
aI60928541
aS'-'
asS'TUBB3'
p1628
(lp1629
I89923345
aI89938761
aS'+'
asS'AL049542.1'
p1630
(lp1631
I451404
aI453461
aS'+'
asS'C2orf69P4'
p1632
(lp1633
I35352482
aI35353022
aS'+'
asS'PDP2'
p1634
(lp1635
I66880582
aI66895754
aS'+'
asS'RSL1D1'
p1636
(lp1637
I11833850
aI11851585
aS'-'
asS'RPUSD1'
p1638
(lp1639
I784974
aI788383
aS'-'
asS'CCP110'
p1640
(lp1641
I19523811
aI19553408
aS'+'
asS'PAPD5'
p1642
(lp1643
I50154161
aI50235306
aS'+'
asS'AC142086.6'
p1644
(lp1645
I32916974
aI32946392
aS'+'
asS'AC142086.5'
p1646
(lp1647
I32951993
aI33028037
aS'-'
asS'AC142086.3'
p1648
(lp1649
I32931768
aI32932569
aS'-'
asS'AC142086.2'
p1650
(lp1651
I32845964
aI32846180
aS'-'
asS'TEPP'
p1652
(lp1653
I57976435
aI57987571
aS'+'
asS'GINS2'
p1654
(lp1655
I85676198
aI85688999
aS'-'
asS'GINS3'
p1656
(lp1657
I58295397
aI58392574
aS'+'
asS'TNP2'
p1658
(lp1659
I11267748
aI11269533
aS'-'
asS'AC140658.4'
p1660
(lp1661
I33965655
aI33966091
aS'-'
asS'RBFOX1'
p1662
(lp1663
I6019131
aI7713338
aS'+'
asS'BMS1P8'
p1664
(lp1665
I33687330
aI33698504
aS'-'
asS'OTOA'
p1666
(lp1667
I21678514
aI21760729
aS'+'
asS'PALB2'
p1668
(lp1669
I23603170
aI23641310
aS'-'
asS'PKD1L3'
p1670
(lp1671
I71929538
aI71999978
aS'-'
asS'AC145350.1'
p1672
(lp1673
I33130235
aI33130442
aS'+'
asS'UBE2MP1'
p1674
(lp1675
I35169692
aI35170241
aS'-'
asS'RHBDF1'
p1676
(lp1677
I58059
aI72631
aS'-'
asS'NDUFA3P6'
p1678
(lp1679
I31174573
aI31174822
aS'+'
asS'KNOP1'
p1680
(lp1681
I19701934
aI19718234
aS'-'
asS'WASH4P'
p1682
(lp1683
I14381
aI18068
aS'-'
asS'VAT1L'
p1684
(lp1685
I77788530
aI77980107
aS'+'
asS'AC138915.3'
p1686
(lp1687
I32388135
aI32436200
aS'+'
asS'PRR35'
p1688
(lp1689
I560422
aI565528
aS'+'
asS'THOC6'
p1690
(lp1691
I3024031
aI3027754
aS'+'
asS'NPIPB3'
p1692
(lp1693
I21415006
aI21448071
aS'-'
asS'LCMT1'
p1694
(lp1695
I25111729
aI25178231
aS'+'
asS'MEIOB'
p1696
(lp1697
I1833987
aI1884294
aS'-'
asS'SLX1B'
p1698
(lp1699
I29454501
aI29458219
aS'+'
asS'EARS2'
p1700
(lp1701
I23522014
aI23557375
aS'-'
asS'AC009078.2'
p1702
(lp1703
I75226074
aI75228197
aS'+'
asS'DUS2'
p1704
(lp1705
I67994786
aI68066373
aS'+'
asS'MSRB1'
p1706
(lp1707
I1938210
aI1943326
aS'-'
asS'RPL7P46'
p1708
(lp1709
I11027024
aI11027763
aS'+'
asS'SEC14L5'
p1710
(lp1711
I4958317
aI5019158
aS'+'
asS'TERB1'
p1712
(lp1713
I66754976
aI66801620
aS'-'
asS'RPL7P47'
p1714
(lp1715
I17932720
aI17933275
aS'+'
asS'TBX6'
p1716
(lp1717
I30085793
aI30091884
aS'-'
asS'RPS2'
p1718
(lp1719
I1962052
aI1964860
aS'-'
asS'RHOT2'
p1720
(lp1721
I668086
aI674174
aS'+'
asS'CLEC18A'
p1722
(lp1723
I69950705
aI69964347
aS'+'
asS'AC026464.3'
p1724
(lp1725
I69335091
aI69356306
aS'-'
asS'CLEC18C'
p1726
(lp1727
I70173617
aI70187256
aS'+'
asS'AC026464.1'
p1728
(lp1729
I69335276
aI69351729
aS'-'
asS'AC136428.1'
p1730
(lp1731
I33844784
aI33845229
aS'-'
asS'AC026464.4'
p1732
(lp1733
I69299682
aI69322700
aS'+'
asS'AC026464.5'
p1734
(lp1735
I69443240
aI69444290
aS'-'
asS'GSE1'
p1736
(lp1737
I85169525
aI85634132
aS'+'
asS'APOOP5'
p1738
(lp1739
I59709993
aI59754848
aS'-'
asS'ATXN1L'
p1740
(lp1741
I71846048
aI71885268
aS'+'
asS'ESRP2'
p1742
(lp1743
I68229126
aI68236584
aS'-'
asS'JMJD8'
p1744
(lp1745
I681671
aI684528
aS'-'
asS'DEF8'
p1746
(lp1747
I89947925
aI89968060
aS'+'
asS'AC010531.1'
p1748
(lp1749
I87302876
aI87334273
aS'-'
asS'AC010531.2'
p1750
(lp1751
I87268185
aI87268337
aS'+'
asS'UBALD1'
p1752
(lp1753
I4608883
aI4615027
aS'-'
asS'SDR42E2'
p1754
(lp1755
I22165583
aI22191754
aS'+'
asS'SDR42E1'
p1756
(lp1757
I81988855
aI82011488
aS'-'
asS'ZNF267'
p1758
(lp1759
I31873758
aI31917357
aS'+'
asS'SLC7A6OS'
p1760
(lp1761
I68284503
aI68304131
aS'-'
asS'FTO'
p1762
(lp1763
I53704157
aI54153406
aS'+'
asS'BEAN1'
p1764
(lp1765
I66427371
aI66493529
aS'+'
asS'TMEM208'
p1766
(lp1767
I67227113
aI67229278
aS'+'
asS'AC136428.2'
p1768
(lp1769
I33771035
aI33771248
aS'+'
asS'BCL7C'
p1770
(lp1771
I30833626
aI30894302
aS'-'
asS'ERN2'
p1772
(lp1773
I23690376
aI23713500
aS'-'
asS'AC138932.1'
p1774
(lp1775
I14911551
aI14935708
aS'+'
asS'ZDHHC1'
p1776
(lp1777
I67394419
aI67416474
aS'-'
asS'AC145285.5'
p1778
(lp1779
I28659696
aI28740781
aS'-'
asS'SMG1P2'
p1780
(lp1781
I29527568
aI29594966
aS'-'
asS'ITPRIPL2'
p1782
(lp1783
I19114383
aI19121629
aS'+'
asS'FRG2DP'
p1784
(lp1785
I35477414
aI35480458
aS'-'
asS'AC009153.1'
p1786
(lp1787
I74552251
aI74552746
aS'+'
asS'AC141846.1'
p1788
(lp1789
I47760780
aI47760921
aS'-'
asS'MTSS1L'
p1790
(lp1791
I70661204
aI70686066
aS'-'
asS'LCAT'
p1792
(lp1793
I67939750
aI67944131
aS'-'
asS'AC133555.4'
p1794
(lp1795
I29449191
aI29449625
aS'+'
asS'AC133555.5'
p1796
(lp1797
I29443270
aI29454651
aS'-'
asS'AC133555.2'
p1798
(lp1799
I29475064
aI29475355
aS'+'
asS'AC133555.3'
p1800
(lp1801
I29464967
aI29467833
aS'-'
asS'SRL'
p1802
(lp1803
I4189374
aI4242080
aS'-'
asS'AC133555.1'
p1804
(lp1805
I29478879
aI29482591
aS'+'
asS'VN1R66P'
p1806
(lp1807
I31648307
aI31649222
aS'+'
asS'AC106788.2'
p1808
(lp1809
I22537478
aI22537584
aS'-'
asS'SALL1'
p1810
(lp1811
I51135975
aI51151275
aS'-'
asS'VPS4A'
p1812
(lp1813
I69311356
aI69326939
aS'+'
asS'AC136428.3'
p1814
(lp1815
I33808778
aI33810767
aS'+'
asS'AC022167.5'
p1816
(lp1817
I8881634
aI8885339
aS'+'
asS'CHMP1A'
p1818
(lp1819
I89644431
aI89657845
aS'-'
asS'AC010546.1'
p1820
(lp1821
I62808222
aI62808706
aS'-'
asS'DUX4L45'
p1822
(lp1823
I34135736
aI34136792
aS'-'
asS'ENKD1'
p1824
(lp1825
I67662945
aI67666764
aS'-'
asS'SHCBP1'
p1826
(lp1827
I46580554
aI46621626
aS'-'
asS'RPL12P36'
p1828
(lp1829
I58825891
aI58826368
aS'+'
asS'AC009088.4'
p1830
(lp1831
I31165648
aI31165927
aS'+'
asS'AC138969.2'
p1832
(lp1833
I16356224
aI16377507
aS'+'
asS'CAPN15'
p1834
(lp1835
I527856
aI554636
aS'+'
asS'AC007151.1'
p1836
(lp1837
I3840528
aI3841010
aS'+'
asS'RPL3L'
p1838
(lp1839
I1943974
aI1954726
aS'-'
asS'PRRT2'
p1840
(lp1841
I29812088
aI29815881
aS'+'
asS'AC008740.2'
p1842
(lp1843
I21401089
aI21401198
aS'+'
asS'ADGRG3'
p1844
(lp1845
I57668187
aI57689378
aS'+'
asS'AC010653.1'
p1846
(lp1847
I71833787
aI71835932
aS'+'
asS'AC136428.4'
p1848
(lp1849
I33723356
aI33763773
aS'-'
asS'AC136618.2'
p1850
(lp1851
I18533418
aI18533817
aS'+'
asS'ACTR3BP3'
p1852
(lp1853
I32379071
aI32380049
aS'-'
asS'AC138969.1'
p1854
(lp1855
I16322305
aI16350586
aS'+'
asS'AC026470.1'
p1856
(lp1857
I48577524
aI48578369
aS'-'
asS'AC106734.1'
p1858
(lp1859
I76878274
aI76878936
aS'-'
asS'AC026470.2'
p1860
(lp1861
I48470953
aI48471133
aS'-'
asS'CDH11'
p1862
(lp1863
I64943753
aI65122198
aS'-'
asS'HS3ST6'
p1864
(lp1865
I1911463
aI1918440
aS'-'
asS'LMF1'
p1866
(lp1867
I853638
aI981318
aS'-'
asS'HS3ST4'
p1868
(lp1869
I25692026
aI26137688
aS'+'
asS'CDH15'
p1870
(lp1871
I89171767
aI89195492
aS'+'
asS'TRIM72'
p1872
(lp1873
I31214021
aI31231537
aS'+'
asS'CDH16'
p1874
(lp1875
I66908122
aI66918984
aS'-'
asS'AC092324.1'
p1876
(lp1877
I12881170
aI12881493
aS'+'
asS'ROGDI'
p1878
(lp1879
I4796968
aI4802950
aS'-'
asS'AC106782.5'
p1880
(lp1881
I30336400
aI30343336
aS'+'
asS'ATP5F1P7'
p1882
(lp1883
I75709056
aI75709815
aS'-'
asS'AC009101.3'
p1884
(lp1885
I64736788
aI64737280
aS'+'
asS'BRICD5'
p1886
(lp1887
I2209253
aI2211950
aS'-'
asS'MYLPF'
p1888
(lp1889
I30370934
aI30376698
aS'+'
asS'NIP7'
p1890
(lp1891
I69339430
aI69343111
aS'+'
asS'NLRC5'
p1892
(lp1893
I56989498
aI57083524
aS'+'
asS'TXNL4B'
p1894
(lp1895
I72044289
aI72093557
aS'-'
asS'AC007216.5'
p1896
(lp1897
I11926199
aI11926307
aS'+'
asS'TMEM159'
p1898
(lp1899
I21158377
aI21180616
aS'+'
asS'LRRC29'
p1900
(lp1901
I67207139
aI67227010
aS'-'
asS'ANKRD11'
p1902
(lp1903
I89267630
aI89490561
aS'-'
asS'THUMPD1'
p1904
(lp1905
I20702816
aI20741815
aS'-'
asS'AC138907.4'
p1906
(lp1907
I32739627
aI32740166
aS'-'
asS'AC138907.5'
p1908
(lp1909
I32650195
aI32650763
aS'-'
asS'MRPS21P8'
p1910
(lp1911
I49764454
aI49764688
aS'+'
asS'EIF4BP5'
p1912
(lp1913
I47565090
aI47566884
aS'-'
asS'MT3'
p1914
(lp1915
I56589074
aI56591078
aS'+'
asS'AC093249.1'
p1916
(lp1917
I30626976
aI30627178
aS'+'
asS'CLEC3A'
p1918
(lp1919
I78022515
aI78066761
aS'+'
asS'TCF25'
p1920
(lp1921
I89873570
aI89913627
aS'+'
asS'MT4'
p1922
(lp1923
I56565049
aI56568957
aS'+'
asS'PPL'
p1924
(lp1925
I4883572
aI4960741
aS'-'
asS'AC138894.3'
p1926
(lp1927
I28364700
aI28365333
aS'+'
asS'GAN'
p1928
(lp1929
I81314952
aI81390884
aS'+'
asS'AC138894.1'
p1930
(lp1931
I28456371
aI28492041
aS'-'
asS'NPIPB2'
p1932
(lp1933
I11930513
aI11976634
aS'-'
asS'NPIPB5'
p1934
(lp1935
I22479121
aI22536513
aS'+'
asS'UBN1'
p1936
(lp1937
I4847631
aI4882360
aS'+'
asS'NPIPB7'
p1938
(lp1939
I28456424
aI28471175
aS'-'
asS'NPIPB6'
p1940
(lp1941
I28342555
aI28363508
aS'-'
asS'NPIPB9'
p1942
(lp1943
I28751787
aI28772807
aS'+'
asS'NPIPB8'
p1944
(lp1945
I28637654
aI28658682
aS'+'
asS'AC009163.4'
p1946
(lp1947
I75412684
aI75464706
aS'-'
asS'OR2C1'
p1948
(lp1949
I3355889
aI3357294
aS'+'
asS'ITGAM'
p1950
(lp1951
I31259994
aI31332892
aS'+'
asS'ZDHHC7'
p1952
(lp1953
I84974181
aI85011535
aS'-'
asS'CRAMP1'
p1954
(lp1955
I1612325
aI1677908
aS'+'
asS'AC142384.1'
p1956
(lp1957
I33577502
aI33622547
aS'+'
asS'AC023813.2'
p1958
(lp1959
I48600176
aI48600644
aS'+'
asS'HPR'
p1960
(lp1961
I72063224
aI72077246
aS'+'
asS'PIEZO1'
p1962
(lp1963
I88715346
aI88785211
aS'-'
asS'IGHV1OR16-4'
p1964
(lp1965
I33002333
aI33002621
aS'+'
asS'HAGHL'
p1966
(lp1967
I728514
aI733847
aS'+'
asS'PIGQ'
p1968
(lp1969
I567009
aI583035
aS'+'
asS'NFATC2IP'
p1970
(lp1971
I28950937
aI28967097
aS'+'
asS'ALDOA'
p1972
(lp1973
I30053090
aI30070420
aS'+'
asS'SMG1P3'
p1974
(lp1975
I21463205
aI21520444
aS'-'
asS'AC087190.1'
p1976
(lp1977
I9156402
aI9156881
aS'-'
asS'INO80E'
p1978
(lp1979
I29995294
aI30005793
aS'+'
asS'SLC7A5P1'
p1980
(lp1981
I29613104
aI29613640
aS'-'
asS'AC141257.4'
p1982
(lp1983
I33386105
aI33386349
aS'+'
asS'SLC7A5P2'
p1984
(lp1985
I21519830
aI21520365
aS'-'
asS'IGHV3OR16-16'
p1986
(lp1987
I33949976
aI33950420
aS'-'
asS'ABHD17AP7'
p1988
(lp1989
I32726615
aI32729537
aS'-'
asS'AC009022.1'
p1990
(lp1991
I70079129
aI70079624
aS'-'
asS'C2orf69P2'
p1992
(lp1993
I35492324
aI35493446
aS'+'
asS'CDIPT'
p1994
(lp1995
I29858357
aI29863736
aS'-'
asS'MON1B'
p1996
(lp1997
I77190919
aI77202405
aS'+'
asS'SRRM2'
p1998
(lp1999
I2752329
aI2771412
aS'+'
asS'NAMPTP3'
p2000
(lp2001
I35085896
aI35086119
aS'+'
asS'AC138915.2'
p2002
(lp2003
I32460266
aI32460362
aS'-'
asS'SEPT1'
p2004
(lp2005
I30382752
aI30395991
aS'-'
asS'AC010653.3'
p2006
(lp2007
I71777603
aI71777834
aS'-'
asS'COQ9'
p2008
(lp2009
I57447437
aI57461275
aS'+'
asS'AC009119.2'
p2010
(lp2011
I83908132
aI83951445
aS'+'
asS'SPATA2L'
p2012
(lp2013
I89696343
aI89701695
aS'-'
asS'CDR2'
p2014
(lp2015
I22349372
aI22433665
aS'-'
asS'COQ7'
p2016
(lp2017
I19067599
aI19080095
aS'+'
asS'DUXB'
p2018
(lp2019
I75693929
aI75701459
aS'-'
asS'ABCC1'
p2020
(lp2021
I15949577
aI16143074
aS'+'
asS'TBL3'
p2022
(lp2023
I1972037
aI1982933
aS'+'
asS'HBM'
p2024
(lp2025
I153892
aI166761
aS'+'
asS'PHBP21'
p2026
(lp2027
I52934813
aI52935635
aS'+'
asS'CTRL'
p2028
(lp2029
I67929570
aI67932414
aS'-'
asS'PLK1'
p2030
(lp2031
I23677656
aI23690366
aS'+'
asS'PARN'
p2032
(lp2033
I14435701
aI14630267
aS'-'
asS'NPIPP1'
p2034
(lp2035
I15104330
aI15123498
aS'-'
asS'AC091489.2'
p2036
(lp2037
I18170356
aI18170959
aS'+'
asS'PKMYT1'
p2038
(lp2039
I2968102
aI2980416
aS'-'
asS'AC133561.4'
p2040
(lp2041
I34051140
aI34051363
aS'+'
asS'SETD1A'
p2042
(lp2043
I30957294
aI30984664
aS'+'
asS'GLG1'
p2044
(lp2045
I74447427
aI74607114
aS'-'
asS'LYRM1'
p2046
(lp2047
I20900235
aI20925004
aS'+'
asS'STX1B'
p2048
(lp2049
I30989256
aI31010661
aS'-'
asS'HBZ'
p2050
(lp2051
I152687
aI154503
aS'+'
asS'KIF18BP1'
p2052
(lp2053
I35636687
aI35645180
aS'-'
asS'AC133552.3'
p2054
(lp2055
I25093387
aI25095255
aS'+'
asS'CARMIL2'
p2056
(lp2057
I67644919
aI67657569
aS'+'
asS'ADAD2'
p2058
(lp2059
I84191138
aI84197166
aS'+'
asS'AC140658.2'
p2060
(lp2061
I33875039
aI33875468
aS'-'
asS'AC140658.3'
p2062
(lp2063
I33948278
aI33948548
aS'-'
asS'AC140658.6'
p2064
(lp2065
I33851785
aI33852069
aS'-'
asS'CCDC102A'
p2066
(lp2067
I57512178
aI57536599
aS'-'
asS'PKD1L2'
p2068
(lp2069
I81101123
aI81220370
aS'-'
asS'NHLRC4'
p2070
(lp2071
I566996
aI569487
aS'+'
asS'STUB1'
p2072
(lp2073
I680276
aI682799
aS'+'
asS'SNX20'
p2074
(lp2075
I50666300
aI50681353
aS'-'
asS'ZP2'
p2076
(lp2077
I21197452
aI21214510
aS'-'
asS'CIAPIN1'
p2078
(lp2079
I57428169
aI57447528
aS'-'
asS'ZFP1'
p2080
(lp2081
I75148582
aI75172236
aS'+'
asS'NDUFB10'
p2082
(lp2083
I1959508
aI1961975
aS'+'
asS'KIFC3'
p2084
(lp2085
I57771671
aI57846535
aS'-'
asS'TPPP3'
p2086
(lp2087
I67389809
aI67393535
aS'-'
asS'CES1P1'
p2088
(lp2089
I55760642
aI55793960
aS'+'
asS'CEMP1'
p2090
(lp2091
I2530035
aI2531408
aS'-'
asS'ZNF785'
p2092
(lp2093
I30573740
aI30582804
aS'-'
asS'AC133919.3'
p2094
(lp2095
I90174062
aI90175865
aS'-'
asS'GOT2'
p2096
(lp2097
I58707131
aI58734357
aS'-'
asS'AC138969.4'
p2098
(lp2099
I16351545
aI16351653
aS'-'
asS'PLLP'
p2100
(lp2101
I57249039
aI57284661
aS'-'
asS'NECAB2'
p2102
(lp2103
I83968632
aI84002776
aS'+'
asS'SEPT12'
p2104
(lp2105
I4777669
aI4788521
aS'-'
asS'EIF3CL'
p2106
(lp2107
I28379581
aI28403879
aS'-'
asS'MLYCD'
p2108
(lp2109
I83899126
aI83927026
aS'+'
asS'COG8'
p2110
(lp2111
I69321991
aI69339493
aS'-'
asS'AC136443.2'
p2112
(lp2113
I14766402
aI14770075
aS'-'
asS'AC009027.1'
p2114
(lp2115
I69025860
aI69026643
aS'-'
asS'NFAT5'
p2116
(lp2117
I69565094
aI69704650
aS'+'
asS'AC140658.5'
p2118
(lp2119
I33848476
aI33848644
aS'-'
asS'KRT8P22'
p2120
(lp2121
I78048483
aI78049897
aS'-'
asS'RSPRY1'
p2122
(lp2123
I57186291
aI57240475
aS'+'
asS'COG7'
p2124
(lp2125
I23388493
aI23453180
aS'-'
asS'NAE1'
p2126
(lp2127
I66817470
aI66873256
aS'-'
asS'COG4'
p2128
(lp2129
I70480569
aI70523565
aS'-'
asS'RPS15A'
p2130
(lp2131
I18781295
aI18790334
aS'-'
asS'CTF2P'
p2132
(lp2133
I30904348
aI30910208
aS'-'
asS'SMIM22'
p2134
(lp2135
I4788397
aI4796491
aS'+'
asS'FTLP14'
p2136
(lp2137
I68822587
aI68823070
aS'+'
asS'CSNK2A2'
p2138
(lp2139
I58157907
aI58197920
aS'-'
asS'KCTD13'
p2140
(lp2141
I29905012
aI29926209
aS'-'
asS'FBXL8'
p2142
(lp2143
I67159973
aI67164570
aS'+'
asS'AC007342.3'
p2144
(lp2145
I53364982
aI53373083
aS'-'
asS'SOCS1'
p2146
(lp2147
I11254405
aI11256179
aS'-'
asS'PRSS29P'
p2148
(lp2149
I1260952
aI1263845
aS'-'
asS'SNX29P1'
p2150
(lp2151
I21376648
aI21386064
aS'+'
asS'MBTPS1'
p2152
(lp2153
I84053766
aI84116906
aS'-'
asS'KCTD19'
p2154
(lp2155
I67289433
aI67326753
aS'-'
asS'CASP16P'
p2156
(lp2157
I3144243
aI3149963
aS'+'
asS'WDR59'
p2158
(lp2159
I74871367
aI74985148
aS'-'
asS'TERF2'
p2160
(lp2161
I69372269
aI69408571
aS'-'
asS'MEFV'
p2162
(lp2163
I3242028
aI3256627
aS'-'
asS'AC099518.3'
p2164
(lp2165
I19114002
aI19173578
aS'+'
asS'CHTF8'
p2166
(lp2167
I69118010
aI69132570
aS'-'
asS'AC009101.2'
p2168
(lp2169
I64738323
aI64738564
aS'+'
asS'AC106730.1'
p2170
(lp2171
I31568386
aI31569475
aS'-'
asS'AC023824.2'
p2172
(lp2173
I35193335
aI35193734
aS'+'
asS'AC007610.3'
p2174
(lp2175
I50046496
aI50047798
aS'+'
asS'C2orf69P3'
p2176
(lp2177
I35425364
aI35426483
aS'+'
asS'HIRIP3'
p2178
(lp2179
I29992321
aI29996436
aS'-'
asS'AC009078.1'
p2180
(lp2181
I75192465
aI75193247
aS'-'
asS'ASPHD1'
p2182
(lp2183
I29900858
aI29919864
aS'+'
asS'CORO7-PAM16'
p2184
(lp2185
I4340251
aI4420494
aS'-'
asS'ZNF213'
p2186
(lp2187
I3134923
aI3142803
aS'+'
asS'PRSS41'
p2188
(lp2189
I2798485
aI2805302
aS'+'
asS'SLC7A6'
p2190
(lp2191
I68264516
aI68301823
aS'+'
asS'HP'
p2192
(lp2193
I72054592
aI72061055
aS'+'
asS'SLC7A5'
p2194
(lp2195
I87830023
aI87869488
aS'-'
asS'AC133569.1'
p2196
(lp2197
I32635673
aI32636045
aS'-'
asS'AC092327.1'
p2198
(lp2199
I86434830
aI86435884
aS'-'
asS'AC126755.2'
p2200
(lp2201
I18358095
aI18376839
aS'-'
asS'AC093520.2'
p2202
(lp2203
I31361278
aI31361695
aS'-'
asS'AC126755.1'
p2204
(lp2205
I18334400
aI18352476
aS'-'
asS'AC126755.6'
p2206
(lp2207
I18357026
aI18357136
aS'+'
asS'DNAAF1'
p2208
(lp2209
I84145287
aI84177918
aS'+'
asS'KREMEN2'
p2210
(lp2211
I2963944
aI2968380
aS'+'
asS'KLHDC4'
p2212
(lp2213
I87698149
aI87765972
aS'-'
asS'THAP11'
p2214
(lp2215
I67842082
aI67844195
aS'+'
asS'LUC7L'
p2216
(lp2217
I188969
aI229463
aS'-'
asS'DPEP1'
p2218
(lp2219
I89613308
aI89638430
aS'+'
asS'NPRL3'
p2220
(lp2221
I84274
aI138860
aS'-'
asS'DPEP3'
p2222
(lp2223
I67975663
aI67980829
aS'-'
asS'CLEC18B'
p2224
(lp2225
I74408270
aI74421953
aS'-'
asS'AC120498.7'
p2226
(lp2227
I1273751
aI1276522
aS'-'
asS'TRAP1'
p2228
(lp2229
I3658037
aI3717597
aS'-'
asS'CHD9'
p2230
(lp2231
I53055033
aI53329150
aS'+'
asS'AC145285.6'
p2232
(lp2233
I28749959
aI28750595
aS'-'
asS'CCNF'
p2234
(lp2235
I2429394
aI2458854
aS'+'
asS'RPL23AP72'
p2236
(lp2237
I47150132
aI47150566
aS'-'
asS'PRSS33'
p2238
(lp2239
I2783953
aI2787948
aS'-'
asS'C16orf95'
p2240
(lp2241
I87083562
aI87302762
aS'-'
asS'AC004232.1'
p2242
(lp2243
I3308609
aI3308816
aS'+'
asS'PRSS36'
p2244
(lp2245
I31138925
aI31150094
aS'-'
asS'AC140878.1'
p2246
(lp2247
I32278866
aI32279115
aS'+'
asS'RPS23P6'
p2248
(lp2249
I12081237
aI12081902
aS'+'
asS'CYLD'
p2250
(lp2251
I50742760
aI50801935
aS'+'
asS'GPRC5B'
p2252
(lp2253
I19856691
aI19884917
aS'-'
asS'FLYWCH2'
p2254
(lp2255
I2883186
aI2899382
aS'+'
asS'BCLAF1P2'
p2256
(lp2257
I34266041
aI34268649
aS'-'
asS'SLC5A2'
p2258
(lp2259
I31483118
aI31490768
aS'+'
asS'FLYWCH1'
p2260
(lp2261
I2911937
aI2951208
aS'+'
asS'KLHL36'
p2262
(lp2263
I84648525
aI84662314
aS'+'
asS'AC025287.4'
p2264
(lp2265
I75660227
aI75677009
aS'-'
asS'TMEM170A'
p2266
(lp2267
I75443054
aI75464689
aS'-'
asS'AC020978.1'
p2268
(lp2269
I68209442
aI68209778
aS'+'
asS'ADGRG1'
p2270
(lp2271
I57619998
aI57665580
aS'+'
asS'CES4A'
p2272
(lp2273
I66988589
aI67009758
aS'+'
asS'AC136443.5'
p2274
(lp2275
I14862380
aI14862749
aS'-'
asS'AL031713.1'
p2276
(lp2277
I1103280
aI1105461
aS'-'
asS'MT1DP'
p2278
(lp2279
I56643705
aI56644786
aS'+'
asS'RNF40'
p2280
(lp2281
I30761997
aI30776307
aS'+'
asS'AC116553.1'
p2282
(lp2283
I35912120
aI35912516
aS'+'
asS'FRG2JP'
p2284
(lp2285
I35245916
aI35247534
aS'-'
asS'ZNF821'
p2286
(lp2287
I71859680
aI71884190
aS'-'
asS'AC023827.2'
p2288
(lp2289
I48718083
aI48719143
aS'+'
asS'ZG16'
p2290
(lp2291
I29778240
aI29782973
aS'+'
asS'DYNC1LI2'
p2292
(lp2293
I66720893
aI66751798
aS'-'
asS'WFDC1'
p2294
(lp2295
I84294646
aI84329851
aS'+'
asS'AC012676.2'
p2296
(lp2297
I4433202
aI4433387
aS'-'
asS'SBK1'
p2298
(lp2299
I28292519
aI28323849
aS'+'
asS'SEZ6L2'
p2300
(lp2301
I29871159
aI29899547
aS'-'
asS'AC138894.4'
p2302
(lp2303
I28451644
aI28455356
aS'+'
asS'AC074052.1'
p2304
(lp2305
I8508069
aI8508585
aS'+'
asS'FAM57B'
p2306
(lp2307
I30026614
aI30052978
aS'-'
asS'MPG'
p2308
(lp2309
I77019
aI85851
aS'+'
asS'ZNF423'
p2310
(lp2311
I49491275
aI49857919
aS'-'
asS'AC142381.2'
p2312
(lp2313
I32116700
aI32116997
aS'+'
asS'MTND3P13'
p2314
(lp2315
I10723424
aI10723766
aS'-'
asS'SLC22A31'
p2316
(lp2317
I89195761
aI89201664
aS'-'
asS'SLC6A10P'
p2318
(lp2319
I32877469
aI32885142
aS'-'
asS'AC004224.1'
p2320
(lp2321
I3496201
aI3496768
aS'+'
asS'HMOX2'
p2322
(lp2323
I4474703
aI4510346
aS'+'
asS'ECI1'
p2324
(lp2325
I2239940
aI2252300
aS'-'
asS'CYBA'
p2326
(lp2327
I88643283
aI88651152
aS'-'
asS'TOX3'
p2328
(lp2329
I52438005
aI52547802
aS'-'
asS'AC093524.1'
p2330
(lp2331
I25824710
aI25826330
aS'-'
asS'CASKIN1'
p2332
(lp2333
I2177180
aI2196525
aS'-'
asS'BAIAP3'
p2334
(lp2335
I1333643
aI1349438
aS'+'
asS'MFSD13B'
p2336
(lp2337
I22382436
aI22407428
aS'+'
asS'TP53TG3D'
p2338
(lp2339
I32252719
aI32255922
aS'+'
asS'PDZD9'
p2340
(lp2341
I21983865
aI22001110
aS'-'
asS'GCSH'
p2342
(lp2343
I81081938
aI81096425
aS'-'
asS'FRG2GP'
p2344
(lp2345
I35384144
aI35385086
aS'-'
asS'RFWD3'
p2346
(lp2347
I74621394
aI74666881
aS'-'
asS'ACD'
p2348
(lp2349
I67657513
aI67660815
aS'-'
asS'DUX4L46'
p2350
(lp2351
I34141256
aI34142006
aS'-'
asS'PTX4'
p2352
(lp2353
I1485886
aI1488981
aS'-'
asS'AC142381.4'
p2354
(lp2355
I32008438
aI32084785
aS'-'
asS'DDX11L10'
p2356
(lp2357
I11555
aI14090
aS'+'
asS'CBLN1'
p2358
(lp2359
I49277917
aI49281831
aS'-'
asS'HYDIN'
p2360
(lp2361
I70807378
aI71230689
aS'-'
asS'ZNF747'
p2362
(lp2363
I30530367
aI30535347
aS'-'
asS'TMED6'
p2364
(lp2365
I69343248
aI69351809
aS'-'
asS'CKLF-CMTM1'
p2366
(lp2367
I66552613
aI66579135
aS'+'
asS'OGFOD1'
p2368
(lp2369
I56451490
aI56479100
aS'+'
asS'ZNF629'
p2370
(lp2371
I30778449
aI30787202
aS'-'
asS'AGGF1P4'
p2372
(lp2373
I35389203
aI35390003
aS'-'
asS'ABCC6P1'
p2374
(lp2375
I18571188
aI18598328
aS'+'
asS'MRPS34'
p2376
(lp2377
I1771890
aI1773155
aS'-'
asS'AC092115.1'
p2378
(lp2379
I69756536
aI69757937
aS'-'
asS'HCFC1R1'
p2380
(lp2381
I3022625
aI3024269
aS'-'
asS'ABCC6P2'
p2382
(lp2383
I14820792
aI14824669
aS'-'
asS'IGHV3OR16-9'
p2384
(lp2385
I32066065
aI32066358
aS'+'
asS'IGHV3OR16-8'
p2386
(lp2387
I33009175
aI33009620
aS'+'
asS'MAPK3'
p2388
(lp2389
I30114106
aI30123309
aS'-'
asS'SUB1P3'
p2390
(lp2391
I4562814
aI4563128
aS'-'
asS'CLUHP3'
p2392
(lp2393
I31700590
aI31707437
aS'+'
asS'CES5A'
p2394
(lp2395
I55846154
aI55956031
aS'-'
asS'BCO1'
p2396
(lp2397
I81238448
aI81291142
aS'+'
asS'IMPDH1P11'
p2398
(lp2399
I10111382
aI10112885
aS'+'
asS'RABEP2'
p2400
(lp2401
I28914574
aI28936526
aS'-'
asS'AC133548.1'
p2402
(lp2403
I32356981
aI32363695
aS'-'
asS'AC018845.2'
p2404
(lp2405
I47013957
aI47014365
aS'+'
asS'MPV17L'
p2406
(lp2407
I15395754
aI15413268
aS'+'
asS'IGHV3OR16-7'
p2408
(lp2409
I33938337
aI33938799
aS'-'
asS'NKD1'
p2410
(lp2411
I50548330
aI50649249
aS'+'
asS'AC009086.2'
p2412
(lp2413
I29663279
aI29695144
aS'+'
asS'SIAH1'
p2414
(lp2415
I48356364
aI48448402
aS'-'
asS'RBL2'
p2416
(lp2417
I53434420
aI53491649
aS'+'
asS'TMEM204'
p2418
(lp2419
I1528688
aI1555580
aS'+'
asS'PDILT'
p2420
(lp2421
I20359170
aI20404737
aS'-'
asS'MT1E'
p2422
(lp2423
I56625475
aI56627112
aS'+'
asS'JPT2'
p2424
(lp2425
I1678256
aI1702086
aS'+'
asS'PAQR4'
p2426
(lp2427
I2969245
aI2973489
aS'+'
asS'ARL6IP1'
p2428
(lp2429
I18791667
aI18801678
aS'-'
asS'CTRB2'
p2430
(lp2431
I75204096
aI75207185
aS'-'
asS'MTND4P34'
p2432
(lp2433
I10721698
aI10723068
aS'-'
asS'IL4R'
p2434
(lp2435
I27313913
aI27364778
aS'+'
asS'GGA2'
p2436
(lp2437
I23463542
aI23510494
aS'-'
asS'AC109446.1'
p2438
(lp2439
I17096202
aI17096421
aS'-'
asS'TSNAXIP1'
p2440
(lp2441
I67806765
aI67828014
aS'+'
asS'AC136944.3'
p2442
(lp2443
I33563030
aI33570935
aS'-'
asS'AC133548.2'
p2444
(lp2445
I32289547
aI32310555
aS'-'
asS'MLST8'
p2446
(lp2447
I2205177
aI2209396
aS'+'
asS'CDIPT-AS1'
p2448
(lp2449
I29863593
aI29868053
aS'+'
asS'VWA3A'
p2450
(lp2451
I22092542
aI22156966
aS'+'
asS'FHOD1'
p2452
(lp2453
I67229389
aI67247658
aS'-'
asS'TPSB2'
p2454
(lp2455
I1227272
aI1230184
aS'-'
asS'AC092718.8'
p2456
(lp2457
I81022316
aI81096284
aS'-'
asS'VPS35'
p2458
(lp2459
I46656132
aI46689192
aS'-'
asS'RPS20P2'
p2460
(lp2461
I1329078
aI1329777
aS'+'
asS'ITFG1'
p2462
(lp2463
I47154387
aI47461274
aS'-'
asS'RGS11'
p2464
(lp2465
I268301
aI275940
aS'-'
asS'AC092718.3'
p2466
(lp2467
I81053587
aI81096233
aS'-'
asS'GAPDHP35'
p2468
(lp2469
I28239693
aI28240668
aS'-'
asS'PKD1'
p2470
(lp2471
I2088710
aI2135898
aS'-'
asS'OSGIN1'
p2472
(lp2473
I83949067
aI83966332
aS'+'
asS'AC074050.1'
p2474
(lp2475
I31697397
aI31697607
aS'-'
asS'IGFALS'
p2476
(lp2477
I1790413
aI1793763
aS'-'
asS'AC138811.2'
p2478
(lp2479
I18788063
aI18801519
aS'-'
asS'TMPOP2'
p2480
(lp2481
I74667506
aI74668706
aS'+'
asS'EMP2'
p2482
(lp2483
I10528422
aI10580698
aS'-'
asS'AC005363.1'
p2484
(lp2485
I1963745
aI1964095
aS'-'
asS'PRM3'
p2486
(lp2487
I11273218
aI11273641
aS'-'
asS'PRM2'
p2488
(lp2489
I11275639
aI11276480
aS'-'
asS'DECR2'
p2490
(lp2491
I401826
aI412487
aS'+'
asS'TMEM231'
p2492
(lp2493
I75536744
aI75556286
aS'-'
asS'OR1F2P'
p2494
(lp2495
I3215611
aI3216543
aS'+'
asS'KARS'
p2496
(lp2497
I75627474
aI75647665
aS'-'
asS'CLDN6'
p2498
(lp2499
I3014712
aI3020071
aS'-'
asS'UTP4'
p2500
(lp2501
I69167104
aI69231130
aS'+'
asS'FP325313.1'
p2502
(lp2503
I34353616
aI34371659
aS'-'
asS'NPIPB13'
p2504
(lp2505
I30222937
aI30245801
aS'-'
asS'KCTD5'
p2506
(lp2507
I2682475
aI2709030
aS'+'
asS'SPG7'
p2508
(lp2509
I89508403
aI89557766
aS'+'
asS'ZNF319'
p2510
(lp2511
I57994668
aI57999858
aS'-'
asS'CLEC16A'
p2512
(lp2513
I10944488
aI11182189
aS'+'
asS'AC092132.2'
p2514
(lp2515
I20155648
aI20158391
aS'+'
asS'AC106785.3'
p2516
(lp2517
I35836886
aI35837732
aS'+'
asS'AC074051.4'
p2518
(lp2519
I5260686
aI5261043
aS'-'
asS'OR1F1'
p2520
(lp2521
I3204247
aI3205188
aS'+'
asS'CNTNAP4'
p2522
(lp2523
I76277278
aI76559238
aS'+'
asS'FOPNL'
p2524
(lp2525
I15865720
aI15888615
aS'-'
asS'AC012182.1'
p2526
(lp2527
I58092053
aI58092947
aS'-'
asS'RMI2'
p2528
(lp2529
I11249649
aI11351755
aS'+'
asS'CORO7'
p2530
(lp2531
I4354542
aI4416664
aS'-'
asS'NME4'
p2532
(lp2533
I397200
aI410367
aS'+'
asS'URAHP'
p2534
(lp2535
I90039761
aI90047625
aS'-'
asS'UBE2FP2'
p2536
(lp2537
I63180610
aI63181071
aS'-'
asS'HAGH'
p2538
(lp2539
I1795620
aI1822904
aS'-'
asS'CPNE2'
p2540
(lp2541
I57092537
aI57148367
aS'+'
asS'TSR3'
p2542
(lp2543
I1349240
aI1351911
aS'-'
asS'IL17C'
p2544
(lp2545
I88638593
aI88640473
aS'+'
asS'CPNE7'
p2546
(lp2547
I89575768
aI89597246
aS'+'
asS'SGF29'
p2548
(lp2549
I28553926
aI28591790
aS'+'
asS'CTU2'
p2550
(lp2551
I88706463
aI88715386
aS'+'
asS'DNASE1'
p2552
(lp2553
I3611728
aI3658095
aS'+'
asS'NPIPA5'
p2554
(lp2555
I15365174
aI15381047
aS'-'
asS'DPEP2'
p2556
(lp2557
I67987397
aI68000586
aS'-'
asS'DOK4'
p2558
(lp2559
I57471958
aI57486495
aS'-'
asS'HERC2P8'
p2560
(lp2561
I33095029
aI33117178
aS'-'
asS'LDHD'
p2562
(lp2563
I75111860
aI75116767
aS'-'
asS'PYCARD'
p2564
(lp2565
I31201485
aI31202992
aS'-'
asS'HSBP1'
p2566
(lp2567
I83807843
aI83819737
aS'+'
asS'HSD11B2'
p2568
(lp2569
I67431117
aI67437553
aS'+'
asS'LONP2'
p2570
(lp2571
I48244296
aI48357349
aS'+'
asS'AC020765.1'
p2572
(lp2573
I28548331
aI28548658
aS'-'
asS'KIAA0556'
p2574
(lp2575
I27550152
aI27780369
aS'+'
asS'TRAF7'
p2576
(lp2577
I2155765
aI2178129
aS'+'
asS'ORC6'
p2578
(lp2579
I46689646
aI46698394
aS'+'
asS'MTCO1P28'
p2580
(lp2581
I3367719
aI3369246
aS'-'
asS'UMOD'
p2582
(lp2583
I20333069
aI20356301
aS'-'
asS'PDIA2'
p2584
(lp2585
I283152
aI287215
aS'+'
asS'CALB2'
p2586
(lp2587
I71358713
aI71390436
aS'+'
asS'AC142381.3'
p2588
(lp2589
I31975803
aI32003728
aS'+'
asS'CRYM'
p2590
(lp2591
I21258521
aI21303051
aS'-'
asS'USP10'
p2592
(lp2593
I84699995
aI84779922
aS'+'
asS'SOX8'
p2594
(lp2595
I981808
aI986979
aS'+'
asS'TVP23A'
p2596
(lp2597
I10760919
aI10818607
aS'-'
asS'GDE1'
p2598
(lp2599
I19501689
aI19522145
aS'-'
asS'TPRKBP2'
p2600
(lp2601
I28111173
aI28111647
aS'-'
asS'ARMC5'
p2602
(lp2603
I31458080
aI31467105
aS'+'
asS'ABCC12'
p2604
(lp2605
I48083347
aI48156018
aS'-'
asS'RPL34P29'
p2606
(lp2607
I49935028
aI49935352
aS'+'
asS'ABCC11'
p2608
(lp2609
I48166910
aI48247394
aS'-'
asS'C1QTNF8'
p2610
(lp2611
I1090005
aI1096244
aS'-'
asS'CACNG3'
p2612
(lp2613
I24255553
aI24362801
aS'+'
asS'AC109446.2'
p2614
(lp2615
I17094351
aI17094927
aS'-'
asS'RNF166'
p2616
(lp2617
I88696495
aI88706421
aS'-'
asS'PLEKHG4'
p2618
(lp2619
I67277510
aI67289479
aS'+'
asS'CLEC19A'
p2620
(lp2621
I19285739
aI19322145
aS'+'
asS'GPR139'
p2622
(lp2623
I20031485
aI20073917
aS'-'
asS'BBS2'
p2624
(lp2625
I56484385
aI56520283
aS'-'
asS'TXNDC11'
p2626
(lp2627
I11679080
aI11742878
aS'-'
asS'CDH8'
p2628
(lp2629
I61647242
aI62036835
aS'-'
asS'TBC1D10B'
p2630
(lp2631
I30357102
aI30370264
aS'-'
asS'AC138932.3'
p2632
(lp2633
I14988259
aI14990160
aS'-'
asS'GRIN2A'
p2634
(lp2635
I9753404
aI10182754
aS'-'
asS'NPIPA8'
p2636
(lp2637
I18317942
aI18336736
aS'-'
asS'PAGR1'
p2638
(lp2639
I29815952
aI29820117
aS'+'
asS'AC138932.4'
p2640
(lp2641
I14953012
aI14953120
aS'-'
asS'PDPK1'
p2642
(lp2643
I2537964
aI2603188
aS'+'
asS'NPIPA7'
p2644
(lp2645
I16379055
aI16393954
aS'+'
asS'ENPP7P13'
p2646
(lp2647
I33769421
aI33769679
aS'+'
asS'NPIPA1'
p2648
(lp2649
I14922802
aI14952060
aS'+'
asS'NPIPA2'
p2650
(lp2651
I14748066
aI14765413
aS'+'
asS'NPIPA3'
p2652
(lp2653
I14708944
aI14726338
aS'+'
as.