(dp1
S'RPL7AP51'
p2
(lp3
I67334123
aI67334882
aS'+'
asS'RPL7AP50'
p4
(lp5
I63902451
aI63903245
aS'-'
asS'RPL7AP53'
p6
(lp7
I33057615
aI33058407
aS'-'
asS'ZDHHC16'
p8
(lp9
I97446131
aI97457363
aS'+'
asS'ARHGAP19-SLIT1'
p10
(lp11
I97153046
aI97292637
aS'-'
asS'RPS8P4'
p12
(lp13
I119638456
aI119639082
aS'+'
asS'TACC1P1'
p14
(lp15
I37523011
aI37544701
aS'+'
asS'AL355355.2'
p16
(lp17
I13139196
aI13139533
aS'-'
asS'RPS15AP29'
p18
(lp19
I103125017
aI103125416
aS'-'
asS'RPEL1'
p20
(lp21
I103245887
aI103248016
aS'+'
asS'PSME2P6'
p22
(lp23
I22225698
aI22226024
aS'+'
asS'RPL26P6'
p24
(lp25
I73422259
aI73422696
aS'-'
asS'ELOBP4'
p26
(lp27
I34488583
aI34488878
aS'-'
asS'PHYHIPL'
p28
(lp29
I59176590
aI59247774
aS'+'
asS'RPS10P18'
p30
(lp31
I124489823
aI124490578
aS'-'
asS'SEC23IP'
p32
(lp33
I119892711
aI119944658
aS'+'
asS'MTND1P21'
p34
(lp35
I20804293
aI20804577
aS'+'
asS'PDCD11'
p36
(lp37
I103396648
aI103446292
aS'+'
asS'AC022387.2'
p38
(lp39
I63658074
aI63658521
aS'+'
asS'HPSE2'
p40
(lp41
I98459118
aI99235862
aS'-'
asS'SEMA4G'
p42
(lp43
I100969523
aI100985616
aS'+'
asS'NPAP1P2'
p44
(lp45
I79860573
aI79861806
aS'+'
asS'C10orf113'
p46
(lp47
I21125763
aI21146559
aS'-'
asS'SGPL1'
p48
(lp49
I70815970
aI70881173
aS'+'
asS'NUTM2HP'
p50
(lp51
I50676743
aI50686326
aS'+'
asS'DLG5'
p52
(lp53
I77790791
aI77926526
aS'-'
asS'BLOC1S2'
p54
(lp55
I100273280
aI100286378
aS'-'
asS'FAM21EP'
p56
(lp57
I50021182
aI50067803
aS'-'
asS'DMBT1'
p58
(lp59
I122560665
aI122643736
aS'+'
asS'HKDC1'
p60
(lp61
I69220303
aI69267559
aS'+'
asS'COMMD3'
p62
(lp63
I22315974
aI22320308
aS'+'
asS'GLUD1P3'
p64
(lp65
I73731176
aI73737311
aS'+'
asS'CALHM1'
p66
(lp67
I103453387
aI103458888
aS'-'
asS'PRPF38AP2'
p68
(lp69
I17577362
aI17578212
aS'+'
asS'ATRNL1'
p70
(lp71
I115093625
aI115948992
aS'+'
asS'ANXA2P3'
p72
(lp73
I64825572
aI64826579
aS'+'
asS'DUX4L13'
p74
(lp75
I133753250
aI133754516
aS'+'
asS'NET1'
p76
(lp77
I5412551
aI5458463
aS'+'
asS'NPM1P24'
p78
(lp79
I72917641
aI72918534
aS'-'
asS'HMGN2P35'
p80
(lp81
I96915633
aI96915902
aS'-'
asS'FAM171A1'
p82
(lp83
I15211643
aI15371059
aS'-'
asS'ZSWIM8'
p84
(lp85
I73785582
aI73801792
aS'+'
asS'BX248123.2'
p86
(lp87
I79526508
aI79526631
aS'-'
asS'COX6CP15'
p88
(lp89
I77433572
aI77433782
aS'-'
asS'AL138921.3'
p90
(lp91
I100105754
aI100140151
aS'-'
asS'CYP2C8'
p92
(lp93
I95036772
aI95069497
aS'-'
asS'PPP2R2D'
p94
(lp95
I131900644
aI131959834
aS'+'
asS'CAMK2G'
p96
(lp97
I73812501
aI73874591
aS'-'
asS'CRTAC1'
p98
(lp99
I97865000
aI98030828
aS'-'
asS'RPL39P25'
p100
(lp101
I75269392
aI75269545
aS'-'
asS'ZNF37BP'
p102
(lp103
I42513510
aI42552794
aS'-'
asS'COX20P1'
p104
(lp105
I68632371
aI68632727
aS'+'
asS'HSD17B7P2'
p106
(lp107
I38356380
aI38378505
aS'+'
asS'ABLIM1'
p108
(lp109
I114431113
aI114684655
aS'-'
asS'PRR26'
p110
(lp111
I650077
aI669581
aS'+'
asS'PIPSL'
p112
(lp113
I93958191
aI93961540
aS'-'
asS'CXCL12'
p114
(lp115
I44370165
aI44385092
aS'-'
asS'GATA3'
p116
(lp117
I8054693
aI8075198
aS'+'
asS'RPL35AP24'
p118
(lp119
I49909613
aI49909942
aS'+'
asS'RPL35AP25'
p120
(lp121
I45940522
aI45940851
aS'+'
asS'KAZALD1'
p122
(lp123
I101063078
aI101067890
aS'+'
asS'AL031601.1'
p124
(lp125
I42209990
aI42210383
aS'+'
asS'RPL5P26'
p126
(lp127
I69778962
aI69779838
aS'+'
asS'RPS19P7'
p128
(lp129
I45073146
aI45073541
aS'-'
asS'AL157398.1'
p130
(lp131
I20841375
aI20841560
aS'+'
asS'LZTS2'
p132
(lp133
I100997072
aI101007836
aS'+'
asS'KLLN'
p134
(lp135
I87859161
aI87863437
aS'-'
asS'PTER'
p136
(lp137
I16436943
aI16513745
aS'+'
asS'PTEN'
p138
(lp139
I87863113
aI87971930
aS'+'
asS'AL360182.1'
p140
(lp141
I110257064
aI110257843
aS'+'
asS'P4HA1'
p142
(lp143
I73007224
aI73096974
aS'-'
asS'ARHGAP12'
p144
(lp145
I31805404
aI31928876
aS'-'
asS'CYP26A1'
p146
(lp147
I93073475
aI93077884
aS'+'
asS'PSTK'
p148
(lp149
I122954381
aI122990390
aS'+'
asS'CTBP2'
p150
(lp151
I124984317
aI125160513
aS'-'
asS'RPS7P9'
p152
(lp153
I80716483
aI80717068
aS'-'
asS'NTAN1P1'
p154
(lp155
I115819842
aI115820487
aS'-'
asS'NPS'
p156
(lp157
I127549369
aI127552639
aS'+'
asS'ARHGAP19'
p158
(lp159
I97222176
aI97292673
aS'-'
asS'ITGA8'
p160
(lp161
I15513949
aI15720125
aS'-'
asS'ZNF33BP1'
p162
(lp163
I37794276
aI37796109
aS'-'
asS'C8orf59P1'
p164
(lp165
I13308145
aI13308447
aS'-'
asS'IFIT6P'
p166
(lp167
I89362294
aI89363487
aS'+'
asS'LRIT2'
p168
(lp169
I84220495
aI84225589
aS'-'
asS'ADARB2'
p170
(lp171
I1177318
aI1737476
aS'-'
asS'LRIT1'
p172
(lp173
I84231593
aI84241461
aS'-'
asS'DPYSL4'
p174
(lp175
I132186900
aI132205776
aS'+'
asS'CUBNP3'
p176
(lp177
I45127318
aI45148914
aS'+'
asS'UROS'
p178
(lp179
I125788578
aI125823227
aS'-'
asS'EIF5AP4'
p180
(lp181
I80247219
aI80247683
aS'-'
asS'SFXN4'
p182
(lp183
I119140913
aI119165667
aS'-'
asS'SFXN2'
p184
(lp185
I102714540
aI102743492
aS'+'
asS'SFXN3'
p186
(lp187
I101031234
aI101041244
aS'+'
asS'GOLGA7B'
p188
(lp189
I97850239
aI97871578
aS'+'
asS'MTND1P18'
p190
(lp191
I37600796
aI37601368
aS'-'
asS'RPL7P36'
p192
(lp193
I99047639
aI99048319
aS'+'
asS'SEPT7P9'
p194
(lp195
I38383069
aI38402593
aS'-'
asS'IFIT5'
p196
(lp197
I89414586
aI89421001
aS'+'
asS'IFIT3'
p198
(lp199
I89327894
aI89340971
aS'+'
asS'IFIT2'
p200
(lp201
I89283694
aI89308900
aS'+'
asS'IFIT1'
p202
(lp203
I89392546
aI89406486
aS'+'
asS'PANK1'
p204
(lp205
I89579497
aI89645572
aS'-'
asS'AGGF1P2'
p206
(lp207
I133640789
aI133642894
aS'+'
asS'BMS1'
p208
(lp209
I42782801
aI42834937
aS'+'
asS'TIMM23B'
p210
(lp211
I49942049
aI49974850
aS'+'
asS'SCART1'
p212
(lp213
I133456237
aI133523558
aS'+'
asS'KCNMA1'
p214
(lp215
I76869602
aI77637819
aS'-'
asS'DDX10P1'
p216
(lp217
I30919012
aI30921235
aS'-'
asS'RHEBP1'
p218
(lp219
I46634911
aI46635466
aS'-'
asS'DUX4L11'
p220
(lp221
I133746641
aI133747907
aS'+'
asS'AL157392.5'
p222
(lp223
I13610047
aI13655929
aS'+'
asS'FBXL15'
p224
(lp225
I102419814
aI102423136
aS'+'
asS'AGAP10P'
p226
(lp227
I45678692
aI45700532
aS'+'
asS'ZNF511'
p228
(lp229
I133308475
aI133313158
aS'+'
asS'DUX4L21'
p230
(lp231
I133680369
aI133681637
aS'+'
asS'KCNIP2'
p232
(lp233
I101825974
aI101843920
aS'-'
asS'GDF10'
p234
(lp235
I47300386
aI47313547
aS'+'
asS'AL117339.3'
p236
(lp237
I38250442
aI38250603
aS'-'
asS'AL117339.2'
p238
(lp239
I38161570
aI38161749
aS'+'
asS'AL117339.1'
p240
(lp241
I38175668
aI38212357
aS'+'
asS'TECTB'
p242
(lp243
I112283735
aI112305035
aS'+'
asS'DPCD'
p244
(lp245
I101570560
aI101596651
aS'+'
asS'KCNK18'
p246
(lp247
I117197489
aI117210299
aS'+'
asS'PABPC1P8'
p248
(lp249
I42279734
aI42281819
aS'-'
asS'UQCRHP3'
p250
(lp251
I43732334
aI43732584
aS'+'
asS'OR6L2P'
p252
(lp253
I133430394
aI133431318
aS'-'
asS'GPN3P1'
p254
(lp255
I25647570
aI25648104
aS'-'
asS'CHUK'
p256
(lp257
I100188298
aI100229619
aS'-'
asS'AL713922.2'
p258
(lp259
I147820
aI148751
aS'-'
asS'RSU1P1'
p260
(lp261
I42725857
aI42737159
aS'+'
asS'VN1R53P'
p262
(lp263
I37348616
aI37349572
aS'+'
asS'RSU1P3'
p264
(lp265
I51319826
aI51320660
aS'+'
asS'GPAM'
p266
(lp267
I112180521
aI112215377
aS'-'
asS'IMPDH1P5'
p268
(lp269
I77780337
aI77781876
aS'-'
asS'CHCHD3P1'
p270
(lp271
I8619933
aI8620608
aS'+'
asS'HMGB3P5'
p272
(lp273
I110450629
aI110451240
aS'+'
asS'GDI2'
p274
(lp275
I5786006
aI5842132
aS'-'
asS'CHST3'
p276
(lp277
I71964365
aI72013564
aS'+'
asS'PLEKHS1'
p278
(lp279
I113751454
aI113782432
aS'+'
asS'ZEB1'
p280
(lp281
I31318495
aI31529202
aS'+'
asS'TACR2'
p282
(lp283
I69404484
aI69416867
aS'-'
asS'BMS1P7'
p284
(lp285
I48050282
aI48060016
aS'-'
asS'ARL5B'
p286
(lp287
I18659405
aI18681639
aS'+'
asS'GSTO2'
p288
(lp289
I104268873
aI104299417
aS'+'
asS'RPL13AP6'
p290
(lp291
I110936622
aI110937233
aS'-'
asS'RPL13AP5'
p292
(lp293
I96750288
aI96750899
aS'+'
asS'GSTO1'
p294
(lp295
I104235356
aI104259798
aS'+'
asS'ERLIN1'
p296
(lp297
I100150094
aI100188334
aS'-'
asS'ZDHHC6'
p298
(lp299
I112424428
aI112446917
aS'-'
asS'PTF1A'
p300
(lp301
I23192327
aI23194252
aS'+'
asS'ATAD1'
p302
(lp303
I87751512
aI87818160
aS'-'
asS'DNAJC1'
p304
(lp305
I21756537
aI22003725
aS'-'
asS'AL136982.4'
p306
(lp307
I87001636
aI87009905
aS'+'
asS'AL136982.5'
p308
(lp309
I87027184
aI87027477
aS'+'
asS'FRAT1'
p310
(lp311
I97319267
aI97321915
aS'+'
asS'FRAT2'
p312
(lp313
I97332497
aI97334709
aS'-'
asS'WDFY4'
p314
(lp315
I48684876
aI48982956
aS'+'
asS'PTCD2P2'
p316
(lp317
I88876450
aI88877544
aS'+'
asS'USMG5'
p318
(lp319
I103389050
aI103396466
aS'-'
asS'MINDY3'
p320
(lp321
I15778170
aI15860520
aS'-'
asS'RPAP2P1'
p322
(lp323
I86854696
aI86856236
aS'-'
asS'RRP12'
p324
(lp325
I97356701
aI97426074
aS'-'
asS'SLC18A2'
p326
(lp327
I117241093
aI117279430
aS'+'
asS'MINPP1'
p328
(lp329
I87504875
aI87553388
aS'+'
asS'IL15RA'
p330
(lp331
I5943639
aI5977611
aS'-'
asS'INA'
p332
(lp333
I103277163
aI103290351
aS'+'
asS'IFIT1B'
p334
(lp335
I89378056
aI89385205
aS'+'
asS'AC069545.1'
p336
(lp337
I55746551
aI55746908
aS'+'
asS'KSR1P1'
p338
(lp339
I42149310
aI42149549
aS'-'
asS'OR6L1P'
p340
(lp341
I133575122
aI133576031
aS'-'
asS'PRELID1P3'
p342
(lp343
I63427297
aI63427939
aS'+'
asS'YWHAZP3'
p344
(lp345
I23136924
aI23137661
aS'+'
asS'MTCO2P23'
p346
(lp347
I69590583
aI69591262
aS'-'
asS'RPL37P18'
p348
(lp349
I34663859
aI34664101
aS'-'
asS'AP3M1'
p350
(lp351
I74120255
aI74151063
aS'-'
asS'OTUD1'
p352
(lp353
I23439458
aI23442390
aS'+'
asS'YWHAZP5'
p354
(lp355
I105686322
aI105687051
aS'+'
asS'AL645998.1'
p356
(lp357
I45725694
aI45726038
aS'-'
asS'AL512324.1'
p358
(lp359
I45180400
aI45180616
aS'+'
asS'AMD1P1'
p360
(lp361
I20350049
aI20351100
aS'+'
asS'CDC123'
p362
(lp363
I12195966
aI12250588
aS'+'
asS'POLL'
p364
(lp365
I101578884
aI101588270
aS'-'
asS'HTRA1'
p366
(lp367
I122461525
aI122514908
aS'+'
asS'PIK3AP1'
p368
(lp369
I96593312
aI96720514
aS'-'
asS'CCDC186'
p370
(lp371
I114120862
aI114174220
aS'-'
asS'UTF1'
p372
(lp373
I133230274
aI133231558
aS'+'
asS'AL590365.1'
p374
(lp375
I15171036
aI15171278
aS'-'
asS'TLL2'
p376
(lp377
I96364606
aI96513911
aS'-'
asS'PARGP1'
p378
(lp379
I45888165
aI45972154
aS'-'
asS'ITPRIP'
p380
(lp381
I104312131
aI104338404
aS'-'
asS'NCOA4'
p382
(lp383
I46005091
aI46030714
aS'-'
asS'WDR37'
p384
(lp385
I1049538
aI1132297
aS'+'
asS'SMC3'
p386
(lp387
I110567691
aI110604636
aS'+'
asS'PYROXD2'
p388
(lp389
I98383565
aI98415184
aS'-'
asS'ATOH7'
p390
(lp391
I68230624
aI68232103
aS'-'
asS'GPRIN2'
p392
(lp393
I46549044
aI46555530
aS'-'
asS'RET'
p394
(lp395
I43077027
aI43130351
aS'+'
asS'AKR1C8P'
p396
(lp397
I5154143
aI5185104
aS'-'
asS'RBM17'
p398
(lp399
I6089346
aI6117457
aS'+'
asS'ATE1'
p400
(lp401
I121740421
aI121928801
aS'-'
asS'TM9SF3'
p402
(lp403
I96518109
aI96587052
aS'-'
asS'DBF4P1'
p404
(lp405
I64168959
aI64170850
aS'-'
asS'LCOR'
p406
(lp407
I96832260
aI96964431
aS'+'
asS'AL359747.1'
p408
(lp409
I122820485
aI122826449
aS'+'
asS'RPS3AP5'
p410
(lp411
I84560443
aI84561263
aS'+'
asS'RPL34P20'
p412
(lp413
I97393197
aI97393547
aS'-'
asS'AL731556.1'
p414
(lp415
I77730766
aI77734769
aS'+'
asS'C10orf10'
p416
(lp417
I44970981
aI44978790
aS'-'
asS'BEND7'
p418
(lp419
I13438637
aI13502976
aS'-'
asS'GRID1'
p420
(lp421
I85599555
aI86366478
aS'-'
asS'AL133173.2'
p422
(lp423
I38617255
aI38617344
aS'+'
asS'CKS1BP2'
p424
(lp425
I29697935
aI29698174
aS'+'
asS'CTSLP4'
p426
(lp427
I50705380
aI50708906
aS'-'
asS'HMGN2P8'
p428
(lp429
I84081429
aI84081995
aS'+'
asS'CCNYL2'
p430
(lp431
I42408168
aI42472240
aS'-'
asS'DUX4L14'
p432
(lp433
I133756559
aI133757825
aS'+'
asS'AL355355.1'
p434
(lp435
I13142185
aI13142977
aS'-'
asS'CEP164P1'
p436
(lp437
I45002222
aI45071588
aS'-'
asS'FRMPD2'
p438
(lp439
I48155312
aI48274689
aS'-'
asS'MTND1P20'
p440
(lp441
I69595487
aI69596436
aS'-'
asS'SAR1A'
p442
(lp443
I70147289
aI70170523
aS'-'
asS'RPL36AP55'
p444
(lp445
I27904209
aI27905162
aS'+'
asS'MTND5P42'
p446
(lp447
I89786610
aI89787107
aS'+'
asS'AL354976.1'
p448
(lp449
I25244061
aI25244854
aS'-'
asS'CYP2C9'
p450
(lp451
I94938671
aI94989390
aS'+'
asS'RAB11FIP2'
p452
(lp453
I118004916
aI118046603
aS'-'
asS'GJD4'
p454
(lp455
I35605410
aI35608935
aS'+'
asS'ZFYVE27'
p456
(lp457
I97737121
aI97760906
aS'+'
asS'ARID5B'
p458
(lp459
I61901300
aI62096944
aS'+'
asS'AL513174.1'
p460
(lp461
I80233664
aI80245367
aS'+'
asS'PLA2G12B'
p462
(lp463
I72935170
aI72954778
aS'-'
asS'RPLP1P10'
p464
(lp465
I59088701
aI59089039
aS'-'
asS'GPR158'
p466
(lp467
I25175062
aI25602226
aS'+'
asS'EMX2'
p468
(lp469
I117542444
aI117549546
aS'+'
asS'LRMDA'
p470
(lp471
I75431453
aI76557375
aS'+'
asS'AL513321.1'
p472
(lp473
I65248032
aI65248792
aS'-'
asS'BTBD7P2'
p474
(lp475
I111322778
aI111323397
aS'+'
asS'C10orf67'
p476
(lp477
I23201916
aI23344845
aS'-'
asS'RPL21P93'
p478
(lp479
I28898996
aI28899484
aS'-'
asS'CCDC6'
p480
(lp481
I59788763
aI59906656
aS'-'
asS'FAM25E'
p482
(lp483
I45815428
aI45817324
aS'-'
asS'C10orf62'
p484
(lp485
I97589727
aI97590934
aS'+'
asS'TUBGCP2'
p486
(lp487
I133279642
aI133312337
aS'-'
asS'AC022028.1'
p488
(lp489
I85708760
aI85709167
aS'+'
asS'CTSLP6'
p490
(lp491
I79870375
aI79873903
aS'-'
asS'BX322534.1'
p492
(lp493
I133778258
aI133778498
aS'-'
asS'AL353754.1'
p494
(lp495
I7833618
aI7833957
aS'-'
asS'CTSLP2'
p496
(lp497
I46753605
aI46758198
aS'+'
asS'DUX4L15'
p498
(lp499
I133759859
aI133761125
aS'+'
asS'CUEDC2'
p500
(lp501
I102423245
aI102432661
aS'-'
asS'CTSLP1'
p502
(lp503
I87386685
aI87390203
aS'-'
asS'TMEM254'
p504
(lp505
I80078646
aI80092550
aS'+'
asS'AKR1B10P1'
p506
(lp507
I67750284
aI67751225
aS'+'
asS'CPEB3'
p508
(lp509
I92049631
aI92291087
aS'-'
asS'PRDX2P2'
p510
(lp511
I34965069
aI34966259
aS'+'
asS'RPL21P90'
p512
(lp513
I95999778
aI96000243
aS'-'
asS'RPL21P91'
p514
(lp515
I109807651
aI109808129
aS'+'
asS'RPL21P92'
p516
(lp517
I67793770
aI67794245
aS'+'
asS'C10orf88'
p518
(lp519
I122930903
aI122954311
aS'-'
asS'AL357520.1'
p520
(lp521
I18940501
aI18940953
aS'+'
asS'PPIAP32'
p522
(lp523
I130131770
aI130132241
aS'-'
asS'SGMS1'
p524
(lp525
I50305586
aI50623977
aS'-'
asS'UCN3'
p526
(lp527
I5365009
aI5374692
aS'+'
asS'HMGB3P8'
p528
(lp529
I116439468
aI116440044
aS'-'
asS'C10orf82'
p530
(lp531
I116663696
aI116669970
aS'-'
asS'NPM1P25'
p532
(lp533
I96189366
aI96190219
aS'-'
asS'MYOF'
p534
(lp535
I93306430
aI93482194
aS'-'
asS'NPM1P26'
p536
(lp537
I96560185
aI96560922
aS'+'
asS'PDZD7'
p538
(lp539
I101007684
aI101031157
aS'-'
asS'RPL31P44'
p540
(lp541
I52389112
aI52389488
aS'-'
asS'ADIPOR1P1'
p542
(lp543
I22162992
aI22165794
aS'+'
asS'GOLGA2P6'
p544
(lp545
I30364410
aI30374386
aS'-'
asS'RPL31P45'
p546
(lp547
I22266991
aI22267346
aS'+'
asS'STN1'
p548
(lp549
I103882542
aI103918205
aS'-'
asS'IL2RA'
p550
(lp551
I6010689
aI6062325
aS'-'
asS'KLF6'
p552
(lp553
I3775997
aI3785281
aS'-'
asS'FAM133CP'
p554
(lp555
I58715554
aI58716257
aS'+'
asS'RPL17P34'
p556
(lp557
I93284004
aI93284558
aS'-'
asS'NHP2P1'
p558
(lp559
I92216332
aI92216793
aS'+'
asS'PHBP9'
p560
(lp561
I100248271
aI100249095
aS'+'
asS'SLIT1'
p562
(lp563
I96998038
aI97185920
aS'-'
asS'ECHDC3'
p564
(lp565
I11742366
aI11764070
aS'+'
asS'MTCO1P23'
p566
(lp567
I69591406
aI69592931
aS'-'
asS'ZNF248'
p568
(lp569
I37776526
aI37857197
aS'-'
asS'AL583836.1'
p570
(lp571
I94688154
aI94853073
aS'+'
asS'MTRNR2L7'
p572
(lp573
I37601440
aI37602974
aS'-'
asS'CLRN3'
p574
(lp575
I127877841
aI127892947
aS'-'
asS'MTRNR2L5'
p576
(lp577
I55599303
aI55600041
aS'+'
asS'UBE2V2P1'
p578
(lp579
I19051455
aI19052170
aS'+'
asS'ITGB1'
p580
(lp581
I32929824
aI33005792
aS'-'
asS'AC022022.1'
p582
(lp583
I63489461
aI63489638
aS'+'
asS'AC022022.2'
p584
(lp585
I63358745
aI63359104
aS'+'
asS'MCM10'
p586
(lp587
I13161554
aI13211104
aS'+'
asS'AL356095.3'
p588
(lp589
I80053428
aI80053548
aS'-'
asS'SPOCK2'
p590
(lp591
I72059035
aI72089032
aS'-'
asS'AL356095.1'
p592
(lp593
I80017713
aI80017911
aS'-'
asS'INPP5A'
p594
(lp595
I132537820
aI132783480
aS'+'
asS'NOLC1'
p596
(lp597
I102152176
aI102163871
aS'+'
asS'NEFMP1'
p598
(lp599
I54599678
aI54600683
aS'+'
asS'PTPN20'
p600
(lp601
I46911396
aI47002322
aS'+'
asS'AL392103.1'
p602
(lp603
I92878092
aI92878289
aS'-'
asS'KRT19P4'
p604
(lp605
I68260557
aI68261499
aS'+'
asS'AC016397.1'
p606
(lp607
I48546472
aI48546713
aS'-'
asS'RPL11P4'
p608
(lp609
I92596852
aI92597287
aS'-'
asS'RPL11P3'
p610
(lp611
I87945502
aI87946024
aS'+'
asS'AC012044.1'
p612
(lp613
I45812648
aI45812944
aS'-'
asS'SUFU'
p614
(lp615
I102503987
aI102633535
aS'+'
asS'RPL7AP8'
p616
(lp617
I86630825
aI86631628
aS'-'
asS'UBE2V1P5'
p618
(lp619
I114117147
aI114117551
aS'+'
asS'MMP21'
p620
(lp621
I125766453
aI125775821
aS'-'
asS'NRP1'
p622
(lp623
I33177492
aI33336262
aS'-'
asS'AC022400.6'
p624
(lp625
I73796514
aI73811651
aS'-'
asS'TLK2P2'
p626
(lp627
I37818606
aI37820982
aS'-'
asS'CALY'
p628
(lp629
I133324072
aI133336907
aS'-'
asS'PARD3'
p630
(lp631
I34109560
aI34815325
aS'-'
asS'EXOC6'
p632
(lp633
I92834713
aI93059493
aS'+'
asS'PAWRP1'
p634
(lp635
I95183653
aI95184217
aS'+'
asS'BTRC'
p636
(lp637
I101354033
aI101557319
aS'+'
asS'ARL4AP1'
p638
(lp639
I60684505
aI60685209
aS'+'
asS'ASAH2B'
p640
(lp641
I50739952
aI50816495
aS'+'
asS'AL359385.1'
p642
(lp643
I97275012
aI97278097
aS'+'
asS'DKK1'
p644
(lp645
I52314296
aI52317657
aS'+'
asS'CFAP46'
p646
(lp647
I132808392
aI132942585
aS'-'
asS'MRLN'
p648
(lp649
I59738472
aI59756041
aS'-'
asS'ACBD7'
p650
(lp651
I15077523
aI15088776
aS'-'
asS'ACTR1A'
p652
(lp653
I102461881
aI102502709
aS'-'
asS'FAS'
p654
(lp655
I88990657
aI89015785
aS'+'
asS'PTCHD3'
p656
(lp657
I27398187
aI27414368
aS'-'
asS'ARL4AP3'
p658
(lp659
I5207169
aI5207742
aS'+'
asS'PPP3CB'
p660
(lp661
I73436428
aI73496001
aS'-'
asS'RAB11AP1'
p662
(lp663
I93881293
aI93881938
aS'-'
asS'RAB5CP1'
p664
(lp665
I74423435
aI74424014
aS'-'
asS'SFTPD'
p666
(lp667
I79941449
aI79982614
aS'-'
asS'LINC00959'
p668
(lp669
I130063900
aI130110817
aS'-'
asS'RPL34P19'
p670
(lp671
I31983885
aI31984554
aS'+'
asS'FUOM'
p672
(lp673
I133355154
aI133358035
aS'-'
asS'RARRES2P2'
p674
(lp675
I133637408
aI133637892
aS'-'
asS'IDI1'
p676
(lp677
I1039908
aI1049170
aS'-'
asS'IDI2'
p678
(lp679
I1018907
aI1025859
aS'-'
asS'IPMK'
p680
(lp681
I58191517
aI58267934
aS'-'
asS'TSPAN14'
p682
(lp683
I80454166
aI80533123
aS'+'
asS'MAT1A'
p684
(lp685
I80271820
aI80289684
aS'-'
asS'AL157712.1'
p686
(lp687
I130282445
aI130286604
aS'-'
asS'EIF3LP3'
p688
(lp689
I38080056
aI38080877
aS'-'
asS'DHTKD1'
p690
(lp691
I12068972
aI12123225
aS'+'
asS'SFMBT2'
p692
(lp693
I7158624
aI7411486
aS'-'
asS'HPS6'
p694
(lp695
I102065390
aI102068038
aS'+'
asS'MKX'
p696
(lp697
I27672875
aI27746060
aS'-'
asS'RPL23AP61'
p698
(lp699
I46063250
aI46063715
aS'+'
asS'ATP8A2P1'
p700
(lp701
I37248118
aI37315801
aS'+'
asS'EBLN1'
p702
(lp703
I22208814
aI22210021
aS'-'
asS'FOXI2'
p704
(lp705
I127737235
aI127741186
aS'+'
asS'SLC25A18P1'
p706
(lp707
I118572871
aI118573620
aS'+'
asS'MARCH8'
p708
(lp709
I45454593
aI45594906
aS'-'
asS'AGAP7P'
p710
(lp711
I46109621
aI46131358
aS'+'
asS'RPL5P28'
p712
(lp713
I133144612
aI133145304
aS'-'
asS'IGKV1OR10-1'
p714
(lp715
I42185339
aI42185791
aS'+'
asS'RSU1'
p716
(lp717
I16590611
aI16817528
aS'-'
asS'CYP2C61P'
p718
(lp719
I64762883
aI64763172
aS'-'
asS'RPL17P36'
p720
(lp721
I118872054
aI118872602
aS'-'
asS'CCSER2'
p722
(lp723
I84328589
aI84518521
aS'+'
asS'EIF3A'
p724
(lp725
I119033670
aI119080804
aS'-'
asS'FAM25BP'
p726
(lp727
I46369113
aI46373508
aS'+'
asS'HDAC1P1'
p728
(lp729
I94137748
aI94139500
aS'+'
asS'DYNC1I2P1'
p730
(lp731
I50264978
aI50266815
aS'+'
asS'ADRA2A'
p732
(lp733
I111077163
aI111080907
aS'+'
asS'AL355598.1'
p734
(lp735
I119093140
aI119093341
aS'+'
asS'R3HCC1L'
p736
(lp737
I98134624
aI98244894
aS'+'
asS'AC025946.2'
p738
(lp739
I8472719
aI8472952
aS'+'
asS'AL160287.1'
p740
(lp741
I26577791
aI26622338
aS'-'
asS'FGFBP3'
p742
(lp743
I91906589
aI91909483
aS'-'
asS'AC245041.1'
p744
(lp745
I47918739
aI47923524
aS'+'
asS'CACUL1'
p746
(lp747
I118676411
aI118755246
aS'-'
asS'VSIR'
p748
(lp749
I71747559
aI71773498
aS'-'
asS'DUX4L23'
p750
(lp751
I133673749
aI133675017
aS'+'
asS'PIP4K2A'
p752
(lp753
I22534849
aI22714555
aS'-'
asS'RNMTL1P1'
p754
(lp755
I21394033
aI21394592
aS'+'
asS'RPL23AP58'
p756
(lp757
I102572757
aI102573225
aS'-'
asS'RPL23AP59'
p758
(lp759
I106550106
aI106551121
aS'+'
asS'JAKMIP3'
p760
(lp761
I132104671
aI132184809
aS'+'
asS'LDHAP5'
p762
(lp763
I118932674
aI118933295
aS'-'
asS'EIF4A2P2'
p764
(lp765
I73199826
aI73201225
aS'+'
asS'AL359672.1'
p766
(lp767
I95031640
aI95032048
aS'+'
asS'HMGA1P5'
p768
(lp769
I75276376
aI75276646
aS'-'
asS'LIPF'
p770
(lp771
I88664441
aI88678811
aS'+'
asS'LIPK'
p772
(lp773
I88724544
aI88752786
aS'+'
asS'LIPJ'
p774
(lp775
I88586762
aI88606976
aS'+'
asS'LIPM'
p776
(lp777
I88802730
aI88820501
aS'+'
asS'DUSP8P5'
p778
(lp779
I73731824
aI73733638
aS'+'
asS'OR7M1P'
p780
(lp781
I133481238
aI133481770
aS'+'
asS'LIPN'
p782
(lp783
I88761406
aI88778242
aS'+'
asS'DNAJC19P1'
p784
(lp785
I67833763
aI67834081
aS'+'
asS'LDB3'
p786
(lp787
I86668449
aI86736068
aS'+'
asS'LDB1'
p788
(lp789
I102107583
aI102120453
aS'-'
asS'NMT2'
p790
(lp791
I15107866
aI15168693
aS'-'
asS'SEC24C'
p792
(lp793
I73744384
aI73772161
aS'+'
asS'AL513534.2'
p794
(lp795
I68717311
aI68717795
aS'-'
asS'PROSER2'
p796
(lp797
I11823398
aI11872277
aS'+'
asS'AL353093.1'
p798
(lp799
I29891032
aI29891467
aS'-'
asS'MTND4P18'
p800
(lp801
I36434710
aI36435174
aS'-'
asS'FAM45A'
p802
(lp803
I119104117
aI119137195
aS'+'
asS'HOGA1'
p804
(lp805
I97584343
aI97612802
aS'+'
asS'NUDT9P1'
p806
(lp807
I91152605
aI91153349
aS'-'
asS'MTND4P19'
p808
(lp809
I94774156
aI94774633
aS'-'
asS'MARK2P9'
p810
(lp811
I92418667
aI92420875
aS'+'
asS'C10orf120'
p812
(lp813
I122697709
aI122699822
aS'-'
asS'AL365203.2'
p814
(lp815
I33035469
aI33035664
aS'-'
asS'DUSP8P4'
p816
(lp817
I47564256
aI47566016
aS'+'
asS'CSTF2T'
p818
(lp819
I51695487
aI51699591
aS'-'
asS'TIMM9P1'
p820
(lp821
I74344550
aI74344805
aS'-'
asS'C10orf128'
p822
(lp823
I49154725
aI49188400
aS'-'
asS'MRPL43'
p824
(lp825
I100969458
aI100987196
aS'-'
asS'ECHS1'
p826
(lp827
I133362480
aI133373689
aS'-'
asS'UBTD1'
p828
(lp829
I97498868
aI97571209
aS'+'
asS'PLEKHA1'
p830
(lp831
I122374696
aI122442602
aS'+'
asS'TIAL1'
p832
(lp833
I119571802
aI119596495
aS'-'
asS'RPL13AP19'
p834
(lp835
I48745545
aI48746128
aS'-'
asS'XPNPEP1'
p836
(lp837
I109864766
aI109923553
aS'-'
asS'FAM24B'
p838
(lp839
I122849094
aI122879641
aS'-'
asS'AL133352.1'
p840
(lp841
I100505628
aI100529871
aS'-'
asS'PPA1'
p842
(lp843
I70202830
aI70233427
aS'-'
asS'GAPDHP21'
p844
(lp845
I55667341
aI55668350
aS'-'
asS'C1DP1'
p846
(lp847
I32511336
aI32511737
aS'-'
asS'ASCC1'
p848
(lp849
I72096032
aI72216109
aS'-'
asS'C1DP3'
p850
(lp851
I80024737
aI80025159
aS'-'
asS'C1DP2'
p852
(lp853
I80031968
aI80032393
aS'-'
asS'C1DP4'
p854
(lp855
I80040621
aI80041044
aS'-'
asS'GAPDHP28'
p856
(lp857
I91666780
aI91667782
aS'-'
asS'AL136452.1'
p858
(lp859
I10776223
aI10776661
aS'-'
asS'TPT1P10'
p860
(lp861
I58212541
aI58213036
aS'-'
asS'SLC29A3'
p862
(lp863
I71319258
aI71363385
aS'+'
asS'TRIAP1P1'
p864
(lp865
I27378138
aI27378362
aS'-'
asS'CCAR1'
p866
(lp867
I68721144
aI68792375
aS'+'
asS'DHX32'
p868
(lp869
I125836340
aI125881315
aS'-'
asS'EXOSC1'
p870
(lp871
I97436142
aI97446017
aS'-'
asS'TPM4P1'
p872
(lp873
I100114417
aI100115223
aS'-'
asS'OPN4'
p874
(lp875
I86654617
aI86666848
aS'+'
asS'CALHM3'
p876
(lp877
I103472804
aI103479240
aS'-'
asS'TPRKBP1'
p878
(lp879
I28658987
aI28659467
aS'+'
asS'NANOGP6'
p880
(lp881
I99788564
aI99789410
aS'-'
asS'ACSM6'
p882
(lp883
I95194200
aI95228928
aS'+'
asS'DDX50'
p884
(lp885
I68901278
aI68946847
aS'+'
asS'AL590623.1'
p886
(lp887
I38783004
aI38783108
aS'+'
asS'PTCHD3P1'
p888
(lp889
I29421476
aI29422012
aS'-'
asS'AKR1C1'
p890
(lp891
I4963253
aI4983283
aS'+'
asS'AL365273.2'
p892
(lp893
I95860548
aI95924844
aS'+'
asS'AL022345.2'
p894
(lp895
I42583241
aI42583375
aS'+'
asS'PRKG1'
p896
(lp897
I50991358
aI52298350
aS'+'
asS'HMGN2P34'
p898
(lp899
I72636497
aI72636765
aS'-'
asS'LRRTM3'
p900
(lp901
I66926006
aI67099830
aS'+'
asS'ANXA8'
p902
(lp903
I47460162
aI47484083
aS'-'
asS'RPS15AP30'
p904
(lp905
I112987476
aI112987865
aS'+'
asS'C10orf55'
p906
(lp907
I73909969
aI73922777
aS'-'
asS'MGEA5'
p908
(lp909
I101784443
aI101818465
aS'-'
asS'TNKS2'
p910
(lp911
I91798312
aI91865276
aS'+'
asS'SPA17P1'
p912
(lp913
I75382393
aI75382844
aS'-'
asS'PLXDC2'
p914
(lp915
I19816239
aI20289856
aS'+'
asS'C10orf53'
p916
(lp917
I49679686
aI49710261
aS'+'
asS'AKR1C7P'
p918
(lp919
I5275173
aI5288470
aS'-'
asS'ALDOAP2'
p920
(lp921
I125666875
aI125667950
aS'-'
asS'RASGEF1A'
p922
(lp923
I43194536
aI43266919
aS'-'
asS'ZNF101P1'
p924
(lp925
I28338554
aI28340942
aS'-'
asS'BUB3'
p926
(lp927
I123154277
aI123170467
aS'+'
asS'DUPD1'
p928
(lp929
I75037836
aI75058514
aS'-'
asS'NUDT5'
p930
(lp931
I12165325
aI12196124
aS'-'
asS'MLLT10'
p932
(lp933
I21524675
aI21743630
aS'+'
asS'NPFFR1'
p934
(lp935
I70247329
aI70283676
aS'-'
asS'ZNF25'
p936
(lp937
I37949572
aI37976633
aS'-'
asS'CCDC3'
p938
(lp939
I12896627
aI13099652
aS'-'
asS'DMBT1P1'
p940
(lp941
I122729429
aI122802665
aS'+'
asS'TRDMT1'
p942
(lp943
I17142254
aI17201672
aS'-'
asS'CCDC7'
p944
(lp945
I32451643
aI32876393
aS'+'
asS'ZNF22'
p946
(lp947
I45000475
aI45005326
aS'+'
asS'SDCBPP1'
p948
(lp949
I6293100
aI6294684
aS'-'
asS'ALDH7A1P4'
p950
(lp951
I62741208
aI62741385
aS'-'
asS'HACD1'
p952
(lp953
I17589032
aI17617377
aS'-'
asS'AL139281.1'
p954
(lp955
I23258211
aI23258545
aS'+'
asS'AL731563.1'
p956
(lp957
I73065126
aI73065467
aS'+'
asS'GTPBP4'
p958
(lp959
I988019
aI1019936
aS'+'
asS'CALML3'
p960
(lp961
I5524009
aI5526771
aS'+'
asS'EEF1A1P39'
p962
(lp963
I30301823
aI30302072
aS'-'
asS'COMTD1'
p964
(lp965
I75233969
aI75236011
aS'-'
asS'RPS26P39'
p966
(lp967
I123171535
aI123171875
aS'-'
asS'AC068896.1'
p968
(lp969
I124617080
aI124791727
aS'-'
asS'CALML5'
p970
(lp971
I5498697
aI5499555
aS'-'
asS'RPL17P35'
p972
(lp973
I64620374
aI64620922
aS'-'
asS'TRIM8'
p974
(lp975
I102644496
aI102658407
aS'+'
asS'CREM'
p976
(lp977
I35127460
aI35212958
aS'+'
asS'PCDH15'
p978
(lp979
I54378816
aI55627942
aS'-'
asS'SAR1AP2'
p980
(lp981
I126272818
aI126273411
aS'+'
asS'ZNF503'
p982
(lp983
I75397830
aI75401906
aS'-'
asS'COX15'
p984
(lp985
I99711844
aI99732100
aS'-'
asS'MBL3P'
p986
(lp987
I79582298
aI79584877
aS'-'
asS'MYO3A'
p988
(lp989
I25934267
aI26212527
aS'+'
asS'ZNF239'
p990
(lp991
I43556347
aI43574618
aS'-'
asS'PAOX'
p992
(lp993
I133379234
aI133391694
aS'+'
asS'NODAL'
p994
(lp995
I70432749
aI70447951
aS'-'
asS'EIF4A1P8'
p996
(lp997
I92136875
aI92138370
aS'+'
asS'AL591363.1'
p998
(lp999
I105685383
aI105685865
aS'-'
asS'KIAA1462'
p1000
(lp1001
I30047532
aI30115494
aS'-'
asS'AL160290.3'
p1002
(lp1003
I123323422
aI123323586
aS'-'
asS'PGGT1BP1'
p1004
(lp1005
I50726947
aI50727969
aS'-'
asS'KIF11'
p1006
(lp1007
I92593286
aI92655395
aS'+'
asS'CHAT'
p1008
(lp1009
I49609095
aI49665104
aS'+'
asS'PGAM1'
p1010
(lp1011
I97426160
aI97433441
aS'+'
asS'AKR1C4'
p1012
(lp1013
I5195463
aI5218949
aS'+'
asS'ANKRD30BP3'
p1014
(lp1015
I45156775
aI45176925
aS'+'
asS'ITIH2'
p1016
(lp1017
I7703269
aI7749520
aS'+'
asS'ITIH5'
p1018
(lp1019
I7559270
aI7666971
aS'-'
asS'AS3MT'
p1020
(lp1021
I102869516
aI102901899
aS'+'
asS'AKR1C2'
p1022
(lp1023
I4995834
aI5017955
aS'-'
asS'AKR1C3'
p1024
(lp1025
I5035354
aI5102210
aS'+'
asS'RPL7P35'
p1026
(lp1027
I110550115
aI110550854
aS'-'
asS'FRMPD2B'
p1028
(lp1029
I46870858
aI46894562
aS'+'
asS'ECD'
p1030
(lp1031
I73133656
aI73168059
aS'-'
asS'RPL7P34'
p1032
(lp1033
I88618223
aI88618934
aS'-'
asS'AL355493.4'
p1034
(lp1035
I27313723
aI27316587
aS'+'
asS'AC022400.4'
p1036
(lp1037
I73740538
aI73740823
aS'-'
asS'FAM208B'
p1038
(lp1039
I5684838
aI5763740
aS'+'
asS'AL355493.1'
p1040
(lp1041
I27331357
aI27341252
aS'-'
asS'UCMA'
p1042
(lp1043
I13221767
aI13234334
aS'-'
asS'FAM35A'
p1044
(lp1045
I87095196
aI87191468
aS'+'
asS'ENKUR'
p1046
(lp1047
I24981980
aI25062279
aS'-'
asS'RAB18'
p1048
(lp1049
I27504174
aI27542237
aS'+'
asS'RPL7P37'
p1050
(lp1051
I35697300
aI35698037
aS'+'
asS'C10orf71'
p1052
(lp1053
I49299193
aI49327487
aS'+'
asS'HMGB1P7'
p1054
(lp1055
I31913143
aI31913754
aS'+'
asS'WARS2P1'
p1056
(lp1057
I80940665
aI80941201
aS'-'
asS'AL133384.1'
p1058
(lp1059
I114501997
aI114502347
aS'-'
asS'AC012308.1'
p1060
(lp1061
I117023674
aI117023851
aS'-'
asS'AL356157.2'
p1062
(lp1063
I44488335
aI44488445
aS'-'
asS'RPS27P18'
p1064
(lp1065
I125473686
aI125473932
aS'-'
asS'FBXW4'
p1066
(lp1067
I101610666
aI101695259
aS'-'
asS'ZNF438'
p1068
(lp1069
I30844638
aI31031937
aS'-'
asS'RPS15AP28'
p1070
(lp1071
I69300432
aI69300817
aS'-'
asS'ANKRD54P1'
p1072
(lp1073
I45151445
aI45151915
aS'-'
asS'PPIAP19'
p1074
(lp1075
I114690143
aI114690634
aS'-'
asS'DOCK1'
p1076
(lp1077
I126905409
aI127452517
aS'+'
asS'BTF3P15'
p1078
(lp1079
I109534655
aI109534990
aS'+'
asS'PLPP4'
p1080
(lp1081
I120456954
aI120589855
aS'+'
asS'LARP4B'
p1082
(lp1083
I806914
aI931705
aS'-'
asS'SMNDC1'
p1084
(lp1085
I110290730
aI110304951
aS'-'
asS'SEPHS1'
p1086
(lp1087
I13317424
aI13348297
aS'-'
asS'MAPK8'
p1088
(lp1089
I48306639
aI48439357
aS'+'
asS'DUXAP3'
p1090
(lp1091
I42747544
aI42748687
aS'-'
asS'MTND4P20'
p1092
(lp1093
I94940253
aI94941121
aS'-'
asS'CELF2'
p1094
(lp1095
I10798397
aI11331186
aS'+'
asS'NUDT13'
p1096
(lp1097
I73110375
aI73131828
aS'+'
asS'SNRPD2P1'
p1098
(lp1099
I89978717
aI89979070
aS'+'
asS'ENO4'
p1100
(lp1101
I116859034
aI116911788
aS'+'
asS'AGAP5'
p1102
(lp1103
I73674285
aI73698159
aS'-'
asS'AGAP6'
p1104
(lp1105
I49982190
aI50010497
aS'+'
asS'COX6CP17'
p1106
(lp1107
I7295106
aI7295290
aS'-'
asS'AGAP9'
p1108
(lp1109
I47501854
aI47523638
aS'-'
asS'UBE2D1'
p1110
(lp1111
I58334975
aI58370753
aS'+'
asS'RPS6P15'
p1112
(lp1113
I111498191
aI111498941
aS'-'
asS'PDCD4'
p1114
(lp1115
I110871795
aI110900005
aS'+'
asS'COL17A1'
p1116
(lp1117
I104031286
aI104086002
aS'-'
asS'CNNM1'
p1118
(lp1119
I99329099
aI99394330
aS'+'
asS'CCND3P1'
p1120
(lp1121
I30403197
aI30403776
aS'-'
asS'CNNM2'
p1122
(lp1123
I102918293
aI103090221
aS'+'
asS'DNMBP'
p1124
(lp1125
I99875577
aI100009919
aS'-'
asS'AC006484.1'
p1126
(lp1127
I57955295
aI57957178
aS'+'
asS'TPRX1P1'
p1128
(lp1129
I79499666
aI79499984
aS'-'
asS'RTKN2'
p1130
(lp1131
I62193194
aI62268707
aS'-'
asS'CDK1'
p1132
(lp1133
I60778454
aI60794852
aS'+'
asS'SHOC2'
p1134
(lp1135
I110919547
aI111013667
aS'+'
asS'FAM107B'
p1136
(lp1137
I14518560
aI14774897
aS'-'
asS'ZNF33B'
p1138
(lp1139
I42581594
aI42638553
aS'-'
asS'CUZD1'
p1140
(lp1141
I122832149
aI122850793
aS'-'
asS'MCMBP'
p1142
(lp1143
I119829404
aI119872754
aS'-'
asS'ZNF33A'
p1144
(lp1145
I38010686
aI38065088
aS'+'
asS'CPN1'
p1146
(lp1147
I100042193
aI100081877
aS'-'
asS'SH3PXD2A'
p1148
(lp1149
I103594027
aI103855543
aS'-'
asS'SNRPGP12'
p1150
(lp1151
I110139214
aI110139426
aS'-'
asS'TRAF6P1'
p1152
(lp1153
I59136625
aI59138182
aS'-'
asS'AL713922.1'
p1154
(lp1155
I44712
aI46884
aS'+'
asS'RPS24P13'
p1156
(lp1157
I32231849
aI32232245
aS'-'
asS'MKNK2P1'
p1158
(lp1159
I36944111
aI36944738
aS'-'
asS'SVIL'
p1160
(lp1161
I29457338
aI29735804
aS'-'
asS'AC069542.2'
p1162
(lp1163
I17602910
aI17603127
aS'+'
asS'PCBD1'
p1164
(lp1165
I70883510
aI70888784
aS'-'
asS'ARMS2'
p1166
(lp1167
I122454653
aI122457352
aS'+'
asS'ERCC6'
p1168
(lp1169
I49455368
aI49539026
aS'-'
asS'AL590095.2'
p1170
(lp1171
I7154120
aI7154236
aS'+'
asS'MRPS16'
p1172
(lp1173
I73248843
aI73252693
aS'-'
asS'AURKAPS2'
p1174
(lp1175
I114246074
aI114246714
aS'+'
asS'TOMM22P5'
p1176
(lp1177
I118643760
aI118644198
aS'+'
asS'LGI1'
p1178
(lp1179
I93758028
aI93806134
aS'+'
asS'MTND2P16'
p1180
(lp1181
I19747823
aI19748621
aS'+'
asS'MED6P1'
p1182
(lp1183
I88048135
aI88049823
aS'-'
asS'SORBS1'
p1184
(lp1185
I95311773
aI95561414
aS'-'
asS'PITX3'
p1186
(lp1187
I102230186
aI102241474
aS'-'
asS'BMI1'
p1188
(lp1189
I22321211
aI22331484
aS'+'
asS'AC026396.1'
p1190
(lp1191
I2936021
aI2936441
aS'+'
asS'MTND1P37'
p1192
(lp1193
I19747172
aI19747435
aS'-'
asS'AL157831.1'
p1194
(lp1195
I22163092
aI22164306
aS'+'
asS'HNRNPRP1'
p1196
(lp1197
I21624592
aI21626286
aS'-'
asS'PNLIPRP1'
p1198
(lp1199
I116590960
aI116609175
aS'+'
asS'PNLIPRP3'
p1200
(lp1201
I116427867
aI116477957
aS'+'
asS'PNLIPRP2'
p1202
(lp1203
I116620953
aI116645143
aS'+'
asS'NSMCE4A'
p1204
(lp1205
I121957088
aI121975217
aS'-'
asS'PGGT1BP2'
p1206
(lp1207
I79892148
aI79893175
aS'-'
asS'ASAH2'
p1208
(lp1209
I50182778
aI50248610
aS'-'
asS'CUBNP2'
p1210
(lp1211
I45232026
aI45247361
aS'-'
asS'MMRN2'
p1212
(lp1213
I86943872
aI86969312
aS'-'
asS'OLAH'
p1214
(lp1215
I15032227
aI15065611
aS'+'
asS'CUBNP1'
p1216
(lp1217
I42694371
aI42714575
aS'-'
asS'PFKP'
p1218
(lp1219
I3067520
aI3136802
aS'+'
asS'TET1'
p1220
(lp1221
I68560656
aI68694482
aS'+'
asS'CTBP2P2'
p1222
(lp1223
I94646364
aI94647996
aS'-'
asS'ANK3'
p1224
(lp1225
I60028401
aI60733490
aS'-'
asS'DNAJC12'
p1226
(lp1227
I67796665
aI67838164
aS'-'
asS'AL355376.2'
p1228
(lp1229
I28806121
aI28813458
aS'+'
asS'RPS25P9'
p1230
(lp1231
I70198988
aI70199239
aS'-'
asS'PNLIPP1'
p1232
(lp1233
I116577308
aI116583317
aS'+'
asS'AGAP12P'
p1234
(lp1235
I48009873
aI48031599
aS'-'
asS'C10orf99'
p1236
(lp1237
I84173738
aI84185294
aS'+'
asS'RPS26P42'
p1238
(lp1239
I75125217
aI75125862
aS'+'
asS'RPS26P41'
p1240
(lp1241
I73537803
aI73538391
aS'+'
asS'RPS26P40'
p1242
(lp1243
I70794230
aI70794523
aS'-'
asS'RPL12P8'
p1244
(lp1245
I67874332
aI67874911
aS'+'
asS'ACBD5'
p1246
(lp1247
I27195217
aI27242130
aS'-'
asS'NPM1P30'
p1248
(lp1249
I21110682
aI21113388
aS'+'
asS'SUPV3L1'
p1250
(lp1251
I69180232
aI69209098
aS'+'
asS'AL607023.1'
p1252
(lp1253
I66837457
aI66837704
aS'+'
asS'OR7E110P'
p1254
(lp1255
I14986942
aI14987515
aS'-'
asS'DRGX'
p1256
(lp1257
I49364181
aI49395451
aS'-'
asS'VCL'
p1258
(lp1259
I73995193
aI74120160
aS'+'
asS'MTATP6P23'
p1260
(lp1261
I69589880
aI69590355
aS'-'
asS'AL133217.1'
p1262
(lp1263
I38247922
aI38333155
aS'+'
asS'TMEM14DP'
p1264
(lp1265
I68544489
aI68544833
aS'-'
asS'CHCHD1'
p1266
(lp1267
I73782063
aI73783652
aS'+'
asS'EBF3'
p1268
(lp1269
I129835283
aI129963841
aS'-'
asS'PBLD'
p1270
(lp1271
I68282660
aI68332927
aS'-'
asS'SLK'
p1272
(lp1273
I103967201
aI104029233
aS'+'
asS'PRKCQ'
p1274
(lp1275
I6427143
aI6580301
aS'-'
asS'ARL5AP2'
p1276
(lp1277
I99013103
aI99013952
aS'-'
asS'RPL21P89'
p1278
(lp1279
I49815096
aI49815562
aS'+'
asS'RPL21P88'
p1280
(lp1281
I43630947
aI43631382
aS'+'
asS'CHEK2P5'
p1282
(lp1283
I38713195
aI38719229
aS'+'
asS'FFAR4'
p1284
(lp1285
I93566682
aI93604480
aS'+'
asS'PHYH'
p1286
(lp1287
I13277843
aI13302412
aS'-'
asS'SLC16A9'
p1288
(lp1289
I59650765
aI59736002
aS'-'
asS'AL360181.5'
p1290
(lp1291
I133309410
aI133352529
aS'+'
asS'DDX21'
p1292
(lp1293
I68956128
aI68985073
aS'+'
asS'CHST15'
p1294
(lp1295
I124007666
aI124093607
aS'-'
asS'FAM170B'
p1296
(lp1297
I49131154
aI49134008
aS'-'
asS'AL360181.3'
p1298
(lp1299
I133390834
aI133420495
aS'+'
asS'AL161651.1'
p1300
(lp1301
I30383400
aI30383622
aS'+'
asS'EDRF1'
p1302
(lp1303
I125719515
aI125764143
aS'+'
asS'PFKFB3'
p1304
(lp1305
I6144934
aI6235532
aS'+'
asS'ABI1'
p1306
(lp1307
I26746596
aI26861087
aS'-'
asS'RPL6P24'
p1308
(lp1309
I13591460
aI13592323
aS'-'
asS'TLX1'
p1310
(lp1311
I101130505
aI101137789
aS'+'
asS'NSUN6'
p1312
(lp1313
I18545561
aI18651622
aS'-'
asS'CYP2C19'
p1314
(lp1315
I94762624
aI94853260
aS'+'
asS'SEC61A2'
p1316
(lp1317
I12129694
aI12169961
aS'+'
asS'AGAP4'
p1318
(lp1319
I45827340
aI45853875
aS'-'
asS'MCU'
p1320
(lp1321
I72692131
aI72887694
aS'+'
asS'OR13A1'
p1322
(lp1323
I45302654
aI45315608
aS'-'
asS'SLF2'
p1324
(lp1325
I100912569
aI100965136
aS'+'
asS'PPIAP13'
p1326
(lp1327
I75089248
aI75089725
aS'-'
asS'FAM213A'
p1328
(lp1329
I80408493
aI80437115
aS'+'
asS'FBXO18'
p1330
(lp1331
I5890203
aI5937594
aS'+'
asS'KRT8P38'
p1332
(lp1333
I88727485
aI88728914
aS'+'
asS'ADD3'
p1334
(lp1335
I110005804
aI110134330
aS'+'
asS'ACADSB'
p1336
(lp1337
I123009016
aI123058311
aS'+'
asS'GLUD1P2'
p1338
(lp1339
I46759023
aI46786770
aS'-'
asS'NDUFB8'
p1340
(lp1341
I100523743
aI100530000
aS'-'
asS'NDUFA8P1'
p1342
(lp1343
I74641410
aI74641776
aS'-'
asS'KRT8P37'
p1344
(lp1345
I8513687
aI8515106
aS'-'
asS'RCBTB2P1'
p1346
(lp1347
I88785600
aI88787061
aS'-'
asS'RPL23P11'
p1348
(lp1349
I33864313
aI33864723
aS'+'
asS'NPAP1P3'
p1350
(lp1351
I87376896
aI87378481
aS'+'
asS'ASB13'
p1352
(lp1353
I5638868
aI5666595
aS'-'
asS'PKD2L1'
p1354
(lp1355
I100288154
aI100330486
aS'-'
asS'POLR3A'
p1356
(lp1357
I77975149
aI78029545
aS'-'
asS'BX322639.1'
p1358
(lp1359
I42331866
aI42367974
aS'-'
asS'DUXAP4'
p1360
(lp1361
I45055656
aI45056268
aS'+'
asS'AL731534.1'
p1362
(lp1363
I57513157
aI57513425
aS'+'
asS'ELOCP3'
p1364
(lp1365
I10174230
aI10174577
aS'+'
asS'SYT15'
p1366
(lp1367
I46578217
aI46592062
aS'+'
asS'SLC9A3P1'
p1368
(lp1369
I50150603
aI50152287
aS'+'
asS'MAP3K8'
p1370
(lp1371
I30433937
aI30461832
aS'+'
asS'SLC35G1'
p1372
(lp1373
I93894002
aI93956062
aS'+'
asS'PPP1R3C'
p1374
(lp1375
I91628442
aI91633054
aS'-'
asS'AL513185.2'
p1376
(lp1377
I72560264
aI72560456
aS'+'
asS'SRP9P1'
p1378
(lp1379
I91807179
aI91807439
aS'-'
asS'NRBF2P5'
p1380
(lp1381
I5776071
aI5776858
aS'+'
asS'TRUB1'
p1382
(lp1383
I114938193
aI114977676
aS'+'
asS'MPP7'
p1384
(lp1385
I28054143
aI28334486
aS'-'
asS'ADK'
p1386
(lp1387
I74151185
aI74709299
aS'+'
asS'RHEBP2'
p1388
(lp1389
I47706203
aI47706802
aS'+'
asS'MARVELD1'
p1390
(lp1391
I97713724
aI97718152
aS'+'
asS'FAM25C'
p1392
(lp1393
I47995355
aI47999791
aS'-'
asS'MYPN'
p1394
(lp1395
I68106117
aI68212012
aS'+'
asS'FAM25A'
p1396
(lp1397
I87020306
aI87024730
aS'+'
asS'OIT3'
p1398
(lp1399
I72893581
aI72933033
aS'+'
asS'FAM25G'
p1400
(lp1401
I47487219
aI47491693
aS'-'
asS'AL355989.2'
p1402
(lp1403
I43728217
aI43728728
aS'+'
asS'CUL2'
p1404
(lp1405
I35008551
aI35090642
aS'-'
asS'SNRPGP6'
p1406
(lp1407
I116409256
aI116409475
aS'+'
asS'RPL22P18'
p1408
(lp1409
I80125941
aI80126317
aS'+'
asS'CFL1P1'
p1410
(lp1411
I87818313
aI87845612
aS'+'
asS'AC027673.1'
p1412
(lp1413
I80749632
aI80751231
aS'-'
asS'SVILP1'
p1414
(lp1415
I30655651
aI30717266
aS'+'
asS'FAM238B'
p1416
(lp1417
I26647986
aI26653446
aS'+'
asS'CDH23'
p1418
(lp1419
I71396934
aI71815947
aS'+'
asS'RPL22P17'
p1420
(lp1421
I102887874
aI102888188
aS'-'
asS'TSPAN15'
p1422
(lp1423
I69451473
aI69507669
aS'+'
asS'AK3P5'
p1424
(lp1425
I32944481
aI32944999
aS'+'
asS'ARMC4P1'
p1426
(lp1427
I27258762
aI27288824
aS'+'
asS'IL9RP2'
p1428
(lp1429
I80394
aI86265
aS'-'
asS'NAPGP1'
p1430
(lp1431
I88699683
aI88700401
aS'+'
asS'DUX4L29'
p1432
(lp1433
I133740606
aI133741284
aS'+'
asS'CFAP70'
p1434
(lp1435
I73253759
aI73358859
aS'-'
asS'CEP57L1P1'
p1436
(lp1437
I70389426
aI70390626
aS'+'
asS'SLC25A28'
p1438
(lp1439
I99610522
aI99620364
aS'-'
asS'MTPAP'
p1440
(lp1441
I30313010
aI30374441
aS'-'
asS'FGFR2'
p1442
(lp1443
I121478334
aI121598458
aS'-'
asS'RPL9P21'
p1444
(lp1445
I44414649
aI44415153
aS'-'
asS'CYP2C60P'
p1446
(lp1447
I95009674
aI95009812
aS'+'
asS'AL353149.1'
p1448
(lp1449
I88259129
aI88259372
aS'-'
asS'MARCH5'
p1450
(lp1451
I92291163
aI92353964
aS'+'
asS'GHITM'
p1452
(lp1453
I84139440
aI84153245
aS'+'
asS'BMS1P4'
p1454
(lp1455
I73715843
aI73730469
aS'-'
asS'INPP5F'
p1456
(lp1457
I119726097
aI119829278
aS'+'
asS'RPS3AP37'
p1458
(lp1459
I68674356
aI68675100
aS'+'
asS'KIF5B'
p1460
(lp1461
I32009010
aI32056431
aS'-'
asS'RPL23AP60'
p1462
(lp1463
I133778246
aI133778699
aS'+'
asS'AL590032.1'
p1464
(lp1465
I20547171
aI20547422
aS'+'
asS'FARSBP1'
p1466
(lp1467
I80776165
aI80778088
aS'-'
asS'TCF7L2'
p1468
(lp1469
I112950250
aI113167678
aS'+'
asS'AL022345.1'
p1470
(lp1471
I42579724
aI42579858
aS'+'
asS'AL022345.3'
p1472
(lp1473
I42578500
aI42578727
aS'+'
asS'OAT'
p1474
(lp1475
I124397303
aI124418976
aS'-'
asS'KIN'
p1476
(lp1477
I7750962
aI7787981
aS'-'
asS'FRA10AC1'
p1478
(lp1479
I93667883
aI93702572
aS'-'
asS'HPS1'
p1480
(lp1481
I98416199
aI98446947
aS'-'
asS'PHACTR2P1'
p1482
(lp1483
I119793589
aI119815958
aS'-'
asS'ZNF37A'
p1484
(lp1485
I38094334
aI38150293
aS'+'
asS'GBF1'
p1486
(lp1487
I102245532
aI102382899
aS'+'
asS'MEIG1'
p1488
(lp1489
I14972555
aI14988050
aS'+'
asS'CH25H'
p1490
(lp1491
I89205629
aI89207314
aS'-'
asS'FAF2P1'
p1492
(lp1493
I91765899
aI91767196
aS'-'
asS'RGR'
p1494
(lp1495
I84245053
aI84259960
aS'+'
asS'APBB1IP'
p1496
(lp1497
I26438203
aI26567803
aS'+'
asS'RAD1P1'
p1498
(lp1499
I119621068
aI119621880
aS'+'
asS'AC069544.2'
p1500
(lp1501
I14838166
aI14844727
aS'+'
asS'YME1L1'
p1502
(lp1503
I27110112
aI27154420
aS'-'
asS'TIMM23'
p1504
(lp1505
I45972449
aI46003734
aS'+'
asS'MTND5P17'
p1506
(lp1507
I36432882
aI36434484
aS'-'
asS'PPRC1'
p1508
(lp1509
I102132994
aI102150331
aS'+'
asS'ZNF37CP'
p1510
(lp1511
I37883594
aI37884109
aS'+'
asS'GLUD1P8'
p1512
(lp1513
I47563604
aI47569697
aS'+'
asS'VENTX'
p1514
(lp1515
I133237404
aI133241929
aS'+'
asS'DNM1P17'
p1516
(lp1517
I30353706
aI30357365
aS'+'
asS'SHQ1P1'
p1518
(lp1519
I50629532
aI50631075
aS'-'
asS'MRPS21P5'
p1520
(lp1521
I28004702
aI28004932
aS'+'
asS'HABP2'
p1522
(lp1523
I113550837
aI113589602
aS'+'
asS'SLC25A16'
p1524
(lp1525
I68478001
aI68527474
aS'-'
asS'FAM210CP'
p1526
(lp1527
I27349717
aI27350290
aS'-'
asS'FAM13C'
p1528
(lp1529
I59246130
aI59362594
aS'-'
asS'MRPS35P3'
p1530
(lp1531
I57982285
aI57982993
aS'+'
asS'MBL1P'
p1532
(lp1533
I79920178
aI79923119
aS'+'
asS'ACTBP14'
p1534
(lp1535
I69022778
aI69023866
aS'+'
asS'PDLIM1'
p1536
(lp1537
I95237572
aI95291024
aS'-'
asS'FAM196A'
p1538
(lp1539
I127135426
aI127196158
aS'-'
asS'ZMYND11'
p1540
(lp1541
I134465
aI254626
aS'+'
asS'AL117339.5'
p1542
(lp1543
I38094368
aI38360098
aS'+'
asS'AL157834.3'
p1544
(lp1545
I95173085
aI95173187
aS'-'
asS'CACYBPP1'
p1546
(lp1547
I84454679
aI84456056
aS'-'
asS'EGR2'
p1548
(lp1549
I62814433
aI62919900
aS'-'
asS'OR7E115P'
p1550
(lp1551
I15007861
aI15008884
aS'-'
asS'TBATA'
p1552
(lp1553
I70771239
aI70785401
aS'-'
asS'AL589794.1'
p1554
(lp1555
I50695592
aI50695981
aS'+'
asS'BICC1'
p1556
(lp1557
I58513140
aI58831437
aS'+'
asS'EIF5AL1'
p1558
(lp1559
I79512601
aI79516440
aS'+'
asS'DNAJB12'
p1560
(lp1561
I72332831
aI72355230
aS'-'
asS'MSMB'
p1562
(lp1563
I46033307
aI46046269
aS'-'
asS'JMJD1C'
p1564
(lp1565
I63219877
aI63521850
aS'-'
asS'ANXA11'
p1566
(lp1567
I80150889
aI80205572
aS'-'
asS'HNRNPA1P33'
p1568
(lp1569
I46415853
aI46416413
aS'+'
asS'TMEM72'
p1570
(lp1571
I44911200
aI44937002
aS'+'
asS'AL513185.3'
p1572
(lp1573
I72643011
aI72644650
aS'+'
asS'HNRNPA1P32'
p1574
(lp1575
I30517616
aI30518861
aS'-'
asS'ATP6V1G1P4'
p1576
(lp1577
I35158306
aI35158640
aS'+'
asS'CYP17A1'
p1578
(lp1579
I102830531
aI102837533
aS'-'
asS'FAM149B1'
p1580
(lp1581
I73168166
aI73244504
aS'+'
asS'CISD1'
p1582
(lp1583
I58269058
aI58289586
aS'+'
asS'AL133482.1'
p1584
(lp1585
I113482616
aI113483113
aS'+'
asS'TUBB8'
p1586
(lp1587
I46892
aI74163
aS'-'
asS'NHLRC2'
p1588
(lp1589
I113854661
aI113917194
aS'+'
asS'UNC5B'
p1590
(lp1591
I71212570
aI71302864
aS'+'
asS'MTND2P15'
p1592
(lp1593
I69594041
aI69594932
aS'-'
asS'DUX4L22'
p1594
(lp1595
I133677059
aI133678327
aS'+'
asS'LBX1'
p1596
(lp1597
I101226195
aI101229794
aS'-'
asS'EIF3LP2'
p1598
(lp1599
I42566677
aI42567483
aS'+'
asS'ABCD1P2'
p1600
(lp1601
I38601418
aI38605609
aS'+'
asS'STAMBPL1'
p1602
(lp1603
I88879734
aI88975153
aS'+'
asS'BCCIP'
p1604
(lp1605
I125823546
aI125853695
aS'+'
asS'FAM35DP'
p1606
(lp1607
I47689707
aI47730436
aS'+'
asS'GUCY2GP'
p1608
(lp1609
I112308181
aI112356574
aS'-'
asS'HERC4'
p1610
(lp1611
I67921908
aI68075283
aS'-'
asS'PAX2'
p1612
(lp1613
I100745711
aI100829941
aS'+'
asS'EEF1AKMT2'
p1614
(lp1615
I124757831
aI124791868
aS'-'
asS'ATE1-AS1'
p1616
(lp1617
I121928312
aI121951965
aS'+'
asS'AGAP14'
p1618
(lp1619
I46337224
aI46358714
aS'+'
asS'AC073587.1'
p1620
(lp1621
I120434983
aI120440376
aS'+'
asS'DCLRE1CP1'
p1622
(lp1623
I15015370
aI15021863
aS'-'
asS'SLC9A3P3'
p1624
(lp1625
I50025135
aI50027363
aS'-'
asS'SS18L2P1'
p1626
(lp1627
I34875210
aI34875422
aS'+'
asS'MRPL35P3'
p1628
(lp1629
I74527584
aI74527947
aS'+'
asS'MRPL35P2'
p1630
(lp1631
I63634317
aI63634827
aS'-'
asS'NANOS1'
p1632
(lp1633
I119029716
aI119033732
aS'+'
asS'ST8SIA6'
p1634
(lp1635
I17319874
aI17454330
aS'-'
asS'EIF2S2P3'
p1636
(lp1637
I92668745
aI92669743
aS'-'
asS'PRTFDC1'
p1638
(lp1639
I24848607
aI24952604
aS'-'
asS'CTAGE7P'
p1640
(lp1641
I130106046
aI130108481
aS'+'
asS'CYP2E1'
p1642
(lp1643
I133531576
aI133561220
aS'+'
asS'POLR3DP1'
p1644
(lp1645
I74654956
aI74656131
aS'+'
asS'SPRN'
p1646
(lp1647
I133420666
aI133424572
aS'-'
asS'FRG2B'
p1648
(lp1649
I133623895
aI133626792
aS'-'
asS'RSU1P2'
p1650
(lp1651
I45100080
aI45154596
aS'-'
asS'TMEM161BP1'
p1652
(lp1653
I37337415
aI37338871
aS'+'
asS'EIF4EBP2'
p1654
(lp1655
I70404379
aI70428618
aS'+'
asS'ZNF519P1'
p1656
(lp1657
I80297720
aI80299655
aS'+'
asS'FAM238A'
p1658
(lp1659
I26589865
aI26594330
aS'+'
asS'TWNK'
p1660
(lp1661
I100988026
aI100994401
aS'+'
asS'CYP26C1'
p1662
(lp1663
I93060808
aI93069536
aS'+'
asS'EIF2AP4'
p1664
(lp1665
I44806443
aI44808223
aS'+'
asS'BAG3'
p1666
(lp1667
I119651370
aI119677819
aS'+'
asS'RPP38'
p1668
(lp1669
I15097237
aI15139818
aS'+'
asS'GRK5'
p1670
(lp1671
I119207589
aI119455619
aS'+'
asS'MORN4'
p1672
(lp1673
I97614553
aI97633500
aS'-'
asS'TNPO1P1'
p1674
(lp1675
I84390908
aI84392045
aS'+'
asS'RPP30'
p1676
(lp1677
I90871952
aI90903262
aS'+'
asS'H2AFY2'
p1678
(lp1679
I70052796
aI70112280
aS'+'
asS'SFTPA3P'
p1680
(lp1681
I79595294
aI79595660
aS'-'
asS'MSRB2'
p1682
(lp1683
I23095506
aI23122013
aS'+'
asS'ADIRF'
p1684
(lp1685
I86968490
aI86983934
aS'+'
asS'ZNF32'
p1686
(lp1687
I43643859
aI43648856
aS'-'
asS'ADAMTS14'
p1688
(lp1689
I70672803
aI70762441
aS'+'
asS'UPF2'
p1690
(lp1691
I11920023
aI12043170
aS'-'
asS'SRGN'
p1692
(lp1693
I69088118
aI69104811
aS'+'
asS'VDAC2'
p1694
(lp1695
I75210154
aI75231444
aS'+'
asS'BTBD16'
p1696
(lp1697
I122271306
aI122338162
aS'+'
asS'BMS1P3'
p1698
(lp1699
I86992253
aI87000435
aS'+'
asS'BORCS7'
p1700
(lp1701
I102854223
aI102864961
aS'+'
asS'OPTN'
p1702
(lp1703
I13100169
aI13138308
aS'+'
asS'NPY4R'
p1704
(lp1705
I46461099
aI46465881
aS'-'
asS'BTBD7P1'
p1706
(lp1707
I13156684
aI13158136
aS'-'
asS'FXYD6P2'
p1708
(lp1709
I38091764
aI38092051
aS'-'
asS'CSGALNACT2'
p1710
(lp1711
I43138486
aI43185308
aS'+'
asS'CPXM2'
p1712
(lp1713
I123706207
aI123940267
aS'-'
asS'MASTL'
p1714
(lp1715
I27154824
aI27186919
aS'+'
asS'FTLP19'
p1716
(lp1717
I16071416
aI16071809
aS'-'
asS'MTG1'
p1718
(lp1719
I133394196
aI133421307
aS'+'
asS'RPL17P50'
p1720
(lp1721
I73005833
aI73006595
aS'-'
asS'FAM21FP'
p1722
(lp1723
I45706431
aI45722439
aS'-'
asS'WBP1L'
p1724
(lp1725
I102743970
aI102816240
aS'+'
asS'STOX1'
p1726
(lp1727
I68827541
aI68895432
aS'+'
asS'FAM160B1'
p1728
(lp1729
I114821744
aI114899832
aS'+'
asS'PWWP2B'
p1730
(lp1731
I132397168
aI132417863
aS'+'
asS'BNIP3'
p1732
(lp1733
I131966455
aI131982013
aS'-'
asS'ANTXRLP1'
p1734
(lp1735
I46233885
aI46273557
aS'-'
asS'CAP1P2'
p1736
(lp1737
I43604843
aI43606251
aS'-'
asS'CUX2P1'
p1738
(lp1739
I10257169
aI10257466
aS'-'
asS'RPS24'
p1740
(lp1741
I78033760
aI78056812
aS'+'
asS'CEP55'
p1742
(lp1743
I93496632
aI93529092
aS'+'
asS'AL683842.1'
p1744
(lp1745
I124004304
aI124004828
aS'-'
asS'PRDX3'
p1746
(lp1747
I119167703
aI119178833
aS'-'
asS'CYP2C58P'
p1748
(lp1749
I94865852
aI94873129
aS'-'
asS'PITRM1'
p1750
(lp1751
I3137730
aI3172841
aS'-'
asS'WAC'
p1752
(lp1753
I28532493
aI28623112
aS'+'
asS'RPS27P1'
p1754
(lp1755
I91544852
aI91545098
aS'+'
asS'ZNF33CP'
p1756
(lp1757
I37894637
aI37896666
aS'+'
asS'RPL19P16'
p1758
(lp1759
I121133090
aI121133723
aS'-'
asS'PABPC1P12'
p1760
(lp1761
I38635908
aI38638082
aS'+'
asS'YBX2P1'
p1762
(lp1763
I123991910
aI123992669
aS'+'
asS'RPSAP10'
p1764
(lp1765
I28436201
aI28437078
aS'+'
asS'TAF9BP2'
p1766
(lp1767
I114809375
aI114811170
aS'+'
asS'DUX4L24'
p1768
(lp1769
I133670450
aI133671718
aS'+'
asS'BTAF1'
p1770
(lp1771
I91923769
aI92030325
aS'+'
asS'NRBF2'
p1772
(lp1773
I63133247
aI63155031
aS'+'
asS'AC022018.1'
p1774
(lp1775
I112548632
aI112548872
aS'-'
asS'SFRP5'
p1776
(lp1777
I97766751
aI97771952
aS'-'
asS'MTND4LP11'
p1778
(lp1779
I33023368
aI33023647
aS'-'
asS'KNDC1'
p1780
(lp1781
I133160447
aI133226412
aS'+'
asS'AL157385.1'
p1782
(lp1783
I24867645
aI24868190
aS'+'
asS'BEND3P1'
p1784
(lp1785
I50655967
aI50660268
aS'+'
asS'AC091769.1'
p1786
(lp1787
I72483245
aI72483812
aS'+'
asS'FO681492.1'
p1788
(lp1789
I47750864
aI47763592
aS'-'
asS'ADRB1'
p1790
(lp1791
I114044056
aI114046908
aS'+'
asS'WDR11'
p1792
(lp1793
I120851175
aI120909524
aS'+'
asS'COL13A1'
p1794
(lp1795
I69801932
aI69959148
aS'+'
asS'DUSP8P3'
p1796
(lp1797
I46774421
aI46776180
aS'-'
asS'CDHR1'
p1798
(lp1799
I84194650
aI84219621
aS'+'
asS'AVPI1'
p1800
(lp1801
I97677424
aI97687323
aS'-'
asS'PPIF'
p1802
(lp1803
I79347478
aI79355337
aS'+'
asS'ZMIZ1'
p1804
(lp1805
I79069035
aI79316519
aS'+'
asS'KIAA1217'
p1806
(lp1807
I23694746
aI24547843
aS'+'
asS'ACTR3BP5'
p1808
(lp1809
I38696424
aI38697902
aS'+'
asS'RPS4XP11'
p1810
(lp1811
I32102522
aI32103293
aS'-'
asS'MARK2P16'
p1812
(lp1813
I89837612
aI89839334
aS'-'
asS'LIPA'
p1814
(lp1815
I89213569
aI89414557
aS'-'
asS'AL513533.1'
p1816
(lp1817
I89139044
aI89139458
aS'+'
asS'MARK2P15'
p1818
(lp1819
I83311628
aI83314475
aS'-'
asS'CAMK1D'
p1820
(lp1821
I12349482
aI12835545
aS'+'
asS'NUTF2P5'
p1822
(lp1823
I13870797
aI13871175
aS'+'
asS'CUTC'
p1824
(lp1825
I99702558
aI99743323
aS'+'
asS'FAM204A'
p1826
(lp1827
I118297930
aI118342320
aS'-'
asS'PSAP'
p1828
(lp1829
I71816298
aI71851375
aS'-'
asS'DIP2C'
p1830
(lp1831
I274198
aI689668
aS'-'
asS'OR6D1P'
p1832
(lp1833
I45258185
aI45259123
aS'+'
asS'AL354695.1'
p1834
(lp1835
I19491072
aI19491299
aS'-'
asS'AL133481.2'
p1836
(lp1837
I79507597
aI79510922
aS'-'
asS'LRRC27'
p1838
(lp1839
I132332200
aI132379918
aS'+'
asS'BMPR1A'
p1840
(lp1841
I86756601
aI86932825
aS'+'
asS'AL359198.2'
p1842
(lp1843
I91896704
aI91896897
aS'+'
asS'PSD'
p1844
(lp1845
I102402617
aI102419934
aS'-'
asS'LRRC20'
p1846
(lp1847
I70298970
aI70382650
aS'-'
asS'ANKRD16'
p1848
(lp1849
I5861617
aI5889898
aS'-'
asS'NT5C2'
p1850
(lp1851
I103088018
aI103193306
aS'-'
asS'DCLRE1C'
p1852
(lp1853
I14897359
aI14954432
aS'-'
asS'MICU1'
p1854
(lp1855
I72367327
aI72626191
aS'-'
asS'DCLRE1A'
p1856
(lp1857
I113834729
aI113854383
aS'-'
asS'DYDC2'
p1858
(lp1859
I80344745
aI80368073
aS'+'
asS'DYDC1'
p1860
(lp1861
I80336105
aI80356744
aS'-'
asS'DNA2'
p1862
(lp1863
I68414065
aI68471915
aS'-'
asS'DUX4L28'
p1864
(lp1865
I133664429
aI133665106
aS'+'
asS'PDE6C'
p1866
(lp1867
I93612588
aI93666010
aS'+'
asS'LHPP'
p1868
(lp1869
I124461835
aI124614141
aS'+'
asS'GDF2'
p1870
(lp1871
I47322490
aI47326270
aS'+'
asS'AL390123.1'
p1872
(lp1873
I109661814
aI109662050
aS'+'
asS'DUX4L25'
p1874
(lp1875
I133667151
aI133668419
aS'+'
asS'AKR1E2'
p1876
(lp1877
I4786709
aI4839819
aS'+'
asS'CFAP43'
p1878
(lp1879
I104129888
aI104232362
aS'-'
asS'DUX4L20'
p1880
(lp1881
I133683668
aI133684936
aS'+'
asS'EIF4BP2'
p1882
(lp1883
I21028999
aI21030792
aS'+'
asS'ANKRD30A'
p1884
(lp1885
I37125857
aI37384111
aS'+'
asS'NIFKP1'
p1886
(lp1887
I30380174
aI30381062
aS'+'
asS'NUTM2D'
p1888
(lp1889
I87357720
aI87370695
aS'+'
asS'NUTM2E'
p1890
(lp1891
I79841358
aI79850878
aS'+'
asS'NUTM2B'
p1892
(lp1893
I79703279
aI79714681
aS'+'
asS'HECTD2'
p1894
(lp1895
I91410285
aI91514826
aS'+'
asS'SLC16A12'
p1896
(lp1897
I89430299
aI89535556
aS'-'
asS'DDX18P6'
p1898
(lp1899
I91053051
aI91055047
aS'+'
asS'NRG3'
p1900
(lp1901
I81875314
aI82985645
aS'+'
asS'OGDHL'
p1902
(lp1903
I49734644
aI49762379
aS'-'
asS'ALOX5'
p1904
(lp1905
I45374176
aI45446119
aS'+'
asS'FANK1'
p1906
(lp1907
I125896539
aI126009592
aS'+'
asS'RPL5P27'
p1908
(lp1909
I116749905
aI116751261
aS'+'
asS'C10orf35'
p1910
(lp1911
I69630258
aI69633599
aS'+'
asS'STK32C'
p1912
(lp1913
I132226820
aI132331847
aS'-'
asS'GNG10P1'
p1914
(lp1915
I125960208
aI125960406
aS'-'
asS'ANXA7'
p1916
(lp1917
I73375101
aI73414067
aS'-'
asS'CALHM2'
p1918
(lp1919
I103446786
aI103452402
aS'-'
asS'ZNF365'
p1920
(lp1921
I62374192
aI62672011
aS'+'
asS'SUV39H2'
p1922
(lp1923
I14878820
aI14904315
aS'+'
asS'MED28P1'
p1924
(lp1925
I68991137
aI68991707
aS'+'
asS'AL731547.1'
p1926
(lp1927
I21217891
aI21218279
aS'+'
asS'VSTM4'
p1928
(lp1929
I49014245
aI49115509
aS'-'
asS'SLC18A3'
p1930
(lp1931
I49610301
aI49612720
aS'+'
asS'PAPSS2'
p1932
(lp1933
I87659613
aI87747705
aS'+'
asS'CDNF'
p1934
(lp1935
I14819250
aI14838575
aS'-'
asS'RHOBTB1'
p1936
(lp1937
I60869438
aI61001440
aS'-'
asS'SYNPO2L'
p1938
(lp1939
I73644881
aI73656072
aS'-'
asS'LOXL4'
p1940
(lp1941
I98247690
aI98268250
aS'-'
asS'POU5F1P5'
p1942
(lp1943
I68010205
aI68010862
aS'-'
asS'FAM53B'
p1944
(lp1945
I124619292
aI124744050
aS'-'
asS'DUSP13'
p1946
(lp1947
I75094434
aI75109221
aS'-'
asS'RPL12P26'
p1948
(lp1949
I117196168
aI117196654
aS'-'
asS'AKR1C6P'
p1950
(lp1951
I4871901
aI4891975
aS'-'
asS'CASP7'
p1952
(lp1953
I113679162
aI113730907
aS'+'
asS'RPS15AP5'
p1954
(lp1955
I121713607
aI121713994
aS'+'
asS'C10orf105'
p1956
(lp1957
I71711710
aI71737824
aS'-'
asS'SHTN1'
p1958
(lp1959
I116900312
aI117126586
aS'-'
asS'C10orf107'
p1960
(lp1961
I61662961
aI61766766
aS'+'
asS'NUP35P1'
p1962
(lp1963
I24157835
aI24158781
aS'+'
asS'BBIP1'
p1964
(lp1965
I110898730
aI110919274
aS'-'
asS'CCDC172'
p1966
(lp1967
I116324428
aI116380029
aS'+'
asS'NOC3L'
p1968
(lp1969
I94333226
aI94362939
aS'-'
asS'KIF1BP'
p1970
(lp1971
I68988944
aI69043526
aS'+'
asS'NAMPTP1'
p1972
(lp1973
I36521721
aI36524234
aS'-'
asS'EPC1'
p1974
(lp1975
I32267751
aI32378798
aS'-'
asS'MAPK6PS6'
p1976
(lp1977
I49771841
aI49773299
aS'+'
asS'HMGN1P20'
p1978
(lp1979
I19489101
aI19489400
aS'+'
asS'FAM35BP'
p1980
(lp1981
I46610474
aI46652025
aS'-'
asS'ANTXRL'
p1982
(lp1983
I46286998
aI46330207
aS'+'
asS'MRPS21P6'
p1984
(lp1985
I125166677
aI125166937
aS'+'
asS'ABCC2'
p1986
(lp1987
I99782732
aI99852192
aS'+'
asS'HIRAP1'
p1988
(lp1989
I25691537
aI25692323
aS'+'
asS'PARG'
p1990
(lp1991
I49818279
aI49970203
aS'-'
asS'XIAPP1'
p1992
(lp1993
I109680442
aI109681041
aS'+'
asS'FXYD4'
p1994
(lp1995
I43371644
aI43376335
aS'+'
asS'MALRD1'
p1996
(lp1997
I19048771
aI19734478
aS'+'
asS'ZRANB1'
p1998
(lp1999
I124942123
aI124988189
aS'+'
asS'AL355863.1'
p2000
(lp2001
I111104956
aI111105248
aS'+'
asS'GLRX3'
p2002
(lp2003
I130136399
aI130184521
aS'+'
asS'RPS3AP36'
p2004
(lp2005
I95594598
aI95595372
aS'+'
asS'BANF1P2'
p2006
(lp2007
I133344643
aI133344906
aS'-'
asS'ZFAND4'
p2008
(lp2009
I45615501
aI45672732
aS'-'
asS'PNLIP'
p2010
(lp2011
I116545931
aI116567855
aS'+'
asS'AC010997.1'
p2012
(lp2013
I75288333
aI75288682
aS'-'
asS'HNRNPA3P1'
p2014
(lp2015
I43789249
aI43790387
aS'-'
asS'PI4K2A'
p2016
(lp2017
I97640686
aI97676434
aS'+'
asS'NKX2-3'
p2018
(lp2019
I99532933
aI99536524
aS'+'
asS'AL031601.2'
p2020
(lp2021
I42242721
aI42276842
aS'+'
asS'ALDH18A1'
p2022
(lp2023
I95605929
aI95656706
aS'-'
asS'HSPA8P3'
p2024
(lp2025
I26714622
aI26715832
aS'+'
asS'RPS3AP38'
p2026
(lp2027
I67960702
aI67961464
aS'-'
asS'SLC39A12'
p2028
(lp2029
I17951839
aI18043292
aS'+'
asS'MRC1'
p2030
(lp2031
I17809344
aI17911170
aS'+'
asS'RPSAP6'
p2032
(lp2033
I74371535
aI74372416
aS'+'
asS'DNTT'
p2034
(lp2035
I96304396
aI96338564
aS'+'
asS'GPR26'
p2036
(lp2037
I123666355
aI123694607
aS'+'
asS'NDST2'
p2038
(lp2039
I73801911
aI73811584
aS'-'
asS'ANAPC16'
p2040
(lp2041
I72216000
aI72235858
aS'+'
asS'AL603764.1'
p2042
(lp2043
I122568591
aI122568911
aS'+'
asS'SYCE1'
p2044
(lp2045
I133553901
aI133568291
aS'-'
asS'ARHGAP22'
p2046
(lp2047
I48446558
aI48656265
aS'-'
asS'ARHGAP21'
p2048
(lp2049
I24583609
aI24723668
aS'-'
asS'AL355334.1'
p2050
(lp2051
I87408044
aI87408258
aS'-'
asS'SFTPA2'
p2052
(lp2053
I79555852
aI79560395
aS'-'
asS'SFTPA1'
p2054
(lp2055
I79610945
aI79615455
aS'+'
asS'THAP12P3'
p2056
(lp2057
I52411135
aI52413492
aS'+'
asS'GOT1'
p2058
(lp2059
I99396870
aI99430593
aS'-'
asS'BLNK'
p2060
(lp2061
I96191702
aI96271540
aS'-'
asS'ENTPD7'
p2062
(lp2063
I99659506
aI99706240
aS'+'
asS'RPL36AP36'
p2064
(lp2065
I13159477
aI13159777
aS'-'
asS'RPSAP7'
p2066
(lp2067
I14723171
aI14724055
aS'-'
asS'RPS6P14'
p2068
(lp2069
I48292699
aI48293417
aS'+'
asS'DDIT4'
p2070
(lp2071
I72273920
aI72276036
aS'+'
asS'SLC9B1P3'
p2072
(lp2073
I38640971
aI38689068
aS'-'
asS'ENTPD1'
p2074
(lp2075
I95711779
aI95869695
aS'+'
asS'SPAG6'
p2076
(lp2077
I22345470
aI22417621
aS'+'
asS'TDRD1'
p2078
(lp2079
I114179270
aI114232304
aS'+'
asS'HK1'
p2080
(lp2081
I69270000
aI69401879
aS'+'
asS'VWA2'
p2082
(lp2083
I114239330
aI114291513
aS'+'
asS'AC026884.1'
p2084
(lp2085
I58106423
aI58106879
aS'-'
asS'ANXA8L1'
p2086
(lp2087
I46375752
aI46537864
aS'+'
asS'HTR7'
p2088
(lp2089
I90740823
aI90857698
aS'-'
asS'BAMBI'
p2090
(lp2091
I28677342
aI28682939
aS'+'
asS'RBP3'
p2092
(lp2093
I47348371
aI47357875
aS'+'
asS'RBP4'
p2094
(lp2095
I93591687
aI93601663
aS'-'
asS'PRF1'
p2096
(lp2097
I70597349
aI70602775
aS'-'
asS'AL450326.2'
p2098
(lp2099
I43523256
aI43525217
aS'+'
asS'MGMT'
p2100
(lp2101
I129467184
aI129768007
aS'+'
asS'GNAI2P2'
p2102
(lp2103
I78068623
aI78069538
aS'-'
asS'PRAP1'
p2104
(lp2105
I133347146
aI133352683
aS'+'
asS'NKX6-2'
p2106
(lp2107
I132783181
aI132786052
aS'-'
asS'SNRPGP5'
p2108
(lp2109
I13104574
aI13104793
aS'-'
asS'AL365356.2'
p2110
(lp2111
I5624931
aI5625126
aS'+'
asS'DPY19L2P5'
p2112
(lp2113
I79982910
aI79983240
aS'-'
asS'FUT11'
p2114
(lp2115
I73773605
aI73780251
aS'+'
asS'HSP90AB7P'
p2116
(lp2117
I9721963
aI9724416
aS'-'
asS'PCGF5'
p2118
(lp2119
I91163012
aI91284329
aS'+'
asS'PCGF6'
p2120
(lp2121
I103302796
aI103351134
aS'-'
asS'AKR1C5P'
p2122
(lp2123
I5122087
aI5135226
aS'-'
asS'CCNY'
p2124
(lp2125
I35247025
aI35571924
aS'+'
asS'ADAM8'
p2126
(lp2127
I133262403
aI133276868
aS'-'
asS'ACSL5'
p2128
(lp2129
I112374018
aI112428376
aS'+'
asS'PTGES3P4'
p2130
(lp2131
I102845595
aI102845950
aS'+'
asS'NKX1-2'
p2132
(lp2133
I124445239
aI124450184
aS'-'
asS'GFRA1'
p2134
(lp2135
I116056933
aI116273284
aS'-'
asS'PLCE1'
p2136
(lp2137
I94030812
aI94332823
aS'+'
asS'AGAP13P'
p2138
(lp2139
I46816516
aI46832476
aS'+'
asS'BMS1P1'
p2140
(lp2141
I46786674
aI46811989
aS'+'
asS'H2AFZP5'
p2142
(lp2143
I77953495
aI77953876
aS'+'
asS'CCNJ'
p2144
(lp2145
I96043394
aI96060870
aS'+'
asS'BEND3P3'
p2146
(lp2147
I79682997
aI79685436
aS'+'
asS'RPL26P29'
p2148
(lp2149
I68424560
aI68424997
aS'+'
asS'AFAP1L2'
p2150
(lp2151
I114294824
aI114404756
aS'-'
asS'RPA2P2'
p2152
(lp2153
I81136540
aI81137335
aS'-'
asS'AL603764.2'
p2154
(lp2155
I122624524
aI122624867
aS'+'
asS'TYSND1'
p2156
(lp2157
I70137983
aI70146676
aS'-'
asS'ACTA2'
p2158
(lp2159
I88941785
aI88991339
aS'-'
asS'RPL26P27'
p2160
(lp2161
I68499532
aI68499968
aS'+'
asS'SMARCE1P7'
p2162
(lp2163
I101181144
aI101181951
aS'-'
asS'RASSF4'
p2164
(lp2165
I44959792
aI44995891
aS'+'
asS'PTPN20CP'
p2166
(lp2167
I48064308
aI48119455
aS'-'
asS'NACAP2'
p2168
(lp2169
I119997086
aI119997709
aS'-'
asS'AC073585.1'
p2170
(lp2171
I122879851
aI122898024
aS'+'
asS'VIM'
p2172
(lp2173
I17228259
aI17237592
aS'+'
asS'MMS19'
p2174
(lp2175
I97458324
aI97498758
aS'-'
asS'ATP5C1'
p2176
(lp2177
I7788129
aI7807815
aS'+'
asS'RPS12P2'
p2178
(lp2179
I80215851
aI80216119
aS'-'
asS'RPL32P23'
p2180
(lp2181
I6071514
aI6071918
aS'-'
asS'AL133216.2'
p2182
(lp2183
I38403189
aI38452153
aS'+'
asS'NEBL'
p2184
(lp2185
I20783906
aI21174187
aS'-'
asS'PLAC9'
p2186
(lp2187
I80131682
aI80145064
aS'+'
asS'TCTN3'
p2188
(lp2189
I95663396
aI95694143
aS'-'
asS'FAM175B'
p2190
(lp2191
I124801785
aI124836670
aS'+'
asS'NPM1P31'
p2192
(lp2193
I124867510
aI124868326
aS'+'
asS'AC012468.1'
p2194
(lp2195
I119562101
aI119562530
aS'-'
asS'ST13P13'
p2196
(lp2197
I103215709
aI103216800
aS'+'
asS'AL355333.1'
p2198
(lp2199
I8724010
aI8724288
aS'+'
asS'PTGES3P5'
p2200
(lp2201
I108296099
aI108296532
aS'+'
asS'NEUROG3'
p2202
(lp2203
I69571698
aI69573238
aS'-'
asS'PFN1P11'
p2204
(lp2205
I102838011
aI102845473
aS'-'
asS'LUZP4P1'
p2206
(lp2207
I21247752
aI21248095
aS'+'
asS'SAMD8'
p2208
(lp2209
I75111635
aI75182123
aS'+'
asS'SPCS2P2'
p2210
(lp2211
I100143065
aI100143995
aS'-'
asS'SIRT1'
p2212
(lp2213
I67884669
aI67918390
aS'+'
asS'C1QL3'
p2214
(lp2215
I16513743
aI16522005
aS'-'
asS'MRPL50P4'
p2216
(lp2217
I59551404
aI59551878
aS'-'
asS'SH2D4B'
p2218
(lp2219
I80537902
aI80646560
aS'+'
asS'AIFM1P1'
p2220
(lp2221
I18735745
aI18738631
aS'+'
asS'AL512324.3'
p2222
(lp2223
I45187292
aI45198323
aS'-'
asS'REEP3'
p2224
(lp2225
I63521363
aI63625123
aS'+'
asS'ZCCHC24'
p2226
(lp2227
I79382325
aI79445627
aS'-'
asS'EBAG9P1'
p2228
(lp2229
I99697407
aI99697949
aS'-'
asS'ANKRD26'
p2230
(lp2231
I27004116
aI27100498
aS'-'
asS'ANKRD22'
p2232
(lp2233
I88822132
aI88851818
aS'-'
asS'FGF8'
p2234
(lp2235
I101770130
aI101780369
aS'-'
asS'TMEM256P1'
p2236
(lp2237
I69523311
aI69523650
aS'-'
asS'C10orf142'
p2238
(lp2239
I44292750
aI44294649
aS'+'
asS'AL158209.2'
p2240
(lp2241
I21452197
aI21452412
aS'+'
asS'TAF5'
p2242
(lp2243
I103367967
aI103389065
aS'+'
asS'TUBAL3'
p2244
(lp2245
I5393098
aI5404830
aS'-'
asS'TAF3'
p2246
(lp2247
I7818504
aI8016627
aS'+'
asS'DUX4L12'
p2248
(lp2249
I133749950
aI133751216
aS'+'
asS'LRRC18'
p2250
(lp2251
I48909483
aI48914232
aS'-'
asS'DUX4L10'
p2252
(lp2253
I133743332
aI133744598
aS'+'
asS'USP54'
p2254
(lp2255
I73497538
aI73625650
aS'-'
asS'PHB2P1'
p2256
(lp2257
I109528119
aI109529008
aS'+'
asS'PPIAP30'
p2258
(lp2259
I15154802
aI15155320
aS'-'
asS'PPIAP31'
p2260
(lp2261
I32188323
aI32188817
aS'-'
asS'RUFY2'
p2262
(lp2263
I68341107
aI68406950
aS'-'
asS'FAM24A'
p2264
(lp2265
I122910701
aI122913111
aS'+'
asS'ADGRA1'
p2266
(lp2267
I133070929
aI133131675
aS'+'
asS'SNCG'
p2268
(lp2269
I86958656
aI86963260
aS'+'
asS'NEK4P3'
p2270
(lp2271
I65054460
aI65055003
aS'+'
asS'ELOVL3'
p2272
(lp2273
I102226328
aI102229589
aS'+'
asS'RBM20'
p2274
(lp2275
I110644397
aI110839469
aS'+'
asS'SKIDA1'
p2276
(lp2277
I21513478
aI21525682
aS'-'
asS'AIFM2'
p2278
(lp2279
I70098223
aI70124102
aS'-'
asS'ELOCP30'
p2280
(lp2281
I43741437
aI43742350
aS'-'
asS'MFSD13A'
p2282
(lp2283
I102461395
aI102477045
aS'+'
asS'YY1P1'
p2284
(lp2285
I70485336
aI70486325
aS'-'
asS'A1CF'
p2286
(lp2287
I50799409
aI50885675
aS'-'
asS'PDZD8'
p2288
(lp2289
I117277274
aI117375467
aS'-'
asS'BUB1P1'
p2290
(lp2291
I127867881
aI127868487
aS'+'
asS'FXYD6P1'
p2292
(lp2293
I42555440
aI42555724
aS'+'
asS'HIF1AN'
p2294
(lp2295
I100535859
aI100559998
aS'+'
asS'VAX1'
p2296
(lp2297
I117128521
aI117138301
aS'-'
asS'SORCS1'
p2298
(lp2299
I106573663
aI107164534
aS'-'
asS'OR7E26P'
p2300
(lp2301
I14999050
aI15000055
aS'-'
asS'SORCS3'
p2302
(lp2303
I104641101
aI105265235
aS'+'
asS'CYP2C59P'
p2304
(lp2305
I95007126
aI95007556
aS'-'
asS'RPS2P36'
p2306
(lp2307
I96620877
aI96621707
aS'-'
asS'RPS12P17'
p2308
(lp2309
I69161530
aI69161906
aS'-'
asS'RPS12P16'
p2310
(lp2311
I34675635
aI34676041
aS'-'
asS'AL161935.2'
p2312
(lp2313
I31628540
aI31628599
aS'-'
asS'VN1R54P'
p2314
(lp2315
I42660728
aI42661776
aS'+'
asS'HNRNPH3'
p2316
(lp2317
I68332075
aI68343187
aS'+'
asS'IKZF5'
p2318
(lp2319
I122990806
aI123008817
aS'-'
asS'RPL26P28'
p2320
(lp2321
I5304431
aI5304865
aS'-'
asS'IDE'
p2322
(lp2323
I92451684
aI92574076
aS'-'
asS'CWF19L1'
p2324
(lp2325
I100232298
aI100267680
aS'-'
asS'AL157400.5'
p2326
(lp2327
I89644603
aI89645223
aS'-'
asS'GAD2'
p2328
(lp2329
I26216307
aI26304558
aS'+'
asS'RPS12P18'
p2330
(lp2331
I79544087
aI79544356
aS'+'
asS'DNAJC9'
p2332
(lp2333
I73183362
aI73245981
aS'-'
asS'NUTM2A'
p2334
(lp2335
I87225500
aI87236908
aS'+'
asS'FZD8'
p2336
(lp2337
I35638249
aI35642278
aS'-'
asS'CACNB2'
p2338
(lp2339
I18140677
aI18541127
aS'+'
asS'SPTLC1P1'
p2340
(lp2341
I31360955
aI31361215
aS'+'
asS'LRRC37A6P'
p2342
(lp2343
I27250998
aI27259455
aS'-'
asS'RPL7AP52'
p2344
(lp2345
I94882554
aI94883343
aS'+'
asS'NEURL1'
p2346
(lp2347
I103493979
aI103592552
aS'+'
asS'TXNP1'
p2348
(lp2349
I119683127
aI119683823
aS'-'
asS'HSPA12A'
p2350
(lp2351
I116671192
aI116849741
aS'-'
asS'C10orf76'
p2352
(lp2353
I101845599
aI102056193
aS'-'
asS'CLUHP5'
p2354
(lp2355
I133657235
aI133660635
aS'-'
asS'ZWINT'
p2356
(lp2357
I56357228
aI56361275
aS'-'
asS'DUSP5'
p2358
(lp2359
I110497838
aI110511544
aS'+'
asS'NFKB2'
p2360
(lp2361
I102394110
aI102402529
aS'+'
asS'CTNNA3'
p2362
(lp2363
I65912518
aI67696169
aS'-'
asS'MSS51'
p2364
(lp2365
I73423579
aI73433560
aS'-'
asS'AL161931.1'
p2366
(lp2367
I38068449
aI38068694
aS'-'
asS'HNRNPF'
p2368
(lp2369
I43385617
aI43408882
aS'-'
asS'HELLS'
p2370
(lp2371
I94501434
aI94602098
aS'+'
asS'HHEX'
p2372
(lp2373
I92689951
aI92695646
aS'+'
asS'ATP5G1P7'
p2374
(lp2375
I69432972
aI69433371
aS'-'
asS'BMS1P21'
p2376
(lp2377
I79906605
aI79907856
aS'+'
asS'AL355315.1'
p2378
(lp2379
I97584374
aI97673910
aS'+'
asS'ATP5G1P8'
p2380
(lp2381
I76836568
aI76836861
aS'+'
asS'PDSS1'
p2382
(lp2383
I26697659
aI26746798
aS'+'
asS'SFR1'
p2384
(lp2385
I104122058
aI104126385
aS'+'
asS'CC2D2B'
p2386
(lp2387
I95911254
aI96032008
aS'+'
asS'RPL15P14'
p2388
(lp2389
I72189941
aI72190576
aS'+'
asS'LYZL1'
p2390
(lp2391
I29291925
aI29318328
aS'+'
asS'LYZL2'
p2392
(lp2393
I30611779
aI30629762
aS'-'
asS'C10orf90'
p2394
(lp2395
I126504432
aI126670446
aS'-'
asS'ADO'
p2396
(lp2397
I62804857
aI62808483
aS'+'
asS'ZNF518A'
p2398
(lp2399
I96130072
aI96205288
aS'+'
asS'WAPL'
p2400
(lp2401
I86435256
aI86521815
aS'-'
asS'C10orf95'
p2402
(lp2403
I102449837
aI102451543
aS'-'
asS'THNSL1'
p2404
(lp2405
I25016658
aI25026664
aS'+'
asS'AL357037.1'
p2406
(lp2407
I74744386
aI74744707
aS'-'
asS'ZNF488'
p2408
(lp2409
I47365496
aI47384273
aS'-'
asS'MYL6P3'
p2410
(lp2411
I65169438
aI65169869
aS'-'
asS'COMMD3-BMI1'
p2412
(lp2413
I22316409
aI22329542
aS'+'
asS'VPS26A'
p2414
(lp2415
I69123512
aI69172861
aS'+'
asS'RGS10'
p2416
(lp2417
I119499925
aI119542708
aS'-'
asS'AL500527.1'
p2418
(lp2419
I102085476
aI102085730
aS'-'
asS'TACC2'
p2420
(lp2421
I121989194
aI122254545
aS'+'
asS'ZNF485'
p2422
(lp2423
I43606407
aI43617903
aS'+'
asS'GLUD1'
p2424
(lp2425
I87050486
aI87094866
aS'-'
asS'ZNF487'
p2426
(lp2427
I43437126
aI43483179
aS'+'
asS'AL161798.1'
p2428
(lp2429
I91464578
aI91464708
aS'-'
asS'CASC10'
p2430
(lp2431
I21492658
aI21497262
aS'-'
asS'AL132656.1'
p2432
(lp2433
I79684494
aI79684983
aS'-'
asS'BMS1P2'
p2434
(lp2435
I47538377
aI47551954
aS'-'
asS'AL161932.2'
p2436
(lp2437
I32109861
aI32111666
aS'+'
asS'TBC1D12'
p2438
(lp2439
I94402504
aI94535930
aS'+'
asS'GAPDHP45'
p2440
(lp2441
I15093263
aI15093611
aS'-'
asS'RPS26P38'
p2442
(lp2443
I87642607
aI87642954
aS'+'
asS'TMEM236'
p2444
(lp2445
I17752252
aI17800868
aS'+'
asS'KIF20B'
p2446
(lp2447
I89701610
aI89774939
aS'+'
asS'FAM238C'
p2448
(lp2449
I26931247
aI26944418
aS'-'
asS'PALD1'
p2450
(lp2451
I70478821
aI70568449
aS'+'
asS'MKI67'
p2452
(lp2453
I128096659
aI128126385
aS'-'
asS'HMX3'
p2454
(lp2455
I123135962
aI123137741
aS'+'
asS'HMX2'
p2456
(lp2457
I123148122
aI123150672
aS'+'
asS'AL591684.3'
p2458
(lp2459
I47484457
aI47484754
aS'-'
asS'XRCC6P1'
p2460
(lp2461
I93206857
aI93209627
aS'-'
asS'ARL3'
p2462
(lp2463
I102673731
aI102714407
aS'-'
asS'TEX36'
p2464
(lp2465
I125576522
aI125683106
aS'-'
asS'FRMD4A'
p2466
(lp2467
I13643706
aI14330884
aS'-'
asS'ADAM12'
p2468
(lp2469
I126012381
aI126388455
aS'-'
asS'CCDC58P2'
p2470
(lp2471
I50962993
aI50963358
aS'-'
asS'BORCS7-ASMT'
p2472
(lp2473
I102854272
aI102901899
aS'+'
asS'AL133173.1'
p2474
(lp2475
I38762095
aI38762491
aS'-'
asS'ARL6IP1P2'
p2476
(lp2477
I36995023
aI36995585
aS'+'
asS'AL731556.2'
p2478
(lp2479
I77738246
aI77739015
aS'+'
asS'SEC31B'
p2480
(lp2481
I100486647
aI100519859
aS'-'
asS'MBL2'
p2482
(lp2483
I52765380
aI52771700
aS'-'
asS'STAM'
p2484
(lp2485
I17644125
aI17715914
aS'+'
asS'RPL12P27'
p2486
(lp2487
I97309138
aI97309958
aS'-'
asS'ANKRD1'
p2488
(lp2489
I90912096
aI90921276
aS'-'
asS'ANKRD2'
p2490
(lp2491
I97572499
aI97583884
aS'+'
asS'MAPKAPK5P1'
p2492
(lp2493
I108848186
aI108849561
aS'+'
asS'PRPF18'
p2494
(lp2495
I13586927
aI13630868
aS'+'
asS'RPL12P29'
p2496
(lp2497
I84389170
aI84389626
aS'-'
asS'RPL12P28'
p2498
(lp2499
I5861805
aI5862594
aS'-'
asS'CALM2P2'
p2500
(lp2501
I70163685
aI70164124
aS'+'
asS'RPL21P16'
p2502
(lp2503
I120354701
aI120355183
aS'-'
asS'NRAP'
p2504
(lp2505
I113588716
aI113664046
aS'-'
asS'WNT8B'
p2506
(lp2507
I100463041
aI100483744
aS'+'
asS'CICP9'
p2508
(lp2509
I38452987
aI38455365
aS'-'
asS'AC069540.1'
p2510
(lp2511
I83735506
aI83736493
aS'+'
asS'VTI1A'
p2512
(lp2513
I112447258
aI112818744
aS'+'
asS'USP6NL'
p2514
(lp2515
I11453946
aI11611754
aS'-'
asS'NIP7P1'
p2516
(lp2517
I93106872
aI93107383
aS'-'
asS'CYP2C18'
p2518
(lp2519
I94683621
aI94736190
aS'+'
asS'OPALIN'
p2520
(lp2521
I96343222
aI96359365
aS'-'
asS'TFAM'
p2522
(lp2523
I58385022
aI58399221
aS'+'
asS'AL365496.1'
p2524
(lp2525
I53766400
aI53766614
aS'+'
asS'CUBN'
p2526
(lp2527
I16823964
aI17129831
aS'-'
asS'SDHCP2'
p2528
(lp2529
I92118664
aI92119164
aS'+'
asS'PLAU'
p2530
(lp2531
I73911104
aI73917496
aS'+'
asS'AL355298.1'
p2532
(lp2533
I120069980
aI120070159
aS'-'
asS'AL161932.1'
p2534
(lp2535
I32111644
aI32111789
aS'-'
asS'MARCKSL1P1'
p2536
(lp2537
I103175554
aI103176094
aS'+'
asS'WASHC2A'
p2538
(lp2539
I50067888
aI50133506
aS'+'
asS'TCERG1L'
p2540
(lp2541
I131092391
aI131311721
aS'-'
asS'WASHC2C'
p2542
(lp2543
I45727200
aI45792961
aS'+'
asS'KAT6B'
p2544
(lp2545
I74825582
aI75032293
aS'+'
asS'RPL5P25'
p2546
(lp2547
I13057902
aI13058676
aS'-'
asS'ARMC4'
p2548
(lp2549
I27812168
aI27999048
aS'-'
asS'ARMC3'
p2550
(lp2551
I22928024
aI23038523
aS'+'
asS'NPM3'
p2552
(lp2553
I101781325
aI101783413
aS'-'
asS'SNRPEP8'
p2554
(lp2555
I53038285
aI53038544
aS'+'
asS'MYOZ1'
p2556
(lp2557
I73631654
aI73641757
aS'-'
asS'RPL15P13'
p2558
(lp2559
I114900722
aI114901366
aS'+'
asS'CFAP58'
p2560
(lp2561
I104353764
aI104455090
aS'+'
asS'HSPA14'
p2562
(lp2563
I14838164
aI14871741
aS'+'
asS'MXI1'
p2564
(lp2565
I110207605
aI110287365
aS'+'
asS'AL391099.1'
p2566
(lp2567
I42470082
aI42470268
aS'-'
asS'AL390961.1'
p2568
(lp2569
I26664336
aI26697295
aS'-'
asS'TMEM26'
p2570
(lp2571
I61406647
aI61453450
aS'-'
asS'AL133461.1'
p2572
(lp2573
I119818866
aI119819133
aS'+'
asS'PTPRE'
p2574
(lp2575
I127907061
aI128085855
aS'+'
asS'ZNRF2P3'
p2576
(lp2577
I79981839
aI79982212
aS'+'
asS'PRLHR'
p2578
(lp2579
I118589989
aI118595699
aS'-'
asS'PRPF38AP1'
p2580
(lp2581
I8161260
aI8162192
aS'+'
asS'SCD'
p2582
(lp2583
I100347124
aI100364834
aS'+'
asS'TATDN1P1'
p2584
(lp2585
I63222155
aI63223045
aS'+'
asS'RNLS'
p2586
(lp2587
I88273864
aI88584530
aS'-'
asS'AL500527.2'
p2588
(lp2589
I102089968
aI102090062
aS'+'
asS'HMGB1P50'
p2590
(lp2591
I49551308
aI49552652
aS'+'
as.