(dp1
S'DUOXA1'
p2
(lp3
I45117374
aI45129877
aS'-'
asS'SPATA31E2P'
p4
(lp5
I20593494
aI20599195
aS'-'
asS'UBL7'
p6
(lp7
I74445977
aI74461182
aS'-'
asS'UBE2Q2'
p8
(lp9
I75843285
aI75901078
aS'+'
asS'MFGE8'
p10
(lp11
I88898714
aI88913411
aS'-'
asS'BUB1B'
p12
(lp13
I40161026
aI40221136
aS'+'
asS'NIPA2'
p14
(lp15
I22838641
aI22868384
aS'+'
asS'GCOM1'
p16
(lp17
I57591908
aI57714745
aS'+'
asS'ANP32BP1'
p18
(lp19
I75321397
aI75322693
aS'-'
asS'PCSK6'
p20
(lp21
I101304746
aI101525202
aS'-'
asS'AC012435.1'
p22
(lp23
I74478070
aI74490286
aS'-'
asS'COX6CP4'
p24
(lp25
I36571985
aI36572212
aS'+'
asS'B2M'
p26
(lp27
I44711477
aI44718877
aS'+'
asS'DUOXA2'
p28
(lp29
I45114321
aI45118421
aS'+'
asS'MTND5P32'
p30
(lp31
I58152606
aI58154407
aS'+'
asS'MFAP1'
p32
(lp33
I43804492
aI43824802
aS'-'
asS'ANP32A'
p34
(lp35
I68778535
aI68820895
aS'-'
asS'HMGN1P38'
p36
(lp37
I92711808
aI92712110
aS'+'
asS'AC015720.2'
p38
(lp39
I74976240
aI74976573
aS'-'
asS'SEMA4B'
p40
(lp41
I90160604
aI90217786
aS'+'
asS'HDDC3'
p42
(lp43
I90929964
aI90932569
aS'-'
asS'OTUD7A'
p44
(lp45
I31555999
aI31870789
aS'-'
asS'RAB11A'
p46
(lp47
I65726054
aI65887923
aS'+'
asS'ZFYVE19'
p48
(lp49
I40807089
aI40815084
aS'+'
asS'RPS3AP6'
p50
(lp51
I59768352
aI59769146
aS'+'
asS'HNRNPA3P11'
p52
(lp53
I57246960
aI57247893
aS'-'
asS'AC087641.1'
p54
(lp55
I93065586
aI93066606
aS'-'
asS'SLC28A2'
p56
(lp57
I45252230
aI45277845
aS'+'
asS'SLC28A1'
p58
(lp59
I84884661
aI84945796
aS'+'
asS'LINS1'
p60
(lp61
I100566914
aI100602240
aS'-'
asS'COMMD4'
p62
(lp63
I75336076
aI75343224
aS'+'
asS'AC091078.2'
p64
(lp65
I93430659
aI93431217
aS'-'
asS'AC087385.1'
p66
(lp67
I60390371
aI60390682
aS'+'
asS'CYCSP2'
p68
(lp69
I41108878
aI41109178
aS'+'
asS'RNF111'
p70
(lp71
I58865175
aI59031216
aS'+'
asS'AC060814.3'
p72
(lp73
I21382383
aI21382842
aS'+'
asS'CSPG4P12'
p74
(lp75
I85196444
aI85213905
aS'+'
asS'SV2B'
p76
(lp77
I91100285
aI91301309
aS'+'
asS'SCG5'
p78
(lp79
I32641676
aI32697098
aS'+'
asS'AC026956.1'
p80
(lp81
I82010212
aI82010607
aS'-'
asS'IGF1R'
p82
(lp83
I98648971
aI98964530
aS'+'
asS'MAN2C1'
p84
(lp85
I75355792
aI75368630
aS'-'
asS'AC105036.1'
p86
(lp87
I75512770
aI75513040
aS'-'
asS'LARP6'
p88
(lp89
I70829130
aI70854159
aS'-'
asS'AC055876.4'
p90
(lp91
I28763440
aI28764151
aS'-'
asS'AC091167.7'
p92
(lp93
I90266317
aI90314499
aS'+'
asS'AC091167.4'
p94
(lp95
I90281848
aI90282031
aS'-'
asS'AC091167.5'
p96
(lp97
I90284376
aI90285580
aS'-'
asS'HMGN2P5'
p98
(lp99
I29730713
aI29730985
aS'+'
asS'AC091167.3'
p100
(lp101
I90249556
aI90272208
aS'+'
asS'AC113208.3'
p102
(lp103
I75226401
aI75234014
aS'-'
asS'AC135628.1'
p104
(lp105
I67985059
aI67986288
aS'+'
asS'OCA2'
p106
(lp107
I27754875
aI28099358
aS'-'
asS'ONECUT1'
p108
(lp109
I52757315
aI52791078
aS'-'
asS'AC139426.3'
p110
(lp111
I32250302
aI32256125
aS'-'
asS'IQCH'
p112
(lp113
I67254801
aI67501804
aS'+'
asS'PHBP20'
p114
(lp115
I72450657
aI72451474
aS'+'
asS'AC135068.11'
p116
(lp117
I21614118
aI21615038
aS'+'
asS'TEX9'
p118
(lp119
I56244009
aI56391385
aS'+'
asS'AC111152.3'
p120
(lp121
I30044455
aI30045296
aS'+'
asS'SNAP23'
p122
(lp123
I42492871
aI42531545
aS'+'
asS'PARP16'
p124
(lp125
I65266577
aI65300618
aS'-'
asS'AC067863.1'
p126
(lp127
I78661047
aI78661576
aS'-'
asS'HCN4'
p128
(lp129
I73319859
aI73369264
aS'-'
asS'AC090971.3'
p130
(lp131
I51919073
aI51930627
aS'-'
asS'AC022748.3'
p132
(lp133
I78749833
aI78750107
aS'-'
asS'STARD9'
p134
(lp135
I42575659
aI42720981
aS'+'
asS'AC105339.3'
p136
(lp137
I82691723
aI82692358
aS'-'
asS'LINC01314'
p138
(lp139
I80195484
aI80252213
aS'-'
asS'LACTB'
p140
(lp141
I63121800
aI63142061
aS'+'
asS'SPPL2A'
p142
(lp143
I50702266
aI50765808
aS'-'
asS'PDIA3P2'
p144
(lp145
I43649123
aI43649280
aS'+'
asS'ZNF774'
p146
(lp147
I90352340
aI90369146
aS'+'
asS'AC138701.2'
p148
(lp149
I19899334
aI19899559
aS'+'
asS'ZNF770'
p150
(lp151
I34978341
aI34988287
aS'-'
asS'STARD5'
p152
(lp153
I81309053
aI81324125
aS'-'
asS'RASGRP1'
p154
(lp155
I38488103
aI38564806
aS'-'
asS'CFAP161'
p156
(lp157
I81007033
aI81138067
aS'+'
asS'RPS27L'
p158
(lp159
I63125872
aI63155715
aS'-'
asS'GABRG3'
p160
(lp161
I26971282
aI27541991
aS'+'
asS'CELF6'
p162
(lp163
I72284727
aI72320129
aS'-'
asS'FDPSP4'
p164
(lp165
I42939310
aI42940358
aS'-'
asS'AC079075.1'
p166
(lp167
I89752296
aI89753493
aS'+'
asS'AC105137.2'
p168
(lp169
I75415249
aI75416020
aS'+'
asS'AC084759.1'
p170
(lp171
I53837271
aI53837560
aS'-'
asS'EDC3'
p172
(lp173
I74630558
aI74696043
aS'-'
asS'AC009269.2'
p174
(lp175
I70791013
aI70791486
aS'+'
asS'DENND4A'
p176
(lp177
I65659123
aI65792124
aS'-'
asS'AC139426.1'
p178
(lp179
I32313126
aI32315654
aS'-'
asS'AC009269.1'
p180
(lp181
I70796597
aI70802684
aS'-'
asS'AC015720.1'
p182
(lp183
I75022980
aI75023256
aS'+'
asS'AC025884.3'
p184
(lp185
I22202392
aI22202734
aS'-'
asS'RCN2'
p186
(lp187
I76931619
aI76954392
aS'+'
asS'AC090517.1'
p188
(lp189
I56846340
aI56846605
aS'+'
asS'GOLGA6L17P'
p190
(lp191
I82519654
aI82526412
aS'+'
asS'CYP11A1'
p192
(lp193
I74337759
aI74367740
aS'-'
asS'LCTL'
p194
(lp195
I66547468
aI66565964
aS'-'
asS'UACA'
p196
(lp197
I70654554
aI70763593
aS'-'
asS'AC090164.1'
p198
(lp199
I101580893
aI101581556
aS'-'
asS'TMEM266'
p200
(lp201
I76059985
aI76229121
aS'+'
asS'AC090515.3'
p202
(lp203
I58755625
aI58756247
aS'-'
asS'TBC1D21'
p204
(lp205
I73873627
aI73889214
aS'+'
asS'AC087468.1'
p206
(lp207
I84940504
aI84941133
aS'-'
asS'AC013787.1'
p208
(lp209
I89687937
aI89688243
aS'-'
asS'SNX33'
p210
(lp211
I75647906
aI75662301
aS'+'
asS'FAM169B'
p212
(lp213
I98441071
aI98520386
aS'-'
asS'UBE2Q2P11'
p214
(lp215
I84412773
aI84421837
aS'-'
asS'UBE2Q2P12'
p216
(lp217
I84491480
aI84500599
aS'-'
asS'CDAN1'
p218
(lp219
I42723562
aI42737126
aS'-'
asS'TBC1D2B'
p220
(lp221
I77994986
aI78077724
aS'-'
asS'ALPK3'
p222
(lp223
I84816680
aI84873482
aS'+'
asS'TICRR'
p224
(lp225
I89575482
aI89628023
aS'+'
asS'SENP8'
p226
(lp227
I72114258
aI72140962
aS'+'
asS'AC060814.1'
p228
(lp229
I21344548
aI21345085
aS'-'
asS'KIF7'
p230
(lp231
I89627977
aI89655451
aS'-'
asS'THSD4'
p232
(lp233
I71096952
aI71783383
aS'+'
asS'AC060814.2'
p234
(lp235
I21372793
aI21373881
aS'-'
asS'BLM'
p236
(lp237
I90717327
aI90816165
aS'+'
asS'AC037479.1'
p238
(lp239
I99337857
aI99338481
aS'+'
asS'LRRC28'
p240
(lp241
I99251362
aI99390729
aS'+'
asS'AC009690.3'
p242
(lp243
I72266746
aI72319946
aS'-'
asS'AC009690.1'
p244
(lp245
I72284727
aI72375981
aS'-'
asS'TYRO3'
p246
(lp247
I41559034
aI41583586
aS'+'
asS'AC060773.1'
p248
(lp249
I77278465
aI77278774
aS'+'
asS'SPG21'
p250
(lp251
I64963021
aI64989936
aS'-'
asS'BCL2A1'
p252
(lp253
I79960889
aI79971446
aS'-'
asS'AC069368.1'
p254
(lp255
I64841948
aI64930920
aS'+'
asS'AC067805.1'
p256
(lp257
I88952683
aI88953460
aS'+'
asS'MTCO3P23'
p258
(lp259
I58150275
aI58150563
aS'+'
asS'AC019322.1'
p260
(lp261
I30380353
aI30386987
aS'-'
asS'AC019322.3'
p262
(lp263
I30395146
aI30396368
aS'+'
asS'AC019322.2'
p264
(lp265
I30420283
aI30420429
aS'-'
asS'ANPEP'
p266
(lp267
I89784889
aI89814862
aS'-'
asS'MYZAP'
p268
(lp269
I57591941
aI57685364
aS'+'
asS'MINDY2'
p270
(lp271
I58771314
aI58861900
aS'+'
asS'AC018512.1'
p272
(lp273
I43772617
aI43799133
aS'-'
asS'PIGBOS1'
p274
(lp275
I55317184
aI55319045
aS'-'
asS'EMC7'
p276
(lp277
I34084017
aI34101948
aS'-'
asS'EMC4'
p278
(lp279
I34224999
aI34230156
aS'+'
asS'KLHL25'
p280
(lp281
I85759323
aI85795030
aS'-'
asS'AC135068.5'
p282
(lp283
I21574225
aI21575207
aS'-'
asS'ABHD17C'
p284
(lp285
I80679684
aI80754519
aS'+'
asS'GOLGA6A'
p286
(lp287
I74069857
aI74082550
aS'-'
asS'AC135068.4'
p288
(lp289
I21683038
aI21683962
aS'+'
asS'TLE3'
p290
(lp291
I70047790
aI70098176
aS'-'
asS'SMAD6'
p292
(lp293
I66702228
aI66782848
aS'+'
asS'SMAD3'
p294
(lp295
I67065845
aI67195195
aS'+'
asS'POLG'
p296
(lp297
I89316305
aI89334847
aS'-'
asS'FGF7'
p298
(lp299
I49423096
aI49488775
aS'+'
asS'MKRN3'
p300
(lp301
I23566457
aI23630075
aS'+'
asS'CEMIP'
p302
(lp303
I80779343
aI80951776
aS'+'
asS'NDUFAF1'
p304
(lp305
I41387349
aI41402444
aS'-'
asS'AKAP13'
p306
(lp307
I85380715
aI85749355
aS'+'
asS'ZWILCH'
p308
(lp309
I66504959
aI66550128
aS'+'
asS'AC016304.1'
p310
(lp311
I37490691
aI37491103
aS'+'
asS'AC021753.1'
p312
(lp313
I41157175
aI41157342
aS'-'
asS'AC022306.1'
p314
(lp315
I49365124
aI49366685
aS'-'
asS'AC022523.2'
p316
(lp317
I98118171
aI98118320
aS'+'
asS'AC127502.1'
p318
(lp319
I30484544
aI30507623
aS'+'
asS'RGMA'
p320
(lp321
I93035273
aI93089204
aS'-'
asS'AC023310.2'
p322
(lp323
I20626819
aI20627365
aS'-'
asS'CCNDBP1'
p324
(lp325
I43185257
aI43197176
aS'+'
asS'AC242376.1'
p326
(lp327
I23289303
aI23293667
aS'-'
asS'AC242376.2'
p328
(lp329
I23309607
aI23313276
aS'+'
asS'SERF2'
p330
(lp331
I43777100
aI43794595
aS'+'
asS'NEDD4'
p332
(lp333
I55826922
aI55993746
aS'-'
asS'SPATA31E3P'
p334
(lp335
I22401208
aI22406944
aS'+'
asS'NR2F2'
p336
(lp337
I96325938
aI96338618
aS'+'
asS'AC116165.2'
p338
(lp339
I23193491
aI23193696
aS'+'
asS'AC068338.1'
p340
(lp341
I75249232
aI75249407
aS'-'
asS'AC116165.3'
p342
(lp343
I23225876
aI23226391
aS'-'
asS'ELL3'
p344
(lp345
I43772600
aI43777543
aS'-'
asS'AC022748.1'
p346
(lp347
I78752107
aI78753373
aS'+'
asS'AC027104.1'
p348
(lp349
I75950464
aI75951144
aS'-'
asS'OR4F15'
p350
(lp351
I101818163
aI101819147
aS'+'
asS'HERC2P3'
p352
(lp353
I20383115
aI20506161
aS'-'
asS'AC012651.1'
p354
(lp355
I42348103
aI42412317
aS'+'
asS'AC174071.1'
p356
(lp357
I28857882
aI28858398
aS'-'
asS'DNM1P38'
p358
(lp359
I82531653
aI82534139
aS'-'
asS'AC138749.3'
p360
(lp361
I28545912
aI28549777
aS'+'
asS'HERC2P9'
p362
(lp363
I28590189
aI28674027
aS'+'
asS'CPEB1'
p364
(lp365
I82544273
aI82647977
aS'-'
asS'DNM1P34'
p366
(lp367
I75299953
aI75302965
aS'-'
asS'FAM96A'
p368
(lp369
I64072559
aI64094018
aS'-'
asS'HACD3'
p370
(lp371
I65530466
aI65578352
aS'+'
asS'DNM1P30'
p372
(lp373
I30150872
aI30153409
aS'-'
asS'DNM1P31'
p374
(lp375
I32384937
aI32387484
aS'+'
asS'OR4F28P'
p376
(lp377
I101875964
aI101876901
aS'+'
asS'AC104390.1'
p378
(lp379
I94033658
aI94034177
aS'+'
asS'EIF5A2P1'
p380
(lp381
I72041194
aI72041653
aS'-'
asS'AC087481.1'
p382
(lp383
I30882267
aI30883231
aS'-'
asS'LTK'
p384
(lp385
I41503638
aI41513879
aS'-'
asS'AC026826.1'
p386
(lp387
I79751689
aI79752049
aS'-'
asS'AC026826.2'
p388
(lp389
I79758549
aI79758762
aS'-'
asS'AC026826.3'
p390
(lp391
I79743311
aI79743468
aS'+'
asS'MTND5P40'
p392
(lp393
I46341354
aI46341599
aS'+'
asS'SLC27A2'
p394
(lp395
I50182196
aI50236395
aS'+'
asS'MTFMT'
p396
(lp397
I65001512
aI65029627
aS'-'
asS'AC015871.1'
p398
(lp399
I79944498
aI79945578
aS'+'
asS'GOLGA8EP'
p400
(lp401
I23157366
aI23170711
aS'+'
asS'APBA2'
p402
(lp403
I28884483
aI29117717
aS'+'
asS'AC104046.1'
p404
(lp405
I85415228
aI85415633
aS'+'
asS'AC044787.1'
p406
(lp407
I47730144
aI47730935
aS'-'
asS'AC138749.5'
p408
(lp409
I28494975
aI28495182
aS'-'
asS'GJD2'
p410
(lp411
I34751032
aI34754965
aS'-'
asS'LEO1'
p412
(lp413
I51938025
aI51971806
aS'-'
asS'AC110048.1'
p414
(lp415
I66808404
aI66810560
aS'+'
asS'OR4H6P'
p416
(lp417
I22056709
aI22057629
aS'+'
asS'TUBGCP4'
p418
(lp419
I43371115
aI43409771
aS'+'
asS'TUBGCP5'
p420
(lp421
I22983192
aI23039569
aS'-'
asS'AC012414.7'
p422
(lp423
I20803505
aI20826173
aS'-'
asS'SHC4'
p424
(lp425
I48823735
aI48963444
aS'-'
asS'AC135068.6'
p426
(lp427
I21709649
aI21710270
aS'-'
asS'AC135068.1'
p428
(lp429
I21637909
aI21638992
aS'+'
asS'COX5A'
p430
(lp431
I74919791
aI74938168
aS'-'
asS'AC135068.3'
p432
(lp433
I21651844
aI21652968
aS'+'
asS'AC135068.2'
p434
(lp435
I21742364
aI21742799
aS'-'
asS'NMNAT1P5'
p436
(lp437
I59964942
aI59966084
aS'+'
asS'AC022748.2'
p438
(lp439
I78660644
aI78703884
aS'+'
asS'IGHD4OR15-4A'
p440
(lp441
I20004797
aI20004815
aS'-'
asS'AC116165.1'
p442
(lp443
I23140563
aI23144422
aS'-'
asS'CHP1'
p444
(lp445
I41231143
aI41281890
aS'+'
asS'AC135068.8'
p446
(lp447
I21717808
aI21718245
aS'-'
asS'AC020658.1'
p448
(lp449
I40312352
aI40313289
aS'-'
asS'AC068724.3'
p450
(lp451
I43109928
aI43110018
aS'+'
asS'AC025884.1'
p452
(lp453
I22278971
aI22282872
aS'+'
asS'AC068724.1'
p454
(lp455
I43115702
aI43116493
aS'-'
asS'REC114'
p456
(lp457
I73443158
aI73560014
aS'+'
asS'C15orf57'
p458
(lp459
I40528683
aI40565011
aS'-'
asS'PRC1'
p460
(lp461
I90966077
aI90995629
aS'-'
asS'AC025884.2'
p462
(lp463
I22258138
aI22258848
aS'+'
asS'C15orf53'
p464
(lp465
I38696598
aI38700038
aS'+'
asS'C15orf52'
p466
(lp467
I40331452
aI40338976
aS'-'
asS'GCHFR'
p468
(lp469
I40764020
aI40767710
aS'+'
asS'ASB9P1'
p470
(lp471
I92795647
aI92796439
aS'+'
asS'AC048382.3'
p472
(lp473
I84505463
aI84505495
aS'+'
asS'ABCB10P4'
p474
(lp475
I28506625
aI28508808
aS'-'
asS'AC090519.1'
p476
(lp477
I44354691
aI44355692
aS'+'
asS'SELENOS'
p478
(lp479
I101270817
aI101277450
aS'-'
asS'AC106028.1'
p480
(lp481
I92762757
aI92763750
aS'+'
asS'PIGHP1'
p482
(lp483
I59676757
aI59677321
aS'+'
asS'PDCD6IPP1'
p484
(lp485
I22727104
aI22744699
aS'+'
asS'NEO1'
p486
(lp487
I73051710
aI73305205
aS'+'
asS'AC090543.2'
p488
(lp489
I64592979
aI64593326
aS'+'
asS'AC090543.1'
p490
(lp491
I64631109
aI64631914
aS'-'
asS'GOLGA6L22'
p492
(lp493
I22458903
aI22469230
aS'+'
asS'AC010867.1'
p494
(lp495
I54048588
aI54050876
aS'-'
asS'GAPDHP55'
p496
(lp497
I44063511
aI44064313
aS'+'
asS'HOMER2'
p498
(lp499
I82864213
aI82986120
aS'-'
asS'POTEB'
p500
(lp501
I21846329
aI21877298
aS'-'
asS'AC009712.1'
p502
(lp503
I72682266
aI72682904
aS'-'
asS'DDX11L9'
p504
(lp505
I101976558
aI101979093
aS'-'
asS'AC068714.1'
p506
(lp507
I46099193
aI46100392
aS'-'
asS'ARIH1'
p508
(lp509
I72474326
aI72602985
aS'+'
asS'AC091167.2'
p510
(lp511
I90275129
aI90275716
aS'+'
asS'SLC24A5'
p512
(lp513
I48120972
aI48142672
aS'+'
asS'CA12'
p514
(lp515
I63321378
aI63382161
aS'-'
asS'SLC24A1'
p516
(lp517
I65611405
aI65660995
aS'+'
asS'GANC'
p518
(lp519
I42274242
aI42356935
aS'+'
asS'SPATA5L1'
p520
(lp521
I45402331
aI45421419
aS'+'
asS'PLEKHO2'
p522
(lp523
I64841889
aI64868007
aS'+'
asS'PLA2G4B'
p524
(lp525
I41837775
aI41848147
aS'+'
asS'AQP9'
p526
(lp527
I58138196
aI58185911
aS'+'
asS'MEX3B'
p528
(lp529
I82041778
aI82046141
aS'-'
asS'PLA2G4F'
p530
(lp531
I42139034
aI42156636
aS'-'
asS'PLA2G4E'
p532
(lp533
I41981582
aI42051190
aS'-'
asS'PLA2G4D'
p534
(lp535
I42067683
aI42094554
aS'-'
asS'DMXL2'
p536
(lp537
I51447711
aI51622833
aS'-'
asS'FAM92A1P1'
p538
(lp539
I41163162
aI41164374
aS'+'
asS'BNC1'
p540
(lp541
I83255903
aI83284714
aS'-'
asS'HNRNPA1P71'
p542
(lp543
I33012119
aI33013068
aS'+'
asS'HEXA'
p544
(lp545
I72340919
aI72376476
aS'-'
asS'MAPKBP1'
p546
(lp547
I41774434
aI41827855
aS'+'
asS'H3F3AP1'
p548
(lp549
I39951375
aI39951708
aS'-'
asS'AC013394.1'
p550
(lp551
I92886203
aI92949230
aS'+'
asS'GOLGA6L7P'
p552
(lp553
I28841833
aI28848675
aS'-'
asS'AC091544.4'
p554
(lp555
I92627073
aI92627414
aS'+'
asS'WHAMMP3'
p556
(lp557
I22664679
aI22686213
aS'+'
asS'WHAMMP2'
p558
(lp559
I28741101
aI28759204
aS'+'
asS'FES'
p560
(lp561
I90884412
aI90895776
aS'+'
asS'LMAN1L'
p562
(lp563
I74812716
aI74825758
aS'+'
asS'WDR73'
p564
(lp565
I84639281
aI84654335
aS'-'
asS'SPG11'
p566
(lp567
I44562696
aI44663664
aS'-'
asS'AC024270.1'
p568
(lp569
I83127753
aI83208018
aS'-'
asS'AC135731.1'
p570
(lp571
I30223017
aI30225564
aS'+'
asS'WDR76'
p572
(lp573
I43826963
aI43868419
aS'+'
asS'AC090602.1'
p574
(lp575
I24910874
aI24911125
aS'-'
asS'TGM5'
p576
(lp577
I43232595
aI43266857
aS'-'
asS'TGM7'
p578
(lp579
I43276280
aI43302255
aS'-'
asS'RLBP1'
p580
(lp581
I89209869
aI89221751
aS'-'
asS'AC126323.4'
p582
(lp583
I62255686
aI62256421
aS'-'
asS'AC061965.1'
p584
(lp585
I29233673
aI29235137
aS'-'
asS'AC126323.1'
p586
(lp587
I62227896
aI62243082
aS'-'
asS'AC087632.1'
p588
(lp589
I64181180
aI64373769
aS'-'
asS'AC124068.1'
p590
(lp591
I89201091
aI89201768
aS'-'
asS'AC016180.1'
p592
(lp593
I86139838
aI86140240
aS'-'
asS'AC012653.1'
p594
(lp595
I57979716
aI57980646
aS'-'
asS'CARSP1'
p596
(lp597
I68749501
aI68750691
aS'+'
asS'LRRC49'
p598
(lp599
I70853239
aI71053657
aS'+'
asS'AC100827.5'
p600
(lp601
I72604399
aI72605008
aS'-'
asS'AC090888.1'
p602
(lp603
I44919376
aI44920820
aS'+'
asS'AC090888.3'
p604
(lp605
I44914802
aI44930622
aS'-'
asS'CHRFAM7A'
p606
(lp607
I30357766
aI30393549
aS'-'
asS'AC113208.1'
p608
(lp609
I75186651
aI75186968
aS'-'
asS'EIF3J'
p610
(lp611
I44537057
aI44562803
aS'+'
asS'AC091304.9'
p612
(lp613
I28416449
aI28416674
aS'+'
asS'ASB7'
p614
(lp615
I100602534
aI100651705
aS'+'
asS'AC020661.2'
p616
(lp617
I40948736
aI40948869
aS'-'
asS'AC243562.2'
p618
(lp619
I84389729
aI84395903
aS'+'
asS'CD24P2'
p620
(lp621
I56071421
aI56071639
aS'+'
asS'AC243562.1'
p622
(lp623
I84394512
aI84395514
aS'+'
asS'AC091304.1'
p624
(lp625
I28349051
aI28358080
aS'-'
asS'LPCAT4'
p626
(lp627
I34358618
aI34367278
aS'-'
asS'AC091304.3'
p628
(lp629
I28332237
aI28336609
aS'+'
asS'HSPE1P3'
p630
(lp631
I90634725
aI90635033
aS'+'
asS'AC044913.1'
p632
(lp633
I25928146
aI25928575
aS'-'
asS'WASH3P'
p634
(lp635
I101961618
aI101973939
aS'+'
asS'SLC12A6'
p636
(lp637
I34233259
aI34338060
aS'-'
asS'SLC12A1'
p638
(lp639
I48206302
aI48304078
aS'+'
asS'AC012414.1'
p640
(lp641
I20775464
aI20775998
aS'-'
asS'NIFKP4'
p642
(lp643
I75251743
aI75252934
aS'-'
asS'AC013355.1'
p644
(lp645
I55442635
aI55443357
aS'-'
asS'HMG20A'
p646
(lp647
I77420651
aI77485607
aS'+'
asS'NUTF2P6'
p648
(lp649
I35282596
aI35282980
aS'+'
asS'IMP3'
p650
(lp651
I75639085
aI75648706
aS'-'
asS'LIPC'
p652
(lp653
I58410569
aI58568873
aS'+'
asS'IGHV3OR15-7'
p654
(lp655
I19987656
aI19988117
aS'-'
asS'AC021755.1'
p656
(lp657
I40133768
aI40135214
aS'-'
asS'STRA6'
p658
(lp659
I74179466
aI74212267
aS'-'
asS'PEX11A'
p660
(lp661
I89677764
aI89690782
aS'-'
asS'AC103988.2'
p662
(lp663
I36613474
aI36614198
aS'+'
asS'AC103988.1'
p664
(lp665
I36617089
aI36619265
aS'+'
asS'AC090527.2'
p666
(lp667
I45587351
aI45676314
aS'+'
asS'CGNL1'
p668
(lp669
I57376505
aI57550727
aS'+'
asS'HMGN1P26'
p670
(lp671
I62362029
aI62362331
aS'-'
asS'AC111152.1'
p672
(lp673
I30052942
aI30073064
aS'-'
asS'GOLGA2P7'
p674
(lp675
I84199312
aI84230136
aS'-'
asS'TMCO5B'
p676
(lp677
I33235755
aI33246603
aS'-'
asS'PDE8A'
p678
(lp679
I84980440
aI85139145
aS'+'
asS'TMCO5A'
p680
(lp681
I37934626
aI37967724
aS'+'
asS'RAB27A'
p682
(lp683
I55228666
aI55319113
aS'-'
asS'HIGD2B'
p684
(lp685
I72675783
aI72686149
aS'-'
asS'RFX7'
p686
(lp687
I56087283
aI56243266
aS'-'
asS'AC105109.1'
p688
(lp689
I91742841
aI91743955
aS'-'
asS'EFL1'
p690
(lp691
I82130230
aI82262763
aS'-'
asS'HNRNPLP2'
p692
(lp693
I34489002
aI34490571
aS'-'
asS'MRPL46'
p694
(lp695
I88459476
aI88467419
aS'-'
asS'EID1'
p696
(lp697
I48877886
aI48880183
aS'+'
asS'TRIP4'
p698
(lp699
I64387804
aI64455303
aS'+'
asS'CYP19A1'
p700
(lp701
I51208057
aI51338610
aS'-'
asS'AC020779.1'
p702
(lp703
I72134641
aI72135436
aS'+'
asS'HNRNPA1P74'
p704
(lp705
I54320731
aI54321565
aS'-'
asS'MESDC1'
p706
(lp707
I81000944
aI81005788
aS'+'
asS'MESDC2'
p708
(lp709
I80946289
aI80989828
aS'-'
asS'TNFAIP8L3'
p710
(lp711
I51056598
aI51105276
aS'-'
asS'PEAK1'
p712
(lp713
I77100656
aI77420144
aS'-'
asS'AC092754.2'
p714
(lp715
I59525422
aI59525881
aS'-'
asS'COPS2'
p716
(lp717
I49122728
aI49155652
aS'-'
asS'SERINC4'
p718
(lp719
I43794162
aI43800221
aS'-'
asS'AHCYP7'
p720
(lp721
I50417385
aI50418692
aS'+'
asS'DNM1P28'
p722
(lp723
I30098826
aI30102093
aS'-'
asS'ZNF592'
p724
(lp725
I84748635
aI84806432
aS'+'
asS'AC087465.1'
p726
(lp727
I77204578
aI77205100
aS'+'
asS'HDC'
p728
(lp729
I50241947
aI50266026
aS'-'
asS'AC100756.1'
p730
(lp731
I23337985
aI23341848
aS'-'
asS'KRT8P9'
p732
(lp733
I70858714
aI70860162
aS'+'
asS'FAM189A1'
p734
(lp735
I29120254
aI29570723
aS'-'
asS'ADAMTSL3'
p736
(lp737
I83654086
aI84039842
aS'+'
asS'BMF'
p738
(lp739
I40087890
aI40108874
aS'-'
asS'AC092754.1'
p740
(lp741
I59552615
aI59553093
aS'-'
asS'NANOGP8'
p742
(lp743
I35084193
aI35085110
aS'-'
asS'ZNF609'
p744
(lp745
I64499292
aI64686068
aS'+'
asS'ITPKA'
p746
(lp747
I41493875
aI41503551
aS'+'
asS'GATM'
p748
(lp749
I45369329
aI45402218
aS'-'
asS'ADAL'
p750
(lp751
I43330674
aI43353898
aS'+'
asS'CSPG4P13'
p752
(lp753
I77894684
aI77904674
aS'+'
asS'CSPG4P10'
p754
(lp755
I82464708
aI82477258
aS'+'
asS'CSPG4P11'
p756
(lp757
I84186752
aI84197384
aS'+'
asS'CYCSP38'
p758
(lp759
I60558080
aI60558401
aS'+'
asS'PPP1R14D'
p760
(lp761
I40815445
aI40828709
aS'-'
asS'AC138749.2'
p762
(lp763
I28564986
aI28565152
aS'-'
asS'PKM'
p764
(lp765
I72199032
aI72231822
aS'-'
asS'HNRNPA1P5'
p766
(lp767
I67627852
aI67629135
aS'+'
asS'IGDCC4'
p768
(lp769
I65381464
aI65423072
aS'-'
asS'AC105339.1'
p770
(lp771
I82710471
aI82714029
aS'-'
asS'CSK'
p772
(lp773
I74782057
aI74803198
aS'+'
asS'TUBAP4'
p774
(lp775
I83739784
aI83740199
aS'+'
asS'TCF12'
p776
(lp777
I56918625
aI57289853
aS'+'
asS'RPP25'
p778
(lp779
I74954416
aI74957464
aS'-'
asS'AC100827.2'
p780
(lp781
I72605183
aI72612326
aS'+'
asS'AC079328.1'
p782
(lp783
I62953173
aI62954124
aS'+'
asS'AC079203.1'
p784
(lp785
I34085911
aI34086314
aS'-'
asS'AC126603.1'
p786
(lp787
I20228620
aI20277503
aS'-'
asS'SHF'
p788
(lp789
I45167214
aI45201175
aS'-'
asS'HYKK'
p790
(lp791
I78507564
aI78537372
aS'+'
asS'OR11J2P'
p792
(lp793
I20960675
aI20961581
aS'+'
asS'AVEN'
p794
(lp795
I33866227
aI34039176
aS'-'
asS'AC044860.1'
p796
(lp797
I85205440
aI85234785
aS'-'
asS'FBN1'
p798
(lp799
I48408306
aI48645849
aS'-'
asS'AC018868.2'
p800
(lp801
I34849137
aI34850395
aS'-'
asS'MGA'
p802
(lp803
I41660412
aI41769943
aS'+'
asS'OR4G2P'
p804
(lp805
I101926805
aI101927707
aS'-'
asS'AC064799.1'
p806
(lp807
I71341158
aI71341712
aS'-'
asS'AC112693.2'
p808
(lp809
I93301416
aI93301647
aS'-'
asS'AC100756.3'
p810
(lp811
I23326256
aI23334127
aS'-'
asS'BUB1B-PAK6'
p812
(lp813
I40217449
aI40276396
aS'+'
asS'CALML4'
p814
(lp815
I68190706
aI68206110
aS'-'
asS'FAM103A1'
p816
(lp817
I82986207
aI82991057
aS'+'
asS'PDCD6IPP2'
p818
(lp819
I28832321
aI28859007
aS'+'
asS'MEF2A'
p820
(lp821
I99565700
aI99716466
aS'+'
asS'NEIL1'
p822
(lp823
I75346990
aI75357114
aS'+'
asS'RSL24D1'
p824
(lp825
I55180806
aI55197067
aS'-'
asS'SNX22'
p826
(lp827
I64151715
aI64157481
aS'+'
asS'CLK3'
p828
(lp829
I74608372
aI74630201
aS'+'
asS'ISLR2'
p830
(lp831
I74100311
aI74138540
aS'+'
asS'FBXL22'
p832
(lp833
I63597353
aI63602428
aS'+'
asS'AC051619.1'
p834
(lp835
I45321077
aI45321692
aS'-'
asS'UBE2Q2L'
p836
(lp837
I84172490
aI84182233
aS'+'
asS'TMC3'
p838
(lp839
I81331217
aI81374213
aS'-'
asS'RPLP1'
p840
(lp841
I69452784
aI69456194
aS'+'
asS'GOLGA8VP'
p842
(lp843
I101771758
aI101781989
aS'-'
asS'FAM81A'
p844
(lp845
I59372693
aI59492302
aS'+'
asS'TTBK2'
p846
(lp847
I42738734
aI42920479
aS'-'
asS'AC107977.1'
p848
(lp849
I101828741
aI101829679
aS'+'
asS'AC087283.1'
p850
(lp851
I37253879
aI37254952
aS'+'
asS'AC138749.1'
p852
(lp853
I28553638
aI28561379
aS'+'
asS'GABRA5'
p854
(lp855
I26866363
aI26949207
aS'+'
asS'MESP1'
p856
(lp857
I89748661
aI89751310
aS'-'
asS'MESP2'
p858
(lp859
I89760591
aI89778754
aS'+'
asS'POTEB2'
p860
(lp861
I20835372
aI20866314
aS'-'
asS'POTEB3'
p862
(lp863
I21408243
aI21440451
aS'-'
asS'MCTP2'
p864
(lp865
I94231722
aI94480403
aS'+'
asS'AC090971.4'
p866
(lp867
I51859185
aI51861293
aS'-'
asS'IGHD1OR15-1B'
p868
(lp869
I21017800
aI21017816
aS'-'
asS'PRKXP1'
p870
(lp871
I100553529
aI100558954
aS'-'
asS'STRCP1'
p872
(lp873
I43699488
aI43718184
aS'-'
asS'AC013565.2'
p874
(lp875
I89037977
aI89038286
aS'-'
asS'INTS14'
p876
(lp877
I65578782
aI65611245
aS'-'
asS'SNRPA1'
p878
(lp879
I101281514
aI101295282
aS'-'
asS'TPM1'
p880
(lp881
I63042685
aI63071889
aS'+'
asS'CIB2'
p882
(lp883
I78104606
aI78131544
aS'-'
asS'FBXO22'
p884
(lp885
I75903859
aI75942510
aS'+'
asS'AC013452.1'
p886
(lp887
I49177610
aI49178741
aS'-'
asS'CIB1'
p888
(lp889
I90229975
aI90234047
aS'-'
asS'HYPK'
p890
(lp891
I43796142
aI43802082
aS'+'
asS'FOXB1'
p892
(lp893
I60004234
aI60061730
aS'+'
asS'PATL2'
p894
(lp895
I44674763
aI44711316
aS'-'
asS'FANCI'
p896
(lp897
I89243949
aI89317261
aS'+'
asS'TTC23'
p898
(lp899
I99137553
aI99251223
aS'-'
asS'ETFA'
p900
(lp901
I76215355
aI76311469
aS'-'
asS'LYSMD2'
p902
(lp903
I51723069
aI51751585
aS'-'
asS'AC135731.2'
p904
(lp905
I30282533
aI30288389
aS'+'
asS'HNRNPA1P44'
p906
(lp907
I65816302
aI65817481
aS'-'
asS'MTMR10'
p908
(lp909
I30938941
aI30991604
aS'-'
asS'GNB5'
p910
(lp911
I52115105
aI52191369
aS'-'
asS'MTCYBP23'
p912
(lp913
I58154960
aI58156061
aS'+'
asS'ANP32BP3'
p914
(lp915
I81117635
aI81118340
aS'-'
asS'AC135983.3'
p916
(lp917
I32494003
aI32500346
aS'-'
asS'DCAF13P3'
p918
(lp919
I50944663
aI50945996
aS'+'
asS'TRIM69'
p920
(lp921
I44728988
aI44767827
aS'+'
asS'AC135983.2'
p922
(lp923
I32523026
aI32536926
aS'-'
asS'DLL4'
p924
(lp925
I40929393
aI40939072
aS'+'
asS'NUTM1'
p926
(lp927
I34343315
aI34357737
aS'+'
asS'AC135983.5'
p928
(lp929
I32461666
aI32461809
aS'-'
asS'DUT'
p930
(lp931
I48331423
aI48343373
aS'+'
asS'AC011330.1'
p932
(lp933
I43663654
aI43684339
aS'-'
asS'AC025271.1'
p934
(lp935
I57555951
aI57556379
aS'-'
asS'AC135983.4'
p936
(lp937
I32489267
aI32491586
aS'-'
asS'KNSTRN'
p938
(lp939
I40382721
aI40394245
aS'+'
asS'TM6SF1'
p940
(lp941
I83107407
aI83137359
aS'+'
asS'TJP1'
p942
(lp943
I29766440
aI29968865
aS'-'
asS'NOP10'
p944
(lp945
I34341713
aI34343177
aS'-'
asS'AC011270.1'
p946
(lp947
I78382573
aI78383155
aS'+'
asS'AC138749.4'
p948
(lp949
I28473322
aI28473448
aS'-'
asS'SECISBP2L'
p950
(lp951
I48988638
aI49046563
aS'-'
asS'MED28P6'
p952
(lp953
I88143935
aI88144165
aS'-'
asS'MYO9A'
p954
(lp955
I71822289
aI72118081
aS'-'
asS'NSMCE3'
p956
(lp957
I29264992
aI29269829
aS'-'
asS'AC090877.1'
p958
(lp959
I32836983
aI32837326
aS'-'
asS'AC011767.1'
p960
(lp961
I22770523
aI22776058
aS'-'
asS'RBM17P4'
p962
(lp963
I35298249
aI35299440
aS'-'
asS'AC138649.4'
p964
(lp965
I22714939
aI22715225
aS'+'
asS'AC138649.3'
p966
(lp967
I22756172
aI22756729
aS'-'
asS'AC138649.2'
p968
(lp969
I22690454
aI22691158
aS'-'
asS'HAPLN3'
p970
(lp971
I88877288
aI88895626
aS'-'
asS'SKOR1'
p972
(lp973
I67819704
aI67834561
aS'+'
asS'USP8'
p974
(lp975
I50424382
aI50514419
aS'+'
asS'IGHV1OR15-3'
p976
(lp977
I22178107
aI22178542
aS'-'
asS'DNM1P49'
p978
(lp979
I75791470
aI75792683
aS'-'
asS'IGHV1OR15-1'
p980
(lp981
I22160431
aI22160868
aS'-'
asS'IGHV1OR15-6'
p982
(lp983
I20639464
aI20639890
aS'-'
asS'ADAMTS7P1'
p984
(lp985
I82298553
aI82334609
aS'+'
asS'IGHV1OR15-4'
p986
(lp987
I22194885
aI22195317
aS'-'
asS'ADAMTS7P3'
p988
(lp989
I77976042
aI77993057
aS'+'
asS'AC104758.3'
p990
(lp991
I77915184
aI77926825
aS'-'
asS'ZNF710'
p992
(lp993
I90001392
aI90082200
aS'+'
asS'AC104758.1'
p994
(lp995
I77941899
aI77944582
aS'-'
asS'IGHV1OR15-9'
p996
(lp997
I19964666
aI19965101
aS'-'
asS'DNM1P47'
p998
(lp999
I101751032
aI101773472
aS'+'
asS'DNM1P46'
p1000
(lp1001
I99790156
aI99806927
aS'-'
asS'HNRNPCP3'
p1002
(lp1003
I79236332
aI79237206
aS'+'
asS'AP3S2'
p1004
(lp1005
I89830599
aI89894342
aS'-'
asS'ADAMTS7'
p1006
(lp1007
I78759203
aI78811431
aS'-'
asS'CCPG1'
p1008
(lp1009
I55355250
aI55408510
aS'-'
asS'GTF2A2'
p1010
(lp1011
I59638062
aI59657538
aS'-'
asS'CHEK2P2'
p1012
(lp1013
I20282744
aI20291558
aS'+'
asS'SEMA6D'
p1014
(lp1015
I47184101
aI47774221
aS'+'
asS'IQGAP1'
p1016
(lp1017
I90388218
aI90502243
aS'+'
asS'LOXL1'
p1018
(lp1019
I73925989
aI73951919
aS'+'
asS'NPTN'
p1020
(lp1021
I73560014
aI73634134
aS'-'
asS'GOLGA6L9'
p1022
(lp1023
I82430045
aI82439153
aS'+'
asS'GABARAPL3'
p1024
(lp1025
I90348844
aI90349197
aS'-'
asS'TIPIN'
p1026
(lp1027
I66336981
aI66386724
aS'-'
asS'GOLGA6L4'
p1028
(lp1029
I84235773
aI84245368
aS'+'
asS'GOLGA6L6'
p1030
(lp1031
I20531856
aI20541800
aS'-'
asS'TTLL13P'
p1032
(lp1033
I90249530
aI90265482
aS'+'
asS'HERC2P11'
p1034
(lp1035
I28575019
aI28579400
aS'-'
asS'GOLGA6L1'
p1036
(lp1037
I23128268
aI23136822
aS'-'
asS'GOLGA6L2'
p1038
(lp1039
I23439498
aI23447234
aS'-'
asS'GOLGA6L3'
p1040
(lp1041
I85240472
aI85247170
aS'+'
asS'DNAJC17'
p1042
(lp1043
I40765155
aI40807477
aS'-'
asS'HNRNPA1P45'
p1044
(lp1045
I35400691
aI35401768
aS'+'
asS'PIN4P1'
p1046
(lp1047
I43875849
aI43876244
aS'-'
asS'AC066616.2'
p1048
(lp1049
I58151033
aI58152513
aS'+'
asS'AC066616.1'
p1050
(lp1051
I58200606
aI58201018
aS'+'
asS'AC091544.3'
p1052
(lp1053
I92715710
aI92734098
aS'-'
asS'AEN'
p1054
(lp1055
I88621296
aI88632282
aS'+'
asS'FEM1B'
p1056
(lp1057
I68277803
aI68295865
aS'+'
asS'GREM1'
p1058
(lp1059
I32717974
aI32745107
aS'+'
asS'SNURF'
p1060
(lp1061
I24955004
aI24977850
aS'+'
asS'HMGB1P6'
p1062
(lp1063
I71164770
aI71165415
aS'-'
asS'AC091304.5'
p1064
(lp1065
I28346490
aI28346647
aS'+'
asS'HMGB1P8'
p1066
(lp1067
I89135547
aI89136495
aS'-'
asS'ATP10A'
p1068
(lp1069
I25677273
aI25863723
aS'-'
asS'CHRM5'
p1070
(lp1071
I33968888
aI34067457
aS'+'
asS'C15orf62'
p1072
(lp1073
I40770080
aI40772449
aS'+'
asS'CPLX3'
p1074
(lp1075
I74826547
aI74831802
aS'+'
asS'AC091304.4'
p1076
(lp1077
I28362796
aI28365731
aS'-'
asS'C15orf61'
p1078
(lp1079
I67521068
aI67530143
aS'+'
asS'KBTBD13'
p1080
(lp1081
I65076816
aI65078192
aS'+'
asS'C15orf65'
p1082
(lp1083
I55408548
aI55418712
aS'+'
asS'FAM227B'
p1084
(lp1085
I49328391
aI49620931
aS'-'
asS'IGHD1OR15-1A'
p1086
(lp1087
I20011153
aI20011169
aS'-'
asS'AC023449.1'
p1088
(lp1089
I25580969
aI25581122
aS'+'
asS'SEC11A'
p1090
(lp1091
I84669544
aI84716716
aS'-'
asS'CCNB2'
p1092
(lp1093
I59105078
aI59125045
aS'+'
asS'CATSPER2P1'
p1094
(lp1095
I43727181
aI43745165
aS'-'
asS'IGDCC3'
p1096
(lp1097
I65327127
aI65378040
aS'-'
asS'UBE2CP4'
p1098
(lp1099
I31420128
aI31420662
aS'+'
asS'CHST14'
p1100
(lp1101
I40470998
aI40474571
aS'+'
asS'DPH6'
p1102
(lp1103
I35217345
aI35410851
aS'-'
asS'VPS18'
p1104
(lp1105
I40894430
aI40903975
aS'+'
asS'PHGR1'
p1106
(lp1107
I40351033
aI40356434
aS'+'
asS'AC138701.1'
p1108
(lp1109
I19878555
aI19887814
aS'+'
asS'GAPDHP61'
p1110
(lp1111
I64528667
aI64529671
aS'-'
asS'AC024270.2'
p1112
(lp1113
I83044368
aI83044771
aS'+'
asS'UBAP1L'
p1114
(lp1115
I65092770
aI65115197
aS'-'
asS'ZNF519P3'
p1116
(lp1117
I21911559
aI21912590
aS'-'
asS'AC110027.1'
p1118
(lp1119
I94168349
aI94168751
aS'+'
asS'AC084783.1'
p1120
(lp1121
I56192353
aI56193262
aS'-'
asS'AC091167.1'
p1122
(lp1123
I90206572
aI90206967
aS'+'
asS'CHSY1'
p1124
(lp1125
I101175723
aI101251932
aS'-'
asS'AC090826.1'
p1126
(lp1127
I74350768
aI74361903
aS'+'
asS'AC135068.10'
p1128
(lp1129
I21609104
aI21610016
aS'+'
asS'AC135068.12'
p1130
(lp1131
I21595580
aI21596510
aS'-'
asS'GOLGA8CP'
p1132
(lp1133
I20562375
aI20575696
aS'+'
asS'DUXAP6'
p1134
(lp1135
I92281484
aI92282084
aS'+'
asS'SLC30A4'
p1136
(lp1137
I45479611
aI45522807
aS'-'
asS'SNRPCP18'
p1138
(lp1139
I101562536
aI101562974
aS'+'
asS'AC012100.1'
p1140
(lp1141
I50798670
aI50798951
aS'+'
asS'ELOCP2'
p1142
(lp1143
I41557027
aI41557435
aS'+'
asS'FURIN'
p1144
(lp1145
I90868592
aI90883458
aS'+'
asS'AC091304.6'
p1146
(lp1147
I28422172
aI28422373
aS'+'
asS'IGHV1OR15-2'
p1148
(lp1149
I19972782
aI19973218
aS'-'
asS'CERS3'
p1150
(lp1151
I100400395
aI100544720
aS'-'
asS'LINGO1'
p1152
(lp1153
I77615833
aI77820900
aS'-'
asS'AC183089.2'
p1154
(lp1155
I21971728
aI21972643
aS'+'
asS'AC183089.1'
p1156
(lp1157
I21980321
aI21981209
aS'-'
asS'GOLGA2P11'
p1158
(lp1159
I62253730
aI62270680
aS'-'
asS'RORA'
p1160
(lp1161
I60488284
aI61229319
aS'-'
asS'AC023310.3'
p1162
(lp1163
I20545576
aI20549444
aS'-'
asS'CLN6'
p1164
(lp1165
I68208067
aI68257106
aS'-'
asS'AC023310.1'
p1166
(lp1167
I20516252
aI20520627
aS'+'
asS'AC090515.1'
p1168
(lp1169
I58869659
aI58870134
aS'+'
asS'AC025918.2'
p1170
(lp1171
I58967046
aI58967808
aS'-'
asS'AC021739.1'
p1172
(lp1173
I85770990
aI85771163
aS'+'
asS'AC015871.2'
p1174
(lp1175
I79984151
aI79985724
aS'+'
asS'GDPGP1'
p1176
(lp1177
I90233808
aI90245811
aS'+'
asS'AC087481.2'
p1178
(lp1179
I30899480
aI30900327
aS'+'
asS'WDR61'
p1180
(lp1181
I78283235
aI78299794
aS'-'
asS'C15orf38-AP3S2'
p1182
(lp1183
I89834308
aI89912882
aS'-'
asS'EIF4EBP2P2'
p1184
(lp1185
I42581156
aI42581488
aS'-'
asS'CTSH'
p1186
(lp1187
I78921058
aI78945091
aS'-'
asS'OIP5'
p1188
(lp1189
I41309268
aI41332621
aS'-'
asS'IDH2'
p1190
(lp1191
I90083045
aI90102504
aS'-'
asS'IGHD2OR15-2B'
p1192
(lp1193
I21015048
aI21015078
aS'-'
asS'OR4N4'
p1194
(lp1195
I22094431
aI22095556
aS'+'
asS'IGHD2OR15-2A'
p1196
(lp1197
I20008402
aI20008432
aS'-'
asS'ATP5J2P6'
p1198
(lp1199
I66414933
aI66415198
aS'-'
asS'MYL12BP1'
p1200
(lp1201
I42571927
aI42572433
aS'+'
asS'NPAP1'
p1202
(lp1203
I24675868
aI24683393
aS'+'
asS'NDUFAF4P1'
p1204
(lp1205
I49156329
aI49156847
aS'+'
asS'HERC2P10'
p1206
(lp1207
I30815271
aI30844153
aS'+'
asS'AC104229.1'
p1208
(lp1209
I85958717
aI85958971
aS'-'
asS'AC100756.2'
p1210
(lp1211
I23430839
aI23435212
aS'+'
asS'AC025678.2'
p1212
(lp1213
I34409625
aI34410594
aS'+'
asS'HNRNPMP1'
p1214
(lp1215
I44447577
aI44449344
aS'-'
asS'TRPM7'
p1216
(lp1217
I50557158
aI50686815
aS'-'
asS'DNAJA4'
p1218
(lp1219
I78264086
aI78282196
aS'+'
asS'SLTM'
p1220
(lp1221
I58879045
aI58933653
aS'-'
asS'AC087699.1'
p1222
(lp1223
I70602124
aI70602516
aS'+'
asS'ST20'
p1224
(lp1225
I79898904
aI79923702
aS'-'
asS'KIF23'
p1226
(lp1227
I69414246
aI69448427
aS'+'
asS'WDR93'
p1228
(lp1229
I89690797
aI89743638
aS'+'
asS'MAGEL2'
p1230
(lp1231
I23643544
aI23647841
aS'-'
asS'AC109631.1'
p1232
(lp1233
I38458760
aI38459540
aS'-'
asS'ULK4P1'
p1234
(lp1235
I32406597
aI32434637
aS'-'
asS'SPESP1'
p1236
(lp1237
I68818221
aI68946122
aS'+'
asS'ULK4P3'
p1238
(lp1239
I30103732
aI30131757
aS'+'
asS'MYO5C'
p1240
(lp1241
I52192322
aI52295798
aS'-'
asS'AC010931.1'
p1242
(lp1243
I74097106
aI74098414
aS'-'
asS'MYO5A'
p1244
(lp1245
I52307283
aI52529050
aS'-'
asS'CHAC1'
p1246
(lp1247
I40953149
aI40956519
aS'+'
asS'AC103968.1'
p1248
(lp1249
I98466840
aI98467412
aS'+'
asS'RPL5P1'
p1250
(lp1251
I24908932
aI24909825
aS'-'
asS'SYNM'
p1252
(lp1253
I99098217
aI99135593
aS'+'
asS'MAP1A'
p1254
(lp1255
I43510958
aI43531620
aS'+'
asS'DUOX1'
p1256
(lp1257
I45129933
aI45165576
aS'+'
asS'DUOX2'
p1258
(lp1259
I45092650
aI45114344
aS'-'
asS'EPB42'
p1260
(lp1261
I43106225
aI43179938
aS'-'
asS'RPL5P3'
p1262
(lp1263
I71063101
aI71063989
aS'-'
asS'ICE2'
p1264
(lp1265
I60419613
aI60479160
aS'-'
asS'CRTC3'
p1266
(lp1267
I90529925
aI90645345
aS'+'
asS'ITGA11'
p1268
(lp1269
I68296533
aI68432162
aS'-'
asS'ACSBG1'
p1270
(lp1271
I78170914
aI78245688
aS'-'
asS'AC103996.1'
p1272
(lp1273
I93825058
aI93825159
aS'-'
asS'AC022254.1'
p1274
(lp1275
I67974391
aI67974625
aS'-'
asS'LINC00933'
p1276
(lp1277
I84572192
aI84580175
aS'+'
asS'OR4Q1P'
p1278
(lp1279
I22044496
aI22045399
aS'+'
asS'CTXN2'
p1280
(lp1281
I48191539
aI48203756
aS'+'
asS'ZSCAN2'
p1282
(lp1283
I84601005
aI84623716
aS'+'
asS'AC018618.2'
p1284
(lp1285
I61674767
aI61675212
aS'+'
asS'GLDN'
p1286
(lp1287
I51341629
aI51408013
aS'+'
asS'AC091544.1'
p1288
(lp1289
I92719393
aI92719740
aS'+'
asS'AC027139.2'
p1290
(lp1291
I34520608
aI34521791
aS'+'
asS'MEIS2'
p1292
(lp1293
I36889204
aI37101205
aS'-'
asS'AC027139.1'
p1294
(lp1295
I34555870
aI34556820
aS'+'
asS'GOLGA2P8'
p1296
(lp1297
I90291962
aI90295683
aS'+'
asS'SQOR'
p1298
(lp1299
I45631148
aI45691280
aS'+'
asS'IGHD5OR15-5B'
p1300
(lp1301
I21010494
aI21010516
aS'-'
asS'IGHD5OR15-5A'
p1302
(lp1303
I20003840
aI20003862
aS'-'
asS'AC019294.3'
p1304
(lp1305
I75746769
aI75747263
aS'+'
asS'TRPM1'
p1306
(lp1307
I31001061
aI31161273
aS'-'
asS'AC019294.1'
p1308
(lp1309
I75775594
aI75786898
aS'+'
asS'FAM98B'
p1310
(lp1311
I38454127
aI38487710
aS'+'
asS'PLCB2'
p1312
(lp1313
I40287907
aI40307922
aS'-'
asS'IGHD3OR15-3B'
p1314
(lp1315
I21012559
aI21012589
aS'-'
asS'RAD51'
p1316
(lp1317
I40695160
aI40732339
aS'+'
asS'IGHD3OR15-3A'
p1318
(lp1319
I20005905
aI20005935
aS'-'
asS'PARP6'
p1320
(lp1321
I72241181
aI72272621
aS'-'
asS'AC037471.2'
p1322
(lp1323
I20893383
aI20893980
aS'-'
asS'MAN2A2'
p1324
(lp1325
I90902992
aI90922579
aS'+'
asS'AC037471.1'
p1326
(lp1327
I21053004
aI21054702
aS'-'
asS'FAN1'
p1328
(lp1329
I30903873
aI30943108
aS'+'
asS'NF1P9'
p1330
(lp1331
I21490364
aI21502997
aS'-'
asS'PTPN9'
p1332
(lp1333
I75463251
aI75579289
aS'-'
asS'HERC2'
p1334
(lp1335
I28111040
aI28322152
aS'-'
asS'EFTUD1P1'
p1336
(lp1337
I84080168
aI84126604
aS'+'
asS'AC019288.1'
p1338
(lp1339
I35396221
aI35396444
aS'+'
asS'RPUSD2'
p1340
(lp1341
I40569300
aI40574943
aS'+'
asS'ZNF519P2'
p1342
(lp1343
I20901441
aI20901609
aS'-'
asS'CORO2B'
p1344
(lp1345
I68578969
aI68727806
aS'+'
asS'NF1P2'
p1346
(lp1347
I21927657
aI21946641
aS'-'
asS'AC138649.5'
p1348
(lp1349
I22714342
aI22717727
aS'+'
asS'SUMO2P15'
p1350
(lp1351
I40760597
aI40760874
aS'+'
asS'HERC1'
p1352
(lp1353
I63608618
aI63833888
aS'-'
asS'ADAMTS7P4'
p1354
(lp1355
I85270304
aI85330228
aS'-'
asS'AC027807.1'
p1356
(lp1357
I84053113
aI84080097
aS'-'
asS'WBP1LP5'
p1358
(lp1359
I101887354
aI101887767
aS'-'
asS'GALK2'
p1360
(lp1361
I49155765
aI49331882
aS'+'
asS'JMJD7-PLA2G4B'
p1362
(lp1363
I41828095
aI41848155
aS'+'
asS'FAM174B'
p1364
(lp1365
I92619302
aI92809798
aS'-'
asS'CD276'
p1366
(lp1367
I73684213
aI73714518
aS'+'
asS'ST8SIA2'
p1368
(lp1369
I92393828
aI92468728
aS'+'
asS'SCG3'
p1370
(lp1371
I51681353
aI51721031
aS'+'
asS'RPAP1'
p1372
(lp1373
I41517176
aI41544259
aS'-'
asS'BMS1P15'
p1374
(lp1375
I20153776
aI20160826
aS'+'
asS'HMGN2P46'
p1376
(lp1377
I45521836
aI45586290
aS'+'
asS'HMGN2P47'
p1378
(lp1379
I67000814
aI67001085
aS'-'
asS'HMGN2P40'
p1380
(lp1381
I68254549
aI68254939
aS'+'
asS'CILP'
p1382
(lp1383
I65194758
aI65211488
aS'-'
asS'NDUFA3P4'
p1384
(lp1385
I90385814
aI90386063
aS'+'
asS'STRC'
p1386
(lp1387
I43599398
aI43618800
aS'-'
asS'AC245033.3'
p1388
(lp1389
I82472203
aI82472426
aS'+'
asS'AC090607.2'
p1390
(lp1391
I78290527
aI78291221
aS'-'
asS'GPR176'
p1392
(lp1393
I39799032
aI39920225
aS'-'
asS'C2CD4A'
p1394
(lp1395
I62066977
aI62070917
aS'+'
asS'C2CD4B'
p1396
(lp1397
I62163535
aI62165283
aS'-'
asS'LCMT2'
p1398
(lp1399
I43323649
aI43330605
aS'-'
asS'AC245033.1'
p1400
(lp1401
I82540032
aI82555932
aS'-'
asS'AGBL1'
p1402
(lp1403
I86079973
aI87029052
aS'+'
asS'KRT8P50'
p1404
(lp1405
I42800968
aI42802405
aS'-'
asS'ACTC1'
p1406
(lp1407
I34788096
aI34796139
aS'-'
asS'MYO1E'
p1408
(lp1409
I59132434
aI59372900
aS'-'
asS'AC023906.1'
p1410
(lp1411
I52095295
aI52095747
aS'+'
asS'TERB2'
p1412
(lp1413
I44956702
aI44979229
aS'+'
asS'AC023968.1'
p1414
(lp1415
I79668342
aI79668816
aS'-'
asS'AC023968.2'
p1416
(lp1417
I79559256
aI79560304
aS'-'
asS'C15orf39'
p1418
(lp1419
I75198892
aI75212169
aS'+'
asS'AC009268.1'
p1420
(lp1421
I33990686
aI33992048
aS'+'
asS'AC068831.7'
p1422
(lp1423
I91031246
aI91031691
aS'-'
asS'ADAMTS17'
p1424
(lp1425
I99971589
aI100342005
aS'-'
asS'FRMD5'
p1426
(lp1427
I43870764
aI44195231
aS'-'
asS'INAFM2'
p1428
(lp1429
I40323664
aI40326715
aS'+'
asS'RPS24P16'
p1430
(lp1431
I67232446
aI67232837
aS'+'
asS'PSTPIP1'
p1432
(lp1433
I76994680
aI77037301
aS'+'
asS'AC091304.2'
p1434
(lp1435
I28454660
aI28457783
aS'-'
asS'DNAAF4'
p1436
(lp1437
I55410525
aI55498341
aS'-'
asS'SH3GL3'
p1438
(lp1439
I83447228
aI83618743
aS'+'
asS'APH1B'
p1440
(lp1441
I63277554
aI63309126
aS'+'
asS'PGBD4'
p1442
(lp1443
I34102073
aI34108684
aS'+'
asS'NUSAP1'
p1444
(lp1445
I41332694
aI41381050
aS'+'
asS'JMJD7'
p1446
(lp1447
I41828085
aI41837581
aS'+'
asS'HMGB1P51'
p1448
(lp1449
I58672296
aI58672933
aS'+'
asS'GOLGA2P10'
p1450
(lp1451
I82472993
aI82513950
aS'-'
asS'CHRNB4'
p1452
(lp1453
I78631062
aI78720286
aS'-'
asS'AC012170.1'
p1454
(lp1455
I50466738
aI50467096
aS'+'
asS'AC026150.2'
p1456
(lp1457
I30516079
aI30517867
aS'+'
asS'ARPP19'
p1458
(lp1459
I52547045
aI52569239
aS'-'
asS'TMEM202'
p1460
(lp1461
I72398273
aI72408029
aS'+'
asS'FKBP1AP2'
p1462
(lp1463
I73143236
aI73143518
aS'-'
asS'AC127381.2'
p1464
(lp1465
I20046296
aI20047994
aS'-'
asS'BNIP2'
p1466
(lp1467
I59659146
aI59689534
aS'-'
asS'PSMA4'
p1468
(lp1469
I78540413
aI78552419
aS'+'
asS'AC127381.1'
p1470
(lp1471
I19967414
aI19968352
aS'-'
asS'ZNF106'
p1472
(lp1473
I42415121
aI42491105
aS'-'
asS'AC087385.3'
p1474
(lp1475
I60409234
aI60409420
aS'-'
asS'UBE2Q2P1'
p1476
(lp1477
I84526781
aI84570700
aS'-'
asS'MORF4L1'
p1478
(lp1479
I78810487
aI78897730
aS'+'
asS'PPCDC'
p1480
(lp1481
I75049682
aI75117462
aS'+'
asS'USP3'
p1482
(lp1483
I63504511
aI63594640
aS'+'
asS'AC107976.1'
p1484
(lp1485
I94855474
aI94856914
aS'+'
asS'MYEF2'
p1486
(lp1487
I48134631
aI48178517
aS'-'
asS'NDN'
p1488
(lp1489
I23685400
aI23687330
aS'-'
asS'CCDC33'
p1490
(lp1491
I74236289
aI74336141
aS'+'
asS'AC090751.1'
p1492
(lp1493
I76472099
aI76472365
aS'+'
asS'SORD'
p1494
(lp1495
I45023104
aI45077185
aS'+'
asS'GOLGA8UP'
p1496
(lp1497
I30791573
aI30801859
aS'+'
asS'AC084757.1'
p1498
(lp1499
I48725338
aI48725827
aS'+'
asS'DET1'
p1500
(lp1501
I88494440
aI88546645
aS'-'
asS'GLCE'
p1502
(lp1503
I69160634
aI69272199
aS'+'
asS'NF1P1'
p1504
(lp1505
I20916686
aI20935658
aS'-'
asS'GABRB3'
p1506
(lp1507
I26543552
aI26939539
aS'-'
asS'AC018868.1'
p1508
(lp1509
I34943080
aI34943394
aS'+'
asS'TMEM87A'
p1510
(lp1511
I42210452
aI42273584
aS'-'
asS'AC027559.1'
p1512
(lp1513
I101737099
aI101746870
aS'-'
asS'AC055876.5'
p1514
(lp1515
I28830619
aI28831182
aS'-'
asS'CYP1A1'
p1516
(lp1517
I74719542
aI74725610
aS'-'
asS'CYP1A2'
p1518
(lp1519
I74748844
aI74756202
aS'+'
asS'RPL5P32'
p1520
(lp1521
I27895704
aI27896582
aS'+'
asS'AC055876.1'
p1522
(lp1523
I28788602
aI28792002
aS'+'
asS'RPL12P35'
p1524
(lp1525
I72379215
aI72379710
aS'-'
asS'AC055876.3'
p1526
(lp1527
I28789199
aI28789486
aS'+'
asS'CTDSPL2'
p1528
(lp1529
I44427234
aI44529038
aS'+'
asS'EIF2AK4'
p1530
(lp1531
I39934153
aI40035590
aS'+'
asS'IL16'
p1532
(lp1533
I81182860
aI81309098
aS'+'
asS'AC090888.2'
p1534
(lp1535
I44970035
aI44971178
aS'-'
asS'NMB'
p1536
(lp1537
I84655129
aI84658563
aS'-'
asS'AC073657.2'
p1538
(lp1539
I41718370
aI41718672
aS'-'
asS'AC068446.1'
p1540
(lp1541
I21293653
aI21295201
aS'-'
asS'GOLGA6L5P'
p1542
(lp1543
I84509926
aI84516785
aS'-'
asS'AC068446.3'
p1544
(lp1545
I21250180
aI21260147
aS'-'
asS'PPIB'
p1546
(lp1547
I64155812
aI64163205
aS'-'
asS'AC107958.1'
p1548
(lp1549
I91676771
aI91677060
aS'+'
asS'AC107871.1'
p1550
(lp1551
I68184032
aI68229693
aS'-'
asS'CYFIP1'
p1552
(lp1553
I22867052
aI22980335
aS'-'
asS'MRPS11'
p1554
(lp1555
I88467453
aI88480773
aS'+'
asS'PRELID1P4'
p1556
(lp1557
I35121573
aI35122084
aS'-'
asS'AAGAB'
p1558
(lp1559
I67201033
aI67254736
aS'-'
asS'LDHAL6B'
p1560
(lp1561
I59206823
aI59208515
aS'+'
asS'BAHD1'
p1562
(lp1563
I40439721
aI40468229
aS'+'
asS'RPL9P9'
p1564
(lp1565
I82372196
aI82372912
aS'-'
asS'MAP2K1'
p1566
(lp1567
I66386817
aI66492312
aS'+'
asS'SCAMP5'
p1568
(lp1569
I74957219
aI75019277
aS'+'
asS'AC015914.2'
p1570
(lp1571
I63890030
aI63890317
aS'+'
asS'ADPGK'
p1572
(lp1573
I72751369
aI72783785
aS'-'
asS'EGLN1P1'
p1574
(lp1575
I84633874
aI84634635
aS'+'
asS'SPTBN5'
p1576
(lp1577
I41848144
aI41894077
aS'-'
asS'ALDH1A2'
p1578
(lp1579
I58013858
aI58473913
aS'-'
asS'ALDH1A3'
p1580
(lp1581
I100879376
aI100916626
aS'+'
asS'KLF13'
p1582
(lp1583
I31327567
aI31435586
aS'+'
asS'AP3B2'
p1584
(lp1585
I82659281
aI82709914
aS'-'
asS'GCNT3'
p1586
(lp1587
I59616531
aI59640239
aS'+'
asS'MESTP2'
p1588
(lp1589
I60053204
aI60054092
aS'-'
asS'TLN2'
p1590
(lp1591
I62561365
aI62844631
aS'+'
asS'CATSPER2'
p1592
(lp1593
I43647420
aI43668118
aS'-'
asS'FAM219B'
p1594
(lp1595
I74899987
aI74907121
aS'-'
asS'DPP8'
p1596
(lp1597
I65442463
aI65517273
aS'-'
asS'VPS33B'
p1598
(lp1599
I90998416
aI91022603
aS'-'
asS'FAH'
p1600
(lp1601
I80152780
aI80186946
aS'+'
asS'AC113208.2'
p1602
(lp1603
I75114261
aI75114868
aS'+'
asS'ABCB10P1'
p1604
(lp1605
I23179869
aI23182049
aS'+'
asS'RPL41P2'
p1606
(lp1607
I28315651
aI28316059
aS'+'
asS'ABCB10P3'
p1608
(lp1609
I28402868
aI28405033
aS'+'
asS'NIFKP8'
p1610
(lp1611
I85181210
aI85182083
aS'-'
asS'GRAMD4P5'
p1612
(lp1613
I20813299
aI20814958
aS'+'
asS'SORD2P'
p1614
(lp1615
I44825747
aI44884694
aS'-'
asS'NRG4'
p1616
(lp1617
I75936264
aI76057017
aS'-'
asS'AC013356.1'
p1618
(lp1619
I40480752
aI40481315
aS'-'
asS'PIGB'
p1620
(lp1621
I55318960
aI55355648
aS'+'
asS'ANXA2'
p1622
(lp1623
I60347134
aI60397986
aS'-'
asS'IGHV4OR15-8'
p1624
(lp1625
I22184967
aI22185402
aS'-'
asS'DNM1P50'
p1626
(lp1627
I30567822
aI30571089
aS'-'
asS'DNM1P51'
p1628
(lp1629
I84398316
aI84411701
aS'-'
asS'GRAMD4P6'
p1630
(lp1631
I21383821
aI21384064
aS'+'
asS'MNS1'
p1632
(lp1633
I56428731
aI56465137
aS'-'
asS'ARNT2'
p1634
(lp1635
I80404351
aI80597937
aS'+'
asS'AP4E1'
p1636
(lp1637
I50908673
aI51005900
aS'+'
asS'TP53BP1'
p1638
(lp1639
I43407209
aI43510614
aS'-'
asS'RPL7P5'
p1640
(lp1641
I99551382
aI99552117
aS'-'
asS'AC009852.2'
p1642
(lp1643
I43267904
aI43268388
aS'-'
asS'CRABP1'
p1644
(lp1645
I78340324
aI78348230
aS'+'
asS'ARRDC4'
p1646
(lp1647
I97960698
aI97973838
aS'+'
asS'FMN1'
p1648
(lp1649
I32765545
aI33194733
aS'-'
asS'ARID3B'
p1650
(lp1651
I74541177
aI74598131
aS'+'
asS'AC140725.3'
p1652
(lp1653
I101937591
aI101938470
aS'-'
asS'AC140725.2'
p1654
(lp1655
I101903154
aI101903204
aS'+'
asS'C15orf59'
p1656
(lp1657
I73735431
aI73752747
aS'-'
asS'SERPINE4P'
p1658
(lp1659
I27340524
aI27340804
aS'+'
asS'OAZ2'
p1660
(lp1661
I64687573
aI64703281
aS'-'
asS'TMEM261P1'
p1662
(lp1663
I25169337
aI25169676
aS'-'
asS'BNIP3P5'
p1664
(lp1665
I42313687
aI42314386
aS'+'
asS'AC027088.4'
p1666
(lp1667
I69022230
aI69024176
aS'+'
asS'AC092868.1'
p1668
(lp1669
I59406963
aI59408154
aS'-'
asS'PCLAF'
p1670
(lp1671
I64365868
aI64387684
aS'-'
asS'AC092868.3'
p1672
(lp1673
I59401221
aI59402004
aS'-'
asS'AC009997.1'
p1674
(lp1675
I55746639
aI55746767
aS'+'
asS'NPM1P43'
p1676
(lp1677
I73161779
aI73162928
aS'-'
asS'NPM1P42'
p1678
(lp1679
I72899399
aI72900260
aS'-'
asS'TM2D3'
p1680
(lp1681
I101632977
aI101652384
aS'-'
asS'NPM1P47'
p1682
(lp1683
I62082450
aI62083305
aS'-'
asS'TMOD3'
p1684
(lp1685
I51829630
aI51915725
aS'+'
asS'TMOD2'
p1686
(lp1687
I51751561
aI51816368
aS'+'
asS'AC087477.6'
p1688
(lp1689
I96388214
aI96389056
aS'-'
asS'ISL2'
p1690
(lp1691
I76336724
aI76342476
aS'+'
asS'AC087477.1'
p1692
(lp1693
I96448154
aI96448493
aS'+'
asS'TPST2P1'
p1694
(lp1695
I36626674
aI36627775
aS'-'
asS'ZFAND6'
p1696
(lp1697
I80059568
aI80138393
aS'+'
asS'FAM30B'
p1698
(lp1699
I20012741
aI20014208
aS'+'
asS'AC105129.2'
p1700
(lp1701
I65301922
aI65302311
aS'+'
asS'AC105129.3'
p1702
(lp1703
I65458574
aI65459534
aS'+'
asS'GOLGA6L10'
p1704
(lp1705
I82339998
aI82349475
aS'-'
asS'AC105129.1'
p1706
(lp1707
I65475318
aI65475614
aS'-'
asS'TARSL2'
p1708
(lp1709
I101653598
aI101724604
aS'-'
asS'AC136896.1'
p1710
(lp1711
I27208089
aI27208635
aS'-'
asS'PLIN1'
p1712
(lp1713
I89664372
aI89679427
aS'-'
asS'RPS8P10'
p1714
(lp1715
I22152276
aI22152897
aS'-'
asS'SPINT1'
p1716
(lp1717
I40844018
aI40858207
aS'+'
asS'WDR72'
p1718
(lp1719
I53513741
aI53762878
aS'-'
asS'AC068867.1'
p1720
(lp1721
I35774801
aI35774950
aS'+'
asS'SPCS2P1'
p1722
(lp1723
I43131008
aI43131686
aS'+'
asS'AC100757.4'
p1724
(lp1725
I22480439
aI22484840
aS'-'
asS'RYR3'
p1726
(lp1727
I33310945
aI33866103
aS'+'
asS'BMS1P16'
p1728
(lp1729
I21160305
aI21167357
aS'+'
asS'AC011939.1'
p1730
(lp1731
I65771176
aI65772139
aS'-'
asS'NTRK3'
p1732
(lp1733
I87859751
aI88256747
aS'-'
asS'NIPA1'
p1734
(lp1735
I22773063
aI22829789
aS'+'
asS'AC025040.2'
p1736
(lp1737
I49794246
aI49796097
aS'+'
asS'CAPN3'
p1738
(lp1739
I42359500
aI42412317
aS'+'
asS'ZSCAN29'
p1740
(lp1741
I43358172
aI43370048
aS'-'
asS'ELMO2P1'
p1742
(lp1743
I23090724
aI23121324
aS'+'
asS'ENO1P2'
p1744
(lp1745
I92420860
aI92422735
aS'+'
asS'OR11H3P'
p1746
(lp1747
I22009548
aI22010529
aS'-'
asS'AC025678.1'
p1748
(lp1749
I34394594
aI34394931
aS'+'
asS'IREB2'
p1750
(lp1751
I78438189
aI78501456
aS'+'
asS'NDUFB10P1'
p1752
(lp1753
I57325472
aI57326447
aS'-'
asS'GOLGA8IP'
p1754
(lp1755
I22607540
aI22617756
aS'-'
asS'SLCO3A1'
p1756
(lp1757
I91853856
aI92172435
aS'+'
asS'SCAMP2'
p1758
(lp1759
I74843730
aI74873365
aS'-'
asS'NBEAP1'
p1760
(lp1761
I20657638
aI20688408
aS'-'
asS'KRT8P23'
p1762
(lp1763
I76979245
aI76980451
aS'-'
asS'KRT8P24'
p1764
(lp1765
I48971803
aI48973361
aS'+'
asS'ACTBP7'
p1766
(lp1767
I43989061
aI43990184
aS'-'
asS'FSIP1'
p1768
(lp1769
I39600031
aI39782830
aS'-'
asS'TSPAN3'
p1770
(lp1771
I77046332
aI77083984
aS'-'
asS'CSNK1G1'
p1772
(lp1773
I64165517
aI64356259
aS'-'
asS'OR4F13P'
p1774
(lp1775
I101842119
aI101850324
aS'+'
asS'CT62'
p1776
(lp1777
I71110244
aI71115494
aS'-'
asS'SNAPC5'
p1778
(lp1779
I66490135
aI66497750
aS'-'
asS'ABHD2'
p1780
(lp1781
I89088150
aI89202360
aS'+'
asS'UBR1'
p1782
(lp1783
I42942897
aI43106101
aS'-'
asS'SEMA7A'
p1784
(lp1785
I74409289
aI74434467
aS'-'
asS'ACTG1P17'
p1786
(lp1787
I82725873
aI82738616
aS'-'
asS'ANP32AP1'
p1788
(lp1789
I35181799
aI35238197
aS'+'
asS'NPM1P5'
p1790
(lp1791
I92285841
aI92286678
aS'+'
asS'CSPG4'
p1792
(lp1793
I75674322
aI75712848
aS'-'
asS'SCAND2P'
p1794
(lp1795
I84631451
aI84647478
aS'+'
asS'GOLGA8T'
p1796
(lp1797
I30135149
aI30145567
aS'+'
asS'ISLR'
p1798
(lp1799
I74173671
aI74176872
aS'+'
asS'GOLGA8Q'
p1800
(lp1801
I30552078
aI30562501
aS'+'
asS'MEGF11'
p1802
(lp1803
I65895079
aI66253747
aS'-'
asS'GOLGA8S'
p1804
(lp1805
I23354748
aI23367231
aS'+'
asS'GOLGA8R'
p1806
(lp1807
I30403740
aI30414162
aS'-'
asS'GOLGA8M'
p1808
(lp1809
I28709267
aI28738384
aS'-'
asS'AC105036.2'
p1810
(lp1811
I75480661
aI75480836
aS'+'
asS'GOLGA8O'
p1812
(lp1813
I32445106
aI32455634
aS'-'
asS'PPIP5K1'
p1814
(lp1815
I43533462
aI43590253
aS'-'
asS'GOLGA8H'
p1816
(lp1817
I30604126
aI30614561
aS'+'
asS'GOLGA8K'
p1818
(lp1819
I32392782
aI32403195
aS'-'
asS'GOLGA8J'
p1820
(lp1821
I30083053
aI30093499
aS'+'
asS'AC100827.1'
p1822
(lp1823
I72638821
aI72640125
aS'+'
asS'AC092757.1'
p1824
(lp1825
I59049399
aI59050385
aS'-'
asS'GOLGA8G'
p1826
(lp1827
I28519611
aI28532971
aS'-'
asS'GOLGA8F'
p1828
(lp1829
I28378664
aI28392018
aS'+'
asS'GOLGA8A'
p1830
(lp1831
I34404970
aI34437466
aS'-'
asS'SAXO2'
p1832
(lp1833
I82262811
aI82284930
aS'+'
asS'GOLGA8B'
p1834
(lp1835
I34525282
aI34588503
aS'-'
asS'ZNF280D'
p1836
(lp1837
I56652811
aI56918571
aS'-'
asS'AC068831.4'
p1838
(lp1839
I91029888
aI91029996
aS'+'
asS'KATNBL1'
p1840
(lp1841
I34140674
aI34210079
aS'-'
asS'RPL4'
p1842
(lp1843
I66499323
aI66524532
aS'-'
asS'AC068831.5'
p1844
(lp1845
I91031712
aI91032435
aS'-'
asS'RBPMS2'
p1846
(lp1847
I64739898
aI64775587
aS'-'
asS'INO80'
p1848
(lp1849
I40978880
aI41116354
aS'-'
asS'AC100757.1'
p1850
(lp1851
I22371736
aI22373570
aS'+'
asS'ARPIN'
p1852
(lp1853
I89895006
aI89912956
aS'-'
asS'AC110588.1'
p1854
(lp1855
I96551381
aI96551517
aS'+'
asS'NOX5'
p1856
(lp1857
I68930525
aI69062743
aS'+'
asS'AC100757.2'
p1858
(lp1859
I22360639
aI22360918
aS'+'
asS'TUBBP8'
p1860
(lp1861
I29612570
aI29614274
aS'+'
asS'THAP10'
p1862
(lp1863
I70881342
aI70892785
aS'-'
asS'AC100757.3'
p1864
(lp1865
I22451209
aI22455154
aS'+'
asS'RPSAP55'
p1866
(lp1867
I52885595
aI52886470
aS'+'
asS'GOLGA8DP'
p1868
(lp1869
I22427634
aI22437902
aS'-'
asS'CHD2'
p1870
(lp1871
I92900320
aI93028005
aS'+'
asS'OR4F6'
p1872
(lp1873
I101805699
aI101806686
aS'+'
asS'LRRK1'
p1874
(lp1875
I100919215
aI101070112
aS'+'
asS'OR4F4'
p1876
(lp1877
I101922042
aI101923095
aS'-'
asS'BCAR1P1'
p1878
(lp1879
I20073699
aI20074334
aS'-'
asS'AC127502.3'
p1880
(lp1881
I30507377
aI30513698
aS'+'
asS'UBE3A'
p1882
(lp1883
I25333728
aI25439037
aS'-'
asS'HAUS2'
p1884
(lp1885
I42548810
aI42569994
aS'+'
asS'THBS1'
p1886
(lp1887
I39581093
aI39599466
aS'+'
asS'GRAMD2'
p1888
(lp1889
I72159807
aI72197785
aS'-'
asS'GOLGA8N'
p1890
(lp1891
I32593456
aI32607310
aS'+'
asS'EEF1A1P22'
p1892
(lp1893
I52937139
aI52938518
aS'-'
asS'NGRN'
p1894
(lp1895
I90265705
aI90278141
aS'+'
asS'UNC13C'
p1896
(lp1897
I54012904
aI54633414
aS'+'
asS'SRP14'
p1898
(lp1899
I40035739
aI40039188
aS'-'
asS'AC090695.1'
p1900
(lp1901
I100645434
aI100646655
aS'-'
asS'KRT18P47'
p1902
(lp1903
I88960070
aI88961046
aS'+'
asS'EXD1'
p1904
(lp1905
I41182725
aI41230697
aS'-'
asS'SH2D7'
p1906
(lp1907
I78077808
aI78104370
aS'+'
asS'ATP8B4'
p1908
(lp1909
I49858239
aI50119222
aS'-'
asS'RHOV'
p1910
(lp1911
I40872214
aI40874289
aS'-'
asS'GOLGA6D'
p1912
(lp1913
I75282835
aI75294475
aS'+'
asS'GOLGA6C'
p1914
(lp1915
I75258599
aI75270199
aS'+'
asS'GOLGA6B'
p1916
(lp1917
I72654738
aI72666394
aS'+'
asS'AC124312.1'
p1918
(lp1919
I24955034
aI25000276
aS'+'
asS'POLR2M'
p1920
(lp1921
I57706712
aI57782762
aS'+'
asS'ULK4P2'
p1922
(lp1923
I30572969
aI30600647
aS'+'
asS'TVP23BP1'
p1924
(lp1925
I26964917
aI26970385
aS'+'
asS'PAK6'
p1926
(lp1927
I40239091
aI40277486
aS'+'
asS'IVD'
p1928
(lp1929
I40407946
aI40435556
aS'+'
asS'AC013553.1'
p1930
(lp1931
I65105534
aI65105800
aS'+'
asS'FSD2'
p1932
(lp1933
I82755362
aI82806069
aS'-'
asS'TMEM62'
p1934
(lp1935
I43133524
aI43185146
aS'+'
asS'AC055855.1'
p1936
(lp1937
I66379337
aI66379915
aS'-'
asS'AC107954.1'
p1938
(lp1939
I88989519
aI88990245
aS'-'
asS'AC020891.4'
p1940
(lp1941
I51351100
aI51351192
aS'-'
asS'MTND3P12'
p1942
(lp1943
I58150635
aI58150962
aS'+'
asS'AC120045.2'
p1944
(lp1945
I30153933
aI30154110
aS'-'
asS'USP50'
p1946
(lp1947
I50500562
aI50546705
aS'-'
asS'MPI'
p1948
(lp1949
I74890007
aI74902219
aS'+'
asS'SLC51B'
p1950
(lp1951
I65045370
aI65053396
aS'+'
asS'AC013553.2'
p1952
(lp1953
I65026088
aI65026676
aS'+'
asS'OR4M2'
p1954
(lp1955
I22080527
aI22081659
aS'+'
asS'AC135068.9'
p1956
(lp1957
I21735506
aI21735945
aS'-'
asS'BTBD1'
p1958
(lp1959
I83016422
aI83067354
aS'-'
asS'LRRC57'
p1960
(lp1961
I42537820
aI42548802
aS'-'
asS'EHD4'
p1962
(lp1963
I41895939
aI41972578
aS'-'
asS'AC092079.1'
p1964
(lp1965
I59871511
aI59873495
aS'-'
asS'TYRO3P'
p1966
(lp1967
I76258986
aI76261690
aS'-'
asS'ACAN'
p1968
(lp1969
I88803443
aI88875354
aS'+'
asS'AC012414.2'
p1970
(lp1971
I20826454
aI20826640
aS'-'
asS'CASC4'
p1972
(lp1973
I44288731
aI44415758
aS'+'
asS'SNX1'
p1974
(lp1975
I64096026
aI64146090
aS'+'
asS'AC012414.6'
p1976
(lp1977
I20890206
aI20890606
aS'-'
asS'AC104759.1'
p1978
(lp1979
I31453201
aI31454139
aS'-'
asS'OR11K1P'
p1980
(lp1981
I22030931
aI22031834
aS'-'
asS'AC135999.1'
p1982
(lp1983
I26851132
aI26851610
aS'-'
asS'RCCD1'
p1984
(lp1985
I90954870
aI90963125
aS'+'
asS'CSPG4P5'
p1986
(lp1987
I84401807
aI84408005
aS'-'
asS'AC021231.3'
p1988
(lp1989
I35081144
aI35081513
aS'+'
asS'AC021231.2'
p1990
(lp1991
I35092481
aI35093210
aS'+'
asS'AC009660.1'
p1992
(lp1993
I73483196
aI73483943
aS'-'
asS'ZNF444P1'
p1994
(lp1995
I58865006
aI58865303
aS'+'
asS'RAB8B'
p1996
(lp1997
I63189469
aI63267782
aS'+'
asS'SCAPER'
p1998
(lp1999
I76347904
aI76905335
aS'-'
asS'UBE2Q2P6'
p2000
(lp2001
I82445733
aI82454837
aS'+'
asS'TMED3'
p2002
(lp2003
I79311145
aI79427432
aS'+'
asS'AC026951.2'
p2004
(lp2005
I31787494
aI31787734
aS'+'
asS'AC026951.1'
p2006
(lp2007
I31765743
aI31768201
aS'-'
asS'UBE2Q2P2'
p2008
(lp2009
I82355142
aI82414738
aS'+'
asS'NCAPGP2'
p2010
(lp2011
I30005205
aI30006430
aS'+'
asS'AC027237.1'
p2012
(lp2013
I69434466
aI69435120
aS'-'
asS'DPPA5P2'
p2014
(lp2015
I45566776
aI45567074
aS'+'
asS'UBE2Q2P8'
p2016
(lp2017
I84255913
aI84256014
aS'+'
asS'LYSMD4'
p2018
(lp2019
I99715701
aI99733444
aS'-'
asS'MAPK6'
p2020
(lp2021
I51952106
aI52046065
aS'+'
asS'KNL1'
p2022
(lp2023
I40594020
aI40664342
aS'+'
asS'ODF3L1'
p2024
(lp2025
I75723977
aI75727688
aS'+'
asS'PML'
p2026
(lp2027
I73994729
aI74047812
aS'+'
asS'PDCD7'
p2028
(lp2029
I65117379
aI65133836
aS'-'
asS'DIS3L'
p2030
(lp2031
I66293217
aI66333898
aS'+'
asS'AC127381.3'
p2032
(lp2033
I19955300
aI19955602
aS'-'
asS'AC044860.2'
p2034
(lp2035
I85178628
aI85178806
aS'-'
asS'AC044860.3'
p2036
(lp2037
I85272527
aI85272974
aS'+'
asS'GABPB1'
p2038
(lp2039
I50275392
aI50355408
aS'-'
asS'BLOC1S6'
p2040
(lp2041
I45592124
aI45615999
aS'+'
asS'PYGO1'
p2042
(lp2043
I55538890
aI55588947
aS'-'
asS'IGHD4OR15-4B'
p2044
(lp2045
I21011451
aI21011469
aS'-'
asS'MTHFS'
p2046
(lp2047
I79844976
aI79897379
aS'-'
asS'PGPEP1L'
p2048
(lp2049
I98968230
aI99007795
aS'-'
asS'SNUPN'
p2050
(lp2051
I75598083
aI75625815
aS'-'
asS'PAQR5'
p2052
(lp2053
I69298947
aI69407780
aS'+'
asS'ANKRD34C'
p2054
(lp2055
I79293285
aI79298235
aS'+'
asS'CHRNA5'
p2056
(lp2057
I78565520
aI78595269
aS'+'
asS'CHRNA7'
p2058
(lp2059
I31923438
aI32159643
aS'+'
asS'C15orf48'
p2060
(lp2061
I45430579
aI45448761
aS'+'
asS'PRTG'
p2062
(lp2063
I55611546
aI55742979
aS'-'
asS'CHRNA3'
p2064
(lp2065
I78593052
aI78621295
aS'-'
asS'HMGB1P33'
p2066
(lp2067
I56323193
aI56323719
aS'+'
asS'C15orf40'
p2068
(lp2069
I82988963
aI83011607
aS'-'
asS'C15orf41'
p2070
(lp2071
I36579611
aI36810223
aS'+'
asS'AC091046.1'
p2072
(lp2073
I58686411
aI58686617
aS'+'
asS'FAM30C'
p2074
(lp2075
I21019388
aI21020851
aS'+'
asS'CEP152'
p2076
(lp2077
I48737935
aI48811141
aS'-'
asS'AC013489.2'
p2078
(lp2079
I88568287
aI88568562
aS'+'
asS'RASGRF1'
p2080
(lp2081
I78959947
aI79090773
aS'-'
asS'VPS39'
p2082
(lp2083
I42158701
aI42208316
aS'-'
asS'OR11J5P'
p2084
(lp2085
I20969282
aI20970215
aS'-'
asS'AC051619.2'
p2086
(lp2087
I45215547
aI45215943
aS'+'
asS'AC051619.3'
p2088
(lp2089
I45330209
aI45332634
aS'-'
asS'STOML1'
p2090
(lp2091
I73978923
aI73992348
aS'-'
asS'AC087385.2'
p2092
(lp2093
I60404463
aI60404960
aS'+'
asS'PIAS1'
p2094
(lp2095
I68054179
aI68193846
aS'+'
asS'ARHGAP11A'
p2096
(lp2097
I32615490
aI32639949
aS'+'
asS'ARHGAP11B'
p2098
(lp2099
I30658717
aI30772993
aS'+'
asS'ISG20'
p2100
(lp2101
I88636153
aI88655621
aS'+'
asS'AC073941.2'
p2102
(lp2103
I46827526
aI46827958
aS'+'
asS'CLPX'
p2104
(lp2105
I65148219
aI65185342
aS'-'
asS'DNM1P33'
p2106
(lp2107
I74062780
aI74063785
aS'+'
asS'AC055876.2'
p2108
(lp2109
I28679405
aI28682252
aS'-'
asS'RPS17'
p2110
(lp2111
I82536753
aI82540564
aS'-'
asS'RASL12'
p2112
(lp2113
I65054777
aI65076690
aS'-'
asS'MAP2K5'
p2114
(lp2115
I67542709
aI67807123
aS'+'
asS'AC021818.2'
p2116
(lp2117
I69803316
aI69804046
aS'-'
asS'ACTG1P15'
p2118
(lp2119
I34373541
aI34374603
aS'-'
asS'CKMT1A'
p2120
(lp2121
I43692886
aI43699222
aS'+'
asS'CKMT1B'
p2122
(lp2123
I43593054
aI43599406
aS'+'
asS'ADAM10'
p2124
(lp2125
I58588807
aI58749978
aS'-'
asS'HERC2P2'
p2126
(lp2127
I22495570
aI22579813
aS'+'
asS'AC105137.1'
p2128
(lp2129
I75388267
aI75388828
aS'+'
asS'EEF1B2P1'
p2130
(lp2131
I52505191
aI52505862
aS'+'
asS'SPRED1'
p2132
(lp2133
I38252326
aI38357249
aS'+'
asS'IDH3A'
p2134
(lp2135
I78131498
aI78157579
aS'+'
asS'AC090825.2'
p2136
(lp2137
I99791127
aI99792847
aS'+'
asS'BCL2L10'
p2138
(lp2139
I52109263
aI52112775
aS'-'
asS'AQR'
p2140
(lp2141
I34851782
aI34969839
aS'-'
asS'AC183088.2'
p2142
(lp2143
I21543038
aI21543920
aS'-'
asS'HSP90B2P'
p2144
(lp2145
I99257632
aI99260015
aS'+'
asS'OR4N3P'
p2146
(lp2147
I22125618
aI22126435
aS'+'
asS'PGAM1P12'
p2148
(lp2149
I96441566
aI96442313
aS'-'
asS'WHAMM'
p2150
(lp2151
I82809628
aI82836108
aS'+'
asS'FAM214A'
p2152
(lp2153
I52611625
aI52709817
aS'-'
asS'DISP2'
p2154
(lp2155
I40358235
aI40378639
aS'+'
asS'DAPK2'
p2156
(lp2157
I63907923
aI64046322
aS'-'
asS'VPS13C'
p2158
(lp2159
I61852389
aI62060473
aS'-'
asS'SIN3A'
p2160
(lp2161
I75370933
aI75455783
aS'-'
asS'ULK3'
p2162
(lp2163
I74836118
aI74843346
aS'-'
asS'FAM149B1P1'
p2164
(lp2165
I96756987
aI96758596
aS'+'
asS'RMDN3'
p2166
(lp2167
I40735884
aI40755851
aS'-'
asS'HNRNPA1P62'
p2168
(lp2169
I99284625
aI99285576
aS'-'
asS'DNM1P32'
p2170
(lp2171
I32436503
aI32439767
aS'+'
asS'PDIA3'
p2172
(lp2173
I43746392
aI43773279
aS'+'
asS'AC134981.1'
p2174
(lp2175
I21752278
aI21752710
aS'-'
asS'AC103975.1'
p2176
(lp2177
I78863247
aI78863729
aS'-'
asS'CNOT6LP1'
p2178
(lp2179
I56005715
aI56007176
aS'-'
asS'KIAA1024'
p2180
(lp2181
I79432516
aI79472290
aS'+'
asS'SNRPN'
p2182
(lp2183
I24823647
aI24978582
aS'+'
asS'RTF1'
p2184
(lp2185
I41417104
aI41483563
aS'+'
asS'NR2E3'
p2186
(lp2187
I71792638
aI71818259
aS'+'
asS'ANKRD63'
p2188
(lp2189
I40281444
aI40282586
aS'-'
asS'BCAR1P2'
p2190
(lp2191
I21080812
aI21081447
aS'-'
asS'CSNK1A1P1'
p2192
(lp2193
I36798596
aI36818459
aS'-'
asS'AC135626.1'
p2194
(lp2195
I94273496
aI94274005
aS'+'
asS'AC087639.1'
p2196
(lp2197
I68833830
aI68834749
aS'+'
asS'ST20-MTHFS'
p2198
(lp2199
I79845195
aI79923744
aS'-'
asS'AC091046.2'
p2200
(lp2201
I58732188
aI58733149
aS'+'
asS'AC091046.3'
p2202
(lp2203
I58691106
aI58693125
aS'-'
asS'RHCG'
p2204
(lp2205
I89471407
aI89496613
aS'-'
asS'AC011276.1'
p2206
(lp2207
I66446455
aI66446777
aS'-'
asS'AC015712.3'
p2208
(lp2209
I100846604
aI100846767
aS'-'
asS'UNC45A'
p2210
(lp2211
I90930180
aI90954093
aS'+'
asS'BBS4'
p2212
(lp2213
I72686179
aI72738475
aS'+'
asS'ANKDD1A'
p2214
(lp2215
I64911902
aI64958700
aS'+'
asS'PIF1'
p2216
(lp2217
I64815632
aI64825668
aS'-'
asS'SPATA8'
p2218
(lp2219
I96783389
aI96785615
aS'+'
asS'FSCN1P1'
p2220
(lp2221
I34494420
aI34495900
aS'+'
asS'AC027176.1'
p2222
(lp2223
I89936492
aI89937005
aS'+'
asS'AC027176.2'
p2224
(lp2225
I89876540
aI89877285
aS'+'
asS'DTWD1'
p2226
(lp2227
I49621099
aI49656232
aS'+'
as.