(dp1
S'HIF3A'
p2
(lp3
I46297046
aI46343433
aS'+'
asS'ELANE'
p4
(lp5
I851014
aI856247
aS'+'
asS'KHSRP'
p6
(lp7
I6413348
aI6424794
aS'-'
asS'OR7H1P'
p8
(lp9
I9278448
aI9279369
aS'-'
asS'COX6CP7'
p10
(lp11
I49502432
aI49502639
aS'-'
asS'INSL3'
p12
(lp13
I17816514
aI17821574
aS'-'
asS'ZNF709'
p14
(lp15
I12465609
aI12513833
aS'-'
asS'ZNF708'
p16
(lp17
I21291160
aI21329410
aS'-'
asS'ZNF878'
p18
(lp19
I12043805
aI12052939
aS'-'
asS'ZNF701'
p20
(lp21
I52555822
aI52574130
aS'+'
asS'ZNF700'
p22
(lp23
I11925068
aI11950773
aS'+'
asS'BNIP3P40'
p24
(lp25
I24098425
aI24098980
aS'-'
asS'IFNL4P1'
p26
(lp27
I39264382
aI39265817
aS'+'
asS'ZSWIM4'
p28
(lp29
I13795460
aI13832230
aS'+'
asS'CBLC'
p30
(lp31
I44777869
aI44800634
aS'+'
asS'DNASE2'
p32
(lp33
I12875211
aI12881468
aS'-'
asS'ZNF45'
p34
(lp35
I43912629
aI43935259
aS'-'
asS'ZNF44'
p36
(lp37
I12224686
aI12294822
aS'-'
asS'ZNF43'
p38
(lp39
I21804949
aI21852068
aS'-'
asS'AC011455.3'
p40
(lp41
I38915404
aI38949855
aS'-'
asS'CRB3'
p42
(lp43
I6463777
aI6467221
aS'+'
asS'CEP89'
p44
(lp45
I32875925
aI32971963
aS'-'
asS'OPA3'
p46
(lp47
I45527427
aI45584842
aS'-'
asS'ZNF677'
p48
(lp49
I53235381
aI53254858
aS'-'
asS'ZNF676'
p50
(lp51
I22179091
aI22196951
aS'-'
asS'ZNF675'
p52
(lp53
I23525631
aI23687197
aS'-'
asS'ZNF671'
p54
(lp55
I57719751
aI57727624
aS'-'
asS'TRAPPC5'
p56
(lp57
I7680843
aI7687703
aS'+'
asS'RPS15AP36'
p58
(lp59
I58216180
aI58216561
aS'+'
asS'MAG'
p60
(lp61
I35292125
aI35313804
aS'+'
asS'SPPL2B'
p62
(lp63
I2328630
aI2354806
aS'+'
asS'AC010624.4'
p64
(lp65
I50058882
aI50060232
aS'-'
asS'MFSD12'
p66
(lp67
I3547291
aI3573851
aS'-'
asS'LILRB5'
p68
(lp69
I54249431
aI54257301
aS'-'
asS'LILRB4'
p70
(lp71
I54643915
aI54663955
aS'+'
asS'LILRB3'
p72
(lp73
I54216278
aI54223506
aS'-'
asS'LILRB2'
p74
(lp75
I54273822
aI54281178
aS'-'
asS'LILRB1'
p76
(lp77
I54617158
aI54637528
aS'+'
asS'KIR2DS4'
p78
(lp79
I54832676
aI54848569
aS'+'
asS'FBXL12'
p80
(lp81
I9810861
aI9827816
aS'-'
asS'LSR'
p82
(lp83
I35248392
aI35267962
aS'+'
asS'VN1R83P'
p84
(lp85
I21289554
aI21289998
aS'-'
asS'PRSS57'
p86
(lp87
I685546
aI695498
aS'-'
asS'CHST8'
p88
(lp89
I33621955
aI33773508
aS'+'
asS'EPS15L1'
p90
(lp91
I16355239
aI16472012
aS'-'
asS'TMEM190'
p92
(lp93
I55376836
aI55378244
aS'+'
asS'AC006504.4'
p94
(lp95
I27892495
aI27898927
aS'-'
asS'ZNF296'
p96
(lp97
I45071500
aI45076588
aS'-'
asS'LEUTX'
p98
(lp99
I39776595
aI39786135
aS'+'
asS'LIN37'
p100
(lp101
I35748361
aI35754519
aS'+'
asS'AC005524.1'
p102
(lp103
I28683071
aI28724989
aS'-'
asS'AP3D1'
p104
(lp105
I2100988
aI2151557
aS'-'
asS'ERICH4'
p106
(lp107
I41443158
aI41444765
aS'+'
asS'FAM71E1'
p108
(lp109
I50466787
aI50476753
aS'-'
asS'FAM71E2'
p110
(lp111
I55354908
aI55363260
aS'-'
asS'C19orf18'
p112
(lp113
I57958437
aI57974534
aS'-'
asS'C19orf12'
p114
(lp115
I29698886
aI29715789
aS'-'
asS'AC092329.2'
p116
(lp117
I23204010
aI23204556
aS'+'
asS'CCDC114'
p118
(lp119
I48296462
aI48320385
aS'-'
asS'FTLP5'
p120
(lp121
I3870991
aI3872107
aS'+'
asS'ATP1A3'
p122
(lp123
I41966582
aI41994276
aS'-'
asS'CLPTM1'
p124
(lp125
I44954591
aI44993196
aS'+'
asS'WTIP'
p126
(lp127
I34481638
aI34512304
aS'+'
asS'CYP4F36P'
p128
(lp129
I15871667
aI15871852
aS'-'
asS'SPHK2'
p130
(lp131
I48619291
aI48630406
aS'+'
asS'RPS26P55'
p132
(lp133
I34533427
aI34534084
aS'-'
asS'PGLYRP2'
p134
(lp135
I15476235
aI15498956
aS'-'
asS'PGLYRP1'
p136
(lp137
I46019153
aI46023065
aS'-'
asS'FIZ1'
p138
(lp139
I55593360
aI55601970
aS'-'
asS'ZNF780A'
p140
(lp141
I40069152
aI40090888
aS'-'
asS'ZNF780B'
p142
(lp143
I40028260
aI40056209
aS'-'
asS'OR7A3P'
p144
(lp145
I14903232
aI14904138
aS'-'
asS'PIN1'
p146
(lp147
I9835323
aI9849682
aS'+'
asS'RDH8'
p148
(lp149
I10013249
aI10022279
aS'+'
asS'CLIP3'
p150
(lp151
I36014660
aI36032893
aS'-'
asS'ARHGEF18'
p152
(lp153
I7395113
aI7472477
aS'+'
asS'TIMM50'
p154
(lp155
I39480412
aI39490888
aS'+'
asS'PCGF7P'
p156
(lp157
I22137931
aI22138981
aS'+'
asS'KISS1R'
p158
(lp159
I917342
aI921015
aS'+'
asS'CA11'
p160
(lp161
I48637942
aI48646312
aS'-'
asS'ATG4D'
p162
(lp163
I10543918
aI10553418
aS'+'
asS'CHCHD2P3'
p164
(lp165
I34126973
aI34127423
aS'+'
asS'LYPD3'
p166
(lp167
I43460787
aI43465660
aS'-'
asS'THAP8'
p168
(lp169
I36034985
aI36054762
aS'-'
asS'AC005262.1'
p170
(lp171
I3130717
aI3131398
aS'+'
asS'CALR'
p172
(lp173
I12938607
aI12944489
aS'+'
asS'AC063977.2'
p174
(lp175
I51137970
aI51138634
aS'+'
asS'HAMP'
p176
(lp177
I35280716
aI35285143
aS'+'
asS'SPRED3'
p178
(lp179
I38390200
aI38399587
aS'+'
asS'CYP4F8'
p180
(lp181
I15615221
aI15629623
aS'+'
asS'APOC4-APOC2'
p182
(lp183
I44942238
aI44949565
aS'+'
asS'AC002984.1'
p184
(lp185
I36173406
aI36173853
aS'-'
asS'CYP4F2'
p186
(lp187
I15878023
aI15898120
aS'-'
asS'CYP4F3'
p188
(lp189
I15640900
aI15662825
aS'+'
asS'AC245884.5'
p190
(lp191
I54294049
aI54294366
aS'-'
asS'KIR3DP1'
p192
(lp193
I54786355
aI54790318
aS'+'
asS'AC245884.7'
p194
(lp195
I54298105
aI54298814
aS'-'
asS'AC245884.6'
p196
(lp197
I54328272
aI54331434
aS'-'
asS'AC024592.3'
p198
(lp199
I5866171
aI5903787
aS'-'
asS'SIX5'
p200
(lp201
I45764785
aI45769226
aS'-'
asS'ATP5SL'
p202
(lp203
I41431339
aI41439936
aS'-'
asS'FKBP1AP1'
p204
(lp205
I57826461
aI57826778
aS'-'
asS'CEACAMP8'
p206
(lp207
I43035869
aI43041248
aS'-'
asS'CEACAMP9'
p208
(lp209
I43096456
aI43097360
aS'-'
asS'ZNF587B'
p210
(lp211
I57819741
aI57842119
aS'+'
asS'CEACAMP2'
p212
(lp213
I42560433
aI42561750
aS'-'
asS'RELB'
p214
(lp215
I45001430
aI45038194
aS'+'
asS'CEACAMP1'
p216
(lp217
I42620212
aI42633034
aS'-'
asS'CEACAMP6'
p218
(lp219
I42781206
aI42786595
aS'-'
asS'PRX'
p220
(lp221
I40393768
aI40413366
aS'-'
asS'HMG20B'
p222
(lp223
I3572938
aI3579088
aS'+'
asS'CEACAMP5'
p224
(lp225
I42654200
aI42669076
aS'+'
asS'MRPL34'
p226
(lp227
I17292609
aI17306655
aS'+'
asS'CLEC17A'
p228
(lp229
I14583084
aI14611157
aS'+'
asS'KLK1'
p230
(lp231
I50819148
aI50823787
aS'-'
asS'KLK2'
p232
(lp233
I50861568
aI50876639
aS'+'
asS'KLK3'
p234
(lp235
I50854915
aI50860764
aS'+'
asS'KLK4'
p236
(lp237
I50906352
aI50910738
aS'-'
asS'KLK5'
p238
(lp239
I50943303
aI50953093
aS'-'
asS'KLK6'
p240
(lp241
I50958631
aI50969673
aS'-'
asS'KLK7'
p242
(lp243
I50976482
aI50984099
aS'-'
asS'KLK8'
p244
(lp245
I50996008
aI51002711
aS'-'
asS'KLK9'
p246
(lp247
I51003111
aI51009634
aS'-'
asS'RFPL4AL1'
p248
(lp249
I55769141
aI55773179
aS'+'
asS'PRRG2'
p250
(lp251
I49581326
aI49591015
aS'+'
asS'AC011530.1'
p252
(lp253
I45779437
aI45785973
aS'-'
asS'AC092329.3'
p254
(lp255
I23222755
aI23274221
aS'-'
asS'ZNF841'
p256
(lp257
I52064466
aI52095765
aS'-'
asS'ZNF844'
p258
(lp259
I12064699
aI12081565
aS'+'
asS'RFX1'
p260
(lp261
I13961538
aI14006285
aS'-'
asS'ZNF846'
p262
(lp263
I9759873
aI9793097
aS'-'
asS'PAK4'
p264
(lp265
I39125834
aI39182816
aS'+'
asS'DBP'
p266
(lp267
I48630030
aI48637438
aS'-'
asS'UQCRFS1'
p268
(lp269
I29205321
aI29213541
aS'-'
asS'AC011500.2'
p270
(lp271
I39553034
aI39555356
aS'+'
asS'AC011500.1'
p272
(lp273
I39584042
aI39586489
aS'+'
asS'ZNF57'
p274
(lp275
I2900898
aI2918476
aS'+'
asS'AC011506.1'
p276
(lp277
I56217168
aI56217777
aS'-'
asS'AC011460.1'
p278
(lp279
I51914675
aI51917703
aS'-'
asS'ZNF599'
p280
(lp281
I34758076
aI34773215
aS'-'
asS'ZNF600'
p282
(lp283
I52764195
aI52786763
aS'-'
asS'AC011462.1'
p284
(lp285
I41350853
aI41410853
aS'+'
asS'ZNF606'
p286
(lp287
I57977053
aI58003349
aS'-'
asS'ZNF607'
p288
(lp289
I37696363
aI37719790
aS'-'
asS'ZFR2'
p290
(lp291
I3804024
aI3869028
aS'-'
asS'AC006486.1'
p292
(lp293
I42234583
aI42255132
aS'-'
asS'AC245036.4'
p294
(lp295
I54607870
aI54608376
aS'+'
asS'KXD1'
p296
(lp297
I18557762
aI18569387
aS'+'
asS'TCF3'
p298
(lp299
I1609293
aI1652591
aS'-'
asS'AC123912.5'
p300
(lp301
I21634833
aI21635175
aS'-'
asS'AC245036.1'
p302
(lp303
I54521723
aI54522031
aS'+'
asS'AC123912.6'
p304
(lp305
I21592727
aI21593041
aS'+'
asS'ZNF776'
p306
(lp307
I57746796
aI57758159
aS'+'
asS'EPS8L1'
p308
(lp309
I55072020
aI55087919
aS'+'
asS'PHLDB3'
p310
(lp311
I43475103
aI43504935
aS'-'
asS'PPP5C'
p312
(lp313
I46347101
aI46392981
aS'+'
asS'AC123912.3'
p314
(lp315
I21637974
aI21656300
aS'+'
asS'MEF2B'
p316
(lp317
I19145593
aI19170289
aS'-'
asS'SHISA7'
p318
(lp319
I55428740
aI55442863
aS'-'
asS'ZNF114'
p320
(lp321
I48270102
aI48287608
aS'+'
asS'ZNF112'
p322
(lp323
I44329708
aI44367205
aS'-'
asS'TMC4'
p324
(lp325
I54160165
aI54173250
aS'-'
asS'EPHX3'
p326
(lp327
I15226925
aI15233435
aS'-'
asS'ZNF333'
p328
(lp329
I14690069
aI14733746
aS'+'
asS'ZNF331'
p330
(lp331
I53521024
aI53580269
aS'+'
asS'AC010323.2'
p332
(lp333
I8346517
aI8347687
aS'+'
asS'AC010323.1'
p334
(lp335
I8308283
aI8321379
aS'-'
asS'ZNF91'
p336
(lp337
I23308903
aI23395471
aS'-'
asS'NUP62'
p338
(lp339
I49906825
aI49929744
aS'-'
asS'TPM4'
p340
(lp341
I16067507
aI16101790
aS'+'
asS'RFPL4AP1'
p342
(lp343
I55777553
aI55778900
aS'+'
asS'FBXW9'
p344
(lp345
I12688053
aI12696619
aS'-'
asS'BOLA3P2'
p346
(lp347
I9019344
aI9019984
aS'+'
asS'VN1R91P'
p348
(lp349
I23290849
aI23291017
aS'+'
asS'KIAA1683'
p350
(lp351
I18257097
aI18274509
aS'-'
asS'MIDN'
p352
(lp353
I1248553
aI1259140
aS'+'
asS'ETFB'
p354
(lp355
I51345171
aI51366418
aS'-'
asS'NTF4'
p356
(lp357
I49061568
aI49065054
aS'-'
asS'AC243967.1'
p358
(lp359
I41708612
aI41761282
aS'+'
asS'TPM3P9'
p360
(lp361
I53431984
aI53444670
aS'+'
asS'TPM3P6'
p362
(lp363
I53479350
aI53480091
aS'+'
asS'TMEM147'
p364
(lp365
I35545595
aI35547526
aS'+'
asS'TMEM145'
p366
(lp367
I42313336
aI42325062
aS'+'
asS'TMEM143'
p368
(lp369
I48332356
aI48364237
aS'-'
asS'HNRNPDLP4'
p370
(lp371
I58049046
aI58049346
aS'-'
asS'TJP3'
p372
(lp373
I3708109
aI3750812
aS'+'
asS'PPAN'
p374
(lp375
I10106289
aI10111294
aS'+'
asS'AC003005.1'
p376
(lp377
I57487718
aI57505360
aS'+'
asS'BABAM1'
p378
(lp379
I17267376
aI17281249
aS'+'
asS'F2RL3'
p380
(lp381
I16888860
aI16892606
aS'+'
asS'FAM32A'
p382
(lp383
I16185418
aI16192046
aS'+'
asS'XAB2'
p384
(lp385
I7619525
aI7629565
aS'-'
asS'PRDX2'
p386
(lp387
I12796820
aI12801859
aS'-'
asS'C19orf24'
p388
(lp389
I1275438
aI1279249
aS'+'
asS'C19orf25'
p390
(lp391
I1461143
aI1479201
aS'-'
asS'SMARCA4'
p392
(lp393
I10961001
aI11062282
aS'+'
asS'SYCN'
p394
(lp395
I39202831
aI39204266
aS'-'
asS'ZNF8'
p396
(lp397
I58278951
aI58302805
aS'+'
asS'ZNF559-ZNF177'
p398
(lp399
I9324341
aI9382617
aS'+'
asS'SULT2A1'
p400
(lp401
I47870466
aI47886397
aS'-'
asS'AC119396.1'
p402
(lp403
I7348943
aI7383385
aS'+'
asS'AP2A1'
p404
(lp405
I49766968
aI49807112
aS'+'
asS'VASP'
p406
(lp407
I45507416
aI45526983
aS'+'
asS'CYTH2'
p408
(lp409
I48469032
aI48482314
aS'+'
asS'AC074141.1'
p410
(lp411
I51860242
aI51863236
aS'-'
asS'IGLON5'
p412
(lp413
I51311848
aI51330354
aS'+'
asS'DEDD2'
p414
(lp415
I42198613
aI42220123
aS'-'
asS'AC012314.7'
p416
(lp417
I54031412
aI54031504
aS'+'
asS'BNIP3P19'
p418
(lp419
I20323992
aI20324568
aS'-'
asS'BNIP3P18'
p420
(lp421
I20267817
aI20268391
aS'+'
asS'ARHGAP33'
p422
(lp423
I35775515
aI35788822
aS'+'
asS'ARHGAP35'
p424
(lp425
I46918676
aI47005077
aS'+'
asS'BCKDHA'
p426
(lp427
I41397460
aI41425005
aS'+'
asS'BNIP3P10'
p428
(lp429
I19870723
aI19871299
aS'-'
asS'BNIP3P13'
p430
(lp431
I20062755
aI20063320
aS'+'
asS'BNIP3P15'
p432
(lp433
I20136933
aI20137233
aS'+'
asS'TIMM44'
p434
(lp435
I7926740
aI7943920
aS'-'
asS'BNIP3P17'
p436
(lp437
I20221869
aI20222463
aS'+'
asS'BNIP3P16'
p438
(lp439
I20175013
aI20177063
aS'-'
asS'CKM'
p440
(lp441
I45306414
aI45322977
aS'-'
asS'KMT5C'
p442
(lp443
I55339853
aI55348120
aS'+'
asS'CD33'
p444
(lp445
I51225966
aI51243860
aS'+'
asS'MAMSTR'
p446
(lp447
I48712742
aI48719721
aS'-'
asS'CD37'
p448
(lp449
I49335171
aI49340602
aS'+'
asS'ZNF321P'
p450
(lp451
I52927135
aI52942601
aS'-'
asS'VN1R6P'
p452
(lp453
I53315137
aI53316043
aS'+'
asS'JOSD2'
p454
(lp455
I50505998
aI50511353
aS'-'
asS'CALM3'
p456
(lp457
I46601236
aI46610793
aS'+'
asS'CACNA1A'
p458
(lp459
I13206446
aI13506503
aS'-'
asS'DNMT1'
p460
(lp461
I10133346
aI10195135
aS'-'
asS'UPK1A'
p462
(lp463
I35666516
aI35678483
aS'+'
asS'WDR62'
p464
(lp465
I36054937
aI36105103
aS'+'
asS'A1BG'
p466
(lp467
I58346850
aI58353499
aS'-'
asS'FCAR'
p468
(lp469
I54874280
aI54890472
aS'+'
asS'TRIM28'
p470
(lp471
I58544469
aI58550716
aS'+'
asS'PNKP'
p472
(lp473
I49862271
aI49878351
aS'-'
asS'R3HDM4'
p474
(lp475
I896503
aI913245
aS'-'
asS'PRMT1'
p476
(lp477
I49675897
aI49688447
aS'+'
asS'BRD4'
p478
(lp479
I15252992
aI15332545
aS'-'
asS'OR7A2P'
p480
(lp481
I14863786
aI14864715
aS'-'
asS'HNRNPMP2'
p482
(lp483
I46809585
aI46810183
aS'+'
asS'RBM42'
p484
(lp485
I35629030
aI35637686
aS'+'
asS'FCER2'
p486
(lp487
I7688776
aI7702146
aS'-'
asS'RPL32P34'
p488
(lp489
I5277734
aI5278133
aS'+'
asS'MED26'
p490
(lp491
I16574919
aI16628206
aS'-'
asS'AKT2'
p492
(lp493
I40230317
aI40285395
aS'-'
asS'PIH1D1'
p494
(lp495
I49446369
aI49453494
aS'-'
asS'AES'
p496
(lp497
I3052910
aI3063107
aS'-'
asS'ZNF221'
p498
(lp499
I43951245
aI43967709
aS'+'
asS'CD209'
p500
(lp501
I7739994
aI7747534
aS'-'
asS'LAIR1'
p502
(lp503
I54353624
aI54370558
aS'-'
asS'ZNF850'
p504
(lp505
I36714383
aI36772825
aS'-'
asS'TDRD12'
p506
(lp507
I32719753
aI32821263
aS'+'
asS'ZSCAN1'
p508
(lp509
I58034066
aI58054631
aS'+'
asS'AC008507.3'
p510
(lp511
I29921182
aI29921653
aS'+'
asS'AC008507.1'
p512
(lp513
I30037423
aI30038156
aS'+'
asS'AC008507.4'
p514
(lp515
I30037285
aI30037411
aS'+'
asS'PPM1N'
p516
(lp517
I45488777
aI45502299
aS'+'
asS'MADCAM1'
p518
(lp519
I489176
aI505342
aS'+'
asS'ZFP30'
p520
(lp521
I37647813
aI37692337
aS'-'
asS'AC008521.2'
p522
(lp523
I33067175
aI33067433
aS'+'
asS'AC008521.1'
p524
(lp525
I33051515
aI33051701
aS'+'
asS'TSHZ3'
p526
(lp527
I31274945
aI31349547
aS'-'
asS'ZNF581'
p528
(lp529
I55635459
aI55645622
aS'+'
asS'ZNF580'
p530
(lp531
I55635016
aI55642818
aS'+'
asS'ZNF583'
p532
(lp533
I56404332
aI56427364
aS'+'
asS'ZNF582'
p534
(lp535
I56375846
aI56393478
aS'-'
asS'ZNF584'
p536
(lp537
I58401504
aI58417119
aS'+'
asS'ZNF587'
p538
(lp539
I57849857
aI57865112
aS'+'
asS'ZNF586'
p540
(lp541
I57769670
aI57819939
aS'+'
asS'PTH2'
p542
(lp543
I49422414
aI49423441
aS'-'
asS'ZNF611'
p544
(lp545
I52702813
aI52735054
aS'-'
asS'ZNF610'
p546
(lp547
I52336312
aI52367778
aS'+'
asS'ZNF613'
p548
(lp549
I51927220
aI51946623
aS'+'
asS'ZNF615'
p550
(lp551
I51991345
aI52008230
aS'-'
asS'ZNF614'
p552
(lp553
I52012765
aI52028349
aS'-'
asS'ZNF616'
p554
(lp555
I52113091
aI52139917
aS'-'
asS'NANOS3'
p556
(lp557
I13862063
aI13880755
aS'+'
asS'NANOS2'
p558
(lp559
I45913214
aI45914870
aS'-'
asS'NDUFA3P1'
p560
(lp561
I44297104
aI44297355
aS'+'
asS'MYDGF'
p562
(lp563
I4641374
aI4664906
aS'-'
asS'MBD3L1'
p564
(lp565
I8832398
aI8843319
aS'+'
asS'MBD3L2'
p566
(lp567
I7049321
aI7051735
aS'+'
asS'MBD3L3'
p568
(lp569
I7056209
aI7058640
aS'-'
asS'MBD3L4'
p570
(lp571
I7037748
aI7040179
aS'-'
asS'MBD3L5'
p572
(lp573
I7030578
aI7033011
aS'+'
asS'OR7D1P'
p574
(lp575
I9235144
aI9236076
aS'+'
asS'MYO1F'
p576
(lp577
I8520790
aI8577577
aS'-'
asS'CDC42EP3P1'
p578
(lp579
I23384530
aI23385293
aS'+'
asS'EVI5L'
p580
(lp581
I7830233
aI7864976
aS'+'
asS'ADAMTS10'
p582
(lp583
I8580727
aI8610700
aS'-'
asS'RPS5'
p584
(lp585
I58386400
aI58394806
aS'+'
asS'DHDH'
p586
(lp587
I48933682
aI48944969
aS'+'
asS'PRR13P5'
p588
(lp589
I39943239
aI39943680
aS'-'
asS'CYP2S1'
p590
(lp591
I41193049
aI41207539
aS'+'
asS'RPS9'
p592
(lp593
I54200858
aI54249003
aS'+'
asS'CD79A'
p594
(lp595
I41877120
aI41881372
aS'+'
asS'CNTD2'
p596
(lp597
I40222208
aI40226690
aS'-'
asS'GMFG'
p598
(lp599
I39328362
aI39342372
aS'-'
asS'AKAP8L'
p600
(lp601
I15380050
aI15419121
aS'-'
asS'ZNF285B'
p602
(lp603
I44467641
aI44473227
aS'+'
asS'TMEM205'
p604
(lp605
I11342873
aI11346518
aS'-'
asS'ERCC1'
p606
(lp607
I45407334
aI45478828
aS'-'
asS'C3'
p608
(lp609
I6677704
aI6720682
aS'-'
asS'ZNF101'
p610
(lp611
I19668854
aI19683506
aS'+'
asS'SLC6A16'
p612
(lp613
I49289638
aI49325225
aS'-'
asS'TSSK6'
p614
(lp615
I19512418
aI19515548
aS'-'
asS'ZNF324'
p616
(lp617
I58467056
aI58475436
aS'+'
asS'FBXO46'
p618
(lp619
I45710629
aI45730904
aS'-'
asS'GALP'
p620
(lp621
I56176020
aI56185775
aS'+'
asS'ZNF320'
p622
(lp623
I52863866
aI52897693
aS'-'
asS'ZNF329'
p624
(lp625
I58126335
aI58155110
aS'-'
asS'IGSF23'
p626
(lp627
I44613630
aI44636781
aS'+'
asS'LGALS7'
p628
(lp629
I38770971
aI38773492
aS'-'
asS'LGALS4'
p630
(lp631
I38801679
aI38813364
aS'-'
asS'CYP4F22'
p632
(lp633
I15508493
aI15552317
aS'+'
asS'AC008537.1'
p634
(lp635
I40801297
aI40898282
aS'+'
asS'RFPL4A'
p636
(lp637
I55759014
aI55763175
aS'+'
asS'OR1AB1P'
p638
(lp639
I16051929
aI16052689
aS'+'
asS'PLAUR'
p640
(lp641
I43646095
aI43670166
aS'-'
asS'LRRC25'
p642
(lp643
I18391144
aI18397617
aS'-'
asS'GCDH'
p644
(lp645
I12897380
aI12914207
aS'+'
asS'ZNF426'
p646
(lp647
I9523224
aI9538627
aS'-'
asS'LYPD4'
p648
(lp649
I41837074
aI41844697
aS'-'
asS'LYPD5'
p650
(lp651
I43798502
aI43827199
aS'-'
asS'RPL28'
p652
(lp653
I55385936
aI55403250
aS'+'
asS'ZNF861P'
p654
(lp655
I15821796
aI15823797
aS'-'
asS'AC007228.1'
p656
(lp657
I56613810
aI56613951
aS'+'
asS'MBD3L2B'
p658
(lp659
I7018969
aI7021450
aS'-'
asS'NIFKP6'
p660
(lp661
I51396755
aI51403526
aS'-'
asS'MPND'
p662
(lp663
I4343527
aI4360086
aS'+'
asS'ZNF420'
p664
(lp665
I37007857
aI37127442
aS'+'
asS'ZNF723'
p666
(lp667
I22832201
aI22859422
aS'+'
asS'C19orf35'
p668
(lp669
I2274622
aI2282176
aS'-'
asS'HPN'
p670
(lp671
I35040506
aI35066571
aS'+'
asS'C19orf33'
p672
(lp673
I38304161
aI38305009
aS'+'
asS'CATSPERD'
p674
(lp675
I5720677
aI5778734
aS'+'
asS'CATSPERG'
p676
(lp677
I38335775
aI38370943
aS'+'
asS'C19orf38'
p678
(lp679
I10836575
aI10869470
aS'+'
asS'ANKLE1'
p680
(lp681
I17281645
aI17287646
aS'+'
asS'RHPN2'
p682
(lp683
I32978593
aI33064888
aS'-'
asS'SRRM5'
p684
(lp685
I43596617
aI43614497
aS'+'
asS'OAZ1'
p686
(lp687
I2269509
aI2273488
aS'+'
asS'KLKP1'
p688
(lp689
I50882096
aI50896398
aS'-'
asS'VN1R96P'
p690
(lp691
I40121311
aI40122168
aS'-'
asS'KANK2'
p692
(lp693
I11164267
aI11197521
aS'-'
asS'KANK3'
p694
(lp695
I8322584
aI8343262
aS'-'
asS'RDH13'
p696
(lp697
I55044343
aI55069529
aS'-'
asS'RSPH6A'
p698
(lp699
I45795710
aI45815319
aS'-'
asS'FXYD7'
p700
(lp701
I35143250
aI35154301
aS'+'
asS'FXYD5'
p702
(lp703
I35154743
aI35169883
aS'+'
asS'FXYD3'
p704
(lp705
I35115879
aI35124324
aS'+'
asS'FXYD1'
p706
(lp707
I35138808
aI35143109
aS'+'
asS'KLK12'
p708
(lp709
I51029094
aI51035230
aS'-'
asS'KLK13'
p710
(lp711
I51056206
aI51065110
aS'-'
asS'KLK10'
p712
(lp713
I51012745
aI51020175
aS'-'
asS'KLK11'
p714
(lp715
I51022231
aI51028039
aS'-'
asS'KLK14'
p716
(lp717
I51077495
aI51084245
aS'-'
asS'KLK15'
p718
(lp719
I50825305
aI50837213
aS'-'
asS'AC011511.4'
p720
(lp721
I10315471
aI10320678
aS'-'
asS'AC011511.1'
p722
(lp723
I10305427
aI10316009
aS'-'
asS'PLIN4'
p724
(lp725
I4502192
aI4518465
aS'-'
asS'PLIN5'
p726
(lp727
I4522531
aI4535224
aS'-'
asS'PLIN3'
p728
(lp729
I4838341
aI4867768
aS'-'
asS'PLVAP'
p730
(lp731
I17351448
aI17377350
aS'-'
asS'AC011498.5'
p732
(lp733
I4528427
aI4540067
aS'-'
asS'VN1R78P'
p734
(lp735
I20583084
aI20583647
aS'-'
asS'AC011492.1'
p736
(lp737
I15515342
aI15516836
aS'-'
asS'AC011498.6'
p738
(lp739
I4621194
aI4622307
aS'+'
asS'ZSCAN22'
p740
(lp741
I58327019
aI58342332
aS'+'
asS'CYP2A13'
p742
(lp743
I41088472
aI41096195
aS'+'
asS'CD22'
p744
(lp745
I35329169
aI35347355
aS'+'
asS'IFI30'
p746
(lp747
I18173667
aI18178117
aS'+'
asS'ABHD8'
p748
(lp749
I17292131
aI17303473
aS'-'
asS'AC022137.2'
p750
(lp751
I53426019
aI53426499
aS'-'
asS'AC022137.1'
p752
(lp753
I53495887
aI53496037
aS'+'
asS'AC011498.1'
p754
(lp755
I4472287
aI4502211
aS'+'
asS'NUCB1'
p756
(lp757
I48900050
aI48923372
aS'+'
asS'URI1'
p758
(lp759
I29923644
aI30015695
aS'+'
asS'AC245748.1'
p760
(lp761
I44329695
aI44401608
aS'-'
asS'GPR4'
p762
(lp763
I45589764
aI45602208
aS'-'
asS'PSG8'
p764
(lp765
I42752727
aI42855691
aS'-'
asS'PSG9'
p766
(lp767
I43211791
aI43269530
aS'-'
asS'PSG6'
p768
(lp769
I42902086
aI42917882
aS'-'
asS'PSG7'
p770
(lp771
I42924140
aI42937173
aS'-'
asS'PSG4'
p772
(lp773
I43192702
aI43205774
aS'-'
asS'PSG5'
p774
(lp775
I43166256
aI43186536
aS'-'
asS'PSG2'
p776
(lp777
I43064211
aI43082668
aS'-'
asS'PSG3'
p778
(lp779
I42721642
aI42740569
aS'-'
asS'PSG1'
p780
(lp781
I42866466
aI42879710
aS'-'
asS'PTOV1'
p782
(lp783
I49850735
aI49860740
aS'+'
asS'USHBP1'
p784
(lp785
I17264107
aI17282786
aS'-'
asS'AC008626.2'
p786
(lp787
I22770375
aI22770622
aS'+'
asS'OR7E16P'
p788
(lp789
I9191286
aI9192170
aS'+'
asS'HCST'
p790
(lp791
I35902480
aI35904377
aS'+'
asS'AC008626.1'
p792
(lp793
I22770937
aI22771191
aS'+'
asS'AC008749.1'
p794
(lp795
I55707550
aI55707855
aS'+'
asS'AC006116.7'
p796
(lp797
I56377037
aI56377792
aS'-'
asS'PLEKHJ1'
p798
(lp799
I2230084
aI2236272
aS'-'
asS'ZNF585A'
p800
(lp801
I37106734
aI37172726
aS'-'
asS'EEF1A1P7'
p802
(lp803
I35382172
aI35384052
aS'+'
asS'ZNF585B'
p804
(lp805
I37181579
aI37210549
aS'-'
asS'MTCO1P27'
p806
(lp807
I12504665
aI12504890
aS'+'
asS'AC020895.1'
p808
(lp809
I6898299
aI6898686
aS'+'
asS'RCN3'
p810
(lp811
I49528626
aI49546962
aS'+'
asS'CENPBD1P1'
p812
(lp813
I58575445
aI58599801
aS'+'
asS'VN2R17P'
p814
(lp815
I56317177
aI56318008
aS'-'
asS'CAPS'
p816
(lp817
I5911707
aI5915877
aS'+'
asS'POLR2E'
p818
(lp819
I1086579
aI1095357
aS'-'
asS'ZNF823'
p820
(lp821
I11721265
aI11738973
aS'-'
asS'ANKRD24'
p822
(lp823
I4183354
aI4224814
aS'+'
asS'ZNF829'
p824
(lp825
I36888124
aI36916021
aS'-'
asS'POLR2I'
p826
(lp827
I36113710
aI36115346
aS'-'
asS'ETHE1'
p828
(lp829
I43506719
aI43527244
aS'-'
asS'POLRMT'
p830
(lp831
I617224
aI633604
aS'-'
asS'RNF126'
p832
(lp833
I647526
aI663277
aS'-'
asS'ZNF137P'
p834
(lp835
I52588505
aI52595688
aS'+'
asS'MATK'
p836
(lp837
I3777975
aI3801812
aS'-'
asS'DDA1'
p838
(lp839
I17309531
aI17323301
aS'+'
asS'GAMT'
p840
(lp841
I1397026
aI1401553
aS'-'
asS'FAM90A28P'
p842
(lp843
I53302122
aI53308644
aS'-'
asS'TGFBR3L'
p844
(lp845
I7916145
aI7919097
aS'+'
asS'SHKBP1'
p846
(lp847
I40576851
aI40591397
aS'+'
asS'ZNF628'
p848
(lp849
I55476332
aI55484487
aS'+'
asS'ZNF625'
p850
(lp851
I12144890
aI12156714
aS'-'
asS'ZNF626'
p852
(lp853
I20620061
aI20661593
aS'-'
asS'ZNF627'
p854
(lp855
I11559448
aI11614843
aS'+'
asS'CYP2B6'
p856
(lp857
I40991299
aI41018398
aS'+'
asS'CPT1C'
p858
(lp859
I49691110
aI49713731
aS'+'
asS'DNAJC19P3'
p860
(lp861
I41638569
aI41638899
aS'-'
asS'AC010615.3'
p862
(lp863
I21381220
aI21381921
aS'-'
asS'AC243964.1'
p864
(lp865
I44570304
aI44570564
aS'-'
asS'AC119403.2'
p866
(lp867
I2896625
aI2897222
aS'-'
asS'AC011453.2'
p868
(lp869
I53657400
aI53658462
aS'-'
asS'OR1M1'
p870
(lp871
I9093179
aI9094213
aS'+'
asS'CEACAM22P'
p872
(lp873
I44547313
aI44620821
aS'-'
asS'AC010616.1'
p874
(lp875
I41907705
aI41928516
aS'-'
asS'ATCAY'
p876
(lp877
I3880583
aI3928079
aS'+'
asS'RPS18P13'
p878
(lp879
I18048637
aI18049090
aS'+'
asS'ZNF480'
p880
(lp881
I52297177
aI52325922
aS'+'
asS'ZNF486'
p882
(lp883
I20167274
aI20200490
aS'+'
asS'AC011476.1'
p884
(lp885
I54973817
aI54974417
aS'+'
asS'PRKACA'
p886
(lp887
I14091688
aI14117744
aS'-'
asS'TMEM238'
p888
(lp889
I55379245
aI55384598
aS'-'
asS'PIAS4'
p890
(lp891
I4007646
aI4039386
aS'+'
asS'ZNF132'
p892
(lp893
I58432814
aI58440222
aS'-'
asS'ZNF134'
p894
(lp895
I57614251
aI57624723
aS'+'
asS'ZNF135'
p896
(lp897
I58059734
aI58086310
aS'+'
asS'ZNF136'
p898
(lp899
I12163064
aI12189881
aS'+'
asS'ZNF317'
p900
(lp901
I9140380
aI9163413
aS'+'
asS'JUNB'
p902
(lp903
I12791496
aI12793315
aS'+'
asS'JUND'
p904
(lp905
I18279760
aI18281622
aS'-'
asS'OVOL3'
p906
(lp907
I36111151
aI36113711
aS'+'
asS'AC008745.1'
p908
(lp909
I47794650
aI47794920
aS'+'
asS'AC067968.1'
p910
(lp911
I44025354
aI44087318
aS'+'
asS'HSPBP1'
p912
(lp913
I55262231
aI55280360
aS'-'
asS'AC007136.1'
p914
(lp915
I2030853
aI2031051
aS'-'
asS'BCL2L12'
p916
(lp917
I49665142
aI49673915
aS'+'
asS'TMIGD2'
p918
(lp919
I4292232
aI4302431
aS'-'
asS'KCNK6'
p920
(lp921
I38319844
aI38332076
aS'+'
asS'ZNF556'
p922
(lp923
I2867335
aI2883445
aS'+'
asS'ZNF557'
p924
(lp925
I7069705
aI7087968
aS'+'
asS'ZNF554'
p926
(lp927
I2819874
aI2835773
aS'+'
asS'ZNF555'
p928
(lp929
I2841435
aI2860484
aS'+'
asS'ZNF552'
p930
(lp931
I57803841
aI57813404
aS'-'
asS'ZNF550'
p932
(lp933
I57535257
aI57559812
aS'-'
asS'ZNF551'
p934
(lp935
I57682035
aI57717301
aS'+'
asS'ZNF90'
p936
(lp937
I20077994
aI20127076
aS'+'
asS'AC011451.2'
p938
(lp939
I9348106
aI9348703
aS'-'
asS'NACC1'
p940
(lp941
I13118337
aI13141141
aS'+'
asS'SIN3B'
p942
(lp943
I16829400
aI16880350
aS'+'
asS'ZNF558'
p944
(lp945
I8806170
aI8832328
aS'-'
asS'ZNF559'
p946
(lp947
I9324179
aI9351162
aS'+'
asS'TMPRSS9'
p948
(lp949
I2389786
aI2426239
aS'+'
asS'ISYNA1'
p950
(lp951
I18434388
aI18438301
aS'-'
asS'PPAN-P2RY11'
p952
(lp953
I10106223
aI10114780
aS'+'
asS'HOOK2'
p954
(lp955
I12774159
aI12872740
aS'-'
asS'ZNF93'
p956
(lp957
I19901061
aI19935575
aS'+'
asS'TMEM160'
p958
(lp959
I47045907
aI47048630
aS'-'
asS'DENND1C'
p960
(lp961
I6467207
aI6481808
aS'-'
asS'RPL36'
p962
(lp963
I5674947
aI5691667
aS'+'
asS'ZNF99'
p964
(lp965
I22752183
aI22784107
aS'-'
asS'GNA15'
p966
(lp967
I3136193
aI3163769
aS'+'
asS'CACNG6'
p968
(lp969
I53992288
aI54012669
aS'+'
asS'GRIN2D'
p970
(lp971
I48394875
aI48444931
aS'+'
asS'GNA11'
p972
(lp973
I3094410
aI3124004
aS'+'
asS'ATF5'
p974
(lp975
I49929143
aI49933935
aS'+'
asS'OR1M4P'
p976
(lp977
I9083112
aI9083398
aS'-'
asS'AC008739.3'
p978
(lp979
I21025915
aI21026041
aS'-'
asS'AC008739.2'
p980
(lp981
I20838515
aI20847417
aS'-'
asS'PSG11'
p982
(lp983
I43007656
aI43026512
aS'-'
asS'AP1M2'
p984
(lp985
I10572671
aI10587315
aS'-'
asS'AP1M1'
p986
(lp987
I16197578
aI16245907
aS'+'
asS'AC020934.3'
p988
(lp989
I12802072
aI12804303
aS'+'
asS'TARM1'
p990
(lp991
I54069947
aI54081365
aS'-'
asS'AC004004.1'
p992
(lp993
I22501699
aI22501948
aS'-'
asS'BLOC1S3'
p994
(lp995
I45178745
aI45181801
aS'+'
asS'CYP2F2P'
p996
(lp997
I40818721
aI40826772
aS'-'
asS'SMG9'
p998
(lp999
I43727992
aI43754990
aS'-'
asS'PTGER1'
p1000
(lp1001
I14472466
aI14475362
aS'-'
asS'AC010646.1'
p1002
(lp1003
I17235940
aI17255448
aS'-'
asS'GRWD1'
p1004
(lp1005
I48445773
aI48457022
aS'+'
asS'AC006262.4'
p1006
(lp1007
I46249394
aI46250163
aS'-'
asS'AC008753.1'
p1008
(lp1009
I53775599
aI53775882
aS'+'
asS'LHB'
p1010
(lp1011
I49015980
aI49017081
aS'-'
asS'BCAT2'
p1012
(lp1013
I48795065
aI48811027
aS'-'
asS'RPS16P9'
p1014
(lp1015
I45332698
aI45333124
aS'-'
asS'COQ8B'
p1016
(lp1017
I40691529
aI40716885
aS'-'
asS'GMIP'
p1018
(lp1019
I19629476
aI19643667
aS'-'
asS'CXCL17'
p1020
(lp1021
I42428288
aI42443048
aS'-'
asS'GTF2F1'
p1022
(lp1023
I6379569
aI6393460
aS'-'
asS'AC005776.1'
p1024
(lp1025
I15338948
aI15339237
aS'+'
asS'CD3EAP'
p1026
(lp1027
I45406209
aI45410766
aS'+'
asS'TUBB4A'
p1028
(lp1029
I6494319
aI6502584
aS'-'
asS'HCN2'
p1030
(lp1031
I589893
aI617159
aS'+'
asS'AKAP8'
p1032
(lp1033
I15353385
aI15379792
aS'-'
asS'ZSCAN18'
p1034
(lp1035
I58084482
aI58118426
aS'-'
asS'CYP4F24P'
p1036
(lp1037
I15760241
aI15779909
aS'-'
asS'ANO8'
p1038
(lp1039
I17323223
aI17334829
aS'-'
asS'NOVA2'
p1040
(lp1041
I45933734
aI45973546
aS'-'
asS'CELF5'
p1042
(lp1043
I3224703
aI3297076
aS'+'
asS'APOC1'
p1044
(lp1045
I44914247
aI44919342
aS'+'
asS'TDGF1P7'
p1046
(lp1047
I39534463
aI39535021
aS'+'
asS'KRT18P40'
p1048
(lp1049
I20961057
aI20965140
aS'+'
asS'NKG7'
p1050
(lp1051
I51371612
aI51372715
aS'-'
asS'PEPD'
p1052
(lp1053
I33386950
aI33521794
aS'-'
asS'JAK3'
p1054
(lp1055
I17824786
aI17848032
aS'-'
asS'MRI1'
p1056
(lp1057
I13764532
aI13774282
aS'+'
asS'CCL25'
p1058
(lp1059
I8052767
aI8062622
aS'+'
asS'NR1H2'
p1060
(lp1061
I50329692
aI50382979
aS'+'
asS'MAU2'
p1062
(lp1063
I19320681
aI19358755
aS'+'
asS'SIGLEC22P'
p1064
(lp1065
I51211110
aI51212088
aS'+'
asS'AC008737.2'
p1066
(lp1067
I16712317
aI16712434
aS'+'
asS'ZNF383'
p1068
(lp1069
I37217926
aI37243658
aS'+'
asS'ANKRD27'
p1070
(lp1071
I32597007
aI32675199
aS'-'
asS'RPL36P16'
p1072
(lp1073
I41169861
aI41170166
aS'+'
asS'AC008735.6'
p1074
(lp1075
I55463002
aI55464707
aS'-'
asS'AC007204.3'
p1076
(lp1077
I19978190
aI19979610
aS'-'
asS'CAMSAP3'
p1078
(lp1079
I7595902
aI7618304
aS'+'
asS'VN1R79P'
p1080
(lp1081
I20758440
aI20758952
aS'+'
asS'CCDC94'
p1082
(lp1083
I4247079
aI4269090
aS'+'
asS'WDR83OS'
p1084
(lp1085
I12668071
aI12671356
aS'-'
asS'ACP5'
p1086
(lp1087
I11574660
aI11578985
aS'-'
asS'ACP7'
p1088
(lp1089
I39083913
aI39111493
aS'+'
asS'ZNF835'
p1090
(lp1091
I56661981
aI56671760
aS'-'
asS'ZNF837'
p1092
(lp1093
I58367623
aI58381060
aS'-'
asS'ZNF836'
p1094
(lp1095
I52154848
aI52171491
aS'-'
asS'AC008759.1'
p1096
(lp1097
I9724008
aI9725086
aS'-'
asS'NR2F6'
p1098
(lp1099
I17231883
aI17245940
aS'-'
asS'ELOCP28'
p1100
(lp1101
I2538112
aI2538754
aS'+'
asS'ELOCP29'
p1102
(lp1103
I9182369
aI9183048
aS'-'
asS'AC008982.1'
p1104
(lp1105
I38817471
aI38840178
aS'-'
asS'BSG'
p1106
(lp1107
I571277
aI583493
aS'+'
asS'OR4F17'
p1108
(lp1109
I107461
aI111696
aS'+'
asS'ZNF83'
p1110
(lp1111
I52594151
aI52690496
aS'-'
asS'ZNF209P'
p1112
(lp1113
I22463922
aI22473036
aS'+'
asS'ZNF85'
p1114
(lp1115
I20923288
aI20950697
aS'+'
asS'LDLR'
p1116
(lp1117
I11090599
aI11133816
aS'+'
asS'ZNF470'
p1118
(lp1119
I56567526
aI56588911
aS'+'
asS'SLC27A5'
p1120
(lp1121
I58479512
aI58499263
aS'-'
asS'JSRP1'
p1122
(lp1123
I2253669
aI2269759
aS'-'
asS'PRAM1'
p1124
(lp1125
I8490056
aI8503112
aS'-'
asS'GP6'
p1126
(lp1127
I55013705
aI55038264
aS'-'
asS'ACPT'
p1128
(lp1129
I50790415
aI50795224
aS'+'
asS'RPS2P52'
p1130
(lp1131
I690353
aI691172
aS'+'
asS'SLC17A7'
p1132
(lp1133
I49429986
aI49442360
aS'-'
asS'TBCB'
p1134
(lp1135
I36114986
aI36125945
aS'+'
asS'EDDM13'
p1136
(lp1137
I56272769
aI56310450
aS'+'
asS'CHAF1A'
p1138
(lp1139
I4402662
aI4443392
aS'+'
asS'EBI3'
p1140
(lp1141
I4229498
aI4237531
aS'+'
asS'PRKD2'
p1142
(lp1143
I46674317
aI46717127
aS'-'
asS'OR7G15P'
p1144
(lp1145
I9122160
aI9122492
aS'-'
asS'BAX'
p1146
(lp1147
I48954877
aI48961798
aS'+'
asS'ZNF497'
p1148
(lp1149
I58354357
aI58362754
aS'-'
asS'ERF'
p1150
(lp1151
I42247572
aI42255157
aS'-'
asS'ZNF493'
p1152
(lp1153
I21397129
aI21427573
aS'+'
asS'SH2D3A'
p1154
(lp1155
I6752298
aI6767588
aS'-'
asS'ZNF491'
p1156
(lp1157
I11798588
aI11809622
aS'+'
asS'ZNF490'
p1158
(lp1159
I12583485
aI12640098
aS'-'
asS'GIPR'
p1160
(lp1161
I45668244
aI45683724
aS'+'
asS'CYP4F10P'
p1162
(lp1163
I15664106
aI15669826
aS'+'
asS'ZNF121'
p1164
(lp1165
I9560353
aI9584497
aS'-'
asS'SELENOW'
p1166
(lp1167
I47778572
aI47784681
aS'+'
asS'SELENOV'
p1168
(lp1169
I39515113
aI39520686
aS'+'
asS'AC092070.2'
p1170
(lp1171
I53197111
aI53211015
aS'+'
asS'GRIN3B'
p1172
(lp1173
I1000419
aI1009732
aS'+'
asS'KLF2'
p1174
(lp1175
I16324817
aI16327874
aS'+'
asS'KLF1'
p1176
(lp1177
I12884423
aI12887181
aS'-'
asS'TMEM221'
p1178
(lp1179
I17435509
aI17448567
aS'-'
asS'PSMC4'
p1180
(lp1181
I39971005
aI39981441
aS'+'
asS'AC008687.8'
p1182
(lp1183
I49055793
aI49065076
aS'-'
asS'AC008687.5'
p1184
(lp1185
I49042174
aI49042731
aS'+'
asS'AC008687.4'
p1186
(lp1187
I49017496
aI49020523
aS'-'
asS'AC008687.7'
p1188
(lp1189
I49056269
aI49058745
aS'-'
asS'ZNF304'
p1190
(lp1191
I57351307
aI57359898
aS'+'
asS'AC008687.1'
p1192
(lp1193
I49022953
aI49036895
aS'-'
asS'FBN3'
p1194
(lp1195
I8065402
aI8149846
aS'-'
asS'NCR1'
p1196
(lp1197
I54906163
aI54916140
aS'+'
asS'IFNL3P1'
p1198
(lp1199
I39236433
aI39237293
aS'-'
asS'OR2Z1'
p1200
(lp1201
I8730954
aI8732009
aS'+'
asS'TRIP10'
p1202
(lp1203
I6737925
aI6751500
aS'+'
asS'MEX3D'
p1204
(lp1205
I1554669
aI1568058
aS'-'
asS'NCLN'
p1206
(lp1207
I3185600
aI3209570
aS'+'
asS'MAP3K10'
p1208
(lp1209
I40191744
aI40215575
aS'+'
asS'ZNF544'
p1210
(lp1211
I58229468
aI58277495
aS'+'
asS'ZNF547'
p1212
(lp1213
I57363566
aI57379565
aS'+'
asS'ZNF546'
p1214
(lp1215
I39997076
aI40021041
aS'+'
asS'SCN1B'
p1216
(lp1217
I35030466
aI35040449
aS'+'
asS'ZNF540'
p1218
(lp1219
I37551406
aI37614095
aS'+'
asS'PET100'
p1220
(lp1221
I7629737
aI7631956
aS'+'
asS'SLC1A5'
p1222
(lp1223
I46774883
aI46788594
aS'-'
asS'SLC1A6'
p1224
(lp1225
I14950034
aI15010620
aS'-'
asS'ZNF549'
p1226
(lp1227
I57527426
aI57557542
aS'+'
asS'ZNF548'
p1228
(lp1229
I57389850
aI57402992
aS'+'
asS'LIN7B'
p1230
(lp1231
I49114324
aI49118460
aS'+'
asS'MARCH2'
p1232
(lp1233
I8413270
aI8439004
aS'+'
asS'ZNF702P'
p1234
(lp1235
I52970445
aI53037898
aS'-'
asS'EIF3K'
p1236
(lp1237
I38619082
aI38636955
aS'+'
asS'B3GNT3'
p1238
(lp1239
I17795110
aI17813082
aS'+'
asS'B3GNT8'
p1240
(lp1241
I41425359
aI41428730
aS'-'
asS'EIF3G'
p1242
(lp1243
I10115017
aI10119902
aS'-'
asS'ADGRE4P'
p1244
(lp1245
I6952500
aI6997872
aS'-'
asS'DYRK1B'
p1246
(lp1247
I39825350
aI39834201
aS'-'
asS'ELSPBP1'
p1248
(lp1249
I47994651
aI48025146
aS'+'
asS'CDKN2D'
p1250
(lp1251
I10566462
aI10568978
aS'-'
asS'RPS4XP21'
p1252
(lp1253
I34092561
aI34093310
aS'-'
asS'RPS4XP20'
p1254
(lp1255
I34022656
aI34023427
aS'-'
asS'RPS4XP23'
p1256
(lp1257
I34021659
aI34021895
aS'+'
asS'RPS4XP22'
p1258
(lp1259
I9683294
aI9684073
aS'-'
asS'AC008962.1'
p1260
(lp1261
I41073804
aI41074107
aS'-'
asS'CCDC151'
p1262
(lp1263
I11420605
aI11435782
aS'-'
asS'YIF1B'
p1264
(lp1265
I38305118
aI38315963
aS'-'
asS'CCDC155'
p1266
(lp1267
I49388218
aI49417994
aS'+'
asS'CCDC159'
p1268
(lp1269
I11345301
aI11354944
aS'+'
asS'AF038458.1'
p1270
(lp1271
I35957121
aI35957382
aS'-'
asS'HOMER3'
p1272
(lp1273
I18929203
aI18941214
aS'-'
asS'HRC'
p1274
(lp1275
I49151198
aI49155424
aS'-'
asS'AC010326.2'
p1276
(lp1277
I57876765
aI57916591
aS'-'
asS'LRRC4B'
p1278
(lp1279
I50516892
aI50568045
aS'-'
asS'LINC01529'
p1280
(lp1281
I35785697
aI35797871
aS'-'
asS'SYT3'
p1282
(lp1283
I50621977
aI50639827
aS'-'
asS'SYT5'
p1284
(lp1285
I55171223
aI55180441
aS'-'
asS'UBA52'
p1286
(lp1287
I18571860
aI18577550
aS'+'
asS'CNFN'
p1288
(lp1289
I42387019
aI42390287
aS'-'
asS'RPL39P38'
p1290
(lp1291
I18285343
aI18285495
aS'-'
asS'DPPA5P1'
p1292
(lp1293
I52425863
aI52426202
aS'-'
asS'TNFAIP8L1'
p1294
(lp1295
I4639518
aI4655568
aS'+'
asS'RPS3AP50'
p1296
(lp1297
I33340686
aI33341984
aS'+'
asS'RPL39P36'
p1298
(lp1299
I53413190
aI53413345
aS'+'
asS'RPL39P34'
p1300
(lp1301
I52564076
aI52564231
aS'+'
asS'SIGLEC21P'
p1302
(lp1303
I51198855
aI51201449
aS'+'
asS'IGFL3'
p1304
(lp1305
I46120071
aI46124674
aS'-'
asS'IGFL2'
p1306
(lp1307
I46143106
aI46161288
aS'+'
asS'IGFL1'
p1308
(lp1309
I46229752
aI46231243
aS'+'
asS'EXOSC5'
p1310
(lp1311
I41386374
aI41397479
aS'-'
asS'YJEFN3'
p1312
(lp1313
I19528861
aI19537580
aS'+'
asS'ADAMTSL5'
p1314
(lp1315
I1505018
aI1513189
aS'-'
asS'TULP2'
p1316
(lp1317
I48880965
aI48898733
aS'-'
asS'AC008798.1'
p1318
(lp1319
I29901696
aI29901869
aS'-'
asS'CEACAM1'
p1320
(lp1321
I42527048
aI42561234
aS'-'
asS'CEACAM3'
p1322
(lp1323
I41796437
aI41811553
aS'+'
asS'CEACAM5'
p1324
(lp1325
I41708618
aI41729798
aS'+'
asS'CEACAM4'
p1326
(lp1327
I41618971
aI41627074
aS'-'
asS'CEACAM7'
p1328
(lp1329
I41684045
aI41706976
aS'-'
asS'CEACAM6'
p1330
(lp1331
I41755421
aI41772208
aS'+'
asS'CEACAM8'
p1332
(lp1333
I42580241
aI42594930
aS'-'
asS'PPP1R14A'
p1334
(lp1335
I38251237
aI38256591
aS'-'
asS'PALM3'
p1336
(lp1337
I14053365
aI14059159
aS'-'
asS'SSC5D'
p1338
(lp1339
I55488567
aI55519098
aS'+'
asS'AC008764.1'
p1340
(lp1341
I16479067
aI16628204
aS'-'
asS'ZNF274'
p1342
(lp1343
I58183029
aI58213562
aS'+'
asS'AC008764.4'
p1344
(lp1345
I16577650
aI16660115
aS'-'
asS'CEACAM19'
p1346
(lp1347
I44671452
aI44684359
aS'+'
asS'AC006115.2'
p1348
(lp1349
I56793048
aI56793249
aS'-'
asS'RPS29P23'
p1350
(lp1351
I12373609
aI12373731
aS'+'
asS'RPS29P24'
p1352
(lp1353
I39588955
aI39589125
aS'+'
asS'RPS29P25'
p1354
(lp1355
I39590981
aI39591151
aS'+'
asS'RPS29P26'
p1356
(lp1357
I39597832
aI39598002
aS'+'
asS'RPS29P27'
p1358
(lp1359
I39697904
aI39698073
aS'+'
asS'ALKBH6'
p1360
(lp1361
I36009124
aI36014239
aS'-'
asS'ALKBH7'
p1362
(lp1363
I6372433
aI6375251
aS'+'
asS'AC011468.4'
p1364
(lp1365
I52110318
aI52110726
aS'-'
asS'MSRB1P1'
p1366
(lp1367
I39254916
aI39255269
aS'-'
asS'RPS6P25'
p1368
(lp1369
I12894133
aI12894880
aS'+'
asS'STXBP2'
p1370
(lp1371
I7637113
aI7647872
aS'+'
asS'OR7E18P'
p1372
(lp1373
I9261015
aI9261716
aS'-'
asS'NECTIN2'
p1374
(lp1375
I44846526
aI44889228
aS'+'
asS'PVR'
p1376
(lp1377
I44643798
aI44663583
aS'+'
asS'AC011444.4'
p1378
(lp1379
I6072823
aI6073527
aS'+'
asS'S1PR2'
p1380
(lp1381
I10221435
aI10231272
aS'-'
asS'DNAJB1'
p1382
(lp1383
I14515649
aI14529308
aS'-'
asS'S1PR5'
p1384
(lp1385
I10512947
aI10517931
aS'-'
asS'S1PR4'
p1386
(lp1387
I3172346
aI3179527
aS'+'
asS'DOT1L'
p1388
(lp1389
I2164149
aI2232578
aS'+'
asS'SUGP2'
p1390
(lp1391
I18990890
aI19033816
aS'-'
asS'HAS1'
p1392
(lp1393
I51713112
aI51723994
aS'-'
asS'SUGP1'
p1394
(lp1395
I19276511
aI19320844
aS'-'
asS'AC022432.1'
p1396
(lp1397
I21276023
aI21276332
aS'-'
asS'CLC'
p1398
(lp1399
I39731250
aI39738028
aS'-'
asS'SEPT14P19'
p1400
(lp1401
I186373
aI191429
aS'-'
asS'AC011487.2'
p1402
(lp1403
I53600319
aI53608451
aS'-'
asS'ZNF808'
p1404
(lp1405
I52527652
aI52564464
aS'+'
asS'ZNF805'
p1406
(lp1407
I57240685
aI57255135
aS'+'
asS'ZNF807'
p1408
(lp1409
I34542462
aI34545395
aS'-'
asS'MCEMP1'
p1410
(lp1411
I7676628
aI7679826
aS'+'
asS'GRIK5'
p1412
(lp1413
I41998814
aI42069498
aS'-'
asS'TRAPPC6A'
p1414
(lp1415
I45162928
aI45178237
aS'-'
asS'AC010329.2'
p1416
(lp1417
I20691336
aI20697615
aS'+'
asS'AC010329.5'
p1418
(lp1419
I20674923
aI20696533
aS'+'
asS'LPAR2'
p1420
(lp1421
I19623669
aI19628930
aS'-'
asS'HAPLN4'
p1422
(lp1423
I19255641
aI19262796
aS'-'
asS'AC020909.1'
p1424
(lp1425
I50415799
aI50428409
aS'+'
asS'AC011476.5'
p1426
(lp1427
I54948864
aI54948993
aS'+'
asS'CFD'
p1428
(lp1429
I859643
aI863630
aS'+'
asS'AC010325.1'
p1430
(lp1431
I50776141
aI50786117
aS'-'
asS'AC020917.1'
p1432
(lp1433
I16412684
aI16413576
aS'+'
asS'SEMA6B'
p1434
(lp1435
I4542593
aI4559808
aS'-'
asS'AC010327.2'
p1436
(lp1437
I55119250
aI55120383
aS'-'
asS'AC010327.1'
p1438
(lp1439
I55154757
aI55160671
aS'-'
asS'CD320'
p1440
(lp1441
I8302127
aI8308355
aS'-'
asS'BNIP3P9'
p1442
(lp1443
I19856975
aI19857527
aS'+'
asS'BNIP3P8'
p1444
(lp1445
I23380317
aI23380876
aS'+'
asS'RGL3'
p1446
(lp1447
I11384341
aI11419273
aS'-'
asS'B9D2'
p1448
(lp1449
I41354421
aI41364173
aS'-'
asS'RTBDN'
p1450
(lp1451
I12825479
aI12835428
aS'-'
asS'AC005777.1'
p1452
(lp1453
I3775996
aI3776182
aS'-'
asS'OR5AH1P'
p1454
(lp1455
I56760933
aI56761215
aS'+'
asS'ASF1B'
p1456
(lp1457
I14119509
aI14136956
aS'-'
asS'FEM1A'
p1458
(lp1459
I4791681
aI4801273
aS'+'
asS'ZGLP1'
p1460
(lp1461
I10304803
aI10309880
aS'-'
asS'COPE'
p1462
(lp1463
I18899514
aI18919397
aS'-'
asS'PRKCG'
p1464
(lp1465
I53882213
aI53907652
aS'+'
asS'FFAR2'
p1466
(lp1467
I35443907
aI35451456
aS'+'
asS'FFAR3'
p1468
(lp1469
I35358460
aI35360485
aS'+'
asS'FFAR1'
p1470
(lp1471
I35351552
aI35353862
aS'+'
asS'ZNF154'
p1472
(lp1473
I57697367
aI57709194
aS'-'
asS'ZNF155'
p1474
(lp1475
I43967862
aI43996129
aS'+'
asS'SAE1'
p1476
(lp1477
I47130829
aI47210636
aS'+'
asS'ZNF790'
p1478
(lp1479
I36818322
aI36850787
aS'-'
asS'ZNF791'
p1480
(lp1481
I12610918
aI12633840
aS'+'
asS'ZNF792'
p1482
(lp1483
I34956354
aI34964049
aS'-'
asS'ZNF793'
p1484
(lp1485
I37508264
aI37543298
aS'+'
asS'ZNF98'
p1486
(lp1487
I22403434
aI22532485
aS'-'
asS'ZNF799'
p1488
(lp1489
I12390016
aI12401271
aS'-'
asS'SNRPGP15'
p1490
(lp1491
I14489388
aI14489609
aS'+'
asS'FBXO17'
p1492
(lp1493
I38941401
aI38975910
aS'-'
asS'AC011448.1'
p1494
(lp1495
I19516227
aI19536076
aS'+'
asS'ECH1'
p1496
(lp1497
I38815422
aI38832005
aS'-'
asS'CYP4F12'
p1498
(lp1499
I15672757
aI15697174
aS'+'
asS'PRPF31'
p1500
(lp1501
I54115410
aI54131719
aS'+'
asS'CCDC97'
p1502
(lp1503
I41310189
aI41324883
aS'+'
asS'ZNF570'
p1504
(lp1505
I37469080
aI37488652
aS'+'
asS'ZNF571'
p1506
(lp1507
I37554782
aI37594755
aS'-'
asS'ZNF573'
p1508
(lp1509
I37738302
aI37817300
aS'-'
asS'ZNF574'
p1510
(lp1511
I42068477
aI42081410
aS'+'
asS'ZNF575'
p1512
(lp1513
I43525497
aI43536130
aS'+'
asS'ZNF576'
p1514
(lp1515
I43596605
aI43601157
aS'+'
asS'ZNF577'
p1516
(lp1517
I51804816
aI51887974
aS'-'
asS'ZNF578'
p1518
(lp1519
I52453576
aI52512154
aS'+'
asS'ZNF579'
p1520
(lp1521
I55576770
aI55580821
aS'-'
asS'TPGS1'
p1522
(lp1523
I507497
aI519654
aS'+'
asS'PRTN3'
p1524
(lp1525
I840960
aI848175
aS'+'
asS'BSPH1'
p1526
(lp1527
I47968046
aI47992170
aS'-'
asS'SHC2'
p1528
(lp1529
I416583
aI460996
aS'-'
asS'FPR1'
p1530
(lp1531
I51746876
aI51804110
aS'-'
asS'FPR2'
p1532
(lp1533
I51752026
aI51768923
aS'+'
asS'FPR3'
p1534
(lp1535
I51795163
aI51826189
aS'+'
asS'RPS27AP19'
p1536
(lp1537
I7665717
aI7666476
aS'+'
asS'ZNF208'
p1538
(lp1539
I21932958
aI22010949
aS'-'
asS'PPP1R37'
p1540
(lp1541
I45092962
aI45147285
aS'+'
asS'SLC25A36P1'
p1542
(lp1543
I56386226
aI56386690
aS'+'
asS'MIA-RAB4B'
p1544
(lp1545
I40771648
aI40786685
aS'+'
asS'CHERP'
p1546
(lp1547
I16517889
aI16542530
aS'-'
asS'RPL18'
p1548
(lp1549
I48615328
aI48619536
aS'-'
asS'GPATCH1'
p1550
(lp1551
I33080880
aI33130542
aS'+'
asS'LGALS17A'
p1552
(lp1553
I39679374
aI39686368
aS'+'
asS'SNX33P1'
p1554
(lp1555
I16034776
aI16036537
aS'-'
asS'BNIP3P20'
p1556
(lp1557
I20351502
aI20352079
aS'+'
asS'BNIP3P22'
p1558
(lp1559
I20416514
aI20417069
aS'+'
asS'MYADM'
p1560
(lp1561
I53866357
aI53876428
aS'+'
asS'AC245884.3'
p1562
(lp1563
I54446830
aI54447047
aS'+'
asS'ZNF826P'
p1564
(lp1565
I20340269
aI20424969
aS'-'
asS'AP2S1'
p1566
(lp1567
I46838167
aI46850992
aS'-'
asS'AC245884.2'
p1568
(lp1569
I54301758
aI54306026
aS'-'
asS'MTATP6P27'
p1570
(lp1571
I12506249
aI12508030
aS'+'
asS'AC245884.4'
p1572
(lp1573
I54379489
aI54379960
aS'+'
asS'AC010463.1'
p1574
(lp1575
I17267418
aI17282966
aS'+'
asS'CARD8'
p1576
(lp1577
I48203632
aI48255898
aS'-'
asS'PNPLA6'
p1578
(lp1579
I7534004
aI7561764
aS'+'
asS'ALDH16A1'
p1580
(lp1581
I49453169
aI49471048
aS'+'
asS'PINLYP'
p1582
(lp1583
I43576800
aI43582103
aS'+'
asS'TINCR'
p1584
(lp1585
I5558167
aI5568034
aS'-'
asS'MAP1S'
p1586
(lp1587
I17719352
aI17734516
aS'+'
asS'UBA2'
p1588
(lp1589
I34428363
aI34471251
aS'+'
asS'EIF1P6'
p1590
(lp1591
I4347780
aI4349061
aS'-'
asS'VN1R88P'
p1592
(lp1593
I22861303
aI22861594
aS'+'
asS'UBE2M'
p1594
(lp1595
I58555712
aI58558960
aS'-'
asS'SAFB2'
p1596
(lp1597
I5586999
aI5622980
aS'-'
asS'AC125388.1'
p1598
(lp1599
I53386233
aI53386388
aS'+'
asS'UBE2S'
p1600
(lp1601
I55399745
aI55407777
aS'-'
asS'DUXA'
p1602
(lp1603
I57154021
aI57167443
aS'-'
asS'DPF1'
p1604
(lp1605
I38211043
aI38229714
aS'-'
asS'ASNA1'
p1606
(lp1607
I12737139
aI12748323
aS'+'
asS'VSTM2B'
p1608
(lp1609
I29526499
aI29564479
aS'+'
asS'RPL18A'
p1610
(lp1611
I17859921
aI17864153
aS'+'
asS'CD177'
p1612
(lp1613
I43353659
aI43363172
aS'+'
asS'UPF1'
p1614
(lp1615
I18831938
aI18868236
aS'+'
asS'CYP2T1P'
p1616
(lp1617
I40808525
aI40811390
aS'-'
asS'AC010525.2'
p1618
(lp1619
I55705978
aI55706172
aS'-'
asS'DACT3'
p1620
(lp1621
I46647612
aI46661138
aS'-'
asS'BORCS8'
p1622
(lp1623
I19176906
aI19192589
aS'-'
asS'C19orf84'
p1624
(lp1625
I51388289
aI51390574
aS'-'
asS'RPS29P30'
p1626
(lp1627
I39644502
aI39644612
aS'+'
asS'C19orf81'
p1628
(lp1629
I50649445
aI50659310
aS'+'
asS'VN1R87P'
p1630
(lp1631
I22742924
aI22743410
aS'-'
asS'DUS3L'
p1632
(lp1633
I5785140
aI5791238
aS'-'
asS'OR7A8P'
p1634
(lp1635
I14852032
aI14852944
aS'-'
asS'TPRX1'
p1636
(lp1637
I47801243
aI47819051
aS'-'
asS'AC005943.1'
p1638
(lp1639
I1578339
aI1605445
aS'-'
asS'ZNF253'
p1640
(lp1641
I19865905
aI19894674
aS'+'
asS'ZIM2'
p1642
(lp1643
I56774562
aI56840729
aS'-'
asS'ZIM3'
p1644
(lp1645
I57134096
aI57145202
aS'-'
asS'SPACA4'
p1646
(lp1647
I48606743
aI48607714
aS'+'
asS'NDUFA3'
p1648
(lp1649
I54102821
aI54108704
aS'+'
asS'SIGLEC20P'
p1650
(lp1651
I51184905
aI51190809
aS'+'
asS'COMP'
p1652
(lp1653
I18782773
aI18791314
aS'-'
asS'SPACA6'
p1654
(lp1655
I51693340
aI51705190
aS'+'
asS'MAST1'
p1656
(lp1657
I12838534
aI12874951
aS'+'
asS'MAST3'
p1658
(lp1659
I18097793
aI18151692
aS'+'
asS'FLT3LG'
p1660
(lp1661
I49474207
aI49486231
aS'+'
asS'NDUFV2P1'
p1662
(lp1663
I53223973
aI53224879
aS'-'
asS'CEACAMP3'
p1664
(lp1665
I41599735
aI41605221
aS'+'
asS'AC012616.1'
p1666
(lp1667
I8778665
aI8778861
aS'-'
asS'IL11'
p1668
(lp1669
I55364389
aI55370373
aS'-'
asS'CEACAMP7'
p1670
(lp1671
I42949503
aI42950387
aS'-'
asS'PPP1R15A'
p1672
(lp1673
I48872392
aI48876057
aS'+'
asS'STX10'
p1674
(lp1675
I13144058
aI13150346
aS'-'
asS'FARSA'
p1676
(lp1677
I12922479
aI12934037
aS'-'
asS'CEACAMP4'
p1678
(lp1679
I43303171
aI43304523
aS'-'
asS'AC093227.3'
p1680
(lp1681
I37689865
aI37719188
aS'-'
asS'AC093227.2'
p1682
(lp1683
I37693280
aI37693564
aS'-'
asS'AC012618.2'
p1684
(lp1685
I12284337
aI12285185
aS'+'
asS'AC012618.3'
p1686
(lp1687
I12195017
aI12237767
aS'+'
asS'AC092299.1'
p1688
(lp1689
I197310
aI198066
aS'-'
asS'COLGALT1'
p1690
(lp1691
I17555594
aI17583159
aS'+'
asS'BIRC8'
p1692
(lp1693
I53289601
aI53291626
aS'-'
asS'ADGRE5'
p1694
(lp1695
I14381435
aI14408725
aS'+'
asS'AC008622.3'
p1696
(lp1697
I46809583
aI46810182
aS'+'
asS'AC008622.1'
p1698
(lp1699
I46826895
aI46828440
aS'-'
asS'ADGRE1'
p1700
(lp1701
I6887566
aI6940459
aS'+'
asS'ADGRE3'
p1702
(lp1703
I14619236
aI14690027
aS'-'
asS'ADGRE2'
p1704
(lp1705
I14732393
aI14778537
aS'-'
asS'INSR'
p1706
(lp1707
I7112255
aI7293931
aS'-'
asS'ZNF813'
p1708
(lp1709
I53467735
aI53496255
aS'+'
asS'SPTBN4'
p1710
(lp1711
I40466241
aI40576464
aS'+'
asS'ZNF816'
p1712
(lp1713
I52949379
aI52962861
aS'-'
asS'ZNF814'
p1714
(lp1715
I57850320
aI57888958
aS'-'
asS'KLF16'
p1716
(lp1717
I1852399
aI1863568
aS'-'
asS'GDF1'
p1718
(lp1719
I18868545
aI18896096
aS'-'
asS'AC245052.3'
p1720
(lp1721
I54229036
aI54230213
aS'+'
asS'AC245052.5'
p1722
(lp1723
I54268005
aI54269045
aS'+'
asS'KRTDAP'
p1724
(lp1725
I35487324
aI35495558
aS'-'
asS'SWSAP1'
p1726
(lp1727
I11374685
aI11376951
aS'+'
asS'DPP9'
p1728
(lp1729
I4675226
aI4723863
aS'-'
asS'SLC44A2'
p1730
(lp1731
I10602510
aI10644550
aS'+'
asS'ZBTB7A'
p1732
(lp1733
I4044364
aI4066945
aS'-'
asS'OR10B1P'
p1734
(lp1735
I15141132
aI15142038
aS'-'
asS'CYP2A7'
p1736
(lp1737
I40875439
aI40882752
aS'-'
asS'CYP2A6'
p1738
(lp1739
I40843538
aI40850447
aS'-'
asS'OR7E24'
p1740
(lp1741
I9250930
aI9252479
aS'+'
asS'OR7E19P'
p1742
(lp1743
I9265440
aI9266283
aS'-'
asS'RPL36AP51'
p1744
(lp1745
I21233335
aI21233652
aS'+'
asS'ARRDC5'
p1746
(lp1747
I4890437
aI4902867
aS'-'
asS'PCP2'
p1748
(lp1749
I7631615
aI7633748
aS'-'
asS'DNAJC19P2'
p1750
(lp1751
I41605341
aI41605671
aS'-'
asS'NDUFS7'
p1752
(lp1753
I1383631
aI1395589
aS'+'
asS'AC008758.4'
p1754
(lp1755
I12379189
aI12401274
aS'-'
asS'ILF3'
p1756
(lp1757
I10654261
aI10692417
aS'+'
asS'AC016629.2'
p1758
(lp1759
I58586158
aI58586356
aS'+'
asS'AC016629.1'
p1760
(lp1761
I58582024
aI58582609
aS'+'
asS'DMRTC2'
p1762
(lp1763
I41844743
aI41852327
aS'+'
asS'ELOF1'
p1764
(lp1765
I11551147
aI11559230
aS'-'
asS'ZFP82'
p1766
(lp1767
I36391960
aI36418656
aS'-'
asS'CHMP2A'
p1768
(lp1769
I58551566
aI58555124
aS'-'
asS'ZSCAN4'
p1770
(lp1771
I57668935
aI57679152
aS'+'
asS'INAFM1'
p1772
(lp1773
I47274453
aI47275707
aS'+'
asS'SCGB2B3P'
p1774
(lp1775
I34645662
aI34646070
aS'+'
asS'MUM1'
p1776
(lp1777
I1356314
aI1378431
aS'+'
asS'RASIP1'
p1778
(lp1779
I48720587
aI48740721
aS'-'
asS'ZNF146'
p1780
(lp1781
I36214602
aI36238771
aS'+'
asS'RABAC1'
p1782
(lp1783
I41956681
aI41959390
aS'-'
asS'RPL37P23'
p1784
(lp1785
I52143043
aI52143336
aS'+'
asS'THEG'
p1786
(lp1787
I362163
aI376670
aS'-'
asS'ZNF781'
p1788
(lp1789
I37667751
aI37692322
aS'-'
asS'SYCE2'
p1790
(lp1791
I12898786
aI12919276
aS'-'
asS'ZNF787'
p1792
(lp1793
I56087366
aI56121280
aS'-'
asS'ZNF784'
p1794
(lp1795
I55620742
aI55624601
aS'-'
asS'GPR108'
p1796
(lp1797
I6729914
aI6737603
aS'-'
asS'ZNF788'
p1798
(lp1799
I12092307
aI12137235
aS'+'
asS'AC139769.3'
p1800
(lp1801
I23842549
aI23843230
aS'+'
asS'AC139769.1'
p1802
(lp1803
I23762944
aI23832196
aS'+'
asS'SAFB'
p1804
(lp1805
I5623099
aI5668478
aS'+'
asS'EMC10'
p1806
(lp1807
I50476499
aI50490870
aS'+'
asS'KCNN4'
p1808
(lp1809
I43766533
aI43781257
aS'-'
asS'KCNN1'
p1810
(lp1811
I17951293
aI18000080
aS'+'
asS'SLC35E1'
p1812
(lp1813
I16549831
aI16572382
aS'-'
asS'SMIM24'
p1814
(lp1815
I3473986
aI3480542
aS'-'
asS'BRSK1'
p1816
(lp1817
I55282072
aI55312533
aS'+'
asS'SIGLECL1'
p1818
(lp1819
I51246348
aI51267383
aS'+'
asS'ZNF569'
p1820
(lp1821
I37411155
aI37467437
aS'-'
asS'ZNF568'
p1822
(lp1823
I36916449
aI36997932
aS'+'
asS'ZNF567'
p1824
(lp1825
I36687628
aI36721327
aS'+'
asS'ZNF566'
p1826
(lp1827
I36445119
aI36489435
aS'-'
asS'ZNF565'
p1828
(lp1829
I36182294
aI36246257
aS'-'
asS'ZNF564'
p1830
(lp1831
I12525370
aI12551529
aS'-'
asS'ZNF563'
p1832
(lp1833
I12317477
aI12333688
aS'-'
asS'ZNF562'
p1834
(lp1835
I9641808
aI9675058
aS'-'
asS'ZNF561'
p1836
(lp1837
I9604680
aI9621232
aS'-'
asS'ZNF560'
p1838
(lp1839
I9466507
aI9498607
aS'-'
asS'CCDC61'
p1840
(lp1841
I45995461
aI46018615
aS'+'
asS'SLC7A9'
p1842
(lp1843
I32830515
aI32869766
aS'-'
asS'NFKBIB'
p1844
(lp1845
I38899700
aI38908891
aS'+'
asS'NFKBID'
p1846
(lp1847
I35888241
aI35902303
aS'-'
asS'ZNF845'
p1848
(lp1849
I53333749
aI53354869
aS'+'
asS'IGFLR1'
p1850
(lp1851
I35738801
aI35742450
aS'-'
asS'RFX2'
p1852
(lp1853
I6040074
aI6199529
aS'-'
asS'TMEM59L'
p1854
(lp1855
I18607430
aI18621039
aS'+'
asS'VN1R90P'
p1856
(lp1857
I23288620
aI23289345
aS'+'
asS'ZNF849P'
p1858
(lp1859
I22685167
aI22686732
aS'+'
asS'AC008555.4'
p1860
(lp1861
I34866352
aI34866919
aS'+'
asS'AC011494.1'
p1862
(lp1863
I22362589
aI22362825
aS'+'
asS'HAUS8'
p1864
(lp1865
I17049729
aI17075613
aS'-'
asS'HAUS5'
p1866
(lp1867
I35612763
aI35625349
aS'+'
asS'TEX45'
p1868
(lp1869
I7492976
aI7504213
aS'+'
asS'UBXN6'
p1870
(lp1871
I4445006
aI4457822
aS'-'
asS'AC008751.1'
p1872
(lp1873
I58136713
aI58137054
aS'+'
asS'AC008751.2'
p1874
(lp1875
I58166166
aI58167145
aS'+'
asS'ZNF812P'
p1876
(lp1877
I9689924
aI9700776
aS'-'
asS'AC005255.1'
p1878
(lp1879
I14792318
aI14792533
aS'+'
asS'MTND2P40'
p1880
(lp1881
I12502675
aI12504106
aS'+'
asS'AC243960.4'
p1882
(lp1883
I41652676
aI41652963
aS'+'
asS'AC243960.5'
p1884
(lp1885
I41639659
aI41640602
aS'-'
asS'AC243960.2'
p1886
(lp1887
I41506152
aI41506898
aS'+'
asS'SBK2'
p1888
(lp1889
I55529733
aI55537089
aS'-'
asS'SBK3'
p1890
(lp1891
I55540656
aI55545543
aS'-'
asS'MISP'
p1892
(lp1893
I751126
aI764318
aS'+'
asS'SLC25A41'
p1894
(lp1895
I6426037
aI6433779
aS'-'
asS'SLC25A42'
p1896
(lp1897
I19063999
aI19112888
aS'+'
asS'BCAM'
p1898
(lp1899
I44809059
aI44821420
aS'+'
asS'AC243962.1'
p1900
(lp1901
I54671231
aI54672591
aS'+'
asS'VAV1'
p1902
(lp1903
I6772714
aI6857366
aS'+'
asS'AKR1B1P7'
p1904
(lp1905
I33360497
aI33361448
aS'-'
asS'BEST2'
p1906
(lp1907
I12751702
aI12758406
aS'+'
asS'AC002115.2'
p1908
(lp1909
I35586260
aI35587296
aS'+'
asS'TNPO2'
p1910
(lp1911
I12699194
aI12723996
aS'-'
asS'RAB8A'
p1912
(lp1913
I16111629
aI16134234
aS'+'
asS'ARRDC2'
p1914
(lp1915
I18001132
aI18014102
aS'+'
asS'TECR'
p1916
(lp1917
I14517085
aI14563738
aS'+'
asS'PIK3R2'
p1918
(lp1919
I18153118
aI18170540
aS'+'
asS'PPP1R12C'
p1920
(lp1921
I55090913
aI55117559
aS'-'
asS'ZNF887P'
p1922
(lp1923
I11648364
aI11652877
aS'+'
asS'SNRNP70'
p1924
(lp1925
I49085419
aI49108598
aS'+'
asS'LRRC8E'
p1926
(lp1927
I7888505
aI7902021
aS'+'
asS'LYL1'
p1928
(lp1929
I13099033
aI13102867
aS'-'
asS'ELL'
p1930
(lp1931
I18442663
aI18522127
aS'-'
asS'AC003006.1'
p1932
(lp1933
I57682045
aI57753575
aS'+'
asS'SYNGR4'
p1934
(lp1935
I48364395
aI48376363
aS'+'
asS'AC074140.1'
p1936
(lp1937
I23479762
aI23480468
aS'-'
asS'TBC1D17'
p1938
(lp1939
I49877425
aI49888749
aS'+'
asS'FBL'
p1940
(lp1941
I39834458
aI39846414
aS'-'
asS'NDUFA7'
p1942
(lp1943
I8308768
aI8321375
aS'-'
asS'AC073544.2'
p1944
(lp1945
I23602567
aI23603106
aS'+'
asS'CACTIN'
p1946
(lp1947
I3610641
aI3626815
aS'-'
asS'AC073534.1'
p1948
(lp1949
I24162370
aI24163425
aS'-'
asS'FAM83E'
p1950
(lp1951
I48600810
aI48613562
aS'-'
asS'RAB4B-EGLN2'
p1952
(lp1953
I40778271
aI40808198
aS'+'
asS'FAAP24'
p1954
(lp1955
I32972250
aI32978222
aS'+'
asS'NCCRP1'
p1956
(lp1957
I39196961
aI39201884
aS'+'
asS'ZNF324B'
p1958
(lp1959
I58451604
aI58457833
aS'+'
asS'U2AF1L4'
p1960
(lp1961
I35742464
aI35745418
aS'-'
asS'SNRPA'
p1962
(lp1963
I40750859
aI40765389
aS'+'
asS'SSBP4'
p1964
(lp1965
I18419336
aI18434562
aS'+'
asS'SHANK1'
p1966
(lp1967
I50661941
aI50719450
aS'-'
asS'SBNO2'
p1968
(lp1969
I1107636
aI1174283
aS'-'
asS'IL27RA'
p1970
(lp1971
I14031748
aI14053216
aS'+'
asS'RGS9BP'
p1972
(lp1973
I32675407
aI32678300
aS'+'
asS'ZBTB45'
p1974
(lp1975
I58517309
aI58538911
aS'-'
asS'SNRPEP4'
p1976
(lp1977
I5576660
aI5576938
aS'-'
asS'AC138473.1'
p1978
(lp1979
I44290081
aI44290911
aS'+'
asS'ZNF160'
p1980
(lp1981
I53066614
aI53103434
aS'-'
asS'MYPOP'
p1982
(lp1983
I45890020
aI45902604
aS'-'
asS'DAND5'
p1984
(lp1985
I12965159
aI12974524
aS'+'
asS'PCSK4'
p1986
(lp1987
I1481428
aI1490411
aS'-'
asS'HIPK4'
p1988
(lp1989
I40379271
aI40390187
aS'-'
asS'TYK2'
p1990
(lp1991
I10350533
aI10380676
aS'-'
asS'AC063977.4'
p1992
(lp1993
I51194118
aI51195540
aS'-'
asS'BHMG1'
p1994
(lp1995
I45733251
aI45764534
aS'+'
asS'NCAN'
p1996
(lp1997
I19211973
aI19252233
aS'+'
asS'KIR3DX1'
p1998
(lp1999
I54532760
aI54545771
aS'+'
asS'SUPT5H'
p2000
(lp2001
I39441643
aI39476670
aS'+'
asS'RETN'
p2002
(lp2003
I7669044
aI7670454
aS'+'
asS'MRPL54'
p2004
(lp2005
I3762705
aI3768575
aS'+'
asS'AC063977.7'
p2006
(lp2007
I51155288
aI51155624
aS'-'
asS'NAPA'
p2008
(lp2009
I47487637
aI47515240
aS'-'
asS'OR4G1P'
p2010
(lp2011
I104535
aI105471
aS'+'
asS'FAM129C'
p2012
(lp2013
I17523301
aI17553839
aS'+'
asS'ZNF682'
p2014
(lp2015
I19997058
aI20039465
aS'-'
asS'ZNF681'
p2016
(lp2017
I23739195
aI23758891
aS'-'
asS'MUC16'
p2018
(lp2019
I8848844
aI8981342
aS'-'
asS'DDX49'
p2020
(lp2021
I18919675
aI18928633
aS'+'
asS'ZNF175'
p2022
(lp2023
I51571298
aI51592508
aS'+'
asS'ZNF177'
p2024
(lp2025
I9363020
aI9382190
aS'+'
asS'ANGPTL6'
p2026
(lp2027
I10092341
aI10102796
aS'-'
asS'GADD45GIP1'
p2028
(lp2029
I12953119
aI12957236
aS'-'
asS'ANGPTL4'
p2030
(lp2031
I8364151
aI8374373
aS'+'
asS'AC245036.2'
p2032
(lp2033
I54551970
aI54552256
aS'+'
asS'AC245036.3'
p2034
(lp2035
I54652085
aI54652230
aS'+'
asS'POP4'
p2036
(lp2037
I29604017
aI29615800
aS'+'
asS'FDX2'
p2038
(lp2039
I10310045
aI10316015
aS'-'
asS'KLC3'
p2040
(lp2041
I45333434
aI45350387
aS'+'
asS'ZNF772'
p2042
(lp2043
I57466663
aI57477551
aS'-'
asS'ZNF773'
p2044
(lp2045
I57499939
aI57518404
aS'+'
asS'ANGPTL8'
p2046
(lp2047
I11237450
aI11241943
aS'+'
asS'ELAVL1'
p2048
(lp2049
I7958579
aI8005608
aS'-'
asS'RASGRP4'
p2050
(lp2051
I38409058
aI38426305
aS'-'
asS'ELAVL3'
p2052
(lp2053
I11451326
aI11481033
aS'-'
asS'LSM14A'
p2054
(lp2055
I34172566
aI34229515
aS'+'
asS'AC010507.2'
p2056
(lp2057
I200499
aI201174
aS'-'
asS'AC010507.1'
p2058
(lp2059
I198052
aI200775
aS'+'
asS'APOE'
p2060
(lp2061
I44905754
aI44909393
aS'+'
asS'AC020922.1'
p2062
(lp2063
I55352301
aI55359516
aS'-'
asS'NR2C2AP'
p2064
(lp2065
I19201416
aI19203424
aS'-'
asS'AC010503.3'
p2066
(lp2067
I6552358
aI6554494
aS'-'
asS'OR1I1'
p2068
(lp2069
I15086980
aI15088221
aS'+'
asS'GDF15'
p2070
(lp2071
I18374731
aI18386208
aS'+'
asS'AC010522.1'
p2072
(lp2073
I57819726
aI57858941
aS'+'
asS'ZNF222'
p2074
(lp2075
I44025363
aI44033110
aS'+'
asS'ZNF223'
p2076
(lp2077
I44052009
aI44067991
aS'+'
asS'ZNF224'
p2078
(lp2079
I44094392
aI44109886
aS'+'
asS'ZNF225'
p2080
(lp2081
I44113358
aI44134816
aS'+'
asS'ZNF226'
p2082
(lp2083
I44165101
aI44178381
aS'+'
asS'ZNF227'
p2084
(lp2085
I44212528
aI44237267
aS'+'
asS'ZNF229'
p2086
(lp2087
I44417519
aI44448472
aS'-'
asS'AC005622.1'
p2088
(lp2089
I43690002
aI43700508
aS'+'
asS'SLC39A3'
p2090
(lp2091
I2732204
aI2740017
aS'-'
asS'PDE4C'
p2092
(lp2093
I18207961
aI18255419
aS'-'
asS'GZMM'
p2094
(lp2095
I544034
aI549924
aS'+'
asS'CABP5'
p2096
(lp2097
I48029953
aI48044053
aS'-'
asS'KIR2DL3'
p2098
(lp2099
I54738515
aI54753052
aS'+'
asS'KIR2DL1'
p2100
(lp2101
I54769811
aI54784322
aS'+'
asS'ZNF350'
p2102
(lp2103
I51964343
aI51986826
aS'-'
asS'USE1'
p2104
(lp2105
I17215359
aI17219829
aS'+'
asS'KIR2DL4'
p2106
(lp2107
I54803535
aI54814516
aS'+'
asS'PNMA8B'
p2108
(lp2109
I46486906
aI46495879
aS'-'
asS'PNMA8C'
p2110
(lp2111
I46424697
aI46428951
aS'-'
asS'PNMA8A'
p2112
(lp2113
I46466498
aI46471563
aS'-'
asS'ZNF358'
p2114
(lp2115
I7516118
aI7521026
aS'+'
asS'ZNF428'
p2116
(lp2117
I43607219
aI43619874
aS'-'
asS'ZNF429'
p2118
(lp2119
I21505604
aI21555397
aS'+'
asS'MYH14'
p2120
(lp2121
I50188186
aI50309790
aS'+'
asS'KIAA0355'
p2122
(lp2123
I34254537
aI34355586
aS'+'
asS'MTCO2P27'
p2124
(lp2125
I12504905
aI12505976
aS'+'
asS'HNRNPA1P52'
p2126
(lp2127
I41829692
aI41830938
aS'+'
asS'MBOAT7'
p2128
(lp2129
I54173413
aI54189882
aS'-'
asS'AC007204.2'
p2130
(lp2131
I19908268
aI19909146
aS'-'
asS'BLVRB'
p2132
(lp2133
I40447789
aI40465840
aS'-'
asS'ZSCAN5A'
p2134
(lp2135
I56221312
aI56368383
aS'-'
asS'ZSCAN5C'
p2136
(lp2137
I56202301
aI56209452
aS'+'
asS'ZSCAN5B'
p2138
(lp2139
I56189570
aI56197920
aS'-'
asS'CDC34'
p2140
(lp2141
I531712
aI542092
aS'+'
asS'P2RY11'
p2142
(lp2143
I10111538
aI10115372
aS'+'
asS'CDC37'
p2144
(lp2145
I10393260
aI10420121
aS'-'
asS'AC024563.2'
p2146
(lp2147
I22708834
aI22709314
aS'-'
asS'AC007229.1'
p2148
(lp2149
I10841839
aI10842250
aS'+'
asS'SPIB'
p2150
(lp2151
I50418938
aI50431313
aS'+'
asS'SCAF1'
p2152
(lp2153
I49642125
aI49658642
aS'+'
asS'APBA3'
p2154
(lp2155
I3750880
aI3761699
aS'-'
asS'VN1R105P'
p2156
(lp2157
I54647944
aI54648853
aS'+'
asS'PGLS'
p2158
(lp2159
I17511629
aI17521288
aS'+'
asS'NTN5'
p2160
(lp2161
I48661407
aI48673007
aS'-'
asS'SIGLEC31P'
p2162
(lp2163
I56589495
aI56590281
aS'-'
asS'WDR87'
p2164
(lp2165
I37884823
aI37906613
aS'-'
asS'WDR83'
p2166
(lp2167
I12666800
aI12675832
aS'+'
asS'WDR88'
p2168
(lp2169
I33132092
aI33175795
aS'+'
asS'AC010618.1'
p2170
(lp2171
I17589595
aI17590071
aS'-'
asS'AC010422.3'
p2172
(lp2173
I12643831
aI12648397
aS'-'
asS'ACER1'
p2174
(lp2175
I6306142
aI6333629
aS'-'
asS'AC010422.5'
p2176
(lp2177
I12664828
aI12669397
aS'-'
asS'AC011491.1'
p2178
(lp2179
I6393809
aI6411777
aS'+'
asS'AC010422.6'
p2180
(lp2181
I12525720
aI12580975
aS'-'
asS'ATP13A1'
p2182
(lp2183
I19645203
aI19663693
aS'-'
asS'AC011493.1'
p2184
(lp2185
I23492428
aI23512656
aS'-'
asS'NUMBL'
p2186
(lp2187
I40665905
aI40690651
aS'-'
asS'ADAT3'
p2188
(lp2189
I1905378
aI1913447
aS'+'
asS'AC011499.1'
p2190
(lp2191
I5784005
aI5785619
aS'-'
asS'GPR42'
p2192
(lp2193
I35370929
aI35372962
aS'+'
asS'AC011487.1'
p2194
(lp2195
I53503819
aI53512687
aS'+'
asS'AC011487.3'
p2196
(lp2197
I53616802
aI53617254
aS'+'
asS'NKPD1'
p2198
(lp2199
I45149750
aI45158737
aS'-'
asS'AC011487.4'
p2200
(lp2201
I53512092
aI53512616
aS'-'
asS'FUT6'
p2202
(lp2203
I5830626
aI5839731
aS'-'
asS'FUT5'
p2204
(lp2205
I5865826
aI5870540
aS'-'
asS'FUT3'
p2206
(lp2207
I5842891
aI5851474
aS'-'
asS'FUT2'
p2208
(lp2209
I48695975
aI48705950
aS'+'
asS'FUT1'
p2210
(lp2211
I48748011
aI48755390
aS'-'
asS'PPP1R13L'
p2212
(lp2213
I45379638
aI45406349
aS'-'
asS'AC245052.2'
p2214
(lp2215
I54209092
aI54209418
aS'-'
asS'EEF2'
p2216
(lp2217
I3976056
aI3985469
aS'-'
asS'MIA'
p2218
(lp2219
I40771648
aI40775761
aS'+'
asS'C5AR2'
p2220
(lp2221
I47332147
aI47347327
aS'+'
asS'IZUMO1'
p2222
(lp2223
I48740888
aI48746909
aS'-'
asS'IZUMO2'
p2224
(lp2225
I50152548
aI50163195
aS'-'
asS'C5AR1'
p2226
(lp2227
I47297075
aI47320186
aS'+'
asS'IZUMO4'
p2228
(lp2229
I2096859
aI2099593
aS'+'
asS'AC245052.6'
p2230
(lp2231
I54246101
aI54247322
aS'-'
asS'USP29'
p2232
(lp2233
I57120043
aI57131926
aS'+'
asS'RPL9P33'
p2234
(lp2235
I51621136
aI51621701
aS'+'
asS'RPL9P32'
p2236
(lp2237
I29956369
aI29956988
aS'-'
asS'DDX39A'
p2238
(lp2239
I14408819
aI14419337
aS'-'
asS'PHF5CP'
p2240
(lp2241
I19588091
aI19588415
aS'-'
asS'ARHGEF1'
p2242
(lp2243
I41895379
aI41930150
aS'+'
asS'AC022146.1'
p2244
(lp2245
I8173272
aI8175567
aS'+'
asS'BRI3BPP1'
p2246
(lp2247
I21800480
aI21801266
aS'+'
asS'LIPE'
p2248
(lp2249
I42401507
aI42427426
aS'-'
asS'RPL23AP2'
p2250
(lp2251
I15611657
aI15612122
aS'+'
asS'DPRX'
p2252
(lp2253
I53632056
aI53637009
aS'+'
asS'SIGLEC16'
p2254
(lp2255
I49969673
aI49975814
aS'+'
asS'AC008758.1'
p2256
(lp2257
I12461559
aI12551474
aS'-'
asS'SIGLEC14'
p2258
(lp2259
I51642553
aI51646801
aS'-'
asS'AC008758.3'
p2260
(lp2261
I12379746
aI12383687
aS'-'
asS'PALM'
p2262
(lp2263
I708939
aI748329
aS'+'
asS'AC008758.5'
p2264
(lp2265
I12391949
aI12441082
aS'-'
asS'PEX11G'
p2266
(lp2267
I7476876
aI7497449
aS'-'
asS'SIGLEC11'
p2268
(lp2269
I49948985
aI49961172
aS'-'
asS'C19orf57'
p2270
(lp2271
I13882355
aI13906165
aS'-'
asS'VN1R85P'
p2272
(lp2273
I22174766
aI22175191
aS'-'
asS'PAFAH1B3'
p2274
(lp2275
I42297033
aI42302777
aS'-'
asS'KPTN'
p2276
(lp2277
I47475144
aI47484268
aS'-'
asS'AZU1'
p2278
(lp2279
I825097
aI832017
aS'+'
asS'PLEKHA4'
p2280
(lp2281
I48837097
aI48868632
aS'-'
asS'EID2'
p2282
(lp2283
I39538705
aI39540333
aS'-'
asS'AC092066.1'
p2284
(lp2285
I44765148
aI44765464
aS'+'
asS'ZNF699'
p2286
(lp2287
I9294275
aI9309573
aS'-'
asS'ZNF833P'
p2288
(lp2289
I11680944
aI11686259
aS'+'
asS'AC010487.3'
p2290
(lp2291
I52880663
aI52962768
aS'-'
asS'AC010487.1'
p2292
(lp2293
I52861807
aI52864151
aS'-'
asS'NMRK2'
p2294
(lp2295
I3933103
aI3942416
aS'+'
asS'AC010487.4'
p2296
(lp2297
I52865369
aI52865429
aS'-'
asS'RRAS'
p2298
(lp2299
I49635292
aI49640201
aS'-'
asS'ZNF20'
p2300
(lp2301
I12092843
aI12140341
aS'-'
asS'DHX34'
p2302
(lp2303
I47349281
aI47382704
aS'+'
asS'RUVBL2'
p2304
(lp2305
I48993448
aI49015995
aS'+'
asS'OSCAR'
p2306
(lp2307
I54094670
aI54102692
aS'-'
asS'U2AF2'
p2308
(lp2309
I55654146
aI55674715
aS'+'
asS'VN1R2'
p2310
(lp2311
I53259210
aI53261837
aS'+'
asS'AC063977.5'
p2312
(lp2313
I51280862
aI51283022
aS'+'
asS'VN1R1'
p2314
(lp2315
I57454790
aI57457142
aS'-'
asS'AC063977.1'
p2316
(lp2317
I51143826
aI51144196
aS'+'
asS'VN1R4'
p2318
(lp2319
I53266676
aI53267723
aS'-'
asS'ZNF765'
p2320
(lp2321
I53395173
aI53430413
aS'+'
asS'ZNF766'
p2322
(lp2323
I52269571
aI52296046
aS'+'
asS'ZNF761'
p2324
(lp2325
I53431993
aI53450331
aS'+'
asS'ZNF763'
p2326
(lp2327
I11965054
aI11980381
aS'+'
asS'DHPS'
p2328
(lp2329
I12675721
aI12681902
aS'-'
asS'ZNF181'
p2330
(lp2331
I34734949
aI34745378
aS'+'
asS'ZNF180'
p2332
(lp2333
I44474428
aI44500522
aS'-'
asS'AC078899.1'
p2334
(lp2335
I20257720
aI20259418
aS'+'
asS'AC078899.3'
p2336
(lp2337
I20249052
aI20250295
aS'+'
asS'AC078899.2'
p2338
(lp2339
I20389658
aI20390689
aS'+'
asS'AC078899.5'
p2340
(lp2341
I20330121
aI20331517
aS'+'
asS'AC078899.4'
p2342
(lp2343
I20295089
aI20303794
aS'+'
asS'C3P1'
p2344
(lp2345
I10037803
aI10074135
aS'+'
asS'SHD'
p2346
(lp2347
I4278601
aI4290724
aS'+'
asS'ECSIT'
p2348
(lp2349
I11505916
aI11529174
aS'-'
asS'COX7A1'
p2350
(lp2351
I36150922
aI36152869
aS'-'
asS'CCDC8'
p2352
(lp2353
I46410372
aI46413584
aS'-'
asS'CCDC9'
p2354
(lp2355
I47256459
aI47271953
aS'+'
asS'ZNF28'
p2356
(lp2357
I52801310
aI52857600
aS'-'
asS'EPOR'
p2358
(lp2359
I11377205
aI11384312
aS'-'
asS'EGLN2'
p2360
(lp2361
I40799187
aI40808432
aS'+'
asS'CILP2'
p2362
(lp2363
I19538248
aI19546659
aS'+'
asS'MYBPC2'
p2364
(lp2365
I50432903
aI50466321
aS'+'
asS'ZNF507'
p2366
(lp2367
I32345594
aI32387667
aS'+'
asS'ZNF506'
p2368
(lp2369
I19785839
aI19821751
aS'-'
asS'ZNF235'
p2370
(lp2371
I44228729
aI44303432
aS'-'
asS'ZNF234'
p2372
(lp2373
I44141606
aI44160309
aS'+'
asS'ZNF233'
p2374
(lp2375
I44259880
aI44275309
aS'+'
asS'ZNF230'
p2376
(lp2377
I44002948
aI44013926
aS'+'
asS'EID2B'
p2378
(lp2379
I39530990
aI39532854
aS'-'
asS'SAMD4B'
p2380
(lp2381
I39342468
aI39384926
aS'+'
asS'CIB3'
p2382
(lp2383
I16161368
aI16173525
aS'-'
asS'USF2'
p2384
(lp2385
I35268978
aI35279815
aS'+'
asS'ZNF431'
p2386
(lp2387
I21142040
aI21196053
aS'+'
asS'ZNF430'
p2388
(lp2389
I21020620
aI21060050
aS'+'
asS'ZNF345'
p2390
(lp2391
I36850930
aI36913029
aS'+'
asS'ZNF432'
p2392
(lp2393
I52048810
aI52095738
aS'-'
asS'ZNF347'
p2394
(lp2395
I53124072
aI53159053
aS'-'
asS'CADM4'
p2396
(lp2397
I43622368
aI43639839
aS'-'
asS'ZNF439'
p2398
(lp2399
I11848812
aI11883750
aS'+'
asS'RANBP3'
p2400
(lp2401
I5916139
aI5978140
aS'-'
asS'CCDC194'
p2402
(lp2403
I17390509
aI17394158
aS'-'
asS'ZNF433'
p2404
(lp2405
I12014732
aI12035688
aS'-'
asS'DLL3'
p2406
(lp2407
I39498895
aI39508468
aS'+'
asS'AC002511.3'
p2408
(lp2409
I35407770
aI35408493
aS'+'
asS'NUDT19'
p2410
(lp2411
I32691961
aI32713796
aS'+'
asS'UHRF1'
p2412
(lp2413
I4903080
aI4962154
aS'+'
asS'AC005336.1'
p2414
(lp2415
I15910582
aI15911824
aS'-'
asS'AC006133.1'
p2416
(lp2417
I39726030
aI39726775
aS'-'
asS'TM6SF2'
p2418
(lp2419
I19264366
aI19273288
aS'-'
asS'PIP5K1C'
p2420
(lp2421
I3630183
aI3700479
aS'-'
asS'ACTL9'
p2422
(lp2423
I8697397
aI8698822
aS'-'
asS'KEAP1'
p2424
(lp2425
I10486120
aI10503741
aS'-'
asS'MYO9B'
p2426
(lp2427
I17075781
aI17213295
aS'+'
asS'TGFB1'
p2428
(lp2429
I41301587
aI41342030
aS'-'
asS'RPS12P31'
p2430
(lp2431
I32636078
aI32636475
aS'+'
asS'LGI4'
p2432
(lp2433
I35124666
aI35142451
aS'-'
asS'MEGF8'
p2434
(lp2435
I42325609
aI42378769
aS'+'
asS'PLPP2'
p2436
(lp2437
I281040
aI291504
aS'-'
asS'SLC5A5'
p2438
(lp2439
I17871973
aI17895174
aS'+'
asS'TYMSP2'
p2440
(lp2441
I35683778
aI35684201
aS'-'
asS'FKRP'
p2442
(lp2443
I46746057
aI46776988
aS'+'
asS'ARHGAP45'
p2444
(lp2445
I1065923
aI1086628
aS'+'
asS'RAVER1'
p2446
(lp2447
I10316212
aI10333640
aS'-'
asS'NOP53'
p2448
(lp2449
I47745522
aI47757058
aS'+'
asS'AURKC'
p2450
(lp2451
I57230802
aI57235547
aS'+'
asS'KRI1'
p2452
(lp2453
I10553078
aI10566037
aS'-'
asS'CDC42EP5'
p2454
(lp2455
I54465026
aI54473264
aS'-'
asS'AC011458.1'
p2456
(lp2457
I19708965
aI19710465
aS'+'
asS'AC011458.2'
p2458
(lp2459
I19699203
aI19699409
aS'-'
asS'AC010319.1'
p2460
(lp2461
I17417031
aI17418288
aS'-'
asS'AC010319.2'
p2462
(lp2463
I17436611
aI17460804
aS'-'
asS'POU2F2'
p2464
(lp2465
I42117266
aI42196585
aS'-'
asS'RAB4B'
p2466
(lp2467
I40778266
aI40796935
aS'+'
asS'RPL21P129'
p2468
(lp2469
I7750684
aI7751161
aS'+'
asS'NDUFB7'
p2470
(lp2471
I14566078
aI14572062
aS'-'
asS'SYMPK'
p2472
(lp2473
I45815435
aI45863290
aS'-'
asS'FCHO1'
p2474
(lp2475
I17747718
aI17788568
aS'+'
asS'GPR32'
p2476
(lp2477
I50770464
aI50771732
aS'+'
asS'AXL'
p2478
(lp2479
I41219203
aI41261766
aS'+'
asS'AC020915.1'
p2480
(lp2481
I58305319
aI58315663
aS'+'
asS'AC005559.1'
p2482
(lp2483
I590430
aI591300
aS'-'
asS'AC020915.2'
p2484
(lp2485
I58278966
aI58315197
aS'+'
asS'AC020915.5'
p2486
(lp2487
I58224506
aI58225469
aS'+'
asS'AC005779.2'
p2488
(lp2489
I45179822
aI45202444
aS'+'
asS'AC020915.6'
p2490
(lp2491
I58228914
aI58315183
aS'+'
asS'STAP2'
p2492
(lp2493
I4324044
aI4342786
aS'-'
asS'IRF2BP1'
p2494
(lp2495
I45883607
aI45886170
aS'-'
asS'QPCTL'
p2496
(lp2497
I45692483
aI45703989
aS'+'
asS'CTU1'
p2498
(lp2499
I51097606
aI51108370
aS'-'
asS'RPL10P15'
p2500
(lp2501
I9820141
aI9820455
aS'+'
asS'VRK3'
p2502
(lp2503
I49976760
aI50025946
aS'-'
asS'PLD3'
p2504
(lp2505
I40348685
aI40378483
aS'+'
asS'AC008567.1'
p2506
(lp2507
I9518150
aI9519341
aS'+'
asS'AC008543.2'
p2508
(lp2509
I11756533
aI11759933
aS'-'
asS'VN2R19P'
p2510
(lp2511
I58012589
aI58025926
aS'-'
asS'MED29'
p2512
(lp2513
I39391311
aI39400637
aS'+'
asS'ERVV-1'
p2514
(lp2515
I53013921
aI53016122
aS'+'
asS'DOCK6'
p2516
(lp2517
I11199295
aI11262452
aS'-'
asS'OR7A5'
p2518
(lp2519
I14792490
aI14835376
aS'-'
asS'OR7E25P'
p2520
(lp2521
I9204308
aI9205217
aS'+'
asS'CC2D1A'
p2522
(lp2523
I13906201
aI13930879
aS'+'
asS'ACSBG2'
p2524
(lp2525
I6135635
aI6193094
aS'+'
asS'XRCC1'
p2526
(lp2527
I43543040
aI43576006
aS'-'
asS'AC104532.1'
p2528
(lp2529
I5904841
aI5914707
aS'+'
asS'OR4G3P'
p2530
(lp2531
I94062
aI94974
aS'+'
asS'LIM2'
p2532
(lp2533
I51379910
aI51387960
aS'-'
asS'SEC1P'
p2534
(lp2535
I48638099
aI48682245
aS'+'
asS'FAM187B2P'
p2536
(lp2537
I35232291
aI35233003
aS'-'
asS'MEIS3'
p2538
(lp2539
I47403124
aI47419523
aS'-'
asS'CLDND2'
p2540
(lp2541
I51367098
aI51369003
aS'-'
asS'CCER2'
p2542
(lp2543
I38908980
aI38912158
aS'-'
asS'FAM98C'
p2544
(lp2545
I38403135
aI38409084
aS'+'
asS'AC025588.1'
p2546
(lp2547
I57175233
aI57177921
aS'+'
asS'AC025588.2'
p2548
(lp2549
I57150513
aI57150978
aS'+'
asS'AC025588.3'
p2550
(lp2551
I57151587
aI57151860
aS'-'
asS'MIER2'
p2552
(lp2553
I301444
aI344782
aS'-'
asS'EPN1'
p2554
(lp2555
I55675226
aI55709533
aS'+'
asS'TGIF1P1'
p2556
(lp2557
I46136746
aI46137547
aS'-'
asS'KIR3DL1'
p2558
(lp2559
I54816468
aI54830778
aS'+'
asS'KIR3DL2'
p2560
(lp2561
I54850443
aI54867207
aS'+'
asS'KIR3DL3'
p2562
(lp2563
I54724479
aI54736536
aS'+'
asS'VN1R82P'
p2564
(lp2565
I21188598
aI21188953
aS'+'
asS'LMNB2'
p2566
(lp2567
I2428166
aI2456996
aS'-'
asS'RPSAP58'
p2568
(lp2569
I23827162
aI23828049
aS'+'
asS'FGF22'
p2570
(lp2571
I639895
aI644371
aS'+'
asS'FGF21'
p2572
(lp2573
I48755559
aI48758330
aS'+'
asS'C2CD4C'
p2574
(lp2575
I405438
aI409170
aS'-'
asS'SMIM17'
p2576
(lp2577
I56643145
aI56655766
aS'+'
asS'AC044792.1'
p2578
(lp2579
I56922018
aI56922213
aS'+'
asS'MOB3A'
p2580
(lp2581
I2071038
aI2096332
aS'-'
asS'AC093063.1'
p2582
(lp2583
I39693925
aI39696258
aS'+'
asS'ZNF30'
p2584
(lp2585
I34926903
aI34945170
aS'+'
asS'RPL12P42'
p2586
(lp2587
I13157959
aI13158788
aS'-'
asS'KCNA7'
p2588
(lp2589
I49067418
aI49072941
aS'-'
asS'SH3GL1'
p2590
(lp2591
I4360370
aI4400547
aS'-'
asS'ZNF534'
p2592
(lp2593
I52429187
aI52452315
aS'+'
asS'ZNF536'
p2594
(lp2595
I30228514
aI30548468
aS'+'
asS'CEACAM20'
p2596
(lp2597
I44501677
aI44529788
aS'-'
asS'CEACAM21'
p2598
(lp2599
I41549518
aI41586843
aS'+'
asS'GPR32P1'
p2600
(lp2601
I50758382
aI50759192
aS'+'
asS'GAPDHP38'
p2602
(lp2603
I46558641
aI46559642
aS'+'
asS'AC011452.1'
p2604
(lp2605
I49909501
aI49958391
aS'-'
asS'AC092364.2'
p2606
(lp2607
I21750747
aI21753438
aS'+'
asS'AC245884.12'
p2608
(lp2609
I54296194
aI54296252
aS'-'
asS'RPL23AP80'
p2610
(lp2611
I47794467
aI47794890
aS'-'
asS'RPS28'
p2612
(lp2613
I8321500
aI8323340
aS'+'
asS'MVB12A'
p2614
(lp2615
I17405741
aI17424989
aS'+'
asS'HNRNPA1P10'
p2616
(lp2617
I11666069
aI11667030
aS'-'
asS'HSD11B1L'
p2618
(lp2619
I5680765
aI5688522
aS'+'
asS'CAPN12'
p2620
(lp2621
I38730431
aI38769904
aS'-'
asS'AC073539.7'
p2622
(lp2623
I22215634
aI22215661
aS'-'
asS'ZNF404'
p2624
(lp2625
I43881640
aI43901385
aS'-'
asS'AC073539.2'
p2626
(lp2627
I22130325
aI22130489
aS'+'
asS'LENG1'
p2628
(lp2629
I54155161
aI54159882
aS'-'
asS'GATAD2A'
p2630
(lp2631
I19385833
aI19508931
aS'+'
asS'SARS2'
p2632
(lp2633
I38915266
aI38930896
aS'-'
asS'RPL34P34'
p2634
(lp2635
I22368599
aI22368952
aS'-'
asS'RPL21P131'
p2636
(lp2637
I33589206
aI33589688
aS'-'
asS'RPL34P33'
p2638
(lp2639
I22699352
aI22699685
aS'+'
asS'HSH2D'
p2640
(lp2641
I16134028
aI16158570
aS'+'
asS'SIGLEC29P'
p2642
(lp2643
I51563797
aI51564910
aS'-'
asS'AC008758.6'
p2644
(lp2645
I12433103
aI12484816
aS'-'
asS'MLLT1'
p2646
(lp2647
I6210379
aI6279948
aS'-'
asS'NPAS1'
p2648
(lp2649
I47019820
aI47045775
aS'+'
asS'VN1R84P'
p2650
(lp2651
I21719801
aI21720035
aS'-'
asS'LETM1P2'
p2652
(lp2653
I58044592
aI58046769
aS'+'
asS'GTPBP3'
p2654
(lp2655
I17334920
aI17341968
aS'+'
asS'PPP6R1'
p2656
(lp2657
I55229780
aI55258995
aS'-'
asS'FCGBP'
p2658
(lp2659
I39863323
aI39934626
aS'-'
asS'ARID3A'
p2660
(lp2661
I926037
aI975934
aS'+'
asS'TSEN34'
p2662
(lp2663
I54190268
aI54194536
aS'+'
asS'AC010326.1'
p2664
(lp2665
I57953158
aI57953759
aS'-'
asS'OR7G2'
p2666
(lp2667
I9102269
aI9103306
aS'-'
asS'OR7G3'
p2668
(lp2669
I9126012
aI9126950
aS'-'
asS'BCL3'
p2670
(lp2671
I44747705
aI44759486
aS'+'
asS'OR7G1'
p2672
(lp2673
I9114828
aI9115763
aS'-'
asS'MAN2B1'
p2674
(lp2675
I12646513
aI12666742
aS'-'
asS'QTRT1'
p2676
(lp2677
I10701454
aI10713437
aS'+'
asS'PLK5'
p2678
(lp2679
I1524074
aI1535453
aS'+'
asS'AC124856.1'
p2680
(lp2681
I23125665
aI23128543
aS'+'
asS'LRFN3'
p2682
(lp2683
I35935550
aI35945767
aS'+'
asS'AC004790.1'
p2684
(lp2685
I16037009
aI16038455
aS'-'
asS'LRFN1'
p2686
(lp2687
I39306568
aI39315336
aS'-'
asS'CBARP'
p2688
(lp2689
I1228287
aI1238027
aS'-'
asS'CYP2B7P'
p2690
(lp2691
I40924219
aI40950660
aS'+'
asS'TTC9B'
p2692
(lp2693
I40216058
aI40218399
aS'-'
asS'NOSIP'
p2694
(lp2695
I49556549
aI49590262
aS'-'
asS'C19orf43'
p2696
(lp2697
I12730640
aI12734775
aS'-'
asS'C19orf44'
p2698
(lp2699
I16496311
aI16521350
aS'+'
asS'C19orf47'
p2700
(lp2701
I40319536
aI40348527
aS'-'
asS'C19orf48'
p2702
(lp2703
I50797704
aI50804929
aS'-'
asS'AC002985.1'
p2704
(lp2705
I18907013
aI18934397
aS'-'
asS'L34079.1'
p2706
(lp2707
I43554692
aI43593036
aS'-'
asS'FSTL3'
p2708
(lp2709
I676365
aI683399
aS'+'
asS'IPO5P1'
p2710
(lp2711
I23255053
aI23257939
aS'-'
asS'TTYH1'
p2712
(lp2713
I54415431
aI54436900
aS'+'
asS'CTBP2P7'
p2714
(lp2715
I36496916
aI36498159
aS'-'
asS'WBP1LP11'
p2716
(lp2717
I145485
aI145812
aS'+'
asS'CSNK1G2'
p2718
(lp2719
I1941149
aI1981338
aS'+'
asS'SNAPC2'
p2720
(lp2721
I7920316
aI7923250
aS'+'
asS'AC011551.1'
p2722
(lp2723
I46533669
aI46534351
aS'+'
asS'ZNF442'
p2724
(lp2725
I12345949
aI12365633
aS'-'
asS'GSK3A'
p2726
(lp2727
I42230186
aI42242593
aS'-'
asS'ATP8B3'
p2728
(lp2729
I1782075
aI1812276
aS'-'
asS'CYP4F11'
p2730
(lp2731
I15912367
aI15934867
aS'-'
asS'AC006116.2'
p2732
(lp2733
I56342432
aI56343419
aS'-'
asS'AC006116.3'
p2734
(lp2735
I56338288
aI56338648
aS'-'
asS'AC006116.1'
p2736
(lp2737
I56319790
aI56322310
aS'-'
asS'KDELR1'
p2738
(lp2739
I48382570
aI48391553
aS'-'
asS'SPC24'
p2740
(lp2741
I11131520
aI11155782
aS'-'
asS'ZSCAN5DP'
p2742
(lp2743
I56244043
aI56247482
aS'+'
asS'ZFP14'
p2744
(lp2745
I36334453
aI36379199
aS'-'
asS'AMH'
p2746
(lp2747
I2249311
aI2252073
aS'+'
asS'RPL23AP78'
p2748
(lp2749
I8728735
aI8729204
aS'-'
asS'AC008763.2'
p2750
(lp2751
I7629796
aI7643048
aS'+'
asS'AC008763.3'
p2752
(lp2753
I7678501
aI7682854
aS'+'
asS'AKT1S1'
p2754
(lp2755
I49869033
aI49878356
aS'-'
asS'ZBTB32'
p2756
(lp2757
I35704527
aI35717038
aS'+'
asS'RNF225'
p2758
(lp2759
I58396090
aI58397079
aS'+'
asS'SIRT2'
p2760
(lp2761
I38878555
aI38899862
aS'-'
asS'OR7A15P'
p2762
(lp2763
I14927058
aI14928024
aS'+'
asS'SIRT6'
p2764
(lp2765
I4174109
aI4182604
aS'-'
asS'TMEM91'
p2766
(lp2767
I41350911
aI41384083
aS'+'
asS'BICRA'
p2768
(lp2769
I47608196
aI47703277
aS'+'
asS'SGTA'
p2770
(lp2771
I2754714
aI2783371
aS'-'
asS'AC025278.2'
p2772
(lp2773
I7005012
aI7006074
aS'-'
asS'AC011473.4'
p2774
(lp2775
I51000550
aI51009581
aS'-'
asS'AC025278.3'
p2776
(lp2777
I7011884
aI7012679
aS'+'
asS'FSD1'
p2778
(lp2779
I4304600
aI4323836
aS'+'
asS'AC011471.1'
p2780
(lp2781
I6176256
aI6176442
aS'-'
asS'AC011471.4'
p2782
(lp2783
I6199405
aI6205121
aS'+'
asS'NWD1'
p2784
(lp2785
I16719980
aI16817963
aS'+'
asS'AC010328.2'
p2786
(lp2787
I53004040
aI53005150
aS'+'
asS'AC011477.5'
p2788
(lp2789
I19768731
aI19768989
aS'+'
asS'AC011477.6'
p2790
(lp2791
I19750618
aI19752544
aS'+'
asS'AC011477.7'
p2792
(lp2793
I19740884
aI19750127
aS'+'
asS'AC011477.1'
p2794
(lp2795
I19776602
aI19834927
aS'+'
asS'AC008805.1'
p2796
(lp2797
I32824142
aI32824505
aS'-'
asS'AD000671.1'
p2798
(lp2799
I35745678
aI35754519
aS'+'
asS'RINL'
p2800
(lp2801
I38868982
aI38878279
aS'-'
asS'AD000671.2'
p2802
(lp2803
I35739252
aI35745432
aS'-'
asS'AC010326.4'
p2804
(lp2805
I57867885
aI57868775
aS'+'
asS'ZNF211'
p2806
(lp2807
I57630395
aI57642226
aS'+'
asS'PBX4'
p2808
(lp2809
I19561713
aI19618916
aS'-'
asS'ATP5D'
p2810
(lp2811
I1241746
aI1244825
aS'+'
asS'AC008813.1'
p2812
(lp2813
I52809824
aI52810708
aS'+'
asS'AC010320.5'
p2814
(lp2815
I52241765
aI52242440
aS'-'
asS'ZNF749'
p2816
(lp2817
I57435329
aI57445485
aS'+'
asS'ODF3L2'
p2818
(lp2819
I463346
aI474983
aS'-'
asS'TRMT1'
p2820
(lp2821
I13104907
aI13117567
aS'-'
asS'LILRA5'
p2822
(lp2823
I54307070
aI54313139
aS'-'
asS'TBXA2R'
p2824
(lp2825
I3594506
aI3606840
aS'-'
asS'CGB8'
p2826
(lp2827
I49047638
aI49049106
aS'-'
asS'CGB5'
p2828
(lp2829
I49043884
aI49045311
aS'+'
asS'CGB7'
p2830
(lp2831
I49054275
aI49058860
aS'-'
asS'CGB1'
p2832
(lp2833
I49035653
aI49036895
aS'-'
asS'CGB2'
p2834
(lp2835
I49031978
aI49033238
aS'+'
asS'CGB3'
p2836
(lp2837
I49022869
aI49024333
aS'-'
asS'AD000091.1'
p2838
(lp2839
I15611623
aI15611909
aS'-'
asS'MPV17L2'
p2840
(lp2841
I18193250
aI18196948
aS'+'
asS'UNC13A'
p2842
(lp2843
I17601328
aI17688199
aS'-'
asS'FAM187B'
p2844
(lp2845
I35224800
aI35228729
aS'-'
asS'SYNE4'
p2846
(lp2847
I36003310
aI36008793
aS'-'
asS'HNRNPUL1'
p2848
(lp2849
I41262496
aI41307598
aS'+'
asS'ZNF527'
p2850
(lp2851
I37371181
aI37393066
aS'+'
asS'ZNF526'
p2852
(lp2853
I42220271
aI42228201
aS'+'
asS'ZNF525'
p2854
(lp2855
I53365729
aI53392217
aS'+'
asS'ZNF524'
p2856
(lp2857
I55600369
aI55603136
aS'+'
asS'ZNF529'
p2858
(lp2859
I36548101
aI36605276
aS'-'
asS'ZNF528'
p2860
(lp2861
I52397849
aI52418403
aS'+'
asS'MTDHP3'
p2862
(lp2863
I21677550
aI21678221
aS'-'
asS'SIGLEC12'
p2864
(lp2865
I51491364
aI51501789
aS'-'
asS'EMP3'
p2866
(lp2867
I48321509
aI48329439
aS'+'
asS'RPS11'
p2868
(lp2869
I49496365
aI49499689
aS'+'
asS'RPS16'
p2870
(lp2871
I39433207
aI39435948
aS'-'
asS'RPS15'
p2872
(lp2873
I1438358
aI1440494
aS'+'
asS'CLPP'
p2874
(lp2875
I6361452
aI6368908
aS'+'
asS'RPS19'
p2876
(lp2877
I41859918
aI41872926
aS'+'
asS'ZNF254'
p2878
(lp2879
I24033405
aI24129961
aS'+'
asS'ZNF257'
p2880
(lp2881
I22052489
aI22091480
aS'+'
asS'ZNF256'
p2882
(lp2883
I57940833
aI57947671
aS'-'
asS'EIF5AP3'
p2884
(lp2885
I45128569
aI45129030
aS'+'
asS'DCAF15'
p2886
(lp2887
I13952492
aI13961449
aS'+'
asS'SIGLEC10'
p2888
(lp2889
I51410021
aI51417803
aS'-'
asS'CYP4F23P'
p2890
(lp2891
I15564074
aI15584709
aS'+'
asS'ZNF419'
p2892
(lp2893
I57487741
aI57496097
aS'+'
asS'ZNF418'
p2894
(lp2895
I57921884
aI57935372
aS'-'
asS'ZNF417'
p2896
(lp2897
I57900296
aI57912167
aS'-'
asS'ZNF416'
p2898
(lp2899
I57571566
aI57578927
aS'-'
asS'ZNF415'
p2900
(lp2901
I53107880
aI53132918
aS'-'
asS'ZNF414'
p2902
(lp2903
I8509678
aI8514160
aS'-'
asS'DAPK3'
p2904
(lp2905
I3958453
aI3971070
aS'-'
asS'RAX2'
p2906
(lp2907
I3769089
aI3772221
aS'-'
asS'RFXANK'
p2908
(lp2909
I19192230
aI19201869
aS'+'
asS'DPY19L3'
p2910
(lp2911
I32405749
aI32485889
aS'+'
asS'KCNJ14'
p2912
(lp2913
I48455509
aI48466021
aS'+'
asS'RPL31P60'
p2914
(lp2915
I32963499
aI32963865
aS'+'
asS'RPL31P61'
p2916
(lp2917
I36901742
aI36902117
aS'+'
asS'MCOLN1'
p2918
(lp2919
I7522626
aI7534009
aS'+'
asS'AC003002.4'
p2920
(lp2921
I57390008
aI57419994
aS'+'
asS'AC003002.3'
p2922
(lp2923
I57394183
aI57438457
aS'+'
asS'AC003002.2'
p2924
(lp2925
I57363566
aI57398584
aS'+'
asS'AC003002.1'
p2926
(lp2927
I57363511
aI57365353
aS'+'
asS'DAZAP1'
p2928
(lp2929
I1407569
aI1435684
aS'+'
asS'PTPRS'
p2930
(lp2931
I5158495
aI5340803
aS'-'
asS'ACTN4'
p2932
(lp2933
I38647670
aI38731583
aS'+'
asS'LILRP1'
p2934
(lp2935
I54696604
aI54700905
aS'+'
asS'LILRP2'
p2936
(lp2937
I54707916
aI54713453
aS'+'
asS'CREB3L3'
p2938
(lp2939
I4153601
aI4173054
aS'+'
asS'PTPRH'
p2940
(lp2941
I55181248
aI55209456
aS'-'
asS'UBL5'
p2942
(lp2943
I9827892
aI9830115
aS'+'
asS'STK11'
p2944
(lp2945
I1177558
aI1219386
aS'+'
asS'HMGN1P32'
p2946
(lp2947
I53767971
aI53768553
aS'-'
asS'FKBP8'
p2948
(lp2949
I18531762
aI18543660
aS'-'
asS'AC008750.6'
p2950
(lp2951
I51426347
aI51426668
aS'-'
asS'NAPSA'
p2952
(lp2953
I50358477
aI50365830
aS'-'
asS'NAPSB'
p2954
(lp2955
I50333800
aI50344761
aS'-'
asS'TYROBP'
p2956
(lp2957
I35904401
aI35908295
aS'-'
asS'SLC27A1'
p2958
(lp2959
I17470444
aI17506168
aS'+'
asS'MAN1A2P1'
p2960
(lp2961
I28790812
aI28792871
aS'-'
asS'DMPK'
p2962
(lp2963
I45769717
aI45782552
aS'-'
asS'OR7D2'
p2964
(lp2965
I9185594
aI9188817
aS'+'
asS'AC010632.3'
p2966
(lp2967
I37024886
aI37025254
aS'-'
asS'OR7D4'
p2968
(lp2969
I9213850
aI9214871
aS'-'
asS'AC008403.1'
p2970
(lp2971
I48465837
aI48472431
aS'+'
asS'CEACAMP11'
p2972
(lp2973
I43278933
aI43284318
aS'-'
asS'C19orf53'
p2974
(lp2975
I13774168
aI13778461
aS'+'
asS'LMTK3'
p2976
(lp2977
I48485271
aI48513189
aS'-'
asS'C19orf54'
p2978
(lp2979
I40741692
aI40751553
aS'-'
asS'PRR12'
p2980
(lp2981
I49591643
aI49626439
aS'+'
asS'PRR19'
p2982
(lp2983
I42302098
aI42310813
aS'+'
asS'DIRAS1'
p2984
(lp2985
I2714567
aI2721418
aS'-'
asS'HSD17B14'
p2986
(lp2987
I48813017
aI48836678
aS'-'
asS'TNFSF14'
p2988
(lp2989
I6661253
aI6670117
aS'-'
asS'RPS10P28'
p2990
(lp2991
I42670005
aI42670816
aS'+'
asS'GEMIN7'
p2992
(lp2993
I45079262
aI45091524
aS'+'
asS'SEPT7P8'
p2994
(lp2995
I53772506
aI53773280
aS'-'
asS'TNNT1'
p2996
(lp2997
I55132794
aI55149354
aS'-'
asS'IFNL1'
p2998
(lp2999
I39296325
aI39298673
aS'+'
asS'IFNL2'
p3000
(lp3001
I39268514
aI39270092
aS'+'
asS'IFNL3'
p3002
(lp3003
I39243553
aI39245129
aS'-'
asS'IFNL4'
p3004
(lp3005
I39246314
aI39248856
aS'-'
asS'ZNF92P2'
p3006
(lp3007
I22128627
aI22130318
aS'-'
asS'ZNF92P3'
p3008
(lp3009
I23935220
aI23936173
aS'+'
asS'TIMM13'
p3010
(lp3011
I2425624
aI2427894
aS'-'
asS'RPL10P16'
p3012
(lp3013
I12643275
aI12643919
aS'-'
asS'CLIC4P2'
p3014
(lp3015
I6562123
aI6563848
aS'-'
asS'IRGQ'
p3016
(lp3017
I43584369
aI43596135
aS'-'
asS'ERVV-2'
p3018
(lp3019
I53044738
aI53051076
aS'+'
asS'ZFP28'
p3020
(lp3021
I56538948
aI56556810
aS'+'
asS'AC008481.1'
p3022
(lp3023
I11523436
aI11523831
aS'+'
asS'AC006272.2'
p3024
(lp3025
I51842878
aI51843315
aS'-'
asS'AC008481.3'
p3026
(lp3027
I11466240
aI11505698
aS'-'
asS'AC008481.2'
p3028
(lp3029
I11521968
aI11522498
aS'+'
asS'IRGC'
p3030
(lp3031
I43716010
aI43720021
aS'+'
asS'SIGLEC18P'
p3032
(lp3033
I51119987
aI51122965
aS'+'
asS'FTL'
p3034
(lp3035
I48965301
aI48966878
aS'+'
asS'ZNRF4'
p3036
(lp3037
I5455431
aI5456856
aS'+'
asS'SBSN'
p3038
(lp3039
I35523367
aI35528351
aS'-'
asS'ZC3H4'
p3040
(lp3041
I47064187
aI47113752
aS'-'
asS'RPL7AP10'
p3042
(lp3043
I21149648
aI21150438
aS'-'
asS'IL12RB1'
p3044
(lp3045
I18058995
aI18098944
aS'-'
asS'GPX4'
p3046
(lp3047
I1103926
aI1106787
aS'+'
asS'AC005786.1'
p3048
(lp3049
I3568120
aI3568273
aS'-'
asS'ABHD17A'
p3050
(lp3051
I1876810
aI1885547
aS'-'
asS'KLHL26'
p3052
(lp3053
I18636965
aI18671714
aS'+'
asS'CAPNS1'
p3054
(lp3055
I36139575
aI36150352
aS'+'
asS'TLE2'
p3056
(lp3057
I2997646
aI3047635
aS'-'
asS'TLE6'
p3058
(lp3059
I2977446
aI2995184
aS'+'
asS'AC245128.2'
p3060
(lp3061
I54703952
aI54704235
aS'+'
asS'PRKCSH'
p3062
(lp3063
I11435288
aI11450965
aS'+'
asS'ZNF816-ZNF321P'
p3064
(lp3065
I52928475
aI52962823
aS'-'
asS'VN1R107P'
p3066
(lp3067
I57459912
aI57460120
aS'+'
asS'TFPT'
p3068
(lp3069
I54107013
aI54115675
aS'-'
asS'TPRG1LP1'
p3070
(lp3071
I57664280
aI57665039
aS'+'
asS'RSL24D1P8'
p3072
(lp3073
I12096424
aI12096915
aS'+'
asS'PLEKHA3P1'
p3074
(lp3075
I41521043
aI41521989
aS'-'
asS'GGN'
p3076
(lp3077
I38384265
aI38388026
aS'-'
asS'RPL7AP69'
p3078
(lp3079
I57065334
aI57066139
aS'+'
asS'TPRX2P'
p3080
(lp3081
I47860113
aI47861512
aS'+'
asS'ETV2'
p3082
(lp3083
I35641745
aI35644871
aS'+'
asS'ADGRL1'
p3084
(lp3085
I14147743
aI14206187
aS'-'
asS'GRAMD1A'
p3086
(lp3087
I34994784
aI35026471
aS'+'
asS'AC005357.1'
p3088
(lp3089
I27983032
aI27983332
aS'-'
asS'AC005357.2'
p3090
(lp3091
I27902595
aI27956684
aS'+'
asS'CEACAMP10'
p3092
(lp3093
I43211791
aI43248646
aS'-'
asS'EEF1DP1'
p3094
(lp3095
I14070342
aI14071237
aS'+'
asS'ZNF730'
p3096
(lp3097
I23075210
aI23136106
aS'+'
asS'ZNF880'
p3098
(lp3099
I52369951
aI52385795
aS'+'
asS'ZNF737'
p3100
(lp3101
I20543431
aI20565735
aS'-'
asS'MISP3'
p3102
(lp3103
I14072536
aI14075061
aS'+'
asS'ZNF738'
p3104
(lp3105
I21358930
aI21379300
aS'+'
asS'ZNF888'
p3106
(lp3107
I52904417
aI52923481
aS'-'
asS'ABCA7'
p3108
(lp3109
I1040103
aI1065569
aS'+'
asS'ZNF492'
p3110
(lp3111
I22634324
aI22667670
aS'+'
asS'AC010620.1'
p3112
(lp3113
I21221645
aI21222746
aS'-'
asS'AC007785.2'
p3114
(lp3115
I46111079
aI46113863
aS'-'
asS'AC092296.2'
p3116
(lp3117
I36421536
aI36422534
aS'+'
asS'AC010620.2'
p3118
(lp3119
I21225098
aI21245241
aS'-'
asS'PSMD8'
p3120
(lp3121
I38374536
aI38383824
aS'+'
asS'TMEM259'
p3122
(lp3123
I1009648
aI1021179
aS'-'
asS'KCNC3'
p3124
(lp3125
I50311942
aI50333515
aS'-'
asS'CICP19'
p3126
(lp3127
I193239
aI195595
aS'+'
asS'ZNF14'
p3128
(lp3129
I19710471
aI19733097
aS'-'
asS'ZNF17'
p3130
(lp3131
I57411164
aI57421939
aS'+'
asS'PPFIA3'
p3132
(lp3133
I49119389
aI49151021
aS'+'
asS'PPP5D1'
p3134
(lp3135
I46480796
aI46600932
aS'-'
asS'ZNF649'
p3136
(lp3137
I51889224
aI51905011
aS'-'
asS'CNOT3'
p3138
(lp3139
I54137728
aI54155681
aS'+'
asS'AC006130.2'
p3140
(lp3141
I2874950
aI2875592
aS'-'
asS'SIPA1L3'
p3142
(lp3143
I37907228
aI38208372
aS'+'
asS'LTBP4'
p3144
(lp3145
I40593166
aI40629818
aS'+'
asS'AC012618.1'
p3146
(lp3147
I12260126
aI12260537
aS'+'
asS'RTN2'
p3148
(lp3149
I45485289
aI45497061
aS'-'
asS'APC2'
p3150
(lp3151
I1450149
aI1473244
aS'+'
asS'ATP4A'
p3152
(lp3153
I35550043
aI35563658
aS'-'
asS'KIR2DP1'
p3154
(lp3155
I54755023
aI54767371
aS'+'
asS'IER2'
p3156
(lp3157
I13150433
aI13154908
aS'+'
asS'ZNF468'
p3158
(lp3159
I52838008
aI52857619
aS'-'
asS'MBD3'
p3160
(lp3161
I1573596
aI1592801
aS'-'
asS'LILRA6'
p3162
(lp3163
I54236592
aI54242768
aS'-'
asS'LILRA4'
p3164
(lp3165
I54333185
aI54339150
aS'-'
asS'ZNF461'
p3166
(lp3167
I36637192
aI36666819
aS'-'
asS'LILRA2'
p3168
(lp3169
I54573792
aI54590287
aS'+'
asS'LILRA1'
p3170
(lp3171
I54593660
aI54602090
aS'+'
asS'FBXO27'
p3172
(lp3173
I38990714
aI39026960
aS'-'
asS'TSPAN16'
p3174
(lp3175
I11296148
aI11326996
aS'+'
asS'REXO1'
p3176
(lp3177
I1815246
aI1848463
aS'-'
asS'PSG10P'
p3178
(lp3179
I42839368
aI42855718
aS'-'
asS'PGK1P2'
p3180
(lp3181
I12559571
aI12561105
aS'+'
asS'AC011495.1'
p3182
(lp3183
I49719498
aI49720081
aS'-'
asS'RASAL3'
p3184
(lp3185
I15451624
aI15464571
aS'-'
asS'BNIP3P36'
p3186
(lp3187
I22994968
aI22995847
aS'+'
asS'AC011497.2'
p3188
(lp3189
I42485076
aI42485714
aS'-'
asS'BNIP3P34'
p3190
(lp3191
I22773853
aI22774424
aS'+'
asS'ZNF264'
p3192
(lp3193
I57191500
aI57222846
aS'+'
asS'ZNF266'
p3194
(lp3195
I9412598
aI9435526
aS'-'
asS'ZNF260'
p3196
(lp3197
I36510695
aI36528660
aS'-'
asS'NDUFA11'
p3198
(lp3199
I5891276
aI5903786
aS'-'
asS'NDUFA13'
p3200
(lp3201
I19516228
aI19529054
aS'+'
asS'BNIP3P39'
p3202
(lp3203
I23798924
aI23799477
aS'-'
asS'VSIG10L'
p3204
(lp3205
I51331818
aI51342124
aS'-'
asS'CYP2A7P2'
p3206
(lp3207
I40908480
aI40910685
aS'-'
asS'AC008752.3'
p3208
(lp3209
I9756152
aI9756863
aS'-'
asS'CYP2A7P1'
p3210
(lp3211
I41024268
aI41027720
aS'-'
asS'CD177P1'
p3212
(lp3213
I43372742
aI43379123
aS'-'
asS'AC007192.1'
p3214
(lp3215
I18153158
aI18178117
aS'+'
asS'ILVBL'
p3216
(lp3217
I15114987
aI15125785
aS'-'
asS'CYP4F9P'
p3218
(lp3219
I15979835
aI15999020
aS'-'
asS'GOLGA2P9'
p3220
(lp3221
I22596257
aI22603550
aS'+'
asS'KIRREL2'
p3222
(lp3223
I35856922
aI35867109
aS'+'
asS'PROSER3'
p3224
(lp3225
I35758184
aI35769864
aS'+'
asS'RPS27P29'
p3226
(lp3227
I23597341
aI23597592
aS'+'
asS'FCGRT'
p3228
(lp3229
I49506816
aI49524780
aS'+'
asS'AC011483.1'
p3230
(lp3231
I50927079
aI50927571
aS'-'
asS'CYP2T3P'
p3232
(lp3233
I41134722
aI41137308
aS'+'
asS'IGFL1P2'
p3234
(lp3235
I46260420
aI46260858
aS'-'
asS'GNG7'
p3236
(lp3237
I2511219
aI2702709
aS'-'
asS'YIPF2'
p3238
(lp3239
I10922185
aI10928681
aS'-'
asS'GNG8'
p3240
(lp3241
I46634076
aI46634685
aS'-'
asS'FUZ'
p3242
(lp3243
I49806897
aI49813270
aS'-'
asS'COX6B1'
p3244
(lp3245
I35648223
aI35658861
aS'+'
asS'COX6B2'
p3246
(lp3247
I55349306
aI55354696
aS'-'
asS'C19orf66'
p3248
(lp3249
I10086130
aI10093245
aS'+'
asS'C19orf67'
p3250
(lp3251
I14081619
aI14085762
aS'-'
asS'CCDC124'
p3252
(lp3253
I17933016
aI17943937
aS'+'
asS'C19orf60'
p3254
(lp3255
I18588685
aI18592334
aS'+'
asS'CCNE1'
p3256
(lp3257
I29811898
aI29824308
aS'+'
asS'C19orf68'
p3258
(lp3259
I48170692
aI48197620
aS'+'
asS'ZIK1'
p3260
(lp3261
I57578456
aI57588625
aS'+'
asS'AC008750.8'
p3262
(lp3263
I51350373
aI51368099
aS'-'
asS'ITPKC'
p3264
(lp3265
I40717103
aI40740860
aS'+'
asS'RAB11B'
p3266
(lp3267
I8390199
aI8404434
aS'+'
asS'PRR22'
p3268
(lp3269
I5782960
aI5784765
aS'-'
asS'NRTN'
p3270
(lp3271
I5823802
aI5828324
aS'+'
asS'AC008687.6'
p3272
(lp3273
I49050217
aI49050846
aS'-'
asS'LGALS7B'
p3274
(lp3275
I38789211
aI38791749
aS'+'
asS'ZNF302'
p3276
(lp3277
I34677639
aI34686394
aS'+'
asS'AC006504.6'
p3278
(lp3279
I27908356
aI27908554
aS'-'
asS'OR7A18P'
p3280
(lp3281
I14886839
aI14887115
aS'-'
asS'AC006504.3'
p3282
(lp3283
I27803538
aI27804060
aS'+'
asS'CCDC105'
p3284
(lp3285
I15010744
aI15023269
aS'+'
asS'IRF3'
p3286
(lp3287
I49659570
aI49665875
aS'-'
asS'RNASEH2A'
p3288
(lp3289
I12806580
aI12813637
aS'+'
asS'AC007842.1'
p3290
(lp3291
I40023384
aI40025502
aS'-'
asS'LGALS14'
p3292
(lp3293
I39704306
aI39709444
aS'+'
asS'DMWD'
p3294
(lp3295
I45782947
aI45792802
aS'-'
asS'CD70'
p3296
(lp3297
I6590103
aI6604103
aS'-'
asS'ONECUT3'
p3298
(lp3299
I1752373
aI1780988
aS'+'
asS'CIRBP'
p3300
(lp3301
I1259384
aI1273172
aS'+'
asS'TMEM161A'
p3302
(lp3303
I19119169
aI19138466
aS'-'
asS'PLA2G4C'
p3304
(lp3305
I48047843
aI48110817
aS'-'
asS'SLC25A1P5'
p3306
(lp3307
I27805423
aI27806205
aS'-'
asS'NLRP5'
p3308
(lp3309
I55999726
aI56061813
aS'+'
asS'NLRP4'
p3310
(lp3311
I55836578
aI55881850
aS'+'
asS'NLRP7'
p3312
(lp3313
I54923515
aI54966243
aS'-'
asS'AC006539.3'
p3314
(lp3315
I20056466
aI20056594
aS'-'
asS'AC006539.2'
p3316
(lp3317
I20033444
aI20034332
aS'+'
asS'AC006539.1'
p3318
(lp3319
I20079818
aI20080539
aS'-'
asS'NLRP2'
p3320
(lp3321
I54965252
aI55001142
aS'+'
asS'NLRP9'
p3322
(lp3323
I55708432
aI55738402
aS'-'
asS'NLRP8'
p3324
(lp3325
I55947832
aI55988629
aS'+'
asS'TEX101'
p3326
(lp3327
I43401496
aI43418597
aS'+'
asS'TNFSF9'
p3328
(lp3329
I6530999
aI6535928
aS'+'
asS'TMEM150B'
p3330
(lp3331
I55319464
aI55334048
aS'-'
asS'CYP2G2P'
p3332
(lp3333
I41050449
aI41062444
aS'-'
asS'CLASRP'
p3334
(lp3335
I45039040
aI45070956
aS'+'
asS'MED25'
p3336
(lp3337
I49818279
aI49836980
aS'+'
asS'PAF1'
p3338
(lp3339
I39385852
aI39391195
aS'-'
asS'COL5A3'
p3340
(lp3341
I9959561
aI10010471
aS'-'
asS'SUMO1P4'
p3342
(lp3343
I49275119
aI49275420
aS'+'
asS'NAT14'
p3344
(lp3345
I55485004
aI55487568
aS'+'
asS'OR10H2'
p3346
(lp3347
I15728020
aI15729060
aS'+'
asS'OR10H3'
p3348
(lp3349
I15741393
aI15742343
aS'+'
asS'OR10H1'
p3350
(lp3351
I15807003
aI15808126
aS'-'
asS'OR10H4'
p3352
(lp3353
I15949008
aI15949958
aS'+'
asS'OR10H5'
p3354
(lp3355
I15793951
aI15795082
aS'+'
asS'ZFP36'
p3356
(lp3357
I39406813
aI39409412
aS'+'
asS'HKR1'
p3358
(lp3359
I37312837
aI37364445
aS'+'
asS'LENG9'
p3360
(lp3361
I54461796
aI54463711
aS'-'
asS'LENG8'
p3362
(lp3363
I54448887
aI54462037
aS'+'
asS'UQCR11'
p3364
(lp3365
I1597172
aI1605490
aS'-'
asS'ERCC2'
p3366
(lp3367
I45349837
aI45370618
aS'-'
asS'LAIR2'
p3368
(lp3369
I54497879
aI54508106
aS'+'
asS'NLRP11'
p3370
(lp3371
I55785404
aI55836762
aS'-'
asS'MRPS12'
p3372
(lp3373
I38930548
aI38933020
aS'+'
asS'NLRP13'
p3374
(lp3375
I55891699
aI55932336
aS'-'
asS'NLRP12'
p3376
(lp3377
I53793603
aI53824343
aS'-'
asS'AC012309.1'
p3378
(lp3379
I37093019
aI37207074
aS'-'
asS'BBC3'
p3380
(lp3381
I47220824
aI47232766
aS'-'
asS'VSTM1'
p3382
(lp3383
I54040825
aI54063953
aS'-'
asS'SERTAD1'
p3384
(lp3385
I40421592
aI40426025
aS'-'
asS'CEBPA'
p3386
(lp3387
I33299934
aI33302564
aS'-'
asS'SERTAD3'
p3388
(lp3389
I40440844
aI40444705
aS'-'
asS'CEBPG'
p3390
(lp3391
I33373330
aI33382686
aS'+'
asS'ZNF724'
p3392
(lp3393
I23221599
aI23250360
aS'-'
asS'MZF1'
p3394
(lp3395
I58561933
aI58573575
aS'-'
asS'ZNF726'
p3396
(lp3397
I23914877
aI23945159
aS'+'
asS'ZNF729'
p3398
(lp3399
I22286408
aI22317176
aS'+'
asS'ZNF728'
p3400
(lp3401
I22975468
aI23003176
aS'-'
asS'KDM4B'
p3402
(lp3403
I4969113
aI5153595
aS'+'
asS'TNNI3'
p3404
(lp3405
I55151770
aI55157732
aS'-'
asS'MED16'
p3406
(lp3407
I867630
aI893218
aS'-'
asS'ZNF541'
p3408
(lp3409
I47520685
aI47555856
aS'-'
asS'AC243312.1'
p3410
(lp3411
I8676844
aI8677584
aS'+'
asS'ZNF543'
p3412
(lp3413
I57320509
aI57330776
aS'+'
asS'LSM4'
p3414
(lp3415
I18306230
aI18323274
aS'-'
asS'LSM7'
p3416
(lp3417
I2321517
aI2328620
aS'-'
asS'THOP1'
p3418
(lp3419
I2785460
aI2815807
aS'+'
asS'ZNF69'
p3420
(lp3421
I11887855
aI11914329
aS'+'
asS'AC008770.2'
p3422
(lp3423
I12017888
aI12052967
aS'-'
asS'AC008770.3'
p3424
(lp3425
I11925075
aI11979290
aS'+'
asS'AC010615.4'
p3426
(lp3427
I21405159
aI21491266
aS'+'
asS'CEACAM16'
p3428
(lp3429
I44699151
aI44710714
aS'+'
asS'AC010615.1'
p3430
(lp3431
I21382865
aI21387177
aS'+'
asS'ZNF460'
p3432
(lp3433
I57280485
aI57293569
aS'+'
asS'VN1R104P'
p3434
(lp3435
I54320204
aI54321212
aS'-'
asS'ZNF66'
p3436
(lp3437
I20776425
aI20807322
aS'+'
asS'CLEC4M'
p3438
(lp3439
I7763149
aI7769605
aS'+'
asS'GFY'
p3440
(lp3441
I49423749
aI49428818
aS'+'
asS'CLEC4G'
p3442
(lp3443
I7728957
aI7732171
aS'-'
asS'NOTCH3'
p3444
(lp3445
I15159038
aI15200981
aS'-'
asS'CACNG8'
p3446
(lp3447
I53963040
aI53990215
aS'+'
asS'CLEC4GP1'
p3448
(lp3449
I7787549
aI7790621
aS'+'
asS'ZNF653'
p3450
(lp3451
I11483427
aI11505923
aS'-'
asS'CACNG7'
p3452
(lp3453
I53909335
aI53943941
aS'+'
asS'TOMM40'
p3454
(lp3455
I44891220
aI44903689
aS'+'
asS'APOC1P1'
p3456
(lp3457
I44926804
aI44931386
aS'+'
asS'CRLF1'
p3458
(lp3459
I18572220
aI18594435
aS'-'
asS'APOC4'
p3460
(lp3461
I44942238
aI44945496
aS'+'
asS'APOC2'
p3462
(lp3463
I44945982
aI44949563
aS'+'
asS'RLN3'
p3464
(lp3465
I14028148
aI14031042
aS'+'
asS'ASPDH'
p3466
(lp3467
I50511600
aI50514690
aS'-'
asS'CERS4'
p3468
(lp3469
I8209313
aI8262421
aS'+'
asS'LINGO3'
p3470
(lp3471
I2289784
aI2292024
aS'-'
asS'ZNF382'
p3472
(lp3473
I36605319
aI36634113
aS'+'
asS'CERS1'
p3474
(lp3475
I18868552
aI18896144
aS'-'
asS'EML2'
p3476
(lp3477
I45609638
aI45645629
aS'-'
asS'GADD45B'
p3478
(lp3479
I2476127
aI2478259
aS'+'
asS'PRODH2'
p3480
(lp3481
I35799990
aI35813299
aS'-'
asS'SCGB2B2'
p3482
(lp3483
I34593442
aI34675699
aS'-'
asS'VN1R81P'
p3484
(lp3485
I21123817
aI21124188
aS'+'
asS'ZNF471'
p3486
(lp3487
I56507843
aI56530221
aS'+'
asS'ADM5'
p3488
(lp3489
I49688664
aI49690575
aS'+'
asS'ZNF473'
p3490
(lp3491
I50026040
aI50053414
aS'+'
asS'ZNF542P'
p3492
(lp3493
I56368321
aI56379828
aS'+'
asS'GPI'
p3494
(lp3495
I34364740
aI34402156
aS'+'
asS'SLC25A23'
p3496
(lp3497
I6436081
aI6459751
aS'-'
asS'FAM90A27P'
p3498
(lp3499
I53281559
aI53284944
aS'+'
asS'CNN1'
p3500
(lp3501
I11538717
aI11550323
aS'+'
asS'SNRPD2'
p3502
(lp3503
I45687454
aI45692333
aS'-'
asS'CNN2'
p3504
(lp3505
I1026581
aI1039068
aS'+'
asS'FOXA3'
p3506
(lp3507
I45864260
aI45873797
aS'+'
asS'BST2'
p3508
(lp3509
I17402939
aI17405648
aS'-'
asS'AC025588.4'
p3510
(lp3511
I57111120
aI57112027
aS'-'
asS'CRX'
p3512
(lp3513
I47821839
aI47843330
aS'+'
asS'CARM1'
p3514
(lp3515
I10871513
aI10923070
aS'+'
asS'AC011467.6'
p3516
(lp3517
I22595479
aI22596163
aS'-'
asS'CRTC1'
p3518
(lp3519
I18683678
aI18782333
aS'+'
asS'EXOC3L2'
p3520
(lp3521
I45212621
aI45245431
aS'-'
asS'AC011467.4'
p3522
(lp3523
I22605739
aI22608211
aS'+'
asS'CTXN1'
p3524
(lp3525
I7924485
aI7926166
aS'-'
asS'SDHAF1'
p3526
(lp3527
I35995199
aI35996315
aS'+'
asS'PPIAP20'
p3528
(lp3529
I12508129
aI12508263
aS'+'
asS'TRPM4'
p3530
(lp3531
I49157741
aI49211836
aS'+'
asS'AC010619.1'
p3532
(lp3533
I49462752
aI49486231
aS'+'
asS'LINC01835'
p3534
(lp3535
I15851993
aI15864904
aS'-'
asS'BNIP3P23'
p3536
(lp3537
I20443215
aI20443725
aS'-'
asS'BNIP3P24'
p3538
(lp3539
I20784596
aI20785152
aS'-'
asS'BNIP3P25'
p3540
(lp3541
I21318161
aI21318719
aS'+'
asS'BNIP3P26'
p3542
(lp3543
I21521343
aI21521896
aS'-'
asS'BNIP3P27'
p3544
(lp3545
I21826513
aI21827279
aS'+'
asS'BNIP3P28'
p3546
(lp3547
I21997648
aI21998840
aS'+'
asS'BNIP3P29'
p3548
(lp3549
I22065828
aI22066398
aS'-'
asS'VN1R92P'
p3550
(lp3551
I23444262
aI23445189
aS'+'
asS'C19orf71'
p3552
(lp3553
I3539154
aI3544030
aS'+'
asS'C19orf70'
p3554
(lp3555
I5678422
aI5680896
aS'-'
asS'C19orf73'
p3556
(lp3557
I49118397
aI49119140
aS'-'
asS'AC008878.1'
p3558
(lp3559
I7507052
aI7519622
aS'+'
asS'AC008878.3'
p3560
(lp3561
I7382834
aI7472477
aS'+'
asS'AC008878.2'
p3562
(lp3563
I7533595
aI7540059
aS'+'
asS'CCDC130'
p3564
(lp3565
I13731760
aI13763296
aS'+'
asS'MRPL4'
p3566
(lp3567
I10251964
aI10260043
aS'+'
asS'SULT2B1'
p3568
(lp3569
I48552075
aI48599425
aS'+'
asS'NXNL1'
p3570
(lp3571
I17455425
aI17460954
aS'-'
asS'PRR36'
p3572
(lp3573
I7868719
aI7874379
aS'-'
asS'VMAC'
p3574
(lp3575
I5904858
aI5910853
aS'+'
asS'BORCS8-MEF2B'
p3576
(lp3577
I19145569
aI19192158
aS'-'
asS'MKNK2'
p3578
(lp3579
I2037482
aI2051244
aS'-'
asS'AC020910.2'
p3580
(lp3581
I34779412
aI34780021
aS'-'
asS'DOHH'
p3582
(lp3583
I3490822
aI3500940
aS'-'
asS'OLFM2'
p3584
(lp3585
I9853718
aI9936552
aS'-'
asS'OR7A1P'
p3586
(lp3587
I14891895
aI14892804
aS'-'
asS'AC008555.7'
p3588
(lp3589
I34825414
aI34825996
aS'+'
asS'DNAAF3'
p3590
(lp3591
I55158661
aI55166722
aS'-'
asS'AC005176.1'
p3592
(lp3593
I39638685
aI39642401
aS'+'
asS'AC005176.2'
p3594
(lp3595
I39631300
aI39631446
aS'-'
asS'MARK4'
p3596
(lp3597
I45079288
aI45266246
aS'+'
asS'RPL13A'
p3598
(lp3599
I49487554
aI49492308
aS'+'
asS'ICAM5'
p3600
(lp3601
I10289981
aI10296778
aS'+'
asS'ICAM4'
p3602
(lp3603
I10286974
aI10288502
aS'+'
asS'ICAM3'
p3604
(lp3605
I10333776
aI10339823
aS'-'
asS'ICAM1'
p3606
(lp3607
I10270835
aI10286615
aS'+'
asS'SLC8A2'
p3608
(lp3609
I47428017
aI47472168
aS'-'
asS'RPL7P51'
p3610
(lp3611
I51648862
aI51649610
aS'+'
asS'RPL7P50'
p3612
(lp3613
I6593329
aI6594055
aS'+'
asS'AC005258.1'
p3614
(lp3615
I2269525
aI2341172
aS'+'
asS'EFNA2'
p3616
(lp3617
I1286154
aI1300237
aS'+'
asS'PODNL1'
p3618
(lp3619
I13931472
aI13953381
aS'-'
asS'LRP3'
p3620
(lp3621
I33177603
aI33205291
aS'+'
asS'ISOC2'
p3622
(lp3623
I55452985
aI55462343
aS'-'
asS'LYPLA2P2'
p3624
(lp3625
I7879445
aI7880120
aS'-'
asS'OR7A10'
p3626
(lp3627
I14840948
aI14841877
aS'-'
asS'OR7A17'
p3628
(lp3629
I14880426
aI14881452
aS'-'
asS'PDE4A'
p3630
(lp3631
I10416773
aI10467649
aS'+'
asS'WDR18'
p3632
(lp3633
I984378
aI998438
aS'+'
asS'CALR3'
p3634
(lp3635
I16479057
aI16496192
aS'-'
asS'HMGB2P1'
p3636
(lp3637
I1203209
aI1203842
aS'+'
asS'PEG3'
p3638
(lp3639
I56810083
aI56840696
aS'-'
asS'MAP4K1'
p3640
(lp3641
I38587646
aI38618882
aS'-'
asS'PPP2R1A'
p3642
(lp3643
I52190039
aI52229533
aS'+'
asS'WASH5P'
p3644
(lp3645
I60951
aI70976
aS'-'
asS'MAP2K2'
p3646
(lp3647
I4090321
aI4124129
aS'-'
asS'MAP2K7'
p3648
(lp3649
I7903843
aI7914478
aS'+'
asS'OCEL1'
p3650
(lp3651
I17226204
aI17229219
aS'+'
asS'TEAD2'
p3652
(lp3653
I49340595
aI49362457
aS'-'
asS'OR4F8P'
p3654
(lp3655
I156279
aI157215
aS'-'
asS'AC073544.1'
p3656
(lp3657
I23596122
aI23598159
aS'+'
asS'PDCD2L'
p3658
(lp3659
I34404384
aI34426167
aS'+'
asS'PLEKHF1'
p3660
(lp3661
I29665056
aI29675457
aS'+'
asS'AC022145.2'
p3662
(lp3663
I22925377
aI22925547
aS'+'
asS'AC022415.1'
p3664
(lp3665
I12141806
aI12143322
aS'-'
asS'SLC6A21P'
p3666
(lp3667
I49255472
aI49256102
aS'-'
asS'HSPB6'
p3668
(lp3669
I35754569
aI35757029
aS'-'
asS'KMT2B'
p3670
(lp3671
I35718019
aI35738878
aS'+'
asS'RPL29P33'
p3672
(lp3673
I34296277
aI34296592
aS'-'
asS'PKN1'
p3674
(lp3675
I14433323
aI14471867
aS'+'
asS'AC004696.1'
p3676
(lp3677
I56485923
aI56494280
aS'-'
asS'CLEC11A'
p3678
(lp3679
I50723329
aI50725717
aS'+'
asS'ZNF714'
p3680
(lp3681
I21082174
aI21125270
aS'+'
asS'ZNF865'
p3682
(lp3683
I55605405
aI55617269
aS'+'
asS'CYP2G1P'
p3684
(lp3685
I40890826
aI40900508
aS'+'
asS'ZNF625-ZNF20'
p3686
(lp3687
I12132117
aI12156731
aS'-'
asS'NTF6B'
p3688
(lp3689
I49038479
aI49039038
aS'-'
asS'NTF6A'
p3690
(lp3691
I49025461
aI49026020
aS'-'
asS'NTF6G'
p3692
(lp3693
I49029726
aI49030341
aS'+'
asS'AC005261.5'
p3694
(lp3695
I57317208
aI57317562
aS'-'
asS'AC018755.2'
p3696
(lp3697
I51612091
aI51646889
aS'-'
asS'AC018755.3'
p3698
(lp3699
I51594561
aI51601788
aS'+'
asS'CASP14'
p3700
(lp3701
I15049384
aI15058293
aS'+'
asS'APLP1'
p3702
(lp3703
I35867899
aI35879526
aS'+'
asS'ZNF71'
p3704
(lp3705
I56595300
aI56626481
aS'+'
asS'ZNF77'
p3706
(lp3707
I2933218
aI2944933
aS'-'
asS'SPINT2'
p3708
(lp3709
I38244035
aI38287905
aS'+'
asS'CYP2F1'
p3710
(lp3711
I41114432
aI41128254
aS'+'
asS'RYR1'
p3712
(lp3713
I38433699
aI38587564
aS'+'
asS'AC092073.1'
p3714
(lp3715
I34396315
aI34409364
aS'+'
asS'AC022149.1'
p3716
(lp3717
I14621634
aI14622242
aS'-'
asS'AC022149.2'
p3718
(lp3719
I14628599
aI14628801
aS'+'
asS'GAPDHP76'
p3720
(lp3721
I11585246
aI11587135
aS'+'
asS'LIG1'
p3722
(lp3723
I48115445
aI48170603
aS'-'
asS'PTBP1'
p3724
(lp3725
I797075
aI812327
aS'+'
asS'ZNF665'
p3726
(lp3727
I53162421
aI53193356
aS'-'
asS'ZNF667'
p3728
(lp3729
I56439325
aI56477374
aS'-'
asS'SCAMP4'
p3730
(lp3731
I1905214
aI1926011
aS'+'
asS'GIPC1'
p3732
(lp3733
I14477760
aI14496149
aS'-'
asS'GIPC3'
p3734
(lp3735
I3585553
aI3593541
aS'+'
asS'ZNF444'
p3736
(lp3737
I56141187
aI56160892
aS'+'
asS'ZNF446'
p3738
(lp3739
I58474017
aI58481228
aS'+'
asS'ZNF440'
p3740
(lp3741
I11814284
aI11835201
aS'+'
asS'ZNF441'
p3742
(lp3743
I11767092
aI11784078
aS'+'
asS'KCTD15'
p3744
(lp3745
I33796862
aI33815763
aS'+'
asS'ZNF443'
p3746
(lp3747
I12429707
aI12441112
aS'-'
asS'FZR1'
p3748
(lp3749
I3506273
aI3538330
aS'+'
asS'AC016582.1'
p3750
(lp3751
I37823722
aI37855196
aS'-'
asS'AC016582.2'
p3752
(lp3753
I37779686
aI37792772
aS'+'
asS'AC016582.3'
p3754
(lp3755
I37817411
aI37832160
aS'+'
asS'DKKL1'
p3756
(lp3757
I49361783
aI49375116
aS'+'
asS'AC006538.2'
p3758
(lp3759
I2717769
aI2740048
aS'-'
asS'RPL12P41'
p3760
(lp3761
I46219423
aI46219920
aS'+'
asS'AC005336.2'
p3762
(lp3763
I15902300
aI15903238
aS'-'
asS'IGFL1P1'
p3764
(lp3765
I46196238
aI46197323
aS'+'
asS'UBE2L4'
p3766
(lp3767
I9774497
aI9774960
aS'+'
asS'MTDHP2'
p3768
(lp3769
I21940820
aI21941533
aS'+'
asS'MTDHP5'
p3770
(lp3771
I22140532
aI22141117
aS'+'
asS'MTDHP4'
p3772
(lp3773
I21709522
aI21710191
aS'+'
asS'DNM2'
p3774
(lp3775
I10718093
aI10831884
aS'+'
asS'PSENEN'
p3776
(lp3777
I35745114
aI35747519
aS'+'
asS'EXOSC3P2'
p3778
(lp3779
I7813615
aI7814425
aS'-'
asS'SAMD1'
p3780
(lp3781
I14087840
aI14090708
aS'-'
asS'ZNF284'
p3782
(lp3783
I44072144
aI44089613
aS'+'
asS'ZNF285'
p3784
(lp3785
I44382298
aI44401589
aS'-'
asS'ZNF283'
p3786
(lp3787
I43827292
aI43852017
aS'+'
asS'TMEM38A'
p3788
(lp3789
I16661127
aI16690029
aS'+'
asS'PLPPR2'
p3790
(lp3791
I11355386
aI11365698
aS'+'
asS'PLPPR3'
p3792
(lp3793
I812488
aI821977
aS'-'
asS'AC011479.1'
p3794
(lp3795
I38289151
aI38304910
aS'+'
asS'STRN4'
p3796
(lp3797
I46719511
aI46746881
aS'-'
asS'GYS1'
p3798
(lp3799
I48968125
aI48993309
aS'-'
asS'NPHS1'
p3800
(lp3801
I35825964
aI35851837
aS'-'
asS'ZNF530'
p3802
(lp3803
I57599885
aI57612722
aS'+'
asS'PTGIR'
p3804
(lp3805
I46620468
aI46625118
aS'-'
asS'OR7C2'
p3806
(lp3807
I14941489
aI14942448
aS'+'
asS'OR7C1'
p3808
(lp3809
I14799146
aI14800211
aS'-'
asS'SF3A2'
p3810
(lp3811
I2236504
aI2248679
aS'+'
asS'VN1R80P'
p3812
(lp3813
I21063924
aI21064261
aS'+'
asS'AC018761.5'
p3814
(lp3815
I12687998
aI12688422
aS'+'
asS'BTBD2'
p3816
(lp3817
I1993101
aI2034881
aS'-'
asS'BNIP3P33'
p3818
(lp3819
I22457329
aI22458212
aS'-'
asS'BNIP3P32'
p3820
(lp3821
I22447934
aI22448777
aS'-'
asS'BNIP3P31'
p3822
(lp3823
I22298977
aI22299868
aS'-'
asS'BNIP3P30'
p3824
(lp3825
I22203128
aI22204003
aS'+'
asS'BNIP3P37'
p3826
(lp3827
I23123188
aI23124088
aS'-'
asS'EHD2'
p3828
(lp3829
I47713343
aI47743134
aS'+'
asS'BNIP3P35'
p3830
(lp3831
I22840432
aI22840921
aS'-'
asS'RAD23A'
p3832
(lp3833
I12945888
aI12953642
aS'+'
asS'FOSB'
p3834
(lp3835
I45467995
aI45475178
aS'+'
asS'BNIP3P38'
p3836
(lp3837
I23236308
aI23236851
aS'+'
asS'SIGLEC17P'
p3838
(lp3839
I51167328
aI51173524
aS'+'
asS'AC020904.1'
p3840
(lp3841
I18040355
aI18041083
aS'+'
asS'TMEM86B'
p3842
(lp3843
I55226748
aI55229264
aS'-'
asS'LGALS13'
p3844
(lp3845
I39602524
aI39607476
aS'+'
asS'TICAM1'
p3846
(lp3847
I4815932
aI4831704
aS'-'
asS'SMIM7'
p3848
(lp3849
I16630751
aI16660130
aS'-'
asS'LGALS16'
p3850
(lp3851
I39655894
aI39660647
aS'+'
asS'TMED1'
p3852
(lp3853
I10832438
aI10836290
aS'-'
asS'CCDC106'
p3854
(lp3855
I55641062
aI55651487
aS'+'
asS'AC011475.1'
p3856
(lp3857
I10598001
aI10598965
aS'-'
asS'POLD1'
p3858
(lp3859
I50384204
aI50418012
aS'+'
asS'HNRNPL'
p3860
(lp3861
I38836395
aI38852347
aS'-'
asS'HNRNPM'
p3862
(lp3863
I8444767
aI8489114
aS'+'
asS'IL4I1'
p3864
(lp3865
I49889654
aI49929539
aS'-'
asS'PDCD5'
p3866
(lp3867
I32581068
aI32587427
aS'+'
asS'REEP6'
p3868
(lp3869
I1490747
aI1497927
aS'+'
asS'PLEKHG2'
p3870
(lp3871
I39412585
aI39428415
aS'+'
asS'TSKS'
p3872
(lp3873
I49739755
aI49763330
aS'-'
asS'SNX6P1'
p3874
(lp3875
I23126569
aI23127792
aS'-'
asS'SYDE1'
p3876
(lp3877
I15107403
aI15114988
aS'+'
asS'AC004678.1'
p3878
(lp3879
I2013728
aI2014656
aS'-'
asS'PSPN'
p3880
(lp3881
I6375148
aI6379058
aS'-'
asS'AC011467.2'
p3882
(lp3883
I22620483
aI22620724
aS'+'
asS'PGPEP1'
p3884
(lp3885
I18340587
aI18369950
aS'+'
asS'AC011467.5'
p3886
(lp3887
I22609606
aI22610601
aS'+'
asS'ZNF100'
p3888
(lp3889
I21722766
aI21767628
aS'-'
asS'TIMM29'
p3890
(lp3891
I10929621
aI10933515
aS'+'
asS'WIZ'
p3892
(lp3893
I15419980
aI15449951
aS'-'
asS'CIC'
p3894
(lp3895
I42268537
aI42295796
aS'+'
asS'AC005758.1'
p3896
(lp3897
I27918943
aI27929370
aS'+'
asS'AC020910.3'
p3898
(lp3899
I34634844
aI34635717
aS'+'
asS'CPAMD8'
p3900
(lp3901
I16892947
aI17026815
aS'-'
asS'AC011447.5'
p3902
(lp3903
I20087013
aI20087576
aS'-'
asS'AC011447.4'
p3904
(lp3905
I20206844
aI20206954
aS'-'
asS'AC011447.1'
p3906
(lp3907
I20125044
aI20125484
aS'+'
asS'AC011447.2'
p3908
(lp3909
I20131894
aI20151908
aS'-'
asS'AC020914.4'
p3910
(lp3911
I51468360
aI51468636
aS'-'
asS'AC020914.5'
p3912
(lp3913
I51560122
aI51560590
aS'-'
asS'AC020914.6'
p3914
(lp3915
I51442379
aI51442650
aS'+'
asS'AC020914.7'
p3916
(lp3917
I51508573
aI51509311
aS'+'
asS'AC020914.1'
p3918
(lp3919
I51478622
aI51490952
aS'+'
asS'AC020914.3'
p3920
(lp3921
I51505059
aI51505362
aS'-'
asS'RPS15P9'
p3922
(lp3923
I1307401
aI1307719
aS'-'
asS'AC010642.1'
p3924
(lp3925
I58319277
aI58320489
aS'+'
asS'IGFL4'
p3926
(lp3927
I46039824
aI46077094
aS'-'
asS'LONP1'
p3928
(lp3929
I5691835
aI5720572
aS'-'
asS'OR7A11P'
p3930
(lp3931
I14916428
aI14917380
aS'+'
asS'GAPDHS'
p3932
(lp3933
I35533412
aI35545316
aS'+'
asS'DMKN'
p3934
(lp3935
I35497220
aI35513652
aS'-'
asS'RAB3D'
p3936
(lp3937
I11325339
aI11346270
aS'-'
asS'RAB3A'
p3938
(lp3939
I18196784
aI18204074
aS'-'
asS'ARMC6'
p3940
(lp3941
I19033613
aI19059501
aS'+'
asS'AC020904.2'
p3942
(lp3943
I18022403
aI18032099
aS'+'
asS'LRG1'
p3944
(lp3945
I4536409
aI4540474
aS'-'
asS'NFIC'
p3946
(lp3947
I3359563
aI3469217
aS'+'
asS'NFIX'
p3948
(lp3949
I12995608
aI13096201
aS'+'
asS'AC010332.1'
p3950
(lp3951
I52392659
aI52392755
aS'+'
asS'AC010332.2'
p3952
(lp3953
I52473336
aI52475239
aS'-'
asS'SLC7A10'
p3954
(lp3955
I33208664
aI33225850
aS'-'
asS'AC004076.1'
p3956
(lp3957
I57437970
aI57477503
aS'-'
asS'SIGLEC8'
p3958
(lp3959
I51450847
aI51458452
aS'-'
asS'SIGLEC9'
p3960
(lp3961
I51124908
aI51136651
aS'+'
asS'SIGLEC5'
p3962
(lp3963
I51611927
aI51645545
aS'-'
asS'SIGLEC6'
p3964
(lp3965
I51519525
aI51531717
aS'-'
asS'SIGLEC7'
p3966
(lp3967
I51142301
aI51153526
aS'+'
as.