(dp1
S'GTF2IP8'
p2
(lp3
I14695422
aI14706597
aS'+'
asS'MRPS5P4'
p4
(lp5
I60519841
aI60520165
aS'+'
asS'AP005119.2'
p6
(lp7
I1362445
aI1363873
aS'-'
asS'AP005119.1'
p8
(lp9
I1357651
aI1357942
aS'+'
asS'THEMIS3P'
p10
(lp11
I8486997
aI8513849
aS'+'
asS'HMGN1P30'
p12
(lp13
I58018794
aI58019061
aS'-'
asS'EIF4A3P1'
p14
(lp15
I24522273
aI24522919
aS'-'
asS'CD226'
p16
(lp17
I69853275
aI69956996
aS'-'
asS'COX6CP3'
p18
(lp19
I1176790
aI1177012
aS'-'
asS'AC069114.2'
p20
(lp21
I71932493
aI71932796
aS'+'
asS'FAM60BP'
p22
(lp23
I26255698
aI26256355
aS'-'
asS'POLR3GP2'
p24
(lp25
I48478561
aI48479228
aS'+'
asS'AC007998.2'
p26
(lp27
I35443871
aI35497940
aS'-'
asS'AC007998.1'
p28
(lp29
I35383354
aI35384025
aS'-'
asS'CTAGE1'
p30
(lp31
I22413603
aI22417915
aS'-'
asS'MIB1'
p32
(lp33
I21704957
aI21864974
aS'+'
asS'NAPG'
p34
(lp35
I10526034
aI10552760
aS'+'
asS'AC015864.1'
p36
(lp37
I50823577
aI50824120
aS'+'
asS'WDR7'
p38
(lp39
I56651385
aI57036606
aS'+'
asS'AC026898.1'
p40
(lp41
I47703175
aI47703745
aS'+'
asS'BOD1P2'
p42
(lp43
I5132749
aI5133229
aS'-'
asS'AC026634.1'
p44
(lp45
I23485000
aI23485197
aS'+'
asS'BOD1P1'
p46
(lp47
I3415145
aI3415580
aS'+'
asS'AP000919.1'
p48
(lp49
I2945627
aI2946890
aS'-'
asS'AP001025.2'
p50
(lp51
I3406342
aI3406818
aS'-'
asS'GATA6'
p52
(lp53
I22169443
aI22202528
aS'+'
asS'AC087683.1'
p54
(lp55
I42089312
aI42089752
aS'+'
asS'PIK3C3'
p56
(lp57
I41955206
aI42087830
aS'+'
asS'CNDP1'
p58
(lp59
I74534602
aI74587212
aS'+'
asS'CNDP2'
p60
(lp61
I74496208
aI74523454
aS'+'
asS'TRAPPC8'
p62
(lp63
I31829173
aI31943100
aS'-'
asS'AP001269.3'
p64
(lp65
I11928838
aI11929476
aS'+'
asS'HMGN1P31'
p66
(lp67
I60794613
aI60794916
aS'-'
asS'CEP76'
p68
(lp69
I12661833
aI12702639
aS'-'
asS'COLEC12'
p70
(lp71
I316740
aI500722
aS'-'
asS'STARD6'
p72
(lp73
I54324358
aI54357964
aS'-'
asS'CELF4'
p74
(lp75
I37243047
aI37566037
aS'-'
asS'RIT2'
p76
(lp77
I42743227
aI43115691
aS'-'
asS'AC091147.1'
p78
(lp79
I22900486
aI22900995
aS'-'
asS'SLC25A6P4'
p80
(lp81
I80077707
aI80078259
aS'+'
asS'MC4R'
p82
(lp83
I60371110
aI60372775
aS'-'
asS'TTR'
p84
(lp85
I31591726
aI31599011
aS'+'
asS'CXXC1'
p86
(lp87
I50282343
aI50288304
aS'-'
asS'CETN1'
p88
(lp89
I580357
aI582114
aS'+'
asS'AKAIN1'
p90
(lp91
I5145285
aI5197503
aS'-'
asS'AP005117.1'
p92
(lp93
I10724619
aI10726936
aS'+'
asS'HRH4'
p94
(lp95
I24460629
aI24479957
aS'+'
asS'ZNF519'
p96
(lp97
I14057457
aI14132490
aS'-'
asS'PSMG2'
p98
(lp99
I12658738
aI12725740
aS'+'
asS'ZNF516'
p100
(lp101
I76358190
aI76495190
aS'-'
asS'RBM22P1'
p102
(lp103
I27418884
aI27420435
aS'-'
asS'DSEL'
p104
(lp105
I67506582
aI67516980
aS'-'
asS'ALPK2'
p106
(lp107
I58481247
aI58628957
aS'-'
asS'GRP'
p108
(lp109
I59220168
aI59230771
aS'+'
asS'HNRNPA3P16'
p110
(lp111
I50814392
aI50815730
aS'+'
asS'AC023575.1'
p112
(lp113
I26952201
aI26952558
aS'-'
asS'CHST9'
p114
(lp115
I26906481
aI27185317
aS'-'
asS'AC010928.2'
p116
(lp117
I60495868
aI60496336
aS'-'
asS'AC010928.3'
p118
(lp119
I60525616
aI60526156
aS'-'
asS'AC010928.1'
p120
(lp121
I60611773
aI60646089
aS'+'
asS'AC067796.1'
p122
(lp123
I23672253
aI23672748
aS'-'
asS'RTTN'
p124
(lp125
I70003031
aI70205945
aS'-'
asS'AP002414.4'
p126
(lp127
I12067173
aI12068417
aS'-'
asS'SLC39A6'
p128
(lp129
I36108532
aI36129318
aS'-'
asS'AP005431.1'
p130
(lp131
I3025069
aI3025387
aS'-'
asS'AP001496.3'
p132
(lp133
I5240255
aI5241167
aS'-'
asS'AC012123.2'
p134
(lp135
I32779039
aI32779286
aS'+'
asS'AC011825.1'
p136
(lp137
I32075885
aI32076272
aS'-'
asS'LARP7P3'
p138
(lp139
I70412055
aI70412391
aS'+'
asS'TTC39C'
p140
(lp141
I23992773
aI24133027
aS'+'
asS'AP002414.1'
p142
(lp143
I12056676
aI12057822
aS'-'
asS'AC027575.3'
p144
(lp145
I76884935
aI76888724
aS'-'
asS'RALBP1'
p146
(lp147
I9475009
aI9538114
aS'+'
asS'SMAD4'
p148
(lp149
I51029614
aI51085045
aS'+'
asS'SMAD7'
p150
(lp151
I48919853
aI48950711
aS'-'
asS'AP005212.3'
p152
(lp153
I14253548
aI14254075
aS'+'
asS'AP005212.2'
p154
(lp155
I14361434
aI14361943
aS'-'
asS'SMAD2'
p156
(lp157
I47808957
aI47930559
aS'-'
asS'AP005262.1'
p158
(lp159
I1927727
aI1929094
aS'-'
asS'ADCYAP1'
p160
(lp161
I905109
aI912172
aS'+'
asS'AC090638.1'
p162
(lp163
I50457887
aI50458795
aS'+'
asS'POLI'
p164
(lp165
I54282906
aI54321266
aS'+'
asS'NDUFV2'
p166
(lp167
I9102630
aI9134345
aS'+'
asS'WBP11P1'
p168
(lp169
I32511663
aI32514634
aS'+'
asS'AC091135.1'
p170
(lp171
I54566997
aI54567303
aS'+'
asS'AP005264.5'
p172
(lp173
I12246589
aI12247055
aS'+'
asS'AP005264.6'
p174
(lp175
I12209336
aI12223539
aS'+'
asS'RNF152'
p176
(lp177
I61808063
aI61893759
aS'-'
asS'CXADRP3'
p178
(lp179
I14477955
aI14499278
aS'-'
asS'LAMA1'
p180
(lp181
I6941744
aI7117814
aS'-'
asS'LAMA3'
p182
(lp183
I23689443
aI23955066
aS'+'
asS'CCBE1'
p184
(lp185
I59430940
aI59697380
aS'-'
asS'RPL7AP66'
p186
(lp187
I39334872
aI39335672
aS'-'
asS'SS18'
p188
(lp189
I26016253
aI26090625
aS'-'
asS'CABYR'
p190
(lp191
I24138956
aI24161603
aS'+'
asS'AP005202.1'
p192
(lp193
I6462144
aI6463010
aS'-'
asS'NOL4'
p194
(lp195
I33851100
aI34223551
aS'-'
asS'AC027216.1'
p196
(lp197
I51687525
aI51688209
aS'-'
asS'AC027575.1'
p198
(lp199
I76834429
aI76834888
aS'-'
asS'PQLC1'
p200
(lp201
I79902420
aI79951664
aS'-'
asS'RIOK3'
p202
(lp203
I23452823
aI23483140
aS'+'
asS'FAM60CP'
p204
(lp205
I60016778
aI60017441
aS'-'
asS'MTCL1'
p206
(lp207
I8707411
aI8832777
aS'+'
asS'MTCO2P2'
p208
(lp209
I47853233
aI47853457
aS'-'
asS'GREB1L'
p210
(lp211
I21242242
aI21522830
aS'+'
asS'AC090360.1'
p212
(lp213
I80034346
aI80097088
aS'+'
asS'AKR1B10P2'
p214
(lp215
I68455951
aI68456877
aS'+'
asS'AC090666.1'
p216
(lp217
I54142133
aI54142577
aS'+'
asS'AC105227.2'
p218
(lp219
I50318420
aI50319024
aS'+'
asS'ELOA3B'
p220
(lp221
I47022287
aI47023927
aS'-'
asS'ELOA3C'
p222
(lp223
I46968695
aI46969912
aS'-'
asS'ELOA3D'
p224
(lp225
I46962768
aI46964408
aS'-'
asS'AP005242.2'
p226
(lp227
I15003975
aI15006352
aS'-'
asS'AC013290.1'
p228
(lp229
I34573987
aI34574523
aS'-'
asS'LPIN2'
p230
(lp231
I2916994
aI3011947
aS'-'
asS'SKA1'
p232
(lp233
I50374995
aI50394173
aS'+'
asS'DYM'
p234
(lp235
I49041474
aI49460802
aS'-'
asS'AC012254.4'
p236
(lp237
I47137018
aI47137290
aS'+'
asS'AC012254.2'
p238
(lp239
I47108188
aI47176345
aS'-'
asS'RNMT'
p240
(lp241
I13726661
aI13764558
aS'+'
asS'AC083760.1'
p242
(lp243
I44039471
aI44040140
aS'+'
asS'AP001180.5'
p244
(lp245
I10636670
aI10637399
aS'+'
asS'AP001180.6'
p246
(lp247
I10632238
aI10632396
aS'+'
asS'MEX3C'
p248
(lp249
I51176821
aI51218304
aS'-'
asS'AP001180.3'
p250
(lp251
I10622123
aI10622267
aS'-'
asS'DYNAP'
p252
(lp253
I54587757
aI54598679
aS'+'
asS'SPIRE1'
p254
(lp255
I12446512
aI12658134
aS'-'
asS'CYB5A'
p256
(lp257
I74250847
aI74292016
aS'-'
asS'OACYLP'
p258
(lp259
I58996734
aI59069338
aS'+'
asS'AC022795.1'
p260
(lp261
I21119182
aI21119661
aS'-'
asS'ADNP2'
p262
(lp263
I80109031
aI80140351
aS'+'
asS'MBD2'
p264
(lp265
I54151601
aI54224788
aS'-'
asS'ZNF396'
p266
(lp267
I35366697
aI35377337
aS'-'
asS'ZNF397'
p268
(lp269
I35241051
aI35267133
aS'+'
asS'ZNF271P'
p270
(lp271
I35290324
aI35328390
aS'+'
asS'OSBPL1A'
p272
(lp273
I24162044
aI24397859
aS'-'
asS'AC091042.1'
p274
(lp275
I67375133
aI67375305
aS'+'
asS'ACAA2'
p276
(lp277
I49782167
aI49813960
aS'-'
asS'AC114689.1'
p278
(lp279
I67788268
aI67791035
aS'-'
asS'AC114689.2'
p280
(lp281
I67830671
aI67831967
aS'-'
asS'AC068408.1'
p282
(lp283
I27452514
aI27453657
aS'-'
asS'ONECUT2'
p284
(lp285
I57435685
aI57491297
aS'+'
asS'AP006261.1'
p286
(lp287
I14450216
aI14450883
aS'-'
asS'CDH2'
p288
(lp289
I27950966
aI28177446
aS'-'
asS'CDH7'
p290
(lp291
I65750921
aI65890341
aS'+'
asS'MLECP1'
p292
(lp293
I44522366
aI44523074
aS'+'
asS'LIPG'
p294
(lp295
I49562031
aI49599182
aS'+'
asS'AC015524.1'
p296
(lp297
I53605254
aI53605725
aS'-'
asS'CEP192'
p298
(lp299
I12991362
aI13125050
aS'+'
asS'FAM69C'
p300
(lp301
I74434099
aI74457268
aS'-'
asS'IMPA2'
p302
(lp303
I11981037
aI12030516
aS'+'
asS'SIGLEC15'
p304
(lp305
I45825512
aI45842556
aS'+'
asS'THOC1'
p306
(lp307
I214521
aI268027
aS'-'
asS'RAB27B'
p308
(lp309
I54717860
aI54884355
aS'+'
asS'ANKRD20A5P'
p310
(lp311
I14179395
aI14244811
aS'+'
asS'POTEC'
p312
(lp313
I14507339
aI14543585
aS'-'
asS'AP005264.2'
p314
(lp315
I12192203
aI12192934
aS'-'
asS'SYT4'
p316
(lp317
I43267878
aI43277650
aS'-'
asS'AP005403.1'
p318
(lp319
I4459230
aI4459458
aS'+'
asS'NETO1'
p320
(lp321
I72742314
aI72867575
aS'-'
asS'MEP1B'
p322
(lp323
I32190024
aI32220404
aS'+'
asS'NFATC1'
p324
(lp325
I79395856
aI79529325
aS'+'
asS'OR4K7P'
p326
(lp327
I14570844
aI14571788
aS'+'
asS'KCNG2'
p328
(lp329
I79863668
aI79899816
aS'+'
asS'AP005136.1'
p330
(lp331
I2568392
aI2569122
aS'+'
asS'AC023043.2'
p332
(lp333
I36273574
aI36274599
aS'+'
asS'AC023043.3'
p334
(lp335
I36278735
aI36279119
aS'-'
asS'HSBP1L1'
p336
(lp337
I79964561
aI79970822
aS'+'
asS'TCF4'
p338
(lp339
I55227936
aI55636027
aS'-'
asS'AC090330.1'
p340
(lp341
I51158282
aI51159383
aS'-'
asS'ZNF24'
p342
(lp343
I35332212
aI35344456
aS'-'
asS'GALNT1'
p344
(lp345
I35627429
aI35710292
aS'+'
asS'AC098848.2'
p346
(lp347
I54954403
aI54954732
aS'+'
asS'AC090312.2'
p348
(lp349
I71665148
aI71665525
aS'+'
asS'AC090312.1'
p350
(lp351
I71588537
aI71588884
aS'+'
asS'C18orf32'
p352
(lp353
I49477250
aI49487252
aS'-'
asS'CLUL1'
p354
(lp355
I597023
aI650334
aS'+'
asS'NPIPB1P'
p356
(lp357
I11619509
aI11639699
aS'-'
asS'RPL17-C18orf32'
p358
(lp359
I49482152
aI49492479
aS'-'
asS'RPL17P45'
p360
(lp361
I40143926
aI40144504
aS'-'
asS'KRT18P8'
p362
(lp363
I9678248
aI9679493
aS'-'
asS'KIAA1468'
p364
(lp365
I62187274
aI62307829
aS'+'
asS'ZNF236'
p366
(lp367
I76822607
aI76969918
aS'+'
asS'AC139085.1'
p368
(lp369
I76759685
aI76759866
aS'-'
asS'CIAPIN1P'
p370
(lp371
I26599408
aI26600338
aS'+'
asS'NDC80'
p372
(lp373
I2571511
aI2616635
aS'+'
asS'FECH'
p374
(lp375
I57548283
aI57586772
aS'-'
asS'HNRNPA1P7'
p376
(lp377
I32412214
aI32413176
aS'-'
asS'IGLJCOR18'
p378
(lp379
I3394889
aI3395312
aS'+'
asS'ZBTB14'
p380
(lp381
I5289020
aI5297053
aS'-'
asS'ATP5A1'
p382
(lp383
I46084144
aI46104233
aS'-'
asS'AC100843.1'
p384
(lp385
I62415678
aI62416227
aS'+'
asS'TMEM200C'
p386
(lp387
I5882072
aI5895955
aS'-'
asS'AC100843.3'
p388
(lp389
I62418318
aI62418576
aS'+'
asS'AC119868.1'
p390
(lp391
I69469931
aI69471736
aS'+'
asS'RAB12'
p392
(lp393
I8609445
aI8639381
aS'+'
asS'AC021506.2'
p394
(lp395
I75927836
aI75928004
aS'+'
asS'CYP4F35P'
p396
(lp397
I14337423
aI14342524
aS'+'
asS'AP005901.4'
p398
(lp399
I15247429
aI15247997
aS'-'
asS'AP005901.5'
p400
(lp401
I15254418
aI15271744
aS'+'
asS'KATNBL1P3'
p402
(lp403
I2593674
aI2594913
aS'-'
asS'KLHL14'
p404
(lp405
I32672671
aI32773062
aS'-'
asS'AP005901.1'
p406
(lp407
I15307663
aI15330282
aS'-'
asS'AP005901.3'
p408
(lp409
I15196999
aI15197729
aS'-'
asS'AC100778.3'
p410
(lp411
I49495147
aI49496896
aS'-'
asS'PPIAP14'
p412
(lp413
I5002759
aI5003254
aS'-'
asS'RPL21P126'
p414
(lp415
I55635833
aI55636310
aS'+'
asS'MC5R'
p416
(lp417
I13824149
aI13827323
aS'+'
asS'CCND3P2'
p418
(lp419
I76751305
aI76751841
aS'+'
asS'AP002472.1'
p420
(lp421
I3580169
aI3580754
aS'+'
asS'LRRC30'
p422
(lp423
I7231125
aI7232047
aS'+'
asS'AC022662.1'
p424
(lp425
I67602692
aI67603022
aS'-'
asS'AC011225.1'
p426
(lp427
I41819053
aI41819421
aS'+'
asS'SKOR2'
p428
(lp429
I47206322
aI47251603
aS'-'
asS'C18orf8'
p430
(lp431
I23503470
aI23531807
aS'+'
asS'SETBP1'
p432
(lp433
I44680898
aI45068510
aS'+'
asS'ROCK1P1'
p434
(lp435
I109065
aI122219
aS'+'
asS'RPRD1A'
p436
(lp437
I35989824
aI36067576
aS'-'
asS'AP001005.1'
p438
(lp439
I80140
aI88570
aS'-'
asS'HMSD'
p440
(lp441
I63949357
aI63981774
aS'+'
asS'AP001005.3'
p442
(lp443
I94202
aI94330
aS'-'
asS'AP001005.2'
p444
(lp445
I45034
aI46047
aS'+'
asS'RPS4XP18'
p446
(lp447
I22586465
aI22587227
aS'+'
asS'RPS4XP19'
p448
(lp449
I9020029
aI9020764
aS'+'
asS'IMPACT'
p450
(lp451
I24426616
aI24453535
aS'+'
asS'ELAC1'
p452
(lp453
I50968016
aI50988121
aS'+'
asS'CTBP2P3'
p454
(lp455
I60663115
aI60664369
aS'+'
asS'MBD1'
p456
(lp457
I50266882
aI50281459
aS'-'
asS'AC091021.1'
p458
(lp459
I26098839
aI26099226
aS'+'
asS'AC022701.1'
p460
(lp461
I51845007
aI51845628
aS'-'
asS'BOLA2P1'
p462
(lp463
I832238
aI832469
aS'+'
asS'RPIAP1'
p464
(lp465
I61957273
aI61958014
aS'-'
asS'TMEM241'
p466
(lp467
I23197755
aI23437932
aS'-'
asS'ELOA2'
p468
(lp469
I47032572
aI47035621
aS'-'
asS'ELOA3'
p470
(lp471
I47028202
aI47030078
aS'-'
asS'TUBB8P12'
p472
(lp473
I47390
aI49557
aS'-'
asS'TNFRSF11A'
p474
(lp475
I62325315
aI62391292
aS'+'
asS'CPLX4'
p476
(lp477
I59275156
aI59318544
aS'-'
asS'CIDEA'
p478
(lp479
I12254361
aI12277593
aS'+'
asS'AC027506.1'
p480
(lp481
I64677796
aI64677993
aS'-'
asS'SEC11C'
p482
(lp483
I59139477
aI59158836
aS'+'
asS'ROCK1'
p484
(lp485
I20946906
aI21111851
aS'-'
asS'AC022655.2'
p486
(lp487
I67707929
aI67708246
aS'-'
asS'AP001029.3'
p488
(lp489
I12450447
aI12451042
aS'+'
asS'TYMS'
p490
(lp491
I657604
aI673578
aS'+'
asS'GAPDHP66'
p492
(lp493
I3977649
aI3978615
aS'-'
asS'TGIF1'
p494
(lp495
I3411927
aI3458406
aS'+'
asS'ZSCAN30'
p496
(lp497
I35251058
aI35290245
aS'-'
asS'GLUD1P4'
p498
(lp499
I59778572
aI59778989
aS'+'
asS'PMAIP1'
p500
(lp501
I59899948
aI59904306
aS'+'
asS'PPP4R1'
p502
(lp503
I9546791
aI9614569
aS'-'
asS'AP001025.1'
p504
(lp505
I3377916
aI3378247
aS'-'
asS'FBXO15'
p506
(lp507
I74073366
aI74147865
aS'-'
asS'ZNF415P1'
p508
(lp509
I9785108
aI9787805
aS'+'
asS'AC016839.1'
p510
(lp511
I26204869
aI26205904
aS'+'
asS'APCDD1'
p512
(lp513
I10454628
aI10489948
aS'+'
asS'TXNDC2'
p514
(lp515
I9885938
aI9889275
aS'+'
asS'SLC35G4'
p516
(lp517
I11609596
aI11610612
aS'+'
asS'PARD6G'
p518
(lp519
I80157232
aI80247546
aS'-'
asS'AC096708.1'
p520
(lp521
I68992718
aI68993375
aS'-'
asS'AC096708.2'
p522
(lp523
I68866517
aI68867028
aS'+'
asS'NRBF2P1'
p524
(lp525
I35841759
aI35842617
aS'+'
asS'DCC'
p526
(lp527
I52340172
aI53535899
aS'+'
asS'IER3IP1'
p528
(lp529
I47152834
aI47176374
aS'-'
asS'AP001017.1'
p530
(lp531
I11552366
aI11552847
aS'+'
asS'TAF4B'
p532
(lp533
I26225936
aI26391685
aS'+'
asS'DLGAP1'
p534
(lp535
I3496032
aI4455335
aS'-'
asS'TPGS2'
p536
(lp537
I36780027
aI36829216
aS'-'
asS'MAPRE2'
p538
(lp539
I34976928
aI35143466
aS'+'
asS'AQP4'
p540
(lp541
I26852038
aI26865818
aS'-'
asS'FAM210A'
p542
(lp543
I13663351
aI13726592
aS'-'
asS'CDH20'
p544
(lp545
I61333582
aI61555773
aS'+'
asS'RPL17'
p546
(lp547
I49488484
aI49492523
aS'-'
asS'RBBP8'
p548
(lp549
I22798261
aI22936883
aS'+'
asS'SNRPD1'
p550
(lp551
I21612267
aI21633524
aS'+'
asS'AC027141.1'
p552
(lp553
I28651732
aI28653208
aS'+'
asS'GALR1'
p554
(lp555
I77250549
aI77277896
aS'+'
asS'MYO5B'
p556
(lp557
I49822813
aI50195093
aS'-'
asS'FGF7P1'
p558
(lp559
I14888709
aI14890086
aS'-'
asS'AC090227.1'
p560
(lp561
I49795793
aI49837623
aS'-'
asS'VPS4B'
p562
(lp563
I63389190
aI63422463
aS'-'
asS'SEH1L'
p564
(lp565
I12947995
aI12987536
aS'+'
asS'AP001086.1'
p566
(lp567
I13919603
aI13919923
aS'-'
asS'AP001120.4'
p568
(lp569
I11618208
aI11618315
aS'+'
asS'AP001120.3'
p570
(lp571
I11644336
aI11644824
aS'+'
asS'CLUHP6'
p572
(lp573
I32196026
aI32196966
aS'-'
asS'TWSG1'
p574
(lp575
I9334767
aI9402420
aS'+'
asS'AC017100.2'
p576
(lp577
I31726043
aI31726397
aS'-'
asS'NARS'
p578
(lp579
I57600656
aI57622173
aS'-'
asS'SLC25A51P2'
p580
(lp581
I7134931
aI7135819
aS'+'
asS'ENOSF1'
p582
(lp583
I670324
aI712662
aS'-'
asS'RNF138'
p584
(lp585
I32091855
aI32131561
aS'+'
asS'AC022884.2'
p586
(lp587
I24685772
aI24686351
aS'-'
asS'AC022884.3'
p588
(lp589
I24689914
aI24690161
aS'-'
asS'B4GALT6'
p590
(lp591
I31623169
aI31684723
aS'-'
asS'RPS3AP49'
p592
(lp593
I60149576
aI60150365
aS'+'
asS'TUBB6'
p594
(lp595
I12310967
aI12344320
aS'+'
asS'TSHZ1'
p596
(lp597
I75210755
aI75289950
aS'+'
asS'KATNAL2'
p598
(lp599
I46917492
aI47098482
aS'+'
asS'AC036176.2'
p600
(lp601
I63415317
aI63416469
aS'-'
asS'SDCCAG3P1'
p602
(lp603
I60009994
aI60011143
aS'-'
asS'AC103987.3'
p604
(lp605
I21914369
aI21914660
aS'-'
asS'PTPN2'
p606
(lp607
I12825804
aI12929643
aS'-'
asS'NF1P5'
p608
(lp609
I14153001
aI14157342
aS'-'
asS'AC103987.1'
p610
(lp611
I21854640
aI21854987
aS'-'
asS'CBX3P2'
p612
(lp613
I2652170
aI2655395
aS'-'
asS'ST8SIA5'
p614
(lp615
I46667821
aI46756809
aS'-'
asS'DHFRP1'
p616
(lp617
I26170726
aI26171284
aS'-'
asS'ST8SIA3'
p618
(lp619
I57350813
aI57368933
aS'+'
asS'AP001542.2'
p620
(lp621
I12050309
aI12050672
aS'-'
asS'AP001542.1'
p622
(lp623
I12040101
aI12040300
aS'-'
asS'AC022960.3'
p624
(lp625
I31883288
aI31883728
aS'+'
asS'RPSAP57'
p626
(lp627
I54744750
aI54745581
aS'+'
asS'GRAMD4P7'
p628
(lp629
I14485806
aI14487501
aS'+'
asS'GNAL'
p630
(lp631
I11688956
aI11885685
aS'+'
asS'AP001793.1'
p632
(lp633
I8545635
aI8546817
aS'+'
asS'EPG5'
p634
(lp635
I45847609
aI45967274
aS'-'
asS'TPMTP1'
p636
(lp637
I47630112
aI47630848
aS'+'
asS'MYOM1'
p638
(lp639
I3066807
aI3220108
aS'-'
asS'AP000902.1'
p640
(lp641
I9734882
aI9735602
aS'-'
asS'AC090771.1'
p642
(lp643
I60196555
aI60198172
aS'+'
asS'BDP1P'
p644
(lp645
I77435253
aI77437242
aS'-'
asS'CTDP1'
p646
(lp647
I79679801
aI79756623
aS'+'
asS'AC067819.1'
p648
(lp649
I68527970
aI68528123
aS'+'
asS'KRT8P5'
p650
(lp651
I44320800
aI44322257
aS'-'
asS'RPL12P40'
p652
(lp653
I37672689
aI37673176
aS'+'
asS'GAREM1'
p654
(lp655
I32263522
aI32470484
aS'-'
asS'PSTPIP2'
p656
(lp657
I45983536
aI46072260
aS'-'
asS'C18orf21'
p658
(lp659
I35972083
aI35979278
aS'+'
asS'C18orf25'
p660
(lp661
I46174027
aI46266991
aS'+'
asS'ZNF532'
p662
(lp663
I58862600
aI58986480
aS'+'
asS'CBLN2'
p664
(lp665
I72538150
aI72638517
aS'-'
asS'AC023932.2'
p666
(lp667
I28824652
aI28824826
aS'-'
asS'DSG2'
p668
(lp669
I31498043
aI31549008
aS'+'
asS'DSG3'
p670
(lp671
I31447795
aI31478702
aS'+'
asS'PSMA8'
p672
(lp673
I26133852
aI26193355
aS'+'
asS'DSG1'
p674
(lp675
I31318089
aI31357029
aS'+'
asS'DSG4'
p676
(lp677
I31376883
aI31414912
aS'+'
asS'AC091551.1'
p678
(lp679
I50968019
aI51058144
aS'+'
asS'EPB41L3'
p680
(lp681
I5392445
aI5630663
aS'-'
asS'AP001094.4'
p682
(lp683
I8412129
aI8414304
aS'+'
asS'KIAA1328'
p684
(lp685
I36829106
aI37231518
aS'+'
asS'OR4K8P'
p686
(lp687
I14613137
aI14614184
aS'+'
asS'SALL3'
p688
(lp689
I78980275
aI78999974
aS'+'
asS'CHMP1B'
p690
(lp691
I11851396
aI11854449
aS'+'
asS'AC113195.1'
p692
(lp693
I67137611
aI67137751
aS'-'
asS'SCML2P1'
p694
(lp695
I6926944
aI6928210
aS'+'
asS'ADAD1P2'
p696
(lp697
I50063795
aI50064440
aS'+'
asS'MYL12B'
p698
(lp699
I3261909
aI3278284
aS'+'
asS'MYL12A'
p700
(lp701
I3247481
aI3256227
aS'+'
asS'RPL12P39'
p702
(lp703
I64072158
aI64072653
aS'+'
asS'BOD1L2'
p704
(lp705
I57147062
aI57150300
aS'+'
asS'ASNSP6'
p706
(lp707
I11745626
aI11747581
aS'+'
asS'RAX'
p708
(lp709
I59267035
aI59273393
aS'-'
asS'ZNF407'
p710
(lp711
I74631020
aI75065669
aS'+'
asS'AP005208.1'
p712
(lp713
I4430945
aI4431152
aS'+'
asS'AP002414.2'
p714
(lp715
I12073232
aI12076596
aS'-'
asS'AP002414.3'
p716
(lp717
I12091674
aI12093141
aS'-'
asS'SNRPCP4'
p718
(lp719
I2990652
aI2991078
aS'+'
asS'CDH19'
p720
(lp721
I66501083
aI66604134
aS'-'
asS'LOXHD1'
p722
(lp723
I46477260
aI46657033
aS'-'
asS'TXNL4A'
p724
(lp725
I79972875
aI80033949
aS'-'
asS'ANKRD12'
p726
(lp727
I9136777
aI9285985
aS'+'
asS'YES1'
p728
(lp729
I721588
aI812546
aS'-'
asS'AC091305.1'
p730
(lp731
I70430231
aI70431125
aS'+'
asS'AC105224.1'
p732
(lp733
I50098742
aI50099162
aS'+'
asS'ANKRD30B'
p734
(lp735
I14748240
aI14852480
aS'+'
asS'PIGPP4'
p736
(lp737
I9880580
aI9880886
aS'-'
asS'NFE2L3P1'
p738
(lp739
I59969438
aI59971396
aS'+'
asS'ZCCHC2'
p740
(lp741
I62523667
aI62586729
aS'+'
asS'MBP'
p742
(lp743
I76978834
aI77132818
aS'-'
asS'MALT1'
p744
(lp745
I58671386
aI58754477
aS'+'
asS'SMUG1P1'
p746
(lp747
I49650350
aI49651160
aS'+'
asS'ZBTB7C'
p748
(lp749
I48026673
aI48409422
aS'-'
asS'AC012569.1'
p750
(lp751
I46028306
aI46029829
aS'+'
asS'PIEZO2'
p752
(lp753
I10670248
aI11148762
aS'-'
asS'PIGN'
p754
(lp755
I61905255
aI62154623
aS'-'
asS'AC090897.1'
p756
(lp757
I54406889
aI54407114
aS'-'
asS'INO80C'
p758
(lp759
I35452230
aI35497933
aS'-'
asS'AC090897.3'
p760
(lp761
I54412763
aI54424632
aS'+'
asS'AC090897.2'
p762
(lp763
I54525434
aI54525563
aS'+'
asS'CCDC178'
p764
(lp765
I32937407
aI33440693
aS'-'
asS'MRO'
p766
(lp767
I50795120
aI50825384
aS'-'
asS'AC090241.1'
p768
(lp769
I46852632
aI46853882
aS'-'
asS'BCL2'
p770
(lp771
I63123346
aI63320128
aS'-'
asS'AC018371.2'
p772
(lp773
I26831520
aI26832432
aS'-'
asS'SDHDP1'
p774
(lp775
I12101997
aI12102470
aS'-'
asS'AC006557.2'
p776
(lp777
I14143596
aI14151139
aS'-'
asS'MC2R'
p778
(lp779
I13882044
aI13915540
aS'-'
asS'AC008021.1'
p780
(lp781
I74389884
aI74390297
aS'-'
asS'AC006557.5'
p782
(lp783
I14053951
aI14054761
aS'+'
asS'AC006557.4'
p784
(lp785
I14074912
aI14075741
aS'-'
asS'AFG3L2'
p786
(lp787
I12328944
aI12377314
aS'-'
asS'LDLRAD4'
p788
(lp789
I13218787
aI13652755
aS'+'
asS'ATP9B'
p790
(lp791
I79069394
aI79378283
aS'+'
asS'C18orf63'
p792
(lp793
I74315813
aI74359187
aS'+'
asS'SERPINB2'
p794
(lp795
I63871692
aI63897143
aS'+'
asS'CCDC102B'
p796
(lp797
I68798080
aI69055189
aS'+'
asS'DSC2'
p798
(lp799
I31058840
aI31102415
aS'-'
asS'DSC3'
p800
(lp801
I30990008
aI31042741
aS'-'
asS'DSC1'
p802
(lp803
I31129236
aI31162856
aS'-'
asS'AC009831.3'
p804
(lp805
I31966960
aI31967545
aS'+'
asS'AC009831.2'
p806
(lp807
I31962178
aI31963618
aS'+'
asS'AP005212.1'
p808
(lp809
I14391913
aI14393909
aS'-'
asS'RPL30P14'
p810
(lp811
I61404858
aI61405205
aS'-'
asS'ARHGAP28'
p812
(lp813
I6729718
aI6912155
aS'+'
asS'AC090311.1'
p814
(lp815
I46722975
aI46723223
aS'+'
asS'AC099849.1'
p816
(lp817
I22418829
aI22419294
aS'-'
asS'ACTBP9'
p818
(lp819
I62442028
aI62443126
aS'+'
asS'AP005212.4'
p820
(lp821
I14346214
aI14346923
aS'-'
asS'SS18L2P2'
p822
(lp823
I51421063
aI51421674
aS'-'
asS'RBFA'
p824
(lp825
I80034358
aI80046392
aS'+'
asS'SERPINB8'
p826
(lp827
I63970114
aI64019779
aS'+'
asS'VAPA'
p828
(lp829
I9914002
aI9960021
aS'+'
asS'ABHD3'
p830
(lp831
I21650897
aI21704805
aS'-'
asS'SERPINB3'
p832
(lp833
I63655197
aI63661963
aS'-'
asS'SMIM21'
p834
(lp835
I75409476
aI75427703
aS'-'
asS'SERPINB5'
p836
(lp837
I63476761
aI63505085
aS'+'
asS'SERPINB4'
p838
(lp839
I63637259
aI63644298
aS'-'
asS'SERPINB7'
p840
(lp841
I63753047
aI63805376
aS'+'
asS'SOCS6'
p842
(lp843
I70288901
aI70330200
aS'+'
asS'AC012433.1'
p844
(lp845
I50669510
aI50670215
aS'+'
asS'ZADH2'
p846
(lp847
I75195108
aI75209348
aS'-'
asS'AC107990.1'
p848
(lp849
I59929226
aI59930330
aS'+'
asS'ATP8B1'
p850
(lp851
I57701089
aI57803101
aS'-'
asS'L3MBTL4'
p852
(lp853
I5954706
aI6414911
aS'-'
asS'STK25P1'
p854
(lp855
I12911186
aI12912023
aS'+'
asS'ELP2'
p856
(lp857
I36129871
aI36180556
aS'+'
asS'TOMM20P3'
p858
(lp859
I8688022
aI8688410
aS'-'
asS'AC098847.1'
p860
(lp861
I59761558
aI59761905
aS'+'
asS'PRR13P4'
p862
(lp863
I49469803
aI49470223
aS'+'
asS'CCDC68'
p864
(lp865
I54901509
aI54959508
aS'-'
asS'AC110743.1'
p866
(lp867
I76703444
aI76704254
aS'-'
asS'CTIF'
p868
(lp869
I48539046
aI48863217
aS'+'
asS'TERF1P2'
p870
(lp871
I14377546
aI14378757
aS'-'
asS'EXOGP1'
p872
(lp873
I21182503
aI21183499
aS'-'
asS'ASXL3'
p874
(lp875
I33578577
aI33751192
aS'+'
asS'RPL23AP77'
p876
(lp877
I23709825
aI23710287
aS'-'
asS'HAUS1'
p878
(lp879
I46104332
aI46128333
aS'+'
asS'NPC1'
p880
(lp881
I23531437
aI23586898
aS'-'
asS'AC021382.1'
p882
(lp883
I27355406
aI27355764
aS'-'
asS'PRELID3A'
p884
(lp885
I12407896
aI12432235
aS'+'
asS'VN1R74P'
p886
(lp887
I14680604
aI14681106
aS'-'
asS'SLC14A2'
p888
(lp889
I45212995
aI45682975
aS'+'
asS'SLC14A1'
p890
(lp891
I45724127
aI45752520
aS'+'
asS'SLC25A52'
p892
(lp893
I31759562
aI31760880
aS'-'
asS'SERPINB11'
p894
(lp895
I63647579
aI63720080
aS'+'
asS'SERPINB10'
p896
(lp897
I63907991
aI63936111
aS'+'
asS'SERPINB13'
p898
(lp899
I63588731
aI63604639
aS'+'
asS'SERPINB12'
p900
(lp901
I63556160
aI63567011
aS'+'
asS'AC104971.1'
p902
(lp903
I58631259
aI58632120
aS'+'
asS'AC091691.1'
p904
(lp905
I71225704
aI71226721
aS'+'
asS'AC104961.1'
p906
(lp907
I25016434
aI25017204
aS'-'
asS'ANKRD29'
p908
(lp909
I23598926
aI23662885
aS'-'
asS'KDSR'
p910
(lp911
I63327726
aI63367510
aS'-'
asS'AC011712.1'
p912
(lp913
I41789162
aI41789395
aS'-'
asS'AC022968.1'
p914
(lp915
I68277802
aI68278243
aS'-'
asS'AP005058.1'
p916
(lp917
I14629832
aI14632806
aS'-'
asS'LMAN1'
p918
(lp919
I59327823
aI59359962
aS'-'
asS'RNF125'
p920
(lp921
I32018372
aI32073213
aS'+'
asS'HNRNPA1P11'
p922
(lp923
I72618267
aI72619222
aS'+'
asS'AC098847.2'
p924
(lp925
I59821040
aI59824461
aS'+'
asS'TMX3'
p926
(lp927
I68673688
aI68715298
aS'-'
asS'SMCHD1'
p928
(lp929
I2655738
aI2805017
aS'+'
asS'EIF4A2P1'
p930
(lp931
I12912844
aI12913906
aS'+'
asS'AC123786.2'
p932
(lp933
I77632928
aI77633360
aS'-'
asS'ME2'
p934
(lp935
I50878734
aI50954257
aS'+'
asS'AP001004.1'
p936
(lp937
I14222008
aI14222331
aS'+'
asS'AC090415.1'
p938
(lp939
I71028770
aI71033056
aS'+'
asS'AC011260.1'
p940
(lp941
I51612639
aI51613110
aS'-'
asS'MOCOS'
p942
(lp943
I36187519
aI36272157
aS'+'
asS'AC022069.1'
p944
(lp945
I26348347
aI26349004
aS'+'
asS'MAPK4'
p946
(lp947
I50560078
aI50731824
aS'+'
asS'PRPF19P1'
p948
(lp949
I66068750
aI66069647
aS'-'
asS'AP005139.1'
p950
(lp951
I11326270
aI11328832
aS'+'
asS'AP005265.1'
p952
(lp953
I1159198
aI1160404
aS'-'
asS'AC027229.1'
p954
(lp955
I25953216
aI25953468
aS'-'
asS'ATP5G1P6'
p956
(lp957
I63496989
aI63497400
aS'+'
asS'AC105245.1'
p958
(lp959
I29256817
aI29257060
aS'-'
asS'DTNA'
p960
(lp961
I34493290
aI34891844
aS'+'
asS'PHLPP1'
p962
(lp963
I62715450
aI62980433
aS'+'
asS'C18orf54'
p964
(lp965
I54357917
aI54382035
aS'+'
asS'ZNF521'
p966
(lp967
I25061926
aI25352152
aS'-'
asS'FHOD3'
p968
(lp969
I36297714
aI36780055
aS'+'
asS'EMILIN2'
p970
(lp971
I2847030
aI2915993
aS'+'
asS'RSL24D1P11'
p972
(lp973
I57838476
aI57838966
aS'+'
asS'METTL4'
p974
(lp975
I2537525
aI2571509
aS'-'
asS'PIAS2'
p976
(lp977
I46803224
aI46917345
aS'-'
asS'FRG2LP'
p978
(lp979
I14137710
aI14139272
aS'+'
asS'TIMM21'
p980
(lp981
I74148511
aI74160530
aS'+'
asS'KCTD1'
p982
(lp983
I26455760
aI26657401
aS'-'
asS'HDHD2'
p984
(lp985
I47107403
aI47150520
aS'-'
asS'AC109315.1'
p986
(lp987
I51433437
aI51434783
aS'+'
asS'CCDC58P3'
p988
(lp989
I12211378
aI12211807
aS'+'
asS'CCDC58P1'
p990
(lp991
I10623876
aI10624305
aS'-'
asS'RAB31'
p992
(lp993
I9708165
aI9862551
aS'+'
asS'ESCO1'
p994
(lp995
I21529303
aI21600884
aS'-'
asS'AP001357.2'
p996
(lp997
I13139780
aI13140489
aS'-'
asS'AP001357.1'
p998
(lp999
I13151637
aI13152689
aS'-'
asS'DOK6'
p1000
(lp1001
I69401055
aI69849087
aS'+'
asS'MRPL37P1'
p1002
(lp1003
I58690356
aI58692153
aS'+'
asS'CABLES1'
p1004
(lp1005
I23135763
aI23260467
aS'+'
asS'MPPE1'
p1006
(lp1007
I11882622
aI11909223
aS'-'
asS'AC011155.1'
p1008
(lp1009
I52419189
aI52419644
aS'-'
asS'TXNL1'
p1010
(lp1011
I56602824
aI56651274
aS'-'
asS'LRRC37A7P'
p1012
(lp1013
I31724198
aI31726956
aS'+'
asS'AP000894.1'
p1014
(lp1015
I856526
aI857045
aS'+'
asS'USP14'
p1016
(lp1017
I158608
aI214629
aS'+'
asS'ANKRD62'
p1018
(lp1019
I12093853
aI12127939
aS'+'
asS'RNF165'
p1020
(lp1021
I46334224
aI46463140
aS'+'
asS'CFAP53'
p1022
(lp1023
I50227193
aI50266522
aS'-'
asS'NEDD4L'
p1024
(lp1025
I58044548
aI58401539
aS'+'
asS'AC087685.1'
p1026
(lp1027
I45788530
aI45788670
aS'+'
asS'PTPRM'
p1028
(lp1029
I7566782
aI8406861
aS'+'
asS'AC024288.1'
p1030
(lp1031
I48478282
aI48478491
aS'-'
as.