(dp1
S'SCFD1'
p2
(lp3
I30622112
aI30735812
aS'+'
asS'HSPA2'
p4
(lp5
I64535905
aI64546173
aS'+'
asS'IGHV4-4'
p6
(lp7
I106011922
aI106012420
aS'-'
asS'AL158801.5'
p8
(lp9
I55229217
aI55229681
aS'+'
asS'IGHV3-19'
p10
(lp11
I106196700
aI106196990
aS'-'
asS'POLR3GP1'
p12
(lp13
I91603173
aI91603433
aS'-'
asS'IGHV1-14'
p14
(lp15
I106145891
aI106146131
aS'-'
asS'IGHG4'
p16
(lp17
I105624341
aI105626066
aS'-'
asS'RPL23AP70'
p18
(lp19
I35144021
aI35144480
aS'-'
asS'REM2'
p20
(lp21
I22883165
aI22887686
aS'+'
asS'IGHV3-16'
p22
(lp23
I106165205
aI106165730
aS'-'
asS'IGHV3-11'
p24
(lp25
I106116635
aI106117204
aS'-'
asS'IGHG1'
p26
(lp27
I105736343
aI105743071
aS'-'
asS'IGHG2'
p28
(lp29
I105643052
aI105644790
aS'-'
asS'IGHG3'
p30
(lp31
I105769102
aI105771405
aS'-'
asS'AL357094.1'
p32
(lp33
I38605255
aI38606098
aS'+'
asS'LGALS3'
p34
(lp35
I55129044
aI55145403
aS'+'
asS'MTND5P35'
p36
(lp37
I84173791
aI84175510
aS'+'
asS'CEP128'
p38
(lp39
I80496478
aI80941785
aS'-'
asS'JPH4'
p40
(lp41
I23568035
aI23578800
aS'-'
asS'FKBP3'
p42
(lp43
I45115600
aI45135319
aS'-'
asS'IGHV1-17'
p44
(lp45
I106174342
aI106174760
aS'-'
asS'AL352979.3'
p46
(lp47
I53023055
aI53023597
aS'+'
asS'PPP4R3A'
p48
(lp49
I91457611
aI91510144
aS'-'
asS'IGHV3-75'
p50
(lp51
I106823687
aI106824147
aS'-'
asS'SCOCP1'
p52
(lp53
I60158976
aI60159324
aS'+'
asS'SAMD15'
p54
(lp55
I77376689
aI77391268
aS'+'
asS'RPL9P6'
p56
(lp57
I81777016
aI81777613
aS'-'
asS'IGHV3-7'
p58
(lp59
I106062151
aI106062683
aS'-'
asS'IGHV3-6'
p60
(lp61
I106055549
aI106055998
aS'-'
asS'OR11G1P'
p62
(lp63
I20179189
aI20180156
aS'+'
asS'CYP46A1'
p64
(lp65
I99684314
aI99727301
aS'+'
asS'CTAGE5'
p66
(lp67
I39267246
aI39388513
aS'+'
asS'TRAV29DV5'
p68
(lp69
I22163238
aI22163870
aS'+'
asS'IGHV3-29'
p70
(lp71
I106356145
aI106356591
aS'-'
asS'TRAV22'
p72
(lp73
I22070557
aI22071208
aS'+'
asS'TRAV21'
p74
(lp75
I22052514
aI22053056
aS'+'
asS'TRAV20'
p76
(lp77
I22040594
aI22041153
aS'+'
asS'SPTLC2'
p78
(lp79
I77505997
aI77616773
aS'-'
asS'ZC3H14'
p80
(lp81
I88562909
aI88627596
aS'+'
asS'TRAV25'
p82
(lp83
I22112347
aI22113031
aS'+'
asS'TRAV24'
p84
(lp85
I22105343
aI22105846
aS'+'
asS'TRAV28'
p86
(lp87
I22155079
aI22155638
aS'+'
asS'ABCD4'
p88
(lp89
I74285423
aI74303056
aS'-'
asS'AC004858.1'
p90
(lp91
I73189763
aI73190004
aS'+'
asS'BDKRB1'
p92
(lp93
I96256210
aI96268967
aS'+'
asS'AL355836.1'
p94
(lp95
I101217372
aI101218241
aS'-'
asS'IGHV1-18'
p96
(lp97
I106184901
aI106185394
aS'-'
asS'IGHV3-76'
p98
(lp99
I106827869
aI106828163
aS'-'
asS'IGHVII-33-1'
p100
(lp101
I106367385
aI106367664
aS'-'
asS'AL122013.1'
p102
(lp103
I68338728
aI68339528
aS'-'
asS'CR383656.12'
p104
(lp105
I18645991
aI18646503
aS'+'
asS'ISM2'
p106
(lp107
I77474397
aI77498850
aS'-'
asS'HNRNPUP1'
p108
(lp109
I43300263
aI43300595
aS'+'
asS'TMEM63C'
p110
(lp111
I77116568
aI77218884
aS'+'
asS'PTGR2'
p112
(lp113
I73851846
aI73886827
aS'+'
asS'AP5M1'
p114
(lp115
I57268909
aI57298742
aS'+'
asS'RPSAP4'
p116
(lp117
I94726288
aI94727175
aS'+'
asS'RPSAP5'
p118
(lp119
I103374033
aI103374916
aS'-'
asS'RPL7AP4'
p120
(lp121
I55543401
aI55544169
aS'+'
asS'IGHV3-13'
p122
(lp123
I106129540
aI106130072
aS'-'
asS'AC022404.1'
p124
(lp125
I80822524
aI80822796
aS'+'
asS'RPSAP3'
p126
(lp127
I76634775
aI76635661
aS'-'
asS'NKX2-8'
p128
(lp129
I36580579
aI36582607
aS'-'
asS'AL359219.1'
p130
(lp131
I59135488
aI59136421
aS'-'
asS'IGHV3-62'
p132
(lp133
I106643142
aI106643585
aS'-'
asS'IGHV3-63'
p134
(lp135
I106652237
aI106652681
aS'-'
asS'IGHV3-64'
p136
(lp137
I106657725
aI106658258
aS'-'
asS'IGHVIII-11-1'
p138
(lp139
I106120207
aI106120473
aS'-'
asS'IGHV3-66'
p140
(lp141
I106675017
aI106675544
aS'-'
asS'IGHVIII-5-2'
p142
(lp143
I106045600
aI106045860
aS'-'
asS'AKAP5'
p144
(lp145
I64465499
aI64474503
aS'+'
asS'AKAP6'
p146
(lp147
I32329273
aI32837681
aS'+'
asS'L2HGDH'
p148
(lp149
I50237563
aI50312168
aS'-'
asS'TRAV36DV7'
p150
(lp151
I22226746
aI22227254
aS'+'
asS'RNASE10'
p152
(lp153
I20505537
aI20511155
aS'+'
asS'RNASE13'
p154
(lp155
I21032820
aI21034785
aS'-'
asS'TC2N'
p156
(lp157
I91779751
aI91867529
aS'-'
asS'AC007375.2'
p158
(lp159
I77098311
aI77225462
aS'+'
asS'MAX'
p160
(lp161
I65006174
aI65102387
aS'-'
asS'HIF1AP1'
p162
(lp163
I75116426
aI75116600
aS'-'
asS'C14orf93'
p164
(lp165
I22985908
aI23010151
aS'-'
asS'IGHGP'
p166
(lp167
I105664633
aI105669843
aS'-'
asS'POTEM'
p168
(lp169
I18967434
aI18999012
aS'+'
asS'ARL6IP1P1'
p170
(lp171
I21649728
aI21650337
aS'-'
asS'AC244452.4'
p172
(lp173
I106481424
aI106481706
aS'-'
asS'AC244452.3'
p174
(lp175
I106472791
aI106473000
aS'-'
asS'AL132838.1'
p176
(lp177
I93223598
aI93224139
aS'-'
asS'AC244452.1'
p178
(lp179
I106436415
aI106436555
aS'-'
asS'NRL'
p180
(lp181
I24080167
aI24115014
aS'-'
asS'AL358913.2'
p182
(lp183
I43595136
aI43596683
aS'+'
asS'KLC1'
p184
(lp185
I103561896
aI103657734
aS'+'
asS'AL358913.1'
p186
(lp187
I43592142
aI43592262
aS'-'
asS'AL117187.1'
p188
(lp189
I95199039
aI95199345
aS'+'
asS'AL160191.2'
p190
(lp191
I70234495
aI70235095
aS'+'
asS'MMP14'
p192
(lp193
I22836576
aI22849027
aS'+'
asS'ATP6V1D'
p194
(lp195
I67294371
aI67359791
aS'-'
asS'AL136295.3'
p196
(lp197
I24120956
aI24131829
aS'+'
asS'AL110118.1'
p198
(lp199
I93138066
aI93138465
aS'+'
asS'EVL'
p200
(lp201
I99971449
aI100144236
aS'+'
asS'AL136295.4'
p202
(lp203
I24180395
aI24190416
aS'-'
asS'IGHD4-23'
p204
(lp205
I105884870
aI105884888
aS'-'
asS'AK7'
p206
(lp207
I96392111
aI96489427
aS'+'
asS'NOVA1'
p208
(lp209
I26443093
aI26597519
aS'-'
asS'IGHJ1P'
p210
(lp211
I105865624
aI105865678
aS'-'
asS'IGHVII-40-1'
p212
(lp213
I106440950
aI106441007
aS'-'
asS'AL160314.3'
p214
(lp215
I22723476
aI22726572
aS'-'
asS'COX6CP11'
p216
(lp217
I77652827
aI77653055
aS'-'
asS'AL135752.1'
p218
(lp219
I58564146
aI58564616
aS'+'
asS'CHURC1'
p220
(lp221
I64914443
aI64944591
aS'+'
asS'AC007262.1'
p222
(lp223
I81003325
aI81003645
aS'-'
asS'AL352979.1'
p224
(lp225
I53011971
aI53012267
aS'+'
asS'PTGDR'
p226
(lp227
I52267713
aI52276724
aS'+'
asS'AL122127.1'
p228
(lp229
I105785505
aI105785831
aS'-'
asS'ERO1A'
p230
(lp231
I52639916
aI52695705
aS'-'
asS'SPTSSA'
p232
(lp233
I34432789
aI34462356
aS'-'
asS'AL139099.1'
p234
(lp235
I49577392
aI49577794
aS'-'
asS'AL136520.1'
p236
(lp237
I57629841
aI57631162
aS'+'
asS'TRAJ58'
p238
(lp239
I22477707
aI22477769
aS'+'
asS'TRAJ59'
p240
(lp241
I22476553
aI22476606
aS'+'
asS'AL163195.1'
p242
(lp243
I20616644
aI20616991
aS'-'
asS'MAGOH3P'
p244
(lp245
I68861762
aI68862525
aS'+'
asS'AL163195.3'
p246
(lp247
I20584340
aI20609795
aS'-'
asS'TRAJ52'
p248
(lp249
I22486228
aI22486296
aS'+'
asS'TRAJ53'
p250
(lp251
I22483004
aI22483069
aS'+'
asS'TRAJ50'
p252
(lp253
I22488593
aI22488652
aS'+'
asS'TRAJ51'
p254
(lp255
I22487183
aI22487245
aS'+'
asS'TRAJ56'
p256
(lp257
I22479521
aI22479582
aS'+'
asS'TRAJ57'
p258
(lp259
I22478872
aI22478934
aS'+'
asS'TRAJ54'
p260
(lp261
I22482287
aI22482346
aS'+'
asS'TRAJ55'
p262
(lp263
I22481697
aI22481753
aS'+'
asS'AHSA1'
p264
(lp265
I77458030
aI77469474
aS'+'
asS'LTB4R'
p266
(lp267
I24311499
aI24316946
aS'+'
asS'CR383658.2'
p268
(lp269
I18395626
aI18412264
aS'-'
asS'DIO2'
p270
(lp271
I80211309
aI80387757
aS'-'
asS'LINC00521'
p272
(lp273
I93987225
aI94007546
aS'+'
asS'DUXAP9'
p274
(lp275
I19062358
aI19115270
aS'+'
asS'MAPK1IP1L'
p276
(lp277
I55051631
aI55070192
aS'+'
asS'TMEM121'
p278
(lp279
I105526603
aI105530202
aS'+'
asS'AL512361.1'
p280
(lp281
I49373966
aI49374383
aS'+'
asS'AL512310.5'
p282
(lp283
I19668542
aI19669056
aS'-'
asS'AL049829.3'
p284
(lp285
I23293852
aI23295726
aS'+'
asS'HEATR5A'
p286
(lp287
I31291791
aI31420582
aS'-'
asS'AL049829.1'
p288
(lp289
I23229961
aI23230116
aS'-'
asS'AL049874.2'
p290
(lp291
I60572024
aI60572311
aS'-'
asS'AL356800.1'
p292
(lp293
I42807378
aI42808112
aS'-'
asS'PPP1R3E'
p294
(lp295
I23295643
aI23302848
aS'-'
asS'KCNK10'
p296
(lp297
I88180103
aI88326907
aS'-'
asS'AL049830.2'
p298
(lp299
I30819714
aI30819914
aS'+'
asS'IGHD4-4'
p300
(lp301
I105913222
aI105913237
aS'-'
asS'SLC39A9'
p302
(lp303
I69398690
aI69462388
aS'+'
asS'IGHD3-9'
p304
(lp305
I105904681
aI105904711
aS'-'
asS'MAP3K9'
p306
(lp307
I70722526
aI70809171
aS'-'
asS'AL117692.1'
p308
(lp309
I50052857
aI50053569
aS'+'
asS'IGHD3-3'
p310
(lp311
I105914359
aI105914389
aS'-'
asS'SLC39A2'
p312
(lp313
I20999290
aI21001871
aS'+'
asS'MRPL52'
p314
(lp315
I22829883
aI22835037
aS'+'
asS'LRRC74A'
p316
(lp317
I76826372
aI76870302
aS'+'
asS'C14orf180'
p318
(lp319
I104579684
aI104590515
aS'+'
asS'KCNH5'
p320
(lp321
I62712240
aI63101866
aS'-'
asS'IGHVII-44-2'
p322
(lp323
I106494134
aI106494383
aS'-'
asS'RPL13AP3'
p324
(lp325
I55766245
aI55767717
aS'+'
asS'LRR1'
p326
(lp327
I49598697
aI49614672
aS'+'
asS'GZMB'
p328
(lp329
I24630954
aI24634267
aS'-'
asS'RD3L'
p330
(lp331
I103940426
aI103942308
aS'-'
asS'AC005520.4'
p332
(lp333
I73840520
aI73840609
aS'-'
asS'OR7K1P'
p334
(lp335
I25357764
aI25358689
aS'+'
asS'CALM1'
p336
(lp337
I90396983
aI90408261
aS'+'
asS'GZMH'
p338
(lp339
I24606485
aI24609699
aS'-'
asS'AC005520.1'
p340
(lp341
I73851971
aI73932278
aS'+'
asS'OR4E1'
p342
(lp343
I21669990
aI21670935
aS'-'
asS'FBXO34'
p344
(lp345
I55272211
aI55355084
aS'+'
asS'AL161669.4'
p346
(lp347
I103084210
aI103090027
aS'+'
asS'EMC9'
p348
(lp349
I24138965
aI24141588
aS'-'
asS'GPX2'
p350
(lp351
I64939153
aI64942905
aS'-'
asS'RPL17P2'
p352
(lp353
I60212462
aI60212912
aS'-'
asS'FBXO33'
p354
(lp355
I39397669
aI39432500
aS'-'
asS'CRIP1'
p356
(lp357
I105486317
aI105488791
aS'+'
asS'ATXN3'
p358
(lp359
I92038652
aI92106610
aS'-'
asS'RPL21P9'
p360
(lp361
I67714545
aI67715204
aS'+'
asS'CRIP2'
p362
(lp363
I105472962
aI105479694
aS'+'
asS'OR4K5'
p364
(lp365
I19920582
aI19921659
aS'+'
asS'CR383656.14'
p366
(lp367
I18562928
aI18568790
aS'+'
asS'TRAV18'
p368
(lp369
I22003106
aI22003673
aS'+'
asS'TRAV19'
p370
(lp371
I22007512
aI22008181
aS'+'
asS'OR4K1'
p372
(lp373
I19935608
aI19936683
aS'+'
asS'RAP2CP1'
p374
(lp375
I103279313
aI103279955
aS'+'
asS'OR4K3'
p376
(lp377
I19868242
aI19869143
aS'-'
asS'OR4K2'
p378
(lp379
I19876232
aI19877309
aS'+'
asS'TRAV10'
p380
(lp381
I21825472
aI21826075
aS'+'
asS'TRAV11'
p382
(lp383
I21829539
aI21830070
aS'+'
asS'TRAV16'
p384
(lp385
I21990496
aI21990938
aS'+'
asS'TRAV17'
p386
(lp387
I21997539
aI21998168
aS'+'
asS'TRAV15'
p388
(lp389
I21950406
aI21950654
aS'+'
asS'KIAA0586'
p390
(lp391
I58427402
aI58551289
aS'+'
asS'IGHVIII-82'
p392
(lp393
I106879563
aI106879812
aS'-'
asS'DLK1'
p394
(lp395
I100726827
aI100738224
aS'+'
asS'IGHD6-19'
p396
(lp397
I105891699
aI105891719
aS'-'
asS'ZNF839'
p398
(lp399
I102317377
aI102342364
aS'+'
asS'AL157687.1'
p400
(lp401
I21184341
aI21184959
aS'-'
asS'AL137190.1'
p402
(lp403
I96019484
aI96019765
aS'+'
asS'IGHD6-13'
p404
(lp405
I105901142
aI105901162
aS'-'
asS'NEDD8'
p406
(lp407
I24216852
aI24232454
aS'-'
asS'SLC38A6'
p408
(lp409
I60981114
aI61083712
aS'+'
asS'ASPG'
p410
(lp411
I104085679
aI104115581
aS'+'
asS'AL132857.1'
p412
(lp413
I36533506
aI36534538
aS'-'
asS'RPS28P1'
p414
(lp415
I63808546
aI63808732
aS'+'
asS'PELI2'
p416
(lp417
I56118375
aI56301526
aS'+'
asS'IGHJ6'
p418
(lp419
I105863198
aI105863258
aS'-'
asS'IGHJ5'
p420
(lp421
I105863814
aI105863862
aS'-'
asS'IGHJ4'
p422
(lp423
I105864215
aI105864260
aS'-'
asS'IGHJ3'
p424
(lp425
I105864587
aI105864635
aS'-'
asS'IGHJ2'
p426
(lp427
I105865199
aI105865250
aS'-'
asS'IGHJ1'
p428
(lp429
I105865407
aI105865458
aS'-'
asS'TRAJ4'
p430
(lp431
I22542199
aI22542261
aS'+'
asS'TRAJ5'
p432
(lp433
I22540247
aI22540306
aS'+'
asS'TRAJ6'
p434
(lp435
I22539073
aI22539134
aS'+'
asS'TRAJ7'
p436
(lp437
I22537622
aI22537680
aS'+'
asS'TM9SF1'
p438
(lp439
I24189143
aI24195687
aS'-'
asS'TRAJ1'
p440
(lp441
I22545037
aI22545098
aS'+'
asS'TRAJ2'
p442
(lp443
I22544071
aI22544136
aS'+'
asS'TRAJ3'
p444
(lp445
I22543179
aI22543240
aS'+'
asS'ELMSAN1'
p446
(lp447
I73715122
aI73787258
aS'-'
asS'TRAV27'
p448
(lp449
I22147995
aI22148633
aS'+'
asS'PLEKHD1'
p450
(lp451
I69484754
aI69531551
aS'+'
asS'RPL23AP11'
p452
(lp453
I102662240
aI102662708
aS'-'
asS'TRAJ8'
p454
(lp455
I22536145
aI22536204
aS'+'
asS'TRAJ9'
p456
(lp457
I22535554
aI22535614
aS'+'
asS'AREL1'
p458
(lp459
I74660221
aI74713108
aS'-'
asS'C14orf119'
p460
(lp461
I23094765
aI23100462
aS'+'
asS'EGLN3'
p462
(lp463
I33985381
aI34462774
aS'-'
asS'IGHVIII-51-1'
p464
(lp465
I106583506
aI106583807
aS'-'
asS'TRAV1-1'
p466
(lp467
I21621838
aI21622567
aS'+'
asS'TRAV1-2'
p468
(lp469
I21642889
aI21643578
aS'+'
asS'AL049779.2'
p470
(lp471
I67652300
aI67652614
aS'-'
asS'AL133163.1'
p472
(lp473
I35388121
aI35389069
aS'-'
asS'AL445383.1'
p474
(lp475
I43274824
aI43275697
aS'+'
asS'KRT18P7'
p476
(lp477
I70594552
aI70595770
aS'+'
asS'AL132639.1'
p478
(lp479
I39211781
aI39212255
aS'+'
asS'TUNAR'
p480
(lp481
I95876392
aI95925562
aS'+'
asS'CKS1BP1'
p482
(lp483
I96223108
aI96223347
aS'+'
asS'EIF5'
p484
(lp485
I103334002
aI103345025
aS'+'
asS'IGHV3-25'
p486
(lp487
I106289029
aI106289479
aS'-'
asS'IGHV3-20'
p488
(lp489
I106210936
aI106211453
aS'-'
asS'IGHV3-21'
p490
(lp491
I106235064
aI106235594
aS'-'
asS'IGHV3-22'
p492
(lp493
I106257762
aI106258223
aS'-'
asS'IGHV3-23'
p494
(lp495
I106268606
aI106269140
aS'-'
asS'AL139317.4'
p496
(lp497
I52871458
aI52872217
aS'+'
asS'CR383656.3'
p498
(lp499
I18702281
aI18702463
aS'-'
asS'C14orf177'
p500
(lp501
I98711613
aI98717761
aS'+'
asS'IGHD2-21'
p502
(lp503
I105888551
aI105888578
aS'-'
asS'ZFYVE21'
p504
(lp505
I103715730
aI103733668
aS'+'
asS'BDKRB2'
p506
(lp507
I96204679
aI96244166
aS'+'
asS'ZFYVE26'
p508
(lp509
I67746520
aI67816589
aS'-'
asS'IGHVIII-5-1'
p510
(lp511
I106039666
aI106039764
aS'-'
asS'BTBD6'
p512
(lp513
I105248490
aI105251084
aS'+'
asS'GEMIN2'
p514
(lp515
I39114223
aI39136973
aS'+'
asS'IGHVIII-2-1'
p516
(lp517
I106001534
aI106001824
aS'-'
asS'AL049779.4'
p518
(lp519
I67735195
aI67735350
aS'+'
asS'NAA30'
p520
(lp521
I57390553
aI57415917
aS'+'
asS'METTL17'
p522
(lp523
I20989770
aI20997035
aS'+'
asS'SSTR1'
p524
(lp525
I38207999
aI38213067
aS'+'
asS'HMGB1P14'
p526
(lp527
I58284773
aI58285363
aS'+'
asS'FITM1'
p528
(lp529
I24131275
aI24132849
aS'+'
asS'ABBA01040607.1'
p530
(lp531
I106872783
aI106873186
aS'-'
asS'AL049874.1'
p532
(lp533
I60602146
aI60602533
aS'-'
asS'IGHD5-18'
p534
(lp535
I105893542
aI105893561
aS'-'
asS'AL049874.4'
p536
(lp537
I60544400
aI60544654
aS'+'
asS'IGHV1-58'
p538
(lp539
I106622357
aI106622855
aS'-'
asS'IGHV7-40'
p540
(lp541
I106425359
aI106425654
aS'-'
asS'AL121612.1'
p542
(lp543
I94800849
aI94801463
aS'-'
asS'PRKD1'
p544
(lp545
I29663812
aI30191898
aS'-'
asS'HOMER2P1'
p546
(lp547
I106460092
aI106461055
aS'-'
asS'IGHD5-12'
p548
(lp549
I105902649
aI105902671
aS'-'
asS'IGHV5-51'
p550
(lp551
I106578744
aI106579236
aS'-'
asS'RPL23AP71'
p552
(lp553
I34485979
aI34486447
aS'+'
asS'ACTR10'
p554
(lp555
I58200138
aI58235636
aS'+'
asS'CHMP4A'
p556
(lp557
I24209583
aI24213869
aS'-'
asS'CYB5AP5'
p558
(lp559
I26208036
aI26208424
aS'+'
asS'TMEM253'
p560
(lp561
I21098937
aI21103724
aS'+'
asS'CR383656.1'
p562
(lp563
I18692032
aI18692408
aS'+'
asS'TMEM251'
p564
(lp565
I93184951
aI93187086
aS'+'
asS'AL161713.1'
p566
(lp567
I83805496
aI83805640
aS'-'
asS'BEGAIN'
p568
(lp569
I100539299
aI100587413
aS'-'
asS'RAB2B'
p570
(lp571
I21459020
aI21476973
aS'-'
asS'OSGEP'
p572
(lp573
I20446668
aI20455105
aS'-'
asS'EIF4BP1'
p574
(lp575
I44077534
aI44077884
aS'-'
asS'GPATCH2L'
p576
(lp577
I76151936
aI76214343
aS'+'
asS'RHOQP1'
p578
(lp579
I49599994
aI49600572
aS'+'
asS'NOXRED1'
p580
(lp581
I77394021
aI77423056
aS'-'
asS'OR11G2'
p582
(lp583
I20197336
aI20198446
aS'+'
asS'CPSF2'
p584
(lp585
I92121937
aI92172145
aS'+'
asS'LRRC9'
p586
(lp587
I59919713
aI60063559
aS'+'
asS'PGF'
p588
(lp589
I74941834
aI74955784
aS'-'
asS'TRAV32'
p590
(lp591
I22185562
aI22186057
aS'+'
asS'AC007182.2'
p592
(lp593
I75595805
aI75596206
aS'-'
asS'AL160237.3'
p594
(lp595
I23767662
aI23768998
aS'+'
asS'PTCD2P1'
p596
(lp597
I20524287
aI20525422
aS'-'
asS'ERH'
p598
(lp599
I69380123
aI69398627
aS'-'
asS'HMGN2P6'
p600
(lp601
I25267064
aI25267336
aS'-'
asS'UBA52P3'
p602
(lp603
I58141279
aI58141660
aS'+'
asS'WDR89'
p604
(lp605
I63597039
aI63641861
aS'-'
asS'EIF1AXP2'
p606
(lp607
I65528830
aI65529574
aS'-'
asS'FDPSP3'
p608
(lp609
I54884849
aI54886213
aS'-'
asS'TMEM55B'
p610
(lp611
I20457719
aI20461612
aS'-'
asS'TOX4'
p612
(lp613
I21476755
aI21499175
aS'+'
asS'CHMP4BP1'
p614
(lp615
I55298644
aI55299231
aS'+'
asS'AL049869.1'
p616
(lp617
I64600243
aI64601644
aS'-'
asS'CDCA4'
p618
(lp619
I105009573
aI105021148
aS'-'
asS'IGHV5-78'
p620
(lp621
I106851123
aI106851417
aS'-'
asS'SIPA1L1'
p622
(lp623
I71320449
aI71587765
aS'+'
asS'PSMC1'
p624
(lp625
I90256495
aI90275429
aS'+'
asS'CMTM5'
p626
(lp627
I23376808
aI23379772
aS'+'
asS'AJUBA'
p628
(lp629
I22971174
aI22982642
aS'-'
asS'AL121594.1'
p630
(lp631
I35262462
aI35263036
aS'+'
asS'PSMC6'
p632
(lp633
I52707172
aI52728587
aS'+'
asS'RBM23'
p634
(lp635
I22893206
aI22919184
aS'-'
asS'TTLL5'
p636
(lp637
I75661278
aI75955078
aS'+'
asS'HEATR4'
p638
(lp639
I73478487
aI73558947
aS'-'
asS'AL132640.3'
p640
(lp641
I67616903
aI67617084
aS'+'
asS'IGHVII-62-1'
p642
(lp643
I106650551
aI106650785
aS'-'
asS'OR4M1'
p644
(lp645
I19780242
aI19781357
aS'+'
asS'NUTF2P2'
p646
(lp647
I35819837
aI35820220
aS'+'
asS'MIS18BP1'
p648
(lp649
I45203190
aI45253402
aS'-'
asS'SLC24A4'
p650
(lp651
I92323605
aI92501483
aS'+'
asS'AL157791.2'
p652
(lp653
I39370279
aI39370756
aS'-'
asS'AL049872.1'
p654
(lp655
I92026566
aI92026887
aS'+'
asS'RTN1'
p656
(lp657
I59595977
aI59870966
aS'-'
asS'IGHV7-56'
p658
(lp659
I106609762
aI106610196
aS'-'
asS'IGHD'
p660
(lp661
I105836765
aI105845677
aS'-'
asS'IGHE'
p662
(lp663
I105599941
aI105601728
aS'-'
asS'RPL7AP6'
p664
(lp665
I69885340
aI69886140
aS'-'
asS'HOMER2P2'
p666
(lp667
I106286811
aI106287657
aS'-'
asS'BRMS1L'
p668
(lp669
I35833001
aI35932325
aS'+'
asS'EIF4A1P12'
p670
(lp671
I28593779
aI28593919
aS'+'
asS'CTSG'
p672
(lp673
I24573522
aI24576250
aS'-'
asS'AL160314.1'
p674
(lp675
I22694098
aI22694535
aS'-'
asS'IGHM'
p676
(lp677
I105851708
aI105856218
aS'-'
asS'AL122020.1'
p678
(lp679
I90766531
aI90766989
aS'+'
asS'SLC35F4'
p680
(lp681
I57604008
aI57982194
aS'-'
asS'TCL1A'
p682
(lp683
I95709967
aI95714196
aS'-'
asS'SNW1'
p684
(lp685
I77717599
aI77761190
aS'-'
asS'AL512356.2'
p686
(lp687
I105112690
aI105112863
aS'-'
asS'EXOC5'
p688
(lp689
I57200507
aI57269008
aS'-'
asS'PNP'
p690
(lp691
I20469379
aI20477094
aS'+'
asS'LTBP2'
p692
(lp693
I74498170
aI74612331
aS'-'
asS'IGHVII-53-1'
p694
(lp695
I106599670
aI106599924
aS'-'
asS'HSBP1P1'
p696
(lp697
I58463971
aI58464136
aS'+'
asS'RPS26P48'
p698
(lp699
I78231281
aI78231619
aS'-'
asS'ZMYND19P1'
p700
(lp701
I77696591
aI77697377
aS'+'
asS'CR383656.4'
p702
(lp703
I18667249
aI18667370
aS'+'
asS'SLC25A21'
p704
(lp705
I36678431
aI37172423
aS'-'
asS'PPP1R13B'
p706
(lp707
I103733752
aI103847590
aS'-'
asS'IGHVII-51-2'
p708
(lp709
I106584718
aI106584976
aS'-'
asS'PNN'
p710
(lp711
I39175213
aI39183218
aS'+'
asS'EAPP'
p712
(lp713
I34515929
aI34539710
aS'-'
asS'IGHVIII-76-1'
p714
(lp715
I106831767
aI106832052
aS'-'
asS'FUT8'
p716
(lp717
I65410592
aI65744121
aS'+'
asS'TRDV1'
p718
(lp719
I22096032
aI22096619
aS'+'
asS'TGM1'
p720
(lp721
I24249114
aI24263210
aS'-'
asS'TRDV3'
p722
(lp723
I22469041
aI22469698
aS'-'
asS'TRDV2'
p724
(lp725
I22422371
aI22423042
aS'+'
asS'PSMB7P1'
p726
(lp727
I20149232
aI20149745
aS'+'
asS'AC007160.1'
p728
(lp729
I72929612
aI72929930
aS'-'
asS'PPP2R3C'
p730
(lp731
I35085536
aI35122517
aS'-'
asS'OR7E159P'
p732
(lp733
I51771789
aI51772086
aS'-'
asS'SPTB'
p734
(lp735
I64746283
aI64879883
aS'-'
asS'IGHD6-6'
p736
(lp737
I105910410
aI105910427
aS'-'
asS'SAV1'
p738
(lp739
I50633636
aI50668331
aS'-'
asS'IGHV3-60'
p740
(lp741
I106631197
aI106631653
aS'-'
asS'PCK2'
p742
(lp743
I24100149
aI24110598
aS'+'
asS'TMEM179'
p744
(lp745
I104474678
aI104604759
aS'-'
asS'AL390816.3'
p746
(lp747
I62150656
aI62152258
aS'-'
asS'MIPOL1'
p748
(lp749
I37197950
aI37552361
aS'+'
asS'FBLN5'
p750
(lp751
I91869441
aI91947399
aS'-'
asS'OR10G2'
p752
(lp753
I21633836
aI21634940
aS'-'
asS'ASB2'
p754
(lp755
I93934153
aI93976791
aS'-'
asS'AL049870.1'
p756
(lp757
I44887434
aI44887741
aS'-'
asS'VDAC3P1'
p758
(lp759
I99964529
aI99965378
aS'+'
asS'AC244226.1'
p760
(lp761
I106025145
aI106025630
aS'-'
asS'AC005479.1'
p762
(lp763
I74482985
aI74483435
aS'+'
asS'IGHV7-27'
p764
(lp765
I106317823
aI106318236
aS'-'
asS'SIX4'
p766
(lp767
I60709528
aI60724134
aS'-'
asS'AL110118.2'
p768
(lp769
I93184974
aI93218586
aS'+'
asS'DHRS4'
p770
(lp771
I23953586
aI23969274
aS'+'
asS'SYNJ2BP'
p772
(lp773
I70366496
aI70417045
aS'-'
asS'DHRS2'
p774
(lp775
I23630115
aI23644543
aS'+'
asS'SIX1'
p776
(lp777
I60644696
aI60658259
aS'-'
asS'PLEKHH1'
p778
(lp779
I67533301
aI67589612
aS'+'
asS'DHRS1'
p780
(lp781
I24290598
aI24299833
aS'-'
asS'IGHD2-2'
p782
(lp783
I105916826
aI105916856
aS'-'
asS'IGHVIII-38-1'
p784
(lp785
I106418018
aI106418299
aS'-'
asS'TEX22'
p786
(lp787
I105398579
aI105450106
aS'+'
asS'AC245369.4'
p788
(lp789
I106737110
aI106737547
aS'-'
asS'IGHD1-7'
p790
(lp791
I105909907
aI105909923
aS'-'
asS'IGHD1-1'
p792
(lp793
I105919502
aI105919518
aS'-'
asS'CR383658.1'
p794
(lp795
I18333726
aI18341859
aS'+'
asS'IGHD2-8'
p796
(lp797
I105907211
aI105907241
aS'-'
asS'RAB42P1'
p798
(lp799
I89892128
aI89892443
aS'+'
asS'IGHD5-24'
p800
(lp801
I105883903
aI105883922
aS'-'
asS'ADCY4'
p802
(lp803
I24318349
aI24335071
aS'-'
asS'IGHV1-24'
p804
(lp805
I106276548
aI106277043
aS'-'
asS'TRAV41'
p806
(lp807
I22320188
aI22320691
aS'+'
asS'TRAV40'
p808
(lp809
I22314490
aI22314919
aS'+'
asS'AF111169.1'
p810
(lp811
I76886377
aI76886750
aS'-'
asS'IGHV3-32'
p812
(lp813
I106331106
aI106331563
aS'-'
asS'DAAM1'
p814
(lp815
I59188680
aI59369753
aS'+'
asS'AL137779.3'
p816
(lp817
I101843394
aI101844122
aS'-'
asS'ACIN1'
p818
(lp819
I23058567
aI23095614
aS'-'
asS'AL359219.2'
p820
(lp821
I59181593
aI59181940
aS'+'
asS'HIGD1AP17'
p822
(lp823
I30964347
aI30964622
aS'+'
asS'BAZ1A'
p824
(lp825
I34752731
aI34875647
aS'-'
asS'JAG2'
p826
(lp827
I105140981
aI105168824
aS'-'
asS'BANF1P1'
p828
(lp829
I68936602
aI68936864
aS'+'
asS'TMEM229B'
p830
(lp831
I67447084
aI67515485
aS'-'
asS'DNAJC19P9'
p832
(lp833
I45290036
aI45290386
aS'+'
asS'RNASE11'
p834
(lp835
I20584047
aI20609884
aS'-'
asS'AC247036.7'
p836
(lp837
I106170749
aI106171052
aS'-'
asS'AL049779.3'
p838
(lp839
I67799004
aI67799609
aS'+'
asS'IGHEP1'
p840
(lp841
I105721794
aI105722527
aS'-'
asS'CR383656.8'
p842
(lp843
I18560047
aI18560191
aS'+'
asS'RPS29P1'
p844
(lp845
I69023150
aI69023308
aS'-'
asS'AL512624.1'
p846
(lp847
I19511244
aI19511712
aS'+'
asS'OR11H5P'
p848
(lp849
I20209240
aI20210210
aS'+'
asS'RNASE12'
p850
(lp851
I20590193
aI20590823
aS'-'
asS'NRXN3'
p852
(lp853
I78170373
aI79862033
aS'+'
asS'AL136298.2'
p854
(lp855
I32241524
aI32243093
aS'-'
asS'IGHV3-65'
p856
(lp857
I106666092
aI106666532
aS'-'
asS'AL133373.1'
p858
(lp859
I91554410
aI91554503
aS'+'
asS'RPL21P10'
p860
(lp861
I77683202
aI77683989
aS'-'
asS'GNG2'
p862
(lp863
I51826195
aI51966843
aS'+'
asS'GPHB5'
p864
(lp865
I63312835
aI63318879
aS'-'
asS'DHRS4L2'
p866
(lp867
I23969874
aI24006406
aS'+'
asS'C14orf166'
p868
(lp869
I51989475
aI52010691
aS'+'
asS'TRAV14DV4'
p870
(lp871
I21924063
aI21924651
aS'+'
asS'CR383656.9'
p872
(lp873
I18645044
aI18646221
aS'-'
asS'CLEC14A'
p874
(lp875
I38254103
aI38256369
aS'-'
asS'SDR39U1'
p876
(lp877
I24439779
aI24442858
aS'-'
asS'DPPA5P4'
p878
(lp879
I75292131
aI75292495
aS'-'
asS'AC007375.1'
p880
(lp881
I77173075
aI77173652
aS'-'
asS'NFATC4'
p882
(lp883
I24366911
aI24379604
aS'+'
asS'SNX6'
p884
(lp885
I34561094
aI34630109
aS'-'
asS'NGB'
p886
(lp887
I77265483
aI77271312
aS'-'
asS'ELK2AP'
p888
(lp889
I105672308
aI105673314
aS'-'
asS'AL589743.7'
p890
(lp891
I19154134
aI19155089
aS'+'
asS'AL589743.6'
p892
(lp893
I19220796
aI19220912
aS'-'
asS'AL589743.5'
p894
(lp895
I19267115
aI19268164
aS'+'
asS'STXBP6'
p896
(lp897
I24809662
aI25050297
aS'-'
asS'AL589743.3'
p898
(lp899
I19199763
aI19200279
aS'-'
asS'AL589743.2'
p900
(lp901
I19228924
aI19244931
aS'-'
asS'NUBPL'
p902
(lp903
I31561395
aI31861224
aS'+'
asS'RPL21P11'
p904
(lp905
I90366697
aI90367179
aS'-'
asS'IGHV3-79'
p906
(lp907
I106867660
aI106868092
aS'-'
asS'RPS19P3'
p908
(lp909
I34568689
aI34569129
aS'-'
asS'MED6'
p910
(lp911
I70581257
aI70600643
aS'-'
asS'AL163973.1'
p912
(lp913
I31462795
aI31463371
aS'-'
asS'MDGA2'
p914
(lp915
I46840092
aI47674954
aS'-'
asS'IGHV3-73'
p916
(lp917
I106802694
aI106803233
aS'-'
asS'IGHV3-72'
p918
(lp919
I106790694
aI106791233
aS'-'
asS'IGHV3-71'
p920
(lp921
I106775157
aI106775618
aS'-'
asS'YWHAZP1'
p922
(lp923
I44290997
aI44291718
aS'-'
asS'TRAV9-1'
p924
(lp925
I21811502
aI21811977
aS'+'
asS'TRAV9-2'
p926
(lp927
I21941128
aI21941657
aS'+'
asS'IGHV3-74'
p928
(lp929
I106810442
aI106811131
aS'-'
asS'JKAMP'
p930
(lp931
I59484443
aI59505404
aS'+'
asS'IGHV1-12'
p932
(lp933
I106122420
aI106122709
aS'-'
asS'AC005230.1'
p934
(lp935
I71031686
aI71031970
aS'-'
asS'LINC00238'
p936
(lp937
I66486354
aI66498552
aS'+'
asS'NANOGP7'
p938
(lp939
I91604402
aI91605319
aS'-'
asS'OR11H12'
p940
(lp941
I18601045
aI18602129
aS'+'
asS'IGHD2-15'
p942
(lp943
I105897957
aI105897987
aS'-'
asS'NEK9'
p944
(lp945
I75079353
aI75127080
aS'-'
asS'NID2'
p946
(lp947
I52004803
aI52069228
aS'-'
asS'AL109766.1'
p948
(lp949
I44120210
aI44120761
aS'-'
asS'CDC42BPB'
p950
(lp951
I102932379
aI103057462
aS'-'
asS'IGBP1P1'
p952
(lp953
I34939324
aI34940332
aS'+'
asS'TRDD3'
p954
(lp955
I22449113
aI22449125
aS'+'
asS'TRDD2'
p956
(lp957
I22439007
aI22439015
aS'+'
asS'TRDD1'
p958
(lp959
I22438547
aI22438554
aS'+'
asS'PLEK2'
p960
(lp961
I67386983
aI67412200
aS'-'
asS'ITPK1'
p962
(lp963
I92936914
aI93115918
aS'-'
asS'ADAM21P1'
p964
(lp965
I70245491
aI70247660
aS'-'
asS'NDUFB4P11'
p966
(lp967
I103139881
aI103141959
aS'+'
asS'TEX21P'
p968
(lp969
I64346171
aI64374666
aS'-'
asS'OR4U1P'
p970
(lp971
I20043916
aI20044827
aS'+'
asS'IGHD4-17'
p972
(lp973
I105894508
aI105894523
aS'-'
asS'AL442663.4'
p974
(lp975
I72960595
aI72961993
aS'+'
asS'AL139317.2'
p976
(lp977
I52798904
aI52799061
aS'-'
asS'AL358832.1'
p978
(lp979
I47444106
aI47444494
aS'-'
asS'AL109628.2'
p980
(lp981
I39090901
aI39091101
aS'+'
asS'AL109628.1'
p982
(lp983
I39108342
aI39108707
aS'+'
asS'IGHD4-11'
p984
(lp985
I105903616
aI105903631
aS'-'
asS'TRDJ4'
p986
(lp987
I22455249
aI22455296
aS'+'
asS'AL139300.1'
p988
(lp989
I103562962
aI103685924
aS'+'
asS'TRDJ1'
p990
(lp991
I22450089
aI22450139
aS'+'
asS'TRDJ3'
p992
(lp993
I22459098
aI22459156
aS'+'
asS'TRDJ2'
p994
(lp995
I22456689
aI22456742
aS'+'
asS'OR10G1P'
p996
(lp997
I21601899
aI21602825
aS'-'
asS'ADSSL1'
p998
(lp999
I104724186
aI104747310
aS'+'
asS'AL161669.2'
p1000
(lp1001
I103207748
aI103207789
aS'+'
asS'C14orf79'
p1002
(lp1003
I104991522
aI105010482
aS'+'
asS'TRAJ49'
p1004
(lp1005
I22489488
aI22489543
aS'+'
asS'TRAJ48'
p1006
(lp1007
I22490491
aI22490553
aS'+'
asS'AL049779.1'
p1008
(lp1009
I67659820
aI67690367
aS'-'
asS'PCNX1'
p1010
(lp1011
I70907405
aI71115382
aS'+'
asS'RANBP20P'
p1012
(lp1013
I20720742
aI20723127
aS'-'
asS'MTHFD1'
p1014
(lp1015
I64388031
aI64463457
aS'+'
asS'AL157791.1'
p1016
(lp1017
I39385404
aI39387102
aS'-'
asS'TRAJ41'
p1018
(lp1019
I22497657
aI22497718
aS'+'
asS'TRAJ40'
p1020
(lp1021
I22499689
aI22499749
aS'+'
asS'TRAJ43'
p1022
(lp1023
I22495913
aI22495966
aS'+'
asS'TRAJ42'
p1024
(lp1025
I22496887
aI22496952
aS'+'
asS'TRAJ45'
p1026
(lp1027
I22493925
aI22493990
aS'+'
asS'TRAJ44'
p1028
(lp1029
I22494821
aI22494883
aS'+'
asS'TRAJ47'
p1030
(lp1031
I22492851
aI22492907
aS'+'
asS'TRAJ46'
p1032
(lp1033
I22493403
aI22493465
aS'+'
asS'TRIM9'
p1034
(lp1035
I50975262
aI51096061
aS'-'
asS'ARHGAP42P5'
p1036
(lp1037
I18623852
aI18626787
aS'-'
asS'AL928654.4'
p1038
(lp1039
I105487199
aI105492267
aS'+'
asS'AL928654.1'
p1040
(lp1041
I105374618
aI105374971
aS'+'
asS'CIPC'
p1042
(lp1043
I77098097
aI77117287
aS'+'
asS'IGHD5-5'
p1044
(lp1045
I105912257
aI105912276
aS'-'
asS'AL352984.2'
p1046
(lp1047
I31964550
aI31965095
aS'+'
asS'COX16'
p1048
(lp1049
I70325081
aI70359731
aS'-'
asS'ALKBH1'
p1050
(lp1051
I77672404
aI77708020
aS'-'
asS'SERPINA12'
p1052
(lp1053
I94487283
aI94517844
aS'-'
asS'AL136295.1'
p1054
(lp1055
I24189157
aI24213473
aS'-'
asS'SERPINA10'
p1056
(lp1057
I94280455
aI94293271
aS'-'
asS'SERPINA11'
p1058
(lp1059
I94442464
aI94452790
aS'-'
asS'OR10G3'
p1060
(lp1061
I21569803
aI21570744
aS'-'
asS'MOAP1'
p1062
(lp1063
I93182196
aI93184928
aS'-'
asS'PSMB11'
p1064
(lp1065
I23042167
aI23044276
aS'+'
asS'OR6E1P'
p1066
(lp1067
I22702143
aI22703065
aS'+'
asS'NOP9'
p1068
(lp1069
I24299862
aI24309124
aS'+'
asS'KRT18P6'
p1070
(lp1071
I35511825
aI35513089
aS'-'
asS'EIF2B2'
p1072
(lp1073
I75002911
aI75012366
aS'+'
asS'AL355102.2'
p1074
(lp1075
I96204844
aI96263929
aS'+'
asS'ZFHX2'
p1076
(lp1077
I23520855
aI23551649
aS'-'
asS'RCOR1'
p1078
(lp1079
I102592661
aI102730576
aS'+'
asS'AL136298.3'
p1080
(lp1081
I32271857
aI32272301
aS'-'
asS'AL356806.1'
p1082
(lp1083
I34416687
aI34417602
aS'-'
asS'IFI27L1'
p1084
(lp1085
I94081301
aI94103846
aS'+'
asS'IFI27L2'
p1086
(lp1087
I94127789
aI94130253
aS'-'
asS'TRIP11'
p1088
(lp1089
I91965991
aI92040059
aS'-'
asS'SAMD4A'
p1090
(lp1091
I54567612
aI54793315
aS'+'
asS'AL136295.5'
p1092
(lp1093
I24151218
aI24167402
aS'+'
asS'WDHD1'
p1094
(lp1095
I54938950
aI55027077
aS'-'
asS'INF2'
p1096
(lp1097
I104689606
aI104722535
aS'+'
asS'GTF2IP22'
p1098
(lp1099
I20173632
aI20173813
aS'-'
asS'RPL23AP10'
p1100
(lp1101
I96456576
aI96457041
aS'-'
asS'MYH6'
p1102
(lp1103
I23381990
aI23408277
aS'-'
asS'MYH7'
p1104
(lp1105
I23412738
aI23435718
aS'-'
asS'PSEN1'
p1106
(lp1107
I73136447
aI73223691
aS'+'
asS'CDKL1'
p1108
(lp1109
I50335993
aI50416461
aS'-'
asS'AF107885.1'
p1110
(lp1111
I75838157
aI75839114
aS'-'
asS'MTCYBP27'
p1112
(lp1113
I84176419
aI84177088
aS'+'
asS'WDR25'
p1114
(lp1115
I100376439
aI100530303
aS'+'
asS'PRIMA1'
p1116
(lp1117
I93718298
aI93788481
aS'-'
asS'AL391516.1'
p1118
(lp1119
I41296286
aI41298734
aS'+'
asS'WDR20'
p1120
(lp1121
I102139844
aI102223673
aS'+'
asS'QRSL1P3'
p1122
(lp1123
I35765795
aI35767110
aS'+'
asS'FANCM'
p1124
(lp1125
I45135947
aI45200887
aS'+'
asS'RAB15'
p1126
(lp1127
I64945816
aI64972414
aS'-'
asS'RNASE3'
p1128
(lp1129
I20891399
aI20892348
aS'+'
asS'SERPINA13P'
p1130
(lp1131
I94640725
aI94646994
aS'+'
asS'CYCSP1'
p1132
(lp1133
I76633714
aI76634028
aS'+'
asS'YBX1P1'
p1134
(lp1135
I66012830
aI66013789
aS'-'
asS'IGHVII-15-1'
p1136
(lp1137
I106163583
aI106163802
aS'-'
asS'RPS6KL1'
p1138
(lp1139
I74903954
aI74923243
aS'-'
asS'TCL1B'
p1140
(lp1141
I95686417
aI95692643
aS'+'
asS'AC007686.1'
p1142
(lp1143
I76968683
aI76969145
aS'+'
asS'AL138976.1'
p1144
(lp1145
I103282933
aI103283468
aS'+'
asS'IGHD1-14'
p1146
(lp1147
I105900638
aI105900654
aS'-'
asS'FXNP1'
p1148
(lp1149
I78059942
aI78060278
aS'-'
asS'AL359212.1'
p1150
(lp1151
I48045481
aI48046216
aS'+'
asS'NUDT14'
p1152
(lp1153
I105172939
aI105181303
aS'-'
asS'DOCK11P1'
p1154
(lp1155
I44860316
aI44866247
aS'-'
asS'OR4K6P'
p1156
(lp1157
I19847367
aI19848263
aS'+'
asS'AL442663.1'
p1158
(lp1159
I72963645
aI72964008
aS'-'
asS'AL121769.1'
p1160
(lp1161
I81332961
aI81333361
aS'-'
asS'AC006349.1'
p1162
(lp1163
I74192589
aI74192823
aS'+'
asS'HNRNPC'
p1164
(lp1165
I21209136
aI21269494
aS'-'
asS'AL133370.2'
p1166
(lp1167
I68113706
aI68114144
aS'-'
asS'AL079303.1'
p1168
(lp1169
I36577543
aI36578005
aS'-'
asS'DLST'
p1170
(lp1171
I74881893
aI74903745
aS'+'
asS'AL391262.1'
p1172
(lp1173
I69083398
aI69085389
aS'+'
asS'SRP54-AS1'
p1174
(lp1175
I34920858
aI34982452
aS'-'
asS'RPL21P6'
p1176
(lp1177
I55413556
aI55414059
aS'-'
asS'MPPE1P1'
p1178
(lp1179
I89110148
aI89111223
aS'-'
asS'TRAPPC6B'
p1180
(lp1181
I39147811
aI39170532
aS'-'
asS'GON7'
p1182
(lp1183
I93202894
aI93207094
aS'-'
asS'AL365475.1'
p1184
(lp1185
I52286797
aI52289268
aS'+'
asS'RBBP4P5'
p1186
(lp1187
I21563819
aI21565084
aS'+'
asS'RPL10L'
p1188
(lp1189
I46651010
aI46651821
aS'-'
asS'CHORDC2P'
p1190
(lp1191
I89736965
aI89738391
aS'-'
asS'AL391261.1'
p1192
(lp1193
I65879592
aI65881070
aS'-'
asS'ATP5A1P4'
p1194
(lp1195
I62604113
aI62605717
aS'-'
asS'TGFB3'
p1196
(lp1197
I75958202
aI75981191
aS'-'
asS'IGHVIII-13-1'
p1198
(lp1199
I106142287
aI106142577
aS'-'
asS'KTN1'
p1200
(lp1201
I55580315
aI55684579
aS'+'
asS'AL121579.2'
p1202
(lp1203
I58100985
aI58101574
aS'+'
asS'PPIAP6'
p1204
(lp1205
I68421698
aI68422196
aS'-'
asS'HNRNPCP1'
p1206
(lp1207
I58521223
aI58521988
aS'+'
asS'RPSAP13'
p1208
(lp1209
I55004813
aI55005687
aS'-'
asS'AC005476.1'
p1210
(lp1211
I71330342
aI71330738
aS'-'
asS'IGHV3-37'
p1212
(lp1213
I106396676
aI106397114
aS'-'
asS'GPR137C'
p1214
(lp1215
I52553148
aI52637713
aS'+'
asS'IGHV3-35'
p1216
(lp1217
I106389392
aI106389858
aS'-'
asS'OR4Q3'
p1218
(lp1219
I19747428
aI19748369
aS'+'
asS'IGHV3-33'
p1220
(lp1221
I106359793
aI106360324
aS'-'
asS'CCNB1IP1'
p1222
(lp1223
I20311368
aI20333312
aS'-'
asS'SALL4P7'
p1224
(lp1225
I60493766
aI60496885
aS'-'
asS'IGHV3-30'
p1226
(lp1227
I106335082
aI106335613
aS'-'
asS'TRAV8-1'
p1228
(lp1229
I21797287
aI21797886
aS'+'
asS'SYNJ2BP-COX16'
p1230
(lp1231
I70326064
aI70417074
aS'-'
asS'TRAV8-3'
p1232
(lp1233
I21852558
aI21853006
aS'+'
asS'TRAV8-2'
p1234
(lp1235
I21846537
aI21847221
aS'+'
asS'TRAV8-5'
p1236
(lp1237
I21903077
aI21904598
aS'+'
asS'TRAV8-4'
p1238
(lp1239
I21894433
aI21895030
aS'+'
asS'TRAV8-7'
p1240
(lp1241
I22132553
aI22133034
aS'+'
asS'IGHV3-38'
p1242
(lp1243
I106410493
aI106411021
aS'-'
asS'CNIH1'
p1244
(lp1245
I54423560
aI54441431
aS'-'
asS'OR6S1'
p1246
(lp1247
I20640696
aI20641691
aS'-'
asS'GSKIP'
p1248
(lp1249
I96363452
aI96387286
aS'+'
asS'SLIRP'
p1250
(lp1251
I77708103
aI77761104
aS'+'
asS'CEBPE'
p1252
(lp1253
I23117304
aI23119616
aS'-'
asS'TRAV35'
p1254
(lp1255
I22221896
aI22222475
aS'+'
asS'DDHD1'
p1256
(lp1257
I53036745
aI53153204
aS'-'
asS'OR4Q2'
p1258
(lp1259
I20002163
aI20003163
aS'+'
asS'AL132640.1'
p1260
(lp1261
I67610986
aI67613864
aS'+'
asS'SYF2P1'
p1262
(lp1263
I30541776
aI30542188
aS'-'
asS'BNIP3P1'
p1264
(lp1265
I28264390
aI28265974
aS'+'
asS'TRDC'
p1266
(lp1267
I22462932
aI22465787
aS'+'
asS'ADCK1'
p1268
(lp1269
I77800083
aI77933954
aS'+'
asS'TRAV38-1'
p1270
(lp1271
I22271968
aI22272563
aS'+'
asS'OR4K4P'
p1272
(lp1273
I19905917
aI19906600
aS'+'
asS'RABGGTA'
p1274
(lp1275
I24265538
aI24271739
aS'-'
asS'CR383656.7'
p1276
(lp1277
I18614388
aI18614561
aS'+'
asS'IGHV1-67'
p1278
(lp1279
I106680603
aI106681042
aS'-'
asS'NRDE2'
p1280
(lp1281
I90267856
aI90332137
aS'-'
asS'IGHV1-68'
p1282
(lp1283
I106703846
aI106704286
aS'-'
asS'IGHV1-69'
p1284
(lp1285
I106714684
aI106715181
aS'-'
asS'PTTG4P'
p1286
(lp1287
I71085482
aI71085833
aS'-'
asS'AL138479.1'
p1288
(lp1289
I53917270
aI53917753
aS'-'
asS'TRAV31'
p1290
(lp1291
I22177273
aI22177864
aS'+'
asS'PRKCH'
p1292
(lp1293
I61187559
aI61530584
aS'+'
asS'ZBTB1'
p1294
(lp1295
I64504574
aI64533690
aS'+'
asS'AL117694.1'
p1296
(lp1297
I68887785
aI68888084
aS'-'
asS'C14orf37'
p1298
(lp1299
I58139101
aI58298139
aS'-'
asS'SUPT16H'
p1300
(lp1301
I21351472
aI21384266
aS'-'
asS'FCF1'
p1302
(lp1303
I74713144
aI74738620
aS'+'
asS'TECPR2'
p1304
(lp1305
I102362963
aI102502481
aS'+'
asS'C14orf39'
p1306
(lp1307
I60396469
aI60455050
aS'-'
asS'PSME2'
p1308
(lp1309
I24143365
aI24147221
aS'-'
asS'WARS'
p1310
(lp1311
I100333818
aI100376805
aS'-'
asS'PSME1'
p1312
(lp1313
I24136158
aI24138967
aS'+'
asS'PCNX4'
p1314
(lp1315
I60091927
aI60169133
aS'+'
asS'MGAT2'
p1316
(lp1317
I49620795
aI49623481
aS'+'
asS'UBE2NP1'
p1318
(lp1319
I21611924
aI21612381
aS'-'
asS'DYNC1H1'
p1320
(lp1321
I101964528
aI102050791
aS'+'
asS'CR383656.6'
p1322
(lp1323
I18631388
aI18650966
aS'+'
asS'CIDEB'
p1324
(lp1325
I24305187
aI24311422
aS'-'
asS'PAPOLA'
p1326
(lp1327
I96502373
aI96567111
aS'+'
asS'MDP1'
p1328
(lp1329
I24213937
aI24216067
aS'-'
asS'ENSAP2'
p1330
(lp1331
I82692704
aI82693055
aS'-'
asS'AL358335.1'
p1332
(lp1333
I48398310
aI48399375
aS'+'
asS'FAM181A'
p1334
(lp1335
I93918912
aI93929608
aS'+'
asS'AL358335.3'
p1336
(lp1337
I48319068
aI48319394
aS'-'
asS'EDDM3DP'
p1338
(lp1339
I20734578
aI20735011
aS'+'
asS'DDX24'
p1340
(lp1341
I94048291
aI94081245
aS'-'
asS'IGHD3-16'
p1342
(lp1343
I105895634
aI105895670
aS'-'
asS'AL049839.2'
p1344
(lp1345
I94592058
aI94624646
aS'+'
asS'AL391261.3'
p1346
(lp1347
I65900932
aI65901451
aS'-'
asS'OR5AU1'
p1348
(lp1349
I21154865
aI21156063
aS'-'
asS'ILF2P2'
p1350
(lp1351
I36054197
aI36055313
aS'-'
asS'IGHD3-10'
p1352
(lp1353
I105904497
aI105904527
aS'-'
asS'GPR135'
p1354
(lp1355
I59429022
aI59465341
aS'-'
asS'RPL3P4'
p1356
(lp1357
I98972879
aI98973301
aS'-'
asS'OR6J1'
p1358
(lp1359
I22633768
aI22634811
aS'-'
asS'DCAF5'
p1360
(lp1361
I69050881
aI69153126
aS'-'
asS'VTI1B'
p1362
(lp1363
I67647075
aI67674831
aS'-'
asS'RPL3P3'
p1364
(lp1365
I56978409
aI56979621
aS'+'
asS'DNAL1'
p1366
(lp1367
I73644999
aI73703732
aS'+'
asS'AL049840.6'
p1368
(lp1369
I103762803
aI103763147
aS'+'
asS'ARHGEF40'
p1370
(lp1371
I21070270
aI21090240
aS'+'
asS'FLVCR2'
p1372
(lp1373
I75579584
aI75663214
aS'+'
asS'AL590326.1'
p1374
(lp1375
I104830838
aI104831171
aS'-'
asS'AL049870.4'
p1376
(lp1377
I44888556
aI44889041
aS'-'
asS'CKB'
p1378
(lp1379
I103519659
aI103523111
aS'-'
asS'PPP4R4'
p1380
(lp1381
I94174312
aI94279735
aS'+'
asS'AL161747.1'
p1382
(lp1383
I21398925
aI21399282
aS'+'
asS'IFI27'
p1384
(lp1385
I94104836
aI94115854
aS'+'
asS'SIVA1'
p1386
(lp1387
I104753171
aI104768494
aS'+'
asS'NDUFB1'
p1388
(lp1389
I92116123
aI92121917
aS'-'
asS'TRAV2'
p1390
(lp1391
I21712321
aI21712843
aS'+'
asS'TRAV3'
p1392
(lp1393
I21723713
aI21724321
aS'+'
asS'TRAV4'
p1394
(lp1395
I21736152
aI21736982
aS'+'
asS'TRAV5'
p1396
(lp1397
I21749178
aI21749705
aS'+'
asS'TRAV6'
p1398
(lp1399
I21768489
aI21769080
aS'+'
asS'TRAV7'
p1400
(lp1401
I21782993
aI21783503
aS'+'
asS'SFTA3'
p1402
(lp1403
I36473288
aI36513829
aS'-'
asS'BBOF1'
p1404
(lp1405
I74031797
aI74082863
aS'+'
asS'GPR33'
p1406
(lp1407
I31482875
aI31488142
aS'-'
asS'SYNE2'
p1408
(lp1409
I63852983
aI64226433
aS'+'
asS'TMED10'
p1410
(lp1411
I75131470
aI75176631
aS'-'
asS'TRAJ30'
p1412
(lp1413
I22512852
aI22512908
aS'+'
asS'TRAJ31'
p1414
(lp1415
I22510968
aI22511024
aS'+'
asS'TRAJ32'
p1416
(lp1417
I22509341
aI22509406
aS'+'
asS'TRAJ33'
p1418
(lp1419
I22508602
aI22508658
aS'+'
asS'TRAJ34'
p1420
(lp1421
I22507666
aI22507723
aS'+'
asS'TRAJ35'
p1422
(lp1423
I22506644
aI22506702
aS'+'
asS'TRAJ36'
p1424
(lp1425
I22505110
aI22505167
aS'+'
asS'TRAJ37'
p1426
(lp1427
I22503750
aI22503814
aS'+'
asS'TRAJ38'
p1428
(lp1429
I22502231
aI22502292
aS'+'
asS'TRAJ39'
p1430
(lp1431
I22501601
aI22501663
aS'+'
asS'EML1'
p1432
(lp1433
I99737693
aI99909416
aS'+'
asS'RPL21P5'
p1434
(lp1435
I31111569
aI31112239
aS'-'
asS'MPP5'
p1436
(lp1437
I67241109
aI67335819
aS'+'
asS'EML5'
p1438
(lp1439
I88612431
aI88792752
aS'-'
asS'IGHVIII-26-1'
p1440
(lp1441
I106309417
aI106309666
aS'-'
asS'RIOX1'
p1442
(lp1443
I73490964
aI73493392
aS'+'
asS'DLGAP5'
p1444
(lp1445
I55148136
aI55191678
aS'-'
asS'DYNLL1P2'
p1446
(lp1447
I81412970
aI81413239
aS'+'
asS'NT5CP1'
p1448
(lp1449
I73571159
aI73571667
aS'-'
asS'NT5CP2'
p1450
(lp1451
I73539221
aI73539781
aS'-'
asS'DYNLL1P1'
p1452
(lp1453
I81246295
aI81246563
aS'-'
asS'OR4N1P'
p1454
(lp1455
I19796345
aI19797260
aS'+'
asS'AL356801.1'
p1456
(lp1457
I55394940
aI55395233
aS'-'
asS'VRK1'
p1458
(lp1459
I96797304
aI96881613
aS'+'
asS'TMEM260'
p1460
(lp1461
I56488354
aI56585902
aS'+'
asS'AL136038.4'
p1462
(lp1463
I63594031
aI63595291
aS'-'
asS'AC008015.1'
p1464
(lp1465
I76013679
aI76014143
aS'+'
asS'OR4N2'
p1466
(lp1467
I19719015
aI19827513
aS'+'
asS'CLMN'
p1468
(lp1469
I95181940
aI95319906
aS'-'
asS'IGHVII-1-1'
p1470
(lp1471
I105945210
aI105945389
aS'-'
asS'VSX2'
p1472
(lp1473
I74239472
aI74262738
aS'+'
asS'CDH24'
p1474
(lp1475
I23047062
aI23057538
aS'-'
asS'NF1P11'
p1476
(lp1477
I19612191
aI19619490
aS'+'
asS'IRF2BPL'
p1478
(lp1479
I77024543
aI77028699
aS'-'
asS'CGRRF1'
p1480
(lp1481
I54509828
aI54539309
aS'+'
asS'PPP1R36'
p1482
(lp1483
I64549902
aI64589378
aS'+'
asS'FLRT2'
p1484
(lp1485
I85530144
aI85654426
aS'+'
asS'ACOT6'
p1486
(lp1487
I73610945
aI73619721
aS'+'
asS'SETD3'
p1488
(lp1489
I99397746
aI99480879
aS'-'
asS'SLC25A29'
p1490
(lp1491
I100291111
aI100306533
aS'-'
asS'ACOT2'
p1492
(lp1493
I73567620
aI73575653
aS'+'
asS'AL132777.1'
p1494
(lp1495
I60779978
aI60780595
aS'+'
asS'ACOT1'
p1496
(lp1497
I73537114
aI73543794
aS'+'
asS'PLD4'
p1498
(lp1499
I104924823
aI104937790
aS'+'
asS'NIN'
p1500
(lp1501
I50719763
aI50831121
aS'-'
asS'AC245505.3'
p1502
(lp1503
I22066016
aI22066373
aS'+'
asS'AC245505.2'
p1504
(lp1505
I22011910
aI22014964
aS'+'
asS'PRMT5'
p1506
(lp1507
I22920511
aI22929585
aS'-'
asS'GSC'
p1508
(lp1509
I94768216
aI94770230
aS'-'
asS'FOXA1'
p1510
(lp1511
I37589984
aI37595034
aS'-'
asS'PDLIM1P1'
p1512
(lp1513
I50050368
aI50051336
aS'+'
asS'DPPA3P2'
p1514
(lp1515
I36371165
aI36372383
aS'+'
asS'AL163636.2'
p1516
(lp1517
I20684587
aI20700576
aS'+'
asS'SLC22A17'
p1518
(lp1519
I23346314
aI23352912
aS'-'
asS'CHURC1-FNTB'
p1520
(lp1521
I64914485
aI65061803
aS'+'
asS'IGHV7-81'
p1522
(lp1523
I106874583
aI106875071
aS'-'
asS'AL591767.2'
p1524
(lp1525
I49681302
aI49681886
aS'+'
asS'ZBTB25'
p1526
(lp1527
I64449106
aI64505213
aS'-'
asS'HHIPL1'
p1528
(lp1529
I99645110
aI99680569
aS'+'
asS'IFT43'
p1530
(lp1531
I75902136
aI76022631
aS'+'
asS'PEBP1P1'
p1532
(lp1533
I96423700
aI96424209
aS'-'
asS'AL591767.3'
p1534
(lp1535
I49677369
aI49677893
aS'+'
asS'RNF31'
p1536
(lp1537
I24146887
aI24160659
aS'+'
asS'FAM35CP'
p1538
(lp1539
I87952527
aI87955203
aS'+'
asS'IGHA2'
p1540
(lp1541
I105586889
aI105588395
aS'-'
asS'JDP2'
p1542
(lp1543
I75428357
aI75474111
aS'+'
asS'IGHA1'
p1544
(lp1545
I105707118
aI105708665
aS'-'
asS'KIF26A'
p1546
(lp1547
I104139040
aI104180894
aS'+'
asS'HIF1A'
p1548
(lp1549
I61695540
aI61748258
aS'+'
asS'IGHD1-20'
p1550
(lp1551
I105891191
aI105891207
aS'-'
asS'DTD2'
p1552
(lp1553
I31446036
aI31457510
aS'-'
asS'EXOC3L4'
p1554
(lp1555
I103100144
aI103110271
aS'+'
asS'TRAV12-3'
p1556
(lp1557
I21965451
aI21966061
aS'+'
asS'IGHD1-26'
p1558
(lp1559
I105881034
aI105881053
aS'-'
asS'TSHR'
p1560
(lp1561
I80955043
aI81146302
aS'+'
asS'NDRG2'
p1562
(lp1563
I21017221
aI21070872
aS'-'
asS'TRAV12-2'
p1564
(lp1565
I21887857
aI21888502
aS'+'
asS'AL121821.2'
p1566
(lp1567
I41555662
aI41556055
aS'-'
asS'SRSF5'
p1568
(lp1569
I69726900
aI69772004
aS'+'
asS'RPS2P4'
p1570
(lp1571
I104835997
aI104836852
aS'-'
asS'UBE2CP1'
p1572
(lp1573
I30683045
aI30683598
aS'-'
asS'AL139099.4'
p1574
(lp1575
I49601011
aI49601124
aS'-'
asS'PPM1A'
p1576
(lp1577
I60249268
aI60299087
aS'+'
asS'AL049873.1'
p1578
(lp1579
I58794654
aI58795029
aS'+'
asS'AL139353.3'
p1580
(lp1581
I31320224
aI31320634
aS'-'
asS'AL139353.1'
p1582
(lp1583
I31334312
aI31457441
aS'-'
asS'ADIPOR1P2'
p1584
(lp1585
I94633705
aI94634524
aS'+'
asS'AL132640.2'
p1586
(lp1587
I67614929
aI67616626
aS'+'
asS'AL589182.2'
p1588
(lp1589
I19131842
aI19132890
aS'-'
asS'MED15P6'
p1590
(lp1591
I19485336
aI19489148
aS'+'
asS'SYT16'
p1592
(lp1593
I61812721
aI62075391
aS'+'
asS'ATP5C1P1'
p1594
(lp1595
I53991101
aI53991995
aS'-'
asS'IGHV4-39'
p1596
(lp1597
I106421711
aI106422218
aS'-'
asS'C14orf178'
p1598
(lp1599
I77760830
aI77769742
aS'+'
asS'IGHV4-34'
p1600
(lp1601
I106373663
aI106374145
aS'-'
asS'DUXAP10'
p1602
(lp1603
I19284653
aI19337672
aS'-'
asS'OR7E106P'
p1604
(lp1605
I51763056
aI51764076
aS'-'
asS'IGHV4-31'
p1606
(lp1607
I106349283
aI106349792
aS'-'
asS'ADAM20P1'
p1608
(lp1609
I70468881
aI70483756
aS'-'
asS'AL355916.3'
p1610
(lp1611
I61529128
aI61657964
aS'+'
asS'STYX'
p1612
(lp1613
I52730182
aI52774998
aS'+'
asS'FOS'
p1614
(lp1615
I75278774
aI75282230
aS'+'
asS'HOMEZ'
p1616
(lp1617
I23274056
aI23299447
aS'-'
asS'AL049830.1'
p1618
(lp1619
I30821419
aI30821843
aS'+'
asS'PSMA3P'
p1620
(lp1621
I60179382
aI60180016
aS'+'
asS'EFS'
p1622
(lp1623
I23356402
aI23365633
aS'-'
asS'IGHV4-55'
p1624
(lp1625
I106606101
aI106606551
aS'-'
asS'PARP2'
p1626
(lp1627
I20343582
aI20357905
aS'+'
asS'ZC2HC1C'
p1628
(lp1629
I75069280
aI75079987
aS'+'
asS'BRD7P1'
p1630
(lp1631
I23749236
aI23751150
aS'+'
asS'ATG14'
p1632
(lp1633
I55366392
aI55411858
aS'-'
asS'IGHV3-48'
p1634
(lp1635
I106537810
aI106538344
aS'-'
asS'IGHV3-49'
p1636
(lp1637
I106556936
aI106557477
aS'-'
asS'IGHV3-47'
p1638
(lp1639
I106518582
aI106519027
aS'-'
asS'FRMD6'
p1640
(lp1641
I51489137
aI51730459
aS'+'
asS'PAX9'
p1642
(lp1643
I36657568
aI36677804
aS'+'
asS'IGHV3-43'
p1644
(lp1645
I106470264
aI106470800
aS'-'
asS'GPHN'
p1646
(lp1647
I66507407
aI67181803
aS'+'
asS'IGHV3-36'
p1648
(lp1649
I106392774
aI106393231
aS'-'
asS'AL158801.1'
p1650
(lp1651
I55282296
aI55282643
aS'-'
asS'ANG'
p1652
(lp1653
I20684614
aI20698971
aS'+'
asS'ESR2'
p1654
(lp1655
I64084232
aI64294410
aS'-'
asS'AC005225.4'
p1656
(lp1657
I73631475
aI73632019
aS'+'
asS'LGMN'
p1658
(lp1659
I92703809
aI92748702
aS'-'
asS'IGHVII-49-1'
p1660
(lp1661
I106564375
aI106564598
aS'-'
asS'NYNRIN'
p1662
(lp1663
I24398786
aI24419288
aS'+'
asS'IL25'
p1664
(lp1665
I23372861
aI23376403
aS'+'
asS'YLPM1'
p1666
(lp1667
I74763366
aI74836281
aS'+'
asS'MOK'
p1668
(lp1669
I102228841
aI102305200
aS'-'
asS'APOPT1'
p1670
(lp1671
I103571756
aI103607523
aS'+'
asS'GRAMD4P3'
p1672
(lp1673
I19371822
aI19373490
aS'+'
asS'AL357153.4'
p1674
(lp1675
I70556206
aI70557478
aS'+'
asS'POLE2'
p1676
(lp1677
I49643585
aI49688422
aS'-'
asS'IGHVIII-67-2'
p1678
(lp1679
I106687113
aI106687200
aS'-'
asS'DHRS7'
p1680
(lp1681
I60144120
aI60169856
aS'-'
asS'EDDM3A'
p1682
(lp1683
I20745892
aI20748380
aS'+'
asS'PPP2R5E'
p1684
(lp1685
I63371357
aI63543374
aS'-'
asS'EDDM3B'
p1686
(lp1687
I20768427
aI20770948
aS'+'
asS'SIX6'
p1688
(lp1689
I60508951
aI60512850
aS'+'
asS'PPP2R5C'
p1690
(lp1691
I101761798
aI101927989
aS'+'
asS'DPF3'
p1692
(lp1693
I72619296
aI72894088
aS'-'
asS'AL121576.1'
p1694
(lp1695
I47801926
aI47802201
aS'-'
asS'FKBP1BP1'
p1696
(lp1697
I41742639
aI41742963
aS'+'
asS'YY1'
p1698
(lp1699
I100238985
aI100282792
aS'+'
asS'BAG5'
p1700
(lp1701
I103556544
aI103562814
aS'-'
asS'OXA1L'
p1702
(lp1703
I22766522
aI22773041
aS'+'
asS'AL137100.1'
p1704
(lp1705
I57040885
aI57042504
aS'+'
asS'AL118556.2'
p1706
(lp1707
I50471769
aI50472592
aS'+'
asS'AL355922.3'
p1708
(lp1709
I20983155
aI20985066
aS'-'
asS'PARP1P2'
p1710
(lp1711
I63123007
aI63123201
aS'+'
asS'KRT8P1'
p1712
(lp1713
I38727275
aI38728481
aS'+'
asS'CEND1P1'
p1714
(lp1715
I104450979
aI104451433
aS'+'
asS'KRT8P2'
p1716
(lp1717
I43540883
aI43541826
aS'-'
asS'XRCC3'
p1718
(lp1719
I103697617
aI103715504
aS'-'
asS'HSPE1P2'
p1720
(lp1721
I63601509
aI63601814
aS'+'
asS'AL118557.1'
p1722
(lp1723
I52155740
aI52156179
aS'+'
asS'RPL4P1'
p1724
(lp1725
I21750269
aI21751546
aS'+'
asS'RPL36AL'
p1726
(lp1727
I49618519
aI49620685
aS'-'
asS'DNAAF2'
p1728
(lp1729
I49625174
aI49635230
aS'-'
asS'DACT1'
p1730
(lp1731
I58634068
aI58647200
aS'+'
asS'IGHVII-60-1'
p1732
(lp1733
I106637718
aI106637973
aS'-'
asS'AL079307.3'
p1734
(lp1735
I51787461
aI51787743
aS'+'
asS'IGHVII-74-1'
p1736
(lp1737
I106821174
aI106821414
aS'-'
asS'SLC10A1'
p1738
(lp1739
I69775417
aI69797289
aS'-'
asS'BRF1'
p1740
(lp1741
I105210367
aI105315589
aS'-'
asS'SEC23A'
p1742
(lp1743
I39031920
aI39103528
aS'-'
asS'RBM8B'
p1744
(lp1745
I60397757
aI60398281
aS'+'
asS'IGHV3-42'
p1746
(lp1747
I106463256
aI106463691
aS'-'
asS'RPL10AP1'
p1748
(lp1749
I103412119
aI103412761
aS'-'
asS'GMFB'
p1750
(lp1751
I54474485
aI54489196
aS'-'
asS'CBLN3'
p1752
(lp1753
I24427605
aI24430954
aS'-'
asS'IGHJ2P'
p1754
(lp1755
I105864793
aI105864852
aS'-'
asS'PSMA3'
p1756
(lp1757
I58244831
aI58272007
aS'+'
asS'AC004825.1'
p1758
(lp1759
I70858844
aI70859429
aS'-'
asS'PSMA6'
p1760
(lp1761
I35278633
aI35317467
aS'+'
asS'MARK3'
p1762
(lp1763
I103385520
aI103503826
aS'+'
asS'IRF9'
p1764
(lp1765
I24161053
aI24166565
aS'+'
asS'AL118558.2'
p1766
(lp1767
I101969364
aI101969601
aS'-'
asS'SLC8A3'
p1768
(lp1769
I70044217
aI70189070
aS'-'
asS'IGHV3-41'
p1770
(lp1771
I106443133
aI106443583
aS'-'
asS'IGHVII-30-1'
p1772
(lp1773
I106342680
aI106342980
aS'-'
asS'COX4I1P1'
p1774
(lp1775
I61831861
aI61832369
aS'-'
asS'COCH'
p1776
(lp1777
I30874572
aI30895065
aS'+'
asS'AC245369.8'
p1778
(lp1779
I106750289
aI106750594
aS'-'
asS'TSSK4'
p1780
(lp1781
I24205697
aI24208248
aS'+'
asS'AL512360.1'
p1782
(lp1783
I48819360
aI48819593
aS'+'
asS'OR4T1P'
p1784
(lp1785
I20093353
aI20094263
aS'+'
asS'RPL13P6'
p1786
(lp1787
I103041469
aI103042094
aS'+'
asS'AL121594.5'
p1788
(lp1789
I35222174
aI35222746
aS'+'
asS'MED15P1'
p1790
(lp1791
I18912805
aI18916642
aS'-'
asS'AL160237.2'
p1792
(lp1793
I23817281
aI23827396
aS'-'
asS'RPS29'
p1794
(lp1795
I49570984
aI49586376
aS'-'
asS'NGDN'
p1796
(lp1797
I23477213
aI23509862
aS'+'
asS'PTBP1P'
p1798
(lp1799
I65279267
aI65281166
aS'+'
asS'GPR65'
p1800
(lp1801
I88005124
aI88014811
aS'+'
asS'ADAM21'
p1802
(lp1803
I70452157
aI70459899
aS'+'
asS'ADAM20'
p1804
(lp1805
I70522358
aI70535015
aS'-'
asS'GALC'
p1806
(lp1807
I87837820
aI87980648
aS'-'
asS'EFCAB11'
p1808
(lp1809
I89794669
aI89954689
aS'-'
asS'AC007376.1'
p1810
(lp1811
I76690139
aI76690742
aS'-'
asS'AC007954.1'
p1812
(lp1813
I77359423
aI77359916
aS'+'
asS'IGHV7-34-1'
p1814
(lp1815
I106377300
aI106377733
aS'-'
asS'AC245369.7'
p1816
(lp1817
I106728163
aI106728615
aS'-'
asS'RAD51B'
p1818
(lp1819
I67819829
aI68730218
aS'+'
asS'GPR68'
p1820
(lp1821
I91232532
aI91253925
aS'-'
asS'RPS6KA5'
p1822
(lp1823
I90847862
aI91060608
aS'-'
asS'GALNT16'
p1824
(lp1825
I69259964
aI69357033
aS'+'
asS'LINC00643'
p1826
(lp1827
I62118624
aI62130962
aS'+'
asS'VASH1'
p1828
(lp1829
I76762189
aI76783015
aS'+'
asS'TRAC'
p1830
(lp1831
I22547506
aI22552154
aS'+'
asS'G2E3'
p1832
(lp1833
I30559123
aI30620063
aS'+'
asS'IGHVIII-47-1'
p1834
(lp1835
I106531141
aI106531471
aS'-'
asS'AC245369.1'
p1836
(lp1837
I106723574
aI106724093
aS'-'
asS'AL162151.2'
p1838
(lp1839
I98973314
aI98973471
aS'+'
asS'OR4H12P'
p1840
(lp1841
I19759868
aI19760774
aS'+'
asS'DCAF11'
p1842
(lp1843
I24114780
aI24125240
aS'+'
asS'ATL1'
p1844
(lp1845
I50533026
aI50633049
aS'+'
asS'CAP2P1'
p1846
(lp1847
I89290205
aI89291594
aS'-'
asS'OR4K15'
p1848
(lp1849
I19975444
aI19976659
aS'+'
asS'OR4K14'
p1850
(lp1851
I20014260
aI20015193
aS'-'
asS'OR4K17'
p1852
(lp1853
I20117407
aI20118438
aS'+'
asS'AC243972.2'
p1854
(lp1855
I21585290
aI21586280
aS'-'
asS'AC245369.3'
p1856
(lp1857
I106762092
aI106762588
aS'-'
asS'OR4K13'
p1858
(lp1859
I20033844
aI20034760
aS'-'
asS'C14orf2'
p1860
(lp1861
I103912290
aI103928269
aS'-'
asS'GSTZ1'
p1862
(lp1863
I77320884
aI77331597
aS'+'
asS'C14orf1'
p1864
(lp1865
I75649791
aI75661189
aS'-'
asS'CCDC85C'
p1866
(lp1867
I99500180
aI99604026
aS'-'
asS'BNIP3P6'
p1868
(lp1869
I18418775
aI18419273
aS'+'
asS'GTF2A1'
p1870
(lp1871
I81175452
aI81220922
aS'-'
asS'AC246787.1'
p1872
(lp1873
I105978520
aI105979146
aS'-'
asS'AL162632.2'
p1874
(lp1875
I45502742
aI45503140
aS'-'
asS'MAP4K5'
p1876
(lp1877
I50418525
aI50532609
aS'-'
asS'AL163642.2'
p1878
(lp1879
I84998278
aI84999296
aS'-'
asS'CR383656.5'
p1880
(lp1881
I18698639
aI18699978
aS'-'
asS'INSM2'
p1882
(lp1883
I35534042
aI35537054
aS'+'
asS'BHLHB9P1'
p1884
(lp1885
I80981988
aI80983638
aS'+'
asS'TIMM9'
p1886
(lp1887
I58408494
aI58427614
aS'-'
asS'OR4E2'
p1888
(lp1889
I21665083
aI21666024
aS'+'
asS'AL049873.2'
p1890
(lp1891
I58827679
aI58828176
aS'-'
asS'NMNAT1P1'
p1892
(lp1893
I81032529
aI81033404
aS'+'
asS'AC244502.2'
p1894
(lp1895
I22332922
aI22334685
aS'-'
asS'TEP1'
p1896
(lp1897
I20365667
aI20413421
aS'-'
asS'AL049869.4'
p1898
(lp1899
I64535702
aI64535879
aS'-'
asS'DAD1'
p1900
(lp1901
I22564905
aI22589269
aS'-'
asS'SMOC1'
p1902
(lp1903
I69879426
aI70032366
aS'+'
asS'ANGEL1'
p1904
(lp1905
I76786178
aI76812940
aS'-'
asS'COX5AP2'
p1906
(lp1907
I52117602
aI52117995
aS'+'
asS'AL133241.1'
p1908
(lp1909
I66760532
aI66761018
aS'+'
asS'IGHVIII-67-4'
p1910
(lp1911
I106695102
aI106695397
aS'-'
asS'NF1P10'
p1912
(lp1913
I18709478
aI18712643
aS'-'
asS'PTPN21'
p1914
(lp1915
I88465781
aI88554733
aS'-'
asS'FNTB'
p1916
(lp1917
I64986720
aI65062598
aS'+'
asS'AL137100.2'
p1918
(lp1919
I57044646
aI57044960
aS'-'
asS'NPAS3'
p1920
(lp1921
I32934933
aI33801109
aS'+'
asS'AC005519.1'
p1922
(lp1923
I74377818
aI74378418
aS'-'
asS'C14orf132'
p1924
(lp1925
I96039324
aI96093889
aS'+'
asS'EIF3LP1'
p1926
(lp1927
I81916231
aI81917888
aS'+'
asS'APEX1'
p1928
(lp1929
I20455191
aI20457772
aS'+'
asS'AL122126.1'
p1930
(lp1931
I28857384
aI28858701
aS'-'
asS'RGS6'
p1932
(lp1933
I71933116
aI72566526
aS'+'
asS'MTND4P33'
p1934
(lp1935
I84172841
aI84173606
aS'+'
asS'NF1P4'
p1936
(lp1937
I19492281
aI19501740
aS'+'
asS'AL132780.3'
p1938
(lp1939
I22946270
aI22982258
aS'-'
asS'TRAV8-6'
p1940
(lp1941
I21978459
aI21979120
aS'+'
asS'ABHD12B'
p1942
(lp1943
I50872160
aI50904970
aS'+'
asS'GRAMD4P4'
p1944
(lp1945
I19026521
aI19028189
aS'-'
asS'C14orf159'
p1946
(lp1947
I91114063
aI91225632
aS'+'
asS'ESRRB'
p1948
(lp1949
I76310614
aI76500704
aS'+'
asS'PIGH'
p1950
(lp1951
I67581955
aI67600169
aS'-'
asS'IGHVIII-67-3'
p1952
(lp1953
I106692657
aI106692888
aS'-'
asS'SLC20A1P1'
p1954
(lp1955
I106683395
aI106684350
aS'-'
asS'SERPINA2'
p1956
(lp1957
I94364313
aI94366698
aS'-'
asS'SLC20A1P2'
p1958
(lp1959
I106179554
aI106180519
aS'-'
asS'SRP54'
p1960
(lp1961
I34981957
aI35029567
aS'+'
asS'AL121839.1'
p1962
(lp1963
I91709111
aI91710617
aS'+'
asS'SETP2'
p1964
(lp1965
I51436038
aI51436963
aS'+'
asS'NUMB'
p1966
(lp1967
I73275107
aI73458617
aS'-'
asS'SERPINA4'
p1968
(lp1969
I94561091
aI94569902
aS'+'
asS'ZDHHC22'
p1970
(lp1971
I77131270
aI77141791
aS'-'
asS'THTPA'
p1972
(lp1973
I23556022
aI23560271
aS'+'
asS'ABI1P1'
p1974
(lp1975
I55546674
aI55548123
aS'+'
asS'CATSPERB'
p1976
(lp1977
I91580774
aI91732086
aS'-'
asS'SERPINA5'
p1978
(lp1979
I94561442
aI94592796
aS'+'
asS'AL161756.3'
p1980
(lp1981
I64361392
aI64361637
aS'+'
asS'AL162311.2'
p1982
(lp1983
I35881001
aI35881709
aS'+'
asS'SERPINA6'
p1984
(lp1985
I94304249
aI94323394
aS'-'
asS'IGHVII-65-1'
p1986
(lp1987
I106671772
aI106672073
aS'-'
asS'AC007956.1'
p1988
(lp1989
I74658049
aI74658590
aS'+'
asS'SETP1'
p1990
(lp1991
I20528115
aI20528959
aS'-'
asS'OR4N5'
p1992
(lp1993
I20143736
aI20144662
aS'+'
asS'C14orf80'
p1994
(lp1995
I105489855
aI105499575
aS'+'
asS'RPA2P1'
p1996
(lp1997
I46996454
aI46997174
aS'+'
asS'CCDC175'
p1998
(lp1999
I59505061
aI59576831
aS'-'
asS'RNF212B'
p2000
(lp2001
I23185316
aI23273405
aS'+'
asS'CCDC177'
p2002
(lp2003
I69569816
aI69574837
aS'-'
asS'TRAV34'
p2004
(lp2005
I22207522
aI22208129
aS'+'
asS'IGHD7-27'
p2006
(lp2007
I105865551
aI105865561
aS'-'
asS'REC8'
p2008
(lp2009
I24171853
aI24180257
aS'+'
asS'TRAV37'
p2010
(lp2011
I22265749
aI22266264
aS'+'
asS'TRAV30'
p2012
(lp2013
I22168429
aI22168988
aS'+'
asS'RDH11'
p2014
(lp2015
I67676801
aI67695814
aS'-'
asS'RDH12'
p2016
(lp2017
I67701886
aI67734452
aS'+'
asS'TRAV33'
p2018
(lp2019
I22190158
aI22190713
aS'+'
asS'COQ6'
p2020
(lp2021
I73950293
aI73963670
aS'+'
asS'TRAV39'
p2022
(lp2023
I22304054
aI22304553
aS'+'
asS'BCL2L2'
p2024
(lp2025
I23298790
aI23307922
aS'+'
asS'AL136038.1'
p2026
(lp2027
I63567958
aI63568308
aS'+'
asS'TTC7B'
p2028
(lp2029
I90524564
aI90816417
aS'-'
asS'GLRX5'
p2030
(lp2031
I95533503
aI95544557
aS'+'
asS'TRMT61A'
p2032
(lp2033
I103529184
aI103537073
aS'+'
asS'C14orf28'
p2034
(lp2035
I44897295
aI44907257
aS'+'
asS'NF1P7'
p2036
(lp2037
I18899942
aI18909673
aS'-'
asS'ANKRD9'
p2038
(lp2039
I102501760
aI102509791
aS'-'
asS'HECTD1'
p2040
(lp2041
I31100118
aI31207804
aS'-'
asS'AKT1'
p2042
(lp2043
I104769349
aI104795751
aS'-'
asS'FAM71D'
p2044
(lp2045
I67189393
aI67228550
aS'+'
asS'IGHV3-33-2'
p2046
(lp2047
I106369107
aI106369546
aS'-'
asS'AL163642.1'
p2048
(lp2049
I84951274
aI84951373
aS'+'
asS'LRFN5'
p2050
(lp2051
I41607570
aI41904549
aS'+'
asS'KHNYN'
p2052
(lp2053
I24429286
aI24441834
aS'+'
asS'ZFYVE1'
p2054
(lp2055
I72969452
aI73027212
aS'-'
asS'AL049830.4'
p2056
(lp2057
I31018446
aI31018796
aS'+'
asS'NKX2-1'
p2058
(lp2059
I36516417
aI36521149
aS'-'
asS'IGHD3-22'
p2060
(lp2061
I105886031
aI105886061
aS'-'
asS'L3HYPDH'
p2062
(lp2063
I59460363
aI59475898
aS'-'
asS'AL160236.1'
p2064
(lp2065
I60972272
aI60972466
aS'-'
asS'MBIP'
p2066
(lp2067
I36298558
aI36320676
aS'-'
asS'IGHV3-30-2'
p2068
(lp2069
I106344385
aI106344833
aS'-'
asS'BMS1P17'
p2070
(lp2071
I19301704
aI19316800
aS'+'
asS'CCDC88C'
p2072
(lp2073
I91271325
aI91417777
aS'-'
asS'RPL12P7'
p2074
(lp2075
I68693090
aI68693583
aS'+'
asS'KIAA0391'
p2076
(lp2077
I35122564
aI35277614
aS'+'
asS'SUSD6'
p2078
(lp2079
I69611596
aI69715142
aS'+'
asS'TOMM20L'
p2080
(lp2081
I58395916
aI58408701
aS'+'
asS'TPPP2'
p2082
(lp2083
I21024109
aI21031008
aS'+'
asS'COX8C'
p2084
(lp2085
I93347191
aI93348356
aS'+'
asS'GOLGA5'
p2086
(lp2087
I92794231
aI92839963
aS'+'
asS'RPL21P7'
p2088
(lp2089
I65266638
aI65267690
aS'-'
asS'PYGL'
p2090
(lp2091
I50857891
aI50944456
aS'-'
asS'RALGAPA1'
p2092
(lp2093
I35538352
aI35809304
aS'-'
asS'RPS3AP46'
p2094
(lp2095
I53612724
aI53613405
aS'+'
asS'RNASE1'
p2096
(lp2097
I20801228
aI20803278
aS'-'
asS'TDRD9'
p2098
(lp2099
I103928462
aI104052667
aS'+'
asS'RNASE2'
p2100
(lp2101
I20955452
aI20956436
aS'+'
asS'RNASE4'
p2102
(lp2103
I20684100
aI20701215
aS'+'
asS'RNASE7'
p2104
(lp2105
I21042226
aI21044233
aS'+'
asS'RNASE6'
p2106
(lp2107
I20781051
aI20782467
aS'+'
asS'RNASE9'
p2108
(lp2109
I20556093
aI20560931
aS'-'
asS'RNASE8'
p2110
(lp2111
I21057822
aI21058455
aS'+'
asS'RTL1'
p2112
(lp2113
I100880655
aI100884847
aS'-'
asS'AL355032.1'
p2114
(lp2115
I101677943
aI101678380
aS'+'
asS'KLHL28'
p2116
(lp2117
I44945677
aI45042308
aS'-'
asS'AL390334.1'
p2118
(lp2119
I27322079
aI27845286
aS'-'
asS'SNAPC1'
p2120
(lp2121
I61762357
aI61796428
aS'+'
asS'IGHV2-70'
p2122
(lp2123
I106770577
aI106771020
aS'-'
asS'IGHVII-78-1'
p2124
(lp2125
I106865627
aI106865895
aS'-'
asS'ATP5G1P1'
p2126
(lp2127
I105536861
aI105537239
aS'-'
asS'ATG2B'
p2128
(lp2129
I96279202
aI96363870
aS'-'
asS'UBR7'
p2130
(lp2131
I93207056
aI93229215
aS'+'
asS'TDP1'
p2132
(lp2133
I89955951
aI90044768
aS'+'
asS'ABHD4'
p2134
(lp2135
I22598237
aI22613215
aS'+'
asS'ADAM6'
p2136
(lp2137
I105969729
aI105972269
aS'-'
asS'SOCS4'
p2138
(lp2139
I55027230
aI55049488
aS'+'
asS'AL133445.1'
p2140
(lp2141
I69561019
aI69561470
aS'-'
asS'BMP4'
p2142
(lp2143
I53949736
aI53956811
aS'-'
asS'AL096870.1'
p2144
(lp2145
I24332310
aI24337382
aS'-'
asS'ACYP1'
p2146
(lp2147
I75053237
aI75069483
aS'-'
asS'TRAJ29'
p2148
(lp2149
I22513939
aI22513998
aS'+'
asS'TRAJ28'
p2150
(lp2151
I22515623
aI22515688
aS'+'
asS'TRAV38-2DV8'
p2152
(lp2153
I22281105
aI22281748
aS'+'
asS'TRAJ26'
p2154
(lp2155
I22518446
aI22518505
aS'+'
asS'TRAJ25'
p2156
(lp2157
I22518812
aI22518871
aS'+'
asS'TRAJ24'
p2158
(lp2159
I22519969
aI22520031
aS'+'
asS'TRAJ23'
p2160
(lp2161
I22520416
aI22520478
aS'+'
asS'TRAJ22'
p2162
(lp2163
I22522040
aI22522102
aS'+'
asS'TRAJ21'
p2164
(lp2165
I22523600
aI22523654
aS'+'
asS'TRAJ20'
p2166
(lp2167
I22524325
aI22524381
aS'+'
asS'TRAJ27'
p2168
(lp2169
I22516273
aI22516331
aS'+'
asS'ENTPD5'
p2170
(lp2171
I73958010
aI74015928
aS'-'
asS'EXD2'
p2172
(lp2173
I69191766
aI69244020
aS'+'
asS'AL389895.1'
p2174
(lp2175
I62514872
aI62515123
aS'-'
asS'TRAV13-1'
p2176
(lp2177
I21868839
aI21869365
aS'+'
asS'TRAV13-2'
p2178
(lp2179
I21918188
aI21918756
aS'+'
asS'VRTN'
p2180
(lp2181
I74303069
aI74357033
aS'+'
asS'AL121594.3'
p2182
(lp2183
I35122549
aI35317474
aS'+'
asS'AL121594.2'
p2184
(lp2185
I35235180
aI35235651
aS'-'
asS'CINP'
p2186
(lp2187
I102341102
aI102362916
aS'-'
asS'CCNK'
p2188
(lp2189
I99481424
aI99535044
aS'+'
asS'BATF'
p2190
(lp2191
I75522425
aI75547015
aS'+'
asS'AL157792.1'
p2192
(lp2193
I47200575
aI47201104
aS'-'
asS'TOGARAM1'
p2194
(lp2195
I44962208
aI45074431
aS'+'
asS'RPL21P8'
p2196
(lp2197
I65467807
aI65468341
aS'-'
asS'SLC7A8'
p2198
(lp2199
I23125295
aI23183640
aS'-'
asS'EIF4EBP1P1'
p2200
(lp2201
I21419620
aI21419960
aS'+'
asS'SMARCE1P3'
p2202
(lp2203
I21162513
aI21163743
aS'+'
asS'SLC7A7'
p2204
(lp2205
I22773222
aI22819811
aS'-'
asS'AL442163.3'
p2206
(lp2207
I42657763
aI42657918
aS'-'
asS'BCL2L2-PABPN1'
p2208
(lp2209
I23306835
aI23325369
aS'+'
asS'ZNF219'
p2210
(lp2211
I21090082
aI21104722
aS'-'
asS'AL132994.2'
p2212
(lp2213
I38973399
aI38974085
aS'-'
asS'AL132994.1'
p2214
(lp2215
I38835389
aI38835788
aS'+'
asS'KCNK13'
p2216
(lp2217
I90061765
aI90185857
aS'+'
asS'VCPKMT'
p2218
(lp2219
I50108633
aI50116600
aS'-'
asS'AL161757.1'
p2220
(lp2221
I56683421
aI56683741
aS'-'
asS'LTB4R2'
p2222
(lp2223
I24305734
aI24311145
aS'+'
asS'PNMA1'
p2224
(lp2225
I73711783
aI73714372
aS'-'
asS'ARID4A'
p2226
(lp2227
I58298385
aI58373733
aS'+'
asS'KLHDC2'
p2228
(lp2229
I49767608
aI49786385
aS'+'
asS'CKAP2P1'
p2230
(lp2231
I21110295
aI21113472
aS'-'
asS'KLHDC1'
p2232
(lp2233
I49693105
aI49753152
aS'+'
asS'AC245505.1'
p2234
(lp2235
I21962819
aI21963042
aS'-'
asS'FAM161B'
p2236
(lp2237
I73932510
aI73950414
aS'-'
asS'FAM177A1'
p2238
(lp2239
I35044907
aI35083381
aS'+'
asS'AMN'
p2240
(lp2241
I102922656
aI102931192
aS'+'
asS'AP4S1'
p2242
(lp2243
I31025106
aI31096449
aS'+'
asS'CHD8'
p2244
(lp2245
I21385486
aI21456080
aS'-'
asS'HAUS4'
p2246
(lp2247
I22946228
aI22957154
aS'-'
asS'PTGER2'
p2248
(lp2249
I52314395
aI52328606
aS'+'
asS'IGHV1-3'
p2250
(lp2251
I106005095
aI106005574
aS'-'
asS'IGHV1-2'
p2252
(lp2253
I105986582
aI105987083
aS'-'
asS'AL160191.3'
p2254
(lp2255
I70230224
aI70232426
aS'+'
asS'OTX2'
p2256
(lp2257
I56799905
aI56810469
aS'-'
asS'NPC2'
p2258
(lp2259
I74476192
aI74493307
aS'-'
asS'RPL12P5'
p2260
(lp2261
I30791098
aI30791489
aS'+'
asS'RPGRIP1'
p2262
(lp2263
I21287939
aI21351301
aS'+'
asS'SUB1P2'
p2264
(lp2265
I74305425
aI74306527
aS'+'
asS'RPL12P6'
p2266
(lp2267
I34740336
aI34740833
aS'-'
asS'OR11H13P'
p2268
(lp2269
I19180291
aI19181269
aS'+'
asS'TTC5'
p2270
(lp2271
I20256558
aI20287740
aS'-'
asS'IGHVII-22-1'
p2272
(lp2273
I106263362
aI106263626
aS'-'
asS'TTC6'
p2274
(lp2275
I37611251
aI38041442
aS'+'
asS'GNPNAT1'
p2276
(lp2277
I52775194
aI52791601
aS'-'
asS'KLHL33'
p2278
(lp2279
I20425870
aI20435811
aS'-'
asS'SALL2'
p2280
(lp2281
I21521081
aI21537216
aS'-'
asS'ISCA2'
p2282
(lp2283
I74493720
aI74497106
aS'+'
asS'IPO4'
p2284
(lp2285
I24180219
aI24188964
aS'-'
asS'TTC9'
p2286
(lp2287
I70641787
aI70675360
aS'+'
asS'TTC8'
p2288
(lp2289
I88824624
aI88881078
aS'+'
asS'RPL17P3'
p2290
(lp2291
I81001166
aI81001786
aS'-'
asS'EEF1A1P2'
p2292
(lp2293
I81661428
aI81662874
aS'+'
asS'RHOJ'
p2294
(lp2295
I63204114
aI63293219
aS'+'
asS'CMA1'
p2296
(lp2297
I24505353
aI24508265
aS'-'
asS'AC006530.1'
p2298
(lp2299
I74873684
aI74874254
aS'+'
asS'MIA2'
p2300
(lp2301
I39233916
aI39253639
aS'+'
asS'CEP170B'
p2302
(lp2303
I104865280
aI104896742
aS'+'
asS'AL606834.1'
p2304
(lp2305
I50704343
aI50705511
aS'-'
asS'POTEG'
p2306
(lp2307
I19402486
aI19434341
aS'-'
asS'DCAF4'
p2308
(lp2309
I72926478
aI72959703
aS'+'
asS'AC243972.3'
p2310
(lp2311
I21698954
aI21699151
aS'-'
asS'STRN3'
p2312
(lp2313
I30893799
aI31026401
aS'-'
asS'CARMIL3'
p2314
(lp2315
I24052000
aI24069728
aS'+'
asS'TBPL2'
p2316
(lp2317
I55413541
aI55440616
aS'-'
asS'AL121594.4'
p2318
(lp2319
I35157904
aI35159099
aS'-'
asS'AC005480.2'
p2320
(lp2321
I74003396
aI74003470
aS'+'
asS'SLC25A47'
p2322
(lp2323
I100323337
aI100330378
aS'+'
asS'ARG2'
p2324
(lp2325
I67619798
aI67651720
aS'+'
asS'GCH1'
p2326
(lp2327
I54842016
aI54902852
aS'-'
asS'TNFAIP2'
p2328
(lp2329
I103123461
aI103137439
aS'+'
asS'C14orf105'
p2330
(lp2331
I57469301
aI57493852
aS'-'
asS'RBM25'
p2332
(lp2333
I73058436
aI73123898
aS'+'
asS'DIO3'
p2334
(lp2335
I101561351
aI101563452
aS'+'
asS'STON2'
p2336
(lp2337
I81260656
aI81427404
aS'-'
asS'IGHV3-15'
p2338
(lp2339
I106153624
aI106154163
aS'-'
asS'UNC79'
p2340
(lp2341
I93333219
aI93707272
aS'+'
asS'IGHV4-28'
p2342
(lp2343
I106324254
aI106324760
aS'-'
asS'BTBD7'
p2344
(lp2345
I93237550
aI93333021
aS'-'
asS'POMT2'
p2346
(lp2347
I77274956
aI77320884
aS'-'
asS'LIN52'
p2348
(lp2349
I74084796
aI74201235
aS'+'
asS'IGHVIII-25-1'
p2350
(lp2351
I106293568
aI106293808
aS'-'
asS'IGHV6-1'
p2352
(lp2353
I105939756
aI105940253
aS'-'
asS'SRMP2'
p2354
(lp2355
I60919240
aI60920155
aS'-'
asS'AL135978.1'
p2356
(lp2357
I67199062
aI67200327
aS'+'
asS'ATP5S'
p2358
(lp2359
I50312641
aI50334907
aS'+'
asS'AL133368.1'
p2360
(lp2361
I99974336
aI99975149
aS'-'
asS'RPL23AP8'
p2362
(lp2363
I34694170
aI34694644
aS'+'
asS'AC247036.4'
p2364
(lp2365
I106088122
aI106088573
aS'-'
asS'AC247036.6'
p2366
(lp2367
I106107972
aI106108464
aS'-'
asS'ARF6'
p2368
(lp2369
I49893092
aI49897054
aS'+'
asS'IGHV3-50'
p2370
(lp2371
I106566117
aI106566555
aS'-'
asS'IGHV3-53'
p2372
(lp2373
I106592676
aI106593347
aS'-'
asS'IGHV3-52'
p2374
(lp2375
I106586376
aI106586826
aS'-'
asS'AL355076.3'
p2376
(lp2377
I65234515
aI65235101
aS'-'
asS'IGHV3-54'
p2378
(lp2379
I106601346
aI106601792
aS'-'
asS'IGHV3-57'
p2380
(lp2381
I106618894
aI106619173
aS'-'
asS'SOS2'
p2382
(lp2383
I50117120
aI50231558
aS'-'
asS'ARHGAP5'
p2384
(lp2385
I32077074
aI32159728
aS'+'
asS'PAPLN'
p2386
(lp2387
I73237497
aI73274640
aS'+'
asS'MTCO1P2'
p2388
(lp2389
I32484098
aI32484800
aS'-'
asS'AL133153.1'
p2390
(lp2391
I91419449
aI91419751
aS'+'
asS'IGHV2-5'
p2392
(lp2393
I106037902
aI106038365
aS'-'
asS'CR383656.10'
p2394
(lp2395
I18588274
aI18588315
aS'-'
asS'YTHDF2P1'
p2396
(lp2397
I39215065
aI39216335
aS'+'
asS'OR4L1'
p2398
(lp2399
I20060045
aI20060983
aS'+'
asS'IGHVIII-44'
p2400
(lp2401
I106478006
aI106478393
aS'-'
asS'ARHGAP42P4'
p2402
(lp2403
I19688261
aI19691194
aS'+'
asS'CR383656.2'
p2404
(lp2405
I18634955
aI18637208
aS'-'
asS'TMED8'
p2406
(lp2407
I77335021
aI77377109
aS'-'
asS'UNGP3'
p2408
(lp2409
I81259565
aI81260239
aS'-'
asS'TRMT5'
p2410
(lp2411
I60971451
aI60981358
aS'-'
asS'ACOT4'
p2412
(lp2413
I73591706
aI73596496
aS'+'
asS'IGHVIV-44-1'
p2414
(lp2415
I106489345
aI106489756
aS'-'
asS'AL355076.1'
p2416
(lp2417
I65268829
aI65269098
aS'+'
asS'IGHV1-45'
p2418
(lp2419
I106506996
aI106507491
aS'-'
asS'IGHV1-46'
p2420
(lp2421
I106511117
aI106511856
aS'-'
asS'TMEM30B'
p2422
(lp2423
I61277370
aI61281840
aS'-'
asS'SGPP1'
p2424
(lp2425
I63684214
aI63728039
aS'-'
asS'AC245166.1'
p2426
(lp2427
I106329432
aI106329684
aS'-'
asS'SEL1L'
p2428
(lp2429
I81471549
aI81533861
aS'-'
asS'NFKBIA'
p2430
(lp2431
I35401511
aI35404746
aS'-'
asS'AL391156.1'
p2432
(lp2433
I19908096
aI19908649
aS'-'
asS'FSCB'
p2434
(lp2435
I44504342
aI44507279
aS'-'
asS'AL512310.6'
p2436
(lp2437
I19668829
aI19670003
aS'+'
asS'AC245166.3'
p2438
(lp2439
I106354448
aI106354704
aS'-'
asS'ZFP36L1'
p2440
(lp2441
I68789945
aI68796253
aS'-'
asS'GLRXP2'
p2442
(lp2443
I90107675
aI90107995
aS'+'
asS'FERMT2'
p2444
(lp2445
I52857268
aI52951097
aS'-'
asS'OR11H2'
p2446
(lp2447
I19712936
aI19713920
aS'-'
asS'TRAJ61'
p2448
(lp2449
I22475316
aI22475375
aS'+'
asS'TRAJ60'
p2450
(lp2451
I22476306
aI22476362
aS'+'
asS'OR11H7'
p2452
(lp2453
I20229402
aI20230341
aS'+'
asS'OR11H6'
p2454
(lp2455
I20223632
aI20224805
aS'+'
asS'OR11H4'
p2456
(lp2457
I20242739
aI20243820
aS'+'
asS'AL132639.3'
p2458
(lp2459
I39233902
aI39350423
aS'+'
asS'AL157871.3'
p2460
(lp2461
I100366628
aI100366920
aS'+'
asS'MNAT1'
p2462
(lp2463
I60734762
aI60969953
aS'+'
asS'SYNE3'
p2464
(lp2465
I95407266
aI95475836
aS'-'
asS'RPS3AP4'
p2466
(lp2467
I35468272
aI35469330
aS'+'
asS'PROX2'
p2468
(lp2469
I74852871
aI74863834
aS'-'
asS'SERPINA1'
p2470
(lp2471
I94376747
aI94390692
aS'-'
asS'DEGS2'
p2472
(lp2473
I100143957
aI100160163
aS'-'
asS'PRPF39'
p2474
(lp2475
I45084099
aI45115601
aS'+'
asS'DICER1'
p2476
(lp2477
I95086228
aI95158010
aS'-'
asS'TRAV26-1'
p2478
(lp2479
I22123318
aI22124285
aS'+'
asS'TRAV26-2'
p2480
(lp2481
I22202583
aI22203368
aS'+'
asS'OR7E105P'
p2482
(lp2483
I51756996
aI51757988
aS'+'
asS'AL845552.1'
p2484
(lp2485
I100480952
aI100481274
aS'+'
asS'VIPAS39'
p2486
(lp2487
I77426682
aI77457640
aS'-'
asS'METTL3'
p2488
(lp2489
I21498138
aI21511375
aS'-'
asS'TRAV12-1'
p2490
(lp2491
I21841240
aI21841774
aS'+'
asS'AL133162.1'
p2492
(lp2493
I28489910
aI28490362
aS'+'
asS'RIN3'
p2494
(lp2495
I92513774
aI92688994
aS'+'
asS'IGHV4-59'
p2496
(lp2497
I106627249
aI106627825
aS'-'
asS'AL132838.2'
p2498
(lp2499
I93244010
aI93244323
aS'+'
asS'AL049839.1'
p2500
(lp2501
I94674877
aI94675829
aS'-'
asS'AL161670.2'
p2502
(lp2503
I63734697
aI63735923
aS'+'
asS'HSP90AA1'
p2504
(lp2505
I102081049
aI102139686
aS'-'
asS'PSMB5'
p2506
(lp2507
I23016543
aI23034727
aS'-'
asS'AL161670.1'
p2508
(lp2509
I63762013
aI63762149
aS'+'
asS'GNRHR2P1'
p2510
(lp2511
I60398934
aI60400013
aS'-'
asS'AP1G2'
p2512
(lp2513
I23559565
aI23568070
aS'-'
asS'IGHVII-46-1'
p2514
(lp2515
I106515818
aI106515854
aS'-'
asS'HMGB3P26'
p2516
(lp2517
I103364239
aI103364820
aS'-'
asS'CHGA'
p2518
(lp2519
I92923080
aI92935293
aS'+'
asS'FOXG1'
p2520
(lp2521
I28760330
aI28765747
aS'+'
asS'IGHVIII-22-2'
p2522
(lp2523
I106264688
aI106264715
aS'-'
asS'ELK2BP'
p2524
(lp2525
I105546610
aI105549694
aS'-'
asS'NEMF'
p2526
(lp2527
I49782083
aI49853203
aS'-'
asS'BCL11B'
p2528
(lp2529
I99169287
aI99271485
aS'-'
asS'GTF3AP2'
p2530
(lp2531
I71044375
aI71044640
aS'-'
asS'RIPK3'
p2532
(lp2533
I24336021
aI24340045
aS'-'
asS'TRAV23DV6'
p2534
(lp2535
I22086407
aI22086961
aS'+'
asS'AL163153.1'
p2536
(lp2537
I42989201
aI42989483
aS'+'
asS'AL121766.1'
p2538
(lp2539
I28673241
aI28673727
aS'-'
asS'EIF2S1'
p2540
(lp2541
I67359997
aI67386516
aS'+'
asS'IGHV2-26'
p2542
(lp2543
I106301396
aI106301862
aS'-'
asS'AL121594.6'
p2544
(lp2545
I35219023
aI35219283
aS'-'
asS'TRAJ16'
p2546
(lp2547
I22528527
aI22528586
aS'+'
asS'TRAJ17'
p2548
(lp2549
I22526844
aI22526906
aS'+'
asS'TRAJ14'
p2550
(lp2551
I22530327
aI22530378
aS'+'
asS'SERPINA3'
p2552
(lp2553
I94612377
aI94624052
aS'+'
asS'TRAJ12'
p2554
(lp2555
I22531939
aI22531998
aS'+'
asS'TRAJ13'
p2556
(lp2557
I22531076
aI22531138
aS'+'
asS'TRAJ10'
p2558
(lp2559
I22533497
aI22533560
aS'+'
asS'TRAJ11'
p2560
(lp2561
I22532502
aI22532561
aS'+'
asS'CDKN3'
p2562
(lp2563
I54396955
aI54420218
aS'+'
asS'SERPINA9'
p2564
(lp2565
I94462717
aI94476243
aS'-'
asS'RPL21P12'
p2566
(lp2567
I103148597
aI103149408
aS'+'
asS'RPL21P13'
p2568
(lp2569
I103241492
aI103241972
aS'+'
asS'MLH3'
p2570
(lp2571
I75013764
aI75051532
aS'-'
asS'CPNE6'
p2572
(lp2573
I24070837
aI24078100
aS'+'
asS'TRAJ18'
p2574
(lp2575
I22525650
aI22525715
aS'+'
asS'TRAJ19'
p2576
(lp2577
I22525263
aI22525322
aS'+'
asS'AL442663.2'
p2578
(lp2579
I73068108
aI73068618
aS'-'
asS'SYNDIG1L'
p2580
(lp2581
I74405893
aI74426102
aS'-'
asS'AL079352.1'
p2582
(lp2583
I25431193
aI25432234
aS'-'
asS'GMPR2'
p2584
(lp2585
I24232422
aI24239242
aS'+'
asS'AL117258.1'
p2586
(lp2587
I23099065
aI23104992
aS'-'
asS'MTA1'
p2588
(lp2589
I105419822
aI105470729
aS'+'
asS'SNRPGP1'
p2590
(lp2591
I50571919
aI50572140
aS'-'
asS'ZNF410'
p2592
(lp2593
I73886871
aI73932511
aS'+'
asS'LRP10'
p2594
(lp2595
I22871613
aI22881580
aS'+'
asS'PABPN1'
p2596
(lp2597
I23321289
aI23326185
aS'+'
asS'TRAF3'
p2598
(lp2599
I102777476
aI102911500
aS'+'
asS'OTUB2'
p2600
(lp2601
I94026329
aI94048930
aS'+'
asS'IGHVII-67-1'
p2602
(lp2603
I106686517
aI106686562
aS'-'
asS'NEDD8-MDP1'
p2604
(lp2605
I24213955
aI24232336
aS'-'
asS'OR4K16P'
p2606
(lp2607
I19956600
aI19957568
aS'+'
asS'GPR132'
p2608
(lp2609
I105049397
aI105065445
aS'-'
asS'AL121603.1'
p2610
(lp2611
I34920865
aI34921006
aS'+'
asS'RPL7AP2'
p2612
(lp2613
I39156742
aI39157852
aS'+'
asS'AL355075.5'
p2614
(lp2615
I20437982
aI20441268
aS'+'
asS'IGHD6-25'
p2616
(lp2617
I105881539
aI105881556
aS'-'
asS'ALDH6A1'
p2618
(lp2619
I74056850
aI74084493
aS'-'
asS'TMX1'
p2620
(lp2621
I51240168
aI51257546
aS'+'
asS'CFL2'
p2622
(lp2623
I34706769
aI34714690
aS'-'
asS'GCSHP2'
p2624
(lp2625
I103184204
aI103185039
aS'+'
asS'DNAJC8P1'
p2626
(lp2627
I35430260
aI35430631
aS'+'
asS'PACS2'
p2628
(lp2629
I105300563
aI105394672
aS'+'
asS'FOXN3'
p2630
(lp2631
I89156172
aI89619130
aS'-'
asS'AL512310.7'
p2632
(lp2633
I19677837
aI19680104
aS'+'
asS'PLEKHG3'
p2634
(lp2635
I64704597
aI64750247
aS'+'
asS'ACTN1'
p2636
(lp2637
I68874143
aI68979440
aS'-'
asS'AL512310.4'
p2638
(lp2639
I19664098
aI19683677
aS'-'
asS'AL512310.3'
p2640
(lp2641
I19629006
aI19630340
aS'+'
asS'AL158801.4'
p2642
(lp2643
I55240622
aI55241080
aS'-'
asS'AL512310.1'
p2644
(lp2645
I19700479
aI19700650
aS'-'
asS'TINF2'
p2646
(lp2647
I24239643
aI24242674
aS'-'
asS'AL133372.1'
p2648
(lp2649
I30055210
aI30055954
aS'+'
asS'TXNDC16'
p2650
(lp2651
I52430590
aI52552506
aS'-'
asS'IGHV4-61'
p2652
(lp2653
I106639119
aI106639657
aS'-'
asS'IGHJ3P'
p2654
(lp2655
I105863416
aI105863465
aS'-'
asS'AL512310.9'
p2656
(lp2657
I19733355
aI19734302
aS'-'
asS'AL512310.8'
p2658
(lp2659
I19653623
aI19653742
aS'-'
asS'ZBTB42'
p2660
(lp2661
I104800913
aI104804712
aS'+'
asS'AL442163.2'
p2662
(lp2663
I42608868
aI42609577
aS'+'
asS'BLZF2P'
p2664
(lp2665
I68867857
aI68869951
aS'-'
asS'AL121579.1'
p2666
(lp2667
I58184576
aI58185507
aS'+'
asS'RPL18P1'
p2668
(lp2669
I48489883
aI48490434
aS'+'
asS'AHNAK2'
p2670
(lp2671
I104937317
aI104978357
aS'-'
asS'SPATA7'
p2672
(lp2673
I88384924
aI88438460
aS'+'
asS'AL929601.4'
p2674
(lp2675
I18889084
aI18890424
aS'-'
asS'IGHVII-26-2'
p2676
(lp2677
I106314651
aI106314975
aS'-'
as.