(dp1
S'SSPN'
p2
(lp3
I26122052
aI26299290
aS'+'
asS'FGFR1OP2'
p4
(lp5
I26938383
aI26966553
aS'+'
asS'RNF10'
p6
(lp7
I120534351
aI120577594
aS'+'
asS'RPS27P22'
p8
(lp9
I22722229
aI22722469
aS'+'
asS'RPS27P23'
p10
(lp11
I101424441
aI101424691
aS'+'
asS'RPS27P21'
p12
(lp13
I42678873
aI42679124
aS'-'
asS'AC078886.1'
p14
(lp15
I80860955
aI80861508
aS'-'
asS'RITA1'
p16
(lp17
I113185526
aI113192368
aS'+'
asS'SPX'
p18
(lp19
I21527952
aI21537377
aS'+'
asS'ZNF970P'
p20
(lp21
I37575587
aI37576384
aS'+'
asS'GPR182'
p22
(lp23
I56994446
aI56998441
aS'+'
asS'ZC3H10'
p24
(lp25
I56118159
aI56127514
aS'+'
asS'NACAP3'
p26
(lp27
I93124063
aI93124543
aS'-'
asS'KDM2B'
p28
(lp29
I121429099
aI121581015
aS'-'
asS'PPHLN1'
p30
(lp31
I42238447
aI42441947
aS'+'
asS'C2CD5'
p32
(lp33
I22448583
aI22544546
aS'-'
asS'SP1'
p34
(lp35
I53380639
aI53416446
aS'+'
asS'SP7'
p36
(lp37
I53328581
aI53345315
aS'-'
asS'SPPL3'
p38
(lp39
I120762510
aI120904371
aS'-'
asS'AC092821.2'
p40
(lp41
I9506347
aI9508440
aS'-'
asS'AC007215.1'
p42
(lp43
I12840804
aI12841079
aS'-'
asS'CEP83'
p44
(lp45
I94307696
aI94459952
aS'-'
asS'CLEC2A'
p46
(lp47
I9898673
aI9932347
aS'-'
asS'CLEC2B'
p48
(lp49
I9852984
aI9870136
aS'-'
asS'CLEC2D'
p50
(lp51
I9669713
aI9699555
aS'+'
asS'PRPH'
p52
(lp53
I49293702
aI49298686
aS'+'
asS'PARP11'
p54
(lp55
I3791047
aI3873436
aS'-'
asS'MYRFL'
p56
(lp57
I69825316
aI69959097
aS'+'
asS'CYCSP30'
p58
(lp59
I87750142
aI87750313
aS'+'
asS'AC107016.2'
p60
(lp61
I52782650
aI52782839
aS'+'
asS'ATP2A2'
p62
(lp63
I110281116
aI110351090
aS'+'
asS'NOP2'
p64
(lp65
I6556871
aI6568691
aS'-'
asS'ITGA5'
p66
(lp67
I54395261
aI54419460
aS'-'
asS'ITGA7'
p68
(lp69
I55684572
aI55712411
aS'-'
asS'MGST1'
p70
(lp71
I16347652
aI16609259
aS'+'
asS'IQSEC3'
p72
(lp73
I66765
aI178460
aS'+'
asS'PHLDA1'
p74
(lp75
I76025447
aI76033932
aS'-'
asS'AC084879.1'
p76
(lp77
I95337181
aI95442482
aS'-'
asS'TMEM263'
p78
(lp79
I106955719
aI106974036
aS'+'
asS'WSB2'
p80
(lp81
I118032694
aI118061211
aS'-'
asS'KSR2'
p82
(lp83
I117453054
aI117968983
aS'-'
asS'DNAH10OS'
p84
(lp85
I123926424
aI123934984
aS'-'
asS'XPOT'
p86
(lp87
I64404350
aI64451127
aS'+'
asS'PABPC1P4'
p88
(lp89
I63822021
aI63823895
aS'+'
asS'OR6C71P'
p90
(lp91
I55376824
aI55377736
aS'-'
asS'CHCHD3P2'
p92
(lp93
I72610678
aI72611316
aS'+'
asS'PYM1'
p94
(lp95
I55902041
aI55932618
aS'-'
asS'ANAPC5'
p96
(lp97
I121345999
aI121399896
aS'-'
asS'ANAPC7'
p98
(lp99
I110372900
aI110403730
aS'-'
asS'RPS4XP1'
p100
(lp101
I100009052
aI100009838
aS'-'
asS'AC003686.1'
p102
(lp103
I47484689
aI47485722
aS'+'
asS'KCNH3'
p104
(lp105
I49539157
aI49558308
aS'+'
asS'PPTC7'
p106
(lp107
I110533245
aI110583320
aS'-'
asS'AC089987.1'
p108
(lp109
I48559882
aI48562956
aS'+'
asS'GIT2'
p110
(lp111
I109929802
aI109996389
aS'-'
asS'TMEM198B'
p112
(lp113
I55829608
aI55836244
aS'+'
asS'GALNT8'
p114
(lp115
I4763344
aI4851003
aS'+'
asS'AC083806.1'
p116
(lp117
I116908312
aI116908627
aS'+'
asS'FOXM1'
p118
(lp119
I2857681
aI2877155
aS'-'
asS'HAUS8P1'
p120
(lp121
I114097682
aI114098223
aS'+'
asS'ARF3'
p122
(lp123
I48935723
aI48957551
aS'-'
asS'ESPL1'
p124
(lp125
I53268299
aI53293643
aS'+'
asS'HTR7P1'
p126
(lp127
I13000420
aI13004830
aS'+'
asS'AC008121.1'
p128
(lp129
I50949117
aI50949384
aS'-'
asS'ART4'
p130
(lp131
I14825569
aI14843495
aS'-'
asS'GLTP'
p132
(lp133
I109850943
aI109880488
aS'-'
asS'SH2B3'
p134
(lp135
I111405948
aI111451623
aS'+'
asS'MTND1P24'
p136
(lp137
I41699391
aI41700251
aS'-'
asS'SLCO1B1'
p138
(lp139
I21131202
aI21239246
aS'+'
asS'ABCD2'
p140
(lp141
I39550033
aI39619751
aS'-'
asS'AC026111.1'
p142
(lp143
I92858079
aI92859273
aS'+'
asS'METTL25'
p144
(lp145
I82358497
aI82479236
aS'+'
asS'MYL6B'
p146
(lp147
I56152256
aI56157982
aS'+'
asS'AC007671.2'
p148
(lp149
I22116629
aI22134851
aS'-'
asS'BIN2'
p150
(lp151
I51281282
aI51324668
aS'-'
asS'RHEBL1'
p152
(lp153
I49064685
aI49070025
aS'-'
asS'IFT81'
p154
(lp155
I110124335
aI110218775
aS'+'
asS'EEA1'
p156
(lp157
I92770637
aI92929331
aS'-'
asS'RDH5'
p158
(lp159
I55720398
aI55724705
aS'+'
asS'RPL17P37'
p160
(lp161
I118737964
aI118738511
aS'-'
asS'CDCA3'
p162
(lp163
I6844793
aI6851269
aS'-'
asS'CLIP1'
p164
(lp165
I122271432
aI122422588
aS'-'
asS'ETNK1'
p166
(lp167
I22625075
aI22690665
aS'+'
asS'AC026336.1'
p168
(lp169
I130216807
aI130217157
aS'-'
asS'AC069503.2'
p170
(lp171
I121888809
aI121921470
aS'+'
asS'H1FNT'
p172
(lp173
I48328980
aI48330279
aS'+'
asS'AC007619.2'
p174
(lp175
I12452103
aI12452481
aS'-'
asS'HTR1DP1'
p176
(lp177
I1151810
aI1153059
aS'-'
asS'ATP6V0A2'
p178
(lp179
I123712318
aI123761755
aS'+'
asS'AC008147.3'
p180
(lp181
I50217662
aI50218343
aS'-'
asS'AC008147.4'
p182
(lp183
I50286244
aI50289231
aS'+'
asS'RPL7AP9'
p184
(lp185
I76599671
aI76600470
aS'+'
asS'RAB21'
p186
(lp187
I71754874
aI71800285
aS'+'
asS'THAP2'
p188
(lp189
I71663009
aI71680639
aS'+'
asS'AC092821.1'
p190
(lp191
I9467552
aI9574972
aS'+'
asS'AC002996.1'
p192
(lp193
I111753890
aI111791418
aS'+'
asS'AC009804.1'
p194
(lp195
I114929757
aI114929935
aS'-'
asS'FAR2'
p196
(lp197
I29149200
aI29335616
aS'+'
asS'AC073612.1'
p198
(lp199
I71674204
aI71698968
aS'+'
asS'AC090424.1'
p200
(lp201
I128437778
aI128439206
aS'-'
asS'AAAS'
p202
(lp203
I53307460
aI53324758
aS'-'
asS'AMHR2'
p204
(lp205
I53423855
aI53431534
aS'+'
asS'KRT76'
p206
(lp207
I52768155
aI52777345
aS'-'
asS'HDAC7'
p208
(lp209
I47782722
aI47819866
aS'-'
asS'HSPE1P4'
p210
(lp211
I101873316
aI101873623
aS'-'
asS'ASB8'
p212
(lp213
I48149851
aI48181213
aS'-'
asS'AC025252.2'
p214
(lp215
I127624153
aI127626267
aS'+'
asS'CLEC1A'
p216
(lp217
I10069554
aI10098985
aS'-'
asS'CLEC1B'
p218
(lp219
I9990950
aI10013424
aS'-'
asS'PIP4K2C'
p220
(lp221
I57591203
aI57603418
aS'+'
asS'SCYL2'
p222
(lp223
I100267384
aI100341724
aS'+'
asS'CHFR'
p224
(lp225
I132869724
aI132956304
aS'-'
asS'RFX4'
p226
(lp227
I106582907
aI106762802
aS'+'
asS'CSAD'
p228
(lp229
I53157663
aI53180596
aS'-'
asS'ELK3'
p230
(lp231
I96194382
aI96269835
aS'+'
asS'LRRC34P1'
p232
(lp233
I22573425
aI22575105
aS'+'
asS'HSPE1P20'
p234
(lp235
I126912034
aI126912322
aS'+'
asS'AC079602.1'
p236
(lp237
I121107220
aI121107490
aS'+'
asS'AC079602.2'
p238
(lp239
I121079842
aI121080124
aS'+'
asS'AC079602.4'
p240
(lp241
I121053732
aI121059670
aS'-'
asS'OVCH1'
p242
(lp243
I29427571
aI29497686
aS'-'
asS'GTSF1'
p244
(lp245
I54455957
aI54473599
aS'-'
asS'AC025263.2'
p246
(lp247
I69801669
aI69855363
aS'+'
asS'AC079600.2'
p248
(lp249
I42627008
aI42627137
aS'-'
asS'AC079600.1'
p250
(lp251
I42636815
aI42637111
aS'-'
asS'ZNF605'
p252
(lp253
I132918308
aI132956306
aS'-'
asS'AC145423.1'
p254
(lp255
I123441517
aI123441852
aS'-'
asS'TNS2'
p256
(lp257
I53046969
aI53064369
aS'+'
asS'AC087311.1'
p258
(lp259
I32985838
aI32987070
aS'+'
asS'IGF1'
p260
(lp261
I102395874
aI102480645
aS'-'
asS'ARID2'
p262
(lp263
I45729665
aI45908040
aS'+'
asS'AC090680.1'
p264
(lp265
I83151331
aI83152190
aS'+'
asS'NUDT4'
p266
(lp267
I93377883
aI93408146
aS'+'
asS'CENPUP2'
p268
(lp269
I25092715
aI25093900
aS'-'
asS'IGFBP6'
p270
(lp271
I53097436
aI53102345
aS'+'
asS'AC020629.1'
p272
(lp273
I42286911
aI42288560
aS'+'
asS'RPL29P25'
p274
(lp275
I110841538
aI110842387
aS'-'
asS'COX14'
p276
(lp277
I50111979
aI50120451
aS'+'
asS'NXPH4'
p278
(lp279
I57216795
aI57226449
aS'+'
asS'AC089984.3'
p280
(lp281
I71835034
aI71835396
aS'-'
asS'EIF4A1P4'
p282
(lp283
I53153272
aI53154484
aS'+'
asS'ANKRD13A'
p284
(lp285
I109999523
aI110039763
aS'+'
asS'RPLP0'
p286
(lp287
I120196686
aI120201211
aS'-'
asS'EIF2B1'
p288
(lp289
I123620406
aI123633766
aS'-'
asS'RACGAP1P'
p290
(lp291
I45063473
aI45065351
aS'-'
asS'AC092471.2'
p292
(lp293
I2726400
aI2727050
aS'-'
asS'AC092471.1'
p294
(lp295
I2761200
aI2775658
aS'-'
asS'MLF2'
p296
(lp297
I6748795
aI6767475
aS'-'
asS'AC107016.1'
p298
(lp299
I52837403
aI52837739
aS'+'
asS'TPT1P12'
p300
(lp301
I9155881
aI9156372
aS'-'
asS'FBXW8'
p302
(lp303
I116910965
aI117031148
aS'+'
asS'OSBPL9P4'
p304
(lp305
I66563967
aI66569194
aS'-'
asS'AC004486.1'
p306
(lp307
I47593208
aI47593440
aS'+'
asS'LETMD1'
p308
(lp309
I51048301
aI51060409
aS'+'
asS'NUP107'
p310
(lp311
I68686734
aI68745809
aS'+'
asS'AC123567.1'
p312
(lp313
I94140077
aI94141337
aS'+'
asS'SLCO1A2'
p314
(lp315
I21264600
aI21395437
aS'-'
asS'AC127070.4'
p316
(lp317
I132899984
aI132900368
aS'+'
asS'AC127070.1'
p318
(lp319
I132825701
aI132826184
aS'+'
asS'AC087241.2'
p320
(lp321
I22596228
aI22596551
aS'+'
asS'TMEM52B'
p322
(lp323
I10170542
aI10191785
aS'+'
asS'RPS4XP14'
p324
(lp325
I1757231
aI1758011
aS'-'
asS'NFYB'
p326
(lp327
I104117077
aI104138289
aS'-'
asS'AC126177.3'
p328
(lp329
I107887730
aI107889886
aS'+'
asS'AC126177.5'
p330
(lp331
I107899638
aI107899815
aS'+'
asS'AC126177.6'
p332
(lp333
I107880581
aI107883386
aS'+'
asS'AC126177.7'
p334
(lp335
I107903270
aI107903948
aS'-'
asS'FAM90A1'
p336
(lp337
I8221263
aI8227618
aS'-'
asS'APOF'
p338
(lp339
I56360569
aI56362823
aS'-'
asS'NEMP1'
p340
(lp341
I57055648
aI57078769
aS'-'
asS'RPS26P45'
p342
(lp343
I69422656
aI69422995
aS'+'
asS'AC073594.1'
p344
(lp345
I53632788
aI53633151
aS'-'
asS'NINJ2'
p346
(lp347
I564296
aI663779
aS'-'
asS'SLC16A7'
p348
(lp349
I59596067
aI59780213
aS'+'
asS'AC079905.1'
p350
(lp351
I59812102
aI59812576
aS'+'
asS'AC079905.2'
p352
(lp353
I59719698
aI59719944
aS'-'
asS'AC011595.2'
p354
(lp355
I106015897
aI106017006
aS'+'
asS'CMKLR1'
p356
(lp357
I108288044
aI108339317
aS'-'
asS'AC138466.2'
p358
(lp359
I132126461
aI132126764
aS'-'
asS'DYNLL1'
p360
(lp361
I120469850
aI120498493
aS'+'
asS'AC006065.1'
p362
(lp363
I126510910
aI126511711
aS'-'
asS'RAD9B'
p364
(lp365
I110502200
aI110532084
aS'+'
asS'KMT5A'
p366
(lp367
I123383773
aI123409358
aS'+'
asS'ERGIC2'
p368
(lp369
I29337352
aI29381153
aS'-'
asS'POLR3B'
p370
(lp371
I106357658
aI106510198
aS'+'
asS'AC027667.1'
p372
(lp373
I63651627
aI63651930
aS'+'
asS'PAH'
p374
(lp375
I102877495
aI102958366
aS'-'
asS'AC124947.2'
p376
(lp377
I93314809
aI93315941
aS'+'
asS'KRT18P60'
p378
(lp379
I65418731
aI65420027
aS'-'
asS'DCN'
p380
(lp381
I91140484
aI91183123
aS'-'
asS'AC125612.1'
p382
(lp383
I96386818
aI96387194
aS'-'
asS'DCD'
p384
(lp385
I54644591
aI54648493
aS'-'
asS'CACNA1C'
p386
(lp387
I2053298
aI2697950
aS'+'
asS'ACSM4'
p388
(lp389
I7304284
aI7328724
aS'+'
asS'ZKSCAN7P1'
p390
(lp391
I18493051
aI18493723
aS'+'
asS'AC089998.3'
p392
(lp393
I82468456
aI82468948
aS'+'
asS'WDR66'
p394
(lp395
I121917862
aI122003927
aS'+'
asS'CYP27B1'
p396
(lp397
I57762339
aI57767251
aS'-'
asS'PRMT8'
p398
(lp399
I3381349
aI3593182
aS'+'
asS'SLC25A3'
p400
(lp401
I98593591
aI98606379
aS'+'
asS'R3HDM2'
p402
(lp403
I57253764
aI57431005
aS'-'
asS'AC078875.1'
p404
(lp405
I120914400
aI120915123
aS'+'
asS'SLC15A4'
p406
(lp407
I128793191
aI128823983
aS'-'
asS'SLC15A5'
p408
(lp409
I16188485
aI16277685
aS'-'
asS'ORMDL2'
p410
(lp411
I55817919
aI55821879
aS'+'
asS'KIF5A'
p412
(lp413
I57549998
aI57586632
aS'+'
asS'PTPN11'
p414
(lp415
I112418914
aI112509913
aS'+'
asS'GLT1D1'
p416
(lp417
I128853427
aI128984956
aS'+'
asS'AC078814.1'
p418
(lp419
I62965325
aI62965969
aS'+'
asS'AC078814.3'
p420
(lp421
I63055275
aI63055765
aS'-'
asS'AC078814.4'
p422
(lp423
I63002469
aI63002795
aS'+'
asS'DNAJC22'
p424
(lp425
I49346917
aI49353684
aS'+'
asS'REP15'
p426
(lp427
I27696519
aI27697596
aS'+'
asS'ARHGAP9'
p428
(lp429
I57472264
aI57488814
aS'-'
asS'OR9K2'
p430
(lp431
I55129681
aI55130802
aS'+'
asS'AC024940.4'
p432
(lp433
I31244440
aI31244685
aS'+'
asS'AC024940.3'
p434
(lp435
I31311617
aI31312029
aS'+'
asS'AC024940.2'
p436
(lp437
I31251992
aI31252597
aS'-'
asS'AC024940.1'
p438
(lp439
I31111657
aI31206154
aS'-'
asS'USP44'
p440
(lp441
I95516560
aI95551490
aS'-'
asS'SRSF9'
p442
(lp443
I120461668
aI120469793
aS'-'
asS'PPM1H'
p444
(lp445
I62643982
aI62935037
aS'-'
asS'AC087888.1'
p446
(lp447
I84448625
aI84449878
aS'-'
asS'HNRNPA1P34'
p448
(lp449
I9027532
aI9029089
aS'-'
asS'NFE2'
p450
(lp451
I54292111
aI54301121
aS'-'
asS'AC009248.1'
p452
(lp453
I45200817
aI45201551
aS'+'
asS'AC093023.1'
p454
(lp455
I102230027
aI102230533
aS'-'
asS'EGLN3P1'
p456
(lp457
I15971890
aI15972609
aS'-'
asS'HSPE1P12'
p458
(lp459
I10770305
aI10770605
aS'+'
asS'PRKAB1'
p460
(lp461
I119667753
aI119681630
aS'+'
asS'IAPP'
p462
(lp463
I21354959
aI21378495
aS'+'
asS'AC026371.1'
p464
(lp465
I30454919
aI30492302
aS'+'
asS'PTPN6'
p466
(lp467
I6946577
aI6961316
aS'+'
asS'AC005868.1'
p468
(lp469
I126458462
aI126458792
aS'-'
asS'AC026120.2'
p470
(lp471
I56941174
aI56941482
aS'-'
asS'AC026120.1'
p472
(lp473
I56981211
aI56985960
aS'-'
asS'SMIM10L1'
p474
(lp475
I11171222
aI11176016
aS'+'
asS'CAMKK2'
p476
(lp477
I121237697
aI121298308
aS'-'
asS'AC018448.1'
p478
(lp479
I39058028
aI39059933
aS'-'
asS'MYO1H'
p480
(lp481
I109347903
aI109448371
aS'+'
asS'MYO1A'
p482
(lp483
I57028517
aI57050765
aS'-'
asS'ALG10B'
p484
(lp485
I38316578
aI38329728
aS'+'
asS'AC007207.1'
p486
(lp487
I4110028
aI4118132
aS'-'
asS'ZNF385A'
p488
(lp489
I54369140
aI54391298
aS'-'
asS'SLC6A13'
p490
(lp491
I220621
aI262873
aS'-'
asS'SLC6A12'
p492
(lp493
I190077
aI213697
aS'-'
asS'AC140847.3'
p494
(lp495
I34162477
aI34163442
aS'+'
asS'SLC6A15'
p496
(lp497
I84859488
aI84912876
aS'-'
asS'STX8P1'
p498
(lp499
I12771351
aI12771705
aS'-'
asS'CS'
p500
(lp501
I56271701
aI56300392
aS'-'
asS'RPL12P32'
p502
(lp503
I31948334
aI31948827
aS'+'
asS'RPL12P33'
p504
(lp505
I120916745
aI120917236
aS'+'
asS'TRAFD1'
p506
(lp507
I112125501
aI112153609
aS'+'
asS'KCNJ8'
p508
(lp509
I21764955
aI21774821
aS'-'
asS'TDG'
p510
(lp511
I103965804
aI103988874
aS'+'
asS'AC005832.2'
p512
(lp513
I4601991
aI4603420
aS'-'
asS'AC005832.3'
p514
(lp515
I4635349
aI4636140
aS'-'
asS'AC005832.4'
p516
(lp517
I4604944
aI4662643
aS'+'
asS'RILPL1'
p518
(lp519
I123470054
aI123533718
aS'-'
asS'AC090502.4'
p520
(lp521
I74170445
aI74171830
aS'+'
asS'RILPL2'
p522
(lp523
I123410683
aI123436717
aS'-'
asS'AC090502.2'
p524
(lp525
I74274952
aI74275231
aS'+'
asS'AC125807.1'
p526
(lp527
I3071532
aI3072145
aS'-'
asS'TMPO'
p528
(lp529
I98515512
aI98550379
aS'+'
asS'ATG101'
p530
(lp531
I52069971
aI52077494
aS'+'
asS'AC122688.1'
p532
(lp533
I125056359
aI125056581
aS'-'
asS'SLCO1B3'
p534
(lp535
I20810726
aI20916724
aS'+'
asS'LACRT'
p536
(lp537
I54630812
aI54634895
aS'-'
asS'LRRC23'
p538
(lp539
I6873569
aI6907733
aS'+'
asS'SLCO1B7'
p540
(lp541
I21015696
aI21090106
aS'+'
asS'NF1P12'
p542
(lp543
I38206231
aI38207192
aS'-'
asS'PRICKLE1'
p544
(lp545
I42456757
aI42589770
aS'-'
asS'HIST4H4'
p546
(lp547
I14767999
aI14771131
aS'-'
asS'TRHDE'
p548
(lp549
I72272683
aI72670757
aS'+'
asS'KRT87P'
p550
(lp551
I52250544
aI52258867
aS'-'
asS'CALCOCO1'
p552
(lp553
I53708517
aI53727745
aS'-'
asS'TAC3'
p554
(lp555
I57012378
aI57028883
aS'-'
asS'SLC48A1'
p556
(lp557
I47753916
aI47779171
aS'+'
asS'NIFKP3'
p558
(lp559
I7604350
aI7605214
aS'-'
asS'LPCAT3'
p560
(lp561
I6976186
aI7018510
aS'-'
asS'AC005885.1'
p562
(lp563
I126191263
aI126361064
aS'+'
asS'UTP20'
p564
(lp565
I101280109
aI101386616
aS'+'
asS'AC226150.1'
p566
(lp567
I133217210
aI133217675
aS'-'
asS'HPD'
p568
(lp569
I121839530
aI121863596
aS'-'
asS'ANKLE2'
p570
(lp571
I132725503
aI132761888
aS'-'
asS'PPP1CC'
p572
(lp573
I110719680
aI110742898
aS'-'
asS'OLR1'
p574
(lp575
I10158301
aI10172138
aS'-'
asS'KRT8P19'
p576
(lp577
I61879318
aI61880772
aS'+'
asS'SRRM4'
p578
(lp579
I118981495
aI119163051
aS'+'
asS'AC135001.1'
p580
(lp581
I14192002
aI14192284
aS'+'
asS'RDH16'
p582
(lp583
I56951438
aI56959374
aS'-'
asS'VEZT'
p584
(lp585
I95217746
aI95302790
aS'+'
asS'PDCL3P7'
p586
(lp587
I66275940
aI66276651
aS'-'
asS'FAM71C'
p588
(lp589
I99647753
aI99650046
aS'+'
asS'CREBL2'
p590
(lp591
I12611892
aI12645108
aS'+'
asS'MEF2BNBP1'
p592
(lp593
I19107854
aI19108183
aS'-'
asS'CDK2AP1'
p594
(lp595
I123260981
aI123272140
aS'-'
asS'VSIG10'
p596
(lp597
I118063593
aI118103948
aS'-'
asS'ENPP7P5'
p598
(lp599
I8254527
aI8308855
aS'-'
asS'SNRNP35'
p600
(lp601
I123458119
aI123473154
aS'+'
asS'AC009779.1'
p602
(lp603
I55732366
aI55732648
aS'-'
asS'DDIT3'
p604
(lp605
I57516589
aI57520517
aS'-'
asS'AC009779.4'
p606
(lp607
I55654558
aI55655168
aS'-'
asS'AC009779.6'
p608
(lp609
I55662337
aI55662501
aS'-'
asS'AC009779.7'
p610
(lp611
I55646195
aI55646663
aS'-'
asS'AC009779.8'
p612
(lp613
I55611623
aI55612554
aS'+'
asS'CD27'
p614
(lp615
I6444867
aI6451718
aS'+'
asS'AC063924.1'
p616
(lp617
I45444766
aI45445438
aS'+'
asS'RBP5'
p618
(lp619
I7123684
aI7128942
aS'-'
asS'PA2G4'
p620
(lp621
I56104319
aI56113861
aS'+'
asS'KRAS'
p622
(lp623
I25204789
aI25250931
aS'-'
asS'TWF1'
p624
(lp625
I43793723
aI43806375
aS'-'
asS'ATP5J2P5'
p626
(lp627
I6270168
aI6270425
aS'-'
asS'GRIN2B'
p628
(lp629
I13537337
aI13980363
aS'-'
asS'SOCS2'
p630
(lp631
I93575058
aI93583487
aS'+'
asS'GNAI2P1'
p632
(lp633
I14254912
aI14255226
aS'+'
asS'HOXC9'
p634
(lp635
I53994895
aI54002888
aS'+'
asS'RASSF8'
p636
(lp637
I25959029
aI26079892
aS'+'
asS'ADI1P3'
p638
(lp639
I47463087
aI47463621
aS'+'
asS'RASSF3'
p640
(lp641
I64507001
aI64694912
aS'+'
asS'TMEM120B'
p642
(lp643
I121712795
aI121782062
aS'+'
asS'HOXC4'
p644
(lp645
I54016931
aI54055327
aS'+'
asS'HOXC6'
p646
(lp647
I53990624
aI54028922
aS'+'
asS'AC006517.1'
p648
(lp649
I7860437
aI7860764
aS'+'
asS'SPSB2'
p650
(lp651
I6875764
aI6889358
aS'-'
asS'PRELID2P1'
p652
(lp653
I68957377
aI68957677
aS'-'
asS'AC063950.1'
p654
(lp655
I101773188
aI101773755
aS'-'
asS'AC006511.1'
p656
(lp657
I7994770
aI7995084
aS'-'
asS'AC006511.2'
p658
(lp659
I8017201
aI8017860
aS'-'
asS'CHD4'
p660
(lp661
I6570083
aI6607424
aS'-'
asS'LRRK2'
p662
(lp663
I40225074
aI40369281
aS'+'
asS'GPRC5A'
p664
(lp665
I12890782
aI12917937
aS'+'
asS'AC087894.1'
p666
(lp667
I127876999
aI127877516
aS'-'
asS'AC010182.1'
p668
(lp669
I106170004
aI106172437
aS'+'
asS'TROAP'
p670
(lp671
I49323279
aI49331731
aS'+'
asS'ARPC3'
p672
(lp673
I110434825
aI110450407
aS'-'
asS'RNF41'
p674
(lp675
I56202175
aI56221921
aS'-'
asS'TMPRSS12'
p676
(lp677
I50842920
aI50887884
aS'+'
asS'AC092862.1'
p678
(lp679
I22008348
aI22008880
aS'+'
asS'Z98941.1'
p680
(lp681
I121149010
aI121149109
aS'+'
asS'ITPR2'
p682
(lp683
I26336515
aI26833198
aS'-'
asS'RHOF'
p684
(lp685
I121780952
aI121802928
aS'-'
asS'LRIG3'
p686
(lp687
I58872149
aI58920522
aS'-'
asS'KLHL42'
p688
(lp689
I27780020
aI27803040
aS'+'
asS'DENND5B'
p690
(lp691
I31382223
aI31591097
aS'-'
asS'ELOCP31'
p692
(lp693
I21447545
aI21448314
aS'-'
asS'ELOCP32'
p694
(lp695
I117245551
aI117246164
aS'-'
asS'RASSF9'
p696
(lp697
I85800697
aI85836570
aS'-'
asS'AC023512.1'
p698
(lp699
I16989126
aI16989936
aS'+'
asS'HOXC8'
p700
(lp701
I54009106
aI54012362
aS'+'
asS'AC137768.1'
p702
(lp703
I85781892
aI85782444
aS'-'
asS'PHBP19'
p704
(lp705
I51124628
aI51125381
aS'-'
asS'PHBP18'
p706
(lp707
I48168847
aI48169659
aS'-'
asS'GRASP'
p708
(lp709
I52006940
aI52015864
aS'+'
asS'AC087884.1'
p710
(lp711
I51106817
aI51107144
aS'+'
asS'NCOR2'
p712
(lp713
I124346593
aI124567464
aS'-'
asS'AC125611.1'
p714
(lp715
I49442424
aI49442652
aS'-'
asS'BTG1'
p716
(lp717
I92140278
aI92145897
aS'-'
asS'OGFOD2'
p718
(lp719
I122974580
aI122980042
aS'+'
asS'CACNB3'
p720
(lp721
I48814893
aI48828941
aS'+'
asS'AC091516.1'
p722
(lp723
I88057876
aI88058578
aS'-'
asS'RPL6'
p724
(lp725
I112406866
aI112418838
aS'-'
asS'AC087258.2'
p726
(lp727
I23108458
aI23108493
aS'-'
asS'AC140063.1'
p728
(lp729
I131596857
aI131597115
aS'-'
asS'GPN3'
p730
(lp731
I110452487
aI110468721
aS'-'
asS'HIGD1AP8'
p732
(lp733
I11481383
aI11481656
aS'+'
asS'HIGD1AP9'
p734
(lp735
I49619334
aI49619612
aS'+'
asS'APAF1'
p736
(lp737
I98645300
aI98735433
aS'+'
asS'LDHAL6CP'
p738
(lp739
I63003679
aI63006902
aS'+'
asS'HOXC5'
p740
(lp741
I54032853
aI54035358
aS'+'
asS'AC010200.2'
p742
(lp743
I100525186
aI100525420
aS'-'
asS'AC010200.1'
p744
(lp745
I100578744
aI100580197
aS'+'
asS'AC007552.1'
p746
(lp747
I16513445
aI16514371
aS'+'
asS'AC131206.1'
p748
(lp749
I7438780
aI7439990
aS'-'
asS'MLXIP'
p750
(lp751
I122078722
aI122147347
aS'+'
asS'PDZRN4'
p752
(lp753
I41188448
aI41574118
aS'+'
asS'NDFIP1P1'
p754
(lp755
I18358443
aI18358967
aS'-'
asS'ITFG2'
p756
(lp757
I2836811
aI2859791
aS'+'
asS'PTP4A1P2'
p758
(lp759
I133033503
aI133033956
aS'+'
asS'DDX12P'
p760
(lp761
I9418673
aI9448229
aS'-'
asS'TMEM233'
p762
(lp763
I119593459
aI119643066
aS'+'
asS'LMBR1L'
p764
(lp765
I49096551
aI49110898
aS'-'
asS'P2RX2'
p766
(lp767
I132618780
aI132622386
aS'+'
asS'P2RX4'
p768
(lp769
I121209857
aI121234106
aS'+'
asS'P2RX7'
p770
(lp771
I121132828
aI121188032
aS'+'
asS'BCL2L14'
p772
(lp773
I12079299
aI12211084
aS'+'
asS'SETP7'
p774
(lp775
I107271394
aI107271846
aS'+'
asS'CRY1'
p776
(lp777
I106991364
aI107093829
aS'-'
asS'HIGD1C'
p778
(lp779
I50953922
aI50970506
aS'+'
asS'AC023794.3'
p780
(lp781
I54076838
aI54081903
aS'-'
asS'AC010202.1'
p782
(lp783
I102513251
aI102513655
aS'-'
asS'SCAF11'
p784
(lp785
I45919131
aI45990565
aS'-'
asS'OTOGL'
p786
(lp787
I80209453
aI80379090
aS'+'
asS'FOXN4'
p788
(lp789
I109277979
aI109309220
aS'-'
asS'SLCO1C1'
p790
(lp791
I20695465
aI20753386
aS'+'
asS'DBX2'
p792
(lp793
I45014672
aI45051099
aS'-'
asS'AC005841.2'
p794
(lp795
I2849039
aI2857083
aS'-'
asS'TARBP2'
p796
(lp797
I53500921
aI53506431
aS'+'
asS'EMG1'
p798
(lp799
I6970921
aI6997428
aS'+'
asS'FAM213AP1'
p800
(lp801
I78130337
aI78131004
aS'-'
asS'ATF7'
p802
(lp803
I53507856
aI53626370
aS'-'
asS'AC009779.3'
p804
(lp805
I55716036
aI55724703
aS'+'
asS'IFFO1'
p806
(lp807
I6539529
aI6556083
aS'-'
asS'YPEL5P3'
p808
(lp809
I96060024
aI96060375
aS'-'
asS'CMAS'
p810
(lp811
I22046174
aI22065663
aS'+'
asS'LHX5'
p812
(lp813
I113462034
aI113472072
aS'-'
asS'BLOC1S1'
p814
(lp815
I55716038
aI55720087
aS'+'
asS'HNRNPA3P10'
p816
(lp817
I51712469
aI51713606
aS'-'
asS'FKBP11'
p818
(lp819
I48921518
aI48926474
aS'-'
asS'TAS2R15P'
p820
(lp821
I10964425
aI10965352
aS'-'
asS'RPL13AP23'
p822
(lp823
I57674665
aI57675250
aS'+'
asS'RPL13AP20'
p824
(lp825
I12875499
aI12876107
aS'+'
asS'RPL39P28'
p826
(lp827
I68001394
aI68001548
aS'-'
asS'SLC38A4'
p828
(lp829
I46764761
aI46825997
aS'-'
asS'SLC38A1'
p830
(lp831
I46183063
aI46269012
aS'-'
asS'TAS2R19'
p832
(lp833
I11021619
aI11022620
aS'-'
asS'SLC38A2'
p834
(lp835
I46358189
aI46372867
aS'-'
asS'TAS2R14'
p836
(lp837
I10937408
aI11171573
aS'-'
asS'TAS2R10'
p838
(lp839
I10825317
aI10826358
aS'-'
asS'BCAT1'
p840
(lp841
I24810022
aI24949459
aS'-'
asS'TAS2R13'
p842
(lp843
I10907926
aI10909562
aS'-'
asS'OSBPL8'
p844
(lp845
I76351800
aI76559809
aS'-'
asS'LMNTD1'
p846
(lp847
I25497513
aI25648554
aS'-'
asS'AC025030.1'
p848
(lp849
I44248432
aI44249004
aS'-'
asS'AKAP3'
p850
(lp851
I4615508
aI4649047
aS'-'
asS'YBX3'
p852
(lp853
I10699089
aI10723307
aS'-'
asS'ANO4'
p854
(lp855
I100794807
aI101128641
aS'+'
asS'NUAK1'
p856
(lp857
I106063340
aI106140033
aS'-'
asS'ANO6'
p858
(lp859
I45216020
aI45440404
aS'+'
asS'HSP90B1'
p860
(lp861
I103930334
aI103947926
aS'+'
asS'KRT17P8'
p862
(lp863
I9127783
aI9128645
aS'+'
asS'KRR1'
p864
(lp865
I75490861
aI75511621
aS'-'
asS'TMEM132D'
p866
(lp867
I129071726
aI129903666
aS'-'
asS'FZD10'
p868
(lp869
I130162459
aI130165740
aS'+'
asS'TMEM132C'
p870
(lp871
I128267403
aI128707915
aS'+'
asS'TMEM132B'
p872
(lp873
I125326616
aI125662371
aS'+'
asS'AC073916.1'
p874
(lp875
I124383381
aI124383510
aS'+'
asS'BCDIN3D'
p876
(lp877
I49836039
aI49843129
aS'-'
asS'H3F3C'
p878
(lp879
I31791185
aI31792241
aS'-'
asS'NR1H4'
p880
(lp881
I100473708
aI100564413
aS'+'
asS'AC093719.1'
p882
(lp883
I124935455
aI124935895
aS'-'
asS'GUCY2C'
p884
(lp885
I14612632
aI14696585
aS'-'
asS'SENP1'
p886
(lp887
I48042898
aI48105834
aS'-'
asS'RPL18AP3'
p888
(lp889
I104265309
aI104265836
aS'+'
asS'CUX2'
p890
(lp891
I111034024
aI111350554
aS'+'
asS'CERS5'
p892
(lp893
I50129306
aI50167533
aS'-'
asS'ING4'
p894
(lp895
I6650280
aI6663148
aS'-'
asS'POC1B'
p896
(lp897
I89419718
aI89526024
aS'-'
asS'MAGOHB'
p898
(lp899
I10604190
aI10613623
aS'-'
asS'SLC2A14'
p900
(lp901
I7814072
aI7891148
aS'-'
asS'SLC2A13'
p902
(lp903
I39755021
aI40105859
aS'-'
asS'RAP1B'
p904
(lp905
I68610839
aI68671901
aS'+'
asS'DYRK2'
p906
(lp907
I67648721
aI67665406
aS'+'
asS'DYRK4'
p908
(lp909
I4562204
aI4613874
aS'+'
asS'ANKRD33'
p910
(lp911
I51887960
aI51891654
aS'+'
asS'AC011602.1'
p912
(lp913
I81998632
aI81998962
aS'+'
asS'AC002350.1'
p914
(lp915
I110460988
aI110461362
aS'+'
asS'TMEM19'
p916
(lp917
I71686087
aI71705046
aS'+'
asS'POU6F1'
p918
(lp919
I51186936
aI51217693
aS'-'
asS'AC092851.1'
p920
(lp921
I18424663
aI18425140
aS'+'
asS'AC069240.2'
p922
(lp923
I114588194
aI114588802
aS'+'
asS'AC069240.1'
p924
(lp925
I114548854
aI114549852
aS'+'
asS'KIF21A'
p926
(lp927
I39293229
aI39443390
aS'-'
asS'AC011604.1'
p928
(lp929
I20845065
aI20845260
aS'+'
asS'AC011604.2'
p930
(lp931
I20815674
aI21090245
aS'+'
asS'GSG1'
p932
(lp933
I13084823
aI13103645
aS'-'
asS'ZNF84'
p934
(lp935
I133037292
aI133063298
aS'+'
asS'AC135279.1'
p936
(lp937
I64442510
aI64443330
aS'-'
asS'OR8S1'
p938
(lp939
I48507354
aI48529897
aS'+'
asS'SLC17A8'
p940
(lp941
I100357079
aI100422059
aS'+'
asS'TPCN1'
p942
(lp943
I113221438
aI113298585
aS'+'
asS'TAS2R8'
p944
(lp945
I10806051
aI10807293
aS'-'
asS'TAS2R9'
p946
(lp947
I10809094
aI10810168
aS'-'
asS'NTAN1P3'
p948
(lp949
I67424272
aI67424986
aS'-'
asS'AC138123.1'
p950
(lp951
I93083598
aI93083675
aS'-'
asS'LMO3'
p952
(lp953
I16550199
aI16610526
aS'-'
asS'AC018475.1'
p954
(lp955
I95467397
aI95467861
aS'-'
asS'OR10P1'
p956
(lp957
I55636860
aI55637854
aS'+'
asS'AC008127.2'
p958
(lp959
I45071769
aI45072843
aS'+'
asS'NCKAP1L'
p960
(lp961
I54497711
aI54548238
aS'+'
asS'MYF5'
p962
(lp963
I80716912
aI80719673
aS'+'
asS'MYF6'
p964
(lp965
I80707498
aI80709474
aS'+'
asS'CCDC77'
p966
(lp967
I389350
aI442638
aS'+'
asS'ERC1'
p968
(lp969
I991208
aI1495933
aS'+'
asS'AC026786.1'
p970
(lp971
I133130984
aI133202369
aS'+'
asS'MCRS1'
p972
(lp973
I49558295
aI49568145
aS'-'
asS'FAM109A'
p974
(lp975
I111360651
aI111369121
aS'-'
asS'EPS8'
p976
(lp977
I15669668
aI15882329
aS'-'
asS'RPL21P99'
p978
(lp979
I29658376
aI29658798
aS'-'
asS'DDX11'
p980
(lp981
I31073860
aI31104791
aS'+'
asS'CDK17'
p982
(lp983
I96278261
aI96400560
aS'-'
asS'UBA52P7'
p984
(lp985
I115592604
aI115592983
aS'-'
asS'AC024224.1'
p986
(lp987
I10040848
aI10045711
aS'+'
asS'AC024884.1'
p988
(lp989
I56413647
aI56414045
aS'-'
asS'TPH2'
p990
(lp991
I72031292
aI72186618
aS'+'
asS'FAM216A'
p992
(lp993
I110468364
aI110490385
aS'+'
asS'AC006199.1'
p994
(lp995
I89027757
aI89028522
aS'+'
asS'RARSP1'
p996
(lp997
I27496937
aI27498589
aS'+'
asS'KLRK1'
p998
(lp999
I10373185
aI10391874
aS'-'
asS'C3AR1'
p1000
(lp1001
I8058302
aI8066471
aS'-'
asS'HVCN1'
p1002
(lp1003
I110627841
aI110689417
aS'-'
asS'NUP37'
p1004
(lp1005
I102073103
aI102120124
aS'-'
asS'RND1'
p1006
(lp1007
I48857145
aI48865898
aS'-'
asS'MAP3K12'
p1008
(lp1009
I53479669
aI53499615
aS'-'
asS'KLRA1P'
p1010
(lp1011
I10588063
aI10599565
aS'-'
asS'AC092745.3'
p1012
(lp1013
I8340182
aI8340397
aS'+'
asS'AC092745.2'
p1014
(lp1015
I8320381
aI8369555
aS'+'
asS'LIN7A'
p1016
(lp1017
I80792520
aI80937925
aS'-'
asS'STYK1'
p1018
(lp1019
I10618939
aI10674292
aS'-'
asS'FAM60A'
p1020
(lp1021
I31280584
aI31326372
aS'-'
asS'LRRC43'
p1022
(lp1023
I122167738
aI122191474
aS'+'
asS'MARCH9'
p1024
(lp1025
I57755098
aI57760407
aS'+'
asS'AC007622.1'
p1026
(lp1027
I107719599
aI107720133
aS'+'
asS'CLSTN3'
p1028
(lp1029
I7130199
aI7158945
aS'+'
asS'B3GNT4'
p1030
(lp1031
I122203681
aI122208945
aS'+'
asS'RARG'
p1032
(lp1033
I53210567
aI53232256
aS'-'
asS'TSFM'
p1034
(lp1035
I57782787
aI57808071
aS'+'
asS'AC073610.2'
p1036
(lp1037
I48921963
aI48939663
aS'-'
asS'AC073610.1'
p1038
(lp1039
I48903418
aI48903813
aS'-'
asS'HMGB1P49'
p1040
(lp1041
I27702338
aI27702906
aS'+'
asS'AC006197.1'
p1042
(lp1043
I41911256
aI41912212
aS'+'
asS'NABP2'
p1044
(lp1045
I56222015
aI56229032
aS'+'
asS'AC022080.1'
p1046
(lp1047
I31465062
aI31465842
aS'+'
asS'AC022080.2'
p1048
(lp1049
I31534715
aI31535247
aS'-'
asS'AC022080.3'
p1050
(lp1051
I31477506
aI31477987
aS'+'
asS'SUCLG2P2'
p1052
(lp1053
I94548241
aI94549536
aS'+'
asS'HRK'
p1054
(lp1055
I116856144
aI116881441
aS'-'
asS'KITLG'
p1056
(lp1057
I88496582
aI88580851
aS'-'
asS'NDUFA4L2'
p1058
(lp1059
I57234905
aI57240692
aS'-'
asS'AC090525.3'
p1060
(lp1061
I43633093
aI43633281
aS'+'
asS'AC090525.2'
p1062
(lp1063
I43569769
aI43572038
aS'-'
asS'AC090525.1'
p1064
(lp1065
I43560784
aI43561297
aS'-'
asS'AC007537.2'
p1066
(lp1067
I12155262
aI12155772
aS'+'
asS'AC007537.1'
p1068
(lp1069
I12111163
aI12111489
aS'+'
asS'PTGES3'
p1070
(lp1071
I56663343
aI56688408
aS'-'
asS'SYT1'
p1072
(lp1073
I78864669
aI79452006
aS'+'
asS'SLC2A3'
p1074
(lp1075
I7919230
aI7936275
aS'-'
asS'PCED1B'
p1076
(lp1077
I47079603
aI47236662
aS'+'
asS'PDCD5P1'
p1078
(lp1079
I19413153
aI19413461
aS'+'
asS'TAS2R20'
p1080
(lp1081
I10996495
aI10997875
aS'-'
asS'OR9R1P'
p1082
(lp1083
I55158847
aI55159723
aS'+'
asS'LSM6P2'
p1084
(lp1085
I49770960
aI49771136
aS'+'
asS'TULP3'
p1086
(lp1087
I2877223
aI2934562
aS'+'
asS'TCP11L2'
p1088
(lp1089
I106302803
aI106347015
aS'+'
asS'NANOGP1'
p1090
(lp1091
I7890801
aI7900140
aS'+'
asS'IQSEC3P1'
p1092
(lp1093
I2752597
aI2753132
aS'-'
asS'AC007450.2'
p1094
(lp1095
I11516425
aI11521686
aS'-'
asS'AC007450.3'
p1096
(lp1097
I11507162
aI11507408
aS'-'
asS'AC007450.4'
p1098
(lp1099
I11500499
aI11501022
aS'+'
asS'MANSC4'
p1100
(lp1101
I27762738
aI27771276
aS'-'
asS'AC007115.1'
p1102
(lp1103
I91193709
aI91193942
aS'+'
asS'MANSC1'
p1104
(lp1105
I12326056
aI12350541
aS'-'
asS'SDSL'
p1106
(lp1107
I113422237
aI113438276
aS'+'
asS'TBC1D30'
p1108
(lp1109
I64786011
aI64881032
aS'+'
asS'DEPDC4'
p1110
(lp1111
I100203669
aI100267079
aS'-'
asS'AC023051.2'
p1112
(lp1113
I26800843
aI26801302
aS'+'
asS'ALKBH2'
p1114
(lp1115
I109088188
aI109093488
aS'-'
asS'AC024153.1'
p1116
(lp1117
I33717853
aI33718217
aS'+'
asS'KRT75'
p1118
(lp1119
I52424070
aI52434525
aS'-'
asS'KRT74'
p1120
(lp1121
I52565782
aI52573816
aS'-'
asS'KRT77'
p1122
(lp1123
I52689626
aI52703463
aS'-'
asS'GGTA2P'
p1124
(lp1125
I67265842
aI67266966
aS'-'
asS'KRT71'
p1126
(lp1127
I52543909
aI52553147
aS'-'
asS'KRT73'
p1128
(lp1129
I52607570
aI52618559
aS'-'
asS'KRT72'
p1130
(lp1131
I52585589
aI52601538
aS'-'
asS'PLCZ1'
p1132
(lp1133
I18683182
aI18738057
aS'-'
asS'KRT79'
p1134
(lp1135
I52821447
aI52834295
aS'-'
asS'KRT78'
p1136
(lp1137
I52837804
aI52848283
aS'-'
asS'AMDHD1'
p1138
(lp1139
I95943293
aI95968716
aS'+'
asS'SDR9C7'
p1140
(lp1141
I56923154
aI56934405
aS'-'
asS'HIGD1AP1'
p1142
(lp1143
I53142053
aI53142327
aS'+'
asS'RPL7P39'
p1144
(lp1145
I64867956
aI64868699
aS'-'
asS'RPL7P38'
p1146
(lp1147
I80028893
aI80029631
aS'+'
asS'OR7A19P'
p1148
(lp1149
I46592573
aI46593305
aS'+'
asS'BRWD1P2'
p1150
(lp1151
I89919437
aI89919776
aS'-'
asS'HNRNPA1'
p1152
(lp1153
I54280193
aI54287087
aS'+'
asS'FIGNL2'
p1154
(lp1155
I51817840
aI51848766
aS'-'
asS'ADGRD1'
p1156
(lp1157
I130953907
aI131141247
aS'+'
asS'ENO2'
p1158
(lp1159
I6914327
aI6923696
aS'+'
asS'AC137055.1'
p1160
(lp1161
I111581379
aI111581773
aS'+'
asS'OTUD4P1'
p1162
(lp1163
I3839459
aI3842525
aS'+'
asS'SYCP3'
p1164
(lp1165
I101728648
aI101739472
aS'-'
asS'TAOK3'
p1166
(lp1167
I118149801
aI118372945
aS'-'
asS'HADHAP2'
p1168
(lp1169
I8634367
aI8637608
aS'+'
asS'KLRC4-KLRK1'
p1170
(lp1171
I10372991
aI10410146
aS'-'
asS'TUBB4BP1'
p1172
(lp1173
I25440875
aI25441052
aS'-'
asS'CDK2'
p1174
(lp1175
I55966769
aI55972784
aS'+'
asS'CDK4'
p1176
(lp1177
I57751215
aI57756013
aS'-'
asS'CBX3P4'
p1178
(lp1179
I2787364
aI2794295
aS'-'
asS'CBX3P5'
p1180
(lp1181
I95286318
aI95286838
aS'-'
asS'LPAR5'
p1182
(lp1183
I6618835
aI6636447
aS'-'
asS'PHB2'
p1184
(lp1185
I6965352
aI6970825
aS'-'
asS'RPSAP12'
p1186
(lp1187
I68552995
aI68553882
aS'-'
asS'RERG'
p1188
(lp1189
I15121065
aI15348598
aS'-'
asS'TCP1P3'
p1190
(lp1191
I19941521
aI19943018
aS'+'
asS'RPL36AP41'
p1192
(lp1193
I63871739
aI63872044
aS'-'
asS'DNAJC14'
p1194
(lp1195
I55820960
aI55830781
aS'-'
asS'ARHGDIB'
p1196
(lp1197
I14942017
aI14961669
aS'-'
asS'AC093027.1'
p1198
(lp1199
I84671598
aI84672026
aS'+'
asS'DHH'
p1200
(lp1201
I49089421
aI49094819
aS'-'
asS'ENDOU'
p1202
(lp1203
I47709734
aI47725567
aS'-'
asS'AC004024.1'
p1204
(lp1205
I112000739
aI112000985
aS'-'
asS'DDX23'
p1206
(lp1207
I48829764
aI48852163
aS'-'
asS'NRIP2'
p1208
(lp1209
I2825348
aI2835024
aS'-'
asS'KRT8P39'
p1210
(lp1211
I68705634
aI68707066
aS'+'
asS'ATP5HP4'
p1212
(lp1213
I68642519
aI68642993
aS'-'
asS'RAB3IP'
p1214
(lp1215
I69739390
aI69823204
aS'+'
asS'ATF7IP'
p1216
(lp1217
I14365632
aI14502935
aS'+'
asS'TPI1'
p1218
(lp1219
I6867119
aI6870948
aS'+'
asS'SLC9A7P1'
p1220
(lp1221
I98453835
aI98457145
aS'-'
asS'LTBR'
p1222
(lp1223
I6375429
aI6391224
aS'+'
asS'SNRPGP18'
p1224
(lp1225
I116169045
aI116169258
aS'+'
asS'CCDC91'
p1226
(lp1227
I28179277
aI28549191
aS'+'
asS'CCDC92'
p1228
(lp1229
I123935622
aI123972824
aS'-'
asS'TRPV4'
p1230
(lp1231
I109783087
aI109833401
aS'-'
asS'SMCO3'
p1232
(lp1233
I14804650
aI14814182
aS'-'
asS'ERBB3'
p1234
(lp1235
I56079861
aI56103505
aS'+'
asS'HAL'
p1236
(lp1237
I95972662
aI95996365
aS'-'
asS'KIAA1551'
p1238
(lp1239
I31959419
aI31993107
aS'+'
asS'NACA'
p1240
(lp1241
I56713539
aI56731628
aS'-'
asS'EEF1A1P33'
p1242
(lp1243
I96900697
aI96902698
aS'-'
asS'RPL13P5'
p1244
(lp1245
I6873389
aI6884616
aS'+'
asS'VENTXP3'
p1246
(lp1247
I74292324
aI74293096
aS'+'
asS'HELB'
p1248
(lp1249
I66302545
aI66347645
aS'+'
asS'VPS37B'
p1250
(lp1251
I122865328
aI122896444
aS'-'
asS'ARF1P2'
p1252
(lp1253
I120845110
aI120845647
aS'-'
asS'AC025165.3'
p1254
(lp1255
I57773028
aI57787046
aS'+'
asS'ERP27'
p1256
(lp1257
I14914035
aI14939082
aS'-'
asS'ERP29'
p1258
(lp1259
I112013316
aI112023451
aS'+'
asS'RPS3AP43'
p1260
(lp1261
I8359054
aI8359834
aS'-'
asS'AC244131.1'
p1262
(lp1263
I11196075
aI11196996
aS'-'
asS'AC092111.4'
p1264
(lp1265
I8138140
aI8175320
aS'+'
asS'AC092111.1'
p1266
(lp1267
I8199689
aI8218911
aS'-'
asS'PWP1'
p1268
(lp1269
I107685732
aI107713167
aS'+'
asS'EEF1AKMT3'
p1270
(lp1271
I57772678
aI57782541
aS'+'
asS'HSPA8P14'
p1272
(lp1273
I111381867
aI111385638
aS'+'
asS'UBE2N'
p1274
(lp1275
I93405690
aI93442262
aS'-'
asS'MED13L'
p1276
(lp1277
I115953872
aI116277338
aS'-'
asS'ST8SIA1'
p1278
(lp1279
I22066419
aI22250787
aS'-'
asS'OR10U1P'
p1280
(lp1281
I55193882
aI55194786
aS'-'
asS'AC090058.1'
p1282
(lp1283
I50365652
aI50366086
aS'+'
asS'KRT3'
p1284
(lp1285
I52789685
aI52796117
aS'-'
asS'KRT2'
p1286
(lp1287
I52644558
aI52652164
aS'-'
asS'KRT1'
p1288
(lp1289
I52674736
aI52680407
aS'-'
asS'KRT7'
p1290
(lp1291
I52233114
aI52248921
aS'+'
asS'VDAC1P5'
p1292
(lp1293
I54802746
aI54803589
aS'-'
asS'KRT5'
p1294
(lp1295
I52514575
aI52520687
aS'-'
asS'KRT4'
p1296
(lp1297
I52806549
aI52814551
aS'-'
asS'KRT8'
p1298
(lp1299
I52897187
aI52949842
aS'-'
asS'BTBD11'
p1300
(lp1301
I107318413
aI107659642
aS'+'
asS'BORCS5'
p1302
(lp1303
I12357121
aI12469694
aS'+'
asS'AC025161.1'
p1304
(lp1305
I76984079
aI76984669
aS'-'
asS'KRT80'
p1306
(lp1307
I52168996
aI52192000
aS'-'
asS'KRT81'
p1308
(lp1309
I52285913
aI52291534
aS'-'
asS'KRT82'
p1310
(lp1311
I52393931
aI52406355
aS'-'
asS'KRT83'
p1312
(lp1313
I52314301
aI52321398
aS'-'
asS'PDE3A'
p1314
(lp1315
I20369245
aI20684381
aS'+'
asS'KRT85'
p1316
(lp1317
I52360006
aI52367481
aS'-'
asS'KRT86'
p1318
(lp1319
I52249300
aI52303159
aS'+'
asS'TMCC3'
p1320
(lp1321
I94567124
aI94650562
aS'-'
asS'AC007618.1'
p1322
(lp1323
I2659937
aI2660969
aS'+'
asS'KRT6B'
p1324
(lp1325
I52446651
aI52452126
aS'-'
asS'KRT6C'
p1326
(lp1327
I52468516
aI52473785
aS'-'
asS'TAS2R30'
p1328
(lp1329
I11132958
aI11134644
aS'-'
asS'KRT6A'
p1330
(lp1331
I52487174
aI52493257
aS'-'
asS'GPR84'
p1332
(lp1333
I54362447
aI54364487
aS'-'
asS'PUS1'
p1334
(lp1335
I131929223
aI131945896
aS'+'
asS'CNPY2'
p1336
(lp1337
I56310428
aI56316336
aS'-'
asS'ACSS3'
p1338
(lp1339
I80937815
aI81134963
aS'+'
asS'WBP11'
p1340
(lp1341
I14784579
aI14803540
aS'-'
asS'NDUFA9'
p1342
(lp1343
I4649107
aI4694317
aS'+'
asS'AC126471.1'
p1344
(lp1345
I85567878
aI85568239
aS'+'
asS'MRPL2P1'
p1346
(lp1347
I89752913
aI89753831
aS'+'
asS'AC027288.2'
p1348
(lp1349
I79500119
aI79500687
aS'-'
asS'WNT1'
p1350
(lp1351
I48978453
aI48981640
aS'+'
asS'AC016256.1'
p1352
(lp1353
I72431722
aI72432075
aS'-'
asS'GLYCAM1'
p1354
(lp1355
I54608187
aI54610462
aS'-'
asS'GNS'
p1356
(lp1357
I64713449
aI64759447
aS'-'
asS'DTX1'
p1358
(lp1359
I113057690
aI113098028
aS'+'
asS'IL23A'
p1360
(lp1361
I56334174
aI56340305
aS'+'
asS'AC092490.3'
p1362
(lp1363
I8678773
aI8679670
aS'+'
asS'AC024257.2'
p1364
(lp1365
I48333755
aI48333901
aS'-'
asS'AEBP2'
p1366
(lp1367
I19500093
aI19720801
aS'+'
asS'LTA4H'
p1368
(lp1369
I96000830
aI96043477
aS'-'
asS'PAN2'
p1370
(lp1371
I56316223
aI56334053
aS'-'
asS'AC084033.2'
p1372
(lp1373
I57983795
aI57984761
aS'-'
asS'AC084033.1'
p1374
(lp1375
I57967058
aI57968399
aS'+'
asS'GDF3'
p1376
(lp1377
I7689782
aI7695776
aS'-'
asS'DSTNP2'
p1378
(lp1379
I6884682
aI6885786
aS'+'
asS'SUOX'
p1380
(lp1381
I55997180
aI56005525
aS'+'
asS'MSI1'
p1382
(lp1383
I120341330
aI120369180
aS'-'
asS'COQ10A'
p1384
(lp1385
I56266858
aI56270964
aS'+'
asS'AC139697.1'
p1386
(lp1387
I86015697
aI86016441
aS'+'
asS'RPL7P6'
p1388
(lp1389
I19089151
aI19089888
aS'+'
asS'DUSP16'
p1390
(lp1391
I12474210
aI12562383
aS'-'
asS'AC013283.1'
p1392
(lp1393
I98590723
aI98591214
aS'-'
asS'SDS'
p1394
(lp1395
I113398515
aI113426301
aS'-'
asS'RNFT2'
p1396
(lp1397
I116738291
aI116853631
aS'+'
asS'COQ5'
p1398
(lp1399
I120503274
aI120529182
aS'-'
asS'C1R'
p1400
(lp1401
I7080209
aI7092607
aS'-'
asS'SLC25A39P2'
p1402
(lp1403
I10551266
aI10551535
aS'-'
asS'M6PR'
p1404
(lp1405
I8940365
aI8949955
aS'-'
asS'AC092451.2'
p1406
(lp1407
I25435581
aI25436238
aS'-'
asS'PSMC1P9'
p1408
(lp1409
I18692762
aI18694096
aS'+'
asS'PSMC1P8'
p1410
(lp1411
I17383352
aI17384647
aS'-'
asS'MRPL40P1'
p1412
(lp1413
I67351436
aI67352039
aS'+'
asS'OR6C64P'
p1414
(lp1415
I55522593
aI55523417
aS'+'
asS'ZNF140'
p1416
(lp1417
I133079838
aI133107544
aS'+'
asS'LYZ'
p1418
(lp1419
I69348341
aI69354234
aS'+'
asS'PHC1'
p1420
(lp1421
I8914731
aI8941467
aS'+'
asS'SLC26A10'
p1422
(lp1423
I57619527
aI57626140
aS'+'
asS'PRH2'
p1424
(lp1425
I10929236
aI10932341
aS'+'
asS'PRH1'
p1426
(lp1427
I10882587
aI11171544
aS'-'
asS'PIANP'
p1428
(lp1429
I6693792
aI6700800
aS'-'
asS'AC022335.1'
p1430
(lp1431
I21047179
aI21176895
aS'+'
asS'ATXN7L3B'
p1432
(lp1433
I74537827
aI74545430
aS'+'
asS'PMEL'
p1434
(lp1435
I55958547
aI55973317
aS'-'
asS'AC026333.1'
p1436
(lp1437
I122563735
aI122563762
aS'-'
asS'PRPF40B'
p1438
(lp1439
I49568372
aI49630625
aS'+'
asS'GRIP1'
p1440
(lp1441
I66371754
aI66804114
aS'-'
asS'AC023161.2'
p1442
(lp1443
I94521090
aI94521869
aS'-'
asS'AC007834.2'
p1444
(lp1445
I109859767
aI109860420
aS'-'
asS'H2AFJ'
p1446
(lp1447
I14774582
aI14778002
aS'+'
asS'CCDC65'
p1448
(lp1449
I48904110
aI48931840
aS'+'
asS'VDR'
p1450
(lp1451
I47841537
aI47943048
aS'-'
asS'ACADS'
p1452
(lp1453
I120725735
aI120740008
aS'+'
asS'CCDC60'
p1454
(lp1455
I119334712
aI119541047
aS'+'
asS'CCDC63'
p1456
(lp1457
I110846960
aI110907535
aS'+'
asS'CCDC62'
p1458
(lp1459
I122774327
aI122827528
aS'+'
asS'IKBIP'
p1460
(lp1461
I98613405
aI98645113
aS'-'
asS'ACRBP'
p1462
(lp1463
I6638075
aI6647460
aS'-'
asS'TMEM119'
p1464
(lp1465
I108589846
aI108598124
aS'-'
asS'EP400'
p1466
(lp1467
I131949920
aI132080466
aS'+'
asS'TMEM116'
p1468
(lp1469
I111931282
aI112013125
aS'-'
asS'TMEM117'
p1470
(lp1471
I43836083
aI44389758
aS'+'
asS'MRPL42'
p1472
(lp1473
I93467488
aI93516213
aS'+'
asS'AC020612.1'
p1474
(lp1475
I49595148
aI49595688
aS'+'
asS'AC020612.2'
p1476
(lp1477
I49709237
aI49709336
aS'+'
asS'AC073896.1'
p1478
(lp1479
I56285962
aI56316044
aS'-'
asS'GTF2H3'
p1480
(lp1481
I123633739
aI123662603
aS'+'
asS'TEX49'
p1482
(lp1483
I48727435
aI48765786
aS'+'
asS'AC023790.1'
p1484
(lp1485
I13021260
aI13021606
aS'-'
asS'ACVRL1'
p1486
(lp1487
I51907418
aI51921069
aS'+'
asS'ASIC1'
p1488
(lp1489
I50057548
aI50083611
aS'+'
asS'RECQL'
p1490
(lp1491
I21468911
aI21501593
aS'-'
asS'SART3'
p1492
(lp1493
I108522580
aI108561389
aS'-'
asS'FGF6'
p1494
(lp1495
I4428156
aI4444219
aS'-'
asS'RPL21P103'
p1496
(lp1497
I58244378
aI58244865
aS'+'
asS'AC003982.1'
p1498
(lp1499
I120369440
aI120371688
aS'+'
asS'RPL21P104'
p1500
(lp1501
I61775923
aI61776400
aS'+'
asS'IPO8'
p1502
(lp1503
I30628988
aI30695986
aS'-'
asS'BEST3'
p1504
(lp1505
I69643360
aI69699364
aS'-'
asS'ACTR6'
p1506
(lp1507
I100199865
aI100241865
aS'+'
asS'NAP1L1'
p1508
(lp1509
I76036587
aI76085033
aS'-'
asS'KRT84'
p1510
(lp1511
I52377812
aI52385652
aS'-'
asS'AC008083.2'
p1512
(lp1513
I47341614
aI47342089
aS'-'
asS'AC007068.1'
p1514
(lp1515
I9695384
aI9696227
aS'+'
asS'DIABLO'
p1516
(lp1517
I122207669
aI122227534
aS'-'
asS'AC068790.8'
p1518
(lp1519
I123973944
aI124088594
aS'+'
asS'AC068790.1'
p1520
(lp1521
I124005871
aI124006225
aS'-'
asS'AC025574.1'
p1522
(lp1523
I56380361
aI56382711
aS'-'
asS'AC025574.2'
p1524
(lp1525
I56376818
aI56377331
aS'-'
asS'NANOG'
p1526
(lp1527
I7789396
aI7799141
aS'+'
asS'NAA25'
p1528
(lp1529
I112026689
aI112109022
aS'-'
asS'AC079598.4'
p1530
(lp1531
I87820654
aI87820918
aS'-'
asS'AC079598.5'
p1532
(lp1533
I87746567
aI87746683
aS'+'
asS'AC079598.2'
p1534
(lp1535
I87783118
aI87784568
aS'-'
asS'AC079598.3'
p1536
(lp1537
I87753414
aI87753447
aS'-'
asS'AC078927.1'
p1538
(lp1539
I66123917
aI66169985
aS'-'
asS'PPP1R12A'
p1540
(lp1541
I79773563
aI79935455
aS'-'
asS'CLUHP8'
p1542
(lp1543
I38082046
aI38087392
aS'+'
asS'DUSP6'
p1544
(lp1545
I89347232
aI89353271
aS'-'
asS'TAS2R31'
p1546
(lp1547
I11030387
aI11031407
aS'-'
asS'NME2P1'
p1548
(lp1549
I120282303
aI120282716
aS'+'
asS'ANKS1B'
p1550
(lp1551
I98735422
aI99984237
aS'-'
asS'AC005906.1'
p1552
(lp1553
I5032388
aI5032941
aS'-'
asS'KRT90P'
p1554
(lp1555
I52413960
aI52421876
aS'-'
asS'METTL1'
p1556
(lp1557
I57768471
aI57772793
aS'-'
asS'DGKA'
p1558
(lp1559
I55930972
aI55954015
aS'+'
asS'TAS2R43'
p1560
(lp1561
I11091287
aI11092313
aS'-'
asS'TAS2R42'
p1562
(lp1563
I11185993
aI11186937
aS'-'
asS'TAS2R46'
p1564
(lp1565
I11061365
aI11062294
aS'-'
asS'PITPNM2'
p1566
(lp1567
I123013996
aI123150015
aS'-'
asS'ETFRF1'
p1568
(lp1569
I25195277
aI25209645
aS'+'
asS'TBC1D15'
p1570
(lp1571
I71839718
aI71927248
aS'+'
asS'GLULP5'
p1572
(lp1573
I114104542
aI114105931
aS'+'
asS'OR10A7'
p1574
(lp1575
I55221025
aI55221975
aS'+'
asS'ACAD10'
p1576
(lp1577
I111686076
aI111757094
aS'+'
asS'EEF1B2P4'
p1578
(lp1579
I106901283
aI106901984
aS'-'
asS'C12orf71'
p1580
(lp1581
I27081058
aI27082514
aS'-'
asS'CPNE8'
p1582
(lp1583
I38653834
aI38907430
aS'-'
asS'C12orf74'
p1584
(lp1585
I92702843
aI92708547
aS'+'
asS'C12orf75'
p1586
(lp1587
I105235290
aI105371180
aS'+'
asS'C12orf76'
p1588
(lp1589
I110042111
aI110073634
aS'-'
asS'AC092183.1'
p1590
(lp1591
I15439527
aI15440401
aS'+'
asS'PXN'
p1592
(lp1593
I120210439
aI120265771
aS'-'
asS'AC009729.1'
p1594
(lp1595
I108281103
aI108282235
aS'-'
asS'DHX37'
p1596
(lp1597
I124946826
aI124989122
aS'-'
asS'AC025578.1'
p1598
(lp1599
I58394596
aI58395138
aS'+'
asS'AC009509.3'
p1600
(lp1601
I27608733
aI27609046
aS'-'
asS'COPZ1'
p1602
(lp1603
I54301202
aI54345475
aS'+'
asS'METTL7AP1'
p1604
(lp1605
I52229093
aI52229588
aS'-'
asS'TMEM106C'
p1606
(lp1607
I47963584
aI47968849
aS'+'
asS'HNRNPA1P69'
p1608
(lp1609
I63271404
aI63272336
aS'+'
asS'GCSHP4'
p1610
(lp1611
I8141168
aI8142697
aS'-'
asS'USP15'
p1612
(lp1613
I62260338
aI62416389
aS'+'
asS'SNRPF'
p1614
(lp1615
I95858969
aI95903828
aS'+'
asS'AC025423.5'
p1616
(lp1617
I68913804
aI68914022
aS'+'
asS'SBNO1'
p1618
(lp1619
I123289109
aI123364843
aS'-'
asS'BRAP'
p1620
(lp1621
I111642146
aI111685986
aS'-'
asS'AC025423.2'
p1622
(lp1623
I68841946
aI68842384
aS'+'
asS'AC025423.3'
p1624
(lp1625
I68805011
aI68805479
aS'-'
asS'ATF1'
p1626
(lp1627
I50764292
aI50821122
aS'+'
asS'PARPBP'
p1628
(lp1629
I102120245
aI102197520
aS'+'
asS'ANO2'
p1630
(lp1631
I5562651
aI5946232
aS'-'
asS'AC074029.1'
p1632
(lp1633
I48171590
aI48173353
aS'+'
asS'SMARCC2'
p1634
(lp1635
I56162983
aI56189567
aS'-'
asS'ZDHHC17'
p1636
(lp1637
I76763588
aI76853696
aS'+'
asS'FAM222A'
p1638
(lp1639
I109714228
aI109770507
aS'+'
asS'FAM86FP'
p1640
(lp1641
I8232512
aI8242948
aS'-'
asS'ANP32D'
p1642
(lp1643
I48472665
aI48473624
aS'+'
asS'DDX54'
p1644
(lp1645
I113157174
aI113185479
aS'-'
asS'DDX55'
p1646
(lp1647
I123602099
aI123620941
aS'+'
asS'LEMD3'
p1648
(lp1649
I65169571
aI65248327
aS'+'
asS'AC123904.1'
p1650
(lp1651
I74663774
aI74664141
aS'-'
asS'AC123904.3'
p1652
(lp1653
I74728038
aI74728851
aS'-'
asS'AC123904.2'
p1654
(lp1655
I74656561
aI74656860
aS'+'
asS'PRIM1'
p1656
(lp1657
I56731596
aI56752373
aS'-'
asS'MRPL51'
p1658
(lp1659
I6492103
aI6493841
aS'-'
asS'CELA1'
p1660
(lp1661
I51328443
aI51346679
aS'-'
asS'YAF2'
p1662
(lp1663
I42157104
aI42238236
aS'-'
asS'LARP4'
p1664
(lp1665
I50400809
aI50479996
aS'+'
asS'AC010198.2'
p1666
(lp1667
I30861921
aI30862179
aS'+'
asS'LRP1'
p1668
(lp1669
I57128499
aI57213351
aS'+'
asS'PIK3C2G'
p1670
(lp1671
I18261540
aI18648414
aS'+'
asS'IQCD'
p1672
(lp1673
I113195441
aI113221094
aS'-'
asS'AC011611.6'
p1674
(lp1675
I75926213
aI75926467
aS'+'
asS'TDGP1'
p1676
(lp1677
I25803298
aI25804526
aS'+'
asS'AC005908.1'
p1678
(lp1679
I3468950
aI3469296
aS'+'
asS'DDX47'
p1680
(lp1681
I12813316
aI12829979
aS'+'
asS'POP5'
p1682
(lp1683
I120578764
aI120581379
aS'-'
asS'TUBB8P4'
p1684
(lp1685
I34164773
aI34166954
aS'-'
asS'TUBB8P5'
p1686
(lp1687
I38201566
aI38203792
aS'+'
asS'GATC'
p1688
(lp1689
I120446438
aI120463749
aS'+'
asS'STK38L'
p1690
(lp1691
I27244175
aI27325959
aS'+'
asS'LGR5'
p1692
(lp1693
I71439770
aI71586310
aS'+'
asS'MMP17'
p1694
(lp1695
I131828393
aI131851771
aS'+'
asS'CDKN1B'
p1696
(lp1697
I12715058
aI12721204
aS'+'
asS'MMP19'
p1698
(lp1699
I55835433
aI55842949
aS'-'
asS'AC093014.1'
p1700
(lp1701
I76757191
aI76757914
aS'+'
asS'AC016144.1'
p1702
(lp1703
I40728811
aI40729897
aS'+'
asS'BAZ2A'
p1704
(lp1705
I56595596
aI56636366
aS'-'
asS'PPP1R1A'
p1706
(lp1707
I54575387
aI54588516
aS'-'
asS'AC117372.1'
p1708
(lp1709
I38205098
aI38206009
aS'-'
asS'AC022364.2'
p1710
(lp1711
I28164958
aI28165662
aS'+'
asS'GDF11'
p1712
(lp1713
I55743280
aI55757278
aS'+'
asS'TMTC2'
p1714
(lp1715
I82686880
aI83134852
aS'+'
asS'PUS7L'
p1716
(lp1717
I43718993
aI43758817
aS'-'
asS'FOXJ2'
p1718
(lp1719
I8032703
aI8055503
aS'+'
asS'TMTC1'
p1720
(lp1721
I29500840
aI29784759
aS'-'
asS'CCDC59'
p1722
(lp1723
I82223681
aI82358396
aS'-'
asS'ALG1L10P'
p1724
(lp1725
I8227734
aI8231764
aS'+'
asS'OR2AP1'
p1726
(lp1727
I55574415
aI55575344
aS'+'
asS'NCAPD2'
p1728
(lp1729
I6493379
aI6531955
aS'+'
asS'HOXC11'
p1730
(lp1731
I53973126
aI53977643
aS'+'
asS'HOXC10'
p1732
(lp1733
I53985186
aI53990279
aS'+'
asS'HOXC13'
p1734
(lp1735
I53938765
aI53946544
aS'+'
asS'HOXC12'
p1736
(lp1737
I53954834
aI53958956
aS'+'
asS'SLC39A5'
p1738
(lp1739
I56230063
aI56237846
aS'+'
asS'EEF1A1P17'
p1740
(lp1741
I43659827
aI43661101
aS'+'
asS'EEF1A1P16'
p1742
(lp1743
I16990670
aI16992083
aS'+'
asS'CABP1'
p1744
(lp1745
I120640552
aI120667311
aS'+'
asS'VWF'
p1746
(lp1747
I5948874
aI6124675
aS'-'
asS'ATXN2'
p1748
(lp1749
I111452214
aI111599676
aS'-'
asS'NAB2'
p1750
(lp1751
I57088894
aI57095476
aS'+'
asS'SOAT2'
p1752
(lp1753
I53103518
aI53124538
aS'+'
asS'HNRNPA1P50'
p1754
(lp1755
I92883773
aI92884700
aS'+'
asS'SRGAP1'
p1756
(lp1757
I63844293
aI64162221
aS'+'
asS'AC005294.1'
p1758
(lp1759
I67978107
aI67978387
aS'-'
asS'AC004812.1'
p1760
(lp1761
I120057035
aI120057180
aS'+'
asS'GPRC5D'
p1762
(lp1763
I12940775
aI12950384
aS'-'
asS'COL2A1'
p1764
(lp1765
I47972965
aI48004486
aS'-'
asS'CCDC184'
p1766
(lp1767
I48183584
aI48185926
aS'+'
asS'NEDD1'
p1768
(lp1769
I96907223
aI96953777
aS'+'
asS'DTX3'
p1770
(lp1771
I57604622
aI57609800
aS'+'
asS'PYROXD1'
p1772
(lp1773
I21437677
aI21471252
aS'+'
asS'FICD'
p1774
(lp1775
I108517121
aI108525832
aS'+'
asS'AC084824.2'
p1776
(lp1777
I32692504
aI32692848
aS'-'
asS'PTMAP4'
p1778
(lp1779
I9239986
aI9240331
aS'-'
asS'SPIC'
p1780
(lp1781
I101475421
aI101486997
aS'+'
asS'AC005865.2'
p1782
(lp1783
I3298659
aI3366122
aS'-'
asS'IRAK3'
p1784
(lp1785
I66188879
aI66254622
aS'+'
asS'ALG10'
p1786
(lp1787
I34022468
aI34029694
aS'+'
asS'AKIRIN1P1'
p1788
(lp1789
I80561017
aI80561560
aS'-'
asS'NTN4'
p1790
(lp1791
I95657807
aI95790764
aS'-'
asS'AC068802.1'
p1792
(lp1793
I42929848
aI42930579
aS'-'
asS'GLS2'
p1794
(lp1795
I56470944
aI56488414
aS'-'
asS'B4GALNT1'
p1796
(lp1797
I57623410
aI57633151
aS'-'
asS'B4GALNT3'
p1798
(lp1799
I460364
aI563509
aS'+'
asS'RBMS2'
p1800
(lp1801
I56521929
aI56596196
aS'+'
asS'AC020611.1'
p1802
(lp1803
I64032412
aI64032665
aS'+'
asS'PDE1B'
p1804
(lp1805
I54549350
aI54579239
aS'+'
asS'VPS29'
p1806
(lp1807
I110491097
aI110502117
aS'-'
asS'KNOP1P1'
p1808
(lp1809
I24583561
aI24584549
aS'+'
asS'KNOP1P2'
p1810
(lp1811
I45880950
aI45882266
aS'-'
asS'TAS2R50'
p1812
(lp1813
I10985913
aI10986912
aS'-'
asS'IFNG'
p1814
(lp1815
I68154768
aI68159747
aS'-'
asS'HNF1A'
p1816
(lp1817
I120978543
aI121002512
aS'+'
asS'LRRIQ1'
p1818
(lp1819
I85036371
aI85245105
aS'+'
asS'AC012158.2'
p1820
(lp1821
I64266413
aI64266766
aS'+'
asS'OR6C65'
p1822
(lp1823
I55400430
aI55401505
aS'+'
asS'AC023511.2'
p1824
(lp1825
I30169881
aI30170091
aS'-'
asS'AC090017.1'
p1826
(lp1827
I61231159
aI61232937
aS'-'
asS'OR6C68'
p1828
(lp1829
I55492378
aI55493316
aS'+'
asS'BCL7A'
p1830
(lp1831
I122019422
aI122062044
aS'+'
asS'IL31'
p1832
(lp1833
I122172030
aI122174199
aS'-'
asS'E2F7'
p1834
(lp1835
I77021247
aI77065580
aS'-'
asS'C12orf60'
p1836
(lp1837
I14803677
aI14906586
aS'+'
asS'C12orf66'
p1838
(lp1839
I64186316
aI64222265
aS'-'
asS'C12orf65'
p1840
(lp1841
I123232916
aI123257959
aS'+'
asS'AC090013.1'
p1842
(lp1843
I116755395
aI116755874
aS'-'
asS'AC024255.1'
p1844
(lp1845
I28978584
aI28978685
aS'+'
asS'MGAT4C'
p1846
(lp1847
I85978745
aI86838885
aS'-'
asS'BRI3BP'
p1848
(lp1849
I124993700
aI125031231
aS'+'
asS'RPS3P6'
p1850
(lp1851
I62021570
aI62022174
aS'-'
asS'FAM234B'
p1852
(lp1853
I13061715
aI13142521
aS'+'
asS'MIP'
p1854
(lp1855
I56452639
aI56469166
aS'-'
asS'AC092747.3'
p1856
(lp1857
I27093923
aI27094223
aS'-'
asS'AC092747.2'
p1858
(lp1859
I27121910
aI27147664
aS'+'
asS'WNT10B'
p1860
(lp1861
I48965340
aI48971763
aS'-'
asS'AC004217.3'
p1862
(lp1863
I112321759
aI112323089
aS'+'
asS'STRAP'
p1864
(lp1865
I15882395
aI15903478
aS'+'
asS'AC006512.2'
p1866
(lp1867
I7041156
aI7041641
aS'-'
asS'AC006512.1'
p1868
(lp1869
I7032108
aI7032398
aS'+'
asS'RAB5B'
p1870
(lp1871
I55974011
aI55996683
aS'+'
asS'AC092451.1'
p1872
(lp1873
I25409293
aI25409445
aS'-'
asS'SSH1'
p1874
(lp1875
I108778192
aI108857590
aS'-'
asS'HSPA8P5'
p1876
(lp1877
I4097451
aI4099519
aS'+'
asS'AC006518.1'
p1878
(lp1879
I10831074
aI10832016
aS'-'
asS'AC006518.2'
p1880
(lp1881
I10895168
aI10896952
aS'-'
asS'SLC41A2'
p1882
(lp1883
I104802553
aI104928655
aS'-'
asS'SCARB1'
p1884
(lp1885
I124782683
aI124880461
aS'-'
asS'PLEKHA5'
p1886
(lp1887
I19129768
aI19376400
aS'+'
asS'AC092552.1'
p1888
(lp1889
I75305452
aI75306357
aS'+'
asS'AC018659.1'
p1890
(lp1891
I97679879
aI97680047
aS'-'
asS'EID3'
p1892
(lp1893
I104303739
aI104305205
aS'+'
asS'HNRNPA1P70'
p1894
(lp1895
I68035767
aI68036853
aS'+'
asS'OR6C66P'
p1896
(lp1897
I55388445
aI55389374
aS'+'
asS'AC023513.1'
p1898
(lp1899
I42069935
aI42070625
aS'-'
asS'CNTN1'
p1900
(lp1901
I40692552
aI41072418
aS'+'
asS'PLA2G1B'
p1902
(lp1903
I120322111
aI120327789
aS'-'
asS'CRADD'
p1904
(lp1905
I93677399
aI93894840
aS'+'
asS'NCKAP5L'
p1906
(lp1907
I49791146
aI49828425
aS'-'
asS'MPHOSPH9'
p1908
(lp1909
I123154215
aI123233123
aS'-'
asS'DENR'
p1910
(lp1911
I122752774
aI122771064
aS'+'
asS'AC074029.2'
p1912
(lp1913
I48160245
aI48160878
aS'-'
asS'DDX51'
p1914
(lp1915
I132136594
aI132144335
aS'-'
asS'CSRNP2'
p1916
(lp1917
I51061205
aI51083550
aS'-'
asS'OR10AD1'
p1918
(lp1919
I48202083
aI48203387
aS'-'
asS'GPR162'
p1920
(lp1921
I6821545
aI6827418
aS'+'
asS'TXNRD1'
p1922
(lp1923
I104215779
aI104350305
aS'+'
asS'AC084754.1'
p1924
(lp1925
I28564678
aI28565141
aS'-'
asS'PMCH'
p1926
(lp1927
I102196459
aI102197845
aS'-'
asS'ZNF26'
p1928
(lp1929
I132986464
aI133027103
aS'+'
asS'KLRG1'
p1930
(lp1931
I8950125
aI9010063
aS'+'
asS'BBS10'
p1932
(lp1933
I76344474
aI76348442
aS'-'
asS'MGP'
p1934
(lp1935
I14881181
aI14885926
aS'-'
asS'MYBPC1'
p1936
(lp1937
I101594971
aI101686018
aS'+'
asS'AC087897.1'
p1938
(lp1939
I38532895
aI38533050
aS'-'
asS'HNRNPABP1'
p1940
(lp1941
I10111738
aI10112471
aS'+'
asS'PGAM1P5'
p1942
(lp1943
I95551582
aI95665776
aS'+'
asS'CCNG2P1'
p1944
(lp1945
I75257635
aI75258634
aS'-'
asS'LAG3'
p1946
(lp1947
I6772512
aI6778455
aS'+'
asS'AC063949.1'
p1948
(lp1949
I92530460
aI92531324
aS'+'
asS'AC089984.2'
p1950
(lp1951
I71849228
aI71850428
aS'-'
asS'LUM'
p1952
(lp1953
I91102629
aI91111831
aS'-'
asS'RPL41'
p1954
(lp1955
I56116586
aI56117943
aS'+'
asS'INTS13'
p1956
(lp1957
I26905181
aI26938321
aS'-'
asS'OSBPL9P5'
p1958
(lp1959
I66563524
aI66563694
aS'+'
asS'GAS2L3'
p1960
(lp1961
I100573711
aI100624919
aS'+'
asS'RACGAP1'
p1962
(lp1963
I49989162
aI50025461
aS'-'
asS'AC007458.1'
p1964
(lp1965
I68143318
aI68143690
aS'+'
asS'AC023055.1'
p1966
(lp1967
I55757275
aI55827546
aS'-'
asS'AC010203.1'
p1968
(lp1969
I100173312
aI100199783
aS'-'
asS'FBXO21'
p1970
(lp1971
I117141988
aI117190531
aS'-'
asS'AC063947.2'
p1972
(lp1973
I101066734
aI101069232
aS'+'
asS'VDAC2P2'
p1974
(lp1975
I9036344
aI9037244
aS'+'
asS'NOP56P3'
p1976
(lp1977
I79558782
aI79559166
aS'+'
asS'YWHAQP7'
p1978
(lp1979
I76619386
aI76620043
aS'+'
asS'FGD4'
p1980
(lp1981
I32399529
aI32640533
aS'+'
asS'FGD6'
p1982
(lp1983
I95076749
aI95217464
aS'-'
asS'EPYC'
p1984
(lp1985
I90963679
aI91005026
aS'-'
asS'GNB3'
p1986
(lp1987
I6839954
aI6847393
aS'+'
asS'STMN1P1'
p1988
(lp1989
I31715342
aI31715781
aS'-'
asS'GCN1'
p1990
(lp1991
I120127203
aI120194710
aS'-'
asS'AGAP2'
p1992
(lp1993
I57723761
aI57742157
aS'-'
asS'GXYLT1'
p1994
(lp1995
I42081845
aI42144879
aS'-'
asS'AC023509.5'
p1996
(lp1997
I53574632
aI53576103
aS'+'
asS'AC023509.3'
p1998
(lp1999
I53506691
aI53625979
aS'-'
asS'TMEM5'
p2000
(lp2001
I63779803
aI63809520
aS'+'
asS'RSRC2'
p2002
(lp2003
I122503458
aI122526999
aS'-'
asS'MUCL1'
p2004
(lp2005
I54830519
aI54858260
aS'+'
asS'AC091515.1'
p2006
(lp2007
I81868368
aI81869046
aS'+'
asS'STAB2'
p2008
(lp2009
I103587273
aI103766727
aS'+'
asS'MTERF2'
p2010
(lp2011
I106977291
aI106987166
aS'-'
asS'FBRSL1'
p2012
(lp2013
I132489551
aI132585188
aS'+'
asS'NTF3'
p2014
(lp2015
I5432112
aI5521536
aS'+'
asS'SLC5A8'
p2016
(lp2017
I101155493
aI101210407
aS'-'
asS'AC135586.1'
p2018
(lp2019
I132745156
aI132745729
aS'+'
asS'AC135586.2'
p2020
(lp2021
I132688049
aI132714912
aS'+'
asS'LSM3P2'
p2022
(lp2023
I94590821
aI94591093
aS'+'
asS'ALX1'
p2024
(lp2025
I85280107
aI85301784
aS'+'
asS'MRPS36P5'
p2026
(lp2027
I43054089
aI43054386
aS'-'
asS'HIP1R'
p2028
(lp2029
I122835426
aI122862960
aS'+'
asS'NR4A1'
p2030
(lp2031
I52022832
aI52059506
aS'+'
asS'AC016956.1'
p2032
(lp2033
I33454345
aI33455452
aS'+'
asS'C1S'
p2034
(lp2035
I6988259
aI7071032
aS'+'
asS'CASC1'
p2036
(lp2037
I25108421
aI25195162
aS'-'
asS'HSPD1P4'
p2038
(lp2039
I56511002
aI56512703
aS'+'
asS'PXMP2'
p2040
(lp2041
I132687606
aI132704991
aS'+'
asS'AC090115.2'
p2042
(lp2043
I48394510
aI48395392
aS'-'
asS'AC090115.3'
p2044
(lp2045
I48385417
aI48386265
aS'-'
asS'AC006122.1'
p2046
(lp2047
I4324372
aI4324811
aS'-'
asS'CHST11'
p2048
(lp2049
I104456971
aI104762014
aS'+'
asS'TESC'
p2050
(lp2051
I117038923
aI117099479
aS'-'
asS'OR6C75'
p2052
(lp2053
I55365111
aI55366049
aS'+'
asS'OR6C74'
p2054
(lp2055
I55247198
aI55248302
aS'+'
asS'OR6C76'
p2056
(lp2057
I55426254
aI55427192
aS'+'
asS'OR6C70'
p2058
(lp2059
I55469200
aI55470138
aS'-'
asS'AC124891.1'
p2060
(lp2061
I7870852
aI7871370
aS'+'
asS'GNPTAB'
p2062
(lp2063
I101745497
aI101830938
aS'-'
asS'IL22'
p2064
(lp2065
I68248242
aI68253607
aS'-'
asS'CAPRIN2'
p2066
(lp2067
I30709553
aI30754514
aS'-'
asS'IL26'
p2068
(lp2069
I68201351
aI68225821
aS'-'
asS'CCNT1'
p2070
(lp2071
I48688458
aI48716998
aS'-'
asS'C12orf56'
p2072
(lp2073
I64264762
aI64390691
aS'-'
asS'C12orf57'
p2074
(lp2075
I6943433
aI6946003
aS'+'
asS'C12orf54'
p2076
(lp2077
I48482503
aI48496512
aS'+'
asS'C12orf50'
p2078
(lp2079
I87980035
aI88029412
aS'-'
asS'FMNL3'
p2080
(lp2081
I49636499
aI49707414
aS'-'
asS'AC021072.1'
p2082
(lp2083
I53241889
aI53242723
aS'+'
asS'PZP'
p2084
(lp2085
I9148840
aI9208370
aS'-'
asS'AC034102.2'
p2086
(lp2087
I56101331
aI56109289
aS'+'
asS'AC016954.1'
p2088
(lp2089
I32227410
aI32228154
aS'-'
asS'DYNLL1P4'
p2090
(lp2091
I113789542
aI113789807
aS'-'
asS'AQP6'
p2092
(lp2093
I49967194
aI49977139
aS'+'
asS'AQP5'
p2094
(lp2095
I49961870
aI49965681
aS'+'
asS'AQP2'
p2096
(lp2097
I49950746
aI49958881
aS'+'
asS'BICDL1'
p2098
(lp2099
I119989869
aI120094494
aS'+'
asS'WNK1'
p2100
(lp2101
I752593
aI911300
aS'+'
asS'NR2C1'
p2102
(lp2103
I95020229
aI95073703
aS'-'
asS'USP30'
p2104
(lp2105
I109023089
aI109086377
aS'+'
asS'SHMT2'
p2106
(lp2107
I57229327
aI57234931
aS'+'
asS'ADCY6'
p2108
(lp2109
I48766198
aI48789037
aS'-'
asS'RPL23AP68'
p2110
(lp2111
I87169985
aI87170429
aS'-'
asS'OR6C7P'
p2112
(lp2113
I55342841
aI55343774
aS'+'
asS'MORN3'
p2114
(lp2115
I121651392
aI121672631
aS'-'
asS'LIMA1'
p2116
(lp2117
I50175788
aI50283546
aS'-'
asS'AC008013.2'
p2118
(lp2119
I31012503
aI31015667
aS'+'
asS'AC008013.3'
p2120
(lp2121
I31105105
aI31106830
aS'-'
asS'RPL23AP67'
p2122
(lp2123
I133125479
aI133125952
aS'+'
asS'PPFIBP1'
p2124
(lp2125
I27524182
aI27695563
aS'+'
asS'APOBEC1'
p2126
(lp2127
I7649400
aI7665903
aS'-'
asS'SARNP'
p2128
(lp2129
I55752463
aI55817724
aS'-'
asS'PHC1P1'
p2130
(lp2131
I55411727
aI55414787
aS'-'
asS'AC068993.1'
p2132
(lp2133
I78793526
aI78794114
aS'-'
asS'AC008011.1'
p2134
(lp2135
I27935523
aI27935749
aS'-'
asS'STX2'
p2136
(lp2137
I130789600
aI130839266
aS'-'
asS'MED21'
p2138
(lp2139
I27022577
aI27066240
aS'+'
asS'C12orf4'
p2140
(lp2141
I4487728
aI4538471
aS'-'
asS'KANSL2'
p2142
(lp2143
I48653402
aI48682225
aS'-'
asS'CLEC7A'
p2144
(lp2145
I10116777
aI10130258
aS'-'
asS'TRIAP1'
p2146
(lp2147
I120443961
aI120446412
aS'-'
asS'SYT10'
p2148
(lp2149
I33374238
aI33439819
aS'-'
asS'SCNN1A'
p2150
(lp2151
I6347684
aI6377359
aS'-'
asS'PCNPP3'
p2152
(lp2153
I65645992
aI65646462
aS'-'
asS'PCNPP1'
p2154
(lp2155
I111669852
aI111670362
aS'-'
asS'CCER1'
p2156
(lp2157
I90905622
aI90955174
aS'-'
asS'RIC8B'
p2158
(lp2159
I106774595
aI106889316
aS'+'
asS'AC079363.1'
p2160
(lp2161
I81545326
aI81546450
aS'-'
asS'CLEC9A'
p2162
(lp2163
I10030677
aI10066027
aS'+'
asS'DDN'
p2164
(lp2165
I48995149
aI48999309
aS'-'
asS'AMN1'
p2166
(lp2167
I31671137
aI31729174
aS'-'
asS'FAHD2P1'
p2168
(lp2169
I70671918
aI70672856
aS'+'
asS'AC068775.1'
p2170
(lp2171
I10505602
aI10523135
aS'+'
asS'AC073913.2'
p2172
(lp2173
I127344258
aI127344402
aS'-'
asS'AC073913.1'
p2174
(lp2175
I127317709
aI127319986
aS'-'
asS'AC068775.2'
p2176
(lp2177
I10412312
aI10436001
aS'-'
asS'RPSAP52'
p2178
(lp2179
I65758020
aI65826974
aS'-'
asS'AC012531.3'
p2180
(lp2181
I53985845
aI54034888
aS'+'
asS'RPSAP51'
p2182
(lp2183
I8742428
aI8743072
aS'+'
asS'AC092824.1'
p2184
(lp2185
I12568201
aI12568776
aS'-'
asS'FGF23'
p2186
(lp2187
I4368227
aI4379728
aS'-'
asS'AC084364.1'
p2188
(lp2189
I103503381
aI103504936
aS'+'
asS'AC008033.1'
p2190
(lp2191
I68473741
aI68474902
aS'+'
asS'AC084364.2'
p2192
(lp2193
I103505411
aI103506174
aS'-'
asS'TCHP'
p2194
(lp2195
I109900274
aI109953269
aS'+'
asS'TBX3'
p2196
(lp2197
I114670254
aI114684164
aS'-'
asS'TBX5'
p2198
(lp2199
I114353931
aI114408442
aS'-'
asS'KCNA5'
p2200
(lp2201
I5043989
aI5046788
aS'+'
asS'KLRF2'
p2202
(lp2203
I9881489
aI9895833
aS'+'
asS'A2M'
p2204
(lp2205
I9067712
aI9116157
aS'-'
asS'KCNA1'
p2206
(lp2207
I4909893
aI4918256
aS'+'
asS'AC084398.1'
p2208
(lp2209
I101936216
aI101936674
aS'+'
asS'AC084878.1'
p2210
(lp2211
I46004038
aI46004685
aS'-'
asS'CCDC150P1'
p2212
(lp2213
I122322122
aI122324336
aS'-'
asS'GAPDHP31'
p2214
(lp2215
I7566369
aI7567382
aS'+'
asS'RPS26'
p2216
(lp2217
I56041853
aI56044675
aS'+'
asS'CCDC38'
p2218
(lp2219
I95867049
aI95942974
aS'-'
asS'AC141557.2'
p2220
(lp2221
I9415641
aI9416718
aS'+'
asS'RIMBP2'
p2222
(lp2223
I130396137
aI130517865
aS'-'
asS'ACACB'
p2224
(lp2225
I109116595
aI109268226
aS'+'
asS'APPL2'
p2226
(lp2227
I105173296
aI105236238
aS'-'
asS'PAWR'
p2228
(lp2229
I79584874
aI79691097
aS'-'
asS'NT5DC3'
p2230
(lp2231
I103772310
aI103841197
aS'-'
asS'AC137627.1'
p2232
(lp2233
I5583797
aI5584085
aS'+'
asS'AC068305.1'
p2234
(lp2235
I59020169
aI59020894
aS'+'
asS'AC068305.2'
p2236
(lp2237
I59052980
aI59054184
aS'-'
asS'IMMP1LP2'
p2238
(lp2239
I113015607
aI113016098
aS'+'
asS'RPS4XP15'
p2240
(lp2241
I87944885
aI87950819
aS'+'
asS'ZNF664'
p2242
(lp2243
I123973123
aI124015422
aS'+'
asS'AK6P2'
p2244
(lp2245
I38078529
aI38078999
aS'-'
asS'AK6P1'
p2246
(lp2247
I34249481
aI34249958
aS'+'
asS'AC007621.1'
p2248
(lp2249
I12248991
aI12249427
aS'+'
asS'NECAP1'
p2250
(lp2251
I8076939
aI8097859
aS'+'
asS'DIP2B'
p2252
(lp2253
I50505107
aI50748667
aS'+'
asS'MTND2P17'
p2254
(lp2255
I41698495
aI41699182
aS'-'
asS'CORO1C'
p2256
(lp2257
I108645109
aI108731596
aS'-'
asS'RPL21P136'
p2258
(lp2259
I12614359
aI12615907
aS'-'
asS'AC078819.1'
p2260
(lp2261
I104030779
aI104031543
aS'+'
asS'PTHLH'
p2262
(lp2263
I27958090
aI27972705
aS'-'
asS'AC012085.1'
p2264
(lp2265
I93640822
aI93641586
aS'-'
asS'VPS33A'
p2266
(lp2267
I122229564
aI122266521
aS'-'
asS'ZCCHC8'
p2268
(lp2269
I122471600
aI122500595
aS'-'
asS'LLPH'
p2270
(lp2271
I66116555
aI66130768
aS'-'
asS'GLT8D2'
p2272
(lp2273
I103989280
aI104064183
aS'-'
asS'AC144548.1'
p2274
(lp2275
I110429959
aI110430282
aS'-'
asS'KERA'
p2276
(lp2277
I91050491
aI91057983
aS'-'
asS'NENFP2'
p2278
(lp2279
I101963901
aI101964340
aS'+'
asS'STAC3'
p2280
(lp2281
I57243453
aI57251193
aS'-'
asS'TMBIM6'
p2282
(lp2283
I49707733
aI49753039
aS'+'
asS'TMBIM4'
p2284
(lp2285
I66135846
aI66170072
aS'-'
asS'HECTD4'
p2286
(lp2287
I112160190
aI112382439
aS'-'
asS'SLC25A3P2'
p2288
(lp2289
I111992996
aI111993875
aS'+'
asS'ADAMTS20'
p2290
(lp2291
I43353866
aI43551921
aS'-'
asS'SETD1B'
p2292
(lp2293
I121804180
aI121832584
aS'+'
asS'MREGP1'
p2294
(lp2295
I31254361
aI31254445
aS'-'
asS'OAS1'
p2296
(lp2297
I112907007
aI112933222
aS'+'
asS'OAS3'
p2298
(lp2299
I112938352
aI112973249
aS'+'
asS'OAS2'
p2300
(lp2301
I112978395
aI113011723
aS'+'
asS'AC215219.1'
p2302
(lp2303
I14522
aI32015
aS'-'
asS'RPL30P12'
p2304
(lp2305
I106910757
aI106911109
aS'+'
asS'RPL30P13'
p2306
(lp2307
I40068243
aI40068590
aS'-'
asS'RPL30P11'
p2308
(lp2309
I14357296
aI14365503
aS'-'
asS'AC048344.3'
p2310
(lp2311
I32100485
aI32100735
aS'-'
asS'AC048344.2'
p2312
(lp2313
I32072734
aI32072880
aS'+'
asS'AC006927.4'
p2314
(lp2315
I7620542
aI7621450
aS'+'
asS'AC079316.1'
p2316
(lp2317
I104514029
aI104514439
aS'+'
asS'AC006927.2'
p2318
(lp2319
I7619872
aI7620260
aS'-'
asS'AC006927.3'
p2320
(lp2321
I7626103
aI7626486
aS'+'
asS'AC006927.1'
p2322
(lp2323
I7606834
aI7607331
aS'+'
asS'OASL'
p2324
(lp2325
I121019111
aI121039242
aS'-'
asS'C12orf49'
p2326
(lp2327
I116710185
aI116738061
aS'-'
asS'KCTD10'
p2328
(lp2329
I109448656
aI109477544
aS'-'
asS'C12orf40'
p2330
(lp2331
I39626218
aI39908300
aS'+'
asS'C12orf43'
p2332
(lp2333
I121000486
aI121016487
aS'-'
asS'C12orf42'
p2334
(lp2335
I103237591
aI103495968
aS'-'
asS'C12orf45'
p2336
(lp2337
I104986338
aI105074197
aS'+'
asS'MARK3P1'
p2338
(lp2339
I46682071
aI46682713
aS'-'
asS'KCNMB4'
p2340
(lp2341
I70366276
aI70434292
aS'+'
asS'AC023050.1'
p2342
(lp2343
I31897820
aI31898123
aS'+'
asS'AC023050.2'
p2344
(lp2345
I31853021
aI31853407
aS'-'
asS'AC023050.3'
p2346
(lp2347
I31893370
aI31893702
aS'+'
asS'AC023050.4'
p2348
(lp2349
I31953889
aI31955268
aS'+'
asS'UBC'
p2350
(lp2351
I124913587
aI124917368
aS'-'
asS'ANKRD52'
p2352
(lp2353
I56237807
aI56258391
aS'-'
asS'CLEC12B'
p2354
(lp2355
I10010632
aI10018619
aS'+'
asS'CLEC12A'
p2356
(lp2357
I9951316
aI9985595
aS'+'
asS'METAP2'
p2358
(lp2359
I95473951
aI95515839
aS'+'
asS'DPPA3'
p2360
(lp2361
I7711454
aI7717559
aS'+'
asS'SPRYD3'
p2362
(lp2363
I53064316
aI53079420
aS'-'
asS'SPRYD4'
p2364
(lp2365
I56468567
aI56479707
aS'+'
asS'GOT2P3'
p2366
(lp2367
I9641723
aI9643011
aS'+'
asS'AC022507.1'
p2368
(lp2369
I75600047
aI75601551
aS'+'
asS'AC018630.2'
p2370
(lp2371
I11076769
aI11079171
aS'-'
asS'AC018630.3'
p2372
(lp2373
I11097179
aI11097274
aS'-'
asS'AC018630.1'
p2374
(lp2375
I11048332
aI11049256
aS'-'
asS'AC018630.6'
p2376
(lp2377
I10845849
aI11171598
aS'-'
asS'TCTN2'
p2378
(lp2379
I123671113
aI123708403
aS'+'
asS'TCTN1'
p2380
(lp2381
I110614027
aI110649430
aS'+'
asS'ZBTB39'
p2382
(lp2383
I56998834
aI57006446
aS'-'
asS'POLR2KP1'
p2384
(lp2385
I49594091
aI49594258
aS'+'
asS'PCBP2'
p2386
(lp2387
I53452102
aI53481161
aS'+'
asS'C1QL4'
p2388
(lp2389
I49332411
aI49337188
aS'-'
asS'SIRT4'
p2390
(lp2391
I120302321
aI120313249
aS'+'
asS'AC107032.1'
p2392
(lp2393
I76660405
aI76660884
aS'+'
asS'RHNO1'
p2394
(lp2395
I2877199
aI2889523
aS'+'
asS'LRMP'
p2396
(lp2397
I25004342
aI25108235
aS'+'
asS'NELL2'
p2398
(lp2399
I44508603
aI44913928
aS'-'
asS'AC025259.2'
p2400
(lp2401
I51900565
aI51901336
aS'+'
asS'PEX5'
p2402
(lp2403
I7189163
aI7218571
aS'+'
asS'AC135279.2'
p2404
(lp2405
I64338178
aI64338797
aS'-'
asS'WNT5B'
p2406
(lp2407
I1529891
aI1639709
aS'+'
asS'AC119044.1'
p2408
(lp2409
I47135762
aI47138370
aS'-'
asS'SMCO2'
p2410
(lp2411
I27466810
aI27502185
aS'+'
asS'ATP5B'
p2412
(lp2413
I56638179
aI56646068
aS'-'
asS'AC090115.4'
p2414
(lp2415
I48417150
aI48417337
aS'-'
asS'TBK1'
p2416
(lp2417
I64451880
aI64502108
aS'+'
asS'ZNF740'
p2418
(lp2419
I53180700
aI53195141
aS'+'
asS'MRPS35'
p2420
(lp2421
I27710773
aI27756295
aS'+'
asS'GSTP1P1'
p2422
(lp2423
I55900300
aI55900618
aS'+'
asS'AC079601.2'
p2424
(lp2425
I42431665
aI42433357
aS'-'
asS'ARL2BPP2'
p2426
(lp2427
I52763405
aI52763893
aS'+'
asS'VAMP1'
p2428
(lp2429
I6462237
aI6470987
aS'-'
asS'PFDN5'
p2430
(lp2431
I53295291
aI53299450
aS'+'
asS'PRB1'
p2432
(lp2433
I11351823
aI11395566
aS'-'
asS'PRB2'
p2434
(lp2435
I11393972
aI11501041
aS'-'
asS'PRB3'
p2436
(lp2437
I11265956
aI11269805
aS'-'
asS'PRB4'
p2438
(lp2439
I11307083
aI11310435
aS'-'
asS'AC087312.1'
p2440
(lp2441
I24642687
aI24643166
aS'+'
asS'WSCD2'
p2442
(lp2443
I108129471
aI108250119
aS'+'
asS'ZCRB1'
p2444
(lp2445
I42312078
aI42326105
aS'-'
asS'CLEC6A'
p2446
(lp2447
I8455926
aI8478330
aS'+'
asS'AC084290.1'
p2448
(lp2449
I40286289
aI40286662
aS'+'
asS'RPL23AP14'
p2450
(lp2451
I2781904
aI2782371
aS'+'
asS'EMP1'
p2452
(lp2453
I13196716
aI13219939
aS'+'
asS'GAPDHP44'
p2454
(lp2455
I62755227
aI62756233
aS'+'
asS'ARHGEF25'
p2456
(lp2457
I57610180
aI57617243
aS'+'
asS'BTG1P1'
p2458
(lp2459
I9135084
aI9135591
aS'+'
asS'AC093012.1'
p2460
(lp2461
I43736628
aI43739189
aS'+'
asS'LALBA'
p2462
(lp2463
I48567688
aI48570066
aS'-'
asS'ARL1'
p2464
(lp2465
I101393120
aI101407820
aS'-'
asS'ETFBKMT'
p2466
(lp2467
I31647160
aI31668075
aS'+'
asS'DERA'
p2468
(lp2469
I15911172
aI16037282
aS'+'
asS'RPL21P18'
p2470
(lp2471
I66037235
aI66037714
aS'+'
asS'AC121334.1'
p2472
(lp2473
I39466442
aI39467345
aS'-'
asS'AC121334.2'
p2474
(lp2475
I39539581
aI39539851
aS'-'
asS'KRT125P'
p2476
(lp2477
I52729517
aI52736142
aS'-'
asS'SLC35E3'
p2478
(lp2479
I68752151
aI68793728
aS'+'
asS'DPY19L2'
p2480
(lp2481
I63558913
aI63668577
aS'-'
asS'ULK1'
p2482
(lp2483
I131894651
aI131923167
aS'+'
asS'GLIPR1'
p2484
(lp2485
I75480680
aI75503853
aS'+'
asS'AC026310.1'
p2486
(lp2487
I24967127
aI24967504
aS'-'
asS'TAPBPL'
p2488
(lp2489
I6452231
aI6466517
aS'+'
asS'AC121758.2'
p2490
(lp2491
I56855694
aI56855886
aS'+'
asS'AC121758.3'
p2492
(lp2493
I56840973
aI56841273
aS'-'
asS'AC121758.1'
p2494
(lp2495
I56822985
aI56874268
aS'+'
asS'DAZAP2'
p2496
(lp2497
I51238886
aI51271362
aS'+'
asS'PTPRR'
p2498
(lp2499
I70638082
aI70920843
aS'-'
asS'PTPRQ'
p2500
(lp2501
I80435083
aI80680189
aS'+'
asS'CFAP54'
p2502
(lp2503
I96489587
aI96875555
aS'+'
asS'AC092470.1'
p2504
(lp2505
I14169746
aI14169877
aS'+'
asS'LRCOL1'
p2506
(lp2507
I132603150
aI132610397
aS'-'
asS'UBE3B'
p2508
(lp2509
I109477402
aI109536705
aS'+'
asS'PTPRB'
p2510
(lp2511
I70515866
aI70637440
aS'-'
asS'PTPRO'
p2512
(lp2513
I15322397
aI15597393
aS'+'
asS'CPM'
p2514
(lp2515
I68855757
aI68963269
aS'-'
asS'AC021646.1'
p2516
(lp2517
I93035261
aI93035744
aS'+'
asS'FKBP4'
p2518
(lp2519
I2794953
aI2805423
aS'+'
asS'MFAP5'
p2520
(lp2521
I8637346
aI8662073
aS'-'
asS'METTL8P1'
p2522
(lp2523
I15255213
aI15255823
aS'-'
asS'AC126177.1'
p2524
(lp2525
I107910403
aI107912620
aS'-'
asS'HEBP1'
p2526
(lp2527
I12974864
aI13000273
aS'-'
asS'KRT89P'
p2528
(lp2529
I52341197
aI52354036
aS'+'
asS'RERGL'
p2530
(lp2531
I18081364
aI18320107
aS'-'
asS'IRAK4'
p2532
(lp2533
I43758944
aI43789543
aS'+'
asS'CAPZA3'
p2534
(lp2535
I18738101
aI18739187
aS'+'
asS'AC006065.2'
p2536
(lp2537
I126616344
aI126616554
aS'-'
asS'AC025164.1'
p2538
(lp2539
I92168400
aI92168877
aS'+'
asS'AC117503.1'
p2540
(lp2541
I123721246
aI123721639
aS'-'
asS'TIGAR'
p2542
(lp2543
I4307763
aI4354549
aS'+'
asS'AC078878.1'
p2544
(lp2545
I126864465
aI126865422
aS'+'
asS'RPL35AP28'
p2546
(lp2547
I49863173
aI49863503
aS'+'
asS'MON2'
p2548
(lp2549
I62466817
aI62600479
aS'+'
asS'SMARCD1'
p2550
(lp2551
I50084972
aI50100712
aS'+'
asS'COX6A1'
p2552
(lp2553
I120438090
aI120440742
aS'+'
asS'CCND2'
p2554
(lp2555
I4273772
aI4305350
aS'+'
asS'CEP290'
p2556
(lp2557
I88049020
aI88142216
aS'-'
asS'PRR13'
p2558
(lp2559
I53441605
aI53446633
aS'+'
asS'TAS2R7'
p2560
(lp2561
I10801532
aI10802627
aS'-'
asS'AC009533.1'
p2562
(lp2563
I9277235
aI9313241
aS'+'
asS'AC009533.2'
p2564
(lp2565
I9314402
aI9316173
aS'-'
asS'CSRP2'
p2566
(lp2567
I76858715
aI76879060
aS'-'
asS'AC125611.2'
p2568
(lp2569
I49389516
aI49390162
aS'+'
asS'ACVR1B'
p2570
(lp2571
I51951667
aI51997078
aS'+'
asS'GPR19'
p2572
(lp2573
I12661061
aI12696187
aS'-'
asS'AC003029.1'
p2574
(lp2575
I111879338
aI111880249
aS'-'
asS'CCT2'
p2576
(lp2577
I69585334
aI69601570
aS'+'
asS'RPL10P12'
p2578
(lp2579
I68626870
aI68627187
aS'-'
asS'RPL10P13'
p2580
(lp2581
I75688794
aI75689096
aS'-'
asS'AC027287.1'
p2582
(lp2583
I55122668
aI55124120
aS'-'
asS'ANHX'
p2584
(lp2585
I133218312
aI133236095
aS'-'
asS'PLXNC1'
p2586
(lp2587
I94148723
aI94307675
aS'+'
asS'OR6C5P'
p2588
(lp2589
I55311835
aI55312757
aS'+'
asS'PRDM4'
p2590
(lp2591
I107732866
aI107761160
aS'-'
asS'GYS2'
p2592
(lp2593
I21536189
aI21604847
aS'-'
asS'PDE6H'
p2594
(lp2595
I14973022
aI14981865
aS'+'
asS'KRT18'
p2596
(lp2597
I52948871
aI52952900
aS'+'
asS'AC005912.1'
p2598
(lp2599
I3211663
aI3211917
aS'-'
asS'TESPA1'
p2600
(lp2601
I54950081
aI54984672
aS'-'
asS'AC034102.1'
p2602
(lp2603
I55980432
aI55981035
aS'-'
asS'POLE'
p2604
(lp2605
I132623762
aI132687359
aS'-'
asS'AC024909.2'
p2606
(lp2607
I89319364
aI89319649
aS'+'
asS'AC026366.1'
p2608
(lp2609
I118246084
aI118246962
aS'+'
asS'DCTN2'
p2610
(lp2611
I57530102
aI57547331
aS'-'
asS'RBMS2P1'
p2612
(lp2613
I94423744
aI94424969
aS'-'
asS'SLC4A8'
p2614
(lp2615
I51391317
aI51515763
aS'+'
asS'AC078817.1'
p2616
(lp2617
I80102899
aI80103333
aS'-'
asS'FAM186B'
p2618
(lp2619
I49582886
aI49605627
aS'-'
asS'FAM186A'
p2620
(lp2621
I50326230
aI50396622
aS'-'
asS'KNTC1'
p2622
(lp2623
I122527248
aI122626396
aS'+'
asS'APOOP3'
p2624
(lp2625
I65134688
aI65135273
aS'+'
asS'RAD51AP1'
p2626
(lp2627
I4538890
aI4560048
aS'+'
asS'RPL21P1'
p2628
(lp2629
I122364782
aI122365632
aS'+'
asS'RBM19'
p2630
(lp2631
I113816742
aI113966306
aS'-'
asS'MVK'
p2632
(lp2633
I109573812
aI109597266
aS'+'
asS'FAIM2'
p2634
(lp2635
I49866896
aI49903887
aS'-'
asS'RPS10P20'
p2636
(lp2637
I48487946
aI48488408
aS'+'
asS'POC1B-GALNT4'
p2638
(lp2639
I89519408
aI89526198
aS'-'
asS'NTS'
p2640
(lp2641
I85874297
aI85882992
aS'+'
asS'CLLU1OS'
p2642
(lp2643
I92420094
aI92428148
aS'-'
asS'A2ML1'
p2644
(lp2645
I8822472
aI8876785
aS'+'
asS'MARS'
p2646
(lp2647
I57487294
aI57517569
aS'+'
asS'PSMD9'
p2648
(lp2649
I121888731
aI121918297
aS'+'
asS'KLRD1'
p2650
(lp2651
I10226066
aI10315009
aS'+'
asS'KCNC2'
p2652
(lp2653
I75040078
aI75209868
aS'-'
asS'SUPT16HP1'
p2654
(lp2655
I16399274
aI16402406
aS'-'
asS'SNRPGP20'
p2656
(lp2657
I79989014
aI79989218
aS'-'
asS'CPSF6'
p2658
(lp2659
I69239537
aI69274358
aS'+'
asS'ZNF10'
p2660
(lp2661
I133130592
aI133159465
aS'+'
asS'CLLU1'
p2662
(lp2663
I92421531
aI92431002
aS'+'
asS'AC079866.1'
p2664
(lp2665
I63887379
aI63888598
aS'-'
asS'AC069262.1'
p2666
(lp2667
I128944274
aI128945203
aS'-'
asS'PPFIA2'
p2668
(lp2669
I81258266
aI81759330
aS'-'
asS'VTI1BP3'
p2670
(lp2671
I53131350
aI53131985
aS'+'
asS'SELPLG'
p2672
(lp2673
I108622277
aI108633959
aS'-'
asS'CNOT2'
p2674
(lp2675
I70242994
aI70354992
aS'+'
asS'AC092865.2'
p2676
(lp2677
I8427640
aI8428610
aS'-'
asS'AC092865.3'
p2678
(lp2679
I8414780
aI8415805
aS'-'
asS'AC092865.4'
p2680
(lp2681
I8460618
aI8461232
aS'+'
asS'AC092865.5'
p2682
(lp2683
I8406833
aI8407195
aS'-'
asS'HSD17B6'
p2684
(lp2685
I56752161
aI56787736
aS'+'
asS'ZNF641'
p2686
(lp2687
I48337180
aI48350771
aS'-'
asS'NOS1'
p2688
(lp2689
I117208144
aI117361802
aS'-'
asS'ITGB7'
p2690
(lp2691
I53191318
aI53207307
aS'-'
asS'SCN8A'
p2692
(lp2693
I51591236
aI51812864
aS'+'
asS'YARS2'
p2694
(lp2695
I32727490
aI32750107
aS'-'
asS'ATN1'
p2696
(lp2697
I6924463
aI6942321
aS'+'
asS'KRT19P2'
p2698
(lp2699
I94834147
aI94835158
aS'+'
asS'COPS7A'
p2700
(lp2701
I6723741
aI6731856
aS'+'
asS'MBD6'
p2702
(lp2703
I57522744
aI57530148
aS'+'
asS'AC048341.1'
p2704
(lp2705
I62658823
aI62659225
aS'+'
asS'AC005833.1'
p2706
(lp2707
I4809176
aI4813412
aS'+'
asS'AICDA'
p2708
(lp2709
I8602166
aI8612871
aS'-'
asS'AC005833.3'
p2710
(lp2711
I4669741
aI4744581
aS'+'
asS'TSPAN19'
p2712
(lp2713
I85014318
aI85036277
aS'-'
asS'AVPR1A'
p2714
(lp2715
I63142759
aI63150942
aS'-'
asS'TSPAN11'
p2716
(lp2717
I30926958
aI30996599
aS'+'
asS'AK4P3'
p2718
(lp2719
I31615771
aI31616439
aS'-'
asS'PKP2'
p2720
(lp2721
I32790745
aI32896840
aS'-'
asS'SUPT4H1P2'
p2722
(lp2723
I8512374
aI8512726
aS'-'
asS'RASAL1'
p2724
(lp2725
I113098819
aI113136224
aS'-'
asS'PEBP1'
p2726
(lp2727
I118135858
aI118145584
aS'+'
asS'SMAGP'
p2728
(lp2729
I51244558
aI51270890
aS'-'
asS'RAN'
p2730
(lp2731
I130871879
aI130877678
aS'+'
asS'P3H3'
p2732
(lp2733
I6828410
aI6839851
aS'+'
asS'NDUFA12'
p2734
(lp2735
I94897055
aI95003660
aS'-'
asS'ZNF268'
p2736
(lp2737
I133181409
aI133214831
aS'+'
asS'METTL7A'
p2738
(lp2739
I50923472
aI50932510
aS'+'
asS'ZNF705A'
p2740
(lp2741
I8157034
aI8177301
aS'+'
asS'PLBD2'
p2742
(lp2743
I113358570
aI113391625
aS'+'
asS'PLBD1'
p2744
(lp2745
I14503661
aI14568349
aS'-'
asS'POU5F1P3'
p2746
(lp2747
I8133772
aI8134849
aS'-'
asS'RFLNA'
p2748
(lp2749
I123973241
aI124316022
aS'+'
asS'AC007068.2'
p2750
(lp2751
I9817350
aI9818025
aS'-'
asS'RPH3A'
p2752
(lp2753
I112575097
aI112896914
aS'+'
asS'AC092865.1'
p2754
(lp2755
I8437403
aI8438425
aS'-'
asS'GOLGA2P5'
p2756
(lp2757
I100156412
aI100173659
aS'-'
asS'AC005252.1'
p2758
(lp2759
I125900421
aI125901483
aS'-'
asS'KRT126P'
p2760
(lp2761
I52715567
aI52721655
aS'-'
asS'CLECL1'
p2762
(lp2763
I9716561
aI9733119
aS'-'
asS'ALDH1L2'
p2764
(lp2765
I105019790
aI105084577
aS'-'
asS'RPL23AP66'
p2766
(lp2767
I12338776
aI12339254
aS'+'
asS'YEATS4'
p2768
(lp2769
I69359703
aI69390796
aS'+'
asS'AC008013.1'
p2770
(lp2771
I30978364
aI31005920
aS'-'
asS'MMAB'
p2772
(lp2773
I109553737
aI109573874
aS'-'
asS'HSPD1P12'
p2774
(lp2775
I8015024
aI8016406
aS'+'
asS'DDX11L8'
p2776
(lp2777
I12310
aI13501
aS'+'
asS'AC079953.1'
p2778
(lp2779
I101228141
aI101228876
aS'-'
asS'SUDS3'
p2780
(lp2781
I118376380
aI118418031
aS'+'
asS'WIF1'
p2782
(lp2783
I65050626
aI65121566
aS'-'
asS'CENPCP1'
p2784
(lp2785
I89500093
aI89502670
aS'+'
asS'AC128657.1'
p2786
(lp2787
I84939524
aI84939668
aS'-'
asS'RBMS1P1'
p2788
(lp2789
I66234079
aI66235234
aS'-'
asS'SLC11A2'
p2790
(lp2791
I50979535
aI51026359
aS'-'
asS'AC137834.1'
p2792
(lp2793
I57249609
aI57296484
aS'-'
asS'TIMELESS'
p2794
(lp2795
I56416373
aI56449399
aS'-'
asS'NLRP9P1'
p2796
(lp2797
I129013336
aI129016663
aS'+'
asS'AC087588.1'
p2798
(lp2799
I32863118
aI32863433
aS'+'
asS'ORAI1'
p2800
(lp2801
I121626550
aI121642677
aS'+'
asS'OR6C69P'
p2802
(lp2803
I55262539
aI55263431
aS'+'
asS'UHRF1BP1L'
p2804
(lp2805
I100037076
aI100142848
aS'-'
asS'GALNT9'
p2806
(lp2807
I132196509
aI132329203
aS'-'
asS'C12orf29'
p2808
(lp2809
I88035446
aI88050160
aS'+'
asS'GALNT4'
p2810
(lp2811
I89519408
aI89524806
aS'-'
asS'GALNT6'
p2812
(lp2813
I51353753
aI51391409
aS'-'
asS'AC018653.2'
p2814
(lp2815
I7237432
aI7240986
aS'+'
asS'EIF4B'
p2816
(lp2817
I53006158
aI53042209
aS'+'
asS'AVIL'
p2818
(lp2819
I57797882
aI57816471
aS'-'
asS'AC004263.1'
p2820
(lp2821
I120247460
aI120247791
aS'+'
asS'TTC41P'
p2822
(lp2823
I103843756
aI103915867
aS'-'
asS'AC084880.1'
p2824
(lp2825
I119194850
aI119195394
aS'+'
asS'AC087883.1'
p2826
(lp2827
I60215994
aI60216384
aS'+'
asS'SFSWAP'
p2828
(lp2829
I131711089
aI131799737
aS'+'
asS'PIWIL1'
p2830
(lp2831
I130337887
aI130372637
aS'+'
asS'RFC5'
p2832
(lp2833
I118016722
aI118032234
aS'+'
asS'PGAM5'
p2834
(lp2835
I132710819
aI132722734
aS'+'
asS'AC004217.1'
p2836
(lp2837
I112301870
aI112302663
aS'-'
asS'CBX5'
p2838
(lp2839
I54230940
aI54280102
aS'-'
asS'KRT18P20'
p2840
(lp2841
I104976749
aI104978027
aS'-'
asS'AC087257.2'
p2842
(lp2843
I27592461
aI27594039
aS'-'
asS'CHPT1'
p2844
(lp2845
I101697965
aI101729646
aS'+'
asS'AC007424.1'
p2846
(lp2847
I97713412
aI97753598
aS'-'
asS'ZNF75BP'
p2848
(lp2849
I44008620
aI44010143
aS'-'
asS'ASCL1'
p2850
(lp2851
I102957686
aI102960516
aS'+'
asS'ASCL4'
p2852
(lp2853
I107774385
aI107776644
aS'+'
asS'GAPDH'
p2854
(lp2855
I6533927
aI6538371
aS'+'
asS'UNG'
p2856
(lp2857
I109097574
aI109110992
aS'+'
asS'AC087879.1'
p2858
(lp2859
I73648666
aI73649039
aS'+'
asS'ALDH2'
p2860
(lp2861
I111766922
aI111817529
aS'+'
asS'AC063943.1'
p2862
(lp2863
I120522664
aI120523443
aS'-'
asS'AC112777.1'
p2864
(lp2865
I20551590
aI20553012
aS'+'
asS'AC063943.2'
p2866
(lp2867
I120594015
aI120594548
aS'-'
asS'RAD52'
p2868
(lp2869
I912545
aI990053
aS'-'
asS'NPFF'
p2870
(lp2871
I53506690
aI53507638
aS'-'
asS'AMIGO2'
p2872
(lp2873
I47075707
aI47079865
aS'-'
asS'USP5'
p2874
(lp2875
I6852128
aI6866629
aS'+'
asS'AL021546.1'
p2876
(lp2877
I120438198
aI120460006
aS'+'
asS'SPATS2'
p2878
(lp2879
I49367465
aI49527424
aS'+'
asS'AC005183.1'
p2880
(lp2881
I1695830
aI1698044
aS'-'
asS'RNF34'
p2882
(lp2883
I121400144
aI121430623
aS'+'
asS'SOX5'
p2884
(lp2885
I23532298
aI23949703
aS'-'
asS'ZNF891'
p2886
(lp2887
I133106817
aI133130473
aS'-'
asS'GABARAPL1'
p2888
(lp2889
I10212805
aI10223130
aS'+'
asS'PRR4'
p2890
(lp2891
I10845849
aI11171613
aS'-'
asS'PFKM'
p2892
(lp2893
I48105923
aI48146104
aS'+'
asS'ABCB9'
p2894
(lp2895
I122929000
aI122981649
aS'-'
asS'CRACR2A'
p2896
(lp2897
I3615328
aI3753102
aS'-'
asS'KLRC1'
p2898
(lp2899
I10442264
aI10454685
aS'-'
asS'KLRC3'
p2900
(lp2901
I10412312
aI10420595
aS'-'
asS'KLRC2'
p2902
(lp2903
I10430980
aI10442300
aS'-'
asS'KLRC4'
p2904
(lp2905
I10407382
aI10409757
aS'-'
asS'EEF1A1P4'
p2906
(lp2907
I19456244
aI19457648
aS'-'
asS'MFSD5'
p2908
(lp2909
I53251586
aI53254405
aS'+'
asS'AC008055.1'
p2910
(lp2911
I98317741
aI98318349
aS'+'
asS'C1GALT1P1'
p2912
(lp2913
I69284397
aI69285485
aS'+'
asS'CLEC4E'
p2914
(lp2915
I8533305
aI8540963
aS'-'
asS'CLEC4D'
p2916
(lp2917
I8509475
aI8520273
aS'+'
asS'CLEC4C'
p2918
(lp2919
I7729415
aI7751605
aS'-'
asS'CLEC4A'
p2920
(lp2921
I8096207
aI8138548
aS'+'
asS'TM7SF3'
p2922
(lp2923
I26973195
aI27014394
aS'-'
asS'MLEC'
p2924
(lp2925
I120686869
aI120701864
aS'+'
asS'MYL6'
p2926
(lp2927
I56158368
aI56163008
aS'+'
asS'MYL2'
p2928
(lp2929
I110910819
aI110920577
aS'-'
asS'RAPGEF3'
p2930
(lp2931
I47737246
aI47771034
aS'-'
asS'AC008033.2'
p2932
(lp2933
I68487687
aI68487863
aS'+'
asS'KRT127P'
p2934
(lp2935
I52751978
aI52753821
aS'-'
asS'ZNF384'
p2936
(lp2937
I6666477
aI6689510
aS'-'
asS'C1RL'
p2938
(lp2939
I7093707
aI7109197
aS'-'
asS'BHLHE41'
p2940
(lp2941
I26120026
aI26125127
aS'-'
asS'INHBC'
p2942
(lp2943
I57434760
aI57450828
aS'+'
asS'INHBE'
p2944
(lp2945
I57452323
aI57459280
aS'+'
asS'OLA1P3'
p2946
(lp2947
I55870048
aI55872602
aS'-'
asS'CFAP73'
p2948
(lp2949
I113149858
aI113159276
aS'+'
asS'OR6C73P'
p2950
(lp2951
I55396340
aI55396697
aS'+'
asS'MDM1'
p2952
(lp2953
I68294568
aI68332332
aS'-'
asS'MDM2'
p2954
(lp2955
I68808176
aI68850686
aS'+'
asS'SLC8B1'
p2956
(lp2957
I113321196
aI113359493
aS'-'
asS'SMUG1'
p2958
(lp2959
I54121279
aI54189008
aS'-'
asS'OR11M1P'
p2960
(lp2961
I48627888
aI48628782
aS'+'
asS'AC092850.1'
p2962
(lp2963
I131292068
aI131293176
aS'-'
asS'LRTM2'
p2964
(lp2965
I1820267
aI1836752
aS'+'
asS'AC005840.4'
p2966
(lp2967
I6477714
aI6480207
aS'+'
asS'AC005840.2'
p2968
(lp2969
I6438498
aI6438852
aS'+'
asS'AC005840.1'
p2970
(lp2971
I6409637
aI6410013
aS'-'
asS'AC004815.1'
p2972
(lp2973
I119959424
aI119959754
aS'+'
asS'AC007688.1'
p2974
(lp2975
I12850982
aI12851740
aS'+'
asS'UNC119B'
p2976
(lp2977
I120710435
aI120723640
aS'+'
asS'FRS2'
p2978
(lp2979
I69470406
aI69579782
aS'+'
asS'GOLT1B'
p2980
(lp2981
I21501815
aI21518408
aS'+'
asS'MRPS18CP4'
p2982
(lp2983
I14237091
aI14237321
aS'+'
asS'AC004801.1'
p2984
(lp2985
I48085062
aI48085421
aS'+'
asS'AC004801.2'
p2986
(lp2987
I48054813
aI48055591
aS'-'
asS'APOLD1'
p2988
(lp2989
I12725929
aI12829975
aS'+'
asS'MAP1LC3B2'
p2990
(lp2991
I116559381
aI116576448
aS'+'
asS'TNFRSF1A'
p2992
(lp2993
I6328757
aI6342114
aS'-'
asS'AC233290.1'
p2994
(lp2995
I76137425
aI76138610
aS'+'
asS'RPAP3'
p2996
(lp2997
I47661249
aI47706061
aS'-'
asS'AC233290.2'
p2998
(lp2999
I76115711
aI76116100
aS'+'
asS'AC073610.3'
p3000
(lp3001
I48903503
aI48957365
aS'-'
asS'CD4'
p3002
(lp3003
I6789472
aI6820808
aS'+'
asS'C12orf10'
p3004
(lp3005
I53299686
aI53307158
aS'+'
asS'AC026333.2'
p3006
(lp3007
I122749481
aI122749586
aS'-'
asS'CAPS2'
p3008
(lp3009
I75277229
aI75390922
aS'-'
asS'ARNTL2'
p3010
(lp3011
I27332854
aI27425289
aS'+'
asS'CD9'
p3012
(lp3013
I6199715
aI6238261
aS'+'
asS'DRAM1'
p3014
(lp3015
I101908314
aI102012130
aS'+'
asS'STAT6'
p3016
(lp3017
I57096341
aI57129100
aS'-'
asS'ADIPOR2'
p3018
(lp3019
I1691027
aI1788678
aS'+'
asS'STAT2'
p3020
(lp3021
I56342710
aI56360074
aS'-'
asS'KLF17P1'
p3022
(lp3023
I62234390
aI62235515
aS'-'
asS'OR8T1P'
p3024
(lp3025
I48442030
aI48442947
aS'-'
asS'AC073651.2'
p3026
(lp3027
I15803164
aI15804158
aS'+'
asS'CTDSP2'
p3028
(lp3029
I57819927
aI57846739
aS'-'
asS'AC117500.1'
p3030
(lp3031
I131667492
aI131668246
aS'+'
asS'FBXL14'
p3032
(lp3033
I1565993
aI1594165
aS'-'
asS'NANOGNB'
p3034
(lp3035
I7765216
aI7774121
aS'+'
asS'CD63'
p3036
(lp3037
I55725482
aI55729707
aS'-'
asS'CD69'
p3038
(lp3039
I9752486
aI9760901
aS'-'
asS'OR7E47P'
p3040
(lp3041
I52079696
aI52108239
aS'+'
asS'AC011611.1'
p3042
(lp3043
I75964799
aI75964995
aS'+'
asS'LRP6'
p3044
(lp3045
I12116025
aI12266812
aS'-'
asS'NEUROD4'
p3046
(lp3047
I55019945
aI55030014
aS'+'
asS'AC011611.5'
p3048
(lp3049
I76057538
aI76058115
aS'+'
asS'DDX55P1'
p3050
(lp3051
I11512723
aI11514136
aS'+'
asS'TMTC3'
p3052
(lp3053
I88142296
aI88199887
aS'+'
asS'METTL7B'
p3054
(lp3055
I55681546
aI55684611
aS'+'
asS'PRKAG1'
p3056
(lp3057
I49002281
aI49019197
aS'-'
asS'AC090022.1'
p3058
(lp3059
I60418983
aI60419293
aS'+'
asS'AC084824.1'
p3060
(lp3061
I32726383
aI32727387
aS'-'
asS'GPD1'
p3062
(lp3063
I50103819
aI50111319
aS'+'
asS'AACS'
p3064
(lp3065
I125065379
aI125143320
aS'+'
asS'NOC4L'
p3066
(lp3067
I132144448
aI132152441
aS'+'
asS'AC012158.1'
p3068
(lp3069
I64222337
aI64397065
aS'+'
asS'TEAD4'
p3070
(lp3071
I2959330
aI3040665
aS'+'
asS'AC090049.2'
p3072
(lp3073
I91871122
aI91871230
aS'-'
asS'DUX4L27'
p3074
(lp3075
I34208415
aI34209675
aS'-'
asS'AC011603.5'
p3076
(lp3077
I49075039
aI49075802
aS'+'
asS'ATP5G2'
p3078
(lp3079
I53632726
aI53669212
aS'-'
asS'KMT2D'
p3080
(lp3081
I49018975
aI49055324
aS'-'
asS'HSPB8'
p3082
(lp3083
I119179590
aI119221131
aS'+'
asS'C12orf73'
p3084
(lp3085
I103950202
aI103965695
aS'-'
asS'TIMM17BP1'
p3086
(lp3087
I17400399
aI17400914
aS'+'
asS'HCFC2'
p3088
(lp3089
I104064457
aI104106524
aS'+'
asS'AC008126.1'
p3090
(lp3091
I98794485
aI98794964
aS'+'
asS'AC084357.3'
p3092
(lp3093
I63684748
aI63724935
aS'-'
asS'TFCP2'
p3094
(lp3095
I51093663
aI51172881
aS'-'
asS'ABCC9'
p3096
(lp3097
I21797401
aI21936674
aS'-'
asS'AC055716.2'
p3098
(lp3099
I52730425
aI52732865
aS'+'
asS'CKAP4'
p3100
(lp3101
I106239894
aI106304251
aS'-'
asS'WASHC3'
p3102
(lp3103
I102012939
aI102062124
aS'-'
asS'KLRB1'
p3104
(lp3105
I9594551
aI9607886
aS'-'
asS'DNAH10'
p3106
(lp3107
I123762188
aI123936206
aS'+'
asS'WASHC4'
p3108
(lp3109
I105107714
aI105169134
aS'+'
asS'ATP23'
p3110
(lp3111
I57941577
aI57957269
aS'+'
asS'OR6C72P'
p3112
(lp3113
I55283750
aI55284641
aS'+'
asS'AC091805.2'
p3114
(lp3115
I19418927
aI19419161
aS'-'
asS'AC091805.1'
p3116
(lp3117
I19508904
aI19509245
aS'+'
asS'A2MP1'
p3118
(lp3119
I9229376
aI9275817
aS'-'
asS'AC018448.2'
p3120
(lp3121
I38994803
aI38996882
aS'-'
asS'NAV3'
p3122
(lp3123
I77324641
aI78007031
aS'+'
asS'GOLGA3'
p3124
(lp3125
I132768909
aI132828702
aS'-'
asS'EP400NL'
p3126
(lp3127
I132084313
aI132126197
aS'+'
asS'AC089999.1'
p3128
(lp3129
I113054062
aI113054435
aS'+'
asS'ISCU'
p3130
(lp3131
I108562601
aI108569384
aS'+'
asS'FAM19A2'
p3132
(lp3133
I61708277
aI62260144
aS'-'
asS'MSRB3'
p3134
(lp3135
I65278744
aI65488095
aS'+'
asS'ATP2B1'
p3136
(lp3137
I89588072
aI89708831
aS'-'
asS'TSPAN8'
p3138
(lp3139
I71125085
aI71441898
aS'-'
asS'TSPAN9'
p3140
(lp3141
I3077355
aI3286564
aS'+'
asS'CACNA2D4'
p3142
(lp3143
I1791957
aI1918836
aS'-'
asS'AC048338.1'
p3144
(lp3145
I122207779
aI122266423
aS'-'
asS'RAB11AP2'
p3146
(lp3147
I67131567
aI67132205
aS'-'
asS'PTMS'
p3148
(lp3149
I6765516
aI6770875
aS'+'
asS'KDM5A'
p3150
(lp3151
I280129
aI389454
aS'-'
asS'RPL31P50'
p3152
(lp3153
I31597114
aI31597409
aS'-'
asS'RPL31P52'
p3154
(lp3155
I120450437
aI120450803
aS'-'
asS'AC023157.2'
p3156
(lp3157
I31748100
aI31748240
aS'-'
asS'AC023157.1'
p3158
(lp3159
I31754720
aI31755121
aS'+'
asS'UBE2L2'
p3160
(lp3161
I20449655
aI20450083
aS'-'
asS'DCP1B'
p3162
(lp3163
I1946054
aI2004511
aS'-'
asS'MAPKAPK5'
p3164
(lp3165
I111841978
aI111902238
aS'+'
asS'AC013244.2'
p3166
(lp3167
I50806335
aI50806437
aS'-'
asS'AC013244.3'
p3168
(lp3169
I50847925
aI50848312
aS'-'
asS'AC013244.1'
p3170
(lp3171
I50756892
aI50757433
aS'+'
asS'TUBA1C'
p3172
(lp3173
I49208546
aI49256489
aS'+'
asS'TUBA1B'
p3174
(lp3175
I49127782
aI49131395
aS'-'
asS'TUBA1A'
p3176
(lp3177
I49184796
aI49189324
aS'-'
asS'OR9K1P'
p3178
(lp3179
I55115533
aI55116473
aS'+'
asS'KLRF1'
p3180
(lp3181
I9827481
aI9845007
aS'+'
asS'ZFC3H1'
p3182
(lp3183
I71609472
aI71663969
aS'-'
asS'OS9'
p3184
(lp3185
I57694121
aI57721555
aS'+'
asS'HCAR3'
p3186
(lp3187
I122714756
aI122716892
aS'-'
asS'HCAR2'
p3188
(lp3189
I122701293
aI122703343
aS'-'
asS'HCAR1'
p3190
(lp3191
I122726076
aI122730843
aS'-'
asS'RIMKLB'
p3192
(lp3193
I8681691
aI8783095
aS'+'
asS'AC126615.2'
p3194
(lp3195
I95100531
aI95101045
aS'+'
asS'AC126615.1'
p3196
(lp3197
I95125760
aI95126389
aS'+'
asS'AC007536.1'
p3198
(lp3199
I7896608
aI7896956
aS'-'
asS'ETV6'
p3200
(lp3201
I11649854
aI11895402
aS'+'
asS'OR5BK1P'
p3202
(lp3203
I48355792
aI48356614
aS'-'
asS'LRRC10'
p3204
(lp3205
I69608564
aI69611162
aS'-'
asS'KRT128P'
p3206
(lp3207
I52632866
aI52634456
aS'-'
asS'TSPAN31'
p3208
(lp3209
I57738013
aI57747062
aS'+'
asS'SVOP'
p3210
(lp3211
I108907741
aI109021240
aS'-'
asS'GLIPR1L1'
p3212
(lp3213
I75334683
aI75370560
aS'+'
asS'GLIPR1L2'
p3214
(lp3215
I75391070
aI75432688
aS'+'
asS'IKZF4'
p3216
(lp3217
I56007659
aI56038435
aS'+'
asS'TMED2'
p3218
(lp3219
I123584531
aI123598577
aS'+'
asS'AC117498.3'
p3220
(lp3221
I48800576
aI48801086
aS'-'
asS'BTBD10P1'
p3222
(lp3223
I52748776
aI52750127
aS'+'
asS'AC016957.1'
p3224
(lp3225
I32007127
aI32007435
aS'+'
asS'ADAM1A'
p3226
(lp3227
I111899263
aI111901391
aS'+'
asS'ARL6IP4'
p3228
(lp3229
I122980060
aI122982913
aS'+'
asS'HMGA2'
p3230
(lp3231
I65824131
aI65966295
aS'+'
asS'ADAM1B'
p3232
(lp3233
I111927018
aI111929017
aS'+'
asS'OR6C3'
p3234
(lp3235
I55331701
aI55332636
aS'+'
asS'OR6C2'
p3236
(lp3237
I55452214
aI55453152
aS'+'
asS'OR6C1'
p3238
(lp3239
I55320561
aI55321624
aS'+'
asS'OR6C6'
p3240
(lp3241
I55294288
aI55295232
aS'-'
asS'OR6C4'
p3242
(lp3243
I55551199
aI55552244
aS'+'
asS'ESYT1'
p3244
(lp3245
I56128056
aI56144671
aS'+'
asS'PLEKHA8P1'
p3246
(lp3247
I45173064
aI45216006
aS'-'
asS'NANOGNBP2'
p3248
(lp3249
I132972338
aI132972890
aS'-'
asS'AC141557.1'
p3250
(lp3251
I9398355
aI9414851
aS'-'
asS'RPL7P40'
p3252
(lp3253
I17121716
aI17122460
aS'+'
asS'RPL7P41'
p3254
(lp3255
I52885429
aI52886385
aS'+'
asS'RPL7P42'
p3256
(lp3257
I68684595
aI68686308
aS'+'
asS'RPL7P43'
p3258
(lp3259
I76721534
aI76722286
aS'+'
asS'AC134349.2'
p3260
(lp3261
I11158785
aI11159694
aS'-'
asS'CIT'
p3262
(lp3263
I119685790
aI119877291
aS'-'
asS'RAB35'
p3264
(lp3265
I120095095
aI120116839
aS'-'
asS'CAND1'
p3266
(lp3267
I67269281
aI67319951
aS'+'
asS'AC025260.1'
p3268
(lp3269
I93529560
aI93529989
aS'-'
asS'AC055716.1'
p3270
(lp3271
I52746596
aI52748308
aS'-'
asS'AC084357.1'
p3272
(lp3273
I63760358
aI63760612
aS'-'
asS'DAO'
p3274
(lp3275
I108858932
aI108900921
aS'+'
asS'GLI1'
p3276
(lp3277
I57460135
aI57472260
aS'+'
asS'CD163L1'
p3278
(lp3279
I7354960
aI7444185
aS'-'
asS'AC010186.2'
p3280
(lp3281
I9617284
aI9657441
aS'+'
asS'LDHB'
p3282
(lp3283
I21644050
aI21757857
aS'-'
asS'BICD1'
p3284
(lp3285
I32107151
aI32383633
aS'+'
asS'NDUFA5P6'
p3286
(lp3287
I126524248
aI126524626
aS'+'
asS'PLEKHG6'
p3288
(lp3289
I6310436
aI6328505
aS'+'
asS'PLEKHG7'
p3290
(lp3291
I92721462
aI92772455
aS'+'
asS'DUX4L52'
p3292
(lp3293
I61600067
aI61600843
aS'-'
asS'CD163'
p3294
(lp3295
I7470813
aI7503893
aS'-'
asS'AC084373.1'
p3296
(lp3297
I39170646
aI39170880
aS'+'
asS'DNM1L'
p3298
(lp3299
I32679200
aI32745650
aS'+'
as.