(dp1
S'FABP5P1'
p2
(lp3
I73100575
aI73100985
aS'-'
asS'RNF17'
p4
(lp5
I24764152
aI24879921
aS'+'
asS'FABP5P4'
p6
(lp7
I92180715
aI92180885
aS'-'
asS'UBL3'
p8
(lp9
I29764371
aI29850684
aS'-'
asS'GTF2IP3'
p10
(lp11
I19026001
aI19032626
aS'-'
asS'TMCO3'
p12
(lp13
I113490995
aI113550195
aS'+'
asS'PSPC1'
p14
(lp15
I19674756
aI19782917
aS'-'
asS'ACOD1'
p16
(lp17
I76948497
aI76958642
aS'+'
asS'FABP5P2'
p18
(lp19
I51966742
aI51967149
aS'+'
asS'UBAC2'
p20
(lp21
I99200909
aI99386427
aS'+'
asS'FABP3P2'
p22
(lp23
I42369259
aI42369657
aS'-'
asS'SNX18P26'
p24
(lp25
I18807279
aI18808018
aS'-'
asS'ELOBP1'
p26
(lp27
I25365799
aI25366155
aS'-'
asS'HSP90AB6P'
p28
(lp29
I96883842
aI96885821
aS'-'
asS'HCFC2P1'
p30
(lp31
I108480226
aI108481817
aS'+'
asS'GPR180'
p32
(lp33
I94601903
aI94634645
aS'+'
asS'GPR183'
p34
(lp35
I99294530
aI99307405
aS'-'
asS'COMMD6'
p36
(lp37
I75526436
aI75549428
aS'-'
asS'POLR2KP2'
p38
(lp39
I48134358
aI48134534
aS'-'
asS'ZC3H13'
p40
(lp41
I45954465
aI46052746
aS'-'
asS'MRPL57'
p42
(lp43
I21176645
aI21179084
aS'+'
asS'MTND3P1'
p44
(lp45
I22113119
aI22113338
aS'-'
asS'MEDAG'
p46
(lp47
I30906191
aI30925572
aS'+'
asS'RPL13AP25'
p48
(lp49
I54440704
aI54441315
aS'-'
asS'ZMYM2'
p50
(lp51
I19958670
aI20091829
aS'+'
asS'RPL39P29'
p52
(lp53
I102263046
aI102263202
aS'-'
asS'SLITRK5'
p54
(lp55
I87672615
aI87696272
aS'+'
asS'CASC4P1'
p56
(lp57
I19563589
aI19564900
aS'-'
asS'SLITRK1'
p58
(lp59
I83877205
aI83882393
aS'-'
asS'FP565324.1'
p60
(lp61
I113953705
aI113973997
aS'-'
asS'SERP2'
p62
(lp63
I44373842
aI44397714
aS'+'
asS'MTUS2'
p64
(lp65
I28820348
aI29505947
aS'+'
asS'FTLP8'
p66
(lp67
I97986950
aI97987216
aS'-'
asS'LAMTOR3P1'
p68
(lp69
I36922539
aI36922908
aS'+'
asS'AL445647.2'
p70
(lp71
I87765752
aI87765881
aS'-'
asS'GTF2F2'
p72
(lp73
I45120515
aI45284909
aS'+'
asS'FGFR1OP2P1'
p74
(lp75
I26905362
aI26905861
aS'+'
asS'AL359736.2'
p76
(lp77
I24323021
aI24323457
aS'+'
asS'PRDX2P1'
p78
(lp79
I30296147
aI30296735
aS'+'
asS'RPL29P29'
p80
(lp81
I88236547
aI88236969
aS'-'
asS'RPL29P28'
p82
(lp83
I36926438
aI36927219
aS'-'
asS'N4BP2L2'
p84
(lp85
I32432489
aI32538885
aS'-'
asS'CYCSP34'
p86
(lp87
I40863599
aI40863902
aS'-'
asS'BIVM-ERCC5'
p88
(lp89
I102799110
aI102875994
aS'+'
asS'CYCSP32'
p90
(lp91
I19458398
aI19458718
aS'-'
asS'CYCSP33'
p92
(lp93
I24400703
aI24401029
aS'+'
asS'ENOX1'
p94
(lp95
I43213518
aI43786908
aS'-'
asS'TNFSF11'
p96
(lp97
I42562736
aI42607174
aS'+'
asS'GPR12'
p98
(lp99
I26755200
aI26760785
aS'-'
asS'FO681491.1'
p100
(lp101
I18413127
aI18431605
aS'+'
asS'PDS5B'
p102
(lp103
I32586427
aI32778019
aS'+'
asS'POLR1D'
p104
(lp105
I27621875
aI27744237
aS'+'
asS'EDNRB'
p106
(lp107
I77895481
aI77919768
aS'-'
asS'COX7CP1'
p108
(lp109
I49187479
aI49187670
aS'-'
asS'SERPINE3'
p110
(lp111
I51335773
aI51364735
aS'+'
asS'POM121L13P'
p112
(lp113
I28778558
aI28778937
aS'+'
asS'BRK1P2'
p114
(lp115
I91023732
aI91023954
aS'-'
asS'OR7E37P'
p116
(lp117
I41442770
aI41443666
aS'+'
asS'XPO4'
p118
(lp119
I20777329
aI20902810
aS'-'
asS'RPS7P10'
p120
(lp121
I21628413
aI21629015
aS'-'
asS'MTND4P1'
p122
(lp123
I84520103
aI84521568
aS'+'
asS'GSX1'
p124
(lp125
I27792643
aI27794768
aS'+'
asS'AL356423.1'
p126
(lp127
I98553243
aI98553780
aS'+'
asS'ZIC5'
p128
(lp129
I99962964
aI99971909
aS'-'
asS'ZIC2'
p130
(lp131
I99981772
aI99986773
aS'+'
asS'RBM22P2'
p132
(lp133
I30539597
aI30543461
aS'-'
asS'DAOA'
p134
(lp135
I105465867
aI105491034
aS'+'
asS'B3GLCT'
p136
(lp137
I31199936
aI31332276
aS'+'
asS'PPP1R2P10'
p138
(lp139
I63811014
aI63811608
aS'-'
asS'RPL26P34'
p140
(lp141
I24704338
aI24704788
aS'-'
asS'THSD1'
p142
(lp143
I52377167
aI52406494
aS'-'
asS'COL4A2'
p144
(lp145
I110307267
aI110513027
aS'+'
asS'COL4A1'
p146
(lp147
I110148963
aI110307149
aS'-'
asS'LSP1P1'
p148
(lp149
I25017404
aI25017536
aS'+'
asS'ING1'
p150
(lp151
I110713278
aI110723339
aS'+'
asS'NUFIP1'
p152
(lp153
I44939249
aI44989483
aS'-'
asS'C1QTNF9B'
p154
(lp155
I23890525
aI23902655
aS'-'
asS'RPL36P19'
p156
(lp157
I43394525
aI43394825
aS'+'
asS'DNAJC3'
p158
(lp159
I95677139
aI95794989
aS'+'
asS'LONRF2P2'
p160
(lp161
I18609132
aI18609702
aS'+'
asS'WDFY2'
p162
(lp163
I51584508
aI51767707
aS'+'
asS'VDAC1P12'
p164
(lp165
I34082429
aI34083310
aS'-'
asS'GAMTP2'
p166
(lp167
I34574204
aI34574666
aS'-'
asS'AL356321.1'
p168
(lp169
I34262863
aI34263090
aS'+'
asS'SMAD9'
p170
(lp171
I36844831
aI36920272
aS'-'
asS'ZNF646P1'
p172
(lp173
I53408882
aI53409876
aS'-'
asS'GRTP1'
p174
(lp175
I113324164
aI113364148
aS'-'
asS'MTIF3'
p176
(lp177
I27435643
aI27450574
aS'-'
asS'AKAP11'
p178
(lp179
I42272153
aI42323267
aS'+'
asS'RPL21P112'
p180
(lp181
I94760553
aI94761015
aS'-'
asS'RPL21P110'
p182
(lp183
I72703693
aI72704138
aS'+'
asS'RPL21P111'
p184
(lp185
I78761175
aI78761651
aS'+'
asS'AL137000.1'
p186
(lp187
I49232874
aI49234399
aS'+'
asS'TNFSF13B'
p188
(lp189
I108269629
aI108308484
aS'+'
asS'ELOCP23'
p190
(lp191
I78488182
aI78488513
aS'+'
asS'AL596092.1'
p192
(lp193
I29339566
aI29339869
aS'-'
asS'RABEPKP1'
p194
(lp195
I71296210
aI71297235
aS'+'
asS'RPS28P8'
p196
(lp197
I42003430
aI42003637
aS'+'
asS'SETD8P1'
p198
(lp199
I18297554
aI18298733
aS'+'
asS'RPL21P107'
p200
(lp201
I110762674
aI110763133
aS'-'
asS'ATP5EP2'
p202
(lp203
I27945206
aI27945590
aS'+'
asS'TM9SF2'
p204
(lp205
I99501417
aI99564006
aS'+'
asS'ERICH6B'
p206
(lp207
I45541297
aI45615739
aS'-'
asS'HNRNPA1P29'
p208
(lp209
I93394977
aI93395855
aS'-'
asS'IL17D'
p210
(lp211
I20703343
aI20723098
aS'+'
asS'OR7E156P'
p212
(lp213
I63742341
aI63742804
aS'+'
asS'ANKRD20A19P'
p214
(lp215
I23939557
aI23946782
aS'-'
asS'RPS12P23'
p216
(lp217
I21094315
aI21094714
aS'-'
asS'SERTM1'
p218
(lp219
I36673912
aI36697839
aS'+'
asS'LDHBP1'
p220
(lp221
I113276616
aI113277734
aS'+'
asS'RPS12P24'
p222
(lp223
I37220860
aI37221246
aS'-'
asS'PTMAP5'
p224
(lp225
I81689911
aI81691072
aS'+'
asS'SUGT1P3'
p226
(lp227
I40882577
aI40921740
aS'-'
asS'ALG11'
p228
(lp229
I52012398
aI52029657
aS'+'
asS'AL592490.1'
p230
(lp231
I61409858
aI61427849
aS'-'
asS'EEF1DP3'
p232
(lp233
I31846841
aI31953472
aS'+'
asS'RPS10P21'
p234
(lp235
I71913704
aI71914178
aS'-'
asS'F7'
p236
(lp237
I113105788
aI113120678
aS'+'
asS'RPLP1P13'
p238
(lp239
I23373423
aI23374061
aS'+'
asS'SUCLA2'
p240
(lp241
I47942656
aI48001354
aS'-'
asS'ZNF965P'
p242
(lp243
I18734080
aI18734896
aS'+'
asS'MCF2L'
p244
(lp245
I112894378
aI113096861
aS'+'
asS'LMO7'
p246
(lp247
I75620434
aI75859870
aS'+'
asS'STARP1'
p248
(lp249
I65309855
aI65310953
aS'-'
asS'TUBGCP3'
p250
(lp251
I112485005
aI112588167
aS'-'
asS'CHCHD2P11'
p252
(lp253
I42181465
aI42181921
aS'-'
asS'SLITRK6'
p254
(lp255
I85792790
aI85799488
aS'-'
asS'PSMD10P3'
p256
(lp257
I73036401
aI73036848
aS'+'
asS'HMGB1'
p258
(lp259
I30458747
aI30617597
aS'-'
asS'ARL11'
p260
(lp261
I49628299
aI49633872
aS'+'
asS'AL162373.1'
p262
(lp263
I85837126
aI85837532
aS'-'
asS'ALOX5AP'
p264
(lp265
I30713478
aI30764425
aS'+'
asS'KRR1P1'
p266
(lp267
I20070250
aI20072136
aS'-'
asS'NPM1P22'
p268
(lp269
I67831876
aI67832827
aS'-'
asS'AL139184.1'
p270
(lp271
I44437207
aI44452827
aS'+'
asS'RBM26'
p272
(lp273
I79318868
aI79406221
aS'-'
asS'MTND5P3'
p274
(lp275
I84521725
aI84523915
aS'+'
asS'MTND5P2'
p276
(lp277
I95692538
aI95693972
aS'+'
asS'CCNA1'
p278
(lp279
I36431520
aI36442869
aS'+'
asS'OR7E33P'
p280
(lp281
I67910986
aI67911951
aS'+'
asS'GJB2'
p282
(lp283
I20187470
aI20192898
aS'-'
asS'GNG5P5'
p284
(lp285
I47307082
aI47307301
aS'+'
asS'MAB21L1'
p286
(lp287
I35474182
aI35477209
aS'-'
asS'IFT88'
p288
(lp289
I20567138
aI20691437
aS'+'
asS'GJB6'
p290
(lp291
I20221971
aI20232395
aS'-'
asS'KLF5'
p292
(lp293
I73054976
aI73077541
aS'+'
asS'TRIM60P13'
p294
(lp295
I89248818
aI89250100
aS'-'
asS'COX5BP6'
p296
(lp297
I100623875
aI100624429
aS'-'
asS'PCDH20'
p298
(lp299
I61409685
aI61415522
aS'-'
asS'GAPDHP52'
p300
(lp301
I21358373
aI21359314
aS'+'
asS'HNRNPA1P18'
p302
(lp303
I68301605
aI68303302
aS'-'
asS'DDX39AP1'
p304
(lp305
I22704739
aI22706206
aS'-'
asS'H3F3BP1'
p306
(lp307
I71675067
aI71675469
aS'+'
asS'FAM206BP'
p308
(lp309
I46270077
aI46270617
aS'+'
asS'IPMKP1'
p310
(lp311
I22837026
aI22837880
aS'-'
asS'FAM216B'
p312
(lp313
I42781550
aI42791547
aS'+'
asS'AL135901.1'
p314
(lp315
I49620314
aI49620646
aS'+'
asS'AL356102.1'
p316
(lp317
I62397645
aI62397916
aS'+'
asS'CHCHD2P8'
p318
(lp319
I28107431
aI28107877
aS'+'
asS'PDX1'
p320
(lp321
I27920020
aI27926231
aS'+'
asS'LCP1'
p322
(lp323
I46125920
aI46211348
aS'-'
asS'SOX21'
p324
(lp325
I94709622
aI94712399
aS'-'
asS'ATP4B'
p326
(lp327
I113648804
aI113658186
aS'-'
asS'PPP1R26P1'
p328
(lp329
I48316863
aI48320475
aS'-'
asS'RGCC'
p330
(lp331
I41457559
aI41470882
aS'+'
asS'CENPIP1'
p332
(lp333
I19126399
aI19139611
aS'+'
asS'TRIM13'
p334
(lp335
I49996813
aI50020481
aS'+'
asS'LINC00328-2P'
p336
(lp337
I18809830
aI18810048
aS'+'
asS'TGDS'
p338
(lp339
I94574051
aI94596257
aS'-'
asS'SLC25A15P2'
p340
(lp341
I19411231
aI19416188
aS'+'
asS'SLC25A15P3'
p342
(lp343
I24943575
aI24944498
aS'+'
asS'TMEM255B'
p344
(lp345
I113759243
aI113816995
aS'+'
asS'ATP8A2P2'
p346
(lp347
I32477274
aI32478841
aS'+'
asS'RCBTB2'
p348
(lp349
I48488970
aI48533256
aS'-'
asS'RCBTB1'
p350
(lp351
I49531946
aI49585583
aS'-'
asS'PHBP13'
p352
(lp353
I35251070
aI35251829
aS'+'
asS'SLC25A15'
p354
(lp355
I40789497
aI40810111
aS'+'
asS'UBBP5'
p356
(lp357
I87219004
aI87219269
aS'+'
asS'TUBA3C'
p358
(lp359
I19173770
aI19181852
aS'-'
asS'ARHGEF7'
p360
(lp361
I111115277
aI111295195
aS'+'
asS'AL359920.1'
p362
(lp363
I60322591
aI60322766
aS'+'
asS'EIF4A1P5'
p364
(lp365
I36938400
aI36939494
aS'-'
asS'SKA3'
p366
(lp367
I21153595
aI21176602
aS'-'
asS'PARP1P1'
p368
(lp369
I110936759
aI110939784
aS'+'
asS'TEX26'
p370
(lp371
I30932703
aI30975502
aS'+'
asS'MIPEP'
p372
(lp373
I23730189
aI23889419
aS'-'
asS'RPS6P23'
p374
(lp375
I99173593
aI99174490
aS'+'
asS'BTF3P11'
p376
(lp377
I76928066
aI76928836
aS'+'
asS'MTMR6'
p378
(lp379
I25246201
aI25288009
aS'-'
asS'TEX29'
p380
(lp381
I111316184
aI111344249
aS'+'
asS'ARF4P4'
p382
(lp383
I80888348
aI80888867
aS'+'
asS'CENPJ'
p384
(lp385
I24882284
aI24922889
aS'-'
asS'ARF4P3'
p386
(lp387
I100756551
aI100757059
aS'-'
asS'TSC22D1'
p388
(lp389
I44432143
aI44576565
aS'-'
asS'ZNF962P'
p390
(lp391
I18467172
aI18485448
aS'-'
asS'RUBCNL'
p392
(lp393
I46342967
aI46438190
aS'-'
asS'UTP14C'
p394
(lp395
I52024691
aI52033600
aS'+'
asS'ST6GALNAC4P1'
p396
(lp397
I19818121
aI19818619
aS'-'
asS'HMGN1P24'
p398
(lp399
I95809310
aI95809607
aS'-'
asS'PROSER1'
p400
(lp401
I39009866
aI39038076
aS'-'
asS'ZDHHC20P4'
p402
(lp403
I68985058
aI68986064
aS'+'
asS'RLIMP1'
p404
(lp405
I40618738
aI40621348
aS'+'
asS'TIMM9P3'
p406
(lp407
I45552863
aI45553136
aS'-'
asS'TRIM60P19'
p408
(lp409
I66268997
aI66270458
aS'+'
asS'SPTLC1P5'
p410
(lp411
I77659413
aI77659664
aS'+'
asS'SDAD1P4'
p412
(lp413
I23267506
aI23269150
aS'+'
asS'PTPN2P2'
p414
(lp415
I30553670
aI30554693
aS'+'
asS'CYP51A1P2'
p416
(lp417
I28722386
aI28724021
aS'-'
asS'AL138693.1'
p418
(lp419
I45124015
aI45124143
aS'-'
asS'STARD13'
p420
(lp421
I33127430
aI33350630
aS'-'
asS'GAPDHP22'
p422
(lp423
I99190579
aI99190991
aS'-'
asS'SP3P'
p424
(lp425
I89361160
aI89363224
aS'-'
asS'FNTAP2'
p426
(lp427
I21530690
aI21531323
aS'+'
asS'RPS3AP52'
p428
(lp429
I68634190
aI68634486
aS'+'
asS'ALG5'
p430
(lp431
I36949775
aI36999367
aS'-'
asS'NUS1P4'
p432
(lp433
I98610292
aI98610876
aS'-'
asS'EXOSC8'
p434
(lp435
I37000541
aI37009401
aS'+'
asS'NME1P1'
p436
(lp437
I22099163
aI22099544
aS'-'
asS'MED4'
p438
(lp439
I48053323
aI48079975
aS'-'
asS'NUS1P2'
p440
(lp441
I22915651
aI22916523
aS'+'
asS'AL390754.1'
p442
(lp443
I111182111
aI111182692
aS'-'
asS'CYSLTR2'
p444
(lp445
I48653711
aI48708176
aS'+'
asS'ATP7B'
p446
(lp447
I51932673
aI52011494
aS'-'
asS'MPHOSPH8'
p448
(lp449
I19633681
aI19673459
aS'+'
asS'NEK5'
p450
(lp451
I52037080
aI52127482
aS'-'
asS'NEK3'
p452
(lp453
I52132643
aI52159861
aS'-'
asS'CCR12P'
p454
(lp455
I99407781
aI99409062
aS'-'
asS'UBE2L5P'
p456
(lp457
I30422488
aI30428616
aS'+'
asS'KARSP2'
p458
(lp459
I113130416
aI113132054
aS'+'
asS'KARSP1'
p460
(lp461
I41925598
aI41927349
aS'+'
asS'MRPS31P2'
p462
(lp463
I19552571
aI19570288
aS'-'
asS'STK24'
p464
(lp465
I98445185
aI98576863
aS'-'
asS'MRPS31P4'
p466
(lp467
I52600119
aI52637368
aS'+'
asS'MRPS31P5'
p468
(lp469
I52167709
aI52194465
aS'-'
asS'HMGN2P39'
p470
(lp471
I59010332
aI59010604
aS'+'
asS'KPNA3'
p472
(lp473
I49699307
aI49792921
aS'-'
asS'ITGBL1'
p474
(lp475
I101452667
aI101720856
aS'+'
asS'SLC46A3'
p476
(lp477
I28700080
aI28718841
aS'-'
asS'IPO7P2'
p478
(lp479
I24122065
aI24123814
aS'-'
asS'GXYLT1P1'
p480
(lp481
I18724415
aI18724904
aS'-'
asS'TPT1'
p482
(lp483
I45333471
aI45341370
aS'-'
asS'FARP1'
p484
(lp485
I98143251
aI98455176
aS'+'
asS'NAXD'
p486
(lp487
I110615460
aI110639993
aS'+'
asS'RAD17P2'
p488
(lp489
I49044079
aI49046794
aS'-'
asS'AL590099.1'
p490
(lp491
I25017766
aI25017903
aS'-'
asS'CYCSP35'
p492
(lp493
I98629686
aI98629989
aS'-'
asS'ARGLU1'
p494
(lp495
I106541673
aI106568164
aS'-'
asS'F10'
p496
(lp497
I113122814
aI113149527
aS'+'
asS'IRX1P1'
p498
(lp499
I24742677
aI24746184
aS'+'
asS'GJA3'
p500
(lp501
I20138255
aI20161049
aS'-'
asS'HIST1H2BPS3'
p502
(lp503
I21483834
aI21484174
aS'-'
asS'PROZ'
p504
(lp505
I113158654
aI113172383
aS'+'
asS'RNASEH2B'
p506
(lp507
I50909802
aI50973745
aS'+'
asS'PRR20A'
p508
(lp509
I57140918
aI57143939
aS'+'
asS'PRR20B'
p510
(lp511
I57147488
aI57150509
aS'+'
asS'PRR20C'
p512
(lp513
I57140918
aI57157082
aS'+'
asS'PRR20D'
p514
(lp515
I57160632
aI57163653
aS'+'
asS'PRR20E'
p516
(lp517
I57167197
aI57170218
aS'+'
asS'PRR20FP'
p518
(lp519
I57173453
aI57173632
aS'+'
asS'WDR95P'
p520
(lp521
I31063306
aI31115699
aS'+'
asS'PCDH17'
p522
(lp523
I57631812
aI57729311
aS'+'
asS'SHISA2'
p524
(lp525
I26044597
aI26051031
aS'-'
asS'HS6ST3'
p526
(lp527
I96090839
aI96839562
aS'+'
asS'LINC00282'
p528
(lp529
I51813347
aI51845175
aS'-'
asS'GAS6'
p530
(lp531
I113820558
aI113864067
aS'-'
asS'EFNB2'
p532
(lp533
I106489731
aI106535114
aS'-'
asS'TET1P1'
p534
(lp535
I87890172
aI87892472
aS'-'
asS'EIF4A1P6'
p536
(lp537
I60636888
aI60638097
aS'-'
asS'EIF4A1P7'
p538
(lp539
I28598833
aI28600052
aS'+'
asS'OR7E155P'
p540
(lp541
I41439834
aI41440847
aS'-'
asS'H2AFZP3'
p542
(lp543
I99215372
aI99215758
aS'-'
asS'CLYBL'
p544
(lp545
I99606669
aI99897134
aS'+'
asS'AL359741.1'
p546
(lp547
I28778224
aI28778448
aS'-'
asS'RFC3'
p548
(lp549
I33818069
aI33966558
aS'+'
asS'SPRY2'
p550
(lp551
I80335976
aI80340951
aS'-'
asS'TRPC4'
p552
(lp553
I37636636
aI37870425
aS'-'
asS'DIAPH3'
p554
(lp555
I59665583
aI60163987
aS'-'
asS'RNF113B'
p556
(lp557
I98175785
aI98177265
aS'-'
asS'FLT3'
p558
(lp559
I28003274
aI28100592
aS'-'
asS'FLT1'
p560
(lp561
I28300344
aI28495095
aS'-'
asS'AL161423.1'
p562
(lp563
I58377513
aI58377774
aS'+'
asS'RPL23AP97'
p564
(lp565
I114346167
aI114346637
aS'+'
asS'KRT18P27'
p566
(lp567
I90230384
aI90231682
aS'+'
asS'USP24P1'
p568
(lp569
I19015487
aI19019336
aS'-'
asS'CLCP2'
p570
(lp571
I114306646
aI114307066
aS'+'
asS'ZAR1L'
p572
(lp573
I32303700
aI32315344
aS'-'
asS'FAM58DP'
p574
(lp575
I19382454
aI19383072
aS'+'
asS'NDFIP2'
p576
(lp577
I79481124
aI79556070
aS'+'
asS'AL138709.1'
p578
(lp579
I43179501
aI43181193
aS'-'
asS'TATDN2P3'
p580
(lp581
I23243520
aI23247184
aS'+'
asS'SRGNP1'
p582
(lp583
I78285838
aI78286288
aS'+'
asS'RAB20'
p584
(lp585
I110523066
aI110561733
aS'-'
asS'RFESDP1'
p586
(lp587
I22850101
aI22850561
aS'+'
asS'LMO7DN'
p588
(lp589
I75871038
aI75883811
aS'+'
asS'ANKRD26P4'
p590
(lp591
I31311289
aI31312921
aS'+'
asS'CNOT4P1'
p592
(lp593
I20921664
aI20923233
aS'-'
asS'ANKRD26P2'
p594
(lp595
I38922727
aI38936199
aS'-'
asS'RANP8'
p596
(lp597
I20747035
aI20748057
aS'-'
asS'OR7E36P'
p598
(lp599
I41431248
aI41432201
aS'-'
asS'LAMP1'
p600
(lp601
I113297241
aI113323672
aS'+'
asS'NUDT15'
p602
(lp603
I48037567
aI48047222
aS'+'
asS'FRY'
p604
(lp605
I32031300
aI32299122
aS'+'
asS'GPR18'
p606
(lp607
I99254732
aI99261744
aS'-'
asS'AL356052.1'
p608
(lp609
I54116476
aI54116851
aS'+'
asS'CHAMP1'
p610
(lp611
I114314513
aI114327328
aS'+'
asS'IRS2'
p612
(lp613
I109752698
aI109786568
aS'-'
asS'KL'
p614
(lp615
I33016433
aI33066145
aS'+'
asS'AL158062.1'
p616
(lp617
I27077218
aI27077962
aS'+'
asS'RCN1P2'
p618
(lp619
I45390353
aI45391267
aS'-'
asS'HNRNPA1P30'
p620
(lp621
I20938564
aI20949428
aS'-'
asS'CDK8'
p622
(lp623
I26254104
aI26405238
aS'+'
asS'RPL5P31'
p624
(lp625
I51161723
aI51162357
aS'-'
asS'KCNRG'
p626
(lp627
I50015254
aI50020922
aS'+'
asS'PHF11'
p628
(lp629
I49495961
aI49528987
aS'+'
asS'KATNBL1P1'
p630
(lp631
I28067587
aI28068334
aS'+'
asS'RPL7AP73'
p632
(lp633
I22803296
aI22803648
aS'+'
asS'ERCC5'
p634
(lp635
I102844844
aI102876001
aS'+'
asS'TOMM22P3'
p636
(lp637
I32954057
aI32954401
aS'-'
asS'CDADC1'
p638
(lp639
I49247925
aI49293485
aS'+'
asS'SSR1P2'
p640
(lp641
I75136154
aI75136940
aS'+'
asS'SOX1'
p642
(lp643
I112067647
aI112070488
aS'+'
asS'THAP12P6'
p644
(lp645
I26234213
aI26237129
aS'+'
asS'CCDC169'
p646
(lp647
I36222008
aI36297824
aS'-'
asS'CCDC168'
p648
(lp649
I102729369
aI102759070
aS'-'
asS'SNRPFP3'
p650
(lp651
I69101832
aI69102056
aS'-'
asS'BNIP3P7'
p652
(lp653
I18491904
aI18492419
aS'+'
asS'ATP5G1P5'
p654
(lp655
I106663437
aI106663847
aS'+'
asS'PSMC1P13'
p656
(lp657
I69894101
aI69895085
aS'-'
asS'RB1'
p658
(lp659
I48303775
aI48481986
aS'+'
asS'DNAJC15'
p660
(lp661
I43023203
aI43114224
aS'+'
asS'NDE1P2'
p662
(lp663
I36804198
aI36805302
aS'-'
asS'MOB1AP1'
p664
(lp665
I85968999
aI85969533
aS'+'
asS'RPS26P47'
p666
(lp667
I100539901
aI100540248
aS'-'
asS'INTS6'
p668
(lp669
I51361565
aI51453207
aS'-'
asS'ANKRD26P3'
p670
(lp671
I19290593
aI19344825
aS'-'
asS'TPP2'
p672
(lp673
I102597023
aI102679958
aS'+'
asS'EEF1A1P3'
p674
(lp675
I28214513
aI28215897
aS'+'
asS'TCEAL4P1'
p676
(lp677
I36741878
aI36742465
aS'-'
asS'CKAP2'
p678
(lp679
I52455467
aI52476628
aS'+'
asS'ZDHHC4P1'
p680
(lp681
I42933858
aI42934892
aS'+'
asS'METTL21C'
p682
(lp683
I102685744
aI102694504
aS'-'
asS'LGMNP1'
p684
(lp685
I64958097
aI64959396
aS'-'
asS'AL138963.2'
p686
(lp687
I45263690
aI45263915
aS'+'
asS'HSPD1P9'
p688
(lp689
I37993085
aI37994720
aS'-'
asS'HSPD1P8'
p690
(lp691
I78849231
aI78851208
aS'+'
asS'MZT1'
p692
(lp693
I72708357
aI72727687
aS'-'
asS'PSME2P2'
p694
(lp695
I48771128
aI48771827
aS'+'
asS'LACC1'
p696
(lp697
I43879284
aI43893931
aS'+'
asS'AL139327.1'
p698
(lp699
I19185225
aI19187349
aS'+'
asS'CUL4A'
p700
(lp701
I113208836
aI113267108
aS'+'
asS'MTCL1P1'
p702
(lp703
I70923664
aI70924455
aS'+'
asS'GAPDHP69'
p704
(lp705
I29306778
aI29307785
aS'+'
asS'AL158032.2'
p706
(lp707
I21287634
aI21287828
aS'-'
asS'AL158032.1'
p708
(lp709
I21216555
aI21216660
aS'+'
asS'PCCA'
p710
(lp711
I100089015
aI100530432
aS'+'
asS'MFAP1P1'
p712
(lp713
I30541643
aI30542897
aS'-'
asS'N4BP2L1'
p714
(lp715
I32400724
aI32428178
aS'-'
asS'AL359736.1'
p716
(lp717
I23979700
aI24321031
aS'+'
asS'URAD'
p718
(lp719
I27977714
aI27988654
aS'-'
asS'AL359736.3'
p720
(lp721
I24321126
aI24321428
aS'-'
asS'PHF2P2'
p722
(lp723
I18946755
aI19062718
aS'-'
asS'AL160396.2'
p724
(lp725
I114179331
aI114223084
aS'+'
asS'SUGT1'
p726
(lp727
I52652866
aI52700909
aS'+'
asS'SPG20'
p728
(lp729
I36301640
aI36370180
aS'-'
asS'AL356585.2'
p730
(lp731
I18279320
aI18309934
aS'-'
asS'SRSF1P1'
p732
(lp733
I69408216
aI69408735
aS'-'
asS'CLN5'
p734
(lp735
I76992096
aI77019143
aS'+'
asS'MBNL2'
p736
(lp737
I97221434
aI97394120
aS'+'
asS'SETDB2'
p738
(lp739
I49444374
aI49495003
aS'+'
asS'BRCA2'
p740
(lp741
I32315474
aI32400266
aS'+'
asS'CCDC70'
p742
(lp743
I51861981
aI51866232
aS'+'
asS'CRYL1'
p744
(lp745
I20403667
aI20525857
aS'-'
asS'CFL1P8'
p746
(lp747
I99582706
aI99583180
aS'+'
asS'POSTN'
p748
(lp749
I37562583
aI37598844
aS'-'
asS'OR7E104P'
p750
(lp751
I63836994
aI63837456
aS'-'
asS'PRDX3P3'
p752
(lp753
I38617419
aI38617940
aS'-'
asS'RPL18P10'
p754
(lp755
I50099331
aI50099868
aS'+'
asS'ANKRD20A9P'
p756
(lp757
I18816718
aI18871967
aS'-'
asS'SLC15A1'
p758
(lp759
I98683801
aI98752654
aS'-'
asS'RPL23AP69'
p760
(lp761
I25206049
aI25206506
aS'+'
asS'BCAS2P3'
p762
(lp763
I79166119
aI79166885
aS'+'
asS'DZIP1'
p764
(lp765
I95578202
aI95644690
aS'-'
asS'CTAGE16P'
p766
(lp767
I58528615
aI58531026
aS'+'
asS'CPB2'
p768
(lp769
I46053187
aI46105076
aS'-'
asS'FHP1'
p770
(lp771
I42255873
aI42256575
aS'+'
asS'PWWP2AP1'
p772
(lp773
I80654755
aI80657027
aS'+'
asS'FREM2'
p774
(lp775
I38687129
aI38887131
aS'+'
asS'RNF219'
p776
(lp777
I78614291
aI78659179
aS'-'
asS'GGACT'
p778
(lp779
I100532495
aI100589528
aS'-'
asS'GUCY1B2'
p780
(lp781
I50994693
aI51080831
aS'-'
asS'RHOT1P3'
p782
(lp783
I18837768
aI18838098
aS'-'
asS'MIPEPP3'
p784
(lp785
I21298259
aI21306373
aS'+'
asS'AL512782.1'
p786
(lp787
I83145540
aI83145903
aS'+'
asS'NFYAP1'
p788
(lp789
I63975451
aI63976422
aS'-'
asS'DOCK9'
p790
(lp791
I98860203
aI99086625
aS'-'
asS'PRUNEP1'
p792
(lp793
I26117548
aI26118964
aS'-'
asS'KDELC1'
p794
(lp795
I102784281
aI102799007
aS'-'
asS'SCEL'
p796
(lp797
I77535674
aI77645259
aS'+'
asS'VENTXP2'
p798
(lp799
I83907301
aI83907781
aS'-'
asS'ANKRD20A10P'
p800
(lp801
I24750657
aI24752171
aS'-'
asS'SLC25A5P4'
p802
(lp803
I57314739
aI57315909
aS'+'
asS'TNFRSF19'
p804
(lp805
I23570370
aI23676104
aS'+'
asS'CDC16'
p806
(lp807
I114234887
aI114272675
aS'+'
asS'HSPH1'
p808
(lp809
I31134974
aI31162388
aS'-'
asS'PPIAP28'
p810
(lp811
I20178978
aI20179462
aS'-'
asS'PPIAP27'
p812
(lp813
I20956179
aI20956443
aS'-'
asS'PPIAP26'
p814
(lp815
I52820497
aI52821018
aS'+'
asS'PPIAP25'
p816
(lp817
I45436121
aI45436660
aS'+'
asS'PPIAP24'
p818
(lp819
I106863816
aI106864286
aS'-'
asS'PPIAP23'
p820
(lp821
I91272081
aI91272577
aS'-'
asS'RPP40P2'
p822
(lp823
I59262680
aI59263391
aS'+'
asS'OR7E111P'
p824
(lp825
I67902208
aI67903221
aS'+'
asS'FAR1P1'
p826
(lp827
I90170866
aI90171799
aS'+'
asS'FNDC3A'
p828
(lp829
I48975912
aI49209779
aS'+'
asS'CNN2P12'
p830
(lp831
I18726706
aI18727414
aS'+'
asS'PCNPP5'
p832
(lp833
I48328084
aI48328564
aS'-'
asS'ATP6V1G1P7'
p834
(lp835
I103444620
aI103444968
aS'-'
asS'SUPT20H'
p836
(lp837
I37009316
aI37059713
aS'-'
asS'PARP4'
p838
(lp839
I24420926
aI24512810
aS'-'
asS'DHX9P1'
p840
(lp841
I76984868
aI76987943
aS'+'
asS'DHRS12'
p842
(lp843
I51767995
aI51804157
aS'-'
asS'RPS3AP44'
p844
(lp845
I26576886
aI26577675
aS'+'
asS'KATNAL1'
p846
(lp847
I30202630
aI30307484
aS'-'
asS'RPS20P32'
p848
(lp849
I27017554
aI27017909
aS'-'
asS'PSPC1P2'
p850
(lp851
I24566843
aI24570728
aS'+'
asS'PSPC1P1'
p852
(lp853
I19201637
aI19227432
aS'-'
asS'EEF1AKMT1'
p854
(lp855
I20728731
aI20773949
aS'-'
asS'NAA16'
p856
(lp857
I41311205
aI41377030
aS'+'
asS'SPACA7'
p858
(lp859
I112376319
aI112434689
aS'+'
asS'MTCO2P3'
p860
(lp861
I57204379
aI57204799
aS'+'
asS'LPAR6'
p862
(lp863
I48389567
aI48444667
aS'-'
asS'UBE2D3P4'
p864
(lp865
I84020327
aI84020762
aS'+'
asS'PRELID3BP2'
p866
(lp867
I51195881
aI51196081
aS'+'
asS'LRCH1'
p868
(lp869
I46553168
aI46753040
aS'+'
asS'RPSAP54'
p870
(lp871
I20961310
aI20962195
aS'+'
asS'BCRP9'
p872
(lp873
I67790407
aI67790794
aS'+'
asS'BRD7P5'
p874
(lp875
I94757451
aI94759272
aS'-'
asS'TFDP1'
p876
(lp877
I113584741
aI113641470
aS'+'
asS'HMGB3P7'
p878
(lp879
I101801878
aI101802488
aS'+'
asS'HMGB3P4'
p880
(lp881
I99372173
aI99372686
aS'+'
asS'AL138694.1'
p882
(lp883
I108335448
aI108448316
aS'+'
asS'COX17P1'
p884
(lp885
I46490930
aI46491121
aS'+'
asS'GRPEL2P1'
p886
(lp887
I88978447
aI88978785
aS'-'
asS'LHFP'
p888
(lp889
I39342892
aI39603171
aS'-'
asS'RPL37P21'
p890
(lp891
I68331338
aI68331613
aS'-'
asS'GPALPP1'
p892
(lp893
I44989620
aI45033602
aS'+'
asS'FAM204CP'
p894
(lp895
I75688556
aI75689197
aS'-'
asS'OLFM4'
p896
(lp897
I53028759
aI53052057
aS'+'
asS'OR7E101P'
p898
(lp899
I46460609
aI46461121
aS'+'
asS'SLC10A2'
p900
(lp901
I103043998
aI103066846
aS'-'
asS'TARDBPP2'
p902
(lp903
I60274776
aI60276006
aS'+'
asS'FKBP1AP3'
p904
(lp905
I46505118
aI46505436
aS'+'
asS'RPL17P51'
p906
(lp907
I40224625
aI40224862
aS'-'
asS'NAP1L4P3'
p908
(lp909
I47763460
aI47764606
aS'+'
asS'LIPT1P1'
p910
(lp911
I102002125
aI102003310
aS'+'
asS'AL512506.3'
p912
(lp913
I43883800
aI44028526
aS'+'
asS'UGGT2'
p914
(lp915
I95801580
aI96053383
aS'-'
asS'GAPDHP34'
p916
(lp917
I36740041
aI36740863
aS'+'
asS'COX4I1P2'
p918
(lp919
I45671845
aI45672391
aS'+'
asS'RGS17P1'
p920
(lp921
I40992779
aI40993331
aS'-'
asS'FEM1AP4'
p922
(lp923
I18665235
aI18667221
aS'+'
asS'FO624990.1'
p924
(lp925
I86266842
aI86266926
aS'-'
asS'AL161616.1'
p926
(lp927
I31483414
aI31483699
aS'-'
asS'ATP8A2P3'
p928
(lp929
I26094724
aI26154175
aS'-'
asS'NDUFA12P1'
p930
(lp931
I100027769
aI100028174
aS'-'
asS'POLR3KP1'
p932
(lp933
I59071462
aI59071803
aS'-'
asS'UCHL3'
p934
(lp935
I75549480
aI75606020
aS'+'
asS'HIST1H2APS6'
p936
(lp937
I36490078
aI36490441
aS'-'
asS'PARP4P2'
p938
(lp939
I19349137
aI19407962
aS'+'
asS'RPL12P34'
p940
(lp941
I68654572
aI68655050
aS'+'
asS'LINC00371'
p942
(lp943
I51083209
aI51200252
aS'-'
asS'NUP58'
p944
(lp945
I25301524
aI25342416
aS'+'
asS'RPS4XP16'
p946
(lp947
I51454164
aI51461312
aS'+'
asS'CCDC169-SOHLH2'
p948
(lp949
I36168794
aI36297842
aS'-'
asS'AL139327.3'
p950
(lp951
I19151554
aI19152307
aS'-'
asS'TMTC4'
p952
(lp953
I100603927
aI100674879
aS'-'
asS'ASNSP3'
p954
(lp955
I100062296
aI100063601
aS'-'
asS'MTCO3P2'
p956
(lp957
I23765934
aI23766104
aS'-'
asS'AL139327.4'
p958
(lp959
I19172773
aI19172925
aS'+'
asS'MYO16'
p960
(lp961
I108596152
aI109208007
aS'+'
asS'MLNR'
p962
(lp963
I49220338
aI49222377
aS'+'
asS'ELL2P3'
p964
(lp965
I68289679
aI68291280
aS'-'
asS'TXNL1P1'
p966
(lp967
I86725500
aI86726053
aS'+'
asS'MARK2P12'
p968
(lp969
I73407768
aI73408352
aS'-'
asS'UFM1'
p970
(lp971
I38349881
aI38363619
aS'+'
asS'ATP5F1P1'
p972
(lp973
I51598416
aI51599460
aS'+'
asS'HMGA1P6'
p974
(lp975
I23134174
aI23134564
aS'+'
asS'AL353765.1'
p976
(lp977
I61927090
aI61927272
aS'-'
asS'CTAGE3P'
p978
(lp979
I51908218
aI51910621
aS'-'
asS'FOXO1'
p980
(lp981
I40469953
aI40611129
aS'-'
asS'ATP11A'
p982
(lp983
I112690329
aI112887168
aS'+'
asS'CTAGE10P'
p984
(lp985
I49890591
aI49892998
aS'+'
asS'MICU2'
p986
(lp987
I21492700
aI21604214
aS'-'
asS'ANKRD10'
p988
(lp989
I110878540
aI110915069
aS'-'
asS'PAN3'
p990
(lp991
I28139033
aI28295335
aS'+'
asS'KLF12'
p992
(lp993
I73686089
aI73995049
aS'-'
asS'ST13P4'
p994
(lp995
I50172089
aI50173181
aS'+'
asS'SNX19P2'
p996
(lp997
I18892260
aI18895230
aS'-'
asS'WASF3'
p998
(lp999
I26557703
aI26688943
aS'+'
asS'METTL21EP'
p1000
(lp1001
I102880099
aI102896033
aS'+'
asS'RPL21'
p1002
(lp1003
I27251309
aI27256568
aS'+'
asS'TDRD3'
p1004
(lp1005
I60396457
aI60573878
aS'+'
asS'AL445984.1'
p1006
(lp1007
I88571654
aI88572312
aS'+'
asS'RPL7L1P1'
p1008
(lp1009
I89833157
aI89833941
aS'-'
asS'AC001226.2'
p1010
(lp1011
I76995915
aI77129589
aS'+'
asS'IPPKP1'
p1012
(lp1013
I21103003
aI21104371
aS'-'
asS'FTH1P7'
p1014
(lp1015
I22696023
aI22696574
aS'-'
asS'CCT5P2'
p1016
(lp1017
I78908919
aI78910542
aS'+'
asS'CNMD'
p1018
(lp1019
I52703264
aI52739812
aS'-'
asS'PCDH8P1'
p1020
(lp1021
I53199981
aI53202753
aS'+'
asS'ZDHHC20'
p1022
(lp1023
I21372573
aI21459370
aS'-'
asS'HNF4GP1'
p1024
(lp1025
I55999200
aI56000448
aS'-'
asS'TBC1D4'
p1026
(lp1027
I75284665
aI75482114
aS'-'
asS'RPSAP53'
p1028
(lp1029
I67266845
aI67267706
aS'-'
asS'RPL27AP8'
p1030
(lp1031
I47766640
aI47767085
aS'-'
asS'EBPL'
p1032
(lp1033
I49660726
aI49691475
aS'-'
asS'DPPA3P3'
p1034
(lp1035
I81114866
aI81115295
aS'-'
asS'CYP4F34P'
p1036
(lp1037
I18741730
aI18742718
aS'-'
asS'MAPK6PS3'
p1038
(lp1039
I42068932
aI42071093
aS'-'
asS'ABCC4'
p1040
(lp1041
I95019829
aI95301429
aS'-'
asS'GYG1P2'
p1042
(lp1043
I82823131
aI82824136
aS'+'
asS'RPS21P8'
p1044
(lp1045
I26977543
aI26977789
aS'+'
asS'WBP4'
p1046
(lp1047
I41061274
aI41084006
aS'+'
asS'AL356585.4'
p1048
(lp1049
I18174010
aI18178465
aS'-'
asS'PIBF1'
p1050
(lp1051
I72782059
aI73016461
aS'+'
asS'AL356585.1'
p1052
(lp1053
I18206570
aI18207466
aS'-'
asS'ADPRHL1'
p1054
(lp1055
I113399610
aI113453524
aS'-'
asS'AL356585.3'
p1056
(lp1057
I18331933
aI18348596
aS'+'
asS'FAM124A'
p1058
(lp1059
I51222367
aI51284241
aS'+'
asS'CDX2'
p1060
(lp1061
I27962137
aI27971139
aS'-'
asS'ESRRAP2'
p1062
(lp1063
I21260029
aI21293429
aS'+'
asS'ESRRAP1'
p1064
(lp1065
I19560013
aI19561269
aS'-'
asS'HNRNPA3P5'
p1066
(lp1067
I65787932
aI65788764
aS'-'
asS'RPL35AP31'
p1068
(lp1069
I71845981
aI71846317
aS'+'
asS'PLA2G12AP2'
p1070
(lp1071
I38902387
aI38902650
aS'+'
asS'BORA'
p1072
(lp1073
I72727749
aI72756198
aS'+'
asS'NHLRC3'
p1074
(lp1075
I39038311
aI39050109
aS'+'
asS'LIN28AP2'
p1076
(lp1077
I87379472
aI87380258
aS'-'
asS'NALCN'
p1078
(lp1079
I101053776
aI101416355
aS'-'
asS'AL157366.1'
p1080
(lp1081
I25863250
aI25863667
aS'-'
asS'RXFP2'
p1082
(lp1083
I31739542
aI31803388
aS'+'
asS'CTAGE11P'
p1084
(lp1085
I75237944
aI75240296
aS'-'
asS'GRK1'
p1086
(lp1087
I113667155
aI113737735
aS'+'
asS'LIG4'
p1088
(lp1089
I108207439
aI108218368
aS'-'
asS'MYCBP2'
p1090
(lp1091
I77044658
aI77327044
aS'-'
asS'SAP18'
p1092
(lp1093
I21140514
aI21149084
aS'+'
asS'DLEU1'
p1094
(lp1095
I50082171
aI50528534
aS'+'
asS'DLEU7'
p1096
(lp1097
I50711901
aI50843939
aS'-'
asS'SCAND3P1'
p1098
(lp1099
I35185294
aI35186679
aS'+'
asS'DNAJA1P1'
p1100
(lp1101
I58751047
aI58752233
aS'-'
asS'VWA8'
p1102
(lp1103
I41566837
aI41961084
aS'-'
asS'COG3'
p1104
(lp1105
I45464925
aI45536630
aS'+'
asS'GRK6P1'
p1106
(lp1107
I21319156
aI21320866
aS'+'
asS'COG6'
p1108
(lp1109
I39655627
aI39791665
aS'+'
asS'MRPL3P1'
p1110
(lp1111
I19304593
aI19305625
aS'-'
asS'KLHL1'
p1112
(lp1113
I69700594
aI70108493
aS'-'
asS'CAB39L'
p1114
(lp1115
I49309798
aI49444126
aS'-'
asS'KCTD12'
p1116
(lp1117
I76880166
aI76886390
aS'-'
asS'MTND6P18'
p1118
(lp1119
I95693983
aI95694495
aS'-'
asS'FBXL3'
p1120
(lp1121
I76992598
aI77015581
aS'-'
asS'LINC00431'
p1122
(lp1123
I110965704
aI110990579
aS'+'
asS'EPSTI1'
p1124
(lp1125
I42886388
aI42992271
aS'-'
asS'SMPD4P2'
p1126
(lp1127
I19152567
aI19171194
aS'-'
asS'RNF6'
p1128
(lp1129
I26132115
aI26222261
aS'-'
asS'MTCYBP3'
p1130
(lp1131
I95694569
aI95695705
aS'+'
asS'RPL31P54'
p1132
(lp1133
I78422823
aI78423192
aS'+'
asS'RPL31P53'
p1134
(lp1135
I57391171
aI57391518
aS'-'
asS'PABPC3'
p1136
(lp1137
I25095868
aI25099254
aS'+'
asS'DCLK1'
p1138
(lp1139
I35768963
aI36131306
aS'-'
asS'SMARCE1P5'
p1140
(lp1141
I44594858
aI44596082
aS'+'
asS'SLC7A1'
p1142
(lp1143
I29509410
aI29595688
aS'-'
asS'SLAIN1'
p1144
(lp1145
I77697854
aI77764242
aS'+'
asS'FAM207BP'
p1146
(lp1147
I18697003
aI18697507
aS'+'
asS'SLC25A30'
p1148
(lp1149
I45393334
aI45418455
aS'-'
asS'SQSTM1P1'
p1150
(lp1151
I62406058
aI62406916
aS'-'
asS'SPRYD7'
p1152
(lp1153
I49912706
aI49936490
aS'-'
asS'LRRC63'
p1154
(lp1155
I46211943
aI46276803
aS'+'
asS'OGFOD1P1'
p1156
(lp1157
I49210422
aI49212294
aS'-'
asS'KBTBD7'
p1158
(lp1159
I41189833
aI41194566
aS'-'
asS'KBTBD6'
p1160
(lp1161
I41127569
aI41132746
aS'-'
asS'DDX6P2'
p1162
(lp1163
I86275493
aI86277262
aS'+'
asS'TERF1P5'
p1164
(lp1165
I18680494
aI18681700
aS'+'
asS'NXT1P1'
p1166
(lp1167
I39169636
aI39169951
aS'-'
asS'RPL32P28'
p1168
(lp1169
I62327988
aI62328384
aS'+'
asS'AMER2'
p1170
(lp1171
I25161684
aI25172288
aS'-'
asS'SOHLH2'
p1172
(lp1173
I36168208
aI36214615
aS'-'
asS'ABHD13'
p1174
(lp1175
I108218379
aI108234255
aS'+'
asS'NBEA'
p1176
(lp1177
I34942287
aI35672735
aS'+'
asS'HTR2A'
p1178
(lp1179
I46831555
aI46897076
aS'-'
asS'IFIT1P1'
p1180
(lp1181
I32384660
aI32386108
aS'+'
asS'AL356274.1'
p1182
(lp1183
I37139176
aI37139585
aS'-'
asS'TPTE2P3'
p1184
(lp1185
I52522632
aI52586906
aS'+'
asS'SPATA13'
p1186
(lp1187
I23979805
aI24307069
aS'+'
asS'MTRF1'
p1188
(lp1189
I41216369
aI41263577
aS'-'
asS'LNX2'
p1190
(lp1191
I27545911
aI27620404
aS'-'
asS'RASL11A'
p1192
(lp1193
I27270327
aI27273690
aS'+'
asS'MORF4L1P4'
p1194
(lp1195
I41199832
aI41200807
aS'-'
asS'TULP3P1'
p1196
(lp1197
I96947637
aI96948927
aS'-'
asS'RPL21P109'
p1198
(lp1199
I71704181
aI71704655
aS'+'
asS'RPL21P108'
p1200
(lp1201
I74377163
aI74377951
aS'-'
asS'DCUN1D2'
p1202
(lp1203
I113455819
aI113490691
aS'-'
asS'FGF9'
p1204
(lp1205
I21671383
aI21704498
aS'+'
asS'AL356575.1'
p1206
(lp1207
I100198187
aI100198469
aS'-'
asS'RFXAP'
p1208
(lp1209
I36819224
aI36829104
aS'+'
asS'RPL34P27'
p1210
(lp1211
I24988577
aI24988925
aS'-'
asS'RPL34P26'
p1212
(lp1213
I50361410
aI50361763
aS'-'
asS'AL445264.1'
p1214
(lp1215
I70564267
aI70564437
aS'-'
asS'PCID2'
p1216
(lp1217
I113177539
aI113208715
aS'-'
asS'GTF3A'
p1218
(lp1219
I27424544
aI27435688
aS'+'
asS'ITM2B'
p1220
(lp1221
I48233158
aI48270357
aS'+'
asS'AL138966.1'
p1222
(lp1223
I26229332
aI26229644
aS'-'
asS'TUBBP2'
p1224
(lp1225
I41384773
aI41385183
aS'-'
asS'IPO5'
p1226
(lp1227
I97953675
aI98024297
aS'+'
asS'CLDN10'
p1228
(lp1229
I95433604
aI95579759
aS'+'
asS'AZU1P1'
p1230
(lp1231
I39856710
aI39857094
aS'-'
asS'SLC35E1P1'
p1232
(lp1233
I20607268
aI20608131
aS'+'
asS'CARS2'
p1234
(lp1235
I110643956
aI110713603
aS'-'
asS'SACS'
p1236
(lp1237
I23328826
aI23411513
aS'-'
asS'SMIM2'
p1238
(lp1239
I44143543
aI44161257
aS'-'
asS'SGCG'
p1240
(lp1241
I23180952
aI23325165
aS'+'
asS'MRPS31'
p1242
(lp1243
I40729135
aI40771173
aS'-'
asS'ARL2BPP3'
p1244
(lp1245
I36789332
aI36794930
aS'+'
asS'HIGD1AP2'
p1246
(lp1247
I81272891
aI81273170
aS'+'
asS'AMMECR1LP1'
p1248
(lp1249
I96573659
aI96574499
aS'+'
asS'OXGR1'
p1250
(lp1251
I96985719
aI96994350
aS'-'
asS'RASA3'
p1252
(lp1253
I113977783
aI114132611
aS'-'
asS'SPATA2P1'
p1254
(lp1255
I56214373
aI56216942
aS'+'
asS'FGF14'
p1256
(lp1257
I101710804
aI102401774
aS'-'
asS'RIOK3P1'
p1258
(lp1259
I74828553
aI74830080
aS'+'
asS'RAP2A'
p1260
(lp1261
I97434222
aI97469128
aS'+'
asS'POMP'
p1262
(lp1263
I28659104
aI28678925
aS'+'
asS'SIAH3'
p1264
(lp1265
I45777243
aI45851736
aS'-'
asS'ATP8A2'
p1266
(lp1267
I25372071
aI26025851
aS'+'
asS'ATP12A'
p1268
(lp1269
I24680577
aI24712493
aS'+'
asS'SNRPGP11'
p1270
(lp1271
I51496020
aI51496251
aS'-'
asS'DIS3'
p1272
(lp1273
I72752169
aI72781933
aS'-'
asS'PEX12P1'
p1274
(lp1275
I89991831
aI89992878
aS'+'
asS'SNRPGP14'
p1276
(lp1277
I49488970
aI49489364
aS'+'
asS'PCOTH'
p1278
(lp1279
I23891459
aI23897263
aS'+'
asS'CSNK1A1L'
p1280
(lp1281
I37103259
aI37105664
aS'-'
asS'VPS36'
p1282
(lp1283
I52412602
aI52450622
aS'-'
asS'TPTE2'
p1284
(lp1285
I19423052
aI19536762
aS'-'
asS'SPERT'
p1286
(lp1287
I45702311
aI45714558
aS'+'
asS'STOML3'
p1288
(lp1289
I38965925
aI38991066
aS'-'
asS'AL442128.1'
p1290
(lp1291
I110952722
aI110952811
aS'-'
asS'NIPA2P5'
p1292
(lp1293
I79090783
aI79094119
aS'+'
asS'RPL18AP17'
p1294
(lp1295
I72460132
aI72460329
aS'-'
asS'TPTE2P2'
p1296
(lp1297
I52219344
aI52325605
aS'-'
asS'RPL7L1P12'
p1298
(lp1299
I98949719
aI98950447
aS'-'
asS'TPTE2P1'
p1300
(lp1301
I24924677
aI24968277
aS'-'
asS'TPTE2P6'
p1302
(lp1303
I24408157
aI24597660
aS'+'
asS'RAC1P8'
p1304
(lp1305
I61805150
aI61805676
aS'+'
asS'TPTE2P5'
p1306
(lp1307
I40826506
aI40921749
aS'-'
asS'PSMA6P4'
p1308
(lp1309
I97475742
aI97476459
aS'+'
asS'CDKN2AIPNLP3'
p1310
(lp1311
I39817741
aI39818049
aS'-'
asS'RAC1P3'
p1312
(lp1313
I41287741
aI41288320
aS'-'
asS'RPL7P44'
p1314
(lp1315
I76981175
aI76981916
aS'-'
asS'RPL7P45'
p1316
(lp1317
I104814327
aI104815069
aS'+'
asS'NUS1P3'
p1318
(lp1319
I24328211
aI24329072
aS'+'
asS'KCTD4'
p1320
(lp1321
I45192853
aI45194717
aS'-'
asS'TEX30'
p1322
(lp1323
I102766110
aI102773811
aS'-'
asS'AL354798.1'
p1324
(lp1325
I24933006
aI24936796
aS'+'
asS'DGKZP1'
p1326
(lp1327
I43968424
aI43971199
aS'+'
asS'LATS2'
p1328
(lp1329
I20973032
aI21061547
aS'-'
asS'ELF1'
p1330
(lp1331
I40932034
aI41019314
aS'-'
asS'ZMYM5'
p1332
(lp1333
I19823484
aI19863636
aS'-'
asS'AKR1B1P4'
p1334
(lp1335
I45687548
aI45688469
aS'-'
asS'GGT4P'
p1336
(lp1337
I18253526
aI18270822
aS'-'
asS'PPP1R2P4'
p1338
(lp1339
I46437394
aI46437988
aS'-'
asS'CALM2P4'
p1340
(lp1341
I98640814
aI98641239
aS'-'
asS'CALM2P3'
p1342
(lp1343
I41170700
aI41171148
aS'-'
asS'FAM155A'
p1344
(lp1345
I107163510
aI107866735
aS'-'
asS'DGKH'
p1346
(lp1347
I42048753
aI42242896
aS'+'
asS'HNRNPA1P31'
p1348
(lp1349
I80619098
aI80620067
aS'-'
asS'RPL7AP61'
p1350
(lp1351
I97901653
aI97902288
aS'+'
asS'BIVM'
p1352
(lp1353
I102799049
aI102841535
aS'+'
asS'NPM1P4'
p1354
(lp1355
I27696393
aI27697204
aS'-'
asS'AL161420.1'
p1356
(lp1357
I98871742
aI98872005
aS'+'
asS'HNRNPA1L2'
p1358
(lp1359
I52640786
aI52643796
aS'+'
asS'USP12'
p1360
(lp1361
I27066142
aI27171896
aS'-'
asS'POU4F1'
p1362
(lp1363
I78598362
aI78603560
aS'-'
asS'ESD'
p1364
(lp1365
I46771256
aI46797232
aS'-'
asS'GPC5'
p1366
(lp1367
I91398607
aI92867237
aS'+'
asS'GPC6'
p1368
(lp1369
I93226842
aI94407401
aS'+'
asS'DACH1'
p1370
(lp1371
I71437966
aI71867192
aS'-'
asS'CCDC122'
p1372
(lp1373
I43823909
aI43874926
aS'-'
asS'PCDH8'
p1374
(lp1375
I52842889
aI52848640
aS'-'
asS'PCDH9'
p1376
(lp1377
I66302834
aI67230445
aS'-'
asS'C1QTNF9'
p1378
(lp1379
I24307166
aI24322535
aS'+'
asS'USPL1'
p1380
(lp1381
I30617937
aI30660770
aS'+'
asS'TIMM8BP1'
p1382
(lp1383
I29865959
aI29866169
aS'-'
asS'RPL15P18'
p1384
(lp1385
I100150481
aI100151092
aS'-'
asS'RPL35P9'
p1386
(lp1387
I106425773
aI106426122
aS'+'
asS'MEMO1P5'
p1388
(lp1389
I95394049
aI95394454
aS'+'
asS'UPF3A'
p1390
(lp1391
I114281584
aI114305817
aS'+'
asS'DCT'
p1392
(lp1393
I94436808
aI94479669
aS'-'
asS'BASP1P1'
p1394
(lp1395
I22897341
aI22898005
aS'-'
as.