(dp1
S'OR52B2'
p2
(lp3
I6169330
aI6170408
aS'-'
asS'PGM2L1'
p4
(lp5
I74330318
aI74398473
aS'-'
asS'OR52B6'
p6
(lp7
I5580877
aI5581884
aS'+'
asS'OR52B4'
p8
(lp9
I4367263
aI4368386
aS'-'
asS'RPL7AP56'
p10
(lp11
I37725666
aI37726456
aS'+'
asS'MTCYBP41'
p12
(lp13
I87815035
aI87816157
aS'-'
asS'RPS27P20'
p14
(lp15
I129537869
aI129538114
aS'+'
asS'HSPA8'
p16
(lp17
I123057489
aI123062335
aS'-'
asS'COX6CP5'
p18
(lp19
I7977481
aI7977708
aS'+'
asS'GLTPP1'
p20
(lp21
I18189000
aI18189621
aS'+'
asS'AP000867.2'
p22
(lp23
I71506061
aI71506380
aS'-'
asS'FABP5P7'
p24
(lp25
I59781318
aI59781722
aS'-'
asS'AP000867.3'
p26
(lp27
I71629045
aI71629421
aS'+'
asS'AP006288.1'
p28
(lp29
I64531044
aI64532970
aS'+'
asS'DRAP1'
p30
(lp31
I65919257
aI65921561
aS'+'
asS'KDM2A'
p32
(lp33
I67119687
aI67258087
aS'+'
asS'AP004371.1'
p34
(lp35
I130544643
aI130544856
aS'-'
asS'OR9I1'
p36
(lp37
I58118500
aI58119444
aS'-'
asS'C2CD3'
p38
(lp39
I74012714
aI74171019
aS'-'
asS'JRKL'
p40
(lp41
I96389989
aI96507574
aS'+'
asS'NUP98'
p42
(lp43
I3675010
aI3797792
aS'-'
asS'HMGN2P36'
p44
(lp45
I13610363
aI13610771
aS'-'
asS'MUC6'
p46
(lp47
I1012821
aI1036706
aS'-'
asS'AL133399.1'
p48
(lp49
I33450646
aI33450943
aS'+'
asS'MEN1'
p50
(lp51
I64803524
aI64811294
aS'-'
asS'C11orf53'
p52
(lp53
I111245854
aI111286401
aS'+'
asS'HMGN2P38'
p54
(lp55
I73580253
aI73580517
aS'+'
asS'AL137161.1'
p56
(lp57
I33403216
aI33403605
aS'+'
asS'PRRG4'
p58
(lp59
I32829943
aI32858123
aS'+'
asS'PCNAP4'
p60
(lp61
I19274540
aI19275269
aS'-'
asS'TRAPPC4'
p62
(lp63
I119018766
aI119025454
aS'+'
asS'RPL29P23'
p64
(lp65
I33190062
aI33190503
aS'-'
asS'RPL29P22'
p66
(lp67
I63115880
aI63116338
aS'-'
asS'OR52P2P'
p68
(lp69
I4431323
aI4432277
aS'-'
asS'TSG101'
p70
(lp71
I18468336
aI18526951
aS'-'
asS'OR5D18'
p72
(lp73
I55819630
aI55820571
aS'+'
asS'OR4A1P'
p74
(lp75
I49898267
aI49899186
aS'-'
asS'APOA4'
p76
(lp77
I116820700
aI116823306
aS'-'
asS'APOA5'
p78
(lp79
I116789373
aI116792420
aS'-'
asS'OR5D13'
p80
(lp81
I55773438
aI55774382
aS'+'
asS'APOA1'
p82
(lp83
I116835751
aI116837950
aS'-'
asS'OR5D16'
p84
(lp85
I55838752
aI55839738
aS'+'
asS'AC090589.1'
p86
(lp87
I47191181
aI47191542
aS'-'
asS'DGAT2'
p88
(lp89
I75759512
aI75797276
aS'+'
asS'PAMR1'
p90
(lp91
I35432113
aI35530300
aS'-'
asS'TMEM262'
p92
(lp93
I65084979
aI65089107
aS'-'
asS'AC013488.1'
p94
(lp95
I40445304
aI40447141
aS'-'
asS'OR8L1P'
p96
(lp97
I56381635
aI56382589
aS'+'
asS'AC068205.4'
p98
(lp99
I43733761
aI43734564
aS'+'
asS'AP003392.2'
p100
(lp101
I119005727
aI119005934
aS'-'
asS'AC068205.3'
p102
(lp103
I43718676
aI43719143
aS'+'
asS'OR8J2'
p104
(lp105
I56210873
aI56211820
aS'-'
asS'MOGAT2'
p106
(lp107
I75717819
aI75731615
aS'+'
asS'PPP1R1AP1'
p108
(lp109
I75911204
aI75911628
aS'-'
asS'CHST1'
p110
(lp111
I45648877
aI45665622
aS'-'
asS'AP001836.1'
p112
(lp113
I97086160
aI97086682
aS'-'
asS'RPS6KA4'
p114
(lp115
I64359148
aI64372215
aS'+'
asS'TP53I11'
p116
(lp117
I44885903
aI44951289
aS'-'
asS'PSMD13'
p118
(lp119
I236546
aI252956
aS'+'
asS'TCIRG1'
p120
(lp121
I68039016
aI68050895
aS'+'
asS'DLAT'
p122
(lp123
I112024814
aI112064390
aS'+'
asS'SIGIRR'
p124
(lp125
I405716
aI417455
aS'-'
asS'GANAB'
p126
(lp127
I62624832
aI62646726
aS'-'
asS'SESN3'
p128
(lp129
I95165513
aI95231197
aS'-'
asS'OR8Q1P'
p130
(lp131
I124601584
aI124602238
aS'+'
asS'RIC3'
p132
(lp133
I8106093
aI8169043
aS'-'
asS'SC5D'
p134
(lp135
I121292453
aI121308694
aS'+'
asS'SETP17'
p136
(lp137
I86294760
aI86295576
aS'+'
asS'SETP16'
p138
(lp139
I118833846
aI118834556
aS'-'
asS'PELI3'
p140
(lp141
I66466327
aI66477334
aS'+'
asS'SLC36A4'
p142
(lp143
I93144171
aI93197963
aS'-'
asS'AP001521.2'
p144
(lp145
I57055587
aI57056132
aS'+'
asS'AP001521.1'
p146
(lp147
I57045091
aI57045390
aS'+'
asS'ART1'
p148
(lp149
I3645131
aI3664416
aS'+'
asS'ART5'
p150
(lp151
I3638514
aI3642316
aS'-'
asS'MYEOV'
p152
(lp153
I69299274
aI69367003
aS'+'
asS'AC015689.2'
p154
(lp155
I4210354
aI4212091
aS'-'
asS'BARX2'
p156
(lp157
I129375940
aI129452279
aS'+'
asS'AP002358.2'
p158
(lp159
I59287339
aI59289486
aS'-'
asS'MOB2'
p160
(lp161
I1470245
aI1501247
aS'-'
asS'IRF7'
p162
(lp163
I612559
aI615999
aS'-'
asS'NFRKB'
p164
(lp165
I129863636
aI129894441
aS'-'
asS'OR10S1'
p166
(lp167
I123976661
aI123977781
aS'-'
asS'CRTAM'
p168
(lp169
I122838500
aI122872639
aS'+'
asS'OR5BB1P'
p170
(lp171
I59391354
aI59392292
aS'-'
asS'AP001533.1'
p172
(lp173
I101208905
aI101209450
aS'+'
asS'FTLP6'
p174
(lp175
I66771246
aI66771667
aS'-'
asS'AC087783.2'
p176
(lp177
I34709600
aI34710161
aS'+'
asS'THEM7P'
p178
(lp179
I32112049
aI32254395
aS'-'
asS'AP004247.3'
p180
(lp181
I58171098
aI58171721
aS'+'
asS'NPM1P50'
p182
(lp183
I75079265
aI75080131
aS'-'
asS'NADSYN1'
p184
(lp185
I71453109
aI71501816
aS'+'
asS'RBMXL2'
p186
(lp187
I7089027
aI7090900
aS'+'
asS'ACRV1'
p188
(lp189
I125671522
aI125681123
aS'-'
asS'AP001877.1'
p190
(lp191
I95756959
aI95757442
aS'-'
asS'AC100767.1'
p192
(lp193
I23431677
aI23431799
aS'+'
asS'FAM86C2P'
p194
(lp195
I67791648
aI67805322
aS'-'
asS'OR5AP1P'
p196
(lp197
I56633164
aI56634103
aS'-'
asS'OLFM5P'
p198
(lp199
I5518441
aI5524955
aS'-'
asS'IFITM9P'
p200
(lp201
I69303412
aI69303807
aS'-'
asS'CDCA5'
p202
(lp203
I65068044
aI65083900
aS'-'
asS'CNTF'
p204
(lp205
I58622673
aI58625733
aS'+'
asS'CD44'
p206
(lp207
I35138870
aI35232402
aS'+'
asS'RSF1'
p208
(lp209
I77659996
aI77821017
aS'-'
asS'HIKESHI'
p210
(lp211
I86302223
aI86345931
aS'+'
asS'GTF2IP11'
p212
(lp213
I50100892
aI50102898
aS'-'
asS'PHOX2A'
p214
(lp215
I72239867
aI72245664
aS'-'
asS'OR4A44P'
p216
(lp217
I48627546
aI48628493
aS'+'
asS'OR4A19P'
p218
(lp219
I49920312
aI49921414
aS'-'
asS'KRT18P14'
p220
(lp221
I35860249
aI35861498
aS'-'
asS'OR52X1P'
p222
(lp223
I6066873
aI6067786
aS'-'
asS'UPK2'
p224
(lp225
I118925164
aI118958554
aS'+'
asS'OR5P3'
p226
(lp227
I7825037
aI7825972
aS'-'
asS'OR5P2'
p228
(lp229
I7795905
aI7796973
aS'-'
asS'FAR1'
p230
(lp231
I13668670
aI13732346
aS'+'
asS'CHID1'
p232
(lp233
I867860
aI915058
aS'-'
asS'WDR74'
p234
(lp235
I62832912
aI62841809
aS'-'
asS'H2AFZP4'
p236
(lp237
I70278921
aI70279297
aS'-'
asS'AP003033.2'
p238
(lp239
I55948120
aI55948924
aS'-'
asS'SYTL2'
p240
(lp241
I85694224
aI85811159
aS'-'
asS'OR51Q1'
p242
(lp243
I5422111
aI5423206
aS'+'
asS'SIDT2'
p244
(lp245
I117178733
aI117197442
aS'+'
asS'OR52B5P'
p246
(lp247
I5560967
aI5561917
aS'+'
asS'OR5B19P'
p248
(lp249
I58343737
aI58344664
aS'-'
asS'AP004833.1'
p250
(lp251
I89820082
aI89826922
aS'+'
asS'MS4A4A'
p252
(lp253
I60280586
aI60308972
aS'+'
asS'AP004833.3'
p254
(lp255
I89789412
aI89789733
aS'-'
asS'OR51B3P'
p256
(lp257
I5314772
aI5315684
aS'-'
asS'OR51A3P'
p258
(lp259
I4937371
aI4938294
aS'-'
asS'RELT'
p260
(lp261
I73376264
aI73397472
aS'+'
asS'PCF11'
p262
(lp263
I83156988
aI83187451
aS'+'
asS'NAALAD2'
p264
(lp265
I90134529
aI90192894
aS'+'
asS'RELA'
p266
(lp267
I65653596
aI65663094
aS'-'
asS'ARL14EP'
p268
(lp269
I30323051
aI30338227
aS'+'
asS'OR10G8'
p270
(lp271
I124029590
aI124030634
aS'+'
asS'OR7E14P'
p272
(lp273
I17013998
aI17052658
aS'+'
asS'NRXN2'
p274
(lp275
I64606174
aI64723188
aS'-'
asS'RPL23AP65'
p276
(lp277
I9606142
aI9606609
aS'+'
asS'CDON'
p278
(lp279
I125955796
aI126063292
aS'-'
asS'OSBPL9P3'
p280
(lp281
I91115961
aI91116555
aS'+'
asS'OR5BR1P'
p282
(lp283
I59332757
aI59334086
aS'-'
asS'RPL37AP8'
p284
(lp285
I111889199
aI111889474
aS'-'
asS'TMEM179B'
p286
(lp287
I62787427
aI62790405
aS'+'
asS'PAK1'
p288
(lp289
I77321707
aI77474062
aS'-'
asS'OR4C7P'
p290
(lp291
I54635037
aI54635955
aS'-'
asS'IL10RA'
p292
(lp293
I117986737
aI118003037
aS'+'
asS'LBHD1'
p294
(lp295
I62662817
aI62671769
aS'-'
asS'SAA4'
p296
(lp297
I18231349
aI18236893
aS'-'
asS'C1DP5'
p298
(lp299
I83111060
aI83111442
aS'-'
asS'SAA2'
p300
(lp301
I18239223
aI18248643
aS'-'
asS'SAA1'
p302
(lp303
I18266174
aI18269974
aS'+'
asS'OVCH2'
p304
(lp305
I7689438
aI7706421
aS'-'
asS'OSBPL9P2'
p306
(lp307
I91114724
aI91115951
aS'-'
asS'OR4C15'
p308
(lp309
I55554307
aI55555419
aS'+'
asS'OR4C16'
p310
(lp311
I55572128
aI55573060
aS'+'
asS'OR4C11'
p312
(lp313
I55603354
aI55604398
aS'-'
asS'OR4C13'
p314
(lp315
I49952391
aI49953419
aS'+'
asS'OR4C12'
p316
(lp317
I49981473
aI49982535
aS'-'
asS'OR5D2P'
p318
(lp319
I55714799
aI55715709
aS'+'
asS'CCDC90B'
p320
(lp321
I83259097
aI83286407
aS'-'
asS'TMEM45B'
p322
(lp323
I129815819
aI129860003
aS'+'
asS'IGF2'
p324
(lp325
I2129112
aI2139389
aS'-'
asS'C11orf1'
p326
(lp327
I111879224
aI111885975
aS'+'
asS'OR4D9'
p328
(lp329
I59514913
aI59515857
aS'+'
asS'MRE11'
p330
(lp331
I94415578
aI94493908
aS'-'
asS'OR8D4'
p332
(lp333
I123906146
aI123907476
aS'+'
asS'CENPUP1'
p334
(lp335
I13756027
aI13757560
aS'+'
asS'NLRP6'
p336
(lp337
I278365
aI285359
aS'+'
asS'HBE1'
p338
(lp339
I5268345
aI5505604
aS'-'
asS'OR8D1'
p340
(lp341
I124309812
aI124310837
aS'-'
asS'OR8D2'
p342
(lp343
I124319238
aI124320288
aS'-'
asS'PHLDB1'
p344
(lp345
I118606440
aI118658031
aS'+'
asS'EPS8L2'
p346
(lp347
I694438
aI720212
aS'+'
asS'CYP2R1'
p348
(lp349
I14877440
aI14892252
aS'-'
asS'OR7E5P'
p350
(lp351
I55979398
aI55980103
aS'-'
asS'ABTB2'
p352
(lp353
I34150988
aI34358008
aS'-'
asS'COPS8P3'
p354
(lp355
I78581675
aI78582156
aS'+'
asS'APLNR'
p356
(lp357
I57233593
aI57237314
aS'-'
asS'ARL2-SNX15'
p358
(lp359
I65014182
aI65040570
aS'+'
asS'TMEM216'
p360
(lp361
I61391687
aI61398851
aS'+'
asS'TRIM3'
p362
(lp363
I6448614
aI6474459
aS'-'
asS'GAS2'
p364
(lp365
I22666615
aI22813055
aS'+'
asS'TRIM5'
p366
(lp367
I5678320
aI5938619
aS'-'
asS'OR4C1P'
p368
(lp369
I55509741
aI55510671
aS'+'
asS'TRIM6'
p370
(lp371
I5596109
aI5612952
aS'+'
asS'AP002748.2'
p372
(lp373
I66454234
aI66454581
aS'+'
asS'ANKRD13D'
p374
(lp375
I67288547
aI67302481
aS'+'
asS'APIP'
p376
(lp377
I34853094
aI34890741
aS'-'
asS'AP002748.4'
p378
(lp379
I66509079
aI66533613
aS'+'
asS'FAM168A'
p380
(lp381
I73400487
aI73598189
aS'-'
asS'AMPD3'
p382
(lp383
I10317671
aI10478637
aS'+'
asS'SLC22A12'
p384
(lp385
I64590641
aI64602348
aS'+'
asS'TEX12'
p386
(lp387
I112167372
aI112172559
aS'+'
asS'AP003174.3'
p388
(lp389
I115538869
aI115539384
aS'-'
asS'AC103710.2'
p390
(lp391
I4709569
aI4710510
aS'+'
asS'MMP12'
p392
(lp393
I102862736
aI102875034
aS'-'
asS'RPS6KB2'
p394
(lp395
I67428501
aI67435408
aS'+'
asS'AP000763.1'
p396
(lp397
I73452020
aI73452344
aS'+'
asS'MRGPRX4'
p398
(lp399
I18172837
aI18174280
aS'+'
asS'AP000763.2'
p400
(lp401
I73510658
aI73510820
aS'+'
asS'MRGPRX1'
p402
(lp403
I18934141
aI18939507
aS'-'
asS'TPBGL'
p404
(lp405
I75240905
aI75243697
aS'+'
asS'SIPA1'
p406
(lp407
I65638097
aI65650930
aS'+'
asS'AC103974.2'
p408
(lp409
I18836304
aI18837081
aS'+'
asS'AP001318.1'
p410
(lp411
I126278257
aI126278577
aS'-'
asS'DPAGT1'
p412
(lp413
I119096503
aI119108331
aS'-'
asS'AP001318.4'
p414
(lp415
I126376773
aI126376893
aS'-'
asS'AP001858.1'
p416
(lp417
I63046785
aI63048126
aS'+'
asS'API5'
p418
(lp419
I43312003
aI43344529
aS'+'
asS'BUD13'
p420
(lp421
I116748170
aI116772988
aS'-'
asS'AC020549.2'
p422
(lp423
I114517864
aI114518371
aS'+'
asS'LRRC32'
p424
(lp425
I76657524
aI76670747
aS'-'
asS'AC020549.1'
p426
(lp427
I114583253
aI114584692
aS'+'
asS'OR5AN1'
p428
(lp429
I59364412
aI59365448
aS'+'
asS'TUB'
p430
(lp431
I8019244
aI8101780
aS'+'
asS'OR4A45P'
p432
(lp433
I48579436
aI48580336
aS'+'
asS'PRDX5'
p434
(lp435
I64318088
aI64321811
aS'+'
asS'RPS4XP12'
p436
(lp437
I121250270
aI121250978
aS'-'
asS'RPS4XP13'
p438
(lp439
I57576292
aI57577080
aS'-'
asS'SVIP'
p440
(lp441
I22813799
aI22827877
aS'-'
asS'OTUB1'
p442
(lp443
I63986005
aI64001811
aS'+'
asS'SWAP70'
p444
(lp445
I9664077
aI9752991
aS'+'
asS'MTND1P35'
p446
(lp447
I89908540
aI89909047
aS'+'
asS'MED28P5'
p448
(lp449
I97000274
aI97000711
aS'-'
asS'AC103710.3'
p450
(lp451
I4718612
aI4719559
aS'+'
asS'AP002803.1'
p452
(lp453
I85336075
aI85336572
aS'-'
asS'OR5D14'
p454
(lp455
I55795556
aI55796500
aS'+'
asS'C11orf16'
p456
(lp457
I8920076
aI8932989
aS'-'
asS'PHLDA2'
p458
(lp459
I2928273
aI2929455
aS'-'
asS'ART2P'
p460
(lp461
I72519986
aI72521733
aS'+'
asS'GPHA2'
p462
(lp463
I64934471
aI64935888
aS'-'
asS'ST3GAL4'
p464
(lp465
I126355684
aI126414638
aS'+'
asS'AP2A2'
p466
(lp467
I925809
aI1012245
aS'+'
asS'OR5AN2P'
p468
(lp469
I59309681
aI59310576
aS'-'
asS'CALCP'
p470
(lp471
I14907518
aI14907986
aS'+'
asS'TRIM51BP'
p472
(lp473
I89854953
aI89862893
aS'+'
asS'ARHGAP32'
p474
(lp475
I128965060
aI129192198
aS'-'
asS'TUBAP2'
p476
(lp477
I90282560
aI90284172
aS'+'
asS'CALCA'
p478
(lp479
I14966669
aI14972286
aS'-'
asS'CALCB'
p480
(lp481
I14904997
aI15078636
aS'+'
asS'AP003097.1'
p482
(lp483
I86195132
aI86196266
aS'+'
asS'YWHABP2'
p484
(lp485
I18490243
aI18490955
aS'-'
asS'LYVE1'
p486
(lp487
I10559816
aI10611689
aS'-'
asS'KMT5B'
p488
(lp489
I68154863
aI68213415
aS'-'
asS'RAD9A'
p490
(lp491
I67317871
aI67391434
aS'+'
asS'RBM4B'
p492
(lp493
I66664998
aI66677921
aS'-'
asS'OR52K3P'
p494
(lp495
I4474813
aI4475755
aS'+'
asS'OR51B5'
p496
(lp497
I5342586
aI5343524
aS'-'
asS'OR51B4'
p498
(lp499
I5301014
aI5301996
aS'-'
asS'B3GAT1'
p500
(lp501
I134378506
aI134411918
aS'-'
asS'OR51B6'
p502
(lp503
I5351508
aI5352446
aS'+'
asS'OR51B2'
p504
(lp505
I5323359
aI5324297
aS'-'
asS'PLET1'
p506
(lp507
I112248479
aI112260860
aS'-'
asS'TUT1'
p508
(lp509
I62575048
aI62592177
aS'-'
asS'CUL5'
p510
(lp511
I108008733
aI108107776
aS'+'
asS'ASRGL1'
p512
(lp513
I62337448
aI62393412
aS'+'
asS'TRIM29'
p514
(lp515
I120137765
aI120185423
aS'-'
asS'FAM8A2P'
p516
(lp517
I56331347
aI56332488
aS'-'
asS'PRMT3'
p518
(lp519
I20387558
aI20509294
aS'+'
asS'TRIM21'
p520
(lp521
I4384902
aI4393696
aS'-'
asS'TRIM22'
p522
(lp523
I5708208
aI5737089
aS'+'
asS'FLRT1'
p524
(lp525
I64103188
aI64119173
aS'+'
asS'SLC15A3'
p526
(lp527
I60937084
aI60951785
aS'-'
asS'OR10D3'
p528
(lp529
I124185216
aI124186245
aS'+'
asS'AC130364.1'
p530
(lp531
I49817778
aI49825553
aS'+'
asS'AC130364.2'
p532
(lp533
I49824839
aI49826724
aS'-'
asS'KAT5'
p534
(lp535
I65711996
aI65719604
aS'+'
asS'ARCN1'
p536
(lp537
I118572436
aI118603033
aS'+'
asS'TTC17'
p538
(lp539
I43358941
aI43494933
aS'+'
asS'TTC12'
p540
(lp541
I113314811
aI113383544
aS'+'
asS'CD3D'
p542
(lp543
I118338954
aI118342744
aS'-'
asS'CD3E'
p544
(lp545
I118304545
aI118316175
aS'+'
asS'CD3G'
p546
(lp547
I118344356
aI118355161
aS'+'
asS'TRIM51GP'
p548
(lp549
I48975501
aI48981695
aS'-'
asS'MRPL21'
p550
(lp551
I68891279
aI68903835
aS'-'
asS'MRPL23'
p552
(lp553
I1947332
aI1984522
aS'+'
asS'OR10V1'
p554
(lp555
I59712823
aI59713864
aS'-'
asS'DNAJC24'
p556
(lp557
I31369840
aI31431849
aS'+'
asS'GAB2'
p558
(lp559
I78215297
aI78417806
aS'-'
asS'OR51H2P'
p560
(lp561
I4876557
aI4877462
aS'+'
asS'ZFP91'
p562
(lp563
I58579111
aI58621042
aS'+'
asS'ARHGAP1'
p564
(lp565
I46677080
aI46700599
aS'-'
asS'HPRT1P3'
p566
(lp567
I93998643
aI93999218
aS'-'
asS'USP47'
p568
(lp569
I11841423
aI11959323
aS'+'
asS'SRSF8'
p570
(lp571
I95067197
aI95071224
aS'+'
asS'AP000936.3'
p572
(lp573
I117035797
aI117036051
aS'-'
asS'AP000936.2'
p574
(lp575
I117117794
aI117119181
aS'-'
asS'DNAJB13'
p576
(lp577
I73950319
aI73970287
aS'+'
asS'OR4D10'
p578
(lp579
I59477373
aI59478396
aS'+'
asS'OR4D11'
p580
(lp581
I59503576
aI59504511
aS'+'
asS'AP005597.2'
p582
(lp583
I55302290
aI55305060
aS'-'
asS'HNRNPA3P9'
p584
(lp585
I32591793
aI32592771
aS'-'
asS'OR4C2P'
p586
(lp587
I48420210
aI48421273
aS'+'
asS'CHEK1'
p588
(lp589
I125625974
aI125676255
aS'+'
asS'CLNS1A'
p590
(lp591
I77514936
aI77619695
aS'-'
asS'AC108448.2'
p592
(lp593
I3084393
aI3085443
aS'-'
asS'OR4C10P'
p594
(lp595
I48432217
aI48433147
aS'-'
asS'HSPE1P18'
p596
(lp597
I118208932
aI118209211
aS'-'
asS'RPUSD4'
p598
(lp599
I126202094
aI126211692
aS'-'
asS'AP001324.1'
p600
(lp601
I74745716
aI74746114
aS'-'
asS'PAX6'
p602
(lp603
I31788908
aI31817961
aS'-'
asS'CASP1P1'
p604
(lp605
I105122661
aI105123339
aS'-'
asS'CASP1P2'
p606
(lp607
I105063345
aI105071541
aS'-'
asS'KCNQ1'
p608
(lp609
I2444991
aI2849109
aS'+'
asS'PTPN5'
p610
(lp611
I18727930
aI18792721
aS'-'
asS'RCE1'
p612
(lp613
I66842835
aI66846526
aS'+'
asS'SLC3A2'
p614
(lp615
I62856111
aI62888860
aS'+'
asS'UEVLD'
p616
(lp617
I18529609
aI18588683
aS'-'
asS'B4GAT1'
p618
(lp619
I66345372
aI66347692
aS'-'
asS'NNMT'
p620
(lp621
I114257831
aI114313285
aS'+'
asS'MS4A10'
p622
(lp623
I60785348
aI60801305
aS'+'
asS'MS4A12'
p624
(lp625
I60492778
aI60507430
aS'+'
asS'MS4A13'
p626
(lp627
I60515413
aI60542721
aS'+'
asS'MS4A14'
p628
(lp629
I60378530
aI60417688
aS'+'
asS'MS4A15'
p630
(lp631
I60757003
aI60776731
aS'+'
asS'BMPR1APS2'
p632
(lp633
I121361854
aI121362865
aS'-'
asS'PTDSS2'
p634
(lp635
I450280
aI491387
aS'+'
asS'AGBL2'
p636
(lp637
I47659591
aI47715360
aS'-'
asS'PDCL2P2'
p638
(lp639
I65160194
aI65160382
aS'-'
asS'PRR13P3'
p640
(lp641
I117336256
aI117336631
aS'-'
asS'PRR13P2'
p642
(lp643
I9311284
aI9311689
aS'-'
asS'ADAMTS15'
p644
(lp645
I130448974
aI130476641
aS'+'
asS'ARRB1'
p646
(lp647
I75264182
aI75351705
aS'-'
asS'OR52N4'
p648
(lp649
I5754693
aI5755729
aS'+'
asS'OR52N5'
p650
(lp651
I5777634
aI5778667
aS'-'
asS'OR52N2'
p652
(lp653
I5820314
aI5821348
aS'+'
asS'OR52N1'
p654
(lp655
I5787854
aI5788816
aS'-'
asS'AP002404.1'
p656
(lp657
I89498748
aI89499198
aS'-'
asS'SIAE'
p658
(lp659
I124633113
aI124673881
aS'-'
asS'PSMA1'
p660
(lp661
I14505064
aI14643617
aS'-'
asS'CYB561A3'
p662
(lp663
I61348745
aI61362299
aS'-'
asS'AP002770.2'
p664
(lp665
I73921665
aI73922196
aS'-'
asS'SLC22A18AS'
p666
(lp667
I2887780
aI2903740
aS'-'
asS'AP002365.1'
p668
(lp669
I121426645
aI121427416
aS'-'
asS'AC068472.1'
p670
(lp671
I23520322
aI23521202
aS'+'
asS'AP003327.1'
p672
(lp673
I129788064
aI129788190
aS'-'
asS'EXPH5'
p674
(lp675
I108505431
aI108593647
aS'-'
asS'RPL12P30'
p676
(lp677
I30368148
aI30368646
aS'+'
asS'RPL12P31'
p678
(lp679
I35997226
aI35997675
aS'-'
asS'KCNJ1'
p680
(lp681
I128836315
aI128867296
aS'-'
asS'KCNJ5'
p682
(lp683
I128891356
aI128921035
aS'+'
asS'FAM86C1'
p684
(lp685
I71787510
aI71801234
aS'+'
asS'OR8K2P'
p686
(lp687
I56335142
aI56336068
aS'+'
asS'AP003396.4'
p688
(lp689
I119403963
aI119404227
aS'-'
asS'AP001284.1'
p690
(lp691
I79987513
aI79989630
aS'+'
asS'AC109635.6'
p692
(lp693
I50268161
aI50269273
aS'+'
asS'AC109635.4'
p694
(lp695
I50279828
aI50298452
aS'-'
asS'AC109635.5'
p696
(lp697
I50170156
aI50190441
aS'+'
asS'AC109635.3'
p698
(lp699
I50290749
aI50290933
aS'+'
asS'AC109635.1'
p700
(lp701
I50246554
aI50247761
aS'-'
asS'AP004245.1'
p702
(lp703
I56690465
aI56690723
aS'+'
asS'OR51R1P'
p704
(lp705
I4418060
aI4419011
aS'+'
asS'LDHAL6A'
p706
(lp707
I18455884
aI18479600
aS'+'
asS'AP004247.4'
p708
(lp709
I58108720
aI58109661
aS'-'
asS'AP003396.2'
p710
(lp711
I119402792
aI119404088
aS'+'
asS'AP004247.1'
p712
(lp713
I58072378
aI58075438
aS'-'
asS'ST13P5'
p714
(lp715
I18261982
aI18263091
aS'+'
asS'AC023206.1'
p716
(lp717
I28144907
aI28145204
aS'-'
asS'PEX16'
p718
(lp719
I45910205
aI45918812
aS'-'
asS'RAB3IL1'
p720
(lp721
I61897301
aI61920269
aS'-'
asS'CD248'
p722
(lp723
I66314487
aI66317044
aS'-'
asS'NAP1L4'
p724
(lp725
I2944431
aI2992377
aS'-'
asS'CATSPER1'
p726
(lp727
I66016752
aI66026517
aS'-'
asS'AP001187.1'
p728
(lp729
I64881535
aI64881945
aS'+'
asS'WTAPP1'
p730
(lp731
I102746968
aI102831511
aS'+'
asS'AC068339.1'
p732
(lp733
I56097244
aI56097384
aS'-'
asS'NDUFB11P1'
p734
(lp735
I92336032
aI92336496
aS'-'
asS'AP001189.2'
p736
(lp737
I76591023
aI76591211
aS'+'
asS'AC068339.2'
p738
(lp739
I56116639
aI56117256
aS'-'
asS'AP003717.3'
p740
(lp741
I73994972
aI73996151
aS'-'
asS'AP003717.2'
p742
(lp743
I73991283
aI73992180
aS'-'
asS'HPX'
p744
(lp745
I6431049
aI6441064
aS'-'
asS'AP002795.1'
p746
(lp747
I93991346
aI93991429
aS'-'
asS'CATSPERZ'
p748
(lp749
I64300391
aI64304766
aS'+'
asS'MTND5P21'
p750
(lp751
I11239759
aI11240280
aS'+'
asS'AP000797.1'
p752
(lp753
I115951105
aI115951491
aS'-'
asS'AP000797.2'
p754
(lp755
I115950196
aI115950801
aS'-'
asS'PGA3'
p756
(lp757
I61203380
aI61213098
aS'+'
asS'PGA4'
p758
(lp759
I61222216
aI61231927
aS'+'
asS'PGA5'
p760
(lp761
I61241042
aI61251448
aS'+'
asS'TAGLN'
p762
(lp763
I117199394
aI117204782
aS'+'
asS'CCDC179'
p764
(lp765
I22846931
aI22860426
aS'-'
asS'PPP1CA'
p766
(lp767
I67400855
aI67421181
aS'-'
asS'MPPED2'
p768
(lp769
I30384493
aI30586281
aS'-'
asS'C11orf21'
p770
(lp771
I2295645
aI2302060
aS'-'
asS'SLC25A47P1'
p772
(lp773
I59263389
aI59263802
aS'-'
asS'C11orf24'
p774
(lp775
I68261335
aI68271962
aS'-'
asS'OR10V3P'
p776
(lp777
I59741325
aI59742049
aS'+'
asS'FXYD6'
p778
(lp779
I117836981
aI117877486
aS'-'
asS'LRRC6P1'
p780
(lp781
I38211389
aI38212799
aS'+'
asS'FXYD2'
p782
(lp783
I117801730
aI117828068
aS'-'
asS'AP003973.1'
p784
(lp785
I111107060
aI111107750
aS'-'
asS'CDK2AP2'
p786
(lp787
I67506512
aI67508649
aS'-'
asS'SLC39A13'
p788
(lp789
I47407132
aI47416495
aS'+'
asS'ENPP7P8'
p790
(lp791
I71722052
aI71781183
aS'+'
asS'ENPP7P7'
p792
(lp793
I67812557
aI67873367
aS'-'
asS'OR55B1P'
p794
(lp795
I4146282
aI4147295
aS'-'
asS'CEP126'
p796
(lp797
I101915015
aI102001058
aS'+'
asS'EIF1AD'
p798
(lp799
I65996545
aI66002157
aS'-'
asS'ARHGAP20'
p800
(lp801
I110577054
aI110713189
aS'-'
asS'OR51A7'
p802
(lp803
I4907370
aI4908308
aS'+'
asS'FXYD6-FXYD2'
p804
(lp805
I117820163
aI117876667
aS'-'
asS'OR4A42P'
p806
(lp807
I48610063
aI48611000
aS'+'
asS'MICALCL'
p808
(lp809
I12286900
aI12359144
aS'+'
asS'MED17'
p810
(lp811
I93784227
aI93814963
aS'+'
asS'RPS17P15'
p812
(lp813
I111105547
aI111105895
aS'-'
asS'TRIM53CP'
p814
(lp815
I48985871
aI48991881
aS'-'
asS'ATG2A'
p816
(lp817
I64894546
aI64917248
aS'-'
asS'OR51A2'
p818
(lp819
I4954772
aI4955713
aS'-'
asS'OR51A4'
p820
(lp821
I4946159
aI4947100
aS'-'
asS'NUCB2'
p822
(lp823
I17208153
aI17295424
aS'+'
asS'MUS81'
p824
(lp825
I65860062
aI65866440
aS'+'
asS'EEF1G'
p826
(lp827
I62559601
aI62573973
aS'-'
asS'OR5R1'
p828
(lp829
I56417258
aI56418232
aS'-'
asS'FAT3'
p830
(lp831
I92352096
aI92896452
aS'+'
asS'EIF4G2'
p832
(lp833
I10797054
aI10809110
aS'-'
asS'AP005435.4'
p834
(lp835
I89883927
aI89886213
aS'-'
asS'UQCC3'
p836
(lp837
I62670273
aI62673577
aS'+'
asS'RPA2P3'
p838
(lp839
I100336856
aI100337625
aS'+'
asS'AC023078.4'
p840
(lp841
I18956055
aI18957015
aS'-'
asS'TBRG1'
p842
(lp843
I124622875
aI124635398
aS'+'
asS'AC116533.1'
p844
(lp845
I16974693
aI16975013
aS'-'
asS'RASSF7'
p846
(lp847
I560404
aI563993
aS'+'
asS'TRIM34'
p848
(lp849
I5619764
aI5644398
aS'+'
asS'CD151'
p850
(lp851
I832843
aI838829
aS'+'
asS'FEN1'
p852
(lp853
I61792637
aI61797244
aS'+'
asS'THAP12'
p854
(lp855
I76349956
aI76380942
aS'-'
asS'AP006437.1'
p856
(lp857
I55726118
aI55727158
aS'+'
asS'TRIM51FP'
p858
(lp859
I49833140
aI49839320
aS'-'
asS'OR52P1P'
p860
(lp861
I5726502
aI5727464
aS'+'
asS'PTH'
p862
(lp863
I13492099
aI13496181
aS'-'
asS'TRIM77BP'
p864
(lp865
I49117019
aI49124570
aS'-'
asS'ATF4P4'
p866
(lp867
I113789231
aI113791160
aS'+'
asS'MTCO3P15'
p868
(lp869
I103402013
aI103402586
aS'-'
asS'SCT'
p870
(lp871
I626431
aI627143
aS'-'
asS'PTS'
p872
(lp873
I112226388
aI112269955
aS'+'
asS'MRPL11'
p874
(lp875
I66435080
aI66466738
aS'-'
asS'RCN1'
p876
(lp877
I31816384
aI32104665
aS'+'
asS'MRPL17'
p878
(lp879
I6680782
aI6683401
aS'-'
asS'AP002963.1'
p880
(lp881
I110876994
aI110877177
aS'-'
asS'OR52A1'
p882
(lp883
I5151009
aI5186382
aS'-'
asS'OR52A5'
p884
(lp885
I5131692
aI5132642
aS'-'
asS'TMPRSS13'
p886
(lp887
I117900643
aI117929381
aS'-'
asS'POLR2G'
p888
(lp889
I62761544
aI62766710
aS'+'
asS'DCUN1D5'
p890
(lp891
I103062079
aI103092215
aS'-'
asS'POLR2L'
p892
(lp893
I837356
aI842529
aS'-'
asS'RHOG'
p894
(lp895
I3826978
aI3840983
aS'-'
asS'RHOD'
p896
(lp897
I67056818
aI67072013
aS'+'
asS'ABCG4'
p898
(lp899
I119149012
aI119162653
aS'+'
asS'PRDM10'
p900
(lp901
I129899706
aI130002835
aS'-'
asS'PRDM11'
p902
(lp903
I45095806
aI45224908
aS'+'
asS'AP005018.2'
p904
(lp905
I117135528
aI117138582
aS'+'
asS'AP005018.1'
p906
(lp907
I117143891
aI117144191
aS'-'
asS'AP001889.1'
p908
(lp909
I110049528
aI110050160
aS'+'
asS'BATF2'
p910
(lp911
I64987943
aI64997045
aS'-'
asS'LRRC10B'
p912
(lp913
I61508800
aI61511018
aS'+'
asS'DSCAML1'
p914
(lp915
I117427773
aI117797261
aS'-'
asS'PHBP17'
p916
(lp917
I123340174
aI123340714
aS'-'
asS'PHBP16'
p918
(lp919
I94055023
aI94055972
aS'-'
asS'OR5B21'
p920
(lp921
I58507175
aI58508105
aS'-'
asS'FJX1'
p922
(lp923
I35618419
aI35620868
aS'+'
asS'FOXR1'
p924
(lp925
I118971707
aI118981291
aS'+'
asS'EIF4A2P3'
p926
(lp927
I58242043
aI58243097
aS'-'
asS'EIF4A2P5'
p928
(lp929
I32085111
aI32085712
aS'+'
asS'AC100767.2'
p930
(lp931
I23370116
aI23377644
aS'-'
asS'OR1S1'
p932
(lp933
I58214745
aI58215723
aS'+'
asS'OR1S2'
p934
(lp935
I58203202
aI58204181
aS'-'
asS'AP002812.4'
p936
(lp937
I77914990
aI77915275
aS'-'
asS'MUC5B'
p938
(lp939
I1223066
aI1262172
aS'+'
asS'UCP2'
p940
(lp941
I73974667
aI73983307
aS'-'
asS'KRTAP5-10'
p942
(lp943
I71565563
aI71566738
aS'+'
asS'KRTAP5-11'
p944
(lp945
I71581910
aI71603353
aS'-'
asS'BTG4'
p946
(lp947
I111467526
aI111512354
aS'-'
asS'FZD4'
p948
(lp949
I86945679
aI86955391
aS'-'
asS'NECTIN1'
p950
(lp951
I119638098
aI119728553
aS'-'
asS'OR10W1'
p952
(lp953
I58266792
aI58268260
aS'-'
asS'OLFML1'
p954
(lp955
I7485482
aI7511377
aS'+'
asS'PTPMT1'
p956
(lp957
I47565898
aI47573461
aS'+'
asS'TRIM51DP'
p958
(lp959
I49874945
aI49876638
aS'+'
asS'FLJ42102'
p960
(lp961
I71382601
aI71407772
aS'-'
asS'OR8B2'
p962
(lp963
I124382395
aI124383362
aS'-'
asS'OR8B3'
p964
(lp965
I124396382
aI124397368
aS'-'
asS'TMPRSS4-AS1'
p966
(lp967
I118003634
aI118088299
aS'-'
asS'OR8B4'
p968
(lp969
I124423904
aI124424893
aS'-'
asS'AP000852.1'
p970
(lp971
I84639993
aI84640565
aS'+'
asS'AP002826.1'
p972
(lp973
I57029408
aI57029722
aS'+'
asS'OR8B8'
p974
(lp975
I124440126
aI124441158
aS'-'
asS'ADM'
p976
(lp977
I10304680
aI10307397
aS'+'
asS'AP002001.1'
p978
(lp979
I106251407
aI106264905
aS'+'
asS'AP002001.2'
p980
(lp981
I106310045
aI106311791
aS'+'
asS'OR10AG1'
p982
(lp983
I55967558
aI55968463
aS'-'
asS'ANAPC15'
p984
(lp985
I72106378
aI72112704
aS'-'
asS'PTP4A1P6'
p986
(lp987
I86432098
aI86432575
aS'+'
asS'OR51A9P'
p988
(lp989
I4660853
aI4661763
aS'-'
asS'AP003072.1'
p990
(lp991
I93221486
aI93221630
aS'-'
asS'OR2AH1P'
p992
(lp993
I56669017
aI56669944
aS'-'
asS'MRGPRX3'
p994
(lp995
I18120955
aI18138480
aS'+'
asS'OR7E1P'
p996
(lp997
I67974286
aI67975243
aS'-'
asS'OR4F2P'
p998
(lp999
I86649
aI87586
aS'-'
asS'AP003122.1'
p1000
(lp1001
I89766440
aI89768836
aS'-'
asS'LPXN'
p1002
(lp1003
I58526871
aI58578166
aS'-'
asS'TALDO1'
p1004
(lp1005
I747329
aI765024
aS'+'
asS'MRGPRX2'
p1006
(lp1007
I19054455
aI19060681
aS'-'
asS'AP001823.1'
p1008
(lp1009
I107585901
aI107586903
aS'-'
asS'CCDC58P5'
p1010
(lp1011
I73850469
aI73851211
aS'-'
asS'OR5G5P'
p1012
(lp1013
I56802084
aI56820422
aS'-'
asS'OVOL1'
p1014
(lp1015
I65787022
aI65797219
aS'+'
asS'OOSP1'
p1016
(lp1017
I59938455
aI59995845
aS'+'
asS'OOSP2'
p1018
(lp1019
I60040275
aI60048044
aS'+'
asS'RAPSN'
p1020
(lp1021
I47437757
aI47449178
aS'-'
asS'AC087280.1'
p1022
(lp1023
I6843664
aI6844666
aS'-'
asS'KCNK4'
p1024
(lp1025
I64291325
aI64300028
aS'+'
asS'KCNK7'
p1026
(lp1027
I65592855
aI65595996
aS'-'
asS'GPR137'
p1028
(lp1029
I64270062
aI64288090
aS'+'
asS'CRY2'
p1030
(lp1031
I45847406
aI45883248
aS'+'
asS'AP003499.1'
p1032
(lp1033
I93609760
aI93610333
aS'-'
asS'OR2AT4'
p1034
(lp1035
I75088713
aI75089754
aS'-'
asS'AC103855.4'
p1036
(lp1037
I45514187
aI45514451
aS'+'
asS'TRAF6'
p1038
(lp1039
I36487027
aI36510272
aS'-'
asS'GTF2H1'
p1040
(lp1041
I18322596
aI18367044
aS'+'
asS'TMPRSS4'
p1042
(lp1043
I118077038
aI118121890
aS'+'
asS'TMPRSS5'
p1044
(lp1045
I113687551
aI113706373
aS'-'
asS'LRRC56'
p1046
(lp1047
I537527
aI554916
aS'+'
asS'LRRC55'
p1048
(lp1049
I57181747
aI57191717
aS'+'
asS'DBX1'
p1050
(lp1051
I20156155
aI20160613
aS'-'
asS'NXPE2P1'
p1052
(lp1053
I114512706
aI114513431
aS'-'
asS'TBC1D10C'
p1054
(lp1055
I67403915
aI67410089
aS'+'
asS'SDHD'
p1056
(lp1057
I112086903
aI112193805
aS'+'
asS'OR4A43P'
p1058
(lp1059
I48526064
aI48526971
aS'+'
asS'AC027369.6'
p1060
(lp1061
I48880111
aI48885237
aS'+'
asS'YPEL5P2'
p1062
(lp1063
I47841324
aI47841682
aS'+'
asS'SBF2'
p1064
(lp1065
I9778667
aI10294207
aS'-'
asS'ELOBP2'
p1066
(lp1067
I130032866
aI130033220
aS'-'
asS'OR51B8P'
p1068
(lp1069
I5330592
aI5331360
aS'-'
asS'GVINP1'
p1070
(lp1071
I6713536
aI6746439
aS'-'
asS'AC027369.2'
p1072
(lp1073
I48959928
aI48961810
aS'+'
asS'AC090857.1'
p1074
(lp1075
I21169748
aI21170137
aS'+'
asS'COMMD9'
p1076
(lp1077
I36272292
aI36289429
aS'-'
asS'GUCY1A2'
p1078
(lp1079
I106674012
aI107018524
aS'-'
asS'AC023232.1'
p1080
(lp1081
I47905323
aI47905607
aS'-'
asS'METTL12'
p1082
(lp1083
I62665313
aI62668496
aS'+'
asS'WEE1'
p1084
(lp1085
I9573681
aI9589207
aS'+'
asS'METTL15'
p1086
(lp1087
I28110166
aI28527041
aS'+'
asS'TREHP1'
p1088
(lp1089
I118688039
aI118690600
aS'-'
asS'MACROD1'
p1090
(lp1091
I63998558
aI64166061
aS'-'
asS'LMNTD2'
p1092
(lp1093
I554864
aI560779
aS'-'
asS'SEC14L1P1'
p1094
(lp1095
I43897456
aI43899636
aS'+'
asS'OSBPL5'
p1096
(lp1097
I3087116
aI3165354
aS'-'
asS'UBE4A'
p1098
(lp1099
I118359585
aI118399211
aS'+'
asS'AP002990.1'
p1100
(lp1101
I62559603
aI62591531
aS'-'
asS'OR5A2'
p1102
(lp1103
I59421943
aI59422976
aS'-'
asS'OR5A1'
p1104
(lp1105
I59443144
aI59444194
aS'+'
asS'ODF3'
p1106
(lp1107
I196738
aI200258
aS'+'
asS'AC021820.1'
p1108
(lp1109
I40083710
aI40084517
aS'-'
asS'ANO9'
p1110
(lp1111
I417938
aI441996
aS'-'
asS'COX6CP18'
p1112
(lp1113
I2771356
aI2771577
aS'+'
asS'ANO5'
p1114
(lp1115
I22193176
aI22283357
aS'+'
asS'OR51A1P'
p1116
(lp1117
I5170351
aI5171296
aS'-'
asS'ANO1'
p1118
(lp1119
I70078302
aI70189528
aS'+'
asS'CELF1'
p1120
(lp1121
I47468404
aI47553117
aS'-'
asS'ANO3'
p1122
(lp1123
I26309599
aI26660680
aS'+'
asS'STIP1'
p1124
(lp1125
I64185272
aI64204543
aS'+'
asS'TMEM132A'
p1126
(lp1127
I60924481
aI60937159
aS'+'
asS'CHKA'
p1128
(lp1129
I68052859
aI68121204
aS'-'
asS'MRPL16'
p1130
(lp1131
I59806135
aI59810872
aS'-'
asS'AC091564.4'
p1132
(lp1133
I6748131
aI6750324
aS'+'
asS'AC091564.1'
p1134
(lp1135
I6685891
aI6686369
aS'-'
asS'AP003730.1'
p1136
(lp1137
I97908253
aI97908537
aS'-'
asS'GRM5'
p1138
(lp1139
I88504576
aI89063648
aS'-'
asS'AC027026.1'
p1140
(lp1141
I19029697
aI19030438
aS'-'
asS'NR1H3'
p1142
(lp1143
I47248300
aI47269032
aS'+'
asS'OR5J1P'
p1144
(lp1145
I56071111
aI56072049
aS'+'
asS'PHRF1'
p1146
(lp1147
I576486
aI612222
aS'+'
asS'RPL26P30'
p1148
(lp1149
I2335132
aI2335776
aS'-'
asS'AC103792.1'
p1150
(lp1151
I47041027
aI47041945
aS'-'
asS'OR4V1P'
p1152
(lp1153
I55673536
aI55674675
aS'+'
asS'AC036111.3'
p1154
(lp1155
I55865709
aI55865820
aS'+'
asS'AC036111.1'
p1156
(lp1157
I55867569
aI55874537
aS'-'
asS'DCDC1'
p1158
(lp1159
I30878584
aI31328280
aS'-'
asS'BRD9P1'
p1160
(lp1161
I66389609
aI66390168
aS'+'
asS'DNAJC4'
p1162
(lp1163
I64230278
aI64234281
aS'+'
asS'GLYATL1'
p1164
(lp1165
I58947046
aI59043527
aS'+'
asS'INS'
p1166
(lp1167
I2159779
aI2161341
aS'-'
asS'OR10V2P'
p1168
(lp1169
I59748811
aI59749574
aS'+'
asS'TTC36'
p1170
(lp1171
I118527472
aI118531197
aS'+'
asS'TYRL'
p1172
(lp1173
I49405091
aI49415789
aS'-'
asS'RBM7'
p1174
(lp1175
I114400666
aI114414203
aS'+'
asS'ACP2'
p1176
(lp1177
I47239302
aI47248906
aS'-'
asS'NELL1'
p1178
(lp1179
I20669551
aI21575681
aS'+'
asS'BSX'
p1180
(lp1181
I122977570
aI122981720
aS'-'
asS'SLC22A20'
p1182
(lp1183
I65213840
aI65242757
aS'+'
asS'SLC22A25'
p1184
(lp1185
I63163776
aI63229652
aS'-'
asS'SLC22A24'
p1186
(lp1187
I63079940
aI63144221
aS'-'
asS'OR51V1'
p1188
(lp1189
I5199735
aI5200700
aS'-'
asS'ACAT1'
p1190
(lp1191
I108121516
aI108147776
aS'+'
asS'DDB2'
p1192
(lp1193
I47214942
aI47239240
aS'+'
asS'TRIM51EP'
p1194
(lp1195
I89981441
aI89989559
aS'-'
asS'DDB1'
p1196
(lp1197
I61300051
aI61342596
aS'-'
asS'AP002512.1'
p1198
(lp1199
I56495760
aI56496412
aS'+'
asS'AP002512.3'
p1200
(lp1201
I56412696
aI56413680
aS'+'
asS'AP002512.2'
p1202
(lp1203
I56509573
aI56510195
aS'+'
asS'OR4C46'
p1204
(lp1205
I54603069
aI54603998
aS'-'
asS'OR4C45'
p1206
(lp1207
I50032874
aI50033794
aS'+'
asS'AC104042.1'
p1208
(lp1209
I36696317
aI36697867
aS'+'
asS'MCAM'
p1210
(lp1211
I119308986
aI119318377
aS'-'
asS'AC004923.2'
p1212
(lp1213
I67935558
aI67935926
aS'+'
asS'AC004923.3'
p1214
(lp1215
I67965873
aI67966227
aS'-'
asS'TPCN2'
p1216
(lp1217
I69072915
aI69162440
aS'+'
asS'LMO1'
p1218
(lp1219
I8224314
aI8268716
aS'-'
asS'LMO2'
p1220
(lp1221
I33858576
aI33892289
aS'-'
asS'OR4C49P'
p1222
(lp1223
I50053410
aI50054309
aS'-'
asS'AP001803.1'
p1224
(lp1225
I56736316
aI56736462
aS'-'
asS'CTTN'
p1226
(lp1227
I70398404
aI70436584
aS'+'
asS'AP5B1'
p1228
(lp1229
I65775893
aI65780802
aS'-'
asS'OR52U1P'
p1230
(lp1231
I5719290
aI5720212
aS'+'
asS'BAD'
p1232
(lp1233
I64269834
aI64284669
aS'-'
asS'OR8A1'
p1234
(lp1235
I124569997
aI124571142
aS'+'
asS'SLC37A2'
p1236
(lp1237
I125063067
aI125089237
aS'+'
asS'OR52L1'
p1238
(lp1239
I5985892
aI5986985
aS'-'
asS'AC021749.1'
p1240
(lp1241
I39873782
aI39874388
aS'+'
asS'MYOD1'
p1242
(lp1243
I17719568
aI17722131
aS'+'
asS'SLC37A4'
p1244
(lp1245
I119024114
aI119030906
aS'-'
asS'ST5'
p1246
(lp1247
I8693351
aI8910951
aS'-'
asS'SELENOH'
p1248
(lp1249
I57741250
aI57743411
aS'+'
asS'OR51K1P'
p1250
(lp1251
I5430653
aI5431602
aS'-'
asS'VWCE'
p1252
(lp1253
I61258290
aI61295424
aS'-'
asS'TMEM223'
p1254
(lp1255
I62771661
aI62791992
aS'-'
asS'PSMC3'
p1256
(lp1257
I47418769
aI47426473
aS'-'
asS'TMEM225'
p1258
(lp1259
I123882926
aI123885642
aS'-'
asS'ARFIP2'
p1260
(lp1261
I6474683
aI6481479
aS'-'
asS'KRT8P49'
p1262
(lp1263
I4722740
aI4724171
aS'-'
asS'OR5AM1P'
p1264
(lp1265
I56619779
aI56620810
aS'-'
asS'KIF18A'
p1266
(lp1267
I28020620
aI28108308
aS'-'
asS'KRT8P41'
p1268
(lp1269
I9094377
aI9095890
aS'+'
asS'TPH1'
p1270
(lp1271
I18017564
aI18041325
aS'-'
asS'OR2AT1P'
p1272
(lp1273
I75131138
aI75131880
aS'-'
asS'LDHAL6DP'
p1274
(lp1275
I83814571
aI83815263
aS'-'
asS'P2RY2'
p1276
(lp1277
I73218299
aI73236352
aS'+'
asS'MMP27'
p1278
(lp1279
I102691487
aI102705806
aS'-'
asS'OR52Z1'
p1280
(lp1281
I5177714
aI5178610
aS'-'
asS'P2RY6'
p1282
(lp1283
I73265236
aI73298599
aS'+'
asS'MMP20'
p1284
(lp1285
I102576835
aI102625332
aS'-'
asS'OR8F1P'
p1286
(lp1287
I124207183
aI124208112
aS'+'
asS'ENDOD1'
p1288
(lp1289
I95089810
aI95132645
aS'+'
asS'MAP3K11'
p1290
(lp1291
I65597755
aI65614242
aS'-'
asS'RNF121'
p1292
(lp1293
I71928701
aI71997595
aS'+'
asS'AC118942.1'
p1294
(lp1295
I49305714
aI49379488
aS'+'
asS'AP003461.1'
p1296
(lp1297
I103409580
aI103409657
aS'-'
asS'SLC1A2'
p1298
(lp1299
I35251225
aI35420063
aS'-'
asS'LIN7C'
p1300
(lp1301
I27494576
aI27506773
aS'-'
asS'OR5BA1P'
p1302
(lp1303
I57866298
aI57867279
aS'-'
asS'OR2D2'
p1304
(lp1305
I6891490
aI6892599
aS'-'
asS'OR2D3'
p1306
(lp1307
I6920974
aI6922043
aS'+'
asS'B3GNT6'
p1308
(lp1309
I77034398
aI77041973
aS'+'
asS'AC036111.2'
p1310
(lp1311
I55863932
aI55881243
aS'+'
asS'EIF3M'
p1312
(lp1313
I32583825
aI32606262
aS'+'
asS'AP001636.1'
p1314
(lp1315
I58995439
aI58999689
aS'-'
asS'AP001636.2'
p1316
(lp1317
I58967596
aI58968291
aS'-'
asS'EIF3F'
p1318
(lp1319
I7970251
aI8001862
aS'+'
asS'HMGB1P40'
p1320
(lp1321
I20574186
aI20575042
aS'+'
asS'HMGB1P42'
p1322
(lp1323
I120936102
aI120936654
aS'-'
asS'FADD'
p1324
(lp1325
I70203163
aI70207390
aS'+'
asS'MTMR2'
p1326
(lp1327
I95832882
aI95924295
aS'-'
asS'WT1'
p1328
(lp1329
I32387775
aI32435630
aS'-'
asS'AC103710.4'
p1330
(lp1331
I4752046
aI4752944
aS'-'
asS'AP001767.2'
p1332
(lp1333
I83106580
aI83106961
aS'-'
asS'AP000593.2'
p1334
(lp1335
I72249856
aI72251288
aS'-'
asS'AP001767.1'
p1336
(lp1337
I83040806
aI83041403
aS'-'
asS'AC099842.1'
p1338
(lp1339
I23886135
aI23893557
aS'+'
asS'MTND2P26'
p1340
(lp1341
I103406213
aI103407241
aS'-'
asS'IZUMO1R'
p1342
(lp1343
I94305593
aI94307721
aS'+'
asS'CCDC153'
p1344
(lp1345
I119190250
aI119196769
aS'-'
asS'FCHSD2'
p1346
(lp1347
I72836745
aI73142046
aS'-'
asS'MTCO2P15'
p1348
(lp1349
I103403512
aI103404167
aS'-'
asS'YIF1A'
p1350
(lp1351
I66284580
aI66289170
aS'-'
asS'OR10G5P'
p1352
(lp1353
I124009655
aI124010012
aS'+'
asS'AP001804.2'
p1354
(lp1355
I124357560
aI124358469
aS'-'
asS'SYT8'
p1356
(lp1357
I1828307
aI1835934
aS'+'
asS'SYT9'
p1358
(lp1359
I7251950
aI7469042
aS'+'
asS'LRRC4C'
p1360
(lp1361
I40114293
aI41459773
aS'-'
asS'MTCH2'
p1362
(lp1363
I47617316
aI47642623
aS'-'
asS'OR6T1'
p1364
(lp1365
I123942785
aI123943873
aS'-'
asS'AC136475.6'
p1366
(lp1367
I303856
aI304144
aS'-'
asS'SYT7'
p1368
(lp1369
I61515313
aI61581148
aS'-'
asS'AC023080.1'
p1370
(lp1371
I48345351
aI48352447
aS'-'
asS'DIXDC1'
p1372
(lp1373
I111937203
aI112022584
aS'+'
asS'CAVIN3'
p1374
(lp1375
I6318946
aI6320647
aS'-'
asS'TENM4'
p1376
(lp1377
I78652831
aI79440651
aS'-'
asS'OR7E117P'
p1378
(lp1379
I3599595
aI3600706
aS'-'
asS'MADD'
p1380
(lp1381
I47269376
aI47330031
aS'+'
asS'AL135933.1'
p1382
(lp1383
I29725764
aI29726565
aS'+'
asS'DEFB108B'
p1384
(lp1385
I71833200
aI71837562
aS'+'
asS'TCP11L1'
p1386
(lp1387
I33039572
aI33105942
aS'+'
asS'AP002812.1'
p1388
(lp1389
I77868722
aI77869195
aS'-'
asS'AP002495.3'
p1390
(lp1391
I71856277
aI71863658
aS'+'
asS'AP002495.2'
p1392
(lp1393
I71865509
aI71918957
aS'-'
asS'AP002495.1'
p1394
(lp1395
I71878453
aI71884561
aS'+'
asS'AP000867.1'
p1396
(lp1397
I71568680
aI71568934
aS'+'
asS'MTRF1LP1'
p1398
(lp1399
I113711720
aI113712398
aS'+'
asS'OR5B3'
p1400
(lp1401
I58402464
aI58403409
aS'-'
asS'OR5B2'
p1402
(lp1403
I58422265
aI58423313
aS'-'
asS'RPL7AP57'
p1404
(lp1405
I92161106
aI92161889
aS'+'
asS'AC009643.1'
p1406
(lp1407
I43065686
aI43066076
aS'-'
asS'PPP1R14B'
p1408
(lp1409
I64244484
aI64246941
aS'-'
asS'OR2AG2'
p1410
(lp1411
I6767987
aI6769055
aS'-'
asS'OR2AG1'
p1412
(lp1413
I6785017
aI6786014
aS'+'
asS'OR51G2'
p1414
(lp1415
I4914719
aI4915663
aS'-'
asS'INCENP'
p1416
(lp1417
I62123973
aI62152981
aS'+'
asS'OR51G1'
p1418
(lp1419
I4923374
aI4924339
aS'-'
asS'OR4A40P'
p1420
(lp1421
I48512273
aI48513220
aS'+'
asS'OR5T1'
p1422
(lp1423
I56275639
aI56276619
aS'+'
asS'CCND2P1'
p1424
(lp1425
I63243085
aI63244004
aS'+'
asS'OR5T3'
p1426
(lp1427
I56252200
aI56253222
aS'+'
asS'OR5T2'
p1428
(lp1429
I56232106
aI56233185
aS'-'
asS'KRT18P59'
p1430
(lp1431
I125113161
aI125126781
aS'+'
asS'KRT18P58'
p1432
(lp1433
I5993876
aI5994995
aS'-'
asS'AC021269.1'
p1434
(lp1435
I13478333
aI13479037
aS'+'
asS'OR4P1P'
p1436
(lp1437
I55683239
aI55684374
aS'+'
asS'AP000873.5'
p1438
(lp1439
I83209399
aI83209634
aS'+'
asS'AP000873.1'
p1440
(lp1441
I83213005
aI83213404
aS'+'
asS'RPS29P20'
p1442
(lp1443
I4018948
aI4019118
aS'+'
asS'DEPDC7'
p1444
(lp1445
I33015864
aI33033582
aS'+'
asS'ALKBH8'
p1446
(lp1447
I107502726
aI107565746
aS'-'
asS'OR8V1P'
p1448
(lp1449
I56188379
aI56189251
aS'-'
asS'VPS51'
p1450
(lp1451
I65089324
aI65107628
aS'+'
asS'ALKBH3'
p1452
(lp1453
I43880874
aI43920266
aS'+'
asS'OR10G7'
p1454
(lp1455
I124038066
aI124039010
aS'-'
asS'OR10G6'
p1456
(lp1457
I123994163
aI123995161
aS'-'
asS'OR10G4'
p1458
(lp1459
I124015575
aI124016510
aS'+'
asS'TMEM126A'
p1460
(lp1461
I85647977
aI85656542
aS'+'
asS'TMEM126B'
p1462
(lp1463
I85628573
aI85636539
aS'+'
asS'ATM'
p1464
(lp1465
I108222832
aI108369099
aS'+'
asS'OR10G9'
p1466
(lp1467
I124023013
aI124023948
aS'+'
asS'SCYL1'
p1468
(lp1469
I65525077
aI65538704
aS'+'
asS'RCOR2'
p1470
(lp1471
I63911221
aI63916844
aS'-'
asS'TIGD3'
p1472
(lp1473
I65354767
aI65357613
aS'+'
asS'SMPD1'
p1474
(lp1475
I6390431
aI6394995
aS'+'
asS'OR52B1P'
p1476
(lp1477
I6151641
aI6152549
aS'-'
asS'AP001775.1'
p1478
(lp1479
I134173095
aI134173680
aS'+'
asS'PTPRCAP'
p1480
(lp1481
I67435510
aI67438067
aS'-'
asS'INS-IGF2'
p1482
(lp1483
I2132538
aI2161209
aS'-'
asS'OR4D5'
p1484
(lp1485
I123939543
aI123940637
aS'+'
asS'OR4D6'
p1486
(lp1487
I59456938
aI59457991
aS'+'
asS'FANCF'
p1488
(lp1489
I22622519
aI22626787
aS'-'
asS'OR4A41P'
p1490
(lp1491
I48589760
aI48590687
aS'+'
asS'PATL1'
p1492
(lp1493
I59636716
aI59668980
aS'-'
asS'AC126389.1'
p1494
(lp1495
I17137976
aI17138265
aS'-'
asS'HNRNPA1P40'
p1496
(lp1497
I74354443
aI74355720
aS'+'
asS'PGGHG'
p1498
(lp1499
I289138
aI296107
aS'+'
asS'CARS'
p1500
(lp1501
I3000922
aI3057613
aS'-'
asS'WIZP1'
p1502
(lp1503
I23403805
aI23406103
aS'+'
asS'HIGD1AP5'
p1504
(lp1505
I18106583
aI18106841
aS'+'
asS'ELMOD1'
p1506
(lp1507
I107591230
aI107666779
aS'+'
asS'NPAT'
p1508
(lp1509
I108157215
aI108222642
aS'-'
asS'SLC22A18'
p1510
(lp1511
I2899721
aI2925246
aS'+'
asS'TUBB4BP4'
p1512
(lp1513
I91949731
aI91950034
aS'-'
asS'GRIK4'
p1514
(lp1515
I120511700
aI120988904
aS'+'
asS'AC087373.1'
p1516
(lp1517
I25140533
aI25141023
aS'-'
asS'SLC22A10'
p1518
(lp1519
I63137867
aI63369718
aS'+'
asS'SLC22A11'
p1520
(lp1521
I64555626
aI64572875
aS'+'
asS'CBX3P8'
p1522
(lp1523
I49406190
aI49406714
aS'+'
asS'RNF141'
p1524
(lp1525
I10511678
aI10541217
aS'-'
asS'CBX3P7'
p1526
(lp1527
I89293745
aI89294246
aS'-'
asS'AP001324.2'
p1528
(lp1529
I74738478
aI74738796
aS'-'
asS'CBX3P1'
p1530
(lp1531
I27806443
aI27806996
aS'+'
asS'AMOTL1'
p1532
(lp1533
I94768342
aI94876748
aS'+'
asS'HNRNPCP8'
p1534
(lp1535
I87024583
aI87025777
aS'+'
asS'AC090582.1'
p1536
(lp1537
I47323983
aI47324181
aS'+'
asS'CEP57'
p1538
(lp1539
I95790461
aI95832693
aS'+'
asS'HNRNPCP6'
p1540
(lp1541
I85020785
aI85021655
aS'-'
asS'SERGEF'
p1542
(lp1543
I17788048
aI18013162
aS'-'
asS'SF3B2'
p1544
(lp1545
I66052331
aI66069308
aS'+'
asS'OR2AT2P'
p1546
(lp1547
I75071148
aI75072052
aS'-'
asS'AC090804.1'
p1548
(lp1549
I3892398
aI3892887
aS'-'
asS'GAL3ST3'
p1550
(lp1551
I66041952
aI66049180
aS'-'
asS'AP000805.1'
p1552
(lp1553
I92498152
aI92498935
aS'-'
asS'ACCS'
p1554
(lp1555
I44066268
aI44084214
aS'+'
asS'OR5M12P'
p1556
(lp1557
I56628932
aI56629860
aS'+'
asS'CNIH2'
p1558
(lp1559
I66278462
aI66285301
aS'+'
asS'INPPL1'
p1560
(lp1561
I72224781
aI72239105
aS'+'
asS'OR5M10'
p1562
(lp1563
I56576774
aI56577721
aS'-'
asS'ATG16L2'
p1564
(lp1565
I72814406
aI72843674
aS'+'
asS'OR10Q1'
p1566
(lp1567
I58227882
aI58228918
aS'-'
asS'SCN2B'
p1568
(lp1569
I118161951
aI118176673
aS'-'
asS'AP006289.1'
p1570
(lp1571
I63834667
aI63834943
aS'-'
asS'USH1C'
p1572
(lp1573
I17493895
aI17544416
aS'-'
asS'PACSIN3'
p1574
(lp1575
I47177557
aI47186440
aS'-'
asS'AP001000.1'
p1576
(lp1577
I127940913
aI127941654
aS'-'
asS'AP003168.1'
p1578
(lp1579
I75942129
aI75942435
aS'-'
asS'MS4A6A'
p1580
(lp1581
I60172015
aI60184666
aS'-'
asS'MS4A6E'
p1582
(lp1583
I60334971
aI60396596
aS'+'
asS'AP003108.2'
p1584
(lp1585
I61430143
aI61485822
aS'+'
asS'RBM14-RBM4'
p1586
(lp1587
I66616626
aI66646469
aS'+'
asS'UCP3'
p1588
(lp1589
I74000281
aI74009435
aS'-'
asS'LRRC37A13P'
p1590
(lp1591
I113791466
aI113791752
aS'+'
asS'DDX25'
p1592
(lp1593
I125903348
aI125943684
aS'+'
asS'FADS2P1'
p1594
(lp1595
I56890613
aI56927885
aS'+'
asS'AP000620.1'
p1596
(lp1597
I100666459
aI100666962
aS'+'
asS'OR52M1'
p1598
(lp1599
I4545191
aI4546144
aS'+'
asS'NRIP3'
p1600
(lp1601
I8980576
aI9004049
aS'-'
asS'GSTP1'
p1602
(lp1603
I67583595
aI67586660
aS'+'
asS'OR4A9P'
p1604
(lp1605
I55388529
aI55389472
aS'+'
asS'AC112694.1'
p1606
(lp1607
I18595459
aI18599683
aS'-'
asS'OR4X1'
p1608
(lp1609
I48263861
aI48264778
aS'+'
asS'OR4X2'
p1610
(lp1611
I48245056
aI48246080
aS'+'
asS'SAC3D1'
p1612
(lp1613
I65040904
aI65044827
aS'+'
asS'MFRP'
p1614
(lp1615
I119338942
aI119346673
aS'-'
asS'AP002371.1'
p1616
(lp1617
I93052395
aI93052827
aS'-'
asS'OR10N1P'
p1618
(lp1619
I124105100
aI124105968
aS'-'
asS'DEAF1'
p1620
(lp1621
I644233
aI695532
aS'-'
asS'AP006287.1'
p1622
(lp1623
I65983679
aI65984331
aS'-'
asS'AP000641.1'
p1624
(lp1625
I105706299
aI105707937
aS'+'
asS'ZNF202'
p1626
(lp1627
I123724177
aI123741670
aS'-'
asS'CCDC73'
p1628
(lp1629
I32602246
aI32794641
aS'-'
asS'SMCO4'
p1630
(lp1631
I93478472
aI93543508
aS'-'
asS'CTSC'
p1632
(lp1633
I88293592
aI88337787
aS'-'
asS'CTSD'
p1634
(lp1635
I1752752
aI1763992
aS'-'
asS'CTSF'
p1636
(lp1637
I66563463
aI66568596
aS'-'
asS'TMEM109'
p1638
(lp1639
I60913874
aI60923443
aS'+'
asS'OR10A6'
p1640
(lp1641
I7927633
aI7928662
aS'-'
asS'PPP1R32'
p1642
(lp1643
I61481120
aI61490931
aS'+'
asS'CTSW'
p1644
(lp1645
I65879809
aI65883741
aS'+'
asS'HEPN1'
p1646
(lp1647
I124919244
aI124920677
aS'+'
asS'VSIG10L2'
p1648
(lp1649
I125946056
aI125955914
aS'+'
asS'AL136126.1'
p1650
(lp1651
I33237008
aI33237409
aS'+'
asS'AP000721.1'
p1652
(lp1653
I63974620
aI63988346
aS'+'
asS'PRSS23'
p1654
(lp1655
I86800521
aI86952910
aS'+'
asS'MSANTD4'
p1656
(lp1657
I106007902
aI106022227
aS'-'
asS'AP002373.1'
p1658
(lp1659
I114400682
aI114443932
aS'+'
asS'AP002373.2'
p1660
(lp1661
I114453064
aI114454123
aS'+'
asS'MSANTD2'
p1662
(lp1663
I124766498
aI124800673
aS'-'
asS'AP004609.2'
p1664
(lp1665
I118821895
aI118822084
aS'+'
asS'AP004243.1'
p1666
(lp1667
I60729304
aI60744212
aS'+'
asS'OR4A14P'
p1668
(lp1669
I55477551
aI55478509
aS'+'
asS'RCC2P6'
p1670
(lp1671
I62371146
aI62373168
aS'+'
asS'TIMM8B'
p1672
(lp1673
I112084800
aI112086798
aS'-'
asS'AHNAK'
p1674
(lp1675
I62433546
aI62546796
aS'-'
asS'VPS37C'
p1676
(lp1677
I61130256
aI61161617
aS'-'
asS'AC113331.2'
p1678
(lp1679
I5069572
aI5070497
aS'+'
asS'PNPLA2'
p1680
(lp1681
I818902
aI825573
aS'+'
asS'AP003072.2'
p1682
(lp1683
I93152075
aI93152750
aS'+'
asS'AP004833.2'
p1684
(lp1685
I89785945
aI89787838
aS'+'
asS'AP001781.3'
p1686
(lp1687
I111786286
aI111879425
aS'-'
asS'THRSP'
p1688
(lp1689
I78063861
aI78068351
aS'+'
asS'AP001781.1'
p1690
(lp1691
I111864254
aI111864460
aS'+'
asS'AP000942.4'
p1692
(lp1693
I102308557
aI102308797
aS'-'
asS'OR5L2'
p1694
(lp1695
I55827219
aI55828154
aS'+'
asS'IGSF9B'
p1696
(lp1697
I133908564
aI133956985
aS'-'
asS'AP000942.1'
p1698
(lp1699
I102295060
aI102295806
aS'+'
asS'AP000942.3'
p1700
(lp1701
I102306112
aI102306271
aS'+'
asS'AP001124.1'
p1702
(lp1703
I121238304
aI121238688
aS'+'
asS'RPS3AP41'
p1704
(lp1705
I71669520
aI71670297
aS'+'
asS'AC021443.1'
p1706
(lp1707
I47796169
aI47796379
aS'+'
asS'ATG13'
p1708
(lp1709
I46617596
aI46674818
aS'+'
asS'FRMD8'
p1710
(lp1711
I65386599
aI65413525
aS'+'
asS'AP001102.1'
p1712
(lp1713
I87258851
aI87259259
aS'-'
asS'IMMP1L'
p1714
(lp1715
I31432402
aI31509622
aS'-'
asS'PKNOX2'
p1716
(lp1717
I125164706
aI125433389
aS'+'
asS'CDHR5'
p1718
(lp1719
I616577
aI626078
aS'-'
asS'AP004607.8'
p1720
(lp1721
I89955146
aI89957165
aS'-'
asS'AP004607.9'
p1722
(lp1723
I89954593
aI89954908
aS'-'
asS'AP004607.6'
p1724
(lp1725
I90017611
aI90024511
aS'-'
asS'AP004607.7'
p1726
(lp1727
I89978540
aI89980661
aS'+'
asS'AP004607.4'
p1728
(lp1729
I90051837
aI90053736
aS'-'
asS'AP004607.5'
p1730
(lp1731
I90071136
aI90073055
aS'+'
asS'AP004607.2'
p1732
(lp1733
I90049945
aI90050266
aS'+'
asS'AP004607.3'
p1734
(lp1735
I89944035
aI89949402
aS'+'
asS'AP004607.1'
p1736
(lp1737
I89960422
aI89960624
aS'+'
asS'OR51F1'
p1738
(lp1739
I4768979
aI4769938
aS'-'
asS'OR51F2'
p1740
(lp1741
I4821386
aI4822414
aS'+'
asS'LIPT2'
p1742
(lp1743
I74491843
aI74493733
aS'-'
asS'BAK1P2'
p1744
(lp1745
I130546799
aI130547429
aS'-'
asS'AC135977.1'
p1746
(lp1747
I49433480
aI49434438
aS'-'
asS'ILK'
p1748
(lp1749
I6603708
aI6610874
aS'+'
asS'AC027544.1'
p1750
(lp1751
I18511043
aI18511475
aS'-'
asS'AP006296.1'
p1752
(lp1753
I18665050
aI18665548
aS'+'
asS'BTBD18'
p1754
(lp1755
I57743518
aI57751781
aS'-'
asS'CEND1'
p1756
(lp1757
I787104
aI790123
aS'-'
asS'NLRX1'
p1758
(lp1759
I119168334
aI119184014
aS'+'
asS'BTBD10'
p1760
(lp1761
I13388001
aI13463280
aS'-'
asS'MTND6P25'
p1762
(lp1763
I81555910
aI81556425
aS'-'
asS'SIK3'
p1764
(lp1765
I116843402
aI117098421
aS'-'
asS'SIK2'
p1766
(lp1767
I111602391
aI111730853
aS'+'
asS'PDE3B'
p1768
(lp1769
I14643723
aI14872044
aS'+'
asS'GPR83'
p1770
(lp1771
I94377311
aI94401419
aS'-'
asS'ARL2'
p1772
(lp1773
I65014113
aI65022184
aS'+'
asS'VN2R9P'
p1774
(lp1775
I58040708
aI58041660
aS'-'
asS'OR10AB1P'
p1776
(lp1777
I7728400
aI7729337
aS'+'
asS'AC022882.1'
p1778
(lp1779
I56205125
aI56205625
aS'-'
asS'RPLP0P2'
p1780
(lp1781
I61615036
aI61639449
aS'+'
asS'SLC43A3'
p1782
(lp1783
I57406956
aI57427580
aS'-'
asS'SLC43A1'
p1784
(lp1785
I57484534
aI57515786
aS'-'
asS'IL18'
p1786
(lp1787
I112143251
aI112164117
aS'-'
asS'DTX4'
p1788
(lp1789
I59172492
aI59208587
aS'+'
asS'HNRNPA1P53'
p1790
(lp1791
I5571247
aI5572192
aS'-'
asS'INSC'
p1792
(lp1793
I15112424
aI15247208
aS'+'
asS'AC115990.1'
p1794
(lp1795
I24701275
aI24701575
aS'+'
asS'BIRC3'
p1796
(lp1797
I102317450
aI102339394
aS'+'
asS'AIP'
p1798
(lp1799
I67483041
aI67491103
aS'+'
asS'OR9G4'
p1800
(lp1801
I56742827
aI56743811
aS'-'
asS'OR52E3P'
p1802
(lp1803
I5092676
aI5093611
aS'+'
asS'OR9G1'
p1804
(lp1805
I56700388
aI56701305
aS'+'
asS'OR51C1P'
p1806
(lp1807
I4690761
aI4691702
aS'-'
asS'SPTBN2'
p1808
(lp1809
I66685248
aI66728959
aS'-'
asS'CLPB'
p1810
(lp1811
I72292425
aI72434680
aS'-'
asS'OR2AL1P'
p1812
(lp1813
I105194440
aI105194946
aS'-'
asS'OR5G4P'
p1814
(lp1815
I56790206
aI56790965
aS'-'
asS'AP004372.1'
p1816
(lp1817
I131770795
aI131771638
aS'-'
asS'OR51T1'
p1818
(lp1819
I4881819
aI4882883
aS'+'
asS'DPP3'
p1820
(lp1821
I66480013
aI66509657
aS'+'
asS'OR4A6P'
p1822
(lp1823
I54724847
aI54725816
aS'+'
asS'TRIM51CP'
p1824
(lp1825
I48945694
aI48951895
aS'+'
asS'CPT1A'
p1826
(lp1827
I68754622
aI68841931
aS'-'
asS'OR5B12'
p1828
(lp1829
I58439120
aI58440173
aS'-'
asS'OR4C14P'
p1830
(lp1831
I55537002
aI55537924
aS'+'
asS'OR5B17'
p1832
(lp1833
I58358124
aI58359069
aS'-'
asS'ZDHHC24'
p1834
(lp1835
I66520637
aI66546036
aS'-'
asS'AC009643.2'
p1836
(lp1837
I43063637
aI43065932
aS'-'
asS'PRPF19'
p1838
(lp1839
I60890730
aI60906588
aS'-'
asS'UBTFL7'
p1840
(lp1841
I49081907
aI49083097
aS'+'
asS'NDUFS3'
p1842
(lp1843
I47565336
aI47584561
aS'+'
asS'UBTFL1'
p1844
(lp1845
I90085950
aI90087131
aS'+'
asS'UBTFL2'
p1846
(lp1847
I89752785
aI89753975
aS'-'
asS'NDUFS8'
p1848
(lp1849
I68030627
aI68036644
aS'+'
asS'UBTFL9'
p1850
(lp1851
I49133653
aI49134800
aS'-'
asS'HEPACAM'
p1852
(lp1853
I124919193
aI124936412
aS'-'
asS'DPF2'
p1854
(lp1855
I65333754
aI65353249
aS'+'
asS'AP000916.2'
p1856
(lp1857
I124531625
aI124531910
aS'+'
asS'AP000916.1'
p1858
(lp1859
I124538500
aI124539334
aS'-'
asS'HBD'
p1860
(lp1861
I5232838
aI5234648
aS'-'
asS'LGR4'
p1862
(lp1863
I27365961
aI27472775
aS'-'
asS'HBB'
p1864
(lp1865
I5226620
aI5229395
aS'-'
asS'MS4A8'
p1866
(lp1867
I60699574
aI60715811
aS'+'
asS'MS4A7'
p1868
(lp1869
I60378485
aI60395951
aS'+'
asS'AP003034.1'
p1870
(lp1871
I56165500
aI56165921
aS'+'
asS'MS4A5'
p1872
(lp1873
I60429605
aI60455214
aS'+'
asS'MS4A2'
p1874
(lp1875
I60088664
aI60098466
aS'+'
asS'MS4A3'
p1876
(lp1877
I60056628
aI60071114
aS'+'
asS'AC011092.1'
p1878
(lp1879
I9958744
aI9959790
aS'-'
asS'MS4A1'
p1880
(lp1881
I60455809
aI60470752
aS'+'
asS'ZNF143'
p1882
(lp1883
I9460965
aI9528524
aS'+'
asS'AC087441.1'
p1884
(lp1885
I3989163
aI3989463
aS'-'
asS'AC087441.2'
p1886
(lp1887
I3961277
aI3961538
aS'+'
asS'OR52J3'
p1888
(lp1889
I5046526
aI5047461
aS'+'
asS'CCDC88B'
p1890
(lp1891
I64340223
aI64357534
aS'+'
asS'MICAL2'
p1892
(lp1893
I12110591
aI12263785
aS'+'
asS'TP53AIP1'
p1894
(lp1895
I128934731
aI128942927
aS'-'
asS'AP002345.2'
p1896
(lp1897
I58387583
aI58388486
aS'-'
asS'COX8A'
p1898
(lp1899
I63974607
aI63976543
aS'+'
asS'OR4A47'
p1900
(lp1901
I48488717
aI48489780
aS'+'
asS'PYGM'
p1902
(lp1903
I64746389
aI64760297
aS'-'
asS'MPEG1'
p1904
(lp1905
I59208510
aI59212951
aS'-'
asS'OR8B12'
p1906
(lp1907
I124542682
aI124543679
aS'-'
asS'AC051649.2'
p1908
(lp1909
I1888577
aI1891895
aS'-'
asS'KRT8P26'
p1910
(lp1911
I65726939
aI65728214
aS'+'
asS'AC027544.3'
p1912
(lp1913
I18450112
aI18450868
aS'-'
asS'AP001979.1'
p1914
(lp1915
I133864877
aI133865627
aS'-'
asS'OR5M13P'
p1916
(lp1917
I56597426
aI56598362
aS'-'
asS'OR52L2P'
p1918
(lp1919
I6057316
aI6058275
aS'-'
asS'CWC15'
p1920
(lp1921
I94962622
aI94973612
aS'-'
asS'CCDC89'
p1922
(lp1923
I85684866
aI85686277
aS'-'
asS'BRSK2'
p1924
(lp1925
I1389899
aI1462685
aS'+'
asS'CCDC83'
p1926
(lp1927
I85855101
aI85920021
aS'+'
asS'CCDC82'
p1928
(lp1929
I96352769
aI96387904
aS'-'
asS'ROBO3'
p1930
(lp1931
I124865386
aI124881466
aS'+'
asS'CCDC87'
p1932
(lp1933
I66590176
aI66593083
aS'-'
asS'CCDC86'
p1934
(lp1935
I60842071
aI60851081
aS'+'
asS'CCDC84'
p1936
(lp1937
I118998142
aI119015745
aS'+'
asS'AC109309.2'
p1938
(lp1939
I3289311
aI3289642
aS'-'
asS'DDX6'
p1940
(lp1941
I118747766
aI118790948
aS'-'
asS'BRMS1'
p1942
(lp1943
I66337333
aI66345119
aS'-'
asS'SCN3B'
p1944
(lp1945
I123629189
aI123654607
aS'-'
asS'OR5AS1'
p1946
(lp1947
I56030419
aI56031393
aS'+'
asS'ZNF215'
p1948
(lp1949
I6926427
aI7001004
aS'+'
asS'ZNF214'
p1950
(lp1951
I6999318
aI7020368
aS'-'
asS'SMARCE1P1'
p1952
(lp1953
I107403404
aI107404589
aS'-'
asS'PHF21A'
p1954
(lp1955
I45932566
aI46121178
aS'-'
asS'AC013828.1'
p1956
(lp1957
I13685499
aI13685656
aS'-'
asS'RNH1'
p1958
(lp1959
I494561
aI507300
aS'-'
asS'HEPHL1'
p1960
(lp1961
I94021361
aI94113751
aS'+'
asS'TRIM6-TRIM34'
p1962
(lp1963
I5596725
aI5644398
aS'+'
asS'SLC5A12'
p1964
(lp1965
I26667019
aI26722024
aS'-'
asS'AP003419.2'
p1966
(lp1967
I67351572
aI67373584
aS'-'
asS'UBXN1'
p1968
(lp1969
I62676499
aI62679117
aS'-'
asS'NXF1'
p1970
(lp1971
I62792171
aI62806302
aS'-'
asS'FAM118B'
p1972
(lp1973
I126211414
aI126262986
aS'+'
asS'SART1'
p1974
(lp1975
I65961689
aI65979828
aS'+'
asS'FGF4'
p1976
(lp1977
I69771016
aI69775403
aS'-'
asS'FGF3'
p1978
(lp1979
I69810224
aI69819024
aS'-'
asS'AC090835.1'
p1980
(lp1981
I14987671
aI14988694
aS'-'
asS'SLC25A45'
p1982
(lp1983
I65375195
aI65383701
aS'-'
asS'SRPRA'
p1984
(lp1985
I126262919
aI126268959
aS'-'
asS'HNRNPA1P76'
p1986
(lp1987
I3972881
aI3974237
aS'-'
asS'PDZD3'
p1988
(lp1989
I119185475
aI119190223
aS'+'
asS'AKR1B1P3'
p1990
(lp1991
I16484084
aI16484671
aS'-'
asS'IPO7'
p1992
(lp1993
I9384622
aI9448126
aS'+'
asS'BEST1'
p1994
(lp1995
I61950370
aI61965515
aS'+'
asS'AP001893.2'
p1996
(lp1997
I126179497
aI126179698
aS'-'
asS'TMX2'
p1998
(lp1999
I57712603
aI57740973
aS'+'
asS'OR5AZ1P'
p2000
(lp2001
I57917297
aI57918239
aS'-'
asS'ART2BP'
p2002
(lp2003
I72478221
aI72479237
aS'+'
asS'AP003171.2'
p2004
(lp2005
I92914603
aI92916591
aS'+'
asS'CWF19L2'
p2006
(lp2007
I107326345
aI107457844
aS'-'
asS'AP000676.1'
p2008
(lp2009
I87917948
aI87917999
aS'-'
asS'SPA17'
p2010
(lp2011
I124673844
aI124697518
aS'+'
asS'SYVN1'
p2012
(lp2013
I65121780
aI65129986
aS'-'
asS'DUSP8'
p2014
(lp2015
I1554044
aI1571920
aS'-'
asS'BCO2'
p2016
(lp2017
I112176400
aI112224699
aS'+'
asS'PIGCP1'
p2018
(lp2019
I33075566
aI33076460
aS'-'
asS'AP001282.1'
p2020
(lp2021
I106826392
aI106827890
aS'-'
asS'AP001282.2'
p2022
(lp2023
I106824025
aI106824954
aS'+'
asS'OR4A17P'
p2024
(lp2025
I55444435
aI55445338
aS'+'
asS'RDX'
p2026
(lp2027
I110174880
aI110296712
aS'-'
asS'OR51E2'
p2028
(lp2029
I4680171
aI4697842
aS'-'
asS'FERMT3'
p2030
(lp2031
I64206734
aI64223886
aS'+'
asS'FADS1'
p2032
(lp2033
I61810826
aI61829318
aS'-'
asS'FADS3'
p2034
(lp2035
I61873519
aI61892051
aS'-'
asS'FADS2'
p2036
(lp2037
I61816256
aI61867354
aS'+'
asS'AP001885.1'
p2038
(lp2039
I67195913
aI67197167
aS'-'
asS'COLCA2'
p2040
(lp2041
I111298555
aI111308629
aS'+'
asS'CLP1'
p2042
(lp2043
I57648992
aI57659752
aS'+'
asS'PRR5L'
p2044
(lp2045
I36296288
aI36463644
aS'+'
asS'PITPNM1'
p2046
(lp2047
I67491769
aI67505372
aS'-'
asS'AP002765.1'
p2048
(lp2049
I123597946
aI123599452
aS'-'
asS'FOLH1B'
p2050
(lp2051
I89639227
aI89698599
aS'+'
asS'OR10A3'
p2052
(lp2053
I7938534
aI7939594
aS'-'
asS'OR10A2'
p2054
(lp2055
I6869693
aI6870745
aS'+'
asS'OR10A5'
p2056
(lp2057
I6845652
aI6846705
aS'+'
asS'OR10A4'
p2058
(lp2059
I6876625
aI6877619
aS'+'
asS'NUMA1'
p2060
(lp2061
I72002865
aI72080693
aS'-'
asS'SLC5A4P1'
p2062
(lp2063
I124273970
aI124274581
aS'+'
asS'AC104563.1'
p2064
(lp2065
I27581680
aI27582055
aS'+'
asS'OR52J1P'
p2066
(lp2067
I5104153
aI5105084
aS'+'
asS'C1QTNF4'
p2068
(lp2069
I47589664
aI47594659
aS'-'
asS'C1QTNF5'
p2070
(lp2071
I119338939
aI119340883
aS'-'
asS'CARNS1'
p2072
(lp2073
I67415678
aI67425607
aS'+'
asS'OR9L1P'
p2074
(lp2075
I58077348
aI58078603
aS'-'
asS'DGKZ'
p2076
(lp2077
I46332905
aI46380554
aS'+'
asS'FOXRED1'
p2078
(lp2079
I126269135
aI126278131
aS'+'
asS'PANO1'
p2080
(lp2081
I797511
aI799190
aS'+'
asS'HNRNPA1P60'
p2082
(lp2083
I110788026
aI110788976
aS'-'
asS'OR8X1P'
p2084
(lp2085
I124404234
aI124405102
aS'-'
asS'OR7E2P'
p2086
(lp2087
I86857059
aI86857947
aS'-'
asS'SHANK2'
p2088
(lp2089
I70469435
aI71224762
aS'-'
asS'AC110056.1'
p2090
(lp2091
I29275655
aI29276565
aS'+'
asS'AP001485.1'
p2092
(lp2093
I104682383
aI104682581
aS'-'
asS'RNF169'
p2094
(lp2095
I74748868
aI74842413
aS'+'
asS'TMEM25'
p2096
(lp2097
I118531088
aI118547280
aS'+'
asS'PDE2A'
p2098
(lp2099
I72576141
aI72674453
aS'-'
asS'OR8G2P'
p2100
(lp2101
I124224732
aI124225639
aS'+'
asS'ZBTB44'
p2102
(lp2103
I130226678
aI130314686
aS'-'
asS'IFITM10'
p2104
(lp2105
I1732410
aI1750591
aS'-'
asS'MMP26'
p2106
(lp2107
I4704927
aI4989830
aS'+'
asS'ZDHHC13'
p2108
(lp2109
I19117129
aI19176415
aS'+'
asS'PCSK7'
p2110
(lp2111
I117204337
aI117232525
aS'-'
asS'HIPK3'
p2112
(lp2113
I33257587
aI33357023
aS'+'
asS'P4HA3'
p2114
(lp2115
I74247487
aI74311631
aS'-'
asS'AP001994.1'
p2116
(lp2117
I119821304
aI119822129
aS'-'
asS'WARSP1'
p2118
(lp2119
I59255360
aI59259486
aS'+'
asS'AP003080.1'
p2120
(lp2121
I101584295
aI101595156
aS'+'
asS'AP000445.2'
p2122
(lp2123
I58748999
aI58761053
aS'-'
asS'AP000445.1'
p2124
(lp2125
I58685086
aI58691861
aS'+'
asS'AP001992.1'
p2126
(lp2127
I74876286
aI74913762
aS'+'
asS'THY1'
p2128
(lp2129
I119417378
aI119424128
aS'-'
asS'SCN4B'
p2130
(lp2131
I118133377
aI118152820
aS'-'
asS'AC015820.1'
p2132
(lp2133
I25588475
aI25588795
aS'-'
asS'ARHGEF12'
p2134
(lp2135
I120337078
aI120489936
aS'+'
asS'ARHGEF17'
p2136
(lp2137
I73308289
aI73369091
aS'+'
asS'GIF'
p2138
(lp2139
I59829268
aI59845501
aS'-'
asS'PIK3C2A'
p2140
(lp2141
I17077730
aI17207920
aS'-'
asS'FTH1P16'
p2142
(lp2143
I77734475
aI77735026
aS'-'
asS'MUC15'
p2144
(lp2145
I26559033
aI26572121
aS'-'
asS'MS4A4E'
p2146
(lp2147
I60201253
aI60243088
aS'-'
asS'OR51A10P'
p2148
(lp2149
I5468486
aI5469422
aS'-'
asS'OR52K1'
p2150
(lp2151
I4488879
aI4489908
aS'+'
asS'OR52K2'
p2152
(lp2153
I4449295
aI4450361
aS'+'
asS'AP000925.1'
p2154
(lp2155
I111670956
aI111672404
aS'-'
asS'ANGPTL5'
p2156
(lp2157
I101890674
aI101916522
aS'-'
asS'KLC2'
p2158
(lp2159
I66257294
aI66267859
aS'+'
asS'FDX1'
p2160
(lp2161
I110429883
aI110464881
aS'+'
asS'OR4A7P'
p2162
(lp2163
I54692450
aI54693359
aS'+'
asS'RASGRP2'
p2164
(lp2165
I64726911
aI64745456
aS'-'
asS'NUDT8'
p2166
(lp2167
I67627938
aI67629930
aS'-'
asS'ZNF195'
p2168
(lp2169
I3339261
aI3379133
aS'-'
asS'MMP10'
p2170
(lp2171
I102770503
aI102780628
aS'-'
asS'HINFP'
p2172
(lp2173
I119121587
aI119136044
aS'+'
asS'MMP13'
p2174
(lp2175
I102942995
aI102955734
aS'-'
asS'CDKN1C'
p2176
(lp2177
I2883213
aI2885881
aS'-'
asS'AP005435.1'
p2178
(lp2179
I89863848
aI89865550
aS'-'
asS'AP005435.2'
p2180
(lp2181
I89887366
aI89889991
aS'+'
asS'AP005435.3'
p2182
(lp2183
I89895799
aI89900449
aS'-'
asS'AC090124.3'
p2184
(lp2185
I29391525
aI29393844
aS'+'
asS'PRG3'
p2186
(lp2187
I57376769
aI57381150
aS'-'
asS'PRG2'
p2188
(lp2189
I57386794
aI57390657
aS'-'
asS'AP002784.2'
p2190
(lp2191
I94188449
aI94188997
aS'-'
asS'TRPT1'
p2192
(lp2193
I64223800
aI64226254
aS'-'
asS'OR5AR1'
p2194
(lp2195
I56663662
aI56664687
aS'+'
asS'TECTA'
p2196
(lp2197
I121101173
aI121191493
aS'+'
asS'OR4C9P'
p2198
(lp2199
I48464053
aI48464977
aS'-'
asS'TMEM123'
p2200
(lp2201
I102401925
aI102470384
aS'-'
asS'NCAPD3'
p2202
(lp2203
I134152434
aI134224532
aS'-'
asS'DLG2'
p2204
(lp2205
I83457919
aI85627270
aS'-'
asS'VEGFB'
p2206
(lp2207
I64234538
aI64238793
aS'+'
asS'AC025016.2'
p2208
(lp2209
I5903767
aI5904448
aS'+'
asS'CABP4'
p2210
(lp2211
I67452415
aI67459228
aS'+'
asS'TCN1'
p2212
(lp2213
I59852800
aI59866575
aS'-'
asS'CABP2'
p2214
(lp2215
I67518954
aI67524517
aS'-'
asS'AP001922.4'
p2216
(lp2217
I75642600
aI75642889
aS'+'
asS'OR5M6P'
p2218
(lp2219
I56512235
aI56513171
aS'-'
asS'OR4R2P'
p2220
(lp2221
I54657120
aI54657716
aS'-'
asS'HMBS'
p2222
(lp2223
I119084883
aI119093547
aS'+'
asS'SPI1'
p2224
(lp2225
I47354860
aI47378576
aS'-'
asS'OR2BH1P'
p2226
(lp2227
I28986635
aI28987498
aS'+'
asS'NAP1L1P1'
p2228
(lp2229
I126067539
aI126068601
aS'+'
asS'AP003716.2'
p2230
(lp2231
I67840942
aI67841049
aS'+'
asS'TESMIN'
p2232
(lp2233
I68707440
aI68751564
aS'-'
asS'ROM1'
p2234
(lp2235
I62611786
aI62615100
aS'+'
asS'AP005597.1'
p2236
(lp2237
I55282502
aI55282977
aS'+'
asS'RPS12P20'
p2238
(lp2239
I72708186
aI72708565
aS'+'
asS'BIRC2'
p2240
(lp2241
I102347235
aI102378670
aS'+'
asS'TNKS1BP1'
p2242
(lp2243
I57299638
aI57324952
aS'-'
asS'AP005597.3'
p2244
(lp2245
I55279949
aI55280289
aS'+'
asS'OR51S1'
p2246
(lp2247
I4848237
aI4849208
aS'-'
asS'GUCY2EP'
p2248
(lp2249
I76694041
aI76719801
aS'-'
asS'OR9G3P'
p2250
(lp2251
I56740179
aI56741096
aS'+'
asS'AP000435.2'
p2252
(lp2253
I58291826
aI58292765
aS'-'
asS'AP000435.1'
p2254
(lp2255
I58354004
aI58354499
aS'-'
asS'BANF1'
p2256
(lp2257
I66002079
aI66004149
aS'+'
asS'AC104010.1'
p2258
(lp2259
I44656771
aI44656920
aS'+'
asS'AP000787.3'
p2260
(lp2261
I95203727
aI95204033
aS'+'
asS'B4GALNT4'
p2262
(lp2263
I369804
aI382116
aS'+'
asS'RBM4'
p2264
(lp2265
I66638667
aI66666682
aS'+'
asS'SPCS2'
p2266
(lp2267
I74949247
aI74979031
aS'+'
asS'OR51D1'
p2268
(lp2269
I4639715
aI4640838
aS'+'
asS'CAT'
p2270
(lp2271
I34438925
aI34472062
aS'+'
asS'OR5W2'
p2272
(lp2273
I55913650
aI55914582
aS'-'
asS'RPS29P19'
p2274
(lp2275
I113751116
aI113751286
aS'-'
asS'ACER3'
p2276
(lp2277
I76860873
aI77026797
aS'+'
asS'OR5P1P'
p2278
(lp2279
I7772890
aI7773814
aS'-'
asS'PGR'
p2280
(lp2281
I101029624
aI101130524
aS'-'
asS'CXCR5'
p2282
(lp2283
I118883766
aI118897799
aS'+'
asS'AC100770.1'
p2284
(lp2285
I25630720
aI25631041
aS'+'
asS'AP001646.1'
p2286
(lp2287
I82835509
aI82837222
aS'+'
asS'AP001646.2'
p2288
(lp2289
I82805354
aI82806509
aS'+'
asS'FOLH1'
p2290
(lp2291
I49146635
aI49208670
aS'-'
asS'NDUFC2'
p2292
(lp2293
I78068304
aI78080219
aS'-'
asS'COA4'
p2294
(lp2295
I73872667
aI73876988
aS'-'
asS'TMEM218'
p2296
(lp2297
I125096545
aI125111708
aS'-'
asS'AC024475.2'
p2298
(lp2299
I46142716
aI46143594
aS'+'
asS'E2F8'
p2300
(lp2301
I19224063
aI19241620
aS'-'
asS'AP000790.1'
p2302
(lp2303
I60077350
aI60078401
aS'+'
asS'FUT4'
p2304
(lp2305
I94543840
aI94549898
aS'+'
asS'AP001184.1'
p2306
(lp2307
I67538899
aI67540584
aS'+'
asS'OR4C50P'
p2308
(lp2309
I54591480
aI54592409
aS'+'
asS'AC080023.2'
p2310
(lp2311
I10272052
aI10272259
aS'-'
asS'HYLS1'
p2312
(lp2313
I125883614
aI125900644
aS'+'
asS'SF1'
p2314
(lp2315
I64764606
aI64778786
aS'-'
asS'USP28'
p2316
(lp2317
I113797874
aI113875570
aS'-'
asS'AP000648.1'
p2318
(lp2319
I90098421
aI90098817
aS'-'
asS'AKIP1'
p2320
(lp2321
I8911139
aI8920084
aS'+'
asS'AC021723.1'
p2322
(lp2323
I39161453
aI39161967
aS'+'
asS'OR51J1'
p2324
(lp2325
I5402597
aI5403547
aS'+'
asS'HYOU1'
p2326
(lp2327
I119044191
aI119057194
aS'-'
asS'NDUFC2-KCTD14'
p2328
(lp2329
I78016971
aI78079844
aS'-'
asS'AP000753.3'
p2330
(lp2331
I63698596
aI63698764
aS'-'
asS'ADAMTS8'
p2332
(lp2333
I130404925
aI130428993
aS'-'
asS'OR5AK1P'
p2334
(lp2335
I57018100
aI57019021
aS'+'
asS'RPLP2'
p2336
(lp2337
I809647
aI812875
aS'+'
asS'OR4A4P'
p2338
(lp2339
I54659666
aI54660595
aS'+'
asS'OR7E4P'
p2340
(lp2341
I71620020
aI71621032
aS'+'
asS'DCHS1'
p2342
(lp2343
I6621323
aI6655854
aS'-'
asS'IFITM3'
p2344
(lp2345
I319773
aI327537
aS'-'
asS'IFITM2'
p2346
(lp2347
I308408
aI315272
aS'+'
asS'IFITM1'
p2348
(lp2349
I313506
aI315272
aS'+'
asS'IFITM5'
p2350
(lp2351
I298200
aI299526
aS'-'
asS'CLCF1'
p2352
(lp2353
I67364168
aI67373737
aS'-'
asS'SSH3'
p2354
(lp2355
I67303448
aI67312600
aS'+'
asS'OR52J2P'
p2356
(lp2357
I5037013
aI5037951
aS'+'
asS'PAFAH1B2'
p2358
(lp2359
I117144284
aI117176874
aS'+'
asS'AP003057.1'
p2360
(lp2361
I107176286
aI107177530
aS'+'
asS'AP001888.1'
p2362
(lp2363
I69737298
aI69738017
aS'-'
asS'AP005019.2'
p2364
(lp2365
I72562044
aI72562554
aS'+'
asS'AP005019.3'
p2366
(lp2367
I72551049
aI72551919
aS'-'
asS'RPL36AP39'
p2368
(lp2369
I1792553
aI1792870
aS'+'
asS'PLEKHA7'
p2370
(lp2371
I16778295
aI17014443
aS'-'
asS'HNRNPA1P72'
p2372
(lp2373
I84545131
aI84546846
aS'-'
asS'MRPL49'
p2374
(lp2375
I65122183
aI65127356
aS'+'
asS'MRPL48'
p2376
(lp2377
I73787316
aI73864611
aS'+'
asS'AP002392.1'
p2378
(lp2379
I74142151
aI74142358
aS'+'
asS'STARD10'
p2380
(lp2381
I72754730
aI72793681
aS'-'
asS'AP000676.2'
p2382
(lp2383
I87816224
aI87816524
aS'+'
asS'SRD5A3P1'
p2384
(lp2385
I59898185
aI59899133
aS'+'
asS'KMT2A'
p2386
(lp2387
I118436490
aI118526832
aS'+'
asS'LRRN4CL'
p2388
(lp2389
I62686402
aI62689899
aS'-'
asS'ARFGAP2'
p2390
(lp2391
I47164299
aI47177125
aS'-'
asS'OR52H1'
p2392
(lp2393
I5544561
aI5545523
aS'-'
asS'CNTN5'
p2394
(lp2395
I99021190
aI100358885
aS'+'
asS'UNC93B1'
p2396
(lp2397
I67991104
aI68004123
aS'-'
asS'HSPB2'
p2398
(lp2399
I111912242
aI111914093
aS'+'
asS'UNC93B5'
p2400
(lp2401
I67711702
aI67716005
aS'-'
asS'OR8A2P'
p2402
(lp2403
I124460534
aI124461485
aS'+'
asS'UNC93B6'
p2404
(lp2405
I71603260
aI71608040
aS'+'
asS'LAYN'
p2406
(lp2407
I111540508
aI111561745
aS'+'
asS'AP003041.3'
p2408
(lp2409
I130040365
aI130041071
aS'+'
asS'AP003041.2'
p2410
(lp2411
I130008586
aI130009765
aS'+'
asS'AP003041.1'
p2412
(lp2413
I130082495
aI130082781
aS'-'
asS'CDC42BPG'
p2414
(lp2415
I64823387
aI64844569
aS'-'
asS'FAM86GP'
p2416
(lp2417
I3410352
aI3422496
aS'-'
asS'AP002453.1'
p2418
(lp2419
I108690289
aI108690956
aS'-'
asS'CNGA4'
p2420
(lp2421
I6234765
aI6241991
aS'+'
asS'AC004924.1'
p2422
(lp2423
I67925651
aI67926431
aS'-'
asS'DYNC2H1'
p2424
(lp2425
I103109431
aI103479863
aS'+'
asS'CSRP3'
p2426
(lp2427
I19182040
aI19210573
aS'-'
asS'PLA2G16'
p2428
(lp2429
I63573195
aI63614369
aS'-'
asS'AP002453.2'
p2430
(lp2431
I108727741
aI108730104
aS'-'
asS'AC090099.3'
p2432
(lp2433
I18153277
aI18154255
aS'+'
asS'AC090099.2'
p2434
(lp2435
I18196657
aI18197337
aS'+'
asS'AC090099.1'
p2436
(lp2437
I18209208
aI18214562
aS'+'
asS'OR4A13P'
p2438
(lp2439
I55466771
aI55467712
aS'+'
asS'AC104978.1'
p2440
(lp2441
I28287235
aI28287625
aS'-'
asS'MYBPC3'
p2442
(lp2443
I47331397
aI47352702
aS'-'
asS'TMEM133'
p2444
(lp2445
I100991989
aI100993941
aS'+'
asS'TMEM136'
p2446
(lp2447
I120325129
aI120333679
aS'+'
asS'TMEM134'
p2448
(lp2449
I67461710
aI67469234
aS'-'
asS'TMEM135'
p2450
(lp2451
I87037844
aI87323758
aS'+'
asS'TMEM138'
p2452
(lp2453
I61362001
aI61369509
aS'+'
asS'PGAM1P9'
p2454
(lp2455
I92366496
aI92367250
aS'-'
asS'PGAM1P8'
p2456
(lp2457
I65174117
aI65176470
aS'-'
asS'TRPC2'
p2458
(lp2459
I3609901
aI3637549
aS'+'
asS'TRPC6'
p2460
(lp2461
I101504705
aI101872562
aS'-'
asS'AP000827.1'
p2462
(lp2463
I90074839
aI90075096
aS'-'
asS'ALG1L9P'
p2464
(lp2465
I71800541
aI71804640
aS'-'
asS'RASSF10'
p2466
(lp2467
I13009577
aI13012106
aS'+'
asS'AP000889.2'
p2468
(lp2469
I107600379
aI107600868
aS'-'
asS'BOLA3P1'
p2470
(lp2471
I102880492
aI102880846
aS'+'
asS'OR9G2P'
p2472
(lp2473
I56751023
aI56751902
aS'-'
asS'TBX10'
p2474
(lp2475
I67631303
aI67639560
aS'-'
asS'AP000889.1'
p2476
(lp2477
I107642887
aI107643871
aS'-'
asS'OR8K1'
p2478
(lp2479
I56346039
aI56346998
aS'+'
asS'OR8K3'
p2480
(lp2481
I56318307
aI56319245
aS'+'
asS'OR8K5'
p2482
(lp2483
I56159394
aI56160317
aS'-'
asS'SLC35C1'
p2484
(lp2485
I45804406
aI45813015
aS'+'
asS'KRTAP5-4'
p2486
(lp2487
I1620958
aI1622138
aS'-'
asS'KRTAP5-5'
p2488
(lp2489
I1629775
aI1630707
aS'+'
asS'KRTAP5-6'
p2490
(lp2491
I1697195
aI1697755
aS'+'
asS'KRTAP5-7'
p2492
(lp2493
I71527267
aI71528674
aS'+'
asS'KRTAP5-1'
p2494
(lp2495
I1584342
aI1585283
aS'-'
asS'KRTAP5-2'
p2496
(lp2497
I1597177
aI1598294
aS'-'
asS'KRTAP5-3'
p2498
(lp2499
I1607565
aI1608463
aS'-'
asS'AMBRA1'
p2500
(lp2501
I46396414
aI46594021
aS'-'
asS'THYN1'
p2502
(lp2503
I134248279
aI134253370
aS'-'
asS'KRTAP5-8'
p2504
(lp2505
I71538025
aI71539207
aS'+'
asS'KRTAP5-9'
p2506
(lp2507
I71548418
aI71549553
aS'+'
asS'AP000654.2'
p2508
(lp2509
I86821143
aI86821728
aS'-'
asS'C11orf88'
p2510
(lp2511
I111514785
aI111537031
aS'+'
asS'C11orf84'
p2512
(lp2513
I63813388
aI63827718
aS'+'
asS'ZW10'
p2514
(lp2515
I113733187
aI113773811
aS'-'
asS'C11orf87'
p2516
(lp2517
I109422120
aI109429114
aS'+'
asS'C11orf80'
p2518
(lp2519
I66744736
aI66843328
aS'+'
asS'MTATP6P15'
p2520
(lp2521
I103402588
aI103403422
aS'-'
asS'OR6X1'
p2522
(lp2523
I123753488
aI123754545
aS'-'
asS'STX3'
p2524
(lp2525
I59755398
aI59805882
aS'+'
asS'STX5'
p2526
(lp2527
I62806897
aI62832088
aS'-'
asS'AP000662.1'
p2528
(lp2529
I57718044
aI57718530
aS'-'
asS'GDPD4'
p2530
(lp2531
I77216558
aI77287418
aS'-'
asS'GDPD5'
p2532
(lp2533
I75434640
aI75525903
aS'-'
asS'CADM1'
p2534
(lp2535
I115169236
aI115504523
aS'-'
asS'POLA2'
p2536
(lp2537
I65261762
aI65298685
aS'+'
asS'OR5W1P'
p2538
(lp2539
I55903341
aI55904278
aS'-'
asS'TBCEL'
p2540
(lp2541
I121024121
aI121090775
aS'+'
asS'PUS3'
p2542
(lp2543
I125893486
aI125903221
aS'-'
asS'IL18BP'
p2544
(lp2545
I71998929
aI72005715
aS'+'
asS'RANP3'
p2546
(lp2547
I74652636
aI74652911
aS'+'
asS'ARHGAP42'
p2548
(lp2549
I100687653
aI100991937
aS'+'
asS'SCGB1D1'
p2550
(lp2551
I62190216
aI62193539
aS'+'
asS'NAA40'
p2552
(lp2553
I63938959
aI63957319
aS'+'
asS'SCGB1D2'
p2554
(lp2555
I62242210
aI62244808
aS'+'
asS'SCGB1D4'
p2556
(lp2557
I62296277
aI62299064
aS'-'
asS'OR5F1'
p2558
(lp2559
I55993681
aI55994625
aS'-'
asS'ALX4'
p2560
(lp2561
I44260444
aI44310166
aS'-'
asS'ETS1'
p2562
(lp2563
I128458765
aI128587558
aS'-'
asS'CTBP2P6'
p2564
(lp2565
I43522036
aI43523264
aS'+'
asS'MRPS36P4'
p2566
(lp2567
I112208601
aI112208898
aS'+'
asS'AQP11'
p2568
(lp2569
I77589635
aI77610355
aS'+'
asS'SPTY2D1-AS1'
p2570
(lp2571
I18588781
aI18603918
aS'+'
asS'ZBTB3'
p2572
(lp2573
I62748319
aI62752099
aS'-'
asS'CARD18'
p2574
(lp2575
I105137721
aI105139726
aS'-'
asS'OR5M5P'
p2576
(lp2577
I56526568
aI56527503
aS'-'
asS'CDC42EP2'
p2578
(lp2579
I65314818
aI65322429
aS'+'
asS'CHRM4'
p2580
(lp2581
I46385098
aI46386608
aS'-'
asS'CARD17'
p2582
(lp2583
I105092469
aI105101431
aS'-'
asS'CARD16'
p2584
(lp2585
I105041571
aI105101431
aS'-'
asS'CHRM1'
p2586
(lp2587
I62908679
aI62921681
aS'-'
asS'HRASLS5'
p2588
(lp2589
I63461414
aI63491167
aS'-'
asS'HRASLS2'
p2590
(lp2591
I63552770
aI63563383
aS'-'
asS'AC107956.2'
p2592
(lp2593
I17193489
aI17194308
aS'+'
asS'AC107956.1'
p2594
(lp2595
I17228279
aI17229151
aS'+'
asS'AP005639.2'
p2596
(lp2597
I55430487
aI55430994
aS'+'
asS'AP005639.1'
p2598
(lp2599
I55411526
aI55411717
aS'+'
asS'FEZ1'
p2600
(lp2601
I125445761
aI125496310
aS'-'
asS'FIBP'
p2602
(lp2603
I65883921
aI65888539
aS'-'
asS'VPS11'
p2604
(lp2605
I119067692
aI119081978
aS'+'
asS'OR4A11P'
p2606
(lp2607
I55318560
aI55319465
aS'+'
asS'MMP8'
p2608
(lp2609
I102712632
aI102727050
aS'-'
asS'MMP7'
p2610
(lp2611
I102520508
aI102530753
aS'-'
asS'POU2F3'
p2612
(lp2613
I120236640
aI120319944
aS'+'
asS'MMP1'
p2614
(lp2615
I102789920
aI102798160
aS'-'
asS'SLC6A5'
p2616
(lp2617
I20599400
aI20659285
aS'+'
asS'NCR3LG1'
p2618
(lp2619
I17351726
aI17377341
aS'+'
asS'XIAPP2'
p2620
(lp2621
I87094734
aI87096585
aS'-'
asS'AC109810.1'
p2622
(lp2623
I42939775
aI42939998
aS'+'
asS'CAPRIN1'
p2624
(lp2625
I34051683
aI34101156
aS'+'
asS'C11orf86'
p2626
(lp2627
I66975277
aI66977004
aS'+'
asS'NAALADL1'
p2628
(lp2629
I65044823
aI65058549
aS'-'
asS'CREBZF'
p2630
(lp2631
I85660168
aI85682863
aS'-'
asS'AL136146.1'
p2632
(lp2633
I35967010
aI35968676
aS'-'
asS'AP003102.1'
p2634
(lp2635
I109637468
aI109638128
aS'-'
asS'AP002353.1'
p2636
(lp2637
I107736009
aI107738718
aS'-'
asS'AP003033.1'
p2638
(lp2639
I55957216
aI55957630
aS'-'
asS'AP000893.1'
p2640
(lp2641
I82957423
aI82958216
aS'+'
asS'ANKRD42'
p2642
(lp2643
I83193876
aI83256099
aS'+'
asS'ANKRD49'
p2644
(lp2645
I94493629
aI94499583
aS'+'
asS'AC131935.1'
p2646
(lp2647
I11759101
aI11759433
aS'-'
asS'AP003484.1'
p2648
(lp2649
I57870322
aI57870571
aS'-'
asS'AC111188.3'
p2650
(lp2651
I11182107
aI11182413
aS'-'
asS'USP35'
p2652
(lp2653
I78188907
aI78214711
aS'+'
asS'AC127526.1'
p2654
(lp2655
I3559657
aI3560022
aS'+'
asS'OR51I1'
p2656
(lp2657
I5440570
aI5441514
aS'-'
asS'OR51I2'
p2658
(lp2659
I5453489
aI5454427
aS'+'
asS'AC127526.2'
p2660
(lp2661
I3549745
aI3550519
aS'-'
asS'AC127526.4'
p2662
(lp2663
I3481520
aI3581211
aS'-'
asS'RPL23AP63'
p2664
(lp2665
I43718676
aI43719146
aS'+'
asS'RPL23AP62'
p2666
(lp2667
I112461468
aI112461920
aS'-'
asS'PPFIBP2'
p2668
(lp2669
I7513770
aI7653756
aS'+'
asS'RPL23AP64'
p2670
(lp2671
I119003012
aI119003446
aS'-'
asS'RNF214'
p2672
(lp2673
I117232625
aI117285686
aS'+'
asS'AP001804.1'
p2674
(lp2675
I124324871
aI124325789
aS'-'
asS'DDI1'
p2676
(lp2677
I104036580
aI104039188
aS'+'
asS'AP001804.3'
p2678
(lp2679
I124338783
aI124339662
aS'-'
asS'RRP8'
p2680
(lp2681
I6595075
aI6603620
aS'-'
asS'HRAS'
p2682
(lp2683
I533795
aI537287
aS'-'
asS'GRIA4'
p2684
(lp2685
I105610073
aI105982092
aS'+'
asS'SAAL1'
p2686
(lp2687
I18080292
aI18106091
aS'-'
asS'OR5G1P'
p2688
(lp2689
I56775261
aI56776206
aS'-'
asS'AP002008.2'
p2690
(lp2691
I111448450
aI111473381
aS'+'
asS'AP001582.1'
p2692
(lp2693
I118322789
aI118323083
aS'-'
asS'BDNF'
p2694
(lp2695
I27654893
aI27722058
aS'-'
asS'AC090625.1'
p2696
(lp2697
I35374265
aI35374474
aS'+'
asS'EMSY'
p2698
(lp2699
I76445025
aI76551542
aS'+'
asS'OR5F2P'
p2700
(lp2701
I56015017
aI56015957
aS'-'
asS'AL358944.1'
p2702
(lp2703
I30167163
aI30167306
aS'+'
asS'PLEKHB1'
p2704
(lp2705
I73646178
aI73662819
aS'+'
asS'SYT13'
p2706
(lp2707
I45240301
aI45286319
aS'-'
asS'AP000593.1'
p2708
(lp2709
I72280151
aI72281178
aS'+'
asS'AP002884.1'
p2710
(lp2711
I112235371
aI112236025
aS'-'
asS'AP002884.2'
p2712
(lp2713
I112218326
aI112218720
aS'+'
asS'AP000436.1'
p2714
(lp2715
I65025390
aI65026515
aS'-'
asS'RIC8A'
p2716
(lp2717
I207511
aI215113
aS'+'
asS'PLCB3'
p2718
(lp2719
I64251547
aI64269150
aS'+'
asS'OR52I2'
p2720
(lp2721
I4586791
aI4587905
aS'+'
asS'OR52I1'
p2722
(lp2723
I4593750
aI4595013
aS'+'
asS'OR51A8P'
p2724
(lp2725
I4832133
aI4833072
aS'+'
asS'OR52M2P'
p2726
(lp2727
I4514966
aI4515924
aS'-'
asS'SCUBE2'
p2728
(lp2729
I9020391
aI9091601
aS'-'
asS'RPL5P30'
p2730
(lp2731
I118560690
aI118561580
aS'+'
asS'TOLLIP'
p2732
(lp2733
I1274371
aI1309622
aS'-'
asS'AAMDC'
p2734
(lp2735
I77821109
aI77918432
aS'+'
asS'RPSAP50'
p2736
(lp2737
I109982192
aI109983043
aS'+'
asS'OR4D8P'
p2738
(lp2739
I59491652
aI59492581
aS'+'
asS'LAMTOR1'
p2740
(lp2741
I72085895
aI72103246
aS'-'
asS'PPP2R5B'
p2742
(lp2743
I64917599
aI64928148
aS'+'
asS'AP003385.1'
p2744
(lp2745
I67651576
aI67653404
aS'-'
asS'AP003385.2'
p2746
(lp2747
I67722483
aI67723455
aS'-'
asS'AP003385.3'
p2748
(lp2749
I67682772
aI67683058
aS'-'
asS'AP003385.4'
p2750
(lp2751
I67744322
aI67744645
aS'+'
asS'AC024293.1'
p2752
(lp2753
I46428653
aI46429150
aS'-'
asS'AP003385.6'
p2754
(lp2755
I67749043
aI67756968
aS'-'
asS'AC018523.2'
p2756
(lp2757
I14493783
aI14520344
aS'-'
asS'AC079064.1'
p2758
(lp2759
I26427051
aI26427412
aS'+'
asS'OR52W1'
p2760
(lp2761
I6199146
aI6200259
aS'+'
asS'FBXO3'
p2762
(lp2763
I33740946
aI33774516
aS'-'
asS'CTNND1'
p2764
(lp2765
I57753243
aI57819546
aS'+'
asS'OR8G3P'
p2766
(lp2767
I124214767
aI124215687
aS'+'
asS'KCNA4'
p2768
(lp2769
I30009741
aI30017023
aS'-'
asS'OR10D1P'
p2770
(lp2771
I124158421
aI124159356
aS'+'
asS'OR5AP2'
p2772
(lp2773
I56641466
aI56642471
aS'-'
asS'AP003399.1'
p2774
(lp2775
I60577856
aI60608418
aS'+'
asS'OR6M3P'
p2776
(lp2777
I123861822
aI123862521
aS'-'
asS'FTH1'
p2778
(lp2779
I61959718
aI61967631
aS'-'
asS'QSER1'
p2780
(lp2781
I32893178
aI32980266
aS'+'
asS'AL035079.1'
p2782
(lp2783
I34404663
aI34404949
aS'-'
asS'CCDC34'
p2784
(lp2785
I27338514
aI27363868
aS'-'
asS'PSMA2P1'
p2786
(lp2787
I87329407
aI87330052
aS'-'
asS'TMA16P1'
p2788
(lp2789
I58796237
aI58796854
aS'-'
asS'AP000812.2'
p2790
(lp2791
I72172455
aI72177954
aS'+'
asS'AP000812.3'
p2792
(lp2793
I72158822
aI72159734
aS'+'
asS'IMMP1LP1'
p2794
(lp2795
I63632233
aI63632720
aS'+'
asS'HBBP1'
p2796
(lp2797
I5242120
aI5243537
aS'-'
asS'ATL3'
p2798
(lp2799
I63624087
aI63671612
aS'-'
asS'RARRES3'
p2800
(lp2801
I63536809
aI63546462
aS'+'
asS'HNRNPUL2-BSCL2'
p2802
(lp2803
I62690275
aI62727384
aS'-'
asS'GLYATL2'
p2804
(lp2805
I58834730
aI58904215
aS'-'
asS'AP001160.5'
p2806
(lp2807
I62832319
aI62832803
aS'-'
asS'ZNF408'
p2808
(lp2809
I46700818
aI46705912
aS'+'
asS'OR8J3'
p2810
(lp2811
I56136771
aI56137718
aS'-'
asS'OR8J1'
p2812
(lp2813
I56360215
aI56361288
aS'+'
asS'CCDC85B'
p2814
(lp2815
I65890112
aI65891635
aS'+'
asS'SNRPCP5'
p2816
(lp2817
I3531420
aI3531608
aS'+'
asS'GLYATL1P4'
p2818
(lp2819
I59042737
aI59050971
aS'+'
asS'GLYATL1P1'
p2820
(lp2821
I58978787
aI58994120
aS'+'
asS'GLYATL1P3'
p2822
(lp2823
I59086307
aI59094786
aS'+'
asS'GLYATL1P2'
p2824
(lp2825
I58878302
aI58892972
aS'+'
asS'CORO1B'
p2826
(lp2827
I67435510
aI67443484
aS'-'
asS'OR4A18P'
p2828
(lp2829
I49917391
aI49918478
aS'-'
asS'C11orf98'
p2830
(lp2831
I62662816
aI62665217
aS'-'
asS'C11orf97'
p2832
(lp2833
I94512432
aI94532123
aS'+'
asS'C11orf96'
p2834
(lp2835
I43925342
aI43943273
aS'+'
asS'C11orf95'
p2836
(lp2837
I63759892
aI63768775
aS'-'
asS'C11orf94'
p2838
(lp2839
I45906513
aI45907272
aS'-'
asS'C11orf91'
p2840
(lp2841
I33698261
aI33700801
aS'-'
asS'DCPS'
p2842
(lp2843
I126303752
aI126345749
aS'+'
asS'CHORDC1'
p2844
(lp2845
I90201160
aI90223364
aS'-'
asS'NPAS4'
p2846
(lp2847
I66421004
aI66426707
aS'+'
asS'UVRAG'
p2848
(lp2849
I75815167
aI76143195
aS'+'
asS'FAU'
p2850
(lp2851
I65120628
aI65122473
aS'-'
asS'OR4A10P'
p2852
(lp2853
I55431957
aI55432367
aS'+'
asS'RPL5P29'
p2854
(lp2855
I56357328
aI56358221
aS'+'
asS'OR5M4P'
p2856
(lp2857
I56448668
aI56449592
aS'+'
asS'ZNHIT2'
p2858
(lp2859
I65116403
aI65117708
aS'-'
asS'ALG1L8P'
p2860
(lp2861
I67785273
aI67792335
aS'+'
asS'MRGPRD'
p2862
(lp2863
I68980021
aI68980986
aS'-'
asS'MRGPRE'
p2864
(lp2865
I3227698
aI3232386
aS'-'
asS'MRGPRF'
p2866
(lp2867
I69004398
aI69013409
aS'-'
asS'MRGPRG'
p2868
(lp2869
I3217944
aI3218813
aS'-'
asS'PPP6R3'
p2870
(lp2871
I68460731
aI68615334
aS'+'
asS'AP001858.2'
p2872
(lp2873
I63032503
aI63033103
aS'-'
asS'CASP4'
p2874
(lp2875
I104942866
aI104969436
aS'-'
asS'CASP5'
p2876
(lp2877
I104994240
aI105023168
aS'-'
asS'CASP1'
p2878
(lp2879
I105025508
aI105035250
aS'-'
asS'DRD4'
p2880
(lp2881
I637293
aI640706
aS'+'
asS'OR5G3'
p2882
(lp2883
I56819576
aI56820504
aS'-'
asS'DRD2'
p2884
(lp2885
I113409615
aI113475389
aS'-'
asS'PICALM'
p2886
(lp2887
I85957688
aI86069097
aS'-'
asS'OR8I1P'
p2888
(lp2889
I56296541
aI56297471
aS'-'
asS'OAF'
p2890
(lp2891
I120210767
aI120230332
aS'+'
asS'BLID'
p2892
(lp2893
I122115354
aI122116215
aS'-'
asS'OR5I1'
p2894
(lp2895
I55935456
aI55936400
aS'-'
asS'CCS'
p2896
(lp2897
I66592821
aI66606019
aS'+'
asS'PIH1D2'
p2898
(lp2899
I112064013
aI112074171
aS'-'
asS'CLMP'
p2900
(lp2901
I123069865
aI123195281
aS'-'
asS'LRFN4'
p2902
(lp2903
I66857118
aI66860475
aS'+'
asS'TTC9C'
p2904
(lp2905
I62728539
aI62738636
aS'+'
asS'ZP1'
p2906
(lp2907
I60867562
aI60875693
aS'+'
asS'GRK2'
p2908
(lp2909
I67266410
aI67286556
aS'+'
asS'OR6M1'
p2910
(lp2911
I123805335
aI123806387
aS'-'
asS'CAPN5'
p2912
(lp2913
I77066941
aI77126155
aS'+'
asS'CAPN1'
p2914
(lp2915
I65181194
aI65212006
aS'+'
asS'OR9M1P'
p2916
(lp2917
I55855592
aI55856512
aS'+'
asS'FLI1'
p2918
(lp2919
I128686535
aI128813266
aS'+'
asS'WBP1LP10'
p2920
(lp2921
I75780
aI76143
aS'+'
asS'P2RX3'
p2922
(lp2923
I57338517
aI57370600
aS'+'
asS'IGHMBP2'
p2924
(lp2925
I68903842
aI68940599
aS'+'
asS'TIMM10B'
p2926
(lp2927
I6481447
aI6484679
aS'+'
asS'ANKK1'
p2928
(lp2929
I113387791
aI113400418
aS'+'
asS'OR9Q2'
p2930
(lp2931
I58190434
aI58191518
aS'+'
asS'FAM76B'
p2932
(lp2933
I95768942
aI95789791
aS'-'
asS'OR9Q1'
p2934
(lp2935
I58023881
aI58181616
aS'+'
asS'AC022878.1'
p2936
(lp2937
I13152200
aI13152348
aS'+'
asS'AP003038.1'
p2938
(lp2939
I98565074
aI98566827
aS'-'
asS'OR56B2P'
p2940
(lp2941
I5765096
aI5766049
aS'+'
asS'OR4R3P'
p2942
(lp2943
I49923049
aI49923886
aS'+'
asS'AP000870.1'
p2944
(lp2945
I95963219
aI95963624
aS'+'
asS'AP003066.2'
p2946
(lp2947
I96642671
aI96643225
aS'-'
asS'ELP4'
p2948
(lp2949
I31509700
aI31790328
aS'+'
asS'CCDC81'
p2950
(lp2951
I86374736
aI86423108
aS'+'
asS'PATE4'
p2952
(lp2953
I125833316
aI125840069
aS'+'
asS'PATE1'
p2954
(lp2955
I125746293
aI125749867
aS'+'
asS'OR52E7P'
p2956
(lp2957
I5873960
aI5874892
aS'+'
asS'PATE3'
p2958
(lp2959
I125788111
aI125791600
aS'+'
asS'PATE2'
p2960
(lp2961
I125776113
aI125778819
aS'-'
asS'H2AFX'
p2962
(lp2963
I119093854
aI119095467
aS'-'
asS'ROBO4'
p2964
(lp2965
I124883691
aI124898281
aS'-'
asS'ST14'
p2966
(lp2967
I130159562
aI130210376
aS'+'
asS'OR4A2P'
p2968
(lp2969
I54667298
aI54668210
aS'+'
asS'KBTBD4'
p2970
(lp2971
I47572227
aI47579015
aS'-'
asS'KBTBD3'
p2972
(lp2973
I106051098
aI106077459
aS'-'
asS'AP000776.1'
p2974
(lp2975
I101765935
aI101769961
aS'-'
asS'CTR9'
p2976
(lp2977
I10750987
aI10779743
aS'+'
asS'OR51H1'
p2978
(lp2979
I4859656
aI4860564
aS'-'
asS'AC018793.2'
p2980
(lp2981
I4233288
aI4233872
aS'+'
asS'AC018793.3'
p2982
(lp2983
I4242056
aI4242640
aS'-'
asS'AC018793.1'
p2984
(lp2985
I4287499
aI4288083
aS'-'
asS'AC018793.4'
p2986
(lp2987
I4338660
aI4339244
aS'-'
asS'AC018793.5'
p2988
(lp2989
I4329865
aI4330449
aS'+'
asS'TMEM9B'
p2990
(lp2991
I8947501
aI8965011
aS'-'
asS'AC044810.1'
p2992
(lp2993
I7783697
aI7784407
aS'+'
asS'SIRT3'
p2994
(lp2995
I215458
aI236431
aS'-'
asS'KLHL35'
p2996
(lp2997
I75422396
aI75430629
aS'-'
asS'AL049714.1'
p2998
(lp2999
I32758268
aI32758614
aS'+'
asS'SPATA19'
p3000
(lp3001
I133840631
aI133845501
aS'-'
asS'EFEMP2'
p3002
(lp3003
I65866447
aI65872906
aS'-'
asS'TRIM48'
p3004
(lp3005
I55262182
aI55271119
aS'+'
asS'TRIM49'
p3006
(lp3007
I89797655
aI89808575
aS'-'
asS'MTNR1B'
p3008
(lp3009
I92969784
aI92985066
aS'+'
asS'ELOCP22'
p3010
(lp3011
I120619934
aI120620267
aS'-'
asS'TRIM44'
p3012
(lp3013
I35662805
aI35818007
aS'+'
asS'BSCL2'
p3014
(lp3015
I62690275
aI62709514
aS'-'
asS'AL359999.1'
p3016
(lp3017
I34742906
aI34743199
aS'+'
asS'OR56A7P'
p3018
(lp3019
I6045807
aI6046747
aS'-'
asS'OR5AQ1P'
p3020
(lp3021
I56054364
aI56055299
aS'+'
asS'TKFC'
p3022
(lp3023
I61333210
aI61349242
aS'+'
asS'OR5B10P'
p3024
(lp3025
I58348989
aI58349630
aS'-'
asS'OR52N3P'
p3026
(lp3027
I5800364
aI5801297
aS'+'
asS'ESAM'
p3028
(lp3029
I124752583
aI124762290
aS'-'
asS'TRIM53AP'
p3030
(lp3031
I89993536
aI89999741
aS'-'
asS'FNBP4'
p3032
(lp3033
I47716517
aI47767301
aS'-'
asS'AP003084.1'
p3034
(lp3035
I86283927
aI86284668
aS'+'
asS'ME3'
p3036
(lp3037
I86441110
aI86672636
aS'-'
asS'ATP5L'
p3038
(lp3039
I118401632
aI118431496
aS'+'
asS'MPZL2'
p3040
(lp3041
I118253403
aI118264282
aS'-'
asS'MPZL3'
p3042
(lp3043
I118226690
aI118252350
aS'-'
asS'ZNF123P'
p3044
(lp3045
I129295286
aI129296481
aS'-'
asS'OR4S1'
p3046
(lp3047
I48306223
aI48307152
aS'+'
asS'OR4S2'
p3048
(lp3049
I55650904
aI55651839
aS'+'
asS'FGF19'
p3050
(lp3051
I69698232
aI69704642
aS'-'
asS'DNHD1'
p3052
(lp3053
I6497296
aI6572022
aS'+'
asS'DAGLA'
p3054
(lp3055
I61680433
aI61747001
aS'+'
asS'AP001317.1'
p3056
(lp3057
I98130239
aI98131198
aS'-'
asS'AC013828.2'
p3058
(lp3059
I13758111
aI13758345
aS'-'
asS'SNRPGP16'
p3060
(lp3061
I92937441
aI92937666
aS'+'
asS'SNRPGP19'
p3062
(lp3063
I65514403
aI65514923
aS'-'
asS'AP006587.6'
p3064
(lp3065
I49843488
aI49846533
aS'-'
asS'HNRNPUL2'
p3066
(lp3067
I62712630
aI62727349
aS'-'
asS'CICP23'
p3068
(lp3069
I123312
aI126123
aS'+'
asS'AC023442.1'
p3070
(lp3071
I41797543
aI41797964
aS'+'
asS'GLB1L2'
p3072
(lp3073
I134331874
aI134376324
aS'+'
asS'GLB1L3'
p3074
(lp3075
I134276741
aI134319563
aS'+'
asS'RIN1'
p3076
(lp3077
I66330242
aI66336008
aS'-'
asS'AC019227.1'
p3078
(lp3079
I130285023
aI130285833
aS'-'
asS'NOX4'
p3080
(lp3081
I89326347
aI89498187
aS'-'
asS'RPS13'
p3082
(lp3083
I17074389
aI17077787
aS'-'
asS'AP001024.1'
p3084
(lp3085
I107908420
aI107908764
aS'+'
asS'AP002469.2'
p3086
(lp3087
I122618851
aI122619274
aS'+'
asS'AP002469.1'
p3088
(lp3089
I122613444
aI122614486
aS'-'
asS'CSTF3'
p3090
(lp3091
I33084584
aI33161465
aS'-'
asS'RRM1'
p3092
(lp3093
I4094799
aI4138870
aS'+'
asS'AC087276.1'
p3094
(lp3095
I43466392
aI43466871
aS'+'
asS'FIBIN'
p3096
(lp3097
I26994184
aI26996121
aS'+'
asS'OR5D17P'
p3098
(lp3099
I55754976
aI55755953
aS'+'
asS'UBASH3B'
p3100
(lp3101
I122655675
aI122814473
aS'+'
asS'OR8I2'
p3102
(lp3103
I56093308
aI56094240
aS'+'
asS'UBQLN3'
p3104
(lp3105
I5507300
aI5509985
aS'-'
asS'TH'
p3106
(lp3107
I2163929
aI2171877
aS'-'
asS'TSSC4'
p3108
(lp3109
I2400488
aI2403878
aS'+'
asS'KCTD21'
p3110
(lp3111
I78171249
aI78188822
aS'-'
asS'TSSC2'
p3112
(lp3113
I3380961
aI3408978
aS'+'
asS'OR8B10P'
p3114
(lp3115
I124516311
aI124517242
aS'-'
asS'KCNJ11'
p3116
(lp3117
I17385859
aI17389331
aS'-'
asS'AP003049.1'
p3118
(lp3119
I109486968
aI109487424
aS'-'
asS'ZFPL1'
p3120
(lp3121
I65084235
aI65088400
aS'+'
asS'SDHCP4'
p3122
(lp3123
I17435672
aI17436181
aS'-'
asS'SSSCA1'
p3124
(lp3125
I65570682
aI65573942
aS'+'
asS'MTCO1P15'
p3126
(lp3127
I103404309
aI103405834
aS'-'
asS'RPL34P22'
p3128
(lp3129
I44629357
aI44629674
aS'+'
asS'UBQLNL'
p3130
(lp3131
I5514393
aI5516705
aS'-'
asS'AC024405.2'
p3132
(lp3133
I50307681
aI50361706
aS'+'
asS'AC024405.1'
p3134
(lp3135
I50409042
aI50422316
aS'+'
asS'RTN4RL2'
p3136
(lp3137
I57460549
aI57477534
aS'+'
asS'ACTN3'
p3138
(lp3139
I66546395
aI66563326
aS'+'
asS'MAJIN'
p3140
(lp3141
I64938231
aI64972085
aS'-'
asS'OR56B4'
p3142
(lp3143
I6107684
aI6108835
aS'+'
asS'AP000619.3'
p3144
(lp3145
I102766801
aI102767927
aS'-'
asS'AP000619.2'
p3146
(lp3147
I102806948
aI102807916
aS'-'
asS'AP000619.1'
p3148
(lp3149
I102751070
aI102754943
aS'-'
asS'OR56B1'
p3150
(lp3151
I5736517
aI5737491
aS'+'
asS'AP006294.1'
p3152
(lp3153
I3591277
aI3591615
aS'-'
asS'CREB3L1'
p3154
(lp3155
I46277661
aI46321422
aS'+'
asS'GLYAT'
p3156
(lp3157
I58640426
aI58712849
aS'-'
asS'OR52T1P'
p3158
(lp3159
I5566678
aI5567616
aS'-'
asS'MYO7A'
p3160
(lp3161
I77128264
aI77215238
aS'+'
asS'PTPRJ'
p3162
(lp3163
I47980558
aI48170841
aS'+'
asS'OR8K4P'
p3164
(lp3165
I56142516
aI56143387
aS'-'
asS'AC087207.1'
p3166
(lp3167
I14673606
aI14674555
aS'-'
asS'PGAP2'
p3168
(lp3169
I3797724
aI3826371
aS'+'
asS'OR51AB1P'
p3170
(lp3171
I5291761
aI5292380
aS'-'
asS'AC084337.1'
p3172
(lp3173
I6488186
aI6489377
aS'-'
asS'AC084337.2'
p3174
(lp3175
I6481485
aI6508978
aS'+'
asS'FKBP2'
p3176
(lp3177
I64241004
aI64244124
aS'+'
asS'SAA2-SAA4'
p3178
(lp3179
I18231423
aI18248635
aS'-'
asS'OR8R1P'
p3180
(lp3181
I73248779
aI73249867
aS'+'
asS'APBB1'
p3182
(lp3183
I6395125
aI6419414
aS'-'
asS'AC084851.2'
p3184
(lp3185
I49092404
aI49092767
aS'+'
asS'AC084851.3'
p3186
(lp3187
I49067610
aI49069301
aS'+'
asS'AC084851.1'
p3188
(lp3189
I49070752
aI49071000
aS'-'
asS'OR5AK2'
p3190
(lp3191
I56988872
aI56989867
aS'+'
asS'AP003532.1'
p3192
(lp3193
I127657568
aI127657877
aS'+'
asS'AP002360.1'
p3194
(lp3195
I76381313
aI76414619
aS'+'
asS'OR51A6P'
p3196
(lp3197
I4889593
aI4890596
aS'-'
asS'OR5J2'
p3198
(lp3199
I56176618
aI56177556
aS'+'
asS'OR4A3P'
p3200
(lp3201
I54662580
aI54663450
aS'+'
asS'EHF'
p3202
(lp3203
I34621111
aI34661057
aS'+'
asS'POU2AF1'
p3204
(lp3205
I111357526
aI111449981
aS'-'
asS'CCND1'
p3206
(lp3207
I69641087
aI69654474
aS'+'
asS'CEP295'
p3208
(lp3209
I93661639
aI93730358
aS'+'
asS'FDXACB1'
p3210
(lp3211
I111875342
aI111881243
aS'-'
asS'PIDD1'
p3212
(lp3213
I799185
aI809499
aS'-'
asS'C11orf49'
p3214
(lp3215
I46936754
aI47164385
aS'+'
asS'OR7E128P'
p3216
(lp3217
I71893410
aI71894433
aS'+'
asS'C11orf40'
p3218
(lp3219
I4571423
aI4577820
aS'-'
asS'C11orf42'
p3220
(lp3221
I6205566
aI6211132
aS'+'
asS'AP003398.1'
p3222
(lp3223
I80957317
aI80957634
aS'+'
asS'C11orf45'
p3224
(lp3225
I128899565
aI128905697
aS'-'
asS'HSD17B12'
p3226
(lp3227
I43680558
aI43856610
aS'+'
asS'BBOX1'
p3228
(lp3229
I27040725
aI27127675
aS'+'
asS'XRRA1'
p3230
(lp3231
I74807739
aI74949180
aS'-'
asS'RAB6A'
p3232
(lp3233
I73675638
aI73761137
aS'-'
asS'CHRNA10'
p3234
(lp3235
I3665587
aI3671384
aS'-'
asS'B3GAT3'
p3236
(lp3237
I62615296
aI62622175
aS'-'
asS'OR5P4P'
p3238
(lp3239
I7745990
aI7746906
aS'+'
asS'ARNTL'
p3240
(lp3241
I13277798
aI13387266
aS'+'
asS'TNNT3'
p3242
(lp3243
I1919562
aI1938706
aS'+'
asS'ARL6IP1P3'
p3244
(lp3245
I80653429
aI80653988
aS'-'
asS'TIMM10'
p3246
(lp3247
I57528463
aI57530765
aS'-'
asS'NTM'
p3248
(lp3249
I131370478
aI132336822
aS'+'
asS'OPCML'
p3250
(lp3251
I132414981
aI133532519
aS'-'
asS'SNX32'
p3252
(lp3253
I65833979
aI65856896
aS'+'
asS'OR52A4P'
p3254
(lp3255
I5121155
aI5124513
aS'-'
asS'OR4A48P'
p3256
(lp3257
I48492026
aI48492416
aS'+'
asS'OR56B3P'
p3258
(lp3259
I6128610
aI6129556
aS'+'
asS'OR7E126P'
p3260
(lp3261
I71903194
aI71904081
aS'+'
asS'AP001458.2'
p3262
(lp3263
I62649694
aI62665178
aS'-'
asS'TMX2-CTNND1'
p3264
(lp3265
I57712605
aI57791586
aS'+'
asS'ZDHHC5'
p3266
(lp3267
I57667896
aI57701187
aS'+'
asS'CBL'
p3268
(lp3269
I119206424
aI119313926
aS'+'
asS'SLC22A6'
p3270
(lp3271
I62936385
aI62984824
aS'-'
asS'CIR1P3'
p3272
(lp3273
I34430880
aI34431649
aS'+'
asS'SLC22A8'
p3274
(lp3275
I62992824
aI63015839
aS'-'
asS'SLC22A9'
p3276
(lp3277
I63369808
aI63410294
aS'+'
asS'ST13P10'
p3278
(lp3279
I112267290
aI112268371
aS'-'
asS'TMEM80'
p3280
(lp3281
I695796
aI705028
aS'+'
asS'TAF10'
p3282
(lp3283
I6606296
aI6611948
aS'-'
asS'TRIM51'
p3284
(lp3285
I55883297
aI55891810
aS'+'
asS'OR5BD1P'
p3286
(lp3287
I57945598
aI57946414
aS'-'
asS'MDK'
p3288
(lp3289
I46380756
aI46383799
aS'+'
asS'NDUFV1'
p3290
(lp3291
I67606852
aI67612506
aS'+'
asS'RPS28P7'
p3292
(lp3293
I82689559
aI82689768
aS'+'
asS'RBM14'
p3294
(lp3295
I66616582
aI66627347
aS'+'
asS'PARVA'
p3296
(lp3297
I12377185
aI12530801
aS'+'
asS'AP003181.2'
p3298
(lp3299
I105246880
aI105247060
aS'-'
asS'OR4B2P'
p3300
(lp3301
I48227429
aI48228310
aS'+'
asS'CHRDL2'
p3302
(lp3303
I74696429
aI74731385
aS'-'
asS'AC136475.10'
p3304
(lp3305
I243099
aI243483
aS'-'
asS'GRAMD1B'
p3306
(lp3307
I123358428
aI123627767
aS'+'
asS'RNF26'
p3308
(lp3309
I119334527
aI119337313
aS'+'
asS'OR51N1P'
p3310
(lp3311
I4786754
aI4787705
aS'+'
asS'YAP1'
p3312
(lp3313
I102110461
aI102233423
aS'+'
asS'GPR152'
p3314
(lp3315
I67451301
aI67452729
aS'-'
asS'F2'
p3316
(lp3317
I46719180
aI46739506
aS'+'
asS'TAF1D'
p3318
(lp3319
I93739281
aI93784391
aS'-'
asS'EEF1DP8'
p3320
(lp3321
I62169293
aI62169828
aS'+'
asS'LSP1'
p3322
(lp3323
I1852970
aI1892263
aS'+'
asS'HTR3B'
p3324
(lp3325
I113904677
aI113946565
aS'+'
asS'HTR3A'
p3326
(lp3327
I113974881
aI113990313
aS'+'
asS'FAM89B'
p3328
(lp3329
I65572349
aI65574198
aS'+'
asS'TMEM151A'
p3330
(lp3331
I66291870
aI66296664
aS'+'
asS'HARBI1'
p3332
(lp3333
I46602861
aI46617227
aS'-'
asS'KCNC1'
p3334
(lp3335
I17736367
aI17856797
aS'+'
asS'C2CD2L'
p3336
(lp3337
I119107383
aI119118544
aS'+'
asS'TMEM258'
p3338
(lp3339
I61768501
aI61790603
aS'-'
asS'SNRPCP14'
p3340
(lp3341
I71690453
aI71690657
aS'-'
asS'EI24'
p3342
(lp3343
I125569216
aI125584687
aS'+'
asS'AP000911.2'
p3344
(lp3345
I134123828
aI134124329
aS'-'
asS'CPSF7'
p3346
(lp3347
I61402649
aI61430031
aS'-'
asS'AP003035.1'
p3348
(lp3349
I85452282
aI85453698
aS'-'
asS'PPFIA1'
p3350
(lp3351
I70270700
aI70384400
aS'+'
asS'TMEM41B'
p3352
(lp3353
I9280671
aI9314780
aS'-'
asS'ZFP91-CNTF'
p3354
(lp3355
I58579172
aI58624566
aS'+'
asS'ALDH3B2'
p3356
(lp3357
I67662162
aI67681200
aS'-'
asS'ALDH3B1'
p3358
(lp3359
I68008578
aI68028696
aS'+'
asS'AC068580.4'
p3360
(lp3361
I1734821
aI1763954
aS'-'
asS'LTBP3'
p3362
(lp3363
I65539411
aI65558930
aS'-'
asS'TRIM53BP'
p3364
(lp3365
I89841997
aI89850970
aS'+'
asS'OR9I2P'
p3366
(lp3367
I58144495
aI58145397
aS'+'
asS'SAA3P'
p3368
(lp3369
I18112472
aI18116132
aS'-'
asS'RTN3'
p3370
(lp3371
I63681450
aI63759891
aS'+'
asS'AP000907.1'
p3372
(lp3373
I112029858
aI112030367
aS'-'
asS'AP000907.2'
p3374
(lp3375
I111945639
aI111946892
aS'-'
asS'AP000907.4'
p3376
(lp3377
I112036627
aI112036863
aS'-'
asS'AP000580.1'
p3378
(lp3379
I77813319
aI77813676
aS'-'
asS'BACE1'
p3380
(lp3381
I117285207
aI117316256
aS'-'
asS'OR8H2'
p3382
(lp3383
I56105018
aI56106055
aS'+'
asS'OR8H3'
p3384
(lp3385
I56122373
aI56123311
aS'+'
asS'AC021006.3'
p3386
(lp3387
I41660030
aI41660221
aS'+'
asS'DDX10'
p3388
(lp3389
I108665025
aI108940930
aS'+'
asS'AC021006.1'
p3390
(lp3391
I41538434
aI41538986
aS'+'
asS'SLC35F2'
p3392
(lp3393
I107790991
aI107928293
aS'-'
asS'DKK3'
p3394
(lp3395
I11963106
aI12009370
aS'-'
asS'AC104383.1'
p3396
(lp3397
I11856490
aI11856859
aS'-'
asS'AP002370.1'
p3398
(lp3399
I83789977
aI83791578
aS'-'
asS'PRCP'
p3400
(lp3401
I82849914
aI82970584
aS'-'
asS'TRMT112'
p3402
(lp3403
I64316691
aI64318084
aS'-'
asS'DDIAS'
p3404
(lp3405
I82901698
aI82958277
aS'+'
asS'ORAOV1'
p3406
(lp3407
I69653076
aI69675344
aS'-'
asS'HPS5'
p3408
(lp3409
I18278668
aI18322174
aS'-'
asS'REXO2'
p3410
(lp3411
I114439386
aI114450279
aS'+'
asS'PKP3'
p3412
(lp3413
I394217
aI404908
aS'+'
asS'OR5BC1P'
p3414
(lp3415
I58317637
aI58318375
aS'-'
asS'NUDT22'
p3416
(lp3417
I64226268
aI64230219
aS'+'
asS'AC104389.3'
p3418
(lp3419
I5362615
aI5362849
aS'+'
asS'AC104389.2'
p3420
(lp3421
I5354692
aI5355578
aS'+'
asS'CCDC15'
p3422
(lp3423
I124954121
aI125041489
aS'+'
asS'AC021269.2'
p3424
(lp3425
I13488612
aI13489390
aS'+'
asS'MTRNR2L8'
p3426
(lp3427
I10507887
aI10509189
aS'-'
asS'ZNF705E'
p3428
(lp3429
I71814045
aI71821548
aS'-'
asS'AP001258.2'
p3430
(lp3431
I59142121
aI59142610
aS'-'
asS'MRVI1'
p3432
(lp3433
I10573091
aI10693988
aS'-'
asS'EXT2'
p3434
(lp3435
I44095549
aI44244932
aS'+'
asS'OR51P1P'
p3436
(lp3437
I5015138
aI5016079
aS'+'
asS'HIGD1AP10'
p3438
(lp3439
I65145691
aI65145972
aS'-'
asS'SCGB1C1'
p3440
(lp3441
I193080
aI194573
aS'+'
asS'KIRREL3'
p3442
(lp3443
I126423359
aI127000759
aS'-'
asS'AP003122.5'
p3444
(lp3445
I89731017
aI89734782
aS'+'
asS'HTATIP2'
p3446
(lp3447
I20363743
aI20383782
aS'+'
asS'GNG3'
p3448
(lp3449
I62707658
aI62709201
aS'+'
asS'AP004242.1'
p3450
(lp3451
I93535468
aI93535816
aS'+'
asS'OSBP'
p3452
(lp3453
I59574398
aI59616144
aS'-'
asS'TYR'
p3454
(lp3455
I89177452
aI89295759
aS'+'
asS'ALG8'
p3456
(lp3457
I78100942
aI78139660
aS'-'
asS'ALG9'
p3458
(lp3459
I111786284
aI111871581
aS'-'
asS'CYB5R2'
p3460
(lp3461
I7665104
aI7674208
aS'-'
asS'MTND1P36'
p3462
(lp3463
I103407441
aI103408376
aS'-'
asS'RPL27A'
p3464
(lp3465
I8689130
aI8714759
aS'+'
asS'VSIG2'
p3466
(lp3467
I124747472
aI124752238
aS'-'
asS'SPON1'
p3468
(lp3469
I13962689
aI14267884
aS'+'
asS'OR4A49P'
p3470
(lp3471
I49915013
aI49915644
aS'-'
asS'SLC29A2'
p3472
(lp3473
I66362523
aI66372214
aS'-'
asS'KCTD9P4'
p3474
(lp3475
I112180773
aI112183191
aS'+'
asS'AP003170.5'
p3476
(lp3477
I113769660
aI113769994
aS'+'
asS'AP003170.2'
p3478
(lp3479
I113789242
aI113790027
aS'+'
asS'AP003170.1'
p3480
(lp3481
I113820856
aI113821885
aS'-'
asS'YPEL4'
p3482
(lp3483
I57645088
aI57649944
aS'-'
asS'TIRAP'
p3484
(lp3485
I126283087
aI126294933
aS'+'
asS'NCAM1'
p3486
(lp3487
I112961247
aI113278411
aS'+'
asS'C11orf58'
p3488
(lp3489
I16613132
aI16748421
aS'+'
asS'JAML'
p3490
(lp3491
I118193740
aI118225094
aS'-'
asS'C11orf52'
p3492
(lp3493
I111918877
aI111926872
aS'+'
asS'C11orf57'
p3494
(lp3495
I112074287
aI112085150
aS'+'
asS'SLC17A6'
p3496
(lp3497
I22338097
aI22379503
aS'+'
asS'C11orf54'
p3498
(lp3499
I93741591
aI93764749
aS'+'
asS'AP001880.1'
p3500
(lp3501
I63265836
aI63266256
aS'-'
asS'AP001880.2'
p3502
(lp3503
I63237957
aI63239114
aS'-'
asS'JAM3'
p3504
(lp3505
I134068925
aI134152001
aS'+'
asS'OR8B9P'
p3506
(lp3507
I124480999
aI124481923
aS'-'
asS'RAG2'
p3508
(lp3509
I36575574
aI36598232
aS'-'
asS'RAG1'
p3510
(lp3511
I36515464
aI36593156
aS'+'
asS'OR6A2'
p3512
(lp3513
I6794627
aI6795783
aS'-'
asS'AP000769.1'
p3514
(lp3515
I65455313
aI65466720
aS'+'
asS'OR52Y1P'
p3516
(lp3517
I4793778
aI4795284
aS'-'
asS'PCNX3'
p3518
(lp3519
I65615773
aI65637439
aS'+'
asS'PAAF1'
p3520
(lp3521
I73876969
aI73931124
aS'+'
asS'RNASEH2C'
p3522
(lp3523
I65714896
aI65720483
aS'-'
asS'OR4R1P'
p3524
(lp3525
I48486363
aI48486825
aS'-'
asS'TRIM49B'
p3526
(lp3527
I49027501
aI49038451
aS'+'
asS'TRIM49C'
p3528
(lp3529
I90031106
aI90042025
aS'+'
asS'AP000859.1'
p3530
(lp3531
I134316782
aI134317088
aS'-'
asS'PIWIL4'
p3532
(lp3533
I94545286
aI94621421
aS'+'
asS'OR5AK3P'
p3534
(lp3535
I56970850
aI56972146
aS'+'
asS'PANX1'
p3536
(lp3537
I94128928
aI94181972
aS'+'
asS'PANX3'
p3538
(lp3539
I124611490
aI124620356
aS'+'
asS'SLC25A1P1'
p3540
(lp3541
I85934737
aI85935663
aS'+'
asS'KIAA1549L'
p3542
(lp3543
I33542275
aI33674102
aS'+'
asS'PTGDR2'
p3544
(lp3545
I60850940
aI60855971
aS'-'
asS'OR7E11P'
p3546
(lp3547
I67735608
aI67736559
aS'-'
asS'ZBTB16'
p3548
(lp3549
I114059593
aI114250676
aS'+'
asS'AP000811.1'
p3550
(lp3551
I87323709
aI87324359
aS'-'
asS'SPDYC'
p3552
(lp3553
I65170154
aI65173244
aS'+'
asS'CST6'
p3554
(lp3555
I66011841
aI66013505
aS'+'
asS'RRAS2'
p3556
(lp3557
I14277926
aI14364506
aS'-'
asS'OR8H1'
p3558
(lp3559
I56290053
aI56291090
aS'-'
asS'ASCL2'
p3560
(lp3561
I2268495
aI2270952
aS'-'
asS'ASCL3'
p3562
(lp3563
I8937579
aI8938211
aS'-'
asS'RAB1B'
p3564
(lp3565
I66268533
aI66277492
aS'+'
asS'TRIM68'
p3566
(lp3567
I4598672
aI4608259
aS'-'
asS'MUC5AC'
p3568
(lp3569
I1157953
aI1201138
aS'+'
asS'OR5E1P'
p3570
(lp3571
I7848700
aI7849626
aS'+'
asS'TRIM64'
p3572
(lp3573
I89968502
aI89975228
aS'+'
asS'TRIM66'
p3574
(lp3575
I8612037
aI8671866
aS'-'
asS'NAT10'
p3576
(lp3577
I34105602
aI34146910
aS'+'
asS'AP000866.4'
p3578
(lp3579
I124807822
aI124808269
aS'-'
asS'AC110057.1'
p3580
(lp3581
I50018798
aI50019695
aS'+'
asS'AP001486.3'
p3582
(lp3583
I102963460
aI102966628
aS'-'
asS'AP001486.1'
p3584
(lp3585
I103045237
aI103045712
aS'+'
asS'RPEP6'
p3586
(lp3587
I72131282
aI72131907
aS'+'
asS'OMP'
p3588
(lp3589
I77102840
aI77103331
aS'+'
asS'OR4C5'
p3590
(lp3591
I48365485
aI48366465
aS'-'
asS'OR4C6'
p3592
(lp3593
I55665167
aI55666096
aS'+'
asS'OR5BN1P'
p3594
(lp3595
I56132666
aI56133494
aS'-'
asS'PHBP2'
p3596
(lp3597
I43733759
aI43734564
aS'+'
asS'OR4C3'
p3598
(lp3599
I48325352
aI48328471
aS'+'
asS'NEU3'
p3600
(lp3601
I74988698
aI75018893
aS'+'
asS'AC010768.3'
p3602
(lp3603
I44539778
aI44540693
aS'-'
asS'AP002004.1'
p3604
(lp3605
I104901553
aI104918175
aS'-'
asS'USP2'
p3606
(lp3607
I119355216
aI119381726
aS'-'
asS'AP002004.2'
p3608
(lp3609
I104873264
aI104873417
aS'+'
asS'AP000920.1'
p3610
(lp3611
I128880325
aI128880668
aS'-'
asS'NLRP14'
p3612
(lp3613
I7020446
aI7071308
aS'+'
asS'NLRP10'
p3614
(lp3615
I7959424
aI7963657
aS'-'
asS'VSTM5'
p3616
(lp3617
I93818232
aI93850531
aS'-'
asS'OR52D1'
p3618
(lp3619
I5488685
aI5489749
aS'+'
asS'SOX6'
p3620
(lp3621
I15966449
aI16476388
aS'-'
asS'THAP12P4'
p3622
(lp3623
I23478068
aI23480430
aS'+'
asS'ARAP1'
p3624
(lp3625
I72685069
aI72793599
aS'-'
asS'TNNI2'
p3626
(lp3627
I1838989
aI1841678
aS'+'
asS'KDM4F'
p3628
(lp3629
I95049422
aI95051338
aS'+'
asS'KDM4E'
p3630
(lp3631
I95025258
aI95027596
aS'+'
asS'KDM4D'
p3632
(lp3633
I94973681
aI94999518
aS'+'
asS'MED19'
p3634
(lp3635
I57703714
aI57712323
aS'-'
asS'AP001264.1'
p3636
(lp3637
I95057282
aI95057984
aS'+'
asS'CRACR2B'
p3638
(lp3639
I827578
aI831986
aS'+'
asS'NPM1P35'
p3640
(lp3641
I62330946
aI62331813
aS'+'
asS'INTS5'
p3642
(lp3643
I62646848
aI62653302
aS'-'
asS'INTS4'
p3644
(lp3645
I77878720
aI77994678
aS'-'
asS'TPP1'
p3646
(lp3647
I6612763
aI6619461
aS'-'
asS'OR51E1'
p3648
(lp3649
I4643420
aI4655488
aS'+'
asS'SLN'
p3650
(lp3651
I107707378
aI107719693
aS'-'
asS'OR5M7P'
p3652
(lp3653
I56500300
aI56501271
aS'-'
asS'AP002383.5'
p3654
(lp3655
I95040411
aI95041571
aS'+'
asS'AP002383.4'
p3656
(lp3657
I95038372
aI95039811
aS'+'
asS'AP002383.6'
p3658
(lp3659
I95030549
aI95031245
aS'+'
asS'AP002383.1'
p3660
(lp3661
I94913047
aI94913766
aS'+'
asS'AP002383.2'
p3662
(lp3663
I95011858
aI95012532
aS'+'
asS'FAM181B'
p3664
(lp3665
I82729941
aI82733864
aS'-'
asS'OR52H2P'
p3666
(lp3667
I5551662
aI5552563
aS'-'
asS'AP003122.3'
p3668
(lp3669
I89764884
aI89765138
aS'+'
asS'AP001981.1'
p3670
(lp3671
I109907004
aI109907741
aS'-'
asS'AP001981.2'
p3672
(lp3673
I109985243
aI109985660
aS'-'
asS'AP002381.1'
p3674
(lp3675
I72940498
aI72941112
aS'+'
asS'AP003122.4'
p3676
(lp3677
I89723482
aI89727253
aS'-'
asS'AP000926.2'
p3678
(lp3679
I123035867
aI123036224
aS'+'
asS'AP000926.3'
p3680
(lp3681
I123049787
aI123050353
aS'-'
asS'AP000926.1'
p3682
(lp3683
I123051161
aI123051401
aS'+'
asS'AP000926.4'
p3684
(lp3685
I123135923
aI123136376
aS'-'
asS'AP001372.4'
p3686
(lp3687
I74485580
aI74486051
aS'-'
asS'TSPAN18'
p3688
(lp3689
I44727112
aI44931332
aS'+'
asS'AC027369.5'
p3690
(lp3691
I48907103
aI48908946
aS'+'
asS'AC027369.4'
p3692
(lp3693
I48893256
aI48898703
aS'+'
asS'AC027369.3'
p3694
(lp3695
I48881723
aI48902181
aS'-'
asS'TM7SF2'
p3696
(lp3697
I65111878
aI65116384
aS'+'
asS'AC027369.1'
p3698
(lp3699
I49010179
aI49015894
aS'-'
asS'AP006587.3'
p3700
(lp3701
I49892262
aI49893777
aS'-'
asS'AP006587.2'
p3702
(lp3703
I49882999
aI49884093
aS'+'
asS'AP006587.1'
p3704
(lp3705
I49850629
aI49862528
aS'+'
asS'APOC3'
p3706
(lp3707
I116829892
aI116833072
aS'+'
asS'AP006587.5'
p3708
(lp3709
I49854080
aI49859402
aS'-'
asS'AP006587.4'
p3710
(lp3711
I49871826
aI49874067
aS'-'
asS'OR5D15P'
p3712
(lp3713
I55786964
aI55787905
aS'+'
asS'DUXAP5'
p3714
(lp3715
I119444991
aI119445519
aS'-'
asS'SYT12'
p3716
(lp3717
I67006778
aI67050863
aS'+'
asS'OR8G5'
p3718
(lp3719
I124264827
aI124265867
aS'+'
asS'EML3'
p3720
(lp3721
I62602218
aI62612765
aS'-'
asS'ZC3H12C'
p3722
(lp3723
I110093361
aI110171841
aS'+'
asS'OR8G1'
p3724
(lp3725
I124249676
aI124250611
aS'+'
asS'NXPE1'
p3726
(lp3727
I114521715
aI114559858
aS'-'
asS'NXPE2'
p3728
(lp3729
I114678386
aI114706933
aS'+'
asS'OR52R1'
p3730
(lp3731
I4803433
aI4804380
aS'-'
asS'NXPE4'
p3732
(lp3733
I114570591
aI114595750
aS'-'
asS'AP000857.1'
p3734
(lp3735
I84997226
aI84997768
aS'-'
asS'MYRF'
p3736
(lp3737
I61752649
aI61788518
aS'+'
asS'OR52S1P'
p3738
(lp3739
I5076130
aI5077066
aS'-'
asS'OR10D4P'
p3740
(lp3741
I124093582
aI124094532
aS'-'
asS'C1QBPP2'
p3742
(lp3743
I66761575
aI66762399
aS'-'
asS'NARS2'
p3744
(lp3745
I78435961
aI78574864
aS'-'
asS'SLC25A22'
p3746
(lp3747
I790475
aI798333
aS'-'
asS'BCAS2P1'
p3748
(lp3749
I83132056
aI83134737
aS'+'
asS'OR5BE1P'
p3750
(lp3751
I56082801
aI56083739
aS'+'
asS'OR6M2P'
p3752
(lp3753
I123841006
aI123841876
aS'-'
asS'COPB1'
p3754
(lp3755
I14457506
aI14499852
aS'-'
asS'IFT46'
p3756
(lp3757
I118544528
aI118566076
aS'-'
asS'TRIM64DP'
p3758
(lp3759
I89776981
aI89782377
aS'+'
asS'KDELC2'
p3760
(lp3761
I108472105
aI108498432
aS'-'
asS'TRIM49D1'
p3762
(lp3763
I89911111
aI89921767
aS'-'
asS'OR5M11'
p3764
(lp3765
I56542340
aI56543257
aS'-'
asS'TRIM49D2'
p3766
(lp3767
I89924064
aI89933063
aS'+'
asS'CCKBR'
p3768
(lp3769
I6259736
aI6272127
aS'+'
asS'SDHAF2'
p3770
(lp3771
I61430073
aI61447529
aS'+'
asS'MAML2'
p3772
(lp3773
I95976598
aI96343180
aS'-'
asS'TSGA10IP'
p3774
(lp3775
I65945445
aI65959963
aS'+'
asS'PC'
p3776
(lp3777
I66848525
aI66958376
aS'-'
asS'OR7E87P'
p3778
(lp3779
I71593454
aI71594382
aS'+'
asS'TRPM5'
p3780
(lp3781
I2404515
aI2423045
aS'-'
asS'AP001931.1'
p3782
(lp3783
I57742163
aI57793243
aS'+'
asS'OR5L1'
p3784
(lp3785
I55811367
aI55812476
aS'+'
asS'TRIM64C'
p3786
(lp3787
I49053714
aI49059112
aS'-'
asS'TRIM64B'
p3788
(lp3789
I89869282
aI89876017
aS'-'
asS'OR52V1P'
p3790
(lp3791
I5527277
aI5528174
aS'-'
asS'AP003733.2'
p3792
(lp3793
I62072882
aI62073052
aS'-'
asS'AP003733.1'
p3794
(lp3795
I62011751
aI62012602
aS'-'
asS'DEUP1'
p3796
(lp3797
I93330602
aI93438487
aS'+'
asS'SMTNL1'
p3798
(lp3799
I57542641
aI57550274
aS'+'
asS'VWA5A'
p3800
(lp3801
I124115362
aI124147721
aS'+'
asS'OTOG'
p3802
(lp3803
I17547373
aI17647150
aS'+'
asS'STK33'
p3804
(lp3805
I8391871
aI8594228
aS'-'
asS'C11orf68'
p3806
(lp3807
I65916808
aI65919117
aS'-'
asS'SLCO2B1'
p3808
(lp3809
I75100563
aI75188233
aS'+'
asS'C11orf65'
p3810
(lp3811
I108308519
aI108467531
aS'-'
asS'C11orf63'
p3812
(lp3813
I122882528
aI122959721
aS'+'
asS'ACCSL'
p3814
(lp3815
I44047981
aI44059977
aS'+'
asS'OR52B3P'
p3816
(lp3817
I4378282
aI4379209
aS'+'
asS'CD5'
p3818
(lp3819
I61102395
aI61127852
aS'+'
asS'CD6'
p3820
(lp3821
I60971680
aI61020377
aS'+'
asS'SERPING1'
p3822
(lp3823
I57597518
aI57614853
aS'+'
asS'CEP164'
p3824
(lp3825
I117327855
aI117413268
aS'+'
asS'SNX15'
p3826
(lp3827
I65027408
aI65040572
aS'+'
asS'OR51A5P'
p3828
(lp3829
I4972943
aI4973884
aS'-'
asS'AC024341.1'
p3830
(lp3831
I26045987
aI26047598
aS'+'
asS'CD81'
p3832
(lp3833
I2377294
aI2397419
aS'+'
asS'CD82'
p3834
(lp3835
I44565591
aI44620363
aS'+'
asS'SNX19'
p3836
(lp3837
I130875436
aI130916509
aS'-'
asS'AP001273.2'
p3838
(lp3839
I93741664
aI93812378
aS'+'
asS'FOSL1'
p3840
(lp3841
I65892049
aI65900419
aS'-'
asS'MARK2'
p3842
(lp3843
I63838928
aI63911019
aS'+'
asS'AP003497.1'
p3844
(lp3845
I87480736
aI87481297
aS'-'
asS'ZBED5'
p3846
(lp3847
I10812074
aI10856218
aS'-'
asS'MMP3'
p3848
(lp3849
I102835801
aI102843803
aS'-'
asS'LRTOMT'
p3850
(lp3851
I72080331
aI72110777
aS'+'
asS'AC113192.3'
p3852
(lp3853
I33787054
aI33787795
aS'-'
asS'OR51M1'
p3854
(lp3855
I5389399
aI5390379
aS'+'
asS'OR4A12P'
p3856
(lp3857
I55325756
aI55326673
aS'+'
asS'OR4A46P'
p3858
(lp3859
I48496348
aI48497280
aS'+'
asS'MTND4LP18'
p3860
(lp3861
I81552226
aI81552516
aS'+'
asS'LRP4'
p3862
(lp3863
I46856868
aI46918622
aS'-'
asS'LRP5'
p3864
(lp3865
I68312609
aI68449275
aS'+'
asS'GALNT18'
p3866
(lp3867
I11270876
aI11622005
aS'-'
asS'AC139143.1'
p3868
(lp3869
I1802889
aI1804095
aS'-'
asS'ACAD8'
p3870
(lp3871
I134253495
aI134265855
aS'+'
asS'AP002802.2'
p3872
(lp3873
I81842435
aI81842669
aS'-'
asS'TRIM77'
p3874
(lp3875
I89710299
aI89717872
aS'+'
asS'STIM1'
p3876
(lp3877
I3855703
aI4093210
aS'+'
asS'PPP2R1B'
p3878
(lp3879
I111726908
aI111766382
aS'-'
asS'MAP4K2'
p3880
(lp3881
I64784914
aI64803241
aS'-'
asS'AP005597.5'
p3882
(lp3883
I55267408
aI55267636
aS'+'
asS'AP005597.4'
p3884
(lp3885
I55279447
aI55284749
aS'-'
asS'AC136759.1'
p3886
(lp3887
I49558546
aI49810417
aS'+'
asS'ATP5F1P5'
p3888
(lp3889
I122960327
aI122961086
aS'+'
asS'OR4A16'
p3890
(lp3891
I55343201
aI55344187
aS'+'
asS'OR4A15'
p3892
(lp3893
I55367884
aI55368918
aS'+'
asS'ZPR1'
p3894
(lp3895
I116773799
aI116788050
aS'-'
asS'MAP6'
p3896
(lp3897
I75586918
aI75669120
aS'-'
asS'AP000787.2'
p3898
(lp3899
I95145437
aI95146004
aS'+'
asS'BCL9L'
p3900
(lp3901
I118897746
aI118925608
aS'-'
asS'TEAD1'
p3902
(lp3903
I12675503
aI12939065
aS'+'
asS'AL139174.1'
p3904
(lp3905
I34335118
aI34336003
aS'-'
asS'FAM180B'
p3906
(lp3907
I47586693
aI47589194
aS'+'
asS'AP000781.2'
p3908
(lp3909
I57387365
aI57424059
aS'-'
asS'NDUFA3P2'
p3910
(lp3911
I68488609
aI68488840
aS'-'
asS'AC103710.1'
p3912
(lp3913
I4736178
aI4737078
aS'-'
asS'GAL'
p3914
(lp3915
I68684475
aI68691175
aS'+'
asS'AC068733.2'
p3916
(lp3917
I6297189
aI6298606
aS'-'
asS'LARGE2'
p3918
(lp3919
I45921621
aI45929096
aS'+'
asS'ACY3'
p3920
(lp3921
I67642555
aI67650659
aS'-'
asS'OR4B1'
p3922
(lp3923
I48216792
aI48217762
aS'+'
asS'OR52E6'
p3924
(lp3925
I5840956
aI5841952
aS'-'
asS'OR52E5'
p3926
(lp3927
I5900777
aI5902090
aS'+'
asS'OR52E4'
p3928
(lp3929
I5884271
aI5885300
aS'+'
asS'ESRRA'
p3930
(lp3931
I64305572
aI64316738
aS'+'
asS'OR52E2'
p3932
(lp3933
I5058650
aI5059627
aS'-'
asS'NRGN'
p3934
(lp3935
I124739846
aI124747210
aS'+'
asS'OR5AK4P'
p3936
(lp3937
I57037534
aI57038436
aS'+'
asS'CLDN25'
p3938
(lp3939
I113779747
aI113780500
aS'+'
asS'OR52E8'
p3940
(lp3941
I5856674
aI5857734
aS'-'
asS'OR4P4'
p3942
(lp3943
I55638358
aI55639296
aS'+'
asS'AC011979.2'
p3944
(lp3945
I9631008
aI9631359
aS'-'
asS'AC011979.1'
p3946
(lp3947
I9660438
aI9660920
aS'+'
asS'OR8U1'
p3948
(lp3949
I56375624
aI56376553
aS'+'
asS'OR7E12P'
p3950
(lp3951
I3390780
aI3391752
aS'-'
asS'RAB30'
p3952
(lp3953
I82973133
aI83071866
aS'-'
asS'NUP160'
p3954
(lp3955
I47778087
aI47848467
aS'-'
asS'ABCC8'
p3956
(lp3957
I17392885
aI17476845
aS'-'
asS'CKAP5'
p3958
(lp3959
I46743048
aI46846229
aS'-'
asS'OR10D5P'
p3960
(lp3961
I124054793
aI124055707
aS'+'
asS'KCNE3'
p3962
(lp3963
I74454841
aI74467628
aS'-'
asS'FAM160A2'
p3964
(lp3965
I6211345
aI6234711
aS'-'
asS'AC111188.2'
p3966
(lp3967
I11135482
aI11137658
aS'+'
asS'DHCR7'
p3968
(lp3969
I71434414
aI71448435
aS'-'
asS'CASP12'
p3970
(lp3971
I104885718
aI104898670
aS'-'
asS'LDLRAD3'
p3972
(lp3973
I35944078
aI36232136
aS'+'
asS'AC018523.1'
p3974
(lp3975
I14440787
aI14441677
aS'+'
asS'APLP2'
p3976
(lp3977
I130069906
aI130144811
aS'+'
asS'OR8G7P'
p3978
(lp3979
I124238420
aI124239486
aS'+'
asS'AP003040.1'
p3980
(lp3981
I123017638
aI123018661
aS'+'
asS'OR8C1P'
p3982
(lp3983
I124376877
aI124377801
aS'-'
asS'ZDHHC20P3'
p3984
(lp3985
I75228322
aI75228657
aS'-'
asS'NAV2'
p3986
(lp3987
I19350724
aI20121598
aS'+'
asS'GAPDHP70'
p3988
(lp3989
I88408179
aI88409223
aS'-'
asS'CYCSP29'
p3990
(lp3991
I108822333
aI108822650
aS'-'
asS'CYCSP28'
p3992
(lp3993
I83328926
aI83329246
aS'+'
asS'CYCSP27'
p3994
(lp3995
I74482250
aI74482542
aS'+'
asS'CYCSP26'
p3996
(lp3997
I58005386
aI58005705
aS'+'
asS'CYCSP25'
p3998
(lp3999
I31280672
aI31280987
aS'-'
asS'EHBP1L1'
p4000
(lp4001
I65576038
aI65592650
aS'+'
asS'UBTFL10'
p4002
(lp4003
I89700764
aI89701325
aS'+'
asS'TRIM51HP'
p4004
(lp4005
I55291883
aI55298270
aS'-'
asS'TSPAN4'
p4006
(lp4007
I842808
aI867111
aS'+'
asS'CSNK2A3'
p4008
(lp4009
I11351942
aI11353357
aS'-'
asS'TREH'
p4010
(lp4011
I118657316
aI118679673
aS'-'
asS'KCTD14'
p4012
(lp4013
I78016593
aI78046191
aS'-'
asS'SCGB2A1'
p4014
(lp4015
I62208668
aI62213939
aS'+'
asS'AC100771.1'
p4016
(lp4017
I27483850
aI27484128
aS'+'
asS'SCGB2A2'
p4018
(lp4019
I62270155
aI62273156
aS'+'
asS'HBG2'
p4020
(lp4021
I5253190
aI5645789
aS'-'
asS'HBG1'
p4022
(lp4023
I5248083
aI5249892
aS'-'
asS'RPL12P46'
p4024
(lp4025
I115578049
aI115578243
aS'+'
asS'RPS3'
p4026
(lp4027
I75399531
aI75422280
aS'+'
asS'AP000484.1'
p4028
(lp4029
I63469376
aI63470944
aS'+'
asS'AC123788.2'
p4030
(lp4031
I3335125
aI3335407
aS'-'
asS'TOMM20P1'
p4032
(lp4033
I77313606
aI77314032
aS'+'
asS'KRT8P7'
p4034
(lp4035
I119602875
aI119604306
aS'-'
asS'HSP90AA2P'
p4036
(lp4037
I27888838
aI27891033
aS'-'
asS'UBE2L6'
p4038
(lp4039
I57551656
aI57568284
aS'-'
asS'OR56A5'
p4040
(lp4041
I5967177
aI5968290
aS'-'
asS'OR56A4'
p4042
(lp4043
I6001986
aI6003194
aS'-'
asS'OR56A3'
p4044
(lp4045
I5947340
aI5948361
aS'+'
asS'OR56A1'
p4046
(lp4047
I6026671
aI6027741
aS'-'
asS'EED'
p4048
(lp4049
I86244544
aI86278736
aS'+'
asS'OR8B1P'
p4050
(lp4051
I124365634
aI124366551
aS'-'
asS'PDHX'
p4052
(lp4053
I34916130
aI34996122
aS'+'
asS'AP002490.2'
p4054
(lp4055
I71938671
aI71939544
aS'-'
asS'PPME1'
p4056
(lp4057
I74171099
aI74254703
aS'+'
asS'BET1L'
p4058
(lp4059
I167784
aI207383
aS'-'
asS'DDX18P5'
p4060
(lp4061
I130295641
aI130296946
aS'+'
asS'AP000860.1'
p4062
(lp4063
I73640479
aI73641037
aS'+'
asS'WNT11'
p4064
(lp4065
I76186325
aI76206532
aS'-'
asS'DENND5A'
p4066
(lp4067
I9138825
aI9265390
aS'-'
asS'AC023078.6'
p4068
(lp4069
I18870989
aI18873462
aS'-'
asS'AC023078.7'
p4070
(lp4071
I18910436
aI18911396
aS'-'
asS'STT3A'
p4072
(lp4073
I125592795
aI125623091
aS'+'
asS'SCGB1A1'
p4074
(lp4075
I62405103
aI62423195
aS'+'
asS'AC023078.2'
p4076
(lp4077
I18886933
aI18887920
aS'-'
asS'AC023078.3'
p4078
(lp4079
I18971746
aI18972703
aS'-'
asS'AC023078.1'
p4080
(lp4081
I18863558
aI18864509
aS'-'
asS'SPTY2D1'
p4082
(lp4083
I18606401
aI18634493
aS'-'
asS'TSPAN32'
p4084
(lp4085
I2302009
aI2318200
aS'+'
asS'FAM111B'
p4086
(lp4087
I59107185
aI59127410
aS'+'
asS'FAM111A'
p4088
(lp4089
I59142748
aI59155039
aS'+'
asS'GATD1'
p4090
(lp4091
I767225
aI777488
aS'-'
asS'OR5M8'
p4092
(lp4093
I56490435
aI56491370
aS'-'
asS'OR5M9'
p4094
(lp4095
I56462469
aI56463401
aS'-'
asS'CFL1'
p4096
(lp4097
I65823022
aI65858157
aS'-'
asS'EHD1'
p4098
(lp4099
I64851642
aI64878719
aS'-'
asS'OR5M3'
p4100
(lp4101
I56469574
aI56470497
aS'-'
asS'OR5M1'
p4102
(lp4103
I56612555
aI56613502
aS'-'
asS'TMEM86A'
p4104
(lp4105
I18693122
aI18701728
aS'+'
asS'SORL1'
p4106
(lp4107
I121452203
aI121633693
aS'+'
asS'LGALS12'
p4108
(lp4109
I63506084
aI63516767
aS'+'
asS'OR5AL2P'
p4110
(lp4111
I56393729
aI56394648
aS'+'
asS'OR6Q1'
p4112
(lp4113
I58030930
aI58031931
aS'+'
asS'IGSF22'
p4114
(lp4115
I18704312
aI18726230
aS'-'
asS'PACS1'
p4116
(lp4117
I66070454
aI66244747
aS'+'
asS'C11orf71'
p4118
(lp4119
I114391443
aI114400417
aS'-'
asS'C11orf70'
p4120
(lp4121
I102047443
aI102084560
aS'+'
asS'POLD3'
p4122
(lp4123
I74493851
aI74618594
aS'+'
asS'POLD4'
p4124
(lp4125
I67351548
aI67356972
aS'-'
asS'C11orf74'
p4126
(lp4127
I36594493
aI36659290
aS'+'
asS'DOC2GP'
p4128
(lp4129
I67612837
aI67616257
aS'-'
asS'AP000866.3'
p4130
(lp4131
I124791228
aI124791660
aS'+'
asS'TSKU'
p4132
(lp4133
I76782313
aI76798153
aS'+'
asS'HNRNPRP2'
p4134
(lp4135
I29668886
aI29669628
aS'-'
asS'HNRNPKP3'
p4136
(lp4137
I43120762
aI43269393
aS'-'
asS'AC118273.2'
p4138
(lp4139
I49110756
aI49111220
aS'+'
asS'MAPK8IP1'
p4140
(lp4141
I45885651
aI45906465
aS'+'
asS'VPS26B'
p4142
(lp4143
I134224645
aI134247792
aS'+'
asS'HSPB2-C11orf52'
p4144
(lp4145
I111912742
aI111926871
aS'+'
asS'BUD13P1'
p4146
(lp4147
I95143637
aI95145125
aS'+'
asS'TRIM64EP'
p4148
(lp4149
I90057605
aI90062999
aS'-'
asS'RAB39A'
p4150
(lp4151
I107928503
aI107963482
aS'+'
asS'SSRP1'
p4152
(lp4153
I57325985
aI57335877
aS'-'
asS'CD59'
p4154
(lp4155
I33708700
aI33736439
aS'-'
asS'CRYAB'
p4156
(lp4157
I111908623
aI111923722
aS'-'
asS'SSU72P6'
p4158
(lp4159
I4278705
aI4279192
aS'+'
asS'OR51L1'
p4160
(lp4161
I4998983
aI4999930
aS'+'
asS'RPS25'
p4162
(lp4163
I119015712
aI119018690
aS'-'
asS'OR4A50P'
p4164
(lp4165
I55475943
aI55476428
aS'+'
asS'OR5M2P'
p4166
(lp4167
I56479492
aI56480427
aS'-'
asS'ELF5'
p4168
(lp4169
I34478793
aI34513800
aS'-'
asS'KRTAP5-14P'
p4170
(lp4171
I71579728
aI71579848
aS'-'
asS'TAF6L'
p4172
(lp4173
I62771303
aI62787342
aS'+'
asS'FSHB'
p4174
(lp4175
I30231016
aI30235261
aS'+'
asS'OR4D7P'
p4176
(lp4177
I59531754
aI59532695
aS'+'
asS'OR7E13P'
p4178
(lp4179
I86832540
aI86833449
aS'-'
asS'RAB38'
p4180
(lp4181
I88113242
aI88175467
aS'-'
asS'LDHA'
p4182
(lp4183
I18394388
aI18408425
aS'+'
asS'MTA2'
p4184
(lp4185
I62593214
aI62601840
aS'-'
asS'LDHC'
p4186
(lp4187
I18412307
aI18452058
aS'+'
asS'PDGFD'
p4188
(lp4189
I103907189
aI104164379
aS'-'
asS'AC099730.1'
p4190
(lp4191
I21283779
aI21284955
aS'+'
asS'AP002345.1'
p4192
(lp4193
I58365836
aI58366763
aS'-'
asS'OR10Y1P'
p4194
(lp4195
I59728519
aI59729492
aS'+'
asS'PPP1R10P1'
p4196
(lp4197
I130789231
aI130791025
aS'-'
asS'LUZP2'
p4198
(lp4199
I24497211
aI25082604
aS'+'
asS'OR4A21P'
p4200
(lp4201
I55491152
aI55492142
aS'+'
asS'AASDHPPT'
p4202
(lp4203
I106077489
aI106098710
aS'+'
asS'NDUFA5P1'
p4204
(lp4205
I3321862
aI3322202
aS'+'
asS'AC118273.1'
p4206
(lp4207
I49098163
aI49101168
aS'-'
asS'BBS1'
p4208
(lp4209
I66510609
aI66533627
aS'+'
asS'NDUFA5P8'
p4210
(lp4211
I3276045
aI3276390
aS'+'
asS'OR4A8'
p4212
(lp4213
I54682877
aI54683821
aS'+'
asS'OR4A5'
p4214
(lp4215
I54706885
aI54707832
aS'+'
asS'SERPINH1'
p4216
(lp4217
I75562056
aI75572783
aS'+'
asS'FOLR1'
p4218
(lp4219
I72189558
aI72196323
aS'+'
asS'FOLR2'
p4220
(lp4221
I72216601
aI72221950
aS'+'
asS'FOLR3'
p4222
(lp4223
I72114869
aI72139628
aS'+'
as.