(dp1
S'RANGRF'
p2
(lp3
I8288497
aI8290092
aS'+'
asS'KRTAP1-1'
p4
(lp5
I41040559
aI41041461
aS'-'
asS'NCBP3'
p6
(lp7
I3802165
aI3846251
aS'-'
asS'AC025518.2'
p8
(lp9
I8560471
aI8560962
aS'+'
asS'AC025518.1'
p10
(lp11
I8561230
aI8561576
aS'+'
asS'PROCA1'
p12
(lp13
I28703197
aI28711854
aS'-'
asS'GTF2IP6'
p14
(lp15
I27019527
aI27047934
aS'-'
asS'AC027763.1'
p16
(lp17
I6927472
aI6928191
aS'-'
asS'LRRC37A16P'
p18
(lp19
I68125777
aI68152468
aS'-'
asS'COPRS'
p20
(lp21
I31851864
aI31859337
aS'-'
asS'AC127537.2'
p22
(lp23
I18312760
aI18313533
aS'+'
asS'AC127537.1'
p24
(lp25
I18311904
aI18312651
aS'+'
asS'ZSWIM7'
p26
(lp27
I15976560
aI15999694
aS'-'
asS'RNF112'
p28
(lp29
I19411194
aI19417276
aS'+'
asS'MEIS3P1'
p30
(lp31
I15786618
aI15787575
aS'+'
asS'DHX8'
p32
(lp33
I43483963
aI43526786
aS'+'
asS'NSRP1'
p34
(lp35
I30115521
aI30185847
aS'+'
asS'AC079325.1'
p36
(lp37
I74549399
aI74552737
aS'-'
asS'SP2'
p38
(lp39
I47896150
aI47928957
aS'+'
asS'SP6'
p40
(lp41
I47844908
aI47855874
aS'-'
asS'RAB40B'
p42
(lp43
I82654973
aI82698728
aS'-'
asS'PTRH2'
p44
(lp45
I59674636
aI59707415
aS'-'
asS'TRAPPC1'
p46
(lp47
I7930345
aI7931999
aS'-'
asS'AC006600.1'
p48
(lp49
I56368063
aI56368215
aS'+'
asS'ACLY'
p50
(lp51
I41866931
aI41919019
aS'-'
asS'SPPL2C'
p52
(lp53
I45844835
aI45847072
aS'+'
asS'AC134669.2'
p54
(lp55
I31305213
aI31318831
aS'-'
asS'AC104982.1'
p56
(lp57
I29855759
aI29856332
aS'+'
asS'AC104982.3'
p58
(lp59
I29972514
aI29973027
aS'+'
asS'ATP2A3'
p60
(lp61
I3923870
aI3964464
aS'-'
asS'ALDH3A2'
p62
(lp63
I19648526
aI19677596
aS'+'
asS'ITGA3'
p64
(lp65
I50056068
aI50090480
aS'+'
asS'MFSD11'
p66
(lp67
I76735865
aI76778817
aS'+'
asS'AC073508.2'
p68
(lp69
I40628797
aI40665141
aS'-'
asS'AC073508.1'
p70
(lp71
I40687038
aI40689360
aS'-'
asS'ZNF29P'
p72
(lp73
I15675476
aI15675643
aS'+'
asS'RPS7P11'
p74
(lp75
I46721582
aI46722167
aS'-'
asS'WSB1'
p76
(lp77
I27294080
aI27315926
aS'+'
asS'KSR1'
p78
(lp79
I27472010
aI27626438
aS'+'
asS'GHDC'
p80
(lp81
I42188799
aI42194459
aS'-'
asS'SDK2'
p82
(lp83
I73334384
aI73644089
aS'-'
asS'AC003688.1'
p84
(lp85
I7246829
aI7262089
aS'-'
asS'GRAPL'
p86
(lp87
I19127469
aI19159176
aS'+'
asS'GRN'
p88
(lp89
I44345086
aI44353102
aS'+'
asS'AC069366.1'
p90
(lp91
I27526386
aI27527223
aS'-'
asS'KCNH4'
p92
(lp93
I42156895
aI42181278
aS'-'
asS'KCNH6'
p94
(lp95
I63523334
aI63548977
aS'+'
asS'ATAD5'
p96
(lp97
I30831970
aI30895869
aS'+'
asS'TP53I13'
p98
(lp99
I29567180
aI29571702
aS'+'
asS'NOG'
p100
(lp101
I56593699
aI56595590
aS'+'
asS'PSMD11'
p102
(lp103
I32444261
aI32483318
aS'+'
asS'PSMD12'
p104
(lp105
I67337916
aI67366627
aS'-'
asS'MRPS21P9'
p106
(lp107
I50450179
aI50450725
aS'-'
asS'GIT1'
p108
(lp109
I29573469
aI29589627
aS'-'
asS'AC004448.2'
p110
(lp111
I19496943
aI19497528
aS'+'
asS'HLF'
p112
(lp113
I55265012
aI55325065
aS'+'
asS'AC015802.2'
p114
(lp115
I76595584
aI76595772
aS'-'
asS'ITGAE'
p116
(lp117
I3714628
aI3801243
aS'-'
asS'AC015802.6'
p118
(lp119
I76563710
aI76570544
aS'-'
asS'METTL2A'
p120
(lp121
I62423891
aI62450822
aS'+'
asS'MAGOH2P'
p122
(lp123
I10716076
aI10716511
aS'-'
asS'NDUFAF8'
p124
(lp125
I81239239
aI81241281
aS'+'
asS'AC069061.4'
p126
(lp127
I27082690
aI27084036
aS'-'
asS'AC015911.8'
p128
(lp129
I35470069
aI35470628
aS'-'
asS'AC069061.1'
p130
(lp131
I26981694
aI26982090
aS'+'
asS'AC015911.4'
p132
(lp133
I35459481
aI35460550
aS'-'
asS'AC015911.7'
p134
(lp135
I35498218
aI35499175
aS'+'
asS'AC015911.1'
p136
(lp137
I35566517
aI35566672
aS'+'
asS'PRKAR1A'
p138
(lp139
I68515400
aI68551319
aS'+'
asS'AC129492.3'
p140
(lp141
I8150816
aI8162975
aS'-'
asS'LINC00674'
p142
(lp143
I68101908
aI68114527
aS'+'
asS'LINC00675'
p144
(lp145
I10794913
aI10804099
aS'-'
asS'LINC00672'
p146
(lp147
I38925168
aI38929384
aS'+'
asS'AC129492.6'
p148
(lp149
I8063936
aI8072533
aS'+'
asS'AC129492.5'
p150
(lp151
I8199123
aI8199437
aS'-'
asS'PIPOX'
p152
(lp153
I28950513
aI29056683
aS'+'
asS'FAM20A'
p154
(lp155
I68536871
aI68601389
aS'-'
asS'DCAKD'
p156
(lp157
I45023346
aI45061109
aS'-'
asS'METTL23'
p158
(lp159
I76726843
aI76733936
aS'+'
asS'AC015818.1'
p160
(lp161
I20554137
aI20554380
aS'+'
asS'AC015818.3'
p162
(lp163
I20555427
aI20559410
aS'-'
asS'AC015818.5'
p164
(lp165
I20542974
aI20544123
aS'-'
asS'AC015818.7'
p166
(lp167
I20526102
aI20526210
aS'+'
asS'AC015818.6'
p168
(lp169
I20532248
aI20532881
aS'-'
asS'SPHK1'
p170
(lp171
I76376661
aI76387860
aS'+'
asS'CUEDC1'
p172
(lp173
I57861243
aI57955323
aS'-'
asS'MED31'
p174
(lp175
I6643315
aI6651634
aS'-'
asS'SPNS3'
p176
(lp177
I4433688
aI4488208
aS'+'
asS'SPNS2'
p178
(lp179
I4498838
aI4539035
aS'+'
asS'ARL16'
p180
(lp181
I81681174
aI81683924
aS'-'
asS'FBXO36P1'
p182
(lp183
I68095068
aI68095757
aS'+'
asS'ARHGEF15'
p184
(lp185
I8310283
aI8322516
aS'+'
asS'AC244100.1'
p186
(lp187
I35963488
aI35965472
aS'-'
asS'WDR45B'
p188
(lp189
I82614562
aI82648535
aS'-'
asS'UBTF'
p190
(lp191
I44205033
aI44221626
aS'-'
asS'GFAP'
p192
(lp193
I44903161
aI44916539
aS'-'
asS'HEXDC'
p194
(lp195
I82418318
aI82442645
aS'+'
asS'DHRS7B'
p196
(lp197
I21126652
aI21192030
aS'+'
asS'DHRS7C'
p198
(lp199
I9771434
aI9791297
aS'-'
asS'CA10'
p200
(lp201
I51630313
aI52160017
aS'-'
asS'AC007923.3'
p202
(lp203
I31709568
aI31709859
aS'+'
asS'AC007923.2'
p204
(lp205
I31759795
aI31761385
aS'+'
asS'ANKFY1'
p206
(lp207
I4163907
aI4263977
aS'-'
asS'CALCOCO2'
p208
(lp209
I48830988
aI48865245
aS'+'
asS'AC026254.1'
p210
(lp211
I27280482
aI27280912
aS'+'
asS'AC243654.2'
p212
(lp213
I37454171
aI37454931
aS'+'
asS'TRIM16'
p214
(lp215
I15627960
aI15684300
aS'-'
asS'PRPF8'
p216
(lp217
I1650629
aI1684882
aS'-'
asS'AC005324.6'
p218
(lp219
I15748703
aI15749315
aS'-'
asS'AC005324.4'
p220
(lp221
I15699741
aI15744778
aS'+'
asS'AC005324.3'
p222
(lp223
I15571491
aI15651653
aS'-'
asS'AC100832.1'
p224
(lp225
I58897776
aI58899692
aS'+'
asS'PLEKHH3'
p226
(lp227
I42667944
aI42676994
aS'-'
asS'SLC47A2'
p228
(lp229
I19678315
aI19718979
aS'-'
asS'SLC47A1'
p230
(lp231
I19495385
aI19555309
aS'+'
asS'PIP4K2B'
p232
(lp233
I38765689
aI38799905
aS'-'
asS'AC098850.1'
p234
(lp235
I16683438
aI16684227
aS'+'
asS'AC026954.2'
p236
(lp237
I7312661
aI7319174
aS'-'
asS'AC098850.4'
p238
(lp239
I16690261
aI16804453
aS'+'
asS'AC026954.1'
p240
(lp241
I7330452
aI7335413
aS'+'
asS'OR3A5P'
p242
(lp243
I3311193
aI3311892
aS'+'
asS'AC007993.1'
p244
(lp245
I43922775
aI43927388
aS'-'
asS'MRPL38'
p246
(lp247
I75898643
aI75905413
aS'-'
asS'RHBDL3'
p248
(lp249
I32266176
aI32324661
aS'+'
asS'OR1P1'
p250
(lp251
I3153889
aI3154882
aS'-'
asS'FAM106CP'
p252
(lp253
I16788901
aI16789407
aS'+'
asS'CD300C'
p254
(lp255
I74541108
aI74546143
aS'-'
asS'CD300A'
p256
(lp257
I74466416
aI74484796
aS'+'
asS'STRADA'
p258
(lp259
I63682336
aI63741845
aS'-'
asS'CD300E'
p260
(lp261
I74609887
aI74623738
aS'-'
asS'RECQL5'
p262
(lp263
I75626854
aI75667189
aS'-'
asS'TEN1-CDK3'
p264
(lp265
I75979231
aI76005998
aS'+'
asS'MBTD1'
p266
(lp267
I51177425
aI51260066
aS'-'
asS'MSL1'
p268
(lp269
I40122298
aI40136916
aS'+'
asS'COPS3'
p270
(lp271
I17246836
aI17281293
aS'-'
asS'NUP85'
p272
(lp273
I75205691
aI75235758
aS'+'
asS'DHX40P1'
p274
(lp275
I59976009
aI60002384
aS'-'
asS'MED1'
p276
(lp277
I39404285
aI39451268
aS'-'
asS'ZNF594'
p278
(lp279
I5180078
aI5191883
aS'-'
asS'AC005726.1'
p280
(lp281
I28655557
aI28655983
aS'+'
asS'C17orf64'
p282
(lp283
I60392429
aI60425871
aS'+'
asS'MED9'
p284
(lp285
I17476986
aI17493226
aS'+'
asS'GAST'
p286
(lp287
I41712326
aI41715969
aS'+'
asS'CEP95'
p288
(lp289
I64506588
aI64537942
aS'+'
asS'KRTAP9-10P'
p290
(lp291
I41280604
aI41280810
aS'+'
asS'AC005722.1'
p292
(lp293
I19755244
aI19756207
aS'+'
asS'AC005702.2'
p294
(lp295
I59940908
aI59973101
aS'+'
asS'AC005702.3'
p296
(lp297
I60063004
aI60064782
aS'-'
asS'C17orf67'
p298
(lp299
I56791913
aI56833896
aS'-'
asS'AC090287.1'
p300
(lp301
I28021668
aI28022265
aS'-'
asS'AC005702.4'
p302
(lp303
I60025859
aI60030746
aS'+'
asS'KIF19'
p304
(lp305
I74326212
aI74355820
aS'+'
asS'AC053481.5'
p306
(lp307
I62272487
aI62282915
aS'-'
asS'AC053481.4'
p308
(lp309
I62260634
aI62261936
aS'+'
asS'CAMTA2'
p310
(lp311
I4967998
aI4987652
aS'-'
asS'VEZF1'
p312
(lp313
I57973759
aI57988152
aS'-'
asS'AC053481.3'
p314
(lp315
I62231470
aI62247153
aS'-'
asS'AC053481.2'
p316
(lp317
I62282387
aI62297026
aS'-'
asS'NLK'
p318
(lp319
I28042156
aI28196381
aS'+'
asS'PPP1R9B'
p320
(lp321
I50133735
aI50150630
aS'-'
asS'TNS4'
p322
(lp323
I40475828
aI40501597
aS'-'
asS'IGFBP4'
p324
(lp325
I40443461
aI40457731
aS'+'
asS'TK1'
p326
(lp327
I78174075
aI78187233
aS'-'
asS'AC037487.3'
p328
(lp329
I64951498
aI64951609
aS'-'
asS'AC005244.1'
p330
(lp331
I12115547
aI12115885
aS'+'
asS'AC022916.3'
p332
(lp333
I35190961
aI35191702
aS'+'
asS'DHX40'
p334
(lp335
I59565525
aI59608345
aS'+'
asS'PFN1'
p336
(lp337
I4945652
aI4949014
aS'-'
asS'SHISA6'
p338
(lp339
I11241263
aI11564063
aS'+'
asS'H3F3BP2'
p340
(lp341
I28416922
aI28417492
aS'+'
asS'NXPH3'
p342
(lp343
I49576122
aI49582290
aS'+'
asS'COX11'
p344
(lp345
I54951902
aI54968653
aS'-'
asS'FBXL20'
p346
(lp347
I39252644
aI39401663
aS'-'
asS'GAS7'
p348
(lp349
I9913850
aI10198551
aS'-'
asS'TMC6'
p350
(lp351
I78112921
aI78132407
aS'-'
asS'ARGFXP2'
p352
(lp353
I32150433
aI32151504
aS'-'
asS'ANKRD13B'
p354
(lp355
I29589783
aI29614761
aS'+'
asS'AC025198.1'
p356
(lp357
I73067870
aI73068288
aS'-'
asS'TEX14'
p358
(lp359
I58556678
aI58692055
aS'-'
asS'PIGW'
p360
(lp361
I36535042
aI36538854
aS'+'
asS'TMC8'
p362
(lp363
I78130786
aI78142968
aS'+'
asS'CD300LG'
p364
(lp365
I43847176
aI43863629
aS'+'
asS'CD300LF'
p366
(lp367
I74694317
aI74712978
aS'-'
asS'CD300LD'
p368
(lp369
I74579365
aI74592283
aS'-'
asS'CD300LB'
p370
(lp371
I74521174
aI74531466
aS'-'
asS'AC132942.1'
p372
(lp373
I3665220
aI3665702
aS'+'
asS'LRRC3C'
p374
(lp375
I39941474
aI39944747
aS'+'
asS'UBL5P2'
p376
(lp377
I32227890
aI32228108
aS'-'
asS'CDRT15P1'
p378
(lp379
I14024514
aI14025488
aS'+'
asS'CDRT15P2'
p380
(lp381
I15764703
aI15765664
aS'+'
asS'ITGA2B'
p382
(lp383
I44372183
aI44389505
aS'-'
asS'RPS6KB1'
p384
(lp385
I59893164
aI59950564
aS'+'
asS'CYB5D2'
p386
(lp387
I4143702
aI4187310
aS'+'
asS'UTP18'
p388
(lp389
I51260528
aI51297933
aS'+'
asS'AC067852.3'
p390
(lp391
I42648178
aI42648738
aS'+'
asS'ALDH3A1'
p392
(lp393
I19737984
aI19748433
aS'-'
asS'NLGN2'
p394
(lp395
I7404874
aI7418684
aS'+'
asS'AC067852.4'
p396
(lp397
I42533532
aI42534009
aS'+'
asS'AC067852.5'
p398
(lp399
I42647834
aI42648143
aS'+'
asS'KRTAP2-3'
p400
(lp401
I41059240
aI41060114
aS'-'
asS'KRTAP2-2'
p402
(lp403
I41054498
aI41055230
aS'-'
asS'KRTAP2-1'
p404
(lp405
I41046541
aI41047316
aS'-'
asS'AC087163.2'
p406
(lp407
I18010643
aI18011822
aS'+'
asS'AC005972.2'
p408
(lp409
I62978494
aI62978841
aS'-'
asS'KRTAP2-4'
p410
(lp411
I41065116
aI41065879
aS'-'
asS'ASGR1'
p412
(lp413
I7173431
aI7179564
aS'-'
asS'ASGR2'
p414
(lp415
I7101322
aI7114823
aS'-'
asS'TSEN54'
p416
(lp417
I75516525
aI75524739
aS'+'
asS'LRRC37A9P'
p418
(lp419
I35912635
aI35918010
aS'-'
asS'FAM117A'
p420
(lp421
I49710995
aI49788592
aS'-'
asS'ALOX12P2'
p422
(lp423
I6899914
aI6954107
aS'+'
asS'VMP1'
p424
(lp425
I59707465
aI59841092
aS'+'
asS'DCXR'
p426
(lp427
I82035858
aI82037732
aS'-'
asS'MTND2P12'
p428
(lp429
I19603797
aI19605048
aS'+'
asS'RPS4XP17'
p430
(lp431
I656794
aI657547
aS'-'
asS'NR1D1'
p432
(lp433
I40092787
aI40100725
aS'-'
asS'AXIN2'
p434
(lp435
I65528563
aI65561647
aS'-'
asS'AC127029.1'
p436
(lp437
I63900643
aI63900879
aS'+'
asS'CCT6B'
p438
(lp439
I34942559
aI34981078
aS'-'
asS'RAC3'
p440
(lp441
I82031624
aI82034202
aS'+'
asS'AC005181.1'
p442
(lp443
I71011997
aI71013587
aS'+'
asS'NLE1'
p444
(lp445
I35128753
aI35142284
aS'-'
asS'PPP1R1B'
p446
(lp447
I39626924
aI39636626
aS'+'
asS'CYTH1'
p448
(lp449
I78674048
aI78782297
aS'-'
asS'GCGR'
p450
(lp451
I81804134
aI81814013
aS'+'
asS'AC011591.2'
p452
(lp453
I68691809
aI68716064
aS'-'
asS'DPH1'
p454
(lp455
I2030110
aI2043430
aS'+'
asS'SLC16A3'
p456
(lp457
I82237170
aI82261129
aS'+'
asS'CEP131'
p458
(lp459
I81189596
aI81222999
aS'-'
asS'SLC16A5'
p460
(lp461
I75087727
aI75106162
aS'+'
asS'SLC16A6'
p462
(lp463
I68267026
aI68291116
aS'-'
asS'TUBG1'
p464
(lp465
I42609676
aI42615234
aS'+'
asS'CDRT15L2'
p466
(lp467
I20579724
aI20580911
aS'+'
asS'DCAF7'
p468
(lp469
I63550461
aI63594266
aS'+'
asS'TRMT112P3'
p470
(lp471
I62950831
aI62951188
aS'-'
asS'CANT1'
p472
(lp473
I78991717
aI79009817
aS'-'
asS'WIPF2'
p474
(lp475
I40219322
aI40284136
aS'+'
asS'DYNLL2'
p476
(lp477
I58083415
aI58095536
aS'+'
asS'OR3A4P'
p478
(lp479
I3310312
aI3311189
aS'+'
asS'CDR2L'
p480
(lp481
I74987632
aI75005800
aS'+'
asS'KRT18P61'
p482
(lp483
I60810165
aI60811462
aS'+'
asS'GPS1'
p484
(lp485
I82051865
aI82057470
aS'+'
asS'GPS2'
p486
(lp487
I7311324
aI7315123
aS'-'
asS'GSDMA'
p488
(lp489
I39953263
aI39977218
aS'+'
asS'GSDMB'
p490
(lp491
I39904596
aI39919854
aS'-'
asS'AC005670.2'
p492
(lp493
I46923160
aI47049932
aS'+'
asS'THRA'
p494
(lp495
I40062193
aI40093613
aS'+'
asS'NOS2P1'
p496
(lp497
I27651334
aI27665712
aS'-'
asS'NOS2P2'
p498
(lp499
I18497095
aI18506313
aS'-'
asS'NOS2P3'
p500
(lp501
I20436337
aI20447249
aS'+'
asS'NOS2P4'
p502
(lp503
I16812447
aI16812651
aS'+'
asS'FLCN'
p504
(lp505
I17212212
aI17237139
aS'-'
asS'AC104564.1'
p506
(lp507
I29716279
aI29716685
aS'-'
asS'TRIM25'
p508
(lp509
I56887909
aI56914038
aS'-'
asS'PER1'
p510
(lp511
I8144056
aI8156506
aS'-'
asS'COIL'
p512
(lp513
I56938187
aI56961054
aS'-'
asS'AC138645.1'
p514
(lp515
I46503946
aI46509339
aS'+'
asS'ORMDL3'
p516
(lp517
I39921041
aI39927601
aS'-'
asS'RPL32P33'
p518
(lp519
I72627231
aI72627624
aS'+'
asS'KAT7'
p520
(lp521
I49788555
aI49835030
aS'+'
asS'LGALS9DP'
p522
(lp523
I27746132
aI27754954
aS'+'
asS'GALR2'
p524
(lp525
I76074794
aI76077541
aS'+'
asS'TTC19'
p526
(lp527
I15999380
aI16028912
aS'+'
asS'MRPL27'
p528
(lp529
I50367867
aI50373214
aS'-'
asS'KAT2A'
p530
(lp531
I42113108
aI42121358
aS'-'
asS'NPTX1'
p532
(lp533
I80467148
aI80476604
aS'-'
asS'PPM1E'
p534
(lp535
I58755869
aI58985176
aS'+'
asS'PPM1D'
p536
(lp537
I60600183
aI60666280
aS'+'
asS'SRSF1'
p538
(lp539
I58003360
aI58007261
aS'-'
asS'SRSF2'
p540
(lp541
I76734119
aI76737374
aS'-'
asS'USP43'
p542
(lp543
I9644698
aI9729101
aS'+'
asS'RNF135'
p544
(lp545
I30970201
aI30999911
aS'+'
asS'AATF'
p546
(lp547
I36948875
aI37056871
aS'+'
asS'GID4'
p548
(lp549
I18039292
aI18068404
aS'+'
asS'CISD3'
p550
(lp551
I38730235
aI38735021
aS'+'
asS'PRAC2'
p552
(lp553
I48723168
aI48724758
aS'+'
asS'PRAC1'
p554
(lp555
I48721719
aI48722522
aS'-'
asS'SCRN2'
p556
(lp557
I47837700
aI47841333
aS'-'
asS'AC055872.1'
p558
(lp559
I6417685
aI6418264
aS'+'
asS'SUMO2P17'
p560
(lp561
I48874860
aI48908983
aS'-'
asS'AC090844.1'
p562
(lp563
I39839369
aI39839524
aS'-'
asS'SUZ12P1'
p564
(lp565
I30709299
aI30770034
aS'+'
asS'CAMKK1'
p566
(lp567
I3860315
aI3893044
aS'-'
asS'MYO1D'
p568
(lp569
I32492522
aI32877177
aS'-'
asS'MYO1C'
p570
(lp571
I1464098
aI1492812
aS'-'
asS'LRRC37A2'
p572
(lp573
I46511511
aI46555650
aS'+'
asS'LRRC37A3'
p574
(lp575
I64854312
aI64919468
aS'-'
asS'CD79B'
p576
(lp577
I63928740
aI63932354
aS'-'
asS'MEOX1'
p578
(lp579
I43640388
aI43661954
aS'-'
asS'ADPRM'
p580
(lp581
I10697594
aI10711233
aS'+'
asS'SLC52A1'
p582
(lp583
I5032603
aI5052009
aS'-'
asS'CNTD1'
p584
(lp585
I42798792
aI42810635
aS'+'
asS'DHX58'
p586
(lp587
I42101404
aI42112733
aS'-'
asS'ZNF385C'
p588
(lp589
I42026897
aI42098479
aS'-'
asS'AC005517.2'
p590
(lp591
I15443639
aI15444191
aS'+'
asS'AC090617.3'
p592
(lp593
I2127430
aI2127904
aS'-'
asS'AC005517.1'
p594
(lp595
I15506866
aI15507354
aS'+'
asS'AC233699.1'
p596
(lp597
I36274191
aI36320547
aS'+'
asS'FBXO47'
p598
(lp599
I38936432
aI38967402
aS'-'
asS'SRR'
p600
(lp601
I2303704
aI2325260
aS'+'
asS'LGALS9'
p602
(lp603
I27629798
aI27649560
aS'+'
asS'AC233723.1'
p604
(lp605
I4801159
aI4807013
aS'-'
asS'AC104763.3'
p606
(lp607
I60256720
aI60258411
aS'+'
asS'RAP1GAP2'
p608
(lp609
I2755705
aI3034207
aS'+'
asS'FSCN2'
p610
(lp611
I81528396
aI81537130
aS'+'
asS'TCAP'
p612
(lp613
I39664187
aI39666555
aS'+'
asS'KCNJ2'
p614
(lp615
I70169535
aI70180048
aS'+'
asS'RPL12P37'
p616
(lp617
I80976454
aI80976948
aS'+'
asS'RPL12P38'
p618
(lp619
I60433678
aI60435996
aS'-'
asS'MYO19'
p620
(lp621
I36495640
aI36535457
aS'-'
asS'COL1A1'
p622
(lp623
I50183289
aI50201632
aS'-'
asS'MYOCD'
p624
(lp625
I12665989
aI12768949
aS'+'
asS'KRTAP9-11P'
p626
(lp627
I41271311
aI41271835
aS'+'
asS'SMCR8'
p628
(lp629
I18315310
aI18328055
aS'+'
asS'MPDU1'
p630
(lp631
I7583853
aI7592789
aS'+'
asS'PEX12'
p632
(lp633
I35574796
aI35578637
aS'-'
asS'AC110602.1'
p634
(lp635
I60727165
aI60727482
aS'-'
asS'AC008158.1'
p636
(lp637
I62136972
aI62140639
aS'-'
asS'RPL27'
p638
(lp639
I42998273
aI43002949
aS'+'
asS'RPL26'
p640
(lp641
I8377520
aI8383193
aS'-'
asS'TAC4'
p642
(lp643
I49838309
aI49848017
aS'-'
asS'RPL23'
p644
(lp645
I38847867
aI38853843
aS'-'
asS'SLC16A11'
p646
(lp647
I7041630
aI7043923
aS'-'
asS'SLC16A13'
p648
(lp649
I7036075
aI7040121
aS'+'
asS'KRT23'
p650
(lp651
I40922700
aI40937584
aS'-'
asS'RGS9'
p652
(lp653
I65100986
aI65227690
aS'+'
asS'AC004448.1'
p654
(lp655
I19445970
aI19446852
aS'-'
asS'PIGL'
p656
(lp657
I16217209
aI16348801
aS'+'
asS'PIGS'
p658
(lp659
I28553387
aI28571872
aS'-'
asS'WRAP53'
p660
(lp661
I7686071
aI7703502
aS'+'
asS'TMEM199'
p662
(lp663
I28357581
aI28363683
aS'+'
asS'TAX1BP3'
p664
(lp665
I3662896
aI3668679
aS'-'
asS'E2F3P1'
p666
(lp667
I35490009
aI35491238
aS'+'
asS'EMC6'
p668
(lp669
I3668815
aI3669665
aS'+'
asS'PDK2'
p670
(lp671
I50095275
aI50112152
aS'+'
asS'WBP2'
p672
(lp673
I75845720
aI75856507
aS'-'
asS'MAFG'
p674
(lp675
I81918270
aI81927714
aS'-'
asS'AC090699.1'
p676
(lp677
I76345761
aI76346081
aS'+'
asS'SLC39A11'
p678
(lp679
I72645949
aI73092693
aS'-'
asS'ARHGAP23'
p680
(lp681
I38428418
aI38512392
aS'+'
asS'ARHGAP27'
p682
(lp683
I45393909
aI45432349
aS'-'
asS'HMGN2P15'
p684
(lp685
I42753530
aI42753799
aS'-'
asS'CPDP1'
p686
(lp687
I27677805
aI27678087
aS'-'
asS'MRPS7'
p688
(lp689
I75261674
aI75266373
aS'+'
asS'CCR10'
p690
(lp691
I42679726
aI42683917
aS'-'
asS'IFI35'
p692
(lp693
I43006725
aI43014456
aS'+'
asS'AC135178.2'
p694
(lp695
I8368638
aI8383187
aS'-'
asS'AC135178.6'
p696
(lp697
I8296505
aI8297216
aS'-'
asS'NKIRAS2'
p698
(lp699
I42011382
aI42022444
aS'+'
asS'SOCS7'
p700
(lp701
I38352245
aI38405593
aS'+'
asS'SOCS3'
p702
(lp703
I78356778
aI78360077
aS'-'
asS'AC132825.1'
p704
(lp705
I22527324
aI22529570
aS'+'
asS'GRB2'
p706
(lp707
I75318076
aI75405709
aS'-'
asS'AC132825.5'
p708
(lp709
I22519195
aI22519504
aS'-'
asS'AC132825.4'
p710
(lp711
I22435390
aI22439033
aS'+'
asS'GRB7'
p712
(lp713
I39737927
aI39747284
aS'+'
asS'AC132825.6'
p714
(lp715
I22532166
aI22532522
aS'+'
asS'AC132825.8'
p716
(lp717
I22531876
aI22532172
aS'+'
asS'CCL3L1'
p718
(lp719
I36194869
aI36196758
aS'-'
asS'MARCH10'
p720
(lp721
I62701315
aI62808344
aS'-'
asS'RNFT1P3'
p722
(lp723
I20743333
aI20754501
aS'-'
asS'TRIM37'
p724
(lp725
I58982651
aI59106921
aS'-'
asS'SLC47A1P1'
p726
(lp727
I19579943
aI19596058
aS'+'
asS'G6PC3'
p728
(lp729
I44070735
aI44076304
aS'+'
asS'VMO1'
p730
(lp731
I4785285
aI4786433
aS'-'
asS'DBIL5P'
p732
(lp733
I752660
aI755336
aS'+'
asS'AC011193.2'
p734
(lp735
I34331862
aI34332228
aS'-'
asS'RSAD1'
p736
(lp737
I50478800
aI50485975
aS'+'
asS'CHD3'
p738
(lp739
I7884806
aI7912760
aS'+'
asS'CYGB'
p740
(lp741
I76528534
aI76551175
aS'-'
asS'MTCO3P13'
p742
(lp743
I22530612
aI22531392
aS'+'
asS'ABHD15'
p744
(lp745
I29560547
aI29567137
aS'-'
asS'MNT'
p746
(lp747
I2384060
aI2401118
aS'-'
asS'AC002553.3'
p748
(lp749
I16044621
aI16044961
aS'+'
asS'FN3K'
p750
(lp751
I82735575
aI82751197
aS'+'
asS'MRPL10'
p752
(lp753
I47823272
aI47831517
aS'-'
asS'MTCYBP13'
p754
(lp755
I22519617
aI22520709
aS'+'
asS'MRPL12'
p756
(lp757
I81703357
aI81707526
aS'+'
asS'AC132825.7'
p758
(lp759
I22531463
aI22531797
aS'+'
asS'RNF43'
p760
(lp761
I58352500
aI58417352
aS'-'
asS'POLR2A'
p762
(lp763
I7484366
aI7514616
aS'+'
asS'TMEM102'
p764
(lp765
I7435443
aI7437679
aS'+'
asS'AC127024.1'
p766
(lp767
I30830901
aI30831318
aS'+'
asS'PLSCR3'
p768
(lp769
I7389727
aI7394842
aS'-'
asS'TLK2'
p770
(lp771
I62458658
aI62613664
aS'+'
asS'MPO'
p772
(lp773
I58269856
aI58280935
aS'-'
asS'CASKIN2'
p774
(lp775
I75500261
aI75515583
aS'-'
asS'AC087650.1'
p776
(lp777
I43476198
aI43476665
aS'+'
asS'SOST'
p778
(lp779
I43753731
aI43758788
aS'-'
asS'NMTRQ-TTG12-1'
p780
(lp781
I19603274
aI19603345
aS'-'
asS'KRTAP2-5P'
p782
(lp783
I41071946
aI41072341
aS'+'
asS'NCOR1'
p784
(lp785
I16029157
aI16215549
aS'-'
asS'FZD2'
p786
(lp787
I44557459
aI44559570
aS'+'
asS'OGFOD3'
p788
(lp789
I82389223
aI82418637
aS'-'
asS'ZNF624'
p790
(lp791
I16620737
aI16653853
aS'-'
asS'IL6STP1'
p792
(lp793
I15783288
aI15784307
aS'+'
asS'CACNB1'
p794
(lp795
I39173456
aI39197703
aS'-'
asS'NEURL4'
p796
(lp797
I7315628
aI7329328
aS'-'
asS'AC107982.1'
p798
(lp799
I18835707
aI18842364
aS'+'
asS'AC244154.1'
p800
(lp801
I38195740
aI38257152
aS'-'
asS'GGA3'
p802
(lp803
I75236599
aI75261804
aS'-'
asS'PLCD3'
p804
(lp805
I45108967
aI45132498
aS'-'
asS'NDUFB4P3'
p806
(lp807
I19840126
aI19840515
aS'+'
asS'RETREG3'
p808
(lp809
I42579515
aI42609384
aS'-'
asS'TMEM235'
p810
(lp811
I78231310
aI78240987
aS'+'
asS'PSMB6'
p812
(lp813
I4796144
aI4798503
aS'+'
asS'PSMB3'
p814
(lp815
I38752736
aI38764231
aS'+'
asS'AC055813.1'
p816
(lp817
I43718314
aI43720436
aS'-'
asS'P2RX1'
p818
(lp819
I3896592
aI3916500
aS'-'
asS'P2RX5'
p820
(lp821
I3672199
aI3696096
aS'-'
asS'CORO6'
p822
(lp823
I29614762
aI29622899
aS'-'
asS'AC069061.3'
p824
(lp825
I27057399
aI27058221
aS'+'
asS'AC103810.4'
p826
(lp827
I64936485
aI64940229
aS'-'
asS'AC103810.7'
p828
(lp829
I64881091
aI64881181
aS'+'
asS'AC103810.6'
p830
(lp831
I64905883
aI64906018
aS'-'
asS'AC103810.1'
p832
(lp833
I64930149
aI64934203
aS'+'
asS'SETP3'
p834
(lp835
I58476138
aI58476950
aS'-'
asS'TMIGD1'
p836
(lp837
I30316333
aI30334059
aS'-'
asS'AC103810.9'
p838
(lp839
I64940606
aI64940717
aS'+'
asS'AC103810.8'
p840
(lp841
I64892728
aI64892845
aS'+'
asS'HIGD1B'
p842
(lp843
I44846353
aI44850476
aS'+'
asS'TRAF4'
p844
(lp845
I28743984
aI28750958
aS'+'
asS'TVP23C'
p846
(lp847
I15502264
aI15563544
aS'-'
asS'TVP23B'
p848
(lp849
I18780995
aI18806714
aS'+'
asS'EVI2A'
p850
(lp851
I31317560
aI31321884
aS'-'
asS'SEBOX'
p852
(lp853
I28364268
aI28365244
aS'-'
asS'EVI2B'
p854
(lp855
I31303766
aI31314112
aS'-'
asS'FOXN1'
p856
(lp857
I28506260
aI28537436
aS'+'
asS'RPS26P8'
p858
(lp859
I45608571
aI45608918
aS'+'
asS'RPL38'
p860
(lp861
I74203653
aI74210655
aS'+'
asS'AC055839.1'
p862
(lp863
I5512040
aI5512537
aS'-'
asS'GRIN2C'
p864
(lp865
I74842023
aI74859875
aS'-'
asS'GNA13'
p866
(lp867
I65010715
aI65056839
aS'-'
asS'MIEF2'
p868
(lp869
I18260534
aI18266552
aS'+'
asS'ZNF286A'
p870
(lp871
I15699577
aI15720782
aS'+'
asS'ZNF286B'
p872
(lp873
I18658429
aI18682259
aS'-'
asS'TRIM16L'
p874
(lp875
I18698010
aI18736118
aS'+'
asS'SUMO2'
p876
(lp877
I75165586
aI75182983
aS'-'
asS'CDRT4'
p878
(lp879
I15438158
aI15503608
aS'-'
asS'MTND1P15'
p880
(lp881
I22524738
aI22525686
aS'+'
asS'CDRT1'
p882
(lp883
I15565484
aI15619512
aS'-'
asS'ACE3P'
p884
(lp885
I63507056
aI63519806
aS'+'
asS'SAMD14'
p886
(lp887
I50110040
aI50129822
aS'-'
asS'SMG6'
p888
(lp889
I2059843
aI2303771
aS'-'
asS'SDF2'
p890
(lp891
I28648356
aI28662175
aS'-'
asS'SMG8'
p892
(lp893
I59209400
aI59215239
aS'+'
asS'METTL16'
p894
(lp895
I2416058
aI2511891
aS'-'
asS'CEP112'
p896
(lp897
I65635538
aI66192079
aS'-'
asS'OSBPL7'
p898
(lp899
I47807373
aI47821834
aS'-'
asS'CXCL16'
p900
(lp901
I4733526
aI4739819
aS'-'
asS'AKAP1'
p902
(lp903
I57085190
aI57121349
aS'+'
asS'RAB11FIP4'
p904
(lp905
I31391624
aI31538217
aS'+'
asS'TEX2'
p906
(lp907
I64147227
aI64263227
aS'-'
asS'RPS7P1'
p908
(lp909
I28467822
aI28468406
aS'+'
asS'STARD3'
p910
(lp911
I39637065
aI39663484
aS'+'
asS'YBX2'
p912
(lp913
I7288263
aI7294589
aS'-'
asS'AC087498.3'
p914
(lp915
I3377527
aI3377602
aS'-'
asS'AC087498.1'
p916
(lp917
I3385930
aI3386833
aS'+'
asS'TMEM132E'
p918
(lp919
I34580749
aI34639318
aS'+'
asS'KRT17P3'
p920
(lp921
I30567700
aI30571748
aS'-'
asS'TEN1'
p922
(lp923
I75979220
aI76000586
aS'+'
asS'KRT17P1'
p924
(lp925
I16840743
aI16845883
aS'-'
asS'KRT17P6'
p926
(lp927
I20512560
aI20517479
aS'-'
asS'KRT17P7'
p928
(lp929
I20519312
aI20528687
aS'-'
asS'KRT17P4'
p930
(lp931
I16847635
aI16852776
aS'-'
asS'KRT17P5'
p932
(lp933
I18415728
aI18425095
aS'+'
asS'DUS1L'
p934
(lp935
I82057506
aI82065639
aS'-'
asS'AC008026.1'
p936
(lp937
I62516321
aI62516767
aS'-'
asS'AC008026.2'
p938
(lp939
I62381668
aI62382015
aS'+'
asS'FAM106DP'
p940
(lp941
I60173322
aI60173822
aS'+'
asS'TBC1D27'
p942
(lp943
I16922915
aI16934839
aS'-'
asS'H3F3B'
p944
(lp945
I75778576
aI75785486
aS'-'
asS'CCL23'
p946
(lp947
I36013058
aI36017968
aS'-'
asS'TBC1D28'
p948
(lp949
I18638861
aI18661950
aS'-'
asS'HOXB8'
p950
(lp951
I48612346
aI48614939
aS'-'
asS'HOXB9'
p952
(lp953
I48621159
aI48626356
aS'-'
asS'GUCY2D'
p954
(lp955
I8002594
aI8020339
aS'+'
asS'AC123769.1'
p956
(lp957
I34036681
aI34039872
aS'-'
asS'HOXB2'
p958
(lp959
I48542655
aI48544989
aS'-'
asS'HOXB3'
p960
(lp961
I48549812
aI48590241
aS'-'
asS'HOXB1'
p962
(lp963
I48528526
aI48530997
aS'-'
asS'SENP3'
p964
(lp965
I7561875
aI7571969
aS'+'
asS'HOXB7'
p966
(lp967
I48607627
aI48633572
aS'-'
asS'C17orf113'
p968
(lp969
I42038232
aI42050614
aS'-'
asS'HOXB5'
p970
(lp971
I48591257
aI48593961
aS'-'
asS'HID1'
p972
(lp973
I74950744
aI74972734
aS'-'
asS'AC040958.1'
p974
(lp975
I63885851
aI63886051
aS'+'
asS'NOTUM'
p976
(lp977
I81952507
aI81961293
aS'-'
asS'DNAJC7'
p978
(lp979
I41976433
aI42017653
aS'-'
asS'AC005562.2'
p980
(lp981
I30617680
aI30617790
aS'-'
asS'HS3ST3B1'
p982
(lp983
I14301083
aI14349404
aS'+'
asS'GOSR2'
p984
(lp985
I46929552
aI46975524
aS'+'
asS'P2RX5-TAX1BP3'
p986
(lp987
I3663063
aI3696194
aS'-'
asS'GOSR1'
p988
(lp989
I30477362
aI30527592
aS'+'
asS'ZNF830'
p990
(lp991
I34961530
aI34963775
aS'+'
asS'AC004584.2'
p992
(lp993
I56951664
aI56952404
aS'+'
asS'AC087501.2'
p994
(lp995
I9589902
aI9590482
aS'-'
asS'KRTAP3-4P'
p996
(lp997
I41004481
aI41004760
aS'-'
asS'TMEM11'
p998
(lp999
I21197280
aI21214624
aS'-'
asS'B4GALNT2'
p1000
(lp1001
I49132769
aI49176840
aS'+'
asS'NT5C3B'
p1002
(lp1003
I41825181
aI41836258
aS'-'
asS'AC113189.6'
p1004
(lp1005
I7428903
aI7432762
aS'+'
asS'SEZ6'
p1006
(lp1007
I28954905
aI29006298
aS'-'
asS'LIMD2'
p1008
(lp1009
I63695902
aI63700140
aS'-'
asS'RNF157'
p1010
(lp1011
I76142453
aI76240373
aS'-'
asS'GSG2'
p1012
(lp1013
I3723903
aI3726699
aS'+'
asS'HCRT'
p1014
(lp1015
I42184060
aI42185452
aS'-'
asS'SCARF1'
p1016
(lp1017
I1633858
aI1645747
aS'-'
asS'TBCD'
p1018
(lp1019
I82752064
aI82945922
aS'+'
asS'AC005972.3'
p1020
(lp1021
I63004672
aI63005152
aS'-'
asS'GEMIN4'
p1022
(lp1023
I744414
aI752261
aS'-'
asS'SLFN12L'
p1024
(lp1025
I35474904
aI35537861
aS'-'
asS'LUC7L3'
p1026
(lp1027
I50719544
aI50756213
aS'+'
asS'MMD'
p1028
(lp1029
I55392613
aI55421992
aS'-'
asS'ERBB2'
p1030
(lp1031
I39687914
aI39728361
aS'+'
asS'AC060766.1'
p1032
(lp1033
I35409602
aI35410228
aS'-'
asS'KRBA2'
p1034
(lp1035
I8368637
aI8376711
aS'-'
asS'CCDC144B'
p1036
(lp1037
I18537800
aI18625608
aS'-'
asS'CCDC144A'
p1038
(lp1039
I16690241
aI16777881
aS'+'
asS'KRT16P3'
p1040
(lp1041
I20502539
aI20512357
aS'-'
asS'KRT16P2'
p1042
(lp1043
I16829999
aI16832753
aS'-'
asS'KRT16P1'
p1044
(lp1045
I18432051
aI18441869
aS'+'
asS'KRT16P6'
p1046
(lp1047
I16817983
aI16822579
aS'-'
asS'KRT16P5'
p1048
(lp1049
I20493634
aI20494155
aS'-'
asS'LRRC37A4P'
p1050
(lp1051
I45508109
aI45550335
aS'-'
asS'PRR15L'
p1052
(lp1053
I47951967
aI47957878
aS'-'
asS'ERAL1'
p1054
(lp1055
I28854938
aI28861067
aS'+'
asS'AC091133.5'
p1056
(lp1057
I48899131
aI48899748
aS'+'
asS'AC091133.4'
p1058
(lp1059
I49037122
aI49037429
aS'+'
asS'TOB1'
p1060
(lp1061
I50862980
aI50867978
aS'-'
asS'CDK12'
p1062
(lp1063
I39462039
aI39535146
aS'+'
asS'OOSP1P2'
p1064
(lp1065
I32343774
aI32344124
aS'-'
asS'TMEM220'
p1066
(lp1067
I10699015
aI10725134
aS'-'
asS'PSMC5'
p1068
(lp1069
I63827183
aI63832019
aS'+'
asS'HEATR6'
p1070
(lp1071
I60043194
aI60078931
aS'-'
asS'STH'
p1072
(lp1073
I45999250
aI45999694
aS'+'
asS'HEATR9'
p1074
(lp1075
I35854951
aI35868891
aS'-'
asS'MMP28'
p1076
(lp1077
I35756250
aI35795707
aS'-'
asS'AC087575.1'
p1078
(lp1079
I22331597
aI22332410
aS'+'
asS'HOXB13'
p1080
(lp1081
I48724763
aI48729178
aS'-'
asS'FN3KRP'
p1082
(lp1083
I82716683
aI82728017
aS'+'
asS'RND2'
p1084
(lp1085
I43025241
aI43032036
aS'+'
asS'MAP3K14'
p1086
(lp1087
I45263121
aI45317040
aS'-'
asS'AC104996.3'
p1088
(lp1089
I30059054
aI30059147
aS'-'
asS'AC104996.2'
p1090
(lp1091
I30068632
aI30069631
aS'+'
asS'LRRC45'
p1092
(lp1093
I82023302
aI82031151
aS'+'
asS'LRRC46'
p1094
(lp1095
I47831627
aI47837713
aS'+'
asS'RARA'
p1096
(lp1097
I40309194
aI40356796
aS'+'
asS'FNDC8'
p1098
(lp1099
I35121579
aI35130732
aS'+'
asS'AC005697.1'
p1100
(lp1101
I27798806
aI27893365
aS'-'
asS'MTMR4'
p1102
(lp1103
I58489537
aI58517905
aS'-'
asS'NOL11'
p1104
(lp1105
I67717833
aI67744531
aS'+'
asS'AC080112.1'
p1106
(lp1107
I40367952
aI40368438
aS'+'
asS'AC080112.3'
p1108
(lp1109
I40380666
aI40381838
aS'-'
asS'PCYT2'
p1110
(lp1111
I81900965
aI81911464
aS'-'
asS'NMT1'
p1112
(lp1113
I45051610
aI45109016
aS'+'
asS'AC090282.2'
p1114
(lp1115
I3265611
aI3266541
aS'+'
asS'VAT1'
p1116
(lp1117
I43014605
aI43022418
aS'-'
asS'SLC2A4'
p1118
(lp1119
I7281667
aI7288257
aS'+'
asS'LINC02210'
p1120
(lp1121
I45620340
aI45655156
aS'+'
asS'CCL2'
p1122
(lp1123
I34255285
aI34257203
aS'+'
asS'CCL3'
p1124
(lp1125
I36088256
aI36090169
aS'-'
asS'CAVIN1'
p1126
(lp1127
I42402452
aI42423517
aS'-'
asS'CCL1'
p1128
(lp1129
I34360328
aI34363231
aS'-'
asS'TBC1D3D'
p1130
(lp1131
I38003976
aI38014902
aS'+'
asS'TBC1D3E'
p1132
(lp1133
I38127951
aI38138862
aS'+'
asS'CCL4'
p1134
(lp1135
I36103590
aI36105621
aS'+'
asS'TBC1D3G'
p1136
(lp1137
I36323884
aI36334759
aS'+'
asS'TBC1D3H'
p1138
(lp1139
I36377531
aI36388423
aS'-'
asS'TBC1D3I'
p1140
(lp1141
I36253639
aI36264514
aS'-'
asS'CCL8'
p1142
(lp1143
I34319036
aI34321402
aS'+'
asS'TBC1D3K'
p1144
(lp1145
I37924415
aI37935365
aS'+'
asS'METRNL'
p1146
(lp1147
I83079691
aI83095119
aS'+'
asS'RNASEK-C17orf49'
p1148
(lp1149
I7012635
aI7017502
aS'+'
asS'MYCBPAP'
p1150
(lp1151
I50508384
aI50531497
aS'+'
asS'AP2B1'
p1152
(lp1153
I35587274
aI35726409
aS'+'
asS'AC004223.3'
p1154
(lp1155
I35011349
aI35121493
aS'-'
asS'AC004223.1'
p1156
(lp1157
I35076737
aI35077007
aS'+'
asS'CYB561'
p1158
(lp1159
I63432304
aI63446378
aS'-'
asS'CNTROB'
p1160
(lp1161
I7932155
aI7949578
aS'+'
asS'TUBD1'
p1162
(lp1163
I59859482
aI59892945
aS'-'
asS'DRC3'
p1164
(lp1165
I17972813
aI18016873
aS'+'
asS'SLC46A1'
p1166
(lp1167
I28394756
aI28406210
aS'-'
asS'KRT18P55'
p1168
(lp1169
I28276045
aI28317783
aS'-'
asS'AC005332.3'
p1170
(lp1171
I68198921
aI68199596
aS'+'
asS'AC005332.2'
p1172
(lp1173
I68134675
aI68135604
aS'-'
asS'CEP295NL'
p1174
(lp1175
I78870910
aI78903215
aS'-'
asS'AC004706.2'
p1176
(lp1177
I6749685
aI6749978
aS'-'
asS'AC004706.4'
p1178
(lp1179
I6636780
aI6640316
aS'-'
asS'AC005332.4'
p1180
(lp1181
I68152776
aI68159043
aS'-'
asS'RPS29P21'
p1182
(lp1183
I59912197
aI59912366
aS'+'
asS'RPS29P22'
p1184
(lp1185
I28116239
aI28116406
aS'-'
asS'ATP6V0A1'
p1186
(lp1187
I42458888
aI42522611
aS'+'
asS'UBE2V2P2'
p1188
(lp1189
I78066258
aI78066761
aS'-'
asS'VPS53'
p1190
(lp1191
I508668
aI714856
aS'-'
asS'ALKBH5'
p1192
(lp1193
I18183078
aI18209398
aS'+'
asS'AC090286.2'
p1194
(lp1195
I18908279
aI18908865
aS'+'
asS'C17orf107'
p1196
(lp1197
I4899536
aI4902932
aS'+'
asS'C17orf105'
p1198
(lp1199
I43780435
aI43787612
aS'+'
asS'C17orf100'
p1200
(lp1201
I6651871
aI6693202
aS'+'
asS'STXBP4'
p1202
(lp1203
I54968765
aI55173632
aS'+'
asS'DBF4B'
p1204
(lp1205
I44708608
aI44752264
aS'+'
asS'BRIP1'
p1206
(lp1207
I61681266
aI61863521
aS'-'
asS'AC005726.2'
p1208
(lp1209
I28455752
aI28614183
aS'-'
asS'AC036164.1'
p1210
(lp1211
I959034
aI959366
aS'+'
asS'OR4D1'
p1212
(lp1213
I58155133
aI58156156
aS'+'
asS'OR4D2'
p1214
(lp1215
I58169656
aI58170579
aS'+'
asS'TTC25'
p1216
(lp1217
I41930656
aI41965651
aS'+'
asS'AC016292.2'
p1218
(lp1219
I1155966
aI1156175
aS'+'
asS'AC087289.3'
p1220
(lp1221
I75898951
aI75930129
aS'-'
asS'COTL1P1'
p1222
(lp1223
I16853935
aI16854309
aS'+'
asS'COTL1P2'
p1224
(lp1225
I20564538
aI20564889
aS'+'
asS'AC233702.11'
p1226
(lp1227
I21678086
aI21678418
aS'+'
asS'ENO3'
p1228
(lp1229
I4948252
aI4955220
aS'+'
asS'TAOK1'
p1230
(lp1231
I29390600
aI29551904
aS'+'
asS'LLGL2'
p1232
(lp1233
I75525726
aI75575208
aS'+'
asS'LLGL1'
p1234
(lp1235
I18225587
aI18244875
aS'+'
asS'ACOX1'
p1236
(lp1237
I75941507
aI75979363
aS'-'
asS'CDK3'
p1238
(lp1239
I76000906
aI76005999
aS'+'
asS'SGSH'
p1240
(lp1241
I80209264
aI80220400
aS'-'
asS'SLC16A6P1'
p1242
(lp1243
I64953683
aI64956546
aS'+'
asS'OXLD1'
p1244
(lp1245
I81665036
aI81666635
aS'-'
asS'SYNRG'
p1246
(lp1247
I37514797
aI37609496
aS'-'
asS'SPECC1'
p1248
(lp1249
I20009363
aI20314138
aS'+'
asS'ALOX15'
p1250
(lp1251
I4630902
aI4642294
aS'-'
asS'ALOX12'
p1252
(lp1253
I6996065
aI7010736
aS'+'
asS'SAMD11P1'
p1254
(lp1255
I2613284
aI2613944
aS'-'
asS'ELAC2'
p1256
(lp1257
I12992391
aI13018187
aS'-'
asS'RPL36AP48'
p1258
(lp1259
I67224728
aI67225041
aS'+'
asS'CYCSP40'
p1260
(lp1261
I77198950
aI77199543
aS'-'
asS'AC061975.3'
p1262
(lp1263
I28274657
aI28275716
aS'-'
asS'ARHGDIA'
p1264
(lp1265
I81867721
aI81871406
aS'-'
asS'USH1G'
p1266
(lp1267
I74916084
aI74923256
aS'-'
asS'AC061975.5'
p1268
(lp1269
I28269203
aI28272365
aS'-'
asS'PRKCA'
p1270
(lp1271
I66302826
aI66810743
aS'+'
asS'AC002553.2'
p1272
(lp1273
I16084042
aI16084381
aS'+'
asS'CHRNE'
p1274
(lp1275
I4897774
aI4903074
aS'-'
asS'TANC2'
p1276
(lp1277
I63009556
aI63427699
aS'+'
asS'SGSM2'
p1278
(lp1279
I2337514
aI2381058
aS'+'
asS'MLX'
p1280
(lp1281
I42567068
aI42573239
aS'+'
asS'ENDOV'
p1282
(lp1283
I80415167
aI80438081
aS'+'
asS'ZSWIM5P2'
p1284
(lp1285
I20583758
aI20591180
aS'-'
asS'ZSWIM5P1'
p1286
(lp1287
I15768717
aI15771426
aS'-'
asS'CCL15-CCL14'
p1288
(lp1289
I35983656
aI36001621
aS'-'
asS'AC068531.1'
p1290
(lp1291
I48881122
aI48881316
aS'+'
asS'LYZL6'
p1292
(lp1293
I35934531
aI35943699
aS'-'
asS'TEKT1'
p1294
(lp1295
I6797993
aI6831761
aS'-'
asS'TEKT3'
p1296
(lp1297
I15303811
aI15341641
aS'-'
asS'ACTG1'
p1298
(lp1299
I81511346
aI81523847
aS'-'
asS'FKBP10'
p1300
(lp1301
I41812931
aI41823217
aS'+'
asS'AC104581.3'
p1302
(lp1303
I7925931
aI7930622
aS'-'
asS'TBX21'
p1304
(lp1305
I47733244
aI47746119
aS'+'
asS'TACO1'
p1306
(lp1307
I63600872
aI63608365
aS'+'
asS'KRT8P34'
p1308
(lp1309
I39835037
aI39836080
aS'-'
asS'AC115085.1'
p1310
(lp1311
I69318733
aI69318961
aS'+'
asS'AOC4P'
p1312
(lp1313
I42867279
aI42874369
aS'+'
asS'CWC25'
p1314
(lp1315
I38800434
aI38825481
aS'-'
asS'NACA2'
p1316
(lp1317
I61590426
aI61591202
aS'-'
asS'MAP3K3'
p1318
(lp1319
I63622442
aI63696303
aS'+'
asS'TRPV1'
p1320
(lp1321
I3565444
aI3609411
aS'-'
asS'TRPV3'
p1322
(lp1323
I3513190
aI3557805
aS'-'
asS'TRPV2'
p1324
(lp1325
I16415542
aI16437003
aS'+'
asS'ATPAF2'
p1326
(lp1327
I17977409
aI18039168
aS'-'
asS'ZNF207'
p1328
(lp1329
I32350117
aI32381886
aS'+'
asS'AC005668.1'
p1330
(lp1331
I6322413
aI6323228
aS'-'
asS'KRTAP1-3'
p1332
(lp1333
I41033884
aI41034855
aS'-'
asS'KRTAP1-4'
p1334
(lp1335
I41029697
aI41030104
aS'-'
asS'KRTAP1-5'
p1336
(lp1337
I41026026
aI41027202
aS'-'
asS'KCNAB3'
p1338
(lp1339
I7921859
aI7929435
aS'-'
asS'GPATCH8'
p1340
(lp1341
I44397416
aI44503404
aS'-'
asS'AC097641.2'
p1342
(lp1343
I73163035
aI73163359
aS'-'
asS'TMEM101'
p1344
(lp1345
I44011188
aI44023151
aS'-'
asS'TMEM100'
p1346
(lp1347
I55719918
aI55732121
aS'-'
asS'TMEM107'
p1348
(lp1349
I8173237
aI8176373
aS'-'
asS'RPL19'
p1350
(lp1351
I39200283
aI39204727
aS'+'
asS'TMEM105'
p1352
(lp1353
I81311270
aI81330674
aS'-'
asS'TMEM104'
p1354
(lp1355
I74776483
aI74839779
aS'+'
asS'XAF1'
p1356
(lp1357
I6755840
aI6775647
aS'+'
asS'NME1'
p1358
(lp1359
I51153581
aI51162428
aS'+'
asS'NME2'
p1360
(lp1361
I51165435
aI51171744
aS'+'
asS'INPP5K'
p1362
(lp1363
I1494571
aI1516888
aS'-'
asS'CSHL1'
p1364
(lp1365
I63909604
aI63918838
aS'-'
asS'PDLIM1P3'
p1366
(lp1367
I27002661
aI27003259
aS'-'
asS'PDLIM1P2'
p1368
(lp1369
I21444833
aI21445439
aS'-'
asS'EME1'
p1370
(lp1371
I50373220
aI50381483
aS'+'
asS'HELZ'
p1372
(lp1373
I67070438
aI67245183
aS'-'
asS'AC091180.1'
p1374
(lp1375
I49400429
aI49400800
aS'-'
asS'GJC1'
p1376
(lp1377
I44798448
aI44830813
aS'-'
asS'AC005951.1'
p1378
(lp1379
I54754165
aI54754649
aS'-'
asS'AC005951.2'
p1380
(lp1381
I54702936
aI54703430
aS'+'
asS'KRTAP4-9'
p1382
(lp1383
I41105332
aI41106488
aS'+'
asS'KRTAP4-8'
p1384
(lp1385
I41096981
aI41098141
aS'-'
asS'NT5M'
p1386
(lp1387
I17303335
aI17347661
aS'+'
asS'KRTAP4-1'
p1388
(lp1389
I41184102
aI41185342
aS'-'
asS'NT5C'
p1390
(lp1391
I75130228
aI75131795
aS'-'
asS'KRTAP4-2'
p1392
(lp1393
I41177446
aI41178208
aS'-'
asS'KRTAP4-5'
p1394
(lp1395
I41148924
aI41149802
aS'-'
asS'KRTAP4-4'
p1396
(lp1397
I41159651
aI41160731
aS'-'
asS'KRTAP4-7'
p1398
(lp1399
I41084150
aI41085141
aS'+'
asS'KRTAP4-6'
p1400
(lp1401
I41139433
aI41140487
aS'-'
asS'AC233968.1'
p1402
(lp1403
I38078262
aI38124770
aS'+'
asS'AC015688.5'
p1404
(lp1405
I27623364
aI27640777
aS'+'
asS'LGALS9C'
p1406
(lp1407
I18476756
aI18494940
aS'+'
asS'LGALS9B'
p1408
(lp1409
I20449395
aI20467534
aS'-'
asS'AC015910.1'
p1410
(lp1411
I39238466
aI39245667
aS'+'
asS'CLUH'
p1412
(lp1413
I2689386
aI2712020
aS'-'
asS'AC090615.1'
p1414
(lp1415
I27411438
aI27412806
aS'-'
asS'LRRC37BP1'
p1416
(lp1417
I30629680
aI30637302
aS'+'
asS'AC015688.6'
p1418
(lp1419
I27675894
aI27675997
aS'-'
asS'AC015688.7'
p1420
(lp1421
I27612588
aI27613251
aS'-'
asS'AC015688.1'
p1422
(lp1423
I27683946
aI27684144
aS'-'
asS'AC015688.2'
p1424
(lp1425
I27682476
aI27682737
aS'+'
asS'AC015688.3'
p1426
(lp1427
I27666749
aI27672803
aS'-'
asS'AC015912.2'
p1428
(lp1429
I56884639
aI56884819
aS'-'
asS'EIF1P5'
p1430
(lp1431
I21259968
aI21260501
aS'-'
asS'RAMP2'
p1432
(lp1433
I42758447
aI42761899
aS'+'
asS'KIAA0753'
p1434
(lp1435
I6578151
aI6640927
aS'-'
asS'PHF23'
p1436
(lp1437
I7235028
aI7239506
aS'-'
asS'ABCA10'
p1438
(lp1439
I69148007
aI69244846
aS'-'
asS'TP53'
p1440
(lp1441
I7665416
aI7687491
aS'-'
asS'UBE2O'
p1442
(lp1443
I76389451
aI76453206
aS'-'
asS'AC024614.3'
p1444
(lp1445
I33692229
aI33692484
aS'+'
asS'PRELID3BP3'
p1446
(lp1447
I62841101
aI62841645
aS'+'
asS'UBE2Z'
p1448
(lp1449
I48908369
aI48929056
aS'+'
asS'RPAIN'
p1450
(lp1451
I5419641
aI5432876
aS'+'
asS'TOP3A'
p1452
(lp1453
I18273921
aI18315007
aS'-'
asS'SEC14L1'
p1454
(lp1455
I77088749
aI77216802
aS'+'
asS'RPRML'
p1456
(lp1457
I46978156
aI46979248
aS'-'
asS'AC243725.1'
p1458
(lp1459
I21773754
aI21783465
aS'-'
asS'BTBD17'
p1460
(lp1461
I74356416
aI74361946
aS'-'
asS'WDR45BP1'
p1462
(lp1463
I32111562
aI32112590
aS'-'
asS'BORCS6'
p1464
(lp1465
I8188333
aI8190907
aS'-'
asS'CTDNEP1'
p1466
(lp1467
I7243618
aI7252081
aS'-'
asS'RABEP1'
p1468
(lp1469
I5282300
aI5385812
aS'+'
asS'ALOX12B'
p1470
(lp1471
I8072636
aI8087703
aS'-'
asS'PLEKHM1'
p1472
(lp1473
I45435900
aI45490744
aS'-'
asS'AC016489.1'
p1474
(lp1475
I64308316
aI64308690
aS'-'
asS'FAM171A2'
p1476
(lp1477
I44353215
aI44363875
aS'-'
asS'SLC43A2'
p1478
(lp1479
I1569267
aI1628836
aS'-'
asS'WNT3'
p1480
(lp1481
I46773842
aI46833033
aS'-'
asS'AC005838.1'
p1482
(lp1483
I15588852
aI15589084
aS'+'
asS'BLMH'
p1484
(lp1485
I30248195
aI30291994
aS'-'
asS'KRT9'
p1486
(lp1487
I41565841
aI41572058
aS'-'
asS'ZPBP2'
p1488
(lp1489
I39868216
aI39877896
aS'+'
asS'NMTRS-TGA3-1'
p1490
(lp1491
I22528853
aI22528921
aS'-'
asS'SAT2'
p1492
(lp1493
I7626237
aI7627869
aS'-'
asS'SPDYE4'
p1494
(lp1495
I8753106
aI8758559
aS'-'
asS'BIRC5'
p1496
(lp1497
I78214186
aI78225636
aS'+'
asS'EVPLL'
p1498
(lp1499
I18377662
aI18389647
aS'+'
asS'AC005828.7'
p1500
(lp1501
I63331984
aI63332539
aS'-'
asS'AC005828.6'
p1502
(lp1503
I63393355
aI63393586
aS'+'
asS'TNFSF12-TNFSF13'
p1504
(lp1505
I7549099
aI7561601
aS'+'
asS'NSF'
p1506
(lp1507
I46590669
aI46757464
aS'+'
asS'AC233702.5'
p1508
(lp1509
I21655843
aI21657633
aS'-'
asS'AC233702.4'
p1510
(lp1511
I21573770
aI21574073
aS'+'
asS'AC233702.7'
p1512
(lp1513
I21566569
aI21574517
aS'-'
asS'AC233702.1'
p1514
(lp1515
I21504558
aI21505059
aS'+'
asS'AC090774.2'
p1516
(lp1517
I20938023
aI20938344
aS'-'
asS'AC090774.1'
p1518
(lp1519
I20956682
aI20958404
aS'+'
asS'AC233702.2'
p1520
(lp1521
I21614487
aI21641536
aS'+'
asS'AC233702.9'
p1522
(lp1523
I21552509
aI21552711
aS'+'
asS'RFFL'
p1524
(lp1525
I35005990
aI35089319
aS'-'
asS'OTOP3'
p1526
(lp1527
I74935719
aI74949992
aS'+'
asS'OTOP2'
p1528
(lp1529
I74924275
aI74933911
aS'+'
asS'MSI2'
p1530
(lp1531
I57256534
aI57684685
aS'+'
asS'RPSAP67'
p1532
(lp1533
I67774591
aI67777324
aS'-'
asS'RPSAP66'
p1534
(lp1535
I60564740
aI60565671
aS'-'
asS'AC015813.2'
p1536
(lp1537
I57989038
aI58005253
aS'-'
asS'KRTAP4-11'
p1538
(lp1539
I41117181
aI41118360
aS'-'
asS'DUSP14'
p1540
(lp1541
I37489831
aI37513501
aS'+'
asS'KYNUP3'
p1542
(lp1543
I19208584
aI19211359
aS'+'
asS'KRTAP4-12'
p1544
(lp1545
I41123091
aI41124167
aS'-'
asS'KRTAP4-16'
p1546
(lp1547
I41101502
aI41102209
aS'-'
asS'CSH2'
p1548
(lp1549
I63872012
aI63873766
aS'-'
asS'AC103810.3'
p1550
(lp1551
I64778842
aI64778937
aS'-'
asS'CSH1'
p1552
(lp1553
I63894909
aI63896661
aS'-'
asS'RPA1'
p1554
(lp1555
I1829984
aI1899554
aS'+'
asS'RNFT1'
p1556
(lp1557
I59952240
aI59964719
aS'-'
asS'ANKFN1'
p1558
(lp1559
I55882301
aI56449186
aS'+'
asS'WNT9B'
p1560
(lp1561
I46833201
aI46875146
aS'+'
asS'AC046185.2'
p1562
(lp1563
I63610772
aI63611184
aS'-'
asS'AC046185.1'
p1564
(lp1565
I63702845
aI63752097
aS'-'
asS'AOC3'
p1566
(lp1567
I42851184
aI42858128
aS'+'
asS'AOC2'
p1568
(lp1569
I42844600
aI42850707
aS'+'
asS'TIMP2'
p1570
(lp1571
I78852977
aI78925387
aS'-'
asS'EPX'
p1572
(lp1573
I58192737
aI58205174
aS'+'
asS'AC024267.2'
p1574
(lp1575
I28848860
aI28849592
aS'+'
asS'AC139530.2'
p1576
(lp1577
I81703371
aI81720539
aS'+'
asS'RNASEK'
p1578
(lp1579
I7012417
aI7014532
aS'+'
asS'SLC26A11'
p1580
(lp1581
I80220430
aI80253500
aS'+'
asS'PFAS'
p1582
(lp1583
I8249286
aI8270485
aS'+'
asS'KRTAP17-1'
p1584
(lp1585
I41314917
aI41315695
aS'-'
asS'AC025048.3'
p1586
(lp1587
I60113793
aI60120687
aS'-'
asS'AC025048.5'
p1588
(lp1589
I60124110
aI60125474
aS'-'
asS'AC025048.6'
p1590
(lp1591
I60101759
aI60102919
aS'-'
asS'DDX5'
p1592
(lp1593
I64499616
aI64506521
aS'-'
asS'AC015801.1'
p1594
(lp1595
I76202644
aI76202796
aS'-'
asS'MYO15B'
p1596
(lp1597
I75588058
aI75626484
aS'+'
asS'AC131274.2'
p1598
(lp1599
I22693325
aI22694831
aS'-'
asS'AC131274.3'
p1600
(lp1601
I22704415
aI22705685
aS'+'
asS'AC087499.6'
p1602
(lp1603
I20647287
aI20681799
aS'+'
asS'FOXK2'
p1604
(lp1605
I82519715
aI82604607
aS'+'
asS'AC087499.4'
p1606
(lp1607
I20595531
aI20595708
aS'+'
asS'MFSD1P1'
p1608
(lp1609
I4301372
aI4302698
aS'+'
asS'AC138207.8'
p1610
(lp1611
I31045407
aI31093127
aS'+'
asS'CLTC'
p1612
(lp1613
I59619689
aI59696956
aS'+'
asS'PGS1'
p1614
(lp1615
I78378640
aI78424554
aS'+'
asS'MIS12'
p1616
(lp1617
I5486374
aI5490808
aS'+'
asS'AC006441.5'
p1618
(lp1619
I39023394
aI39026742
aS'+'
asS'COX6B1P2'
p1620
(lp1621
I48713730
aI48713959
aS'+'
asS'KCNJ16'
p1622
(lp1623
I70053429
aI70132193
aS'+'
asS'AC087499.8'
p1624
(lp1625
I20633034
aI20633259
aS'-'
asS'AC003958.1'
p1626
(lp1627
I41334632
aI41335733
aS'+'
asS'SLC5A10'
p1628
(lp1629
I18950345
aI19022595
aS'+'
asS'HMGB1P24'
p1630
(lp1631
I37143607
aI37144291
aS'-'
asS'DLX4'
p1632
(lp1633
I49969174
aI49974959
aS'+'
asS'TOP2A'
p1634
(lp1635
I40388516
aI40417950
aS'-'
asS'AC105021.1'
p1636
(lp1637
I55526964
aI55561091
aS'-'
asS'AC011921.2'
p1638
(lp1639
I60562010
aI60562161
aS'-'
asS'AC011921.3'
p1640
(lp1641
I60513190
aI60513550
aS'+'
asS'ASIC2'
p1642
(lp1643
I33013087
aI34157294
aS'-'
asS'PMP22'
p1644
(lp1645
I15229778
aI15265307
aS'-'
asS'AC002558.1'
p1646
(lp1647
I47159191
aI47159993
aS'-'
asS'CDC27'
p1648
(lp1649
I47117703
aI47189266
aS'-'
asS'GLOD4'
p1650
(lp1651
I759310
aI783390
aS'-'
asS'TNFAIP1'
p1652
(lp1653
I28335704
aI28347009
aS'+'
asS'SHBG'
p1654
(lp1655
I7614064
aI7633354
aS'+'
asS'BAIAP2'
p1656
(lp1657
I81035162
aI81117432
aS'+'
asS'NUP88'
p1658
(lp1659
I5386026
aI5420160
aS'-'
asS'AC011195.1'
p1660
(lp1661
I58675286
aI58675462
aS'+'
asS'AC011195.2'
p1662
(lp1663
I58660424
aI58692018
aS'-'
asS'AC016182.1'
p1664
(lp1665
I78522247
aI78522828
aS'+'
asS'AC243829.6'
p1666
(lp1667
I36241701
aI36241806
aS'+'
asS'LRRC59'
p1668
(lp1669
I50381238
aI50397553
aS'-'
asS'AC243829.3'
p1670
(lp1671
I36234447
aI36234554
aS'-'
asS'POLDIP2'
p1672
(lp1673
I28347177
aI28357522
aS'-'
asS'GP1BA'
p1674
(lp1675
I4932297
aI4935030
aS'+'
asS'SGCA'
p1676
(lp1677
I50164214
aI50175850
aS'+'
asS'SCPEP1'
p1678
(lp1679
I56978105
aI57006763
aS'+'
asS'RAPGEFL1'
p1680
(lp1681
I40177095
aI40195656
aS'+'
asS'MAPK7'
p1682
(lp1683
I19377721
aI19383543
aS'+'
asS'AC104581.1'
p1684
(lp1685
I7913324
aI7916276
aS'-'
asS'ARL17B'
p1686
(lp1687
I46274784
aI46361764
aS'-'
asS'ARL17A'
p1688
(lp1689
I46516702
aI46579670
aS'-'
asS'SHPK'
p1690
(lp1691
I3608262
aI3636322
aS'-'
asS'AC100793.1'
p1692
(lp1693
I42714299
aI42714643
aS'+'
asS'JPT1'
p1694
(lp1695
I75136148
aI75168281
aS'-'
asS'FADS6'
p1696
(lp1697
I74877299
aI74893610
aS'-'
asS'CCL11'
p1698
(lp1699
I34285668
aI34288334
aS'+'
asS'CCL13'
p1700
(lp1701
I34356452
aI34358610
aS'+'
asS'CCL14'
p1702
(lp1703
I35983291
aI35987004
aS'-'
asS'CCL15'
p1704
(lp1705
I35997582
aI36002038
aS'-'
asS'CCL16'
p1706
(lp1707
I35976499
aI35981496
aS'-'
asS'CCL18'
p1708
(lp1709
I36064280
aI36072032
aS'+'
asS'SYNGR2'
p1710
(lp1711
I78168558
aI78173527
aS'+'
asS'AC120057.1'
p1712
(lp1713
I7140930
aI7141592
aS'+'
asS'STAT5B'
p1714
(lp1715
I42199168
aI42276406
aS'-'
asS'STAT5A'
p1716
(lp1717
I42287547
aI42311943
aS'+'
asS'AC120057.2'
p1718
(lp1719
I7058934
aI7059204
aS'+'
asS'PITPNM3'
p1720
(lp1721
I6451265
aI6556494
aS'-'
asS'TBC1D16'
p1722
(lp1723
I79932343
aI80035848
aS'-'
asS'KCTD2'
p1724
(lp1725
I75032612
aI75063263
aS'+'
asS'ADAM11'
p1726
(lp1727
I44759031
aI44781846
aS'+'
asS'AMZ2P1'
p1728
(lp1729
I64966550
aI64975568
aS'-'
asS'FAM83G'
p1730
(lp1731
I18968789
aI19004804
aS'-'
asS'HS3ST3A1'
p1732
(lp1733
I13495689
aI13601927
aS'-'
asS'SLC38A10'
p1734
(lp1735
I81245000
aI81295305
aS'-'
asS'DGKE'
p1736
(lp1737
I56834099
aI56869567
aS'+'
asS'CNP'
p1738
(lp1739
I41966741
aI41977731
aS'+'
asS'TMEM106A'
p1740
(lp1741
I43211875
aI43220041
aS'+'
asS'SPDYE22P'
p1742
(lp1743
I59174983
aI59181787
aS'-'
asS'B4GALNT2P1'
p1744
(lp1745
I49085511
aI49086702
aS'+'
asS'NDEL1'
p1746
(lp1747
I8450781
aI8490411
aS'+'
asS'RPS27AP1'
p1748
(lp1749
I10258762
aI10259232
aS'+'
asS'AC034268.2'
p1750
(lp1751
I53681630
aI53682111
aS'-'
asS'AC034268.1'
p1752
(lp1753
I53756989
aI53757870
aS'-'
asS'RNF167'
p1754
(lp1755
I4940008
aI4945191
aS'+'
asS'PEMT'
p1756
(lp1757
I17505565
aI17591708
aS'-'
asS'TXNDC17'
p1758
(lp1759
I6640758
aI6644541
aS'+'
asS'UNC45B'
p1760
(lp1761
I35147817
aI35189345
aS'+'
asS'BHLHA9'
p1762
(lp1763
I1270559
aI1271460
aS'+'
asS'ALOX15B'
p1764
(lp1765
I8039017
aI8049134
aS'+'
asS'AC138207.3'
p1766
(lp1767
I31008154
aI31008319
aS'-'
asS'LINC02210-CRHR1'
p1768
(lp1769
I45620344
aI45835826
aS'+'
asS'AC138207.6'
p1770
(lp1771
I31041971
aI31059121
aS'-'
asS'CTC1'
p1772
(lp1773
I8224821
aI8248044
aS'-'
asS'FAM222B'
p1774
(lp1775
I28759551
aI28855232
aS'-'
asS'CPSF4L'
p1776
(lp1777
I73248449
aI73261880
aS'-'
asS'KRT222'
p1778
(lp1779
I40654665
aI40665156
aS'-'
asS'FDXR'
p1780
(lp1781
I74862497
aI74873023
aS'-'
asS'AC005702.5'
p1782
(lp1783
I60021072
aI60022436
aS'+'
asS'AMZ2'
p1784
(lp1785
I68247574
aI68257156
aS'+'
asS'SCN4A'
p1786
(lp1787
I63938554
aI63972918
aS'-'
asS'AC053481.1'
p1788
(lp1789
I62319884
aI62320189
aS'+'
asS'MRPL58'
p1790
(lp1791
I75012674
aI75021261
aS'+'
asS'C17orf78'
p1792
(lp1793
I37375986
aI37392706
aS'+'
asS'NATD1'
p1794
(lp1795
I21238870
aI21253410
aS'-'
asS'GIP'
p1796
(lp1797
I48958554
aI48968596
aS'-'
asS'ALOXE3'
p1798
(lp1799
I8096375
aI8119047
aS'-'
asS'FXR2'
p1800
(lp1801
I7591230
aI7614867
aS'-'
asS'AC055811.2'
p1802
(lp1803
I17202649
aI17237185
aS'-'
asS'SH3GL1P2'
p1804
(lp1805
I30624413
aI30625494
aS'+'
asS'PIRT'
p1806
(lp1807
I10822475
aI10838445
aS'-'
asS'DDX42'
p1808
(lp1809
I63773863
aI63819317
aS'+'
asS'NPB'
p1810
(lp1811
I81900745
aI81902898
aS'+'
asS'MTND1P14'
p1812
(lp1813
I19602259
aI19603208
aS'+'
asS'FBXW10'
p1814
(lp1815
I18744024
aI18779349
aS'+'
asS'AC009452.1'
p1816
(lp1817
I66278059
aI66278664
aS'+'
asS'MYO18A'
p1818
(lp1819
I29071124
aI29180412
aS'-'
asS'AC006270.3'
p1820
(lp1821
I63088162
aI63089197
aS'-'
asS'AC006270.2'
p1822
(lp1823
I63182166
aI63182817
aS'+'
asS'DNAI2'
p1824
(lp1825
I74274247
aI74314884
aS'+'
asS'TADA2A'
p1826
(lp1827
I37406874
aI37479730
aS'+'
asS'APOH'
p1828
(lp1829
I66220614
aI66256525
aS'-'
asS'OVCA2'
p1830
(lp1831
I2041936
aI2043430
aS'+'
asS'FAM104A'
p1832
(lp1833
I73209488
aI73236753
aS'-'
asS'NF1'
p1834
(lp1835
I31094927
aI31377677
aS'+'
asS'FOXJ1'
p1836
(lp1837
I76136333
aI76141299
aS'-'
asS'AC091153.1'
p1838
(lp1839
I4704816
aI4705217
aS'-'
asS'CCDC57'
p1840
(lp1841
I82101470
aI82212813
aS'-'
asS'RPH3AL'
p1842
(lp1843
I212502
aI353097
aS'-'
asS'NUFIP2'
p1844
(lp1845
I29255836
aI29294118
aS'-'
asS'DLG4'
p1846
(lp1847
I7189890
aI7219702
aS'-'
asS'SLC35B1'
p1848
(lp1849
I49700943
aI49708199
aS'-'
asS'FLOT2'
p1850
(lp1851
I28879335
aI28897679
aS'-'
asS'FBXO39'
p1852
(lp1853
I6776223
aI6787646
aS'+'
asS'MYH10'
p1854
(lp1855
I8474205
aI8630761
aS'-'
asS'MYH13'
p1856
(lp1857
I10300865
aI10373130
aS'-'
asS'AC005242.1'
p1858
(lp1859
I70241324
aI70241761
aS'+'
asS'PELP1'
p1860
(lp1861
I4669774
aI4704325
aS'-'
asS'SPEM1'
p1862
(lp1863
I7420360
aI7421632
aS'+'
asS'AKAP10'
p1864
(lp1865
I19904302
aI19977837
aS'-'
asS'CCDC182'
p1866
(lp1867
I57744481
aI57745312
aS'-'
asS'GPRC5C'
p1868
(lp1869
I74432116
aI74449509
aS'+'
asS'TVP23C-CDRT4'
p1870
(lp1871
I15436021
aI15563561
aS'-'
asS'LRRC37A11P'
p1872
(lp1873
I39029906
aI39053205
aS'+'
asS'EIF1'
p1874
(lp1875
I41688893
aI41692668
aS'+'
asS'C17orf80'
p1876
(lp1877
I73232622
aI73248947
aS'+'
asS'LASP1'
p1878
(lp1879
I38869859
aI38921770
aS'+'
asS'NAA38'
p1880
(lp1881
I7856686
aI7885209
aS'-'
asS'NTN1'
p1882
(lp1883
I9021542
aI9244000
aS'+'
asS'AC091179.3'
p1884
(lp1885
I48690481
aI48690624
aS'-'
asS'AC091179.1'
p1886
(lp1887
I48691116
aI48691694
aS'-'
asS'RPL23A'
p1888
(lp1889
I28719393
aI28724359
aS'+'
asS'RCVRN'
p1890
(lp1891
I9896320
aI9905621
aS'-'
asS'AC005412.1'
p1892
(lp1893
I29203426
aI29204474
aS'-'
asS'WDR81'
p1894
(lp1895
I1716523
aI1738599
aS'+'
asS'VPS25'
p1896
(lp1897
I42773436
aI42779599
aS'+'
asS'AARSD1'
p1898
(lp1899
I42950546
aI42964476
aS'-'
asS'HNF1B'
p1900
(lp1901
I37686432
aI37745247
aS'-'
asS'RAI1'
p1902
(lp1903
I17681473
aI17811453
aS'+'
asS'SKA2'
p1904
(lp1905
I59109951
aI59155269
aS'-'
asS'AC243732.1'
p1906
(lp1907
I36574462
aI36575325
aS'-'
asS'SCIMP'
p1908
(lp1909
I5208961
aI5234860
aS'-'
asS'ATP6V0CP1'
p1910
(lp1911
I4856757
aI4857374
aS'-'
asS'AC090616.1'
p1912
(lp1913
I32106330
aI32114125
aS'-'
asS'APPBP2'
p1914
(lp1915
I60443149
aI60526219
aS'-'
asS'QRICH2'
p1916
(lp1917
I76274049
aI76307998
aS'-'
asS'KRT40'
p1918
(lp1919
I40977716
aI40987001
aS'-'
asS'COA3'
p1920
(lp1921
I42795147
aI42798690
aS'-'
asS'LGALS3BP'
p1922
(lp1923
I78971238
aI78980109
aS'-'
asS'COX10'
p1924
(lp1925
I14069529
aI14208677
aS'+'
asS'ARSG'
p1926
(lp1927
I68259182
aI68422731
aS'+'
asS'HAP1'
p1928
(lp1929
I41720813
aI41734644
aS'-'
asS'EXOC7'
p1930
(lp1931
I76097989
aI76121576
aS'-'
asS'CA4'
p1932
(lp1933
I60149942
aI60170899
aS'+'
asS'AC061975.2'
p1934
(lp1935
I28256375
aI28256669
aS'-'
asS'AC093484.3'
p1936
(lp1937
I16391434
aI16391882
aS'+'
asS'PNMT'
p1938
(lp1939
I39667981
aI39670473
aS'+'
asS'ACBD4'
p1940
(lp1941
I45132600
aI45144172
aS'+'
asS'TUSC5'
p1942
(lp1943
I1279663
aI1300987
aS'+'
asS'SMURF2P1'
p1944
(lp1945
I30600796
aI30615980
aS'+'
asS'TNRC6C'
p1946
(lp1947
I77959240
aI78106037
aS'+'
asS'TEX19'
p1948
(lp1949
I82359247
aI82363776
aS'+'
asS'PYCR1'
p1950
(lp1951
I81933356
aI81942412
aS'-'
asS'RPL15P21'
p1952
(lp1953
I10860535
aI10861462
aS'-'
asS'UBBP4'
p1954
(lp1955
I22202995
aI22205154
aS'+'
asS'USP22'
p1956
(lp1957
I20999597
aI21043760
aS'-'
asS'MAPK8IP1P2'
p1958
(lp1959
I45600869
aI45602340
aS'-'
asS'MAPK8IP1P1'
p1960
(lp1961
I46243606
aI46245044
aS'+'
asS'AC090774.3'
p1962
(lp1963
I20901939
aI20902680
aS'-'
asS'EIF4A1P9'
p1964
(lp1965
I2586330
aI2587866
aS'-'
asS'AC233702.3'
p1966
(lp1967
I21592794
aI21594180
aS'+'
asS'RAB5C'
p1968
(lp1969
I42124978
aI42155044
aS'-'
asS'SENP3-EIF4A1'
p1970
(lp1971
I7563287
aI7578715
aS'+'
asS'CCDC42'
p1972
(lp1973
I8729934
aI8744836
aS'-'
asS'SSH2'
p1974
(lp1975
I29625938
aI29930152
aS'-'
asS'CENPX'
p1976
(lp1977
I82018702
aI82024107
aS'-'
asS'CENPV'
p1978
(lp1979
I16342534
aI16353499
aS'-'
asS'PAFAH1B1'
p1980
(lp1981
I2593746
aI2685615
aS'+'
asS'PYY'
p1982
(lp1983
I43952738
aI44004469
aS'-'
asS'GH1'
p1984
(lp1985
I63917203
aI63918838
aS'-'
asS'GH2'
p1986
(lp1987
I63880224
aI63881935
aS'-'
asS'MIF4GD'
p1988
(lp1989
I75266228
aI75271218
aS'-'
asS'CSF3'
p1990
(lp1991
I40015361
aI40017813
aS'+'
asS'AC009994.1'
p1992
(lp1993
I64572829
aI64573081
aS'+'
asS'MRPL45'
p1994
(lp1995
I38297023
aI38323218
aS'+'
asS'RPS23P7'
p1996
(lp1997
I62397397
aI62398142
aS'+'
asS'RILP'
p1998
(lp1999
I1646150
aI1650077
aS'-'
asS'DHX33'
p2000
(lp2001
I5440912
aI5469060
aS'-'
asS'COPZ2'
p2002
(lp2003
I48026171
aI48037782
aS'-'
asS'DDX52'
p2004
(lp2005
I37609778
aI37643464
aS'-'
asS'B3GNTL1'
p2006
(lp2007
I82943791
aI83051810
aS'-'
asS'NEK8'
p2008
(lp2009
I28728780
aI28743455
aS'+'
asS'AC107983.1'
p2010
(lp2011
I18572752
aI18572961
aS'+'
asS'KYNUP1'
p2012
(lp2013
I19166896
aI19169668
aS'-'
asS'ALYREF'
p2014
(lp2015
I81887844
aI81891586
aS'-'
asS'GLTPD2'
p2016
(lp2017
I4788959
aI4790390
aS'+'
asS'DNAH2'
p2018
(lp2019
I7717354
aI7833744
aS'+'
asS'EPOP'
p2020
(lp2021
I38671703
aI38675421
aS'-'
asS'SUPT6H'
p2022
(lp2023
I28662091
aI28702684
aS'+'
asS'DNAH9'
p2024
(lp2025
I11598431
aI11969748
aS'+'
asS'TSEN15P1'
p2026
(lp2027
I17456427
aI17457259
aS'+'
asS'CCDC47'
p2028
(lp2029
I63745250
aI63773775
aS'-'
asS'CCDC43'
p2030
(lp2031
I44673069
aI44689725
aS'-'
asS'ZNF232'
p2032
(lp2033
I5105635
aI5123102
aS'-'
asS'CCDC40'
p2034
(lp2035
I80036636
aI80100613
aS'+'
asS'OR1D5'
p2036
(lp2037
I3062669
aI3063607
aS'-'
asS'OR1D4'
p2038
(lp2039
I3240676
aI3241614
aS'+'
asS'TXNP4'
p2040
(lp2041
I4572206
aI4572515
aS'+'
asS'OR1D2'
p2042
(lp2043
I3092058
aI3092996
aS'-'
asS'KYNUP2'
p2044
(lp2045
I19082437
aI19084834
aS'+'
asS'MYH2'
p2046
(lp2047
I10521152
aI10549957
aS'-'
asS'MYH3'
p2048
(lp2049
I10628527
aI10657309
aS'-'
asS'COASY'
p2050
(lp2051
I42562147
aI42566260
aS'+'
asS'MYH1'
p2052
(lp2053
I10492307
aI10518543
aS'-'
asS'MYH4'
p2054
(lp2055
I10443290
aI10469559
aS'-'
asS'GAS2L2'
p2056
(lp2057
I35744511
aI35752878
aS'-'
asS'MYH8'
p2058
(lp2059
I10390322
aI10421950
aS'-'
asS'KPNA2P3'
p2060
(lp2061
I64749918
aI64758603
aS'-'
asS'ENGASE'
p2062
(lp2063
I79074945
aI79086696
aS'+'
asS'VTN'
p2064
(lp2065
I28367276
aI28370822
aS'-'
asS'MTCO1P39'
p2066
(lp2067
I19605454
aI19605933
aS'+'
asS'AC007448.1'
p2068
(lp2069
I67276118
aI67276351
aS'-'
asS'STX8'
p2070
(lp2071
I9250471
aI9576236
aS'-'
asS'AL353997.3'
p2072
(lp2073
I18388871
aI18389459
aS'+'
asS'CCL4L2'
p2074
(lp2075
I36210924
aI36212878
aS'+'
asS'AL353997.5'
p2076
(lp2077
I18390153
aI18390323
aS'-'
asS'AL353997.4'
p2078
(lp2079
I18453574
aI18453739
aS'-'
asS'GDPD1'
p2080
(lp2081
I59220522
aI59275505
aS'+'
asS'RPL5P33'
p2082
(lp2083
I50847950
aI50849270
aS'+'
asS'CRHR1'
p2084
(lp2085
I45784280
aI45835827
aS'+'
asS'MTATP6P3'
p2086
(lp2087
I22529934
aI22530609
aS'+'
asS'C17orf99'
p2088
(lp2089
I78146353
aI78166177
aS'+'
asS'C17orf98'
p2090
(lp2091
I38835088
aI38841455
aS'-'
asS'PHF12'
p2092
(lp2093
I28905250
aI28951771
aS'-'
asS'C17orf97'
p2094
(lp2095
I414193
aI431062
aS'+'
asS'PYY2'
p2096
(lp2097
I28226563
aI28228065
aS'+'
asS'KRT17P2'
p2098
(lp2099
I18426927
aI18431848
aS'+'
asS'AC002545.1'
p2100
(lp2101
I69707193
aI69707373
aS'-'
asS'ARHGAP44'
p2102
(lp2103
I12789539
aI12991643
aS'+'
asS'AC087163.1'
p2104
(lp2105
I17981192
aI17981572
aS'-'
asS'AC015724.1'
p2106
(lp2107
I56573040
aI56573195
aS'+'
asS'AURKB'
p2108
(lp2109
I8204733
aI8210582
aS'-'
asS'TBC1D3P5'
p2110
(lp2111
I27418005
aI27431623
aS'+'
asS'TBC1D3P4'
p2112
(lp2113
I18393480
aI18400961
aS'+'
asS'TBC1D3P7'
p2114
(lp2115
I41323427
aI41329545
aS'+'
asS'TBC1D3P1'
p2116
(lp2117
I60008437
aI60017498
aS'-'
asS'TBC1D3P3'
p2118
(lp2119
I20543481
aI20550963
aS'-'
asS'YWHAE'
p2120
(lp2121
I1344272
aI1400378
aS'-'
asS'TOM1L1'
p2122
(lp2123
I54900513
aI54961956
aS'+'
asS'ZBTB4'
p2124
(lp2125
I7459366
aI7484263
aS'-'
asS'NBR2'
p2126
(lp2127
I43125644
aI43153671
aS'+'
asS'NBR1'
p2128
(lp2129
I43170481
aI43211689
aS'+'
asS'AC006120.1'
p2130
(lp2131
I66197693
aI66198238
aS'+'
asS'AC006236.1'
p2132
(lp2133
I5730289
aI5731085
aS'+'
asS'CDC42EP4'
p2134
(lp2135
I73283624
aI73312175
aS'-'
asS'CASC3'
p2136
(lp2137
I40140323
aI40172183
aS'+'
asS'NEK4P2'
p2138
(lp2139
I16666107
aI16667118
aS'-'
asS'TBKBP1'
p2140
(lp2141
I47695264
aI47712050
aS'+'
asS'VAMP2'
p2142
(lp2143
I8159149
aI8162975
aS'-'
asS'WFIKKN2'
p2144
(lp2145
I50835410
aI50842348
aS'+'
asS'ABI3'
p2146
(lp2147
I49210227
aI49223225
aS'+'
asS'EIF5AP2'
p2148
(lp2149
I78157403
aI78159135
aS'+'
asS'AC005771.1'
p2150
(lp2151
I70628917
aI70629265
aS'-'
asS'ABCC3'
p2152
(lp2153
I50634857
aI50692252
aS'+'
asS'PITPNC1'
p2154
(lp2155
I67377281
aI67697261
aS'+'
asS'KRT39'
p2156
(lp2157
I40958417
aI40966892
aS'-'
asS'KRT38'
p2158
(lp2159
I41436446
aI41440921
aS'-'
asS'ACADVL'
p2160
(lp2161
I7217125
aI7225266
aS'+'
asS'SLC6A4'
p2162
(lp2163
I30194319
aI30236002
aS'-'
asS'KRT31'
p2164
(lp2165
I41393724
aI41397592
aS'-'
asS'KRT32'
p2166
(lp2167
I41459811
aI41467429
aS'-'
asS'KRT35'
p2168
(lp2169
I41476689
aI41481140
aS'-'
asS'KRT34'
p2170
(lp2171
I41377650
aI41382403
aS'-'
asS'KRT37'
p2172
(lp2173
I41420753
aI41424523
aS'-'
asS'KRT36'
p2174
(lp2175
I41486136
aI41492546
aS'-'
asS'AC091152.3'
p2176
(lp2177
I44596346
aI44597344
aS'+'
asS'AC091152.1'
p2178
(lp2179
I44719760
aI44720597
aS'-'
asS'PPY2P'
p2180
(lp2181
I28247444
aI28248289
aS'+'
asS'KIF2B'
p2182
(lp2183
I53822901
aI53825213
aS'+'
asS'PECAM1'
p2184
(lp2185
I64319415
aI64390878
aS'-'
asS'ASB16'
p2186
(lp2187
I44170706
aI44179083
aS'+'
asS'FMNL1'
p2188
(lp2189
I45221789
aI45247320
aS'+'
asS'TBC1D26'
p2190
(lp2191
I15732247
aI15749192
aS'+'
asS'BRCA1'
p2192
(lp2193
I43044295
aI43125370
aS'-'
asS'ANKRD40'
p2194
(lp2195
I50693190
aI50707924
aS'-'
asS'AC027455.1'
p2196
(lp2197
I616002
aI616595
aS'+'
asS'WNK4'
p2198
(lp2199
I42780678
aI42796936
aS'+'
asS'ATP5J2P4'
p2200
(lp2201
I64491523
aI64491789
aS'+'
asS'TNPO1P2'
p2202
(lp2203
I18460391
aI18463055
aS'+'
asS'RFNG'
p2204
(lp2205
I82047902
aI82051831
aS'-'
asS'USP32'
p2206
(lp2207
I60179094
aI60392134
aS'-'
asS'TBC1D29'
p2208
(lp2209
I30557112
aI30563493
aS'+'
asS'USP36'
p2210
(lp2211
I78787467
aI78840780
aS'-'
asS'EIF4EP2'
p2212
(lp2213
I49424269
aI49424922
aS'-'
asS'PLD6'
p2214
(lp2215
I17200995
aI17206315
aS'-'
asS'P4HB'
p2216
(lp2217
I81843159
aI81860694
aS'-'
asS'PLD2'
p2218
(lp2219
I4807096
aI4823434
aS'+'
asS'PHB'
p2220
(lp2221
I49404049
aI49414905
aS'-'
asS'MCRIP1'
p2222
(lp2223
I81822417
aI81833291
aS'-'
asS'SECTM1'
p2224
(lp2225
I82321024
aI82333998
aS'-'
asS'PNPO'
p2226
(lp2227
I47941571
aI47948288
aS'+'
asS'AL353997.1'
p2228
(lp2229
I18452955
aI18453062
aS'+'
asS'RNF213'
p2230
(lp2231
I80260868
aI80398786
aS'+'
asS'ZACN'
p2232
(lp2233
I76071961
aI76079778
aS'+'
asS'SKAP1'
p2234
(lp2235
I48133445
aI48430275
aS'-'
asS'MED24'
p2236
(lp2237
I40019098
aI40054407
aS'-'
asS'SEPT9'
p2238
(lp2239
I77281410
aI77500592
aS'+'
asS'SEPT4'
p2240
(lp2241
I58520258
aI58540818
aS'-'
asS'PITPNA'
p2242
(lp2243
I1517718
aI1562816
aS'-'
asS'KRTAP9-8'
p2244
(lp2245
I41238045
aI41239004
aS'+'
asS'KRTAP9-9'
p2246
(lp2247
I41255384
aI41256364
aS'+'
asS'KANSL1'
p2248
(lp2249
I46029916
aI46225389
aS'-'
asS'SMURF2'
p2250
(lp2251
I64542295
aI64661897
aS'-'
asS'KRTAP9-1'
p2252
(lp2253
I41189887
aI41190639
aS'+'
asS'KRTAP9-2'
p2254
(lp2255
I41226648
aI41227652
aS'+'
asS'KRTAP9-3'
p2256
(lp2257
I41232463
aI41233454
aS'+'
asS'KRTAP9-4'
p2258
(lp2259
I41249687
aI41250653
aS'+'
asS'KRTAP9-6'
p2260
(lp2261
I41265339
aI41266641
aS'+'
asS'KRTAP9-7'
p2262
(lp2263
I41275659
aI41276697
aS'+'
asS'JUP'
p2264
(lp2265
I41754604
aI41786698
aS'-'
asS'CDK5R1'
p2266
(lp2267
I32486619
aI32491256
aS'+'
asS'NARF'
p2268
(lp2269
I82458606
aI82490537
aS'+'
asS'HOXB6'
p2270
(lp2271
I48595751
aI48604992
aS'-'
asS'BAHCC1'
p2272
(lp2273
I81395475
aI81466331
aS'+'
asS'EPN3'
p2274
(lp2275
I50532543
aI50543750
aS'+'
asS'EPN2'
p2276
(lp2277
I19237341
aI19336715
aS'+'
asS'AC060766.5'
p2278
(lp2279
I35406948
aI35407818
aS'-'
asS'USP32P1'
p2280
(lp2281
I16786990
aI16804455
aS'+'
asS'USP32P2'
p2282
(lp2283
I18511262
aI18520806
aS'-'
asS'USP32P3'
p2284
(lp2285
I20415547
aI20424642
aS'+'
asS'AC012146.4'
p2286
(lp2287
I5126740
aI5127010
aS'-'
asS'HOXB4'
p2288
(lp2289
I48575513
aI48580111
aS'-'
asS'AC060766.3'
p2290
(lp2291
I35377416
aI35377678
aS'-'
asS'AC060766.2'
p2292
(lp2293
I35344231
aI35344564
aS'+'
asS'AC004134.1'
p2294
(lp2295
I35596904
aI35597128
aS'-'
asS'AC060771.1'
p2296
(lp2297
I65185319
aI65185482
aS'-'
asS'AC099811.2'
p2298
(lp2299
I42119674
aI42154916
aS'-'
asS'MRPS23'
p2300
(lp2301
I57834781
aI57850056
aS'-'
asS'GPR179'
p2302
(lp2303
I38325610
aI38343810
aS'-'
asS'RHBDF2'
p2304
(lp2305
I76471069
aI76501790
aS'-'
asS'KRTAP9-12P'
p2306
(lp2307
I41212706
aI41213237
aS'+'
asS'ZNF750'
p2308
(lp2309
I82829435
aI82840578
aS'-'
asS'MEIOC'
p2310
(lp2311
I44668222
aI44690308
aS'+'
asS'ALOX12P1'
p2312
(lp2313
I30529688
aI30542416
aS'+'
asS'TBX2'
p2314
(lp2315
I61399910
aI61409466
aS'+'
asS'TBX4'
p2316
(lp2317
I61452418
aI61485110
aS'+'
asS'AC139149.2'
p2318
(lp2319
I81513063
aI81513184
aS'+'
asS'AC217777.1'
p2320
(lp2321
I46372855
aI46487141
aS'+'
asS'AC091132.3'
p2322
(lp2323
I45553710
aI45559070
aS'-'
asS'AC004686.1'
p2324
(lp2325
I59885015
aI59885552
aS'+'
asS'JMJD6'
p2326
(lp2327
I76712832
aI76726799
aS'-'
asS'LHX1'
p2328
(lp2329
I36937475
aI36944612
aS'+'
asS'RPL29P2'
p2330
(lp2331
I7754320
aI7754976
aS'+'
asS'ARL5C'
p2332
(lp2333
I39156894
aI39165760
aS'-'
asS'ERN1'
p2334
(lp2335
I64039142
aI64130125
aS'-'
asS'FAM106A'
p2336
(lp2337
I18524566
aI18526846
aS'-'
asS'ACACA'
p2338
(lp2339
I37084988
aI37406780
aS'-'
asS'SLFN14'
p2340
(lp2341
I35548125
aI35558098
aS'-'
asS'YWHAEP7'
p2342
(lp2343
I37842949
aI37884743
aS'-'
asS'SLFN11'
p2344
(lp2345
I35350305
aI35373620
aS'-'
asS'SLFN12'
p2346
(lp2347
I35411071
aI35433283
aS'-'
asS'SLFN13'
p2348
(lp2349
I35435096
aI35448837
aS'-'
asS'OR1E2'
p2350
(lp2351
I3432870
aI3433841
aS'-'
asS'OR1E3'
p2352
(lp2353
I3116423
aI3117366
aS'+'
asS'OR1E1'
p2354
(lp2355
I3397104
aI3398410
aS'-'
asS'RAD51D'
p2356
(lp2357
I35092208
aI35119869
aS'-'
asS'RAD51C'
p2358
(lp2359
I58692573
aI58735611
aS'+'
asS'AC023934.1'
p2360
(lp2361
I53952936
aI53955324
aS'+'
asS'EZH1'
p2362
(lp2363
I42700275
aI42745042
aS'-'
asS'KRTAP16-1'
p2364
(lp2365
I41307700
aI41309253
aS'-'
asS'AC015908.1'
p2366
(lp2367
I10745553
aI10746543
aS'-'
asS'THA1P'
p2368
(lp2369
I78248493
aI78254416
aS'-'
asS'MTND2P13'
p2370
(lp2371
I22525899
aI22526937
aS'+'
asS'RNF126P1'
p2372
(lp2373
I57045478
aI57046797
aS'+'
asS'AATK-AS1'
p2374
(lp2375
I81165507
aI81183164
aS'+'
asS'MPRIP'
p2376
(lp2377
I17042760
aI17192648
aS'+'
asS'AC087393.3'
p2378
(lp2379
I20981489
aI20981654
aS'+'
asS'AC087393.1'
p2380
(lp2381
I20983902
aI20984046
aS'+'
asS'MIEN1'
p2382
(lp2383
I39728496
aI39730494
aS'-'
asS'KRTAP29-1'
p2384
(lp2385
I41301826
aI41302851
aS'-'
asS'MLLT6'
p2386
(lp2387
I38705542
aI38729803
aS'+'
asS'PHOSPHO1'
p2388
(lp2389
I49223370
aI49230766
aS'-'
asS'KRT12'
p2390
(lp2391
I40861303
aI40867210
aS'-'
asS'ZNHIT3'
p2392
(lp2393
I36486678
aI36499310
aS'+'
asS'C17orf62'
p2394
(lp2395
I82442643
aI82450829
aS'-'
asS'AC023389.2'
p2396
(lp2397
I29775747
aI29776701
aS'-'
asS'STAC2'
p2398
(lp2399
I39210536
aI39225872
aS'-'
asS'DRG2'
p2400
(lp2401
I18087886
aI18107971
aS'+'
asS'SPOP'
p2402
(lp2403
I49598886
aI49678163
aS'-'
asS'MYBBP1A'
p2404
(lp2405
I4538902
aI4555631
aS'-'
asS'PLEKHM1P1'
p2406
(lp2407
I64779259
aI64837139
aS'-'
asS'KRT19'
p2408
(lp2409
I41523617
aI41528308
aS'-'
asS'AC131055.1'
p2410
(lp2411
I22606388
aI22606703
aS'+'
asS'AC131055.2'
p2412
(lp2413
I22567423
aI22568713
aS'-'
asS'AC011933.1'
p2414
(lp2415
I75338827
aI75339147
aS'+'
asS'AC027801.3'
p2416
(lp2417
I49939122
aI49939819
aS'+'
asS'AC005822.1'
p2418
(lp2419
I16616848
aI16617881
aS'-'
asS'LYRM9'
p2420
(lp2421
I27878358
aI27893359
aS'-'
asS'MRC2'
p2422
(lp2423
I62627401
aI62693597
aS'+'
asS'OR1A1'
p2424
(lp2425
I3215621
aI3216550
aS'+'
asS'AC003102.2'
p2426
(lp2427
I44228760
aI44230228
aS'-'
asS'ANAPC11'
p2428
(lp2429
I81890790
aI81900255
aS'+'
asS'FLII'
p2430
(lp2431
I18244836
aI18258916
aS'-'
asS'TTYH2'
p2432
(lp2433
I74213514
aI74262020
aS'+'
asS'LRRC37A'
p2434
(lp2435
I46292733
aI46337792
aS'+'
asS'LRRC37B'
p2436
(lp2437
I32007988
aI32053486
aS'+'
asS'KRT28'
p2438
(lp2439
I40792203
aI40799959
aS'-'
asS'SPAG9'
p2440
(lp2441
I50962174
aI51120865
aS'-'
asS'SPAG7'
p2442
(lp2443
I4959228
aI4967872
aS'-'
asS'COG1'
p2444
(lp2445
I73192632
aI73208503
aS'+'
asS'SPAG5'
p2446
(lp2447
I28577574
aI28599279
aS'-'
asS'KRT26'
p2448
(lp2449
I40766238
aI40772162
aS'-'
asS'KRT27'
p2450
(lp2451
I40776808
aI40782534
aS'-'
asS'KRT24'
p2452
(lp2453
I40697991
aI40703750
aS'-'
asS'KRT25'
p2454
(lp2455
I40748021
aI40755332
aS'-'
asS'PCGF2'
p2456
(lp2457
I38733898
aI38749817
aS'-'
asS'UBB'
p2458
(lp2459
I16380799
aI16382740
aS'+'
asS'ELP5'
p2460
(lp2461
I7252053
aI7259931
aS'+'
asS'TBC1D3P2'
p2462
(lp2463
I62264705
aI62275627
aS'-'
asS'PTGES3L'
p2464
(lp2465
I42968104
aI42980433
aS'-'
asS'DPRXP4'
p2466
(lp2467
I30975387
aI30975954
aS'+'
asS'AANAT'
p2468
(lp2469
I76453351
aI76470117
aS'+'
asS'RPL23AP74'
p2470
(lp2471
I61069871
aI61070341
aS'+'
asS'RPL23AP75'
p2472
(lp2473
I40439467
aI40439917
aS'-'
asS'RPL23AP76'
p2474
(lp2475
I14947741
aI14948198
aS'-'
asS'RPL23AP73'
p2476
(lp2477
I6749718
aI6750188
aS'+'
asS'PCTP'
p2478
(lp2479
I55751094
aI55823090
aS'+'
asS'RNF222'
p2480
(lp2481
I8390709
aI8397826
aS'-'
asS'NPEPPS'
p2482
(lp2483
I47522957
aI47622006
aS'+'
asS'C1QL1'
p2484
(lp2485
I44959693
aI44968071
aS'-'
asS'TMEM98'
p2486
(lp2487
I32928204
aI32945106
aS'+'
asS'TMEM99'
p2488
(lp2489
I40819125
aI40836270
aS'+'
asS'SIRT7'
p2490
(lp2491
I81914087
aI81921323
aS'-'
asS'GSG1L2'
p2492
(lp2493
I9802386
aI9822071
aS'-'
asS'ODF4'
p2494
(lp2495
I8339864
aI8346046
aS'+'
asS'TMEM92'
p2496
(lp2497
I50271406
aI50281485
aS'+'
asS'PTGES3L-AARSD1'
p2498
(lp2499
I42950550
aI42980528
aS'-'
asS'TMEM97'
p2500
(lp2501
I28319095
aI28328685
aS'+'
asS'TMEM94'
p2502
(lp2503
I75441159
aI75486380
aS'+'
asS'TMEM95'
p2504
(lp2505
I7355123
aI7357218
aS'+'
asS'TRIM47'
p2506
(lp2507
I75874161
aI75878575
aS'-'
asS'CARD14'
p2508
(lp2509
I80170012
aI80209331
aS'+'
asS'MYO15A'
p2510
(lp2511
I18108706
aI18179802
aS'+'
asS'AC005829.1'
p2512
(lp2513
I46267412
aI46268694
aS'+'
asS'FAM57A'
p2514
(lp2515
I732412
aI742972
aS'+'
asS'HNRNPA1P19'
p2516
(lp2517
I20771058
aI20771427
aS'-'
asS'KRTAP4-3'
p2518
(lp2519
I41167231
aI41168194
aS'-'
asS'ACTG1P24'
p2520
(lp2521
I17242010
aI17242886
aS'+'
asS'HNRNPA1P16'
p2522
(lp2523
I2306761
aI2307715
aS'+'
asS'ACE'
p2524
(lp2525
I63477061
aI63498380
aS'+'
asS'AC015795.1'
p2526
(lp2527
I49795343
aI49795669
aS'+'
asS'AC109327.2'
p2528
(lp2529
I80602549
aI80602926
aS'-'
asS'ISCA1P3'
p2530
(lp2531
I54477796
aI54478168
aS'+'
asS'KRT41P'
p2532
(lp2533
I41406512
aI41411775
aS'-'
asS'AC109327.1'
p2534
(lp2535
I80542203
aI80542605
aS'+'
asS'ATP5H'
p2536
(lp2537
I75038863
aI75046985
aS'-'
asS'AC111186.1'
p2538
(lp2539
I75060491
aI75060620
aS'-'
asS'RASD1'
p2540
(lp2541
I17494437
aI17496393
aS'-'
asS'GPR142'
p2542
(lp2543
I74367407
aI74372622
aS'+'
asS'AC090286.3'
p2544
(lp2545
I18986148
aI18986334
aS'-'
asS'TBC1D3'
p2546
(lp2547
I38181659
aI38192541
aS'-'
asS'AFMID'
p2548
(lp2549
I78187317
aI78207701
aS'+'
asS'KDM6B'
p2550
(lp2551
I7839904
aI7854796
aS'+'
asS'FGF11'
p2552
(lp2553
I7439027
aI7444937
aS'+'
asS'INCA1'
p2554
(lp2555
I4988130
aI4997610
aS'-'
asS'UNC13D'
p2556
(lp2557
I75827225
aI75844717
aS'-'
asS'SNRPGP17'
p2558
(lp2559
I59281130
aI59281343
aS'+'
asS'FAM187A'
p2560
(lp2561
I44899774
aI44905390
aS'+'
asS'TNFRSF13B'
p2562
(lp2563
I16929816
aI16972087
aS'-'
asS'WSCD1'
p2564
(lp2565
I5772926
aI6080792
aS'+'
asS'KRT20'
p2566
(lp2567
I40875941
aI40885227
aS'-'
asS'PPP1R27'
p2568
(lp2569
I81833498
aI81835050
aS'-'
asS'AC073621.2'
p2570
(lp2571
I17422681
aI17423704
aS'+'
asS'AC073621.1'
p2572
(lp2573
I17383377
aI17384012
aS'-'
asS'MYL6P5'
p2574
(lp2575
I71620978
aI71621436
aS'+'
asS'GLP2R'
p2576
(lp2577
I9822206
aI9890034
aS'+'
asS'AC005730.1'
p2578
(lp2579
I20056287
aI20056630
aS'+'
asS'RUNDC3A'
p2580
(lp2581
I44308413
aI44318670
aS'+'
asS'CNTNAP1'
p2582
(lp2583
I42682613
aI42699814
aS'+'
asS'SRP68P2'
p2584
(lp2585
I18527557
aI18528461
aS'+'
asS'SRCIN1'
p2586
(lp2587
I38530016
aI38605930
aS'-'
asS'TSR1'
p2588
(lp2589
I2322503
aI2337507
aS'-'
asS'SLC9A3R1'
p2590
(lp2591
I74748652
aI74769353
aS'+'
asS'LSM12'
p2592
(lp2593
I44034635
aI44067619
aS'-'
asS'AC006441.2'
p2594
(lp2595
I38996323
aI38996624
aS'-'
asS'TUBG2'
p2596
(lp2597
I42659305
aI42667006
aS'+'
asS'SRP68P3'
p2598
(lp2599
I20415792
aI20416697
aS'-'
asS'UBE2G1'
p2600
(lp2601
I4269259
aI4366482
aS'-'
asS'HILS1'
p2602
(lp2603
I50171428
aI50181178
aS'-'
asS'ULK2'
p2604
(lp2605
I19770830
aI19867936
aS'-'
asS'KCNJ12'
p2606
(lp2607
I21376197
aI21419872
aS'+'
asS'NAGS'
p2608
(lp2609
I44004546
aI44009060
aS'+'
asS'KCNJ18'
p2610
(lp2611
I21692523
aI21704612
aS'+'
asS'GGT6'
p2612
(lp2613
I4556927
aI4560581
aS'-'
asS'FBF1'
p2614
(lp2615
I75909574
aI75941038
aS'-'
asS'AC087645.1'
p2616
(lp2617
I78211618
aI78211908
aS'-'
asS'TIAF1'
p2618
(lp2619
I29073521
aI29078857
aS'-'
asS'CCDC144NL'
p2620
(lp2621
I20863395
aI20896140
aS'-'
asS'C1QTNF1'
p2622
(lp2623
I79022934
aI79049787
aS'+'
asS'CFAP52'
p2624
(lp2625
I9576627
aI9643459
aS'+'
asS'TLCD2'
p2626
(lp2627
I1702790
aI1710438
aS'-'
asS'BPTF'
p2628
(lp2629
I67825664
aI67984378
aS'+'
asS'PGAP3'
p2630
(lp2631
I39671122
aI39688107
aS'-'
asS'TLCD1'
p2632
(lp2633
I28724599
aI28727935
aS'-'
asS'IFT20'
p2634
(lp2635
I28328325
aI28335489
aS'-'
asS'C17orf75'
p2636
(lp2637
I32334491
aI32350023
aS'-'
asS'C17orf74'
p2638
(lp2639
I7425615
aI7427568
aS'+'
asS'POLG2'
p2640
(lp2641
I64477785
aI64497036
aS'-'
asS'CPD'
p2642
(lp2643
I30378905
aI30469989
aS'+'
asS'AC024619.4'
p2644
(lp2645
I29021325
aI29021640
aS'-'
asS'MFAP4'
p2646
(lp2647
I19383442
aI19387240
aS'-'
asS'AC103810.10'
p2648
(lp2649
I64847386
aI64847728
aS'+'
asS'GABARAP'
p2650
(lp2651
I7240014
aI7242770
aS'-'
asS'AC005412.2'
p2652
(lp2653
I29340482
aI29340822
aS'-'
asS'AC005412.3'
p2654
(lp2655
I29197071
aI29197785
aS'-'
asS'DOC2B'
p2656
(lp2657
I142789
aI181636
aS'-'
asS'AC090616.2'
p2658
(lp2659
I32083179
aI32096989
aS'+'
asS'AC090616.3'
p2660
(lp2661
I32003203
aI32006688
aS'-'
asS'WIPI1'
p2662
(lp2663
I68421309
aI68457499
aS'-'
asS'AC090616.6'
p2664
(lp2665
I32040884
aI32042828
aS'+'
asS'AC090616.4'
p2666
(lp2667
I32024469
aI32024583
aS'-'
asS'AC090616.5'
p2668
(lp2669
I32088160
aI32094933
aS'-'
asS'SMARCD2'
p2670
(lp2671
I63832084
aI63842940
aS'-'
asS'AC115989.1'
p2672
(lp2673
I19615789
aI19633132
aS'+'
asS'PRR11'
p2674
(lp2675
I59155746
aI59204705
aS'+'
asS'DLX3'
p2676
(lp2677
I49990005
aI49995224
aS'-'
asS'TNFSF13'
p2678
(lp2679
I7558292
aI7561608
aS'+'
asS'TNFSF12'
p2680
(lp2681
I7548891
aI7557890
aS'+'
asS'RASL10B'
p2682
(lp2683
I35731649
aI35743521
aS'+'
asS'TSPOAP1'
p2684
(lp2685
I58301231
aI58328760
aS'-'
asS'CRYBA1'
p2686
(lp2687
I29246863
aI29254483
aS'+'
asS'SOX15'
p2688
(lp2689
I7588178
aI7590170
aS'-'
asS'EFTUD2'
p2690
(lp2691
I44849943
aI44899662
aS'-'
asS'AC005410.1'
p2692
(lp2693
I11998353
aI12021508
aS'-'
asS'ABCA5'
p2694
(lp2695
I69244311
aI69327101
aS'-'
asS'AC006070.1'
p2696
(lp2697
I41186944
aI41187136
aS'-'
asS'AC069454.1'
p2698
(lp2699
I49148339
aI49149111
aS'-'
asS'CDK5RAP3'
p2700
(lp2701
I47970534
aI47981772
aS'+'
asS'AC015917.1'
p2702
(lp2703
I28444063
aI28445563
aS'-'
asS'UBALD2'
p2704
(lp2705
I76265202
aI76271299
aS'+'
asS'TNK1'
p2706
(lp2707
I7380534
aI7389774
aS'+'
asS'RPL23AP87'
p2708
(lp2709
I83226897
aI83240804
aS'+'
asS'AC005962.1'
p2710
(lp2711
I58157028
aI58157800
aS'+'
asS'KRT17'
p2712
(lp2713
I41619437
aI41624577
aS'-'
asS'KRT16'
p2714
(lp2715
I41612543
aI41615899
aS'-'
asS'KRT15'
p2716
(lp2717
I41513743
aI41522413
aS'-'
asS'KRT14'
p2718
(lp2719
I41582279
aI41586921
aS'-'
asS'KRT13'
p2720
(lp2721
I41500981
aI41505597
aS'-'
asS'PDE6G'
p2722
(lp2723
I81650740
aI81663104
aS'-'
asS'KRT10'
p2724
(lp2725
I40818117
aI40822595
aS'-'
asS'EFCAB5'
p2726
(lp2727
I29941605
aI30108452
aS'+'
asS'EIF4A1'
p2728
(lp2729
I7572826
aI7579005
aS'+'
asS'EFCAB3'
p2730
(lp2731
I62355864
aI62416476
aS'+'
asS'HES7'
p2732
(lp2733
I8120590
aI8124084
aS'-'
asS'TMEM88'
p2734
(lp2735
I7855065
aI7856099
aS'+'
asS'HSD17B1P1'
p2736
(lp2737
I42546764
aI42548706
aS'+'
asS'LINC00854'
p2738
(lp2739
I43221429
aI43303256
aS'-'
asS'SLC4A1'
p2740
(lp2741
I44248385
aI44268141
aS'-'
asS'TAF15'
p2742
(lp2743
I35713791
aI35838553
aS'+'
asS'CACNA1G'
p2744
(lp2745
I50561068
aI50627465
aS'+'
asS'CDC6'
p2746
(lp2747
I40287633
aI40304657
aS'+'
asS'ASPA'
p2748
(lp2749
I3476002
aI3503419
aS'+'
asS'AC005829.2'
p2750
(lp2751
I46259551
aI46260606
aS'-'
asS'UBE2SP1'
p2752
(lp2753
I15704232
aI15704900
aS'-'
asS'SAP30BP'
p2754
(lp2755
I75667116
aI75708059
aS'+'
asS'MRPL45P2'
p2756
(lp2757
I47450568
aI47492492
aS'-'
asS'NAT9'
p2758
(lp2759
I74770547
aI74776331
aS'-'
asS'AC060780.3'
p2760
(lp2761
I43168170
aI43168249
aS'-'
asS'MXRA7'
p2762
(lp2763
I76672551
aI76710955
aS'-'
asS'AC138761.5'
p2764
(lp2765
I22301333
aI22301657
aS'-'
asS'EEF1DP7'
p2766
(lp2767
I63636601
aI63637113
aS'+'
asS'ABCA6'
p2768
(lp2769
I69078702
aI69141874
aS'-'
asS'SSTR2'
p2770
(lp2771
I73165012
aI73176633
aS'+'
asS'ZNF18'
p2772
(lp2773
I11977439
aI11997510
aS'-'
asS'ABCA8'
p2774
(lp2775
I68867292
aI68955392
aS'-'
asS'ABCA9'
p2776
(lp2777
I68974488
aI69061064
aS'-'
asS'TEPSIN'
p2778
(lp2779
I81228277
aI81239091
aS'-'
asS'TMEM256'
p2780
(lp2781
I7402975
aI7404137
aS'-'
asS'KRT16P4'
p2782
(lp2783
I18450637
aI18475920
aS'+'
asS'PSMD3'
p2784
(lp2785
I39980797
aI39997960
aS'+'
asS'AC060780.2'
p2786
(lp2787
I43169880
aI43170077
aS'-'
asS'MFSD6L'
p2788
(lp2789
I8797162
aI8799349
aS'-'
asS'NGFR'
p2790
(lp2791
I49495293
aI49515017
aS'+'
asS'AC005837.2'
p2792
(lp2793
I76732978
aI76738522
aS'+'
asS'RPTOR'
p2794
(lp2795
I80545268
aI80966368
aS'+'
asS'TM4SF5'
p2796
(lp2797
I4771884
aI4783213
aS'+'
asS'OR3A1'
p2798
(lp2799
I3291635
aI3292600
aS'-'
asS'OR3A2'
p2800
(lp2801
I3277899
aI3278974
aS'-'
asS'OR3A3'
p2802
(lp2803
I3420568
aI3421533
aS'+'
asS'HSD17B1'
p2804
(lp2805
I42549214
aI42555213
aS'+'
asS'KCTD9P1'
p2806
(lp2807
I20111824
aI20112990
aS'+'
asS'NOS2'
p2808
(lp2809
I27756766
aI27800499
aS'-'
asS'TTLL6'
p2810
(lp2811
I48762241
aI48817214
aS'-'
asS'ITGB4'
p2812
(lp2813
I75721436
aI75757818
aS'+'
asS'KPNB1'
p2814
(lp2815
I47649838
aI47685505
aS'+'
asS'HGS'
p2816
(lp2817
I81683932
aI81702119
aS'+'
asS'ABR'
p2818
(lp2819
I1003527
aI1187322
aS'-'
asS'OR1G1'
p2820
(lp2821
I3126584
aI3127581
aS'-'
asS'ST6GALNAC1'
p2822
(lp2823
I76624763
aI76643838
aS'-'
asS'AC209154.1'
p2824
(lp2825
I22411893
aI22412229
aS'-'
asS'TNPO1P3'
p2826
(lp2827
I20481330
aI20483991
aS'-'
asS'PRCD'
p2828
(lp2829
I76527586
aI76553578
aS'+'
asS'AC005341.1'
p2830
(lp2831
I53353427
aI53354134
aS'-'
asS'TSPAN10'
p2832
(lp2833
I81637198
aI81648748
aS'+'
asS'SLC25A19'
p2834
(lp2835
I75272981
aI75289449
aS'-'
asS'SLC25A11'
p2836
(lp2837
I4937130
aI4940251
aS'-'
asS'SLC25A10'
p2838
(lp2839
I81712236
aI81721016
aS'+'
asS'HIC1'
p2840
(lp2841
I2055099
aI2063241
aS'+'
asS'NFE2L1'
p2842
(lp2843
I48048363
aI48061487
aS'+'
asS'AC132812.2'
p2844
(lp2845
I64747264
aI64747492
aS'-'
asS'AC132812.1'
p2846
(lp2847
I64750420
aI64751311
aS'+'
asS'P3H4'
p2848
(lp2849
I41801947
aI41812603
aS'-'
asS'SHMT1'
p2850
(lp2851
I18327860
aI18363563
aS'-'
asS'C17orf47'
p2852
(lp2853
I58541587
aI58544368
aS'-'
asS'AC027796.3'
p2854
(lp2855
I3585149
aI3636249
aS'-'
asS'TMUB2'
p2856
(lp2857
I44186986
aI44191730
aS'+'
asS'RFLNB'
p2858
(lp2859
I439978
aI445939
aS'-'
asS'XYLT2'
p2860
(lp2861
I50346135
aI50363138
aS'+'
asS'C17orf49'
p2862
(lp2863
I7014495
aI7017375
aS'+'
asS'LPO'
p2864
(lp2865
I58218548
aI58268226
aS'+'
asS'SCGB1C2'
p2866
(lp2867
I137526
aI139067
aS'+'
asS'HMGN1P28'
p2868
(lp2869
I60851382
aI60851745
aS'+'
asS'MTRNR2L1'
p2870
(lp2871
I22523111
aI22524663
aS'+'
asS'SUMO2P7'
p2872
(lp2873
I50235845
aI50236129
aS'+'
asS'AC090079.1'
p2874
(lp2875
I53434131
aI53435829
aS'+'
asS'AC090079.2'
p2876
(lp2877
I53438556
aI53439721
aS'+'
asS'ITGB3'
p2878
(lp2879
I47253846
aI47311816
aS'+'
asS'TEFM'
p2880
(lp2881
I30898983
aI30906820
aS'-'
asS'EIF4A3'
p2882
(lp2883
I80135214
aI80147183
aS'-'
asS'SMARCE1'
p2884
(lp2885
I40624962
aI40648508
aS'-'
asS'ARL4D'
p2886
(lp2887
I43398959
aI43401137
aS'+'
asS'LRRC75A'
p2888
(lp2889
I16442014
aI16492153
aS'-'
asS'ADORA2B'
p2890
(lp2891
I15944917
aI15975746
aS'+'
asS'YPEL2'
p2892
(lp2893
I59331702
aI59401729
aS'+'
asS'FTSJ3'
p2894
(lp2895
I63819433
aI63827671
aS'-'
asS'AC005495.1'
p2896
(lp2897
I69094289
aI69095499
aS'-'
asS'DERL2'
p2898
(lp2899
I5471251
aI5486217
aS'-'
asS'PRR29'
p2900
(lp2901
I63998351
aI64004304
aS'+'
asS'AC134669.1'
p2902
(lp2903
I31345519
aI31346190
aS'+'
asS'PLXDC1'
p2904
(lp2905
I39063303
aI39151649
aS'-'
asS'CLDN7'
p2906
(lp2907
I7260821
aI7263983
aS'-'
asS'SMYD4'
p2908
(lp2909
I1779485
aI1829881
aS'-'
asS'AC243829.7'
p2910
(lp2911
I36161607
aI36162926
aS'+'
asS'YWHAEP3'
p2912
(lp2913
I20491323
aI20491443
aS'-'
asS'KIF18B'
p2914
(lp2915
I44924709
aI44947637
aS'-'
asS'SARM1'
p2916
(lp2917
I28364356
aI28398135
aS'+'
asS'SMIM6'
p2918
(lp2919
I75646243
aI75647975
aS'+'
asS'RDM1'
p2920
(lp2921
I35918066
aI35930773
aS'-'
asS'CLEC10A'
p2922
(lp2923
I7074537
aI7080307
aS'-'
asS'EFNB3'
p2924
(lp2925
I7705202
aI7711378
aS'+'
asS'AC026254.3'
p2926
(lp2927
I27281094
aI27281415
aS'+'
asS'AC026254.2'
p2928
(lp2929
I27274107
aI27274477
aS'+'
asS'HDAC5'
p2930
(lp2931
I44076746
aI44123638
aS'-'
asS'AC026254.4'
p2932
(lp2933
I27351858
aI27352584
aS'-'
asS'CHAD'
p2934
(lp2935
I50464498
aI50468966
aS'-'
asS'RUNDC1'
p2936
(lp2937
I42980565
aI42993690
aS'+'
asS'AC130289.2'
p2938
(lp2939
I27708111
aI27708138
aS'+'
asS'AC130289.1'
p2940
(lp2941
I27707178
aI27707250
aS'+'
asS'CBX8'
p2942
(lp2943
I79795204
aI79801533
aS'-'
asS'CBX4'
p2944
(lp2945
I79833156
aI79839429
aS'-'
asS'ATXN7L3'
p2946
(lp2947
I44191805
aI44198379
aS'-'
asS'CBX2'
p2948
(lp2949
I79778132
aI79787983
aS'+'
asS'CBX1'
p2950
(lp2951
I48070052
aI48101521
aS'-'
asS'NLRP1'
p2952
(lp2953
I5499427
aI5584509
aS'-'
asS'UPF3AP1'
p2954
(lp2955
I16745636
aI16746761
aS'-'
asS'UPF3AP2'
p2956
(lp2957
I20375709
aI20376840
aS'-'
asS'C1QBP'
p2958
(lp2959
I5433019
aI5448830
aS'-'
asS'ST6GALNAC2'
p2960
(lp2961
I76565379
aI76586128
aS'-'
asS'CYB5D1'
p2962
(lp2963
I7857983
aI7862282
aS'+'
asS'ADAP2'
p2964
(lp2965
I30921680
aI30959322
aS'+'
asS'MGAT5B'
p2966
(lp2967
I76868456
aI76950377
aS'+'
asS'AC104581.2'
p2968
(lp2969
I7954868
aI7955622
aS'+'
asS'KLHL10'
p2970
(lp2971
I41837780
aI41848384
aS'+'
asS'KLHL11'
p2972
(lp2973
I41853545
aI41865431
aS'-'
asS'NAGLU'
p2974
(lp2975
I42536172
aI42544449
aS'+'
asS'SPATA32'
p2976
(lp2977
I45254393
aI45262112
aS'-'
asS'AC022966.1'
p2978
(lp2979
I78845953
aI78846868
aS'-'
asS'AC099850.2'
p2980
(lp2981
I59197566
aI59215226
aS'+'
asS'IGF2BP1'
p2982
(lp2983
I48997412
aI49055650
aS'+'
asS'UNK'
p2984
(lp2985
I75784771
aI75825799
aS'+'
asS'TRIM65'
p2986
(lp2987
I75880335
aI75892303
aS'-'
asS'OMG'
p2988
(lp2989
I31272449
aI31297230
aS'-'
asS'KIF1C'
p2990
(lp2991
I4997948
aI5028401
aS'+'
asS'AC002094.3'
p2992
(lp2993
I28364288
aI28368012
aS'-'
asS'AC005921.1'
p2994
(lp2995
I50797366
aI50797651
aS'-'
asS'MILR1'
p2996
(lp2997
I64449115
aI64468642
aS'+'
asS'DUSP3'
p2998
(lp2999
I43766121
aI43778988
aS'-'
asS'AATK'
p3000
(lp3001
I81117298
aI81166072
aS'-'
asS'KRT43P'
p3002
(lp3003
I41448183
aI41454055
aS'-'
asS'AC104763.1'
p3004
(lp3005
I60245288
aI60245647
aS'-'
asS'USP6'
p3006
(lp3007
I5116438
aI5174991
aS'+'
asS'AC104763.2'
p3008
(lp3009
I60315834
aI60316215
aS'+'
asS'SOX9'
p3010
(lp3011
I72121020
aI72126420
aS'+'
asS'UNC119'
p3012
(lp3013
I28546707
aI28552668
aS'-'
asS'DVL2'
p3014
(lp3015
I7225341
aI7234545
aS'-'
asS'MED11'
p3016
(lp3017
I4731434
aI4733610
aS'+'
asS'MED13'
p3018
(lp3019
I61942605
aI62065282
aS'-'
asS'SUZ12'
p3020
(lp3021
I31937018
aI32001045
aS'+'
asS'ATF4P3'
p3022
(lp3023
I76225751
aI76226806
aS'-'
asS'INTS2'
p3024
(lp3025
I61865370
aI61928016
aS'-'
asS'PSME3'
p3026
(lp3027
I42824426
aI42843239
aS'+'
asS'CTNS'
p3028
(lp3029
I3636468
aI3661538
aS'+'
asS'AC004706.3'
p3030
(lp3031
I6657034
aI6693211
aS'+'
asS'SRP68P1'
p3032
(lp3033
I16787235
aI16788141
aS'-'
asS'CACNG1'
p3034
(lp3035
I67044590
aI67056797
aS'+'
asS'CACNG4'
p3036
(lp3037
I66964910
aI67033398
aS'+'
asS'CACNG5'
p3038
(lp3039
I66835117
aI66885486
aS'+'
asS'ZNF652'
p3040
(lp3041
I49289208
aI49361993
aS'-'
asS'CDRT15'
p3042
(lp3043
I14235673
aI14236862
aS'-'
asS'HSF5'
p3044
(lp3045
I58420167
aI58488384
aS'-'
asS'CRLF3'
p3046
(lp3047
I30782684
aI30824776
aS'-'
asS'MYL4'
p3048
(lp3049
I47200446
aI47223672
aS'+'
asS'AC006269.1'
p3050
(lp3051
I55448433
aI55511444
aS'-'
asS'TCAM1P'
p3052
(lp3053
I63849292
aI63862531
aS'+'
asS'SLC35G3'
p3054
(lp3055
I35192520
aI35194523
aS'-'
asS'SLC35G6'
p3056
(lp3057
I7481332
aI7483496
aS'+'
asS'MPP3'
p3058
(lp3059
I43801418
aI43833170
aS'-'
asS'MPP2'
p3060
(lp3061
I43875363
aI43909711
aS'-'
asS'GJD3'
p3062
(lp3063
I40362931
aI40363815
aS'-'
asS'PRPSAP1'
p3064
(lp3065
I76330552
aI76384521
aS'-'
asS'PRPSAP2'
p3066
(lp3067
I18856299
aI18931287
aS'+'
asS'OLA1P2'
p3068
(lp3069
I20775642
aI20776905
aS'+'
asS'KRTAP3-2'
p3070
(lp3071
I40999193
aI40999894
aS'-'
asS'KRTAP3-3'
p3072
(lp3073
I40993430
aI40994133
aS'-'
asS'KRTAP3-1'
p3074
(lp3075
I41008521
aI41019324
aS'-'
asS'ABBA01006766.2'
p3076
(lp3077
I22056587
aI22056755
aS'-'
asS'ABBA01006766.1'
p3078
(lp3079
I22061961
aI22070538
aS'-'
asS'KPNA2'
p3080
(lp3081
I68035519
aI68046842
aS'+'
asS'TRIM80P'
p3082
(lp3083
I75074306
aI75079549
aS'+'
asS'CRK'
p3084
(lp3085
I1423397
aI1463162
aS'-'
asS'B9D1'
p3086
(lp3087
I19337554
aI19378182
aS'-'
asS'EIF5A'
p3088
(lp3089
I7306999
aI7312463
aS'+'
asS'GARSP1'
p3090
(lp3091
I55550931
aI55551649
aS'-'
asS'AC120057.3'
p3092
(lp3093
I7240427
aI7244635
aS'-'
asS'MKS1'
p3094
(lp3095
I58205437
aI58219305
aS'-'
asS'AC124283.4'
p3096
(lp3097
I82576616
aI82577391
aS'-'
asS'BECN1'
p3098
(lp3099
I42810134
aI42824278
aS'-'
asS'DHRS11'
p3100
(lp3101
I36591798
aI36600806
aS'+'
asS'ACSF2'
p3102
(lp3103
I50426158
aI50474835
aS'+'
asS'DHRS13'
p3104
(lp3105
I28897781
aI28903071
aS'-'
asS'AC244093.2'
p3106
(lp3107
I37162616
aI37163139
aS'+'
asS'AC244093.1'
p3108
(lp3109
I37140611
aI37141424
aS'-'
asS'AC011840.4'
p3110
(lp3111
I30553697
aI30558962
aS'+'
asS'AC015849.6'
p3112
(lp3113
I35861093
aI35861566
aS'-'
asS'SMTNL2'
p3114
(lp3115
I4583999
aI4608319
aS'+'
asS'ASPSCR1'
p3116
(lp3117
I81977550
aI82017406
aS'+'
asS'CCDC137'
p3118
(lp3119
I81666364
aI81673899
aS'+'
asS'RBFOX3'
p3120
(lp3121
I79090816
aI79516148
aS'-'
asS'GALK1'
p3122
(lp3123
I75751594
aI75765236
aS'-'
asS'SPACA3'
p3124
(lp3125
I32970376
aI32997877
aS'+'
asS'AC012146.2'
p3126
(lp3127
I5060356
aI5062123
aS'+'
asS'C17orf58'
p3128
(lp3129
I67991101
aI67996431
aS'-'
asS'SMCO4P1'
p3130
(lp3131
I44645411
aI44645587
aS'+'
asS'C17orf51'
p3132
(lp3133
I21535050
aI21574458
aS'-'
asS'C17orf50'
p3134
(lp3135
I35760910
aI35765079
aS'+'
asS'C17orf53'
p3136
(lp3137
I44141906
aI44162476
aS'+'
asS'AC091178.2'
p3138
(lp3139
I39033926
aI39034042
aS'-'
asS'GGNBP2'
p3140
(lp3141
I36544888
aI36589848
aS'+'
asS'AC091178.1'
p3142
(lp3143
I39057052
aI39112239
aS'+'
asS'FAAP100'
p3144
(lp3145
I81539885
aI81552377
aS'-'
asS'AC126365.2'
p3146
(lp3147
I20789217
aI20789595
aS'-'
asS'AC087499.3'
p3148
(lp3149
I20716483
aI20737127
aS'+'
asS'AC087499.2'
p3150
(lp3151
I20609462
aI20609610
aS'-'
asS'AC087499.1'
p3152
(lp3153
I20589293
aI20590367
aS'+'
asS'CD7'
p3154
(lp3155
I82314870
aI82317602
aS'-'
asS'AC087499.7'
p3156
(lp3157
I20710425
aI20710533
aS'-'
asS'RHOT1'
p3158
(lp3159
I32142454
aI32225770
aS'+'
asS'AC087499.5'
p3160
(lp3161
I20612667
aI20614008
aS'+'
asS'CCR7'
p3162
(lp3163
I40553769
aI40565472
aS'-'
asS'KIAA0100'
p3164
(lp3165
I28614440
aI28645131
aS'-'
asS'BCAS3'
p3166
(lp3167
I60677852
aI61392831
aS'+'
asS'AC026271.2'
p3168
(lp3169
I18677261
aI18677757
aS'+'
asS'AC026271.3'
p3170
(lp3171
I18638019
aI18638370
aS'-'
asS'AC026271.1'
p3172
(lp3173
I18650195
aI18651542
aS'+'
asS'STAT3'
p3174
(lp3175
I42313324
aI42388568
aS'-'
asS'SNX11'
p3176
(lp3177
I48103357
aI48119164
aS'+'
asS'AC026271.5'
p3178
(lp3179
I18704640
aI18704769
aS'+'
asS'CHRNB1'
p3180
(lp3181
I7445061
aI7457707
aS'+'
asS'AC068234.1'
p3182
(lp3183
I47253897
aI47344292
aS'+'
asS'ICAM2'
p3184
(lp3185
I64002596
aI64020634
aS'-'
asS'AC004805.1'
p3186
(lp3187
I65538102
aI65641033
aS'-'
asS'AC004805.3'
p3188
(lp3189
I65644308
aI65644617
aS'+'
asS'AC004805.2'
p3190
(lp3191
I65654914
aI65655395
aS'+'
asS'CD68'
p3192
(lp3193
I7579467
aI7582113
aS'+'
asS'EFCAB13'
p3194
(lp3195
I47323981
aI47441312
aS'+'
asS'NEUROD2'
p3196
(lp3197
I39603536
aI39609777
aS'-'
asS'KRT223P'
p3198
(lp3199
I40719034
aI40721932
aS'-'
asS'SRP68'
p3200
(lp3201
I76039103
aI76072653
aS'-'
asS'SPATA22'
p3202
(lp3203
I3440022
aI3513852
aS'-'
asS'SPATA20'
p3204
(lp3205
I50543058
aI50555850
aS'+'
asS'MAP2K3'
p3206
(lp3207
I21284672
aI21315240
aS'+'
asS'ZMYND15'
p3208
(lp3209
I4740015
aI4746119
aS'+'
asS'MAP2K6'
p3210
(lp3211
I69414698
aI69543331
aS'+'
asS'MAP2K4'
p3212
(lp3213
I12020824
aI12143823
aS'+'
asS'MINK1'
p3214
(lp3215
I4833388
aI4898053
aS'+'
asS'LRRC37A17P'
p3216
(lp3217
I46978481
aI47049145
aS'+'
asS'KRT33B'
p3218
(lp3219
I41363494
aI41369800
aS'-'
asS'KRT33A'
p3220
(lp3221
I41346092
aI41350812
aS'-'
asS'AC027796.2'
p3222
(lp3223
I3619256
aI3619913
aS'-'
asS'PPY'
p3224
(lp3225
I43940804
aI43942468
aS'-'
asS'ATP5G1'
p3226
(lp3227
I48892765
aI48895871
aS'+'
asS'RPL7L1P5'
p3228
(lp3229
I44365014
aI44365751
aS'-'
asS'GAA'
p3230
(lp3231
I80101594
aI80119877
aS'+'
asS'ATP1B2'
p3232
(lp3233
I7646627
aI7655768
aS'+'
asS'PSMC3IP'
p3234
(lp3235
I42572323
aI42577831
aS'-'
asS'HSPB9'
p3236
(lp3237
I42121431
aI42123352
aS'+'
asS'ALDOC'
p3238
(lp3239
I28573115
aI28577264
aS'-'
asS'MYADML2'
p3240
(lp3241
I81939645
aI81947233
aS'-'
asS'AC015922.2'
p3242
(lp3243
I15792862
aI15793045
aS'+'
asS'AC015922.1'
p3244
(lp3245
I15829369
aI15908632
aS'+'
asS'TOM1L2'
p3246
(lp3247
I17843511
aI17972410
aS'-'
asS'MAPT'
p3248
(lp3249
I45894382
aI46028334
aS'+'
asS'SLFN5'
p3250
(lp3251
I35243036
aI35273655
aS'+'
asS'DNAH17'
p3252
(lp3253
I78423697
aI78577394
aS'-'
asS'SGK494'
p3254
(lp3255
I28610478
aI28614161
aS'-'
asS'NPM1P45'
p3256
(lp3257
I9852748
aI9853306
aS'-'
asS'NME1-NME2'
p3258
(lp3259
I51153590
aI51171744
aS'+'
asS'SCO1'
p3260
(lp3261
I10672474
aI10697568
aS'-'
asS'UTS2R'
p3262
(lp3263
I82374230
aI82375586
aS'+'
asS'AC110749.1'
p3264
(lp3265
I38855314
aI38855670
aS'+'
asS'ZFP3'
p3266
(lp3267
I5078248
aI5096374
aS'+'
asS'AC120024.3'
p3268
(lp3269
I80515657
aI80515812
aS'+'
asS'AC120024.2'
p3270
(lp3271
I80515215
aI80515389
aS'+'
asS'CSNK1D'
p3272
(lp3273
I82239727
aI82273428
aS'-'
asS'LIG3'
p3274
(lp3275
I34980494
aI35009743
aS'+'
asS'CCDC92B'
p3276
(lp3277
I2724411
aI2749504
aS'-'
asS'SCDP1'
p3278
(lp3279
I20784645
aI20785725
aS'+'
asS'ENPP7'
p3280
(lp3281
I79730919
aI79742222
aS'+'
asS'TMEM256-PLSCR3'
p3282
(lp3283
I7389734
aI7404097
aS'-'
asS'OR1A2'
p3284
(lp3285
I3197519
aI3198448
aS'+'
asS'NXN'
p3286
(lp3287
I799313
aI979770
aS'-'
asS'AC006534.1'
p3288
(lp3289
I67784753
aI67785293
aS'+'
asS'KCTD11'
p3290
(lp3291
I7352162
aI7354944
aS'+'
asS'SUPT4H1'
p3292
(lp3293
I58345247
aI58352423
aS'-'
asS'ZZEF1'
p3294
(lp3295
I4004445
aI4143020
aS'-'
asS'KRT42P'
p3296
(lp3297
I41626327
aI41640199
aS'-'
asS'ARRB2'
p3298
(lp3299
I4710489
aI4721471
aS'+'
asS'TOMM20P2'
p3300
(lp3301
I35514766
aI35515186
aS'-'
asS'AIPL1'
p3302
(lp3303
I6393693
aI6435079
aS'-'
asS'MTCO1P40'
p3304
(lp3305
I53105734
aI53106358
aS'+'
asS'RPL31P58'
p3306
(lp3307
I28802444
aI28802822
aS'+'
asS'SLC25A35'
p3308
(lp3309
I8287763
aI8295343
aS'-'
asS'CCDC144CP'
p3310
(lp3311
I20321317
aI20403557
aS'+'
asS'SLC25A39'
p3312
(lp3313
I44319625
aI44324870
aS'-'
asS'CHMP6'
p3314
(lp3315
I80994644
aI81009517
aS'+'
asS'PIK3R6'
p3316
(lp3317
I8802723
aI8867677
aS'-'
asS'PIK3R5'
p3318
(lp3319
I8878917
aI8965712
aS'-'
asS'ZNF287'
p3320
(lp3321
I16551387
aI16569206
aS'-'
asS'AC025627.2'
p3322
(lp3323
I19582116
aI19582275
aS'-'
asS'AC025627.3'
p3324
(lp3325
I19600860
aI19601345
aS'+'
asS'AC025627.4'
p3326
(lp3327
I19601840
aI19602256
aS'+'
asS'HEXIM1'
p3328
(lp3329
I45148502
aI45152101
aS'+'
asS'AC087742.1'
p3330
(lp3331
I4222091
aI4223828
aS'+'
asS'HEXIM2'
p3332
(lp3333
I45160700
aI45170040
aS'+'
asS'EVPL'
p3334
(lp3335
I76006845
aI76027452
aS'-'
asS'AC138761.1'
p3336
(lp3337
I22221221
aI22221605
aS'+'
asS'AC138761.2'
p3338
(lp3339
I22305671
aI22306013
aS'-'
asS'AC138761.3'
p3340
(lp3341
I22299134
aI22299467
aS'-'
asS'ETV4'
p3342
(lp3343
I43544976
aI43579620
aS'-'
asS'AC138761.6'
p3344
(lp3345
I22277867
aI22279289
aS'-'
asS'AC113554.1'
p3346
(lp3347
I63471604
aI63472093
aS'+'
asS'AC113554.2'
p3348
(lp3349
I63484823
aI63521848
aS'+'
asS'G6PC'
p3350
(lp3351
I42900798
aI42913369
aS'+'
asS'AL353996.1'
p3352
(lp3353
I16893198
aI16893429
aS'-'
asS'AC005899.2'
p3354
(lp3355
I32434939
aI32435028
aS'-'
asS'ABHD17AP6'
p3356
(lp3357
I20814620
aI20844257
aS'+'
asS'RTN4RL1'
p3358
(lp3359
I1934677
aI2025345
aS'-'
asS'AC130689.1'
p3360
(lp3361
I1858039
aI1858446
aS'-'
asS'TBC1D3B'
p3362
(lp3363
I36165681
aI36176595
aS'-'
asS'TBC1D3C'
p3364
(lp3365
I38057693
aI38068592
aS'-'
asS'NPLOC4'
p3366
(lp3367
I81556887
aI81637146
aS'-'
asS'IKZF3'
p3368
(lp3369
I39757715
aI39864188
aS'-'
asS'CCL7'
p3370
(lp3371
I34270221
aI34272242
aS'+'
asS'CCDC103'
p3372
(lp3373
I44899774
aI44905390
aS'+'
asS'BPTFP1'
p3374
(lp3375
I64761912
aI64762710
aS'-'
asS'TBC1D3F'
p3376
(lp3377
I36428618
aI36439566
aS'-'
asS'SMIM5'
p3378
(lp3379
I75633434
aI75641404
aS'+'
asS'GRAP'
p3380
(lp3381
I19020673
aI19047637
aS'-'
asS'CCL5'
p3382
(lp3383
I35871491
aI35880793
aS'-'
asS'FASN'
p3384
(lp3385
I82078333
aI82098332
aS'-'
asS'TBC1D3J'
p3386
(lp3387
I36450146
aI36457535
aS'-'
asS'MRM3'
p3388
(lp3389
I782273
aI792509
aS'+'
asS'MRM1'
p3390
(lp3391
I36601572
aI36608971
aS'+'
asS'TBC1D3L'
p3392
(lp3393
I37978155
aI37989048
aS'-'
asS'SLC13A2'
p3394
(lp3395
I28473293
aI28497781
aS'+'
asS'SLC13A5'
p3396
(lp3397
I6684713
aI6713567
aS'-'
asS'SERPINF1'
p3398
(lp3399
I1761959
aI1777574
aS'+'
asS'SERPINF2'
p3400
(lp3401
I1742836
aI1755265
aS'+'
asS'PIMREG'
p3402
(lp3403
I6444415
aI6451469
aS'+'
asS'AC135721.2'
p3404
(lp3405
I43144956
aI43145255
aS'+'
asS'AC135721.1'
p3406
(lp3407
I43079302
aI43079780
aS'+'
asS'SREBF1'
p3408
(lp3409
I17812073
aI17837002
aS'-'
asS'TIMM22'
p3410
(lp3411
I997117
aI1003671
aS'+'
asS'UTP6'
p3412
(lp3413
I31860899
aI31901765
aS'-'
asS'RPL7P48'
p3414
(lp3415
I51502488
aI51503233
aS'-'
asS'RPL7P49'
p3416
(lp3417
I76430417
aI76431124
aS'-'
asS'AC013248.2'
p3418
(lp3419
I14705076
aI14705534
aS'-'
asS'RAB37'
p3420
(lp3421
I74670578
aI74747334
aS'+'
asS'RAB34'
p3422
(lp3423
I28714284
aI28718415
aS'-'
asS'AC126544.1'
p3424
(lp3425
I45585871
aI45586929
aS'+'
asS'FOXO3B'
p3426
(lp3427
I18670946
aI18672873
aS'-'
asS'ACAP1'
p3428
(lp3429
I7336529
aI7351478
aS'+'
asS'SNF8'
p3430
(lp3431
I48929316
aI48945117
aS'-'
asS'ARMC7'
p3432
(lp3433
I75109987
aI75130265
aS'+'
asS'YWHAEP2'
p3434
(lp3435
I18418195
aI18418306
aS'-'
asS'GNGT2'
p3436
(lp3437
I49202791
aI49208912
aS'-'
asS'BCL6B'
p3438
(lp3439
I7023020
aI7029642
aS'+'
as.