(dp1
S'AL121758.1'
p2
(lp3
I646626
aI675800
aS'-'
asS'REM1'
p4
(lp5
I31475293
aI31484905
aS'+'
asS'TGM2'
p6
(lp7
I38127387
aI38165372
aS'-'
asS'MOCS3'
p8
(lp9
I50958826
aI50963931
aS'+'
asS'BPIFB2'
p10
(lp11
I33007600
aI33023709
aS'+'
asS'ARFRP1'
p12
(lp13
I63698643
aI63708013
aS'-'
asS'BPIFB6'
p14
(lp15
I33031648
aI33044047
aS'+'
asS'COX6CP2'
p16
(lp17
I50479767
aI50479991
aS'+'
asS'BPIFB4'
p18
(lp19
I33081527
aI33111751
aS'+'
asS'AL080312.1'
p20
(lp21
I25099105
aI25099928
aS'+'
asS'AL353132.1'
p22
(lp23
I22960534
aI22966063
aS'-'
asS'AL035461.1'
p24
(lp25
I5965180
aI5965511
aS'+'
asS'TGIF2-C20orf24'
p26
(lp27
I36574553
aI36612384
aS'+'
asS'SAMD10'
p28
(lp29
I63974113
aI63979642
aS'-'
asS'CASS4'
p30
(lp31
I56412261
aI56460387
aS'+'
asS'PRNT'
p32
(lp33
I4731282
aI4740668
aS'-'
asS'SYS1'
p34
(lp35
I45363139
aI45376798
aS'+'
asS'COMMD7'
p36
(lp37
I32702691
aI32743997
aS'-'
asS'AL035252.1'
p38
(lp39
I25161167
aI25162061
aS'-'
asS'SEMG1'
p40
(lp41
I45206997
aI45209772
aS'+'
asS'PCSK2'
p42
(lp43
I17226107
aI17484578
aS'+'
asS'RNF114'
p44
(lp45
I49936348
aI49953892
aS'+'
asS'SEMG2'
p46
(lp47
I45221300
aI45224458
aS'+'
asS'NAPB'
p48
(lp49
I23374519
aI23421519
aS'-'
asS'ZSWIM3'
p50
(lp51
I45857617
aI45879122
aS'+'
asS'PRND'
p52
(lp53
I4721910
aI4728460
aS'+'
asS'RPL19P1'
p54
(lp55
I2780614
aI2781041
aS'+'
asS'SIRPG'
p56
(lp57
I1629152
aI1657779
aS'-'
asS'SIRPD'
p58
(lp59
I1534251
aI1558843
aS'-'
asS'AL356299.1'
p60
(lp61
I34347671
aI34347785
aS'-'
asS'EIF4EBP2P1'
p62
(lp63
I43423196
aI43423538
aS'-'
asS'SIRPA'
p64
(lp65
I1894508
aI1940592
aS'+'
asS'AL035685.1'
p66
(lp67
I49318475
aI49441654
aS'+'
asS'ISM1'
p68
(lp69
I13221771
aI13300651
aS'+'
asS'FNDC11'
p70
(lp71
I63547891
aI63555908
aS'+'
asS'STK4'
p72
(lp73
I44966474
aI45079959
aS'+'
asS'MACROD2'
p74
(lp75
I13995369
aI16053197
aS'+'
asS'OSBPL2'
p76
(lp77
I62238485
aI62296213
aS'+'
asS'GATA5'
p78
(lp79
I62463497
aI62475970
aS'-'
asS'OCSTAMP'
p80
(lp81
I46540946
aI46550574
aS'-'
asS'SLC17A9'
p82
(lp83
I62952647
aI62969585
aS'+'
asS'SNAP25'
p84
(lp85
I10218830
aI10307418
aS'+'
asS'ADRA1D'
p86
(lp87
I4220631
aI4249074
aS'-'
asS'TTI1'
p88
(lp89
I37983007
aI38033468
aS'-'
asS'UCKL1'
p90
(lp91
I63939829
aI63956415
aS'-'
asS'BPIFB1'
p92
(lp93
I33283135
aI33309878
aS'+'
asS'TCF15'
p94
(lp95
I603797
aI610398
aS'-'
asS'ZGPAT'
p96
(lp97
I63707465
aI63736141
aS'+'
asS'RIN2'
p98
(lp99
I19886521
aI20002457
aS'+'
asS'PLTP'
p100
(lp101
I45898621
aI45912152
aS'-'
asS'GPCPD1'
p102
(lp103
I5544404
aI5611026
aS'-'
asS'LRRN4'
p104
(lp105
I6040778
aI6054049
aS'-'
asS'CFTRP3'
p106
(lp107
I30214765
aI30214976
aS'-'
asS'CFTRP2'
p108
(lp109
I29641778
aI29641976
aS'+'
asS'CFTRP1'
p110
(lp111
I25919499
aI25919681
aS'-'
asS'LSM14B'
p112
(lp113
I62122507
aI62135378
aS'+'
asS'NRSN2'
p114
(lp115
I347120
aI359405
aS'+'
asS'SLC25A6P1'
p116
(lp117
I21742303
aI21743077
aS'-'
asS'DUXAP7'
p118
(lp119
I18642782
aI18643634
aS'-'
asS'SOX18'
p120
(lp121
I64047582
aI64049641
aS'-'
asS'PANK2'
p122
(lp123
I3888839
aI3926958
aS'+'
asS'RNF24'
p124
(lp125
I3927309
aI4015389
aS'-'
asS'SOX12'
p126
(lp127
I325595
aI330224
aS'+'
asS'TBC1D20'
p128
(lp129
I435480
aI462553
aS'-'
asS'VSX1'
p130
(lp131
I25070885
aI25082131
aS'-'
asS'HRH3'
p132
(lp133
I62214970
aI62220255
aS'-'
asS'MAP1LC3A'
p134
(lp135
I34546854
aI34560345
aS'+'
asS'RPS10P5'
p136
(lp137
I839447
aI839977
aS'-'
asS'AL445567.1'
p138
(lp139
I8929895
aI8930038
aS'-'
asS'AL445567.2'
p140
(lp141
I8934984
aI8935481
aS'-'
asS'GGTLC1'
p142
(lp143
I23985053
aI23988779
aS'-'
asS'AL138807.1'
p144
(lp145
I51734533
aI51735067
aS'+'
asS'BPIFB3'
p146
(lp147
I33055424
aI33073628
aS'+'
asS'RPL5P2'
p148
(lp149
I45490818
aI45491671
aS'-'
asS'ACTG1P3'
p150
(lp151
I1160584
aI1161697
aS'+'
asS'MLLT10P1'
p152
(lp153
I30403123
aI30403384
aS'-'
asS'AL139824.2'
p154
(lp155
I56267872
aI56269231
aS'+'
asS'MC3R'
p156
(lp157
I56248732
aI56249815
aS'+'
asS'KCNQ2'
p158
(lp159
I63400210
aI63472677
aS'-'
asS'HMGB3P2'
p160
(lp161
I36076018
aI36076601
aS'-'
asS'FRG1DP'
p162
(lp163
I29080390
aI29102761
aS'+'
asS'SNPH'
p164
(lp165
I1266316
aI1309328
aS'+'
asS'HCK'
p166
(lp167
I32052188
aI32101852
aS'+'
asS'THBD'
p168
(lp169
I23045633
aI23049741
aS'-'
asS'AL109618.1'
p170
(lp171
I6213699
aI6215381
aS'+'
asS'FRG1BP'
p172
(lp173
I30377372
aI30399257
aS'+'
asS'RPS4XP2'
p174
(lp175
I4629427
aI4630219
aS'-'
asS'RPS4XP3'
p176
(lp177
I56601701
aI56602113
aS'+'
asS'SNRPB2'
p178
(lp179
I16729984
aI16742563
aS'+'
asS'RPL41P1'
p180
(lp181
I21755270
aI21755350
aS'+'
asS'WFDC8'
p182
(lp183
I45551153
aI45579326
aS'-'
asS'DNAJC5'
p184
(lp185
I63895182
aI63936031
aS'+'
asS'TMEM74B'
p186
(lp187
I1181284
aI1185415
aS'-'
asS'DZANK1'
p188
(lp189
I18383369
aI18467185
aS'-'
asS'TOP1'
p190
(lp191
I41028818
aI41124487
aS'+'
asS'PDRG1'
p192
(lp193
I31944342
aI31952092
aS'-'
asS'SIRPB2'
p194
(lp195
I1470741
aI1491518
aS'-'
asS'EFCAB8'
p196
(lp197
I32858923
aI32961609
aS'+'
asS'SIRPB1'
p198
(lp199
I1563521
aI1620009
aS'-'
asS'RTFDC1'
p200
(lp201
I56468591
aI56519449
aS'+'
asS'MTCO2P1'
p202
(lp203
I60414396
aI60414872
aS'-'
asS'GHRH'
p204
(lp205
I37251082
aI37261835
aS'-'
asS'PRNP'
p206
(lp207
I4686236
aI4701590
aS'+'
asS'VAPB'
p208
(lp209
I58389122
aI58451101
aS'+'
asS'XPOTP1'
p210
(lp211
I34213495
aI34215892
aS'-'
asS'SLC2A10'
p212
(lp213
I46709487
aI46736347
aS'+'
asS'NDUFAF5'
p214
(lp215
I13784950
aI13821582
aS'+'
asS'ABBA01031663.1'
p216
(lp217
I29448517
aI29449306
aS'-'
asS'AL137028.2'
p218
(lp219
I64278306
aI64278561
aS'+'
asS'NCOA3'
p220
(lp221
I47501902
aI47656877
aS'+'
asS'NCOA6'
p222
(lp223
I34714774
aI34825649
aS'-'
asS'NCOA5'
p224
(lp225
I46060985
aI46089952
aS'-'
asS'RAD21L1'
p226
(lp227
I1226056
aI1296421
aS'+'
asS'WFDC5'
p228
(lp229
I45109452
aI45115172
aS'-'
asS'RPL15P1'
p230
(lp231
I18090116
aI18090715
aS'-'
asS'WFDC10B'
p232
(lp233
I45684653
aI45705019
aS'-'
asS'TM9SF4'
p234
(lp235
I32109506
aI32167258
aS'+'
asS'WFDC10A'
p236
(lp237
I45629526
aI45631196
aS'+'
asS'RPL21P2'
p238
(lp239
I4059633
aI4060113
aS'-'
asS'DNTTIP1'
p240
(lp241
I45791937
aI45811427
aS'+'
asS'RIMS4'
p242
(lp243
I44751808
aI44810338
aS'-'
asS'SLCO4A1'
p244
(lp245
I62642445
aI62672295
aS'+'
asS'CHMP4B'
p246
(lp247
I33811304
aI33854366
aS'+'
asS'ZSWIM1'
p248
(lp249
I45881227
aI45885266
aS'+'
asS'DBNDD2'
p250
(lp251
I45406057
aI45410610
aS'+'
asS'BSNDP2'
p252
(lp253
I25845497
aI25845862
aS'+'
asS'LAMA5'
p254
(lp255
I62309065
aI62367312
aS'-'
asS'RPS2P7'
p256
(lp257
I45640486
aI45641370
aS'-'
asS'TCFL5'
p258
(lp259
I62841115
aI62861763
aS'-'
asS'MYLK2'
p260
(lp261
I31819308
aI31834689
aS'+'
asS'COX4I2'
p262
(lp263
I31637888
aI31645006
aS'+'
asS'PTMAP6'
p264
(lp265
I56700837
aI56701514
aS'-'
asS'SOCS2P1'
p266
(lp267
I33187391
aI33188292
aS'+'
asS'PTMAP3'
p268
(lp269
I18011955
aI18012284
aS'+'
asS'GAPDHP54'
p270
(lp271
I46997596
aI46998488
aS'+'
asS'UBE2V1'
p272
(lp273
I50081124
aI50115954
aS'-'
asS'AC018688.1'
p274
(lp275
I30545601
aI30551470
aS'+'
asS'C20orf204'
p276
(lp277
I64034344
aI64039001
aS'+'
asS'C20orf202'
p278
(lp279
I1203454
aI1208274
aS'+'
asS'BPIFA2'
p280
(lp281
I33161768
aI33181412
aS'+'
asS'BPIFA3'
p282
(lp283
I33217310
aI33227758
aS'+'
asS'FTLP1'
p284
(lp285
I45975249
aI45976075
aS'-'
asS'BPIFA1'
p286
(lp287
I33235995
aI33243311
aS'+'
asS'GAPDHP2'
p288
(lp289
I13392677
aI13393674
aS'+'
asS'FITM2'
p290
(lp291
I44302838
aI44311169
aS'-'
asS'BANF2'
p292
(lp293
I17693672
aI17735860
aS'+'
asS'RPS10P2'
p294
(lp295
I14757563
aI14758056
aS'+'
asS'LKAAEAR1'
p296
(lp297
I64083380
aI64084359
aS'-'
asS'SSTR4'
p298
(lp299
I23035386
aI23036812
aS'+'
asS'GSTM3P1'
p300
(lp301
I21501395
aI21501968
aS'+'
asS'RPL7AP14'
p302
(lp303
I37444733
aI37445534
aS'-'
asS'CDK5RAP1'
p304
(lp305
I33358839
aI33401561
aS'-'
asS'TRPC4AP'
p306
(lp307
I35002404
aI35092871
aS'-'
asS'ITCH'
p308
(lp309
I34363235
aI34511393
aS'+'
asS'BSNDP1'
p310
(lp311
I25783553
aI25783919
aS'+'
asS'AVP'
p312
(lp313
I3082556
aI3084724
aS'-'
asS'EEF1A2'
p314
(lp315
I63488013
aI63499315
aS'-'
asS'CYB5AP4'
p316
(lp317
I22885670
aI22886068
aS'-'
asS'AL133325.1'
p318
(lp319
I21488244
aI21488625
aS'-'
asS'RPL23AP81'
p320
(lp321
I41196691
aI41197157
aS'+'
asS'PLCG1'
p322
(lp323
I41137237
aI41177626
aS'+'
asS'ARPC3P1'
p324
(lp325
I49134480
aI49135012
aS'+'
asS'EIF2S2'
p326
(lp327
I34088298
aI34112332
aS'-'
asS'TP53TG5'
p328
(lp329
I45375477
aI45407889
aS'-'
asS'LPIN3'
p330
(lp331
I41340920
aI41360582
aS'+'
asS'PIEZO1P2'
p332
(lp333
I58740532
aI58783821
aS'-'
asS'CDC27P3'
p334
(lp335
I29746181
aI29748090
aS'+'
asS'SULF2'
p336
(lp337
I47656912
aI47786586
aS'-'
asS'GZF1'
p338
(lp339
I23362182
aI23373063
aS'+'
asS'MTRNR2L3'
p340
(lp341
I57358442
aI57359980
aS'-'
asS'DYNLRB1'
p342
(lp343
I34516409
aI34540958
aS'+'
asS'GAPDHP53'
p344
(lp345
I24445391
aI24446314
aS'+'
asS'PSMD10P1'
p346
(lp347
I50913731
aI50914411
aS'+'
asS'ASIP'
p348
(lp349
I34194569
aI34269176
aS'+'
asS'RPLP0P1'
p350
(lp351
I16586333
aI16586693
aS'-'
asS'RPS19P1'
p352
(lp353
I18504633
aI18505066
aS'+'
asS'RPL24P2'
p354
(lp355
I21114723
aI21115197
aS'+'
asS'TLDC2'
p356
(lp357
I36876131
aI36894235
aS'+'
asS'AL121890.1'
p358
(lp359
I5013520
aI5013724
aS'-'
asS'TTLL9'
p360
(lp361
I31870702
aI31944961
aS'+'
asS'CD40'
p362
(lp363
I46118272
aI46129863
aS'+'
asS'SRC'
p364
(lp365
I37346154
aI37406050
aS'+'
asS'BFSP1'
p366
(lp367
I17493905
aI17558960
aS'-'
asS'AL035419.1'
p368
(lp369
I38614913
aI38615476
aS'-'
asS'ANKEF1'
p370
(lp371
I9986126
aI10043216
aS'+'
asS'SCP2D1'
p372
(lp373
I18813726
aI18814392
aS'+'
asS'MMP24'
p374
(lp375
I35226654
aI35277000
aS'+'
asS'ATG3P1'
p376
(lp377
I39329014
aI39329924
aS'-'
asS'PUDPP3'
p378
(lp379
I33047517
aI33048152
aS'-'
asS'UBE2V1P1'
p380
(lp381
I3361880
aI3362324
aS'-'
asS'PIEZO1P1'
p382
(lp383
I59460619
aI59460837
aS'-'
asS'RPL12P12'
p384
(lp385
I19823443
aI19823943
aS'-'
asS'E2F1'
p386
(lp387
I33675683
aI33686404
aS'-'
asS'RPL12P11'
p388
(lp389
I41547422
aI41547922
aS'+'
asS'MRPS11P1'
p390
(lp391
I20854121
aI20854642
aS'-'
asS'ZNFX1'
p392
(lp393
I49237946
aI49278426
aS'-'
asS'TOMM34'
p394
(lp395
I44942130
aI44960486
aS'-'
asS'AL049634.3'
p396
(lp397
I1591392
aI1591848
aS'+'
asS'AL049634.2'
p398
(lp399
I1540144
aI1611563
aS'-'
asS'AL049634.1'
p400
(lp401
I1516759
aI1557653
aS'-'
asS'ABBA01031660.1'
p402
(lp403
I29318824
aI29319579
aS'+'
asS'RPSAP1'
p404
(lp405
I51130788
aI51131667
aS'-'
asS'RPN2'
p406
(lp407
I37179046
aI37241623
aS'+'
asS'PCK1'
p408
(lp409
I57561080
aI57568112
aS'+'
asS'TGM6'
p410
(lp411
I2380908
aI2432753
aS'+'
asS'RPS3P2'
p412
(lp413
I38537758
aI38538458
aS'+'
asS'CSTP1'
p414
(lp415
I23918771
aI23922169
aS'-'
asS'TNNC2'
p416
(lp417
I45823214
aI45833745
aS'-'
asS'SCRT2'
p418
(lp419
I661596
aI676179
aS'-'
asS'R3HDML'
p420
(lp421
I44336986
aI44351235
aS'+'
asS'PRPF6'
p422
(lp423
I63981135
aI64033100
aS'+'
asS'C20orf96'
p424
(lp425
I270863
aI290778
aS'-'
asS'AL354984.3'
p426
(lp427
I58097267
aI58097591
aS'+'
asS'FAM182B'
p428
(lp429
I25763466
aI25868150
aS'-'
asS'CFAP61'
p430
(lp431
I20052552
aI20360702
aS'+'
asS'HSPE1P1'
p432
(lp433
I39932922
aI39933239
aS'-'
asS'SLC12A5'
p434
(lp435
I46021690
aI46057702
aS'+'
asS'PROKR2'
p436
(lp437
I5302040
aI5314369
aS'-'
asS'GTSF1L'
p438
(lp439
I43726164
aI43726998
aS'-'
asS'PPIAP10'
p440
(lp441
I53421199
aI53421656
aS'+'
asS'KRT18P4'
p442
(lp443
I49956745
aI49958032
aS'+'
asS'RPL36P4'
p444
(lp445
I35544430
aI35544747
aS'-'
asS'MKKS'
p446
(lp447
I10401009
aI10434222
aS'-'
asS'ZFP64'
p448
(lp449
I52051663
aI52191779
aS'-'
asS'CDH4'
p450
(lp451
I61252426
aI61940617
aS'+'
asS'MYT1'
p452
(lp453
I64164474
aI64242253
aS'+'
asS'DYNLT3P1'
p454
(lp455
I17479085
aI17479431
aS'-'
asS'IFT52'
p456
(lp457
I43590931
aI43647296
aS'+'
asS'AL121722.1'
p458
(lp459
I22560553
aI22584261
aS'-'
asS'ARF4P2'
p460
(lp461
I62872250
aI62873076
aS'-'
asS'CENPB'
p462
(lp463
I3783851
aI3786690
aS'-'
asS'HIGD1AP16'
p464
(lp465
I35878476
aI35878733
aS'+'
asS'SCAND1'
p466
(lp467
I35953629
aI35959472
aS'-'
asS'EDEM2'
p468
(lp469
I35115357
aI35147364
aS'-'
asS'APCDD1L'
p470
(lp471
I58459101
aI58514938
aS'-'
asS'AL049650.1'
p472
(lp473
I2467212
aI2508907
aS'-'
asS'GDAP1L1'
p474
(lp475
I44247099
aI44280917
aS'+'
asS'SNAI1'
p476
(lp477
I49982999
aI49988886
aS'+'
asS'AL035660.1'
p478
(lp479
I45229817
aI45230191
aS'+'
asS'PCMTD1P7'
p480
(lp481
I29321310
aI29321666
aS'-'
asS'JAG1'
p482
(lp483
I10637684
aI10674107
aS'-'
asS'SLX4IP'
p484
(lp485
I10435303
aI10628034
aS'+'
asS'BPIFB5P'
p486
(lp487
I33316869
aI33329969
aS'+'
asS'SYS1-DBNDD2'
p488
(lp489
I45363200
aI45410610
aS'+'
asS'TSPY26P'
p490
(lp491
I32186477
aI32190360
aS'-'
asS'AL162615.1'
p492
(lp493
I49829125
aI49831085
aS'+'
asS'PLAGL2'
p494
(lp495
I32192503
aI32207791
aS'-'
asS'PAK5'
p496
(lp497
I9537389
aI9839041
aS'-'
asS'MAVS'
p498
(lp499
I3846799
aI3876123
aS'+'
asS'ELMO2'
p500
(lp501
I46387427
aI46432985
aS'-'
asS'TASP1'
p502
(lp503
I13389392
aI13638940
aS'-'
asS'NFATC2'
p504
(lp505
I51388626
aI51562831
aS'-'
asS'PCED1A'
p506
(lp507
I2835314
aI2841190
aS'-'
asS'ADNP'
p508
(lp509
I50889048
aI50931240
aS'-'
asS'SNX5'
p510
(lp511
I17941597
aI17968980
aS'-'
asS'KCNG1'
p512
(lp513
I51003656
aI51023129
aS'-'
asS'SERINC3'
p514
(lp515
I44496224
aI44522085
aS'-'
asS'AL031681.1'
p516
(lp517
I43388642
aI43389041
aS'-'
asS'YTHDF1'
p518
(lp519
I63195429
aI63216234
aS'-'
asS'TRIB3'
p520
(lp521
I362835
aI391386
aS'+'
asS'FRG1CP'
p522
(lp523
I28580709
aI28602664
aS'-'
asS'DHX35'
p524
(lp525
I38962299
aI39039721
aS'+'
asS'DEFB116'
p526
(lp527
I31303212
aI31308585
aS'-'
asS'DEFB117'
p528
(lp529
I31360790
aI31360930
aS'+'
asS'DEFB115'
p530
(lp531
I31257664
aI31259632
aS'+'
asS'AL049767.1'
p532
(lp533
I45137706
aI45138976
aS'-'
asS'DEFB118'
p534
(lp535
I31368618
aI31373923
aS'+'
asS'DEFB119'
p536
(lp537
I31377164
aI31390603
aS'-'
asS'SRMS'
p538
(lp539
I63540810
aI63547504
aS'-'
asS'KAT14'
p540
(lp541
I18142320
aI18188387
aS'+'
asS'RRBP1'
p542
(lp543
I17613678
aI17682295
aS'-'
asS'RPL23AP6'
p544
(lp545
I10349157
aI10349628
aS'-'
asS'RARRES2P11'
p546
(lp547
I29427400
aI29427883
aS'-'
asS'ANGPT4'
p548
(lp549
I869899
aI916317
aS'-'
asS'NDUFB4P10'
p550
(lp551
I45388347
aI45388705
aS'-'
asS'OXT'
p552
(lp553
I3071620
aI3072517
aS'+'
asS'FKBP1A'
p554
(lp555
I1368979
aI1393172
aS'-'
asS'AL109618.2'
p556
(lp557
I6219199
aI6219443
aS'+'
asS'AL109618.3'
p558
(lp559
I6220330
aI6220759
aS'+'
asS'PMEPA1'
p560
(lp561
I57648394
aI57711536
aS'-'
asS'SLC24A3'
p562
(lp563
I19212646
aI19722937
aS'+'
asS'AL359511.1'
p564
(lp565
I17188134
aI17188344
aS'+'
asS'RSL24D1P6'
p566
(lp567
I32170390
aI32170790
aS'-'
asS'AL049737.1'
p568
(lp569
I22272052
aI22273454
aS'-'
asS'Z98752.3'
p570
(lp571
I43540171
aI43569498
aS'+'
asS'Z98752.2'
p572
(lp573
I43523261
aI43523572
aS'-'
asS'SPTLC3'
p574
(lp575
I13008994
aI13169103
aS'+'
asS'RALY'
p576
(lp577
I33993646
aI34084884
aS'+'
asS'RIPOR3'
p578
(lp579
I50586108
aI50691528
aS'-'
asS'CD93'
p580
(lp581
I23079349
aI23086340
aS'-'
asS'C20orf141'
p582
(lp583
I2815011
aI2815833
aS'+'
asS'C20orf144'
p584
(lp585
I33663366
aI33665619
aS'+'
asS'DDRGK1'
p586
(lp587
I3190350
aI3204685
aS'-'
asS'SNX21'
p588
(lp589
I45834151
aI45843275
aS'+'
asS'RPL31P3'
p590
(lp591
I31311303
aI31311962
aS'-'
asS'RPL31P2'
p592
(lp593
I33752167
aI33752543
aS'-'
asS'ZNF337'
p594
(lp595
I25674215
aI25696841
aS'-'
asS'ZNF334'
p596
(lp597
I46499632
aI46513554
aS'-'
asS'ZNF335'
p598
(lp599
I45948653
aI45972172
aS'-'
asS'CTSZ'
p600
(lp601
I58995185
aI59007247
aS'-'
asS'TMC2'
p602
(lp603
I2536607
aI2641784
aS'+'
asS'AL035666.1'
p604
(lp605
I42606694
aI42607559
aS'+'
asS'KRT18P3'
p606
(lp607
I22732802
aI22734089
aS'-'
asS'RPS18P1'
p608
(lp609
I5532878
aI5533335
aS'+'
asS'ADAM33'
p610
(lp611
I3667970
aI3682246
aS'-'
asS'FAT1P1'
p612
(lp613
I10888582
aI10889088
aS'-'
asS'TRMT6'
p614
(lp615
I5937235
aI5950515
aS'-'
asS'TTPAL'
p616
(lp617
I44475886
aI44494603
aS'+'
asS'FASTKD5'
p618
(lp619
I3146519
aI3159897
aS'-'
asS'HNRNPA1P3'
p620
(lp621
I45745737
aI45746287
aS'-'
asS'AL133396.1'
p622
(lp623
I4735669
aI4736673
aS'-'
asS'MTND1P9'
p624
(lp625
I57357426
aI57358369
aS'-'
asS'CST8'
p626
(lp627
I23491129
aI23496018
aS'+'
asS'RTEL1'
p628
(lp629
I63657810
aI63696253
aS'+'
asS'ZNF343'
p630
(lp631
I2481823
aI2524522
aS'-'
asS'ZNF341'
p632
(lp633
I33731657
aI33792269
aS'+'
asS'CST9'
p634
(lp635
I23602410
aI23605876
aS'-'
asS'CST2'
p636
(lp637
I23823769
aI23826731
aS'-'
asS'CST3'
p638
(lp639
I23626706
aI23637945
aS'-'
asS'DPH3P1'
p640
(lp641
I62845664
aI62845912
aS'+'
asS'CST1'
p642
(lp643
I23747731
aI23751268
aS'-'
asS'SLC35C2'
p644
(lp645
I46345980
aI46364404
aS'-'
asS'TNFRSF6B'
p646
(lp647
I63696668
aI63698684
aS'+'
asS'CST4'
p648
(lp649
I23685640
aI23689040
aS'-'
asS'CST5'
p650
(lp651
I23875935
aI23879750
aS'-'
asS'FTLP3'
p652
(lp653
I4023917
aI4024444
aS'+'
asS'PHACTR3'
p654
(lp655
I59577509
aI59847711
aS'+'
asS'CEP250'
p656
(lp657
I35455329
aI35519280
aS'+'
asS'TPM3P2'
p658
(lp659
I33912323
aI33913336
aS'-'
asS'PPIAP17'
p660
(lp661
I16223750
aI16224535
aS'-'
asS'LAMP5'
p662
(lp663
I9514361
aI9530524
aS'+'
asS'SUMO1P1'
p664
(lp665
I53875252
aI53875557
aS'-'
asS'PCIF1'
p666
(lp667
I45934628
aI45948023
aS'+'
asS'SYCP2'
p668
(lp669
I59863563
aI59933655
aS'-'
asS'SDAD1P2'
p670
(lp671
I10385779
aI10387806
aS'+'
asS'DUX4L33'
p672
(lp673
I29324092
aI29325049
aS'+'
asS'CYP24A1'
p674
(lp675
I54153449
aI54173973
aS'-'
asS'LIME1'
p676
(lp677
I63736318
aI63739103
aS'+'
asS'NELFCD'
p678
(lp679
I58981208
aI58995133
aS'+'
asS'AL021879.1'
p680
(lp681
I7867327
aI7867614
aS'+'
asS'CST7'
p682
(lp683
I24949230
aI24959928
aS'+'
asS'SLC23A2'
p684
(lp685
I4852356
aI5010293
aS'-'
asS'CNBD2'
p686
(lp687
I35968590
aI36030700
aS'+'
asS'DIDO1'
p688
(lp689
I62877738
aI62937952
aS'-'
asS'SRXN1'
p690
(lp691
I646615
aI653370
aS'-'
asS'SLC4A11'
p692
(lp693
I3227498
aI3239190
aS'-'
asS'FER1L4'
p694
(lp695
I35558866
aI35607494
aS'-'
asS'MRPS16P2'
p696
(lp697
I59113224
aI59113631
aS'+'
asS'GDF5OS'
p698
(lp699
I35433029
aI35435450
aS'+'
asS'PTK6'
p700
(lp701
I63528001
aI63537354
aS'-'
asS'BPI'
p702
(lp703
I38260149
aI38304332
aS'+'
asS'AL353193.1'
p704
(lp705
I3465177
aI3465444
aS'-'
asS'PPIAP2'
p706
(lp707
I25368275
aI25368766
aS'-'
asS'PPIAP3'
p708
(lp709
I37530039
aI37530543
aS'+'
asS'AL109837.1'
p710
(lp711
I11608436
aI11609048
aS'-'
asS'RPRD1B'
p712
(lp713
I38066082
aI38127780
aS'+'
asS'C20orf196'
p714
(lp715
I5750397
aI5863912
aS'+'
asS'AL022394.1'
p716
(lp717
I41196647
aI41196938
aS'-'
asS'C20orf194'
p718
(lp719
I3249305
aI3407625
aS'-'
asS'MYBL2'
p720
(lp721
I43667019
aI43716495
aS'+'
asS'AL109983.1'
p722
(lp723
I13073667
aI13074312
aS'-'
asS'OPRL1'
p724
(lp725
I64080173
aI64100643
aS'+'
asS'PFDN4'
p726
(lp727
I54208095
aI54228052
aS'+'
asS'CEBPB'
p728
(lp729
I50190734
aI50192689
aS'+'
asS'KANK1P1'
p730
(lp731
I5928085
aI5929318
aS'-'
asS'ARHGAP40'
p732
(lp733
I38601934
aI38650652
aS'+'
asS'CTCFL'
p734
(lp735
I57495966
aI57525107
aS'-'
asS'RALGAPB'
p736
(lp737
I38472816
aI38578861
aS'+'
asS'SDCBP2'
p738
(lp739
I1309975
aI1329239
aS'-'
asS'NOP56'
p740
(lp741
I2652145
aI2658393
aS'+'
asS'SUN5'
p742
(lp743
I32983773
aI33004433
aS'-'
asS'FDX1P1'
p744
(lp745
I34475924
aI34476474
aS'-'
asS'AURKA'
p746
(lp747
I56369390
aI56392337
aS'-'
asS'YWHAB'
p748
(lp749
I44885676
aI44908532
aS'+'
asS'NANP'
p750
(lp751
I25612935
aI25624175
aS'-'
asS'SYNDIG1'
p752
(lp753
I24469199
aI24666616
aS'+'
asS'SRMP1'
p754
(lp755
I47859788
aI47860672
aS'+'
asS'OGFR'
p756
(lp757
I62804835
aI62814000
aS'+'
asS'PCMTD2'
p758
(lp759
I64255695
aI64287821
aS'+'
asS'HMGB1P1'
p760
(lp761
I57488392
aI57489027
aS'-'
asS'MATN4'
p762
(lp763
I45293450
aI45308327
aS'-'
asS'RPL12P4'
p764
(lp765
I55074644
aI55075140
aS'+'
asS'RPL12P3'
p766
(lp767
I33272262
aI33272657
aS'-'
asS'RTEL1-TNFRSF6B'
p768
(lp769
I63659300
aI63698684
aS'+'
asS'AL035458.1'
p770
(lp771
I34245953
aI34246537
aS'-'
asS'EBF4'
p772
(lp773
I2692878
aI2760107
aS'+'
asS'PXMP4'
p774
(lp775
I33702754
aI33720300
aS'-'
asS'MYH7B'
p776
(lp777
I34975403
aI35002437
aS'+'
asS'HNF4A'
p778
(lp779
I44355801
aI44432843
aS'+'
asS'RPL7P3'
p780
(lp781
I62572671
aI62573384
aS'+'
asS'VPS16'
p782
(lp783
I2840703
aI2866732
aS'+'
asS'CSTF1'
p784
(lp785
I56392394
aI56406369
aS'+'
asS'STK35'
p786
(lp787
I2102891
aI2177038
aS'+'
asS'RPL36P2'
p788
(lp789
I50620763
aI50621077
aS'+'
asS'ITPA'
p790
(lp791
I3208868
aI3223870
aS'+'
asS'RPL36P1'
p792
(lp793
I52890162
aI52890386
aS'+'
asS'DEFB129'
p794
(lp795
I227258
aI229886
aS'+'
asS'DEFB128'
p796
(lp797
I187853
aI189681
aS'-'
asS'DEFB127'
p798
(lp799
I157470
aI159163
aS'+'
asS'DEFB126'
p800
(lp801
I142369
aI145751
aS'+'
asS'DEFB125'
p802
(lp803
I87250
aI97094
aS'+'
asS'DEFB124'
p804
(lp805
I31465506
aI31473013
aS'-'
asS'DEFB123'
p806
(lp807
I31440519
aI31450257
aS'+'
asS'TGIF2'
p808
(lp809
I36573488
aI36593950
aS'+'
asS'DEFB121'
p810
(lp811
I31404845
aI31412838
aS'-'
asS'AL118520.1'
p812
(lp813
I34688688
aI34688978
aS'+'
asS'PHKBP1'
p814
(lp815
I8097824
aI8099774
aS'-'
asS'RPL21P3'
p816
(lp817
I18485265
aI18486052
aS'+'
asS'SLC9A8'
p818
(lp819
I49812713
aI49892241
aS'+'
asS'ERGIC3'
p820
(lp821
I35542021
aI35557634
aS'+'
asS'CCNB1IP1P2'
p822
(lp823
I45567990
aI45568807
aS'-'
asS'POLR3F'
p824
(lp825
I18467127
aI18484643
aS'+'
asS'AL031659.1'
p826
(lp827
I37165774
aI37166312
aS'-'
asS'TGM3'
p828
(lp829
I2296001
aI2341078
aS'+'
asS'AL080274.1'
p830
(lp831
I11838355
aI11838574
aS'+'
asS'BLCAP'
p832
(lp833
I37502414
aI37527862
aS'-'
asS'AL137077.1'
p834
(lp835
I62037429
aI62037956
aS'-'
asS'AL121886.1'
p836
(lp837
I43652523
aI43653291
aS'+'
asS'MYL9'
p838
(lp839
I36541484
aI36551447
aS'+'
asS'PPP1R3D'
p840
(lp841
I59936668
aI59940297
aS'-'
asS'PARD6B'
p842
(lp843
I50731665
aI50756795
aS'+'
asS'CBFA2T2'
p844
(lp845
I33490117
aI33650036
aS'+'
asS'FAM110A'
p846
(lp847
I833715
aI846279
aS'+'
asS'PET117'
p848
(lp849
I18137873
aI18143169
aS'+'
asS'NSFL1C'
p850
(lp851
I1442162
aI1467692
aS'-'
asS'DLGAP4'
p852
(lp853
I36306336
aI36528637
aS'+'
asS'C20orf173'
p854
(lp855
I35523186
aI35529652
aS'-'
asS'MAPRE1'
p856
(lp857
I32819893
aI32850405
aS'+'
asS'NPEPL1'
p858
(lp859
I58689131
aI58715633
aS'+'
asS'SPEF1'
p860
(lp861
I3777504
aI3781448
aS'-'
asS'AL109827.1'
p862
(lp863
I35632340
aI35674544
aS'-'
asS'ZMYND8'
p864
(lp865
I47209214
aI47356889
aS'-'
asS'FAM210B'
p866
(lp867
I56358915
aI56368663
aS'+'
asS'AL121916.1'
p868
(lp869
I4590993
aI4591300
aS'-'
asS'CTSA'
p870
(lp871
I45890144
aI45898820
aS'+'
asS'CDH22'
p872
(lp873
I46173734
aI46308498
aS'-'
asS'CDH26'
p874
(lp875
I59958427
aI60013113
aS'+'
asS'FLRT3'
p876
(lp877
I14322988
aI14337608
aS'-'
asS'ACTL10'
p878
(lp879
I33666498
aI33668525
aS'+'
asS'ACOT8'
p880
(lp881
I45841721
aI45857406
aS'-'
asS'AL450124.1'
p882
(lp883
I26018832
aI26020684
aS'+'
asS'MCTS2P'
p884
(lp885
I31547504
aI31548049
aS'+'
asS'SNAP23P1'
p886
(lp887
I49038357
aI49038602
aS'-'
asS'KIZ'
p888
(lp889
I21125983
aI21246618
aS'+'
asS'RBBP9'
p890
(lp891
I18486540
aI18497243
aS'-'
asS'EIF4EP1'
p892
(lp893
I5548840
aI5549481
aS'+'
asS'RSPO4'
p894
(lp895
I958452
aI1002261
aS'-'
asS'RBM39'
p896
(lp897
I35701347
aI35742236
aS'-'
asS'NINL'
p898
(lp899
I25452705
aI25585517
aS'-'
asS'EEF1A1P34'
p900
(lp901
I18782424
aI18783690
aS'-'
asS'FOXA2'
p902
(lp903
I22581005
aI22585455
aS'-'
asS'AL121723.1'
p904
(lp905
I31285317
aI31286835
aS'-'
asS'PPDPF'
p906
(lp907
I63520724
aI63522206
aS'+'
asS'HNRNPA3P2'
p908
(lp909
I36620403
aI36621423
aS'+'
asS'RPL37P1'
p910
(lp911
I35588324
aI35588607
aS'+'
asS'RPS3P1'
p912
(lp913
I14003508
aI14003699
aS'+'
asS'NTSR1'
p914
(lp915
I62708837
aI62762771
aS'+'
asS'DTD1'
p916
(lp917
I18567453
aI18744216
aS'+'
asS'AL132765.1'
p918
(lp919
I17599255
aI17599807
aS'-'
asS'KCNK15'
p920
(lp921
I44745780
aI44752313
aS'+'
asS'NDRG3'
p922
(lp923
I36651766
aI36746078
aS'-'
asS'SRSF6'
p924
(lp925
I43457928
aI43464247
aS'+'
asS'AL049812.1'
p926
(lp927
I41997131
aI41999397
aS'-'
asS'ZBP1'
p928
(lp929
I57603846
aI57620576
aS'-'
asS'PPP4R1L'
p930
(lp931
I58237919
aI58309439
aS'-'
asS'RPL13P2'
p932
(lp933
I46099518
aI46100176
aS'+'
asS'AL035460.1'
p934
(lp935
I2814968
aI2818066
aS'+'
asS'ANKRD20A21P'
p936
(lp937
I30656033
aI30723855
aS'-'
asS'PPIAP21'
p938
(lp939
I43230760
aI43231260
aS'+'
asS'RGS19'
p940
(lp941
I64073181
aI64079988
aS'-'
asS'SPO11'
p942
(lp943
I57329759
aI57343994
aS'+'
asS'CST9LP2'
p944
(lp945
I23583645
aI23586510
aS'+'
asS'RPS2P1'
p946
(lp947
I34122470
aI34123290
aS'+'
asS'CST9LP1'
p948
(lp949
I23547764
aI23550652
aS'-'
asS'TMEM239'
p950
(lp951
I2816302
aI2820284
aS'+'
asS'NKAIN4'
p952
(lp953
I63241390
aI63272694
aS'-'
asS'B4GALT5'
p954
(lp955
I49632945
aI49713878
aS'-'
asS'RBM38'
p956
(lp957
I57391407
aI57409333
aS'+'
asS'BSNDP3'
p958
(lp959
I26071988
aI26072351
aS'-'
asS'RPL17P1'
p960
(lp961
I20253303
aI20253838
aS'-'
asS'PLCB1'
p962
(lp963
I8077251
aI8883199
aS'+'
asS'ROMO1'
p964
(lp965
I35699272
aI35700984
aS'+'
asS'PLCB4'
p966
(lp967
I9069054
aI9480813
aS'+'
asS'RNF11P2'
p968
(lp969
I14547184
aI14547623
aS'-'
asS'LBP'
p970
(lp971
I38346356
aI38377023
aS'+'
asS'TSHZ2'
p972
(lp973
I52972407
aI53495330
aS'+'
asS'GID8'
p974
(lp975
I62938119
aI62948475
aS'+'
asS'FOXS1'
p976
(lp977
I31844301
aI31845619
aS'-'
asS'TUBB1'
p978
(lp979
I59019254
aI59026654
aS'+'
asS'PAX1'
p980
(lp981
I21705659
aI21718486
aS'+'
asS'TP53INP2'
p982
(lp983
I34704290
aI34713439
aS'+'
asS'PTPN1'
p984
(lp985
I50510354
aI50585241
aS'+'
asS'PHF20'
p986
(lp987
I35771983
aI35950381
aS'+'
asS'HAUS6P2'
p988
(lp989
I31341371
aI31344471
aS'-'
asS'GINS1'
p990
(lp991
I25407727
aI25448555
aS'+'
asS'AL121753.1'
p992
(lp993
I35267885
aI35280043
aS'-'
asS'MRPS26'
p994
(lp995
I3045945
aI3048254
aS'+'
asS'UBE2C'
p996
(lp997
I45812576
aI45816957
aS'+'
asS'INSM1'
p998
(lp999
I20368121
aI20370949
aS'+'
asS'HMGB3P1'
p1000
(lp1001
I34833575
aI34834462
aS'-'
asS'SPINT5P'
p1002
(lp1003
I45749920
aI45750074
aS'+'
asS'NPBWR2'
p1004
(lp1005
I64105820
aI64107171
aS'-'
asS'RBCK1'
p1006
(lp1007
I408050
aI430966
aS'+'
asS'ABBA01031674.1'
p1008
(lp1009
I29878636
aI29879363
aS'-'
asS'OTOR'
p1010
(lp1011
I16749374
aI16770062
aS'+'
asS'AL109809.2'
p1012
(lp1013
I1722045
aI1722537
aS'-'
asS'AL109809.3'
p1014
(lp1015
I1676662
aI1676907
aS'-'
asS'SOGA1'
p1016
(lp1017
I36777442
aI36863686
aS'-'
asS'AL109809.1'
p1018
(lp1019
I1767957
aI1779995
aS'-'
asS'VSTM2L'
p1020
(lp1021
I37903104
aI37945350
aS'+'
asS'AL035456.1'
p1022
(lp1023
I10612861
aI10614229
aS'-'
asS'DSN1'
p1024
(lp1025
I36751795
aI36773818
aS'-'
asS'AL121912.1'
p1026
(lp1027
I22343693
aI22343930
aS'-'
asS'AGGF1P10'
p1028
(lp1029
I29430723
aI29432913
aS'+'
asS'BCAS4'
p1030
(lp1031
I50794994
aI50882676
aS'+'
asS'TP53RK'
p1032
(lp1033
I46684365
aI46689779
aS'-'
asS'NOL4L'
p1034
(lp1035
I32443062
aI32584890
aS'-'
asS'POFUT1'
p1036
(lp1037
I32207880
aI32238667
aS'+'
asS'SLC52A3'
p1038
(lp1039
I760080
aI776015
aS'-'
asS'PABPC1L'
p1040
(lp1041
I44921611
aI44959035
aS'+'
asS'CPXM1'
p1042
(lp1043
I2794069
aI2800637
aS'-'
asS'ZHX3'
p1044
(lp1045
I41182115
aI41317602
aS'-'
asS'CBLN4'
p1046
(lp1047
I55997440
aI56005472
aS'-'
asS'MTG2'
p1048
(lp1049
I62183044
aI62202767
aS'+'
asS'SS18L1'
p1050
(lp1051
I62143795
aI62182484
aS'+'
asS'GCNT1P1'
p1052
(lp1053
I18420160
aI18421454
aS'-'
asS'RAB22A'
p1054
(lp1055
I58309696
aI58367507
aS'+'
asS'AL050321.1'
p1056
(lp1057
I18220113
aI18220512
aS'+'
asS'PSMA7'
p1058
(lp1059
I62136735
aI62143430
aS'-'
asS'ERP29P1'
p1060
(lp1061
I52110344
aI52111049
aS'-'
asS'HSPD1P21'
p1062
(lp1063
I45539983
aI45540227
aS'-'
asS'CST13P'
p1064
(lp1065
I23519146
aI23542018
aS'+'
asS'AAR2'
p1066
(lp1067
I36236459
aI36270918
aS'+'
asS'DPM1'
p1068
(lp1069
I50934867
aI50958555
aS'-'
asS'EPB41L1'
p1070
(lp1071
I36092710
aI36232799
aS'+'
asS'KIF16B'
p1072
(lp1073
I16272104
aI16573434
aS'-'
asS'PDYN'
p1074
(lp1075
I1978757
aI1994285
aS'-'
asS'RPS21'
p1076
(lp1077
I62387116
aI62388519
aS'+'
asS'ACSS2'
p1078
(lp1079
I34874963
aI34927962
aS'+'
asS'ACSS1'
p1080
(lp1081
I25006230
aI25058182
aS'-'
asS'KIAA1755'
p1082
(lp1083
I38210488
aI38260772
aS'-'
asS'ATRN'
p1084
(lp1085
I3471040
aI3651122
aS'+'
asS'SALL4'
p1086
(lp1087
I51782331
aI51802520
aS'-'
asS'TPD52L2'
p1088
(lp1089
I63865228
aI63891545
aS'+'
asS'ADIG'
p1090
(lp1091
I38581195
aI38588463
aS'+'
asS'GMEB2'
p1092
(lp1093
I63587602
aI63627041
aS'-'
asS'AIMP1P1'
p1094
(lp1095
I14127400
aI14128336
aS'+'
asS'EDN3'
p1096
(lp1097
I59300427
aI59325992
aS'+'
asS'SLPI'
p1098
(lp1099
I45252239
aI45254564
aS'-'
asS'SGK2'
p1100
(lp1101
I43559042
aI43588237
aS'+'
asS'PGAM3P'
p1102
(lp1103
I11621051
aI11621477
aS'+'
asS'CDS2'
p1104
(lp1105
I5126786
aI5197887
aS'+'
asS'GNAS'
p1106
(lp1107
I58839718
aI58911192
aS'+'
asS'FRG1EP'
p1108
(lp1109
I29480147
aI29497179
aS'-'
asS'PA2G4P2'
p1110
(lp1111
I12380056
aI12381255
aS'+'
asS'RALGAPA2'
p1112
(lp1113
I20392767
aI20712488
aS'-'
asS'STX16'
p1114
(lp1115
I58651253
aI58679524
aS'+'
asS'RPS11P1'
p1116
(lp1117
I11345383
aI11345855
aS'-'
asS'UBE2D3P1'
p1118
(lp1119
I5292388
aI5292831
aS'-'
asS'AL160175.1'
p1120
(lp1121
I31808503
aI31808749
aS'-'
asS'AP5S1'
p1122
(lp1123
I3820556
aI3828837
aS'+'
asS'AL135938.1'
p1124
(lp1125
I16684108
aI16684404
aS'-'
asS'BIRC7'
p1126
(lp1127
I63235883
aI63240507
aS'+'
asS'CST2P1'
p1128
(lp1129
I23711320
aI23711406
aS'-'
asS'EIF6'
p1130
(lp1131
I35278911
aI35284985
aS'-'
asS'SPATA25'
p1132
(lp1133
I45886489
aI45887635
aS'-'
asS'RBPJL'
p1134
(lp1135
I45306851
aI45317822
aS'+'
asS'SEL1L2'
p1136
(lp1137
I13849403
aI13995333
aS'-'
asS'GCNT7'
p1138
(lp1139
I56491492
aI56525925
aS'-'
asS'MANBAL'
p1140
(lp1141
I37289638
aI37317260
aS'+'
asS'RPL37AP1'
p1142
(lp1143
I44466564
aI44466842
aS'-'
asS'SMOX'
p1144
(lp1145
I4120980
aI4175104
aS'+'
asS'TFAP2C'
p1146
(lp1147
I56629302
aI56639283
aS'+'
asS'CSTP2'
p1148
(lp1149
I23772785
aI23776169
aS'-'
asS'GDF5'
p1150
(lp1151
I35433347
aI35454746
aS'-'
asS'MKRN7P'
p1152
(lp1153
I46463719
aI46477232
aS'-'
asS'PIGPP3'
p1154
(lp1155
I33965162
aI33965576
aS'+'
asS'KCNS1'
p1156
(lp1157
I45092310
aI45101112
aS'-'
asS'ZCCHC3'
p1158
(lp1159
I296968
aI300321
aS'+'
asS'AL121914.1'
p1160
(lp1161
I56459428
aI56459583
aS'-'
asS'EYA2'
p1162
(lp1163
I46894624
aI47188844
aS'+'
asS'PCNA'
p1164
(lp1165
I5114953
aI5126626
aS'-'
asS'APMAP'
p1166
(lp1167
I24962925
aI24992979
aS'-'
asS'AL353777.1'
p1168
(lp1169
I47478214
aI47479010
aS'-'
asS'SIRPB3P'
p1170
(lp1171
I1665283
aI1708200
aS'-'
asS'HIGD1AP15'
p1172
(lp1173
I10334419
aI10334698
aS'+'
asS'TMSB4XP6'
p1174
(lp1175
I50840615
aI50840749
aS'-'
asS'RPL7P2'
p1176
(lp1177
I2075555
aI2075822
aS'+'
asS'PIGT'
p1178
(lp1179
I45416133
aI45456926
aS'+'
asS'PIGU'
p1180
(lp1181
I34560542
aI34677085
aS'-'
asS'DUSP15'
p1182
(lp1183
I31847637
aI31870664
aS'-'
asS'MED28P7'
p1184
(lp1185
I25669857
aI25670386
aS'-'
asS'AL109809.4'
p1186
(lp1187
I1756756
aI1758940
aS'-'
asS'MCM8'
p1188
(lp1189
I5950652
aI5998977
aS'+'
asS'WFDC11'
p1190
(lp1191
I45648563
aI45670270
aS'-'
asS'RPS15AP1'
p1192
(lp1193
I21166206
aI21166596
aS'-'
asS'WFDC13'
p1194
(lp1195
I45702016
aI45708817
aS'+'
asS'WFDC12'
p1196
(lp1197
I45123425
aI45124465
aS'-'
asS'SAMHD1'
p1198
(lp1199
I36890229
aI36951843
aS'-'
asS'SNRPFP1'
p1200
(lp1201
I49729591
aI49729842
aS'-'
asS'SLC2A4RG'
p1202
(lp1203
I63739861
aI63743505
aS'+'
asS'HAO1'
p1204
(lp1205
I7882981
aI7940474
aS'-'
asS'AHCY'
p1206
(lp1207
I34280270
aI34311802
aS'-'
asS'COL20A1'
p1208
(lp1209
I63295040
aI63334851
aS'+'
asS'ZNF512B'
p1210
(lp1211
I63956702
aI63969865
aS'-'
asS'BCL2L1'
p1212
(lp1213
I31664452
aI31722898
aS'-'
asS'GSS'
p1214
(lp1215
I34928430
aI34955817
aS'-'
asS'PSMF1'
p1216
(lp1217
I1113263
aI1167782
aS'+'
asS'MRGBP'
p1218
(lp1219
I62796453
aI62801738
aS'+'
asS'MROH8'
p1220
(lp1221
I37101226
aI37179559
aS'-'
asS'ATP9A'
p1222
(lp1223
I51596514
aI51768634
aS'-'
asS'STX16-NPEPL1'
p1224
(lp1225
I58651434
aI58715410
aS'+'
asS'NKX2-2'
p1226
(lp1227
I21511010
aI21514026
aS'-'
asS'BAK1P1'
p1228
(lp1229
I32690180
aI32690815
aS'-'
asS'MAFB'
p1230
(lp1231
I40685848
aI40689240
aS'-'
asS'NKX2-4'
p1232
(lp1233
I21395367
aI21398028
aS'-'
asS'SPINT3'
p1234
(lp1235
I45512461
aI45515624
aS'-'
asS'TPX2'
p1236
(lp1237
I31739271
aI31801805
aS'+'
asS'AL031663.1'
p1238
(lp1239
I45536796
aI45537014
aS'-'
asS'SPINT4'
p1240
(lp1241
I45722351
aI45725830
aS'+'
asS'PYGB'
p1242
(lp1243
I25248069
aI25298014
aS'+'
asS'RPS3AP3'
p1244
(lp1245
I37021743
aI37021984
aS'-'
asS'PPP1R16B'
p1246
(lp1247
I38805705
aI38923024
aS'+'
asS'NECAB3'
p1248
(lp1249
I33657087
aI33674463
aS'-'
asS'DEFB132'
p1250
(lp1251
I257736
aI261096
aS'+'
asS'ENTPD6'
p1252
(lp1253
I25195693
aI25226729
aS'+'
asS'C20orf27'
p1254
(lp1255
I3753508
aI3768387
aS'-'
asS'C20orf24'
p1256
(lp1257
I36605734
aI36612557
aS'+'
asS'SPAG4'
p1258
(lp1259
I35615892
aI35621049
aS'+'
asS'RAE1'
p1260
(lp1261
I57351010
aI57379211
aS'+'
asS'HELZ2'
p1262
(lp1263
I63559202
aI63572455
aS'-'
asS'RPF2P1'
p1264
(lp1265
I35752814
aI35753719
aS'+'
asS'PI3'
p1266
(lp1267
I45174876
aI45176544
aS'+'
asS'SMIM26'
p1268
(lp1269
I18567347
aI18569563
aS'+'
asS'CSNK2A1'
p1270
(lp1271
I478456
aI543696
aS'-'
asS'BMP7'
p1272
(lp1273
I57168748
aI57266628
aS'-'
asS'ZNF831'
p1274
(lp1275
I59123381
aI59259113
aS'+'
asS'AL022342.1'
p1276
(lp1277
I47160838
aI47161700
aS'-'
asS'BMP2'
p1278
(lp1279
I6767664
aI6780280
aS'+'
asS'PKIG'
p1280
(lp1281
I44531916
aI44624247
aS'+'
asS'BPIFA4P'
p1282
(lp1283
I33193605
aI33210462
aS'+'
asS'NFS1'
p1284
(lp1285
I35668055
aI35699359
aS'-'
asS'GFRA4'
p1286
(lp1287
I3659292
aI3663399
aS'-'
asS'CSTL1'
p1288
(lp1289
I23439685
aI23444930
aS'+'
asS'TMEM189-UBE2V1'
p1290
(lp1291
I50081124
aI50153637
aS'-'
asS'AL136531.2'
p1292
(lp1293
I1317571
aI1393086
aS'-'
asS'XRN2'
p1294
(lp1295
I21303304
aI21389827
aS'+'
asS'UQCC1'
p1296
(lp1297
I35302566
aI35412141
aS'-'
asS'ENSAP1'
p1298
(lp1299
I15619494
aI15619819
aS'-'
asS'ZNF217'
p1300
(lp1301
I53582925
aI53609907
aS'-'
asS'STMN3'
p1302
(lp1303
I63643756
aI63657682
aS'-'
asS'AL133466.1'
p1304
(lp1305
I23980585
aI23980734
aS'-'
asS'ADI1P1'
p1306
(lp1307
I41331123
aI41331660
aS'+'
asS'RASSF2'
p1308
(lp1309
I4780023
aI4823645
aS'-'
asS'AL031679.1'
p1310
(lp1311
I7831798
aI7832322
aS'-'
asS'AL031667.1'
p1312
(lp1313
I41382383
aI41383107
aS'+'
asS'AL031667.2'
p1314
(lp1315
I41459354
aI41461944
aS'-'
asS'ZNF840P'
p1316
(lp1317
I46484461
aI46492640
aS'+'
asS'L3MBTL1'
p1318
(lp1319
I43507680
aI43541894
aS'+'
asS'CHD6'
p1320
(lp1321
I41402101
aI41618494
aS'-'
asS'WISP2'
p1322
(lp1323
I44714844
aI44727811
aS'+'
asS'ABHD12'
p1324
(lp1325
I25294743
aI25390983
aS'-'
asS'AL121845.2'
p1326
(lp1327
I63738270
aI63740398
aS'+'
asS'AL121845.3'
p1328
(lp1329
I63708864
aI63739103
aS'+'
asS'CTNNBL1'
p1330
(lp1331
I37693955
aI37872128
aS'+'
asS'MT1P3'
p1332
(lp1333
I35218009
aI35218185
aS'+'
asS'PRELID3B'
p1334
(lp1335
I59033145
aI59042909
aS'-'
asS'TMEM189'
p1336
(lp1337
I50118254
aI50153734
aS'-'
asS'BCAS1'
p1338
(lp1339
I53943541
aI54070594
aS'-'
asS'LZTS3'
p1340
(lp1341
I3162618
aI3173592
aS'-'
asS'PROCR'
p1342
(lp1343
I35174732
aI35215904
aS'+'
asS'CDC25B'
p1344
(lp1345
I3786772
aI3806121
aS'+'
asS'WFDC9'
p1346
(lp1347
I45607939
aI45631268
aS'-'
asS'DSTN'
p1348
(lp1349
I17569863
aI17609919
aS'+'
asS'AL137028.1'
p1350
(lp1351
I64327418
aI64327972
aS'-'
asS'WFDC3'
p1352
(lp1353
I45747944
aI45791932
aS'-'
asS'WFDC2'
p1354
(lp1355
I45469706
aI45481532
aS'+'
asS'KIF3B'
p1356
(lp1357
I32277664
aI32335011
aS'+'
asS'WFDC6'
p1358
(lp1359
I45534196
aI45539495
aS'-'
asS'TAF4'
p1360
(lp1361
I61974798
aI62065810
aS'-'
asS'SEC23B'
p1362
(lp1363
I18507555
aI18561415
aS'+'
asS'ABBA01031661.1'
p1364
(lp1365
I29410348
aI29411600
aS'-'
asS'SDC4'
p1366
(lp1367
I45325288
aI45348424
aS'-'
asS'TARDBPP1'
p1368
(lp1369
I6200989
aI6202191
aS'-'
asS'VN1R108P'
p1370
(lp1371
I25734264
aI25735093
aS'+'
asS'ZNF877P'
p1372
(lp1373
I21265854
aI21266465
aS'+'
asS'TOX2'
p1374
(lp1375
I43914864
aI44069017
aS'+'
asS'CRLS1'
p1376
(lp1377
I6006090
aI6040053
aS'+'
asS'OSER1'
p1378
(lp1379
I44196496
aI44210791
aS'-'
asS'ACTR5'
p1380
(lp1381
I38748442
aI38772520
aS'+'
asS'BTBD3'
p1382
(lp1383
I11890723
aI11926609
aS'+'
asS'BPIFB9P'
p1384
(lp1385
I33347720
aI33354444
aS'+'
asS'CST9L'
p1386
(lp1387
I23564732
aI23568749
aS'-'
asS'SLC32A1'
p1388
(lp1389
I38724462
aI38729372
aS'+'
asS'RPL39P39'
p1390
(lp1391
I57328546
aI57328696
aS'+'
asS'FAM217B'
p1392
(lp1393
I59933764
aI59948680
aS'+'
asS'ATP5E'
p1394
(lp1395
I59025467
aI59032382
aS'-'
asS'NAA20'
p1396
(lp1397
I20017116
aI20033629
aS'+'
asS'FRG2EP'
p1398
(lp1399
I29415264
aI29416911
aS'-'
asS'RBM12'
p1400
(lp1401
I35648925
aI35664916
aS'-'
asS'EPPIN-WFDC6'
p1402
(lp1403
I45536986
aI45547426
aS'-'
asS'SLA2'
p1404
(lp1405
I36612318
aI36646216
aS'-'
asS'DKKL1P1'
p1406
(lp1407
I31274170
aI31274867
aS'+'
asS'HSPA12B'
p1408
(lp1409
I3732667
aI3753111
aS'+'
asS'NEURL2'
p1410
(lp1411
I45888634
aI45891287
aS'-'
asS'AL390198.2'
p1412
(lp1413
I25835985
aI25836832
aS'-'
asS'NCOR1P1'
p1414
(lp1415
I26103416
aI26114028
aS'-'
asS'FAM209B'
p1416
(lp1417
I56533246
aI56536520
aS'+'
asS'ABHD16B'
p1418
(lp1419
I63861498
aI63862988
aS'+'
asS'FAM209A'
p1420
(lp1421
I56517187
aI56526075
aS'+'
asS'MRPS33P4'
p1422
(lp1423
I52511252
aI52511568
aS'+'
asS'RBL1'
p1424
(lp1425
I36996349
aI37095995
aS'-'
asS'CST11'
p1426
(lp1427
I23450403
aI23452857
aS'-'
asS'SLC13A3'
p1428
(lp1429
I46557823
aI46670139
aS'-'
asS'GLRXP1'
p1430
(lp1431
I37602852
aI37603185
aS'-'
asS'COL9A3'
p1432
(lp1433
I62817062
aI62841159
aS'+'
asS'CHRNA4'
p1434
(lp1435
I63344069
aI63377993
aS'-'
asS'FERMT1'
p1436
(lp1437
I6074845
aI6123544
aS'-'
asS'NPM1P19'
p1438
(lp1439
I38977711
aI38978422
aS'-'
asS'ARFGEF2'
p1440
(lp1441
I48921890
aI49036693
aS'+'
asS'ADA'
p1442
(lp1443
I44619522
aI44651742
aS'-'
asS'DDX27'
p1444
(lp1445
I49219295
aI49244075
aS'+'
asS'KCNB1'
p1446
(lp1447
I49298107
aI49482009
aS'-'
asS'CRNKL1'
p1448
(lp1449
I20034368
aI20056046
aS'-'
asS'STAU1'
p1450
(lp1451
I49113339
aI49188367
aS'-'
asS'XKR7'
p1452
(lp1453
I31968002
aI32003387
aS'+'
asS'EMILIN3'
p1454
(lp1455
I41359966
aI41366827
aS'-'
asS'JPH2'
p1456
(lp1457
I44111695
aI44187578
aS'-'
asS'CCM2L'
p1458
(lp1459
I32010450
aI32032180
aS'+'
asS'ID1'
p1460
(lp1461
I31605283
aI31606515
aS'+'
asS'MGME1'
p1462
(lp1463
I17968913
aI17991122
aS'+'
asS'NXT1'
p1464
(lp1465
I23350736
aI23354777
aS'+'
asS'GNRH2'
p1466
(lp1467
I3043622
aI3045747
aS'+'
asS'CSE1L'
p1468
(lp1469
I49046246
aI49096960
aS'+'
asS'ZNF133'
p1470
(lp1471
I18288283
aI18316994
aS'+'
asS'TMEM230'
p1472
(lp1473
I5068483
aI5113087
aS'-'
asS'AL118522.2'
p1474
(lp1475
I44841925
aI44842539
aS'-'
asS'MMP24-AS1'
p1476
(lp1477
I35201745
aI35278101
aS'-'
asS'COX7BP2'
p1478
(lp1479
I35850674
aI35850915
aS'-'
asS'EPPIN'
p1480
(lp1481
I45540626
aI45547424
aS'-'
asS'CHGB'
p1482
(lp1483
I5911430
aI5925361
aS'+'
asS'ARFGAP1'
p1484
(lp1485
I63272785
aI63289793
aS'+'
asS'CDC42P1'
p1486
(lp1487
I34402149
aI34402696
aS'-'
asS'FO393401.2'
p1488
(lp1489
I35520852
aI35528255
aS'-'
asS'OVOL2'
p1490
(lp1491
I17956979
aI18059188
aS'-'
asS'NNAT'
p1492
(lp1493
I37521215
aI37523693
aS'+'
asS'FAM83C'
p1494
(lp1495
I35285731
aI35292401
aS'-'
asS'POM121L3P'
p1496
(lp1497
I23989292
aI23990454
aS'+'
asS'FAM83D'
p1498
(lp1499
I38926312
aI38953106
aS'+'
asS'UBOX5'
p1500
(lp1501
I3107573
aI3160196
aS'-'
asS'IDH3B'
p1502
(lp1503
I2658395
aI2664219
aS'-'
asS'CPNE1'
p1504
(lp1505
I35626031
aI35664886
aS'-'
asS'BHLHE23'
p1506
(lp1507
I63005927
aI63007035
aS'-'
asS'DOK5'
p1508
(lp1509
I54475597
aI54651171
aS'+'
asS'CICP4'
p1510
(lp1511
I64290187
aI64292998
aS'-'
asS'CABLES2'
p1512
(lp1513
I62388632
aI62407285
aS'-'
asS'ADRM1'
p1514
(lp1515
I62302093
aI62308862
aS'+'
asS'RBBP8NL'
p1516
(lp1517
I62410237
aI62427533
aS'-'
asS'DNMT3B'
p1518
(lp1519
I32762385
aI32809356
aS'+'
asS'SNTA1'
p1520
(lp1521
I33407955
aI33443892
aS'-'
asS'ESF1'
p1522
(lp1523
I13714322
aI13784886
aS'-'
asS'EIF4E2P1'
p1524
(lp1525
I20659710
aI20659964
aS'+'
asS'ZBTB46'
p1526
(lp1527
I63743666
aI63831214
aS'-'
asS'AL354766.1'
p1528
(lp1529
I46863563
aI46864104
aS'-'
asS'TCEA2'
p1530
(lp1531
I64057293
aI64072346
aS'+'
asS'MMP9'
p1532
(lp1533
I46008908
aI46016561
aS'+'
asS'PTGIS'
p1534
(lp1535
I49503874
aI49568146
aS'-'
asS'TMX4'
p1536
(lp1537
I7977348
aI8019829
aS'-'
asS'GGT7'
p1538
(lp1539
I34844720
aI34872860
aS'-'
asS'SNRPB'
p1540
(lp1541
I2461634
aI2470853
aS'-'
asS'AL034418.1'
p1542
(lp1543
I47630266
aI47631438
aS'-'
asS'ANKRD60'
p1544
(lp1545
I58218495
aI58228653
aS'-'
asS'HM13'
p1546
(lp1547
I31514428
aI31571606
aS'+'
asS'RPS27AP3'
p1548
(lp1549
I37049254
aI37049707
aS'+'
asS'RPS27AP2'
p1550
(lp1551
I17516843
aI17517307
aS'+'
asS'C20orf85'
p1552
(lp1553
I58150904
aI58161150
aS'+'
asS'PTPRT'
p1554
(lp1555
I42072752
aI43189970
aS'-'
asS'SF3A3P1'
p1556
(lp1557
I3489529
aI3491005
aS'-'
asS'PREX1'
p1558
(lp1559
I48624252
aI48827883
aS'-'
asS'AL121776.1'
p1560
(lp1561
I47071865
aI47072236
aS'+'
asS'DEFB122'
p1562
(lp1563
I31421436
aI31429180
aS'-'
asS'ASXL1'
p1564
(lp1565
I32358344
aI32439318
aS'+'
asS'PTPRA'
p1566
(lp1567
I2864184
aI3038674
aS'+'
asS'LLPHP1'
p1568
(lp1569
I20721187
aI20721879
aS'+'
asS'SPATA2'
p1570
(lp1571
I49903391
aI49915508
aS'-'
asS'CST12P'
p1572
(lp1573
I23475700
aI23479798
aS'+'
asS'SIGLEC1'
p1574
(lp1575
I3686970
aI3707128
aS'-'
as.