(dp1
S'AF130351.1'
p2
(lp3
I14593720
aI14658821
aS'-'
asS'SUMO3'
p4
(lp5
I44805617
aI44818779
aS'-'
asS'GTF2IP2'
p6
(lp7
I13443373
aI13489176
aS'-'
asS'IFNAR2'
p8
(lp9
I33229971
aI33265675
aS'+'
asS'IFNAR1'
p10
(lp11
I33324904
aI33359862
aS'+'
asS'CR382287.1'
p12
(lp13
I10136419
aI10137004
aS'+'
asS'N6AMT1'
p14
(lp15
I28872191
aI28885371
aS'-'
asS'SLC6A6P1'
p16
(lp17
I19244543
aI19246392
aS'+'
asS'SRSF9P1'
p18
(lp19
I36295173
aI36295702
aS'-'
asS'B3GALT5'
p20
(lp21
I39556442
aI39673137
aS'+'
asS'WDR4'
p22
(lp23
I42843094
aI42879531
aS'-'
asS'WRB'
p24
(lp25
I39380354
aI39414288
aS'+'
asS'GAPDHP16'
p26
(lp27
I14774301
aI14775262
aS'+'
asS'GAPDHP14'
p28
(lp29
I29222321
aI29223257
aS'+'
asS'SMIM11B'
p30
(lp31
I7748899
aI7777853
aS'+'
asS'SMIM11A'
p32
(lp33
I34375561
aI34407866
aS'+'
asS'AP000244.1'
p34
(lp35
I30762682
aI30762882
aS'-'
asS'FDPSP6'
p36
(lp37
I20388334
aI20388845
aS'+'
asS'POLR2CP1'
p38
(lp39
I14757588
aI14758352
aS'+'
asS'AP000457.1'
p40
(lp41
I17296219
aI17296596
aS'+'
asS'KRTAP21-2'
p42
(lp43
I30746794
aI30747233
aS'-'
asS'MTCO1P1'
p44
(lp45
I8845566
aI8846646
aS'+'
asS'MTCO1P3'
p46
(lp47
I45376191
aI45376382
aS'-'
asS'RPS9P1'
p48
(lp49
I36132450
aI36133032
aS'+'
asS'OR4K11P'
p50
(lp51
I13544282
aI13545185
aS'-'
asS'HMGN1'
p52
(lp53
I39342315
aI39349344
aS'-'
asS'RRP1B'
p54
(lp55
I43659548
aI43696079
aS'+'
asS'MX2'
p56
(lp57
I41361943
aI41408943
aS'+'
asS'MX1'
p58
(lp59
I41420515
aI41459214
aS'+'
asS'SAMSN1'
p60
(lp61
I14485228
aI14583402
aS'-'
asS'AP001052.1'
p62
(lp63
I43748365
aI43748468
aS'-'
asS'CCT8'
p64
(lp65
I29056322
aI29073797
aS'-'
asS'RPL23P2'
p66
(lp67
I28997613
aI28998033
aS'-'
asS'RWDD2B'
p68
(lp69
I29004384
aI29019378
aS'-'
asS'BACH1'
p70
(lp71
I29327129
aI29630751
aS'+'
asS'AP000568.1'
p72
(lp73
I19739709
aI19740150
aS'+'
asS'LSS'
p74
(lp75
I46188141
aI46228822
aS'-'
asS'BTF3L4P1'
p76
(lp77
I17518526
aI17518993
aS'-'
asS'AC018692.2'
p78
(lp79
I9810501
aI9810848
aS'+'
asS'AC018692.3'
p80
(lp81
I9810381
aI9810503
aS'-'
asS'HMGN1P2'
p82
(lp83
I31706555
aI31706864
aS'+'
asS'TEKT4P2'
p84
(lp85
I9068361
aI9129752
aS'-'
asS'RPL18AP2'
p86
(lp87
I46420553
aI46421034
aS'-'
asS'MRAP'
p88
(lp89
I32291813
aI32312290
aS'+'
asS'GART'
p90
(lp91
I33503933
aI33542892
aS'-'
asS'C21orf58'
p92
(lp93
I46301130
aI46323875
aS'-'
asS'C21orf59'
p94
(lp95
I32601667
aI32612866
aS'-'
asS'RPL10P1'
p96
(lp97
I27420380
aI27421023
aS'-'
asS'RPL13AP7'
p98
(lp99
I25361821
aI25362431
aS'+'
asS'PPP6R2P1'
p100
(lp101
I14007134
aI14014880
aS'+'
asS'HLCS'
p102
(lp103
I36750888
aI36990236
aS'-'
asS'CBS'
p104
(lp105
I43053191
aI43076378
aS'-'
asS'RIPPLY3'
p106
(lp107
I37006150
aI37019659
aS'+'
asS'FTCD'
p108
(lp109
I46136262
aI46155567
aS'-'
asS'CU634019.7'
p110
(lp111
I7129103
aI7130287
aS'+'
asS'CU634019.5'
p112
(lp113
I7003248
aI7007022
aS'-'
asS'KRTAP19-10P'
p114
(lp115
I30514613
aI30514799
aS'-'
asS'RCAN1'
p116
(lp117
I34516484
aI34615142
aS'-'
asS'DONSON'
p118
(lp119
I33559542
aI33578363
aS'-'
asS'NDUFV3'
p120
(lp121
I42879644
aI42909105
aS'+'
asS'CRYZL1'
p122
(lp123
I33589386
aI33641918
aS'-'
asS'RBM11'
p124
(lp125
I14216130
aI14228372
aS'+'
asS'KRTAP10-13P'
p126
(lp127
I44702221
aI44702791
aS'+'
asS'RPL23AP12'
p128
(lp129
I39127568
aI39128040
aS'+'
asS'BRWD1'
p130
(lp131
I39184176
aI39313819
aS'-'
asS'RPS3AP1'
p132
(lp133
I20430443
aI20430762
aS'-'
asS'CXADRP1'
p134
(lp135
I13676022
aI13677116
aS'+'
asS'SCAF4'
p136
(lp137
I31671033
aI31732075
aS'-'
asS'RPL34P3'
p138
(lp139
I35472095
aI35472432
aS'-'
asS'OLIG2'
p140
(lp141
I33025845
aI33029196
aS'+'
asS'OLIG1'
p142
(lp143
I33070144
aI33072420
aS'+'
asS'ADARB1'
p144
(lp145
I45074600
aI45226560
aS'+'
asS'AP000403.1'
p146
(lp147
I19620695
aI19621545
aS'+'
asS'MORC3'
p148
(lp149
I36320189
aI36376646
aS'+'
asS'AP000311.1'
p150
(lp151
I33584687
aI33931607
aS'-'
asS'AF254983.2'
p152
(lp153
I10397644
aI10397778
aS'+'
asS'C2CD2'
p154
(lp155
I41885112
aI41953890
aS'-'
asS'IGSF5'
p156
(lp157
I39745407
aI39802096
aS'+'
asS'RBPMSLP'
p158
(lp159
I15744004
aI15745080
aS'-'
asS'GPX1P2'
p160
(lp161
I27143344
aI27143949
aS'-'
asS'ERG'
p162
(lp163
I38380030
aI38661780
aS'-'
asS'CHAF1B'
p164
(lp165
I36385378
aI36419015
aS'+'
asS'AJ239321.1'
p166
(lp167
I13120244
aI13120807
aS'+'
asS'C1QBPP1'
p168
(lp169
I19759359
aI19760128
aS'-'
asS'MTND5P1'
p170
(lp171
I44473723
aI44475097
aS'-'
asS'SIM2'
p172
(lp173
I36699134
aI36749917
aS'+'
asS'SLC37A1'
p174
(lp175
I42499632
aI42581440
aS'+'
asS'KRTAP19-11P'
p176
(lp177
I30537278
aI30537381
aS'-'
asS'CR392039.1'
p178
(lp179
I9088188
aI9088391
aS'+'
asS'CR392039.2'
p180
(lp181
I9026821
aI9027329
aS'-'
asS'CR392039.5'
p182
(lp183
I9053122
aI9059060
aS'+'
asS'CR392039.4'
p184
(lp185
I9082601
aI9083101
aS'-'
asS'POTED'
p186
(lp187
I13610177
aI13641585
aS'+'
asS'CR382285.1'
p188
(lp189
I9975017
aI10119309
aS'-'
asS'C21orf91'
p190
(lp191
I17788967
aI17819386
aS'-'
asS'ITGB2'
p192
(lp193
I44885953
aI44928873
aS'-'
asS'KRTAP19-9P'
p194
(lp195
I30510307
aI30510497
aS'-'
asS'BACE2'
p196
(lp197
I41167801
aI41282518
aS'+'
asS'YRDCP3'
p198
(lp199
I40863994
aI40864473
aS'+'
asS'RPS5P2'
p200
(lp201
I34135432
aI34136071
aS'-'
asS'RPS5P3'
p202
(lp203
I33481580
aI33482195
aS'-'
asS'IMMTP1'
p204
(lp205
I44675868
aI44678086
aS'-'
asS'EVA1C'
p206
(lp207
I32412381
aI32515389
aS'+'
asS'SLC25A15P4'
p208
(lp209
I10612455
aI10613379
aS'-'
asS'RHOT1P2'
p210
(lp211
I13936993
aI13937325
aS'-'
asS'USP25'
p212
(lp213
I15730025
aI15880069
aS'+'
asS'KRTAP8-3P'
p214
(lp215
I30806932
aI30807119
aS'-'
asS'ADAMTS5'
p216
(lp217
I26917912
aI26966513
aS'-'
asS'ADAMTS1'
p218
(lp219
I26835747
aI26845409
aS'-'
asS'C21orf33'
p220
(lp221
I44133605
aI44145723
aS'+'
asS'TSPEAR'
p222
(lp223
I44497892
aI44711580
aS'-'
asS'CRYAA'
p224
(lp225
I43169008
aI43172805
aS'+'
asS'DYRK1A'
p226
(lp227
I37367577
aI37515377
aS'+'
asS'RIMKLBP1'
p228
(lp229
I36050214
aI36051377
aS'+'
asS'URB1'
p230
(lp231
I32311018
aI32393026
aS'-'
asS'LIPI'
p232
(lp233
I14108893
aI14210891
aS'-'
asS'FP565260.1'
p234
(lp235
I5130871
aI5154734
aS'-'
asS'FP565260.2'
p236
(lp237
I5116343
aI5133805
aS'-'
asS'FP565260.3'
p238
(lp239
I5022493
aI5040666
aS'+'
asS'FP565260.4'
p240
(lp241
I5011799
aI5017145
aS'+'
asS'FP565260.6'
p242
(lp243
I5079294
aI5127927
aS'-'
asS'MRPL39'
p244
(lp245
I25585656
aI25607517
aS'-'
asS'NCSTNP1'
p246
(lp247
I27492118
aI27492261
aS'+'
asS'PTTG1IP'
p248
(lp249
I44849586
aI44873903
aS'-'
asS'APP'
p250
(lp251
I25880551
aI26171128
aS'-'
asS'TIMM9P2'
p252
(lp253
I39216624
aI39217506
aS'+'
asS'PDXK'
p254
(lp255
I43719097
aI43762307
aS'+'
asS'IL10RB'
p256
(lp257
I33266358
aI33297234
aS'+'
asS'FP236240.1'
p258
(lp259
I6560714
aI6564489
aS'+'
asS'CR381653.2'
p260
(lp261
I9369285
aI9376645
aS'-'
asS'FP236240.4'
p262
(lp263
I6507017
aI6507389
aS'-'
asS'RPSAP68'
p264
(lp265
I8603547
aI8603984
aS'+'
asS'AP000705.1'
p266
(lp267
I22153950
aI22154299
aS'-'
asS'AP000705.2'
p268
(lp269
I22134698
aI22136083
aS'-'
asS'C21orf2'
p270
(lp271
I44328944
aI44339402
aS'-'
asS'U2AF1'
p272
(lp273
I43092956
aI43107587
aS'-'
asS'CLDN8'
p274
(lp275
I30214006
aI30216073
aS'-'
asS'TPTE'
p276
(lp277
I10521553
aI10606140
aS'+'
asS'RPL8P2'
p278
(lp279
I30263380
aI30263881
aS'-'
asS'GXYLT1P2'
p280
(lp281
I13824406
aI13825635
aS'-'
asS'JAM2'
p282
(lp283
I25639272
aI25717562
aS'+'
asS'KRTAP10-12'
p284
(lp285
I44697172
aI44698044
aS'+'
asS'KRTAP10-11'
p286
(lp287
I44646414
aI44647650
aS'+'
asS'KRTAP10-10'
p288
(lp289
I44637356
aI44638455
aS'+'
asS'FGF7P2'
p290
(lp291
I13349265
aI13350648
aS'+'
asS'PIGP'
p292
(lp293
I37059170
aI37073158
aS'-'
asS'DOPEY2'
p294
(lp295
I36164535
aI36294274
aS'+'
asS'RPL31P1'
p296
(lp297
I43551229
aI43551600
aS'+'
asS'PCNT'
p298
(lp299
I46324122
aI46445769
aS'+'
asS'ZNF299P'
p300
(lp301
I23090028
aI23091831
aS'-'
asS'EIF4A1P1'
p302
(lp303
I27367014
aI27367947
aS'-'
asS'H2AFZP1'
p304
(lp305
I44046347
aI44047041
aS'-'
asS'KRTAP13-3'
p306
(lp307
I30425265
aI30425968
aS'-'
asS'TPT1P1'
p308
(lp309
I31840341
aI31840858
aS'+'
asS'KRT18P2'
p310
(lp311
I20424949
aI20426206
aS'-'
asS'ANKRD30BP1'
p312
(lp313
I13384249
aI13427773
aS'-'
asS'ANKRD30BP2'
p314
(lp315
I13038208
aI13067033
aS'+'
asS'CBSL'
p316
(lp317
I6444869
aI6468040
aS'-'
asS'RSPH1'
p318
(lp319
I42472486
aI42496354
aS'-'
asS'BAGE2'
p320
(lp321
I10413532
aI10491615
aS'+'
asS'CU633980.1'
p322
(lp323
I7768884
aI7770591
aS'-'
asS'CU633980.2'
p324
(lp325
I7788703
aI7793954
aS'-'
asS'TRAPPC10'
p326
(lp327
I44012319
aI44106552
aS'+'
asS'VDAC2P1'
p328
(lp329
I16094415
aI16095372
aS'-'
asS'CLIC6'
p330
(lp331
I34669389
aI34718227
aS'+'
asS'EIF3FP1'
p332
(lp333
I10330732
aI10331537
aS'+'
asS'CSTB'
p334
(lp335
I43772511
aI43776445
aS'-'
asS'CNN2P7'
p336
(lp337
I13826696
aI13827627
aS'+'
asS'CXADR'
p338
(lp339
I17513130
aI17593579
aS'+'
asS'GRIK1'
p340
(lp341
I29536933
aI29940022
aS'-'
asS'RAD23BLP'
p342
(lp343
I15694300
aI15696581
aS'-'
asS'EZH2P1'
p344
(lp345
I35599732
aI35600022
aS'-'
asS'PPIAP1'
p346
(lp347
I20828127
aI20828622
aS'-'
asS'AP000281.1'
p348
(lp349
I32841496
aI32841811
aS'-'
asS'SLC5A3'
p350
(lp351
I34073570
aI34106262
aS'+'
asS'FBXW11P1'
p352
(lp353
I31627127
aI31628600
aS'-'
asS'SPATC1L'
p354
(lp355
I46161148
aI46184476
aS'-'
asS'KRTAP6-3'
p356
(lp357
I30592440
aI30593075
aS'+'
asS'KRTAP6-2'
p358
(lp359
I30598590
aI30598902
aS'-'
asS'KRTAP6-1'
p360
(lp361
I30613431
aI30613930
aS'-'
asS'CYCSP42'
p362
(lp363
I15490530
aI15490767
aS'-'
asS'ETS2'
p364
(lp365
I38805307
aI38824955
aS'+'
asS'FDX1P2'
p366
(lp367
I25692180
aI25692554
aS'+'
asS'TCP10L'
p368
(lp369
I32574841
aI32585533
aS'-'
asS'MAP3K7CL'
p370
(lp371
I29077633
aI29175889
aS'+'
asS'RPL12P9'
p372
(lp373
I29127701
aI29128188
aS'-'
asS'FAM207A'
p374
(lp375
I44940010
aI44976989
aS'+'
asS'EEF1A1P1'
p376
(lp377
I23390258
aI23390996
aS'+'
asS'NEK4P1'
p378
(lp379
I17210469
aI17211347
aS'-'
asS'HSPD1P7'
p380
(lp381
I28887280
aI28889272
aS'-'
asS'AIRE'
p382
(lp383
I44285838
aI44298648
aS'+'
asS'NRIP1'
p384
(lp385
I14961235
aI15065000
aS'-'
asS'SH3BGR'
p386
(lp387
I39445855
aI39515506
aS'+'
asS'AP001342.1'
p388
(lp389
I25031005
aI25031529
aS'-'
asS'AP000949.1'
p390
(lp391
I22882582
aI22884000
aS'+'
asS'AF254982.1'
p392
(lp393
I10640028
aI10640338
aS'-'
asS'CU639417.4'
p394
(lp395
I6008604
aI6008810
aS'+'
asS'CU639417.2'
p396
(lp397
I6111134
aI6123739
aS'+'
asS'CU639417.1'
p398
(lp399
I5972924
aI5973383
aS'-'
asS'FAM3B'
p400
(lp401
I41304212
aI41357431
aS'+'
asS'ERLEC1P1'
p402
(lp403
I14143581
aI14144158
aS'+'
asS'PSMG1'
p404
(lp405
I39174769
aI39183851
aS'-'
asS'H2BFS'
p406
(lp407
I43565189
aI43565648
aS'+'
asS'C21orf140'
p408
(lp409
I34400317
aI34401072
aS'-'
asS'VN1R7P'
p410
(lp411
I10357400
aI10358620
aS'+'
asS'PRMT2'
p412
(lp413
I46635167
aI46664951
aS'+'
asS'LRRC3'
p414
(lp415
I44455486
aI44462196
aS'+'
asS'OR7E23P'
p416
(lp417
I32621049
aI32622096
aS'+'
asS'KRTAP27-1'
p418
(lp419
I30337013
aI30337694
aS'-'
asS'SETD4'
p420
(lp421
I36043686
aI36079389
aS'-'
asS'KRTAP20-2'
p422
(lp423
I30635236
aI30635619
aS'+'
asS'KRTAP20-3'
p424
(lp425
I30642864
aI30643136
aS'+'
asS'KRTAP20-1'
p426
(lp427
I30616425
aI30616699
aS'+'
asS'METTL21AP1'
p428
(lp429
I39235386
aI39236020
aS'-'
asS'KRTAP20-4'
p430
(lp431
I30620627
aI30620850
aS'+'
asS'RUNX1'
p432
(lp433
I34887046
aI36004667
aS'-'
asS'FRG2MP'
p434
(lp435
I14019060
aI14020725
aS'-'
asS'KRTAP23-1'
p436
(lp437
I30348399
aI30348609
aS'-'
asS'ZBTB21'
p438
(lp439
I41986831
aI42010357
aS'-'
asS'RRP1'
p440
(lp441
I43789513
aI43805293
aS'+'
asS'AP000563.1'
p442
(lp443
I31452466
aI31453223
aS'+'
asS'DNAJC28'
p444
(lp445
I33485530
aI33491473
aS'-'
asS'RPL37P3'
p446
(lp447
I17894193
aI17894485
aS'-'
asS'MTCYBP21'
p448
(lp449
I44469929
aI44472516
aS'-'
asS'RPL37P4'
p450
(lp451
I19593841
aI19594108
aS'+'
asS'IFNGR2'
p452
(lp453
I33432319
aI33479348
aS'+'
asS'ICOSLG'
p454
(lp455
I44222991
aI44240945
aS'-'
asS'KRTAP7-1'
p456
(lp457
I30829039
aI30829759
aS'-'
asS'CHODL'
p458
(lp459
I17901263
aI18267373
aS'+'
asS'PPIAP22'
p460
(lp461
I18857779
aI18858276
aS'+'
asS'TIAM1'
p462
(lp463
I31118416
aI31558977
aS'-'
asS'MRPL20P1'
p464
(lp465
I36994643
aI36995075
aS'+'
asS'TRPM2'
p466
(lp467
I44350163
aI44443081
aS'+'
asS'PWP2'
p468
(lp469
I44107290
aI44131181
aS'+'
asS'NF1P3'
p470
(lp471
I14000927
aI14005279
aS'+'
asS'KRTAP8-2P'
p472
(lp473
I30802242
aI30802427
aS'-'
asS'PKNOX1'
p474
(lp475
I42974510
aI43033931
aS'+'
asS'KRTAP12-1'
p476
(lp477
I44681576
aI44682163
aS'-'
asS'KRTAP12-3'
p478
(lp479
I44657932
aI44658341
aS'+'
asS'KRTAP12-2'
p480
(lp481
I44666189
aI44666927
aS'-'
asS'KRTAP12-4'
p482
(lp483
I44654213
aI44654659
aS'-'
asS'AP000295.1'
p484
(lp485
I33246774
aI33283212
aS'+'
asS'KRTAP24-1'
p486
(lp487
I30281309
aI30282958
aS'-'
asS'DSCR4'
p488
(lp489
I37951425
aI38121339
aS'-'
asS'PSMD4P1'
p490
(lp491
I36485983
aI36487411
aS'-'
asS'DSCR3'
p492
(lp493
I37223420
aI37267919
aS'-'
asS'GRAMD4P1'
p494
(lp495
I13665868
aI13667546
aS'-'
asS'RPS20P1'
p496
(lp497
I35724747
aI35725100
aS'-'
asS'PCBP2P1'
p498
(lp499
I39171130
aI39172106
aS'-'
asS'FAM207CP'
p500
(lp501
I13792635
aI13793141
aS'+'
asS'MIS18A'
p502
(lp503
I32268219
aI32279069
aS'-'
asS'YBEY'
p504
(lp505
I46286337
aI46297751
aS'+'
asS'AC124864.2'
p506
(lp507
I9558970
aI9559155
aS'+'
asS'AC124864.1'
p508
(lp509
I9580024
aI9580415
aS'-'
asS'POFUT2'
p510
(lp511
I45263928
aI45287898
aS'-'
asS'MTND6P21'
p512
(lp513
I44472895
aI44473739
aS'+'
asS'SPATA20P1'
p514
(lp515
I38238227
aI38238664
aS'-'
asS'KRTAP19-2'
p516
(lp517
I30487057
aI30487436
aS'-'
asS'FP475955.4'
p518
(lp519
I6897291
aI6899280
aS'+'
asS'KRTAP19-1'
p520
(lp521
I30479699
aI30480344
aS'-'
asS'KRTAP19-6'
p522
(lp523
I30541535
aI30541864
aS'-'
asS'KRTAP19-7'
p524
(lp525
I30560875
aI30561314
aS'-'
asS'KRTAP19-4'
p526
(lp527
I30496824
aI30497133
aS'-'
asS'KRTAP19-5'
p528
(lp529
I30501657
aI30502117
aS'-'
asS'KRTAP19-8'
p530
(lp531
I31038159
aI31038476
aS'-'
asS'CU633906.4'
p532
(lp533
I6272135
aI6276532
aS'-'
asS'FEM1AP1'
p534
(lp535
I13762338
aI13764332
aS'+'
asS'KRTAP15-1'
p536
(lp537
I30440275
aI30440945
aS'+'
asS'C21orf62'
p538
(lp539
I32793564
aI32813743
aS'-'
asS'CR381572.2'
p540
(lp541
I8680538
aI8680934
aS'-'
asS'CR381572.1'
p542
(lp543
I8701461
aI8701562
aS'+'
asS'DSCR8'
p544
(lp545
I38121451
aI38156511
aS'+'
asS'MRPL51P2'
p546
(lp547
I43115334
aI43115709
aS'-'
asS'KRTAP21-3'
p548
(lp549
I30718525
aI30718777
aS'-'
asS'KCNJ6'
p550
(lp551
I37607376
aI37916446
aS'-'
asS'KRTAP21-1'
p552
(lp553
I30754830
aI30755428
aS'-'
asS'KRTAP11-1'
p554
(lp555
I30880644
aI30881555
aS'-'
asS'KRTAP22-1'
p556
(lp557
I30601087
aI30601382
aS'+'
asS'KRTAP22-2'
p558
(lp559
I30590105
aI30590397
aS'-'
asS'AGPAT3'
p560
(lp561
I43865186
aI43986536
aS'+'
asS'GABPA'
p562
(lp563
I25734570
aI25772460
aS'+'
asS'MCM3AP'
p564
(lp565
I46235133
aI46286297
aS'-'
asS'DIP2A'
p566
(lp567
I46458899
aI46569708
aS'+'
asS'KRTAP8-1'
p568
(lp569
I30812697
aI30813252
aS'-'
asS'S100B'
p570
(lp571
I46598962
aI46605208
aS'-'
asS'VN1R8P'
p572
(lp573
I13476371
aI13477263
aS'+'
asS'CBR1'
p574
(lp575
I36069941
aI36073166
aS'+'
asS'CBR3'
p576
(lp577
I36134912
aI36146566
aS'+'
asS'SON'
p578
(lp579
I33542618
aI33577481
aS'+'
asS'SYNJ1'
p580
(lp581
I32628759
aI32728040
aS'-'
asS'DSTNP1'
p582
(lp583
I46653558
aI46654022
aS'-'
asS'CU633904.3'
p584
(lp585
I7421442
aI7425839
aS'-'
asS'CU633904.2'
p586
(lp587
I7385058
aI7388799
aS'-'
asS'RPL23AP3'
p588
(lp589
I36016079
aI36016546
aS'-'
asS'COL18A1'
p590
(lp591
I45405137
aI45513720
aS'+'
asS'RPL23AP4'
p592
(lp593
I46690764
aI46691226
aS'+'
asS'RPSAP64'
p594
(lp595
I38894917
aI38895252
aS'+'
asS'KRTAP13-4'
p596
(lp597
I30430230
aI30431026
aS'+'
asS'AP001425.1'
p598
(lp599
I38204141
aI38206080
aS'-'
asS'KRTAP13-1'
p600
(lp601
I30396074
aI30396822
aS'+'
asS'KRTAP13-2'
p602
(lp603
I30371391
aI30372257
aS'-'
asS'THUMPD1P1'
p604
(lp605
I28901779
aI28903697
aS'-'
asS'KRTAP25-1'
p606
(lp607
I30289145
aI30289514
aS'-'
asS'FP565260.7'
p608
(lp609
I5157012
aI5165472
aS'-'
asS'AP000322.1'
p610
(lp611
I34418715
aI34423966
aS'-'
asS'CYP4F29P'
p612
(lp613
I13843133
aI13848364
aS'-'
asS'KRTAP26-1'
p614
(lp615
I30319124
aI30320316
aS'-'
asS'AF121897.1'
p616
(lp617
I39525583
aI39529855
aS'+'
asS'PCP4'
p618
(lp619
I39867317
aI39929397
aS'+'
asS'MAPK6PS2'
p620
(lp621
I22436290
aI22438349
aS'-'
asS'COL6A1'
p622
(lp623
I45981737
aI46005050
aS'+'
asS'COL6A2'
p624
(lp625
I46098097
aI46132849
aS'+'
asS'KCNE2'
p626
(lp627
I34364024
aI34371389
aS'+'
asS'KCNE1'
p628
(lp629
I34446688
aI34511339
aS'-'
asS'IGHV1OR21-1'
p630
(lp631
I10649400
aI10649835
aS'-'
asS'CYCSP41'
p632
(lp633
I10576292
aI10576587
aS'+'
asS'KRTAP13-6P'
p634
(lp635
I30356515
aI30356885
aS'-'
asS'FP236241.2'
p636
(lp637
I7626344
aI7627528
aS'-'
asS'CYYR1'
p638
(lp639
I26466209
aI26573284
aS'-'
asS'ITSN1'
p640
(lp641
I33642458
aI33899861
aS'+'
asS'PFKL'
p642
(lp643
I44300051
aI44327376
aS'+'
asS'RPL39P40'
p644
(lp645
I17500679
aI17500824
aS'-'
asS'UBE3AP2'
p646
(lp647
I31060600
aI31063168
aS'-'
asS'SNX19P1'
p648
(lp649
I13525599
aI13528579
aS'+'
asS'SOD1'
p650
(lp651
I31659622
aI31668931
aS'+'
asS'MRPS6'
p652
(lp653
I34073224
aI34143034
aS'+'
asS'UMODL1'
p654
(lp655
I42062959
aI42143453
aS'+'
asS'AL050303.2'
p656
(lp657
I13704853
aI13705518
aS'+'
asS'AL050303.3'
p658
(lp659
I13654073
aI13654356
aS'+'
asS'KRTAP10-9'
p660
(lp661
I44627123
aI44628293
aS'+'
asS'KRTAP10-8'
p662
(lp663
I44612079
aI44612954
aS'+'
asS'KRTAP10-7'
p664
(lp665
I44600597
aI44602174
aS'+'
asS'KRTAP10-6'
p666
(lp667
I44591268
aI44592505
aS'-'
asS'KRTAP10-5'
p668
(lp669
I44579455
aI44580604
aS'-'
asS'KRTAP10-4'
p670
(lp671
I44573724
aI44638284
aS'+'
asS'KRTAP10-3'
p672
(lp673
I44557790
aI44558760
aS'-'
asS'KRTAP10-2'
p674
(lp675
I44550357
aI44551505
aS'-'
asS'KRTAP10-1'
p676
(lp677
I44538981
aI44540195
aS'-'
asS'HUNK'
p678
(lp679
I31873315
aI32004064
aS'+'
asS'SLC19A1'
p680
(lp681
I45498201
aI45544411
aS'-'
asS'ANKRD20A18P'
p682
(lp683
I14064325
aI14069087
aS'+'
asS'MSANTD2P1'
p684
(lp685
I23101223
aI23103074
aS'+'
asS'RNGTTP1'
p686
(lp687
I25643489
aI25644216
aS'+'
asS'DPRXP5'
p688
(lp689
I36943267
aI36944125
aS'+'
asS'EXOSC3P1'
p690
(lp691
I32496812
aI32497311
aS'+'
asS'TERF1P1'
p692
(lp693
I13776086
aI13777266
aS'+'
asS'CU638689.2'
p694
(lp695
I6712596
aI6716361
aS'+'
asS'CU638689.3'
p696
(lp697
I6676178
aI6679962
aS'-'
asS'TMEM97P1'
p698
(lp699
I43783123
aI43783573
aS'+'
asS'PCBP3'
p700
(lp701
I45643694
aI45942454
aS'+'
asS'SSR4P1'
p702
(lp703
I45071733
aI45074165
aS'-'
asS'OR4K12P'
p704
(lp705
I13581044
aI13582004
aS'-'
asS'TTC3'
p706
(lp707
I37073271
aI37203103
aS'+'
asS'SNX18P10'
p708
(lp709
I8801362
aI8801880
aS'-'
asS'SNX18P13'
p710
(lp711
I13905960
aI13906488
aS'-'
asS'SNX18P12'
p712
(lp713
I9364467
aI9365225
aS'-'
asS'CR381670.1'
p714
(lp715
I8857260
aI8880976
aS'+'
asS'HSF2BP'
p716
(lp717
I43529192
aI43659493
aS'-'
asS'TMPRSS15'
p718
(lp719
I18269116
aI18403656
aS'-'
asS'SIK1'
p720
(lp721
I43414515
aI43427128
aS'-'
asS'ABCG1'
p722
(lp723
I42199689
aI42297244
aS'+'
asS'PRDM15'
p724
(lp725
I41798225
aI41879482
aS'-'
asS'KRTAP21-4P'
p726
(lp727
I30741780
aI30742595
aS'-'
asS'USF1P1'
p728
(lp729
I33334571
aI33335096
aS'+'
asS'TMEM50B'
p730
(lp731
I33432485
aI33479943
aS'-'
asS'ZNF355P'
p732
(lp733
I13095305
aI13113790
aS'-'
asS'CLDN17'
p734
(lp735
I30165564
aI30166756
aS'-'
asS'CLDN14'
p736
(lp737
I36460621
aI36576569
aS'-'
asS'AL773604.1'
p738
(lp739
I44686358
aI44686629
aS'+'
asS'ATP5J'
p740
(lp741
I25716503
aI25735027
aS'-'
asS'ATP5O'
p742
(lp743
I33903453
aI33915980
aS'-'
asS'PAXBP1'
p744
(lp745
I32733899
aI32771858
aS'-'
asS'NCAM2'
p746
(lp747
I20998315
aI21543329
aS'+'
asS'BTG3'
p748
(lp749
I17593653
aI17612947
aS'-'
asS'KRTAP19-3'
p750
(lp751
I30491464
aI30491985
aS'-'
asS'AP001506.1'
p752
(lp753
I20597953
aI20598163
aS'+'
asS'SNRPGP13'
p754
(lp755
I38502445
aI38502621
aS'+'
asS'RPL3P1'
p756
(lp757
I36168970
aI36170180
aS'-'
asS'RNF6P1'
p758
(lp759
I39373763
aI39377066
aS'-'
asS'ANKRD20A11P'
p760
(lp761
I13909574
aI13979911
aS'-'
asS'ATP5J2LP'
p762
(lp763
I36388878
aI36389112
aS'-'
asS'TUBAP'
p764
(lp765
I23407658
aI23409128
aS'-'
asS'MYL6P2'
p766
(lp767
I39488327
aI39488760
aS'+'
asS'MYL6P1'
p768
(lp769
I43855890
aI43856342
aS'-'
asS'PSMA6P3'
p770
(lp771
I46072085
aI46072248
aS'-'
asS'TFF1'
p772
(lp773
I42362282
aI42366594
aS'-'
asS'TFF2'
p774
(lp775
I42346357
aI42351128
aS'-'
asS'TFF3'
p776
(lp777
I42311667
aI42315651
aS'-'
asS'PDE9A'
p778
(lp779
I42653750
aI42775509
aS'+'
asS'RIPK4'
p780
(lp781
I41739369
aI41767106
aS'-'
asS'DSCAM'
p782
(lp783
I40010999
aI40847139
aS'-'
asS'UBASH3A'
p784
(lp785
I42403915
aI42447681
aS'+'
asS'PPP1R2P2'
p786
(lp787
I35887195
aI35887807
aS'+'
asS'LTN1'
p788
(lp789
I28928144
aI28992956
aS'-'
asS'LCA5L'
p790
(lp791
I39405844
aI39445777
aS'-'
asS'UBE2G2'
p792
(lp793
I44768580
aI44802019
aS'-'
asS'KCNJ15'
p794
(lp795
I38157034
aI38299406
aS'+'
asS'CU633906.3'
p796
(lp797
I6309161
aI6312948
aS'+'
asS'TMPRSS2'
p798
(lp799
I41467734
aI41531116
aS'-'
asS'TMPRSS3'
p800
(lp801
I42371890
aI42396846
aS'-'
asS'DNMT3L'
p802
(lp803
I44246339
aI44262216
aS'-'
asS'KRTAP13-5P'
p804
(lp805
I30436466
aI30436964
aS'-'
asS'U2AF1L5'
p806
(lp807
I6484624
aI6499256
aS'-'
asS'USP16'
p808
(lp809
I29024629
aI29054488
aS'+'
asS'ZNF114P1'
p810
(lp811
I13839118
aI13839409
aS'+'
asS'KCNE1B'
p812
(lp813
I7816675
aI7829926
aS'-'
asS'BTF3P6'
p814
(lp815
I33518610
aI33519108
aS'-'
asS'ABCC13'
p816
(lp817
I14274092
aI14362754
aS'+'
asS'HSPA13'
p818
(lp819
I14371115
aI14383187
aS'-'
asS'AP000567.1'
p820
(lp821
I30526546
aI30526701
aS'-'
asS'AP000275.1'
p822
(lp823
I32624416
aI32625096
aS'-'
asS'AP000275.2'
p824
(lp825
I32578823
aI32612281
aS'-'
asS'RBMX2P1'
p826
(lp827
I14829154
aI14829989
aS'-'
asS'RPS26P4'
p828
(lp829
I39491544
aI39491898
aS'-'
asS'RPS26P5'
p830
(lp831
I16121310
aI16121644
aS'-'
asS'LLPHP2'
p832
(lp833
I25762938
aI25763333
aS'-'
asS'MEMO1P1'
p834
(lp835
I36130489
aI36131376
aS'+'
as.