(dp1
S'SOCS2P2'
p2
(lp3
I22170983
aI22171556
aS'-'
asS'IFT27'
p4
(lp5
I36758202
aI36776153
aS'-'
asS'DRICH1'
p6
(lp7
I23608452
aI23632321
aS'-'
asS'CRKL'
p8
(lp9
I20917426
aI20953749
aS'+'
asS'TSSK1A'
p10
(lp11
I19124879
aI19125646
aS'+'
asS'ANP32BP2'
p12
(lp13
I44651835
aI44652379
aS'+'
asS'IGLV2-28'
p14
(lp15
I22664473
aI22664907
aS'+'
asS'SBF1'
p16
(lp17
I50445000
aI50475024
aS'-'
asS'MTND1P10'
p18
(lp19
I36178554
aI36179385
aS'+'
asS'IGLVI-20'
p20
(lp21
I22715290
aI22715419
aS'+'
asS'MTND1P17'
p22
(lp23
I16876218
aI16876421
aS'-'
asS'PMM1'
p24
(lp25
I41576894
aI41589890
aS'-'
asS'GPM6BP3'
p26
(lp27
I16837522
aI16837666
aS'+'
asS'RTN4R'
p28
(lp29
I20242849
aI20283246
aS'-'
asS'MEI1'
p30
(lp31
I41699499
aI41799454
aS'+'
asS'OSBP2'
p32
(lp33
I30694206
aI30907824
aS'+'
asS'IGLL4P'
p34
(lp35
I20632619
aI20632751
aS'+'
asS'AC000041.1'
p36
(lp37
I29419155
aI29423193
aS'-'
asS'AC000041.2'
p38
(lp39
I29437583
aI29437733
aS'+'
asS'GSC2'
p40
(lp41
I19148576
aI19150283
aS'-'
asS'BMP6P1'
p42
(lp43
I22185941
aI22186619
aS'+'
asS'AL031597.1'
p44
(lp45
I46481329
aI46481760
aS'-'
asS'AP000532.1'
p46
(lp47
I15615402
aI15615578
aS'-'
asS'NIPSNAP1'
p48
(lp49
I29554808
aI29581337
aS'-'
asS'IGLV2-5'
p50
(lp51
I22856762
aI22857038
aS'+'
asS'IGLVIVOR22-2'
p52
(lp53
I32376682
aI32377135
aS'+'
asS'IGLVIVOR22-1'
p54
(lp55
I25437306
aI25437823
aS'-'
asS'AC005005.1'
p56
(lp57
I31155966
aI31156647
aS'-'
asS'TMEM184B'
p58
(lp59
I38219291
aI38273034
aS'-'
asS'SCARF2'
p60
(lp61
I20424815
aI20437826
aS'-'
asS'LINC00634'
p62
(lp63
I41952174
aI41958933
aS'+'
asS'FAM32BP'
p64
(lp65
I17213516
aI17214155
aS'+'
asS'GTSE1'
p66
(lp67
I46296741
aI46330810
aS'+'
asS'SNAP29'
p68
(lp69
I20858983
aI20891218
aS'+'
asS'CCDC116'
p70
(lp71
I21632729
aI21637327
aS'+'
asS'RHBDD3'
p72
(lp73
I29259852
aI29267978
aS'-'
asS'CCDC117'
p74
(lp75
I28772674
aI28789301
aS'+'
asS'JTBP1'
p76
(lp77
I40798039
aI40798285
aS'+'
asS'SUSD2P2'
p78
(lp79
I18623339
aI18625289
aS'-'
asS'SLC5A1'
p80
(lp81
I32043032
aI32113029
aS'+'
asS'ZNF72P'
p82
(lp83
I15326037
aI15343065
aS'-'
asS'RASL10A'
p84
(lp85
I29313503
aI29319679
aS'-'
asS'APOBEC3A'
p86
(lp87
I38957522
aI38992778
aS'+'
asS'AP000350.1'
p88
(lp89
I23939998
aI23942798
aS'+'
asS'AC016027.4'
p90
(lp91
I18101612
aI18101888
aS'+'
asS'AC016027.5'
p92
(lp93
I18081466
aI18081675
aS'-'
asS'MYO18B'
p94
(lp95
I25742153
aI26031041
aS'+'
asS'AC000081.1'
p96
(lp97
I19238443
aI19238739
aS'-'
asS'TANGO2'
p98
(lp99
I20017014
aI20065358
aS'+'
asS'CA15P1'
p100
(lp101
I19031564
aI19034564
aS'-'
asS'TST'
p102
(lp103
I37010859
aI37020183
aS'-'
asS'VPREB1'
p104
(lp105
I22244675
aI22245515
aS'+'
asS'CHKB'
p106
(lp107
I50580357
aI50601455
aS'-'
asS'CRYBA4'
p108
(lp109
I26621964
aI26630672
aS'+'
asS'IGLV7-46'
p110
(lp111
I22369614
aI22370087
aS'+'
asS'HSFY1P1'
p112
(lp113
I16827474
aI16829335
aS'+'
asS'AC000095.2'
p114
(lp115
I18998274
aI19014786
aS'+'
asS'IGLV7-43'
p116
(lp117
I22395018
aI22395489
aS'+'
asS'IGLV3-4'
p118
(lp119
I22858025
aI22858268
aS'+'
asS'SOX10'
p120
(lp121
I37972300
aI37987422
aS'-'
asS'IGKV3OR22-2'
p122
(lp123
I16925952
aI16926444
aS'-'
asS'RHEBP3'
p124
(lp125
I18019214
aI18020200
aS'+'
asS'GRAP2'
p126
(lp127
I39901082
aI39973721
aS'+'
asS'DGCR6L'
p128
(lp129
I20314276
aI20320080
aS'-'
asS'NF2'
p130
(lp131
I29603558
aI29698598
aS'+'
asS'IGLVV-58'
p132
(lp133
I22182582
aI22182885
aS'+'
asS'AP000550.4'
p134
(lp135
I21193360
aI21203755
aS'-'
asS'GGTLC3'
p136
(lp137
I18516344
aI18518161
aS'-'
asS'GGTLC2'
p138
(lp139
I22644475
aI22647903
aS'+'
asS'PABPC1P9'
p140
(lp141
I16423943
aI16426031
aS'+'
asS'AC137499.1'
p142
(lp143
I16405330
aI16405417
aS'+'
asS'SAMM50'
p144
(lp145
I43955421
aI43996533
aS'+'
asS'PPARA'
p146
(lp147
I46150596
aI46243756
aS'+'
asS'CBY1'
p148
(lp149
I38656655
aI38673854
aS'+'
asS'LRRC74B'
p150
(lp151
I21045960
aI21064168
aS'+'
asS'RPL23AP82'
p152
(lp153
I50756948
aI50789186
aS'+'
asS'Z98048.1'
p154
(lp155
I40788777
aI40789267
aS'-'
asS'SULT4A1'
p156
(lp157
I43824509
aI43862503
aS'-'
asS'ZNRF3'
p158
(lp159
I28883592
aI29057487
aS'+'
asS'MB'
p160
(lp161
I35610884
aI35637951
aS'-'
asS'CABP7'
p162
(lp163
I29720084
aI29731839
aS'+'
asS'ZDHHC8'
p164
(lp165
I20131807
aI20148007
aS'+'
asS'HMGB1P10'
p166
(lp167
I26560526
aI26561088
aS'+'
asS'IGLV1-62'
p168
(lp169
I22086561
aI22087110
aS'+'
asS'MTCO3P20'
p170
(lp171
I36175167
aI36175854
aS'+'
asS'TCN2'
p172
(lp173
I30606838
aI30627278
aS'+'
asS'C22orf29'
p174
(lp175
I19846138
aI19854896
aS'-'
asS'IGLV4-69'
p176
(lp177
I22030934
aI22031472
aS'+'
asS'TTC38'
p178
(lp179
I46267964
aI46294008
aS'+'
asS'AL117329.2'
p180
(lp181
I47662559
aI47663603
aS'-'
asS'AC003071.2'
p182
(lp183
I30105094
aI30105408
aS'-'
asS'AL022334.1'
p184
(lp185
I35501861
aI35503586
aS'-'
asS'KLHL22'
p186
(lp187
I20441519
aI20495883
aS'-'
asS'MTCO2P20'
p188
(lp189
I36172934
aI36173948
aS'+'
asS'CCT8L2'
p190
(lp191
I16590751
aI16592810
aS'-'
asS'CCDC188'
p192
(lp193
I20148427
aI20151065
aS'-'
asS'SERHL2'
p194
(lp195
I42553859
aI42574381
aS'+'
asS'MIOX'
p196
(lp197
I50486876
aI50490648
aS'+'
asS'FAM230A'
p198
(lp199
I18422244
aI18500594
aS'+'
asS'P2RX6P'
p200
(lp201
I21035243
aI21045012
aS'-'
asS'AC245054.2'
p202
(lp203
I22988263
aI22988581
aS'+'
asS'IGLVIV-66-1'
p204
(lp205
I22058433
aI22058892
aS'+'
asS'HIC2'
p206
(lp207
I21417404
aI21451463
aS'+'
asS'PRAME'
p208
(lp209
I22547701
aI22559361
aS'-'
asS'DDTL'
p210
(lp211
I23966901
aI23972532
aS'+'
asS'AL022237.1'
p212
(lp213
I43092167
aI43092524
aS'+'
asS'ST13'
p214
(lp215
I40824535
aI40857022
aS'-'
asS'ASH2LP1'
p216
(lp217
I22420326
aI22421310
aS'+'
asS'ASH2LP3'
p218
(lp219
I22339573
aI22341214
aS'+'
asS'CHKB-CPT1B'
p220
(lp221
I50568869
aI50582965
aS'-'
asS'PARVB'
p222
(lp223
I43999211
aI44168923
aS'+'
asS'PARVG'
p224
(lp225
I44172956
aI44208468
aS'+'
asS'YME1L1P1'
p226
(lp227
I15489990
aI15492564
aS'+'
asS'CU459211.1'
p228
(lp229
I10939388
aI10961338
aS'-'
asS'ARVCF'
p230
(lp231
I19969896
aI20016808
aS'-'
asS'AL117328.1'
p232
(lp233
I49845929
aI49846090
aS'+'
asS'AC245028.3'
p234
(lp235
I22803076
aI22803360
aS'+'
asS'AC245028.2'
p236
(lp237
I22834865
aI22835117
aS'+'
asS'HMGN2P9'
p238
(lp239
I43802544
aI43802772
aS'+'
asS'AL022324.2'
p240
(lp241
I25349543
aI25350322
aS'-'
asS'MCAT'
p242
(lp243
I43132206
aI43143394
aS'-'
asS'IGLVI-70'
p244
(lp245
I22026076
aI22026593
aS'+'
asS'ALG12'
p246
(lp247
I49900229
aI49918458
aS'-'
asS'Z82206.1'
p248
(lp249
I39960397
aI39964718
aS'+'
asS'IGLV2-23'
p250
(lp251
I22697789
aI22698407
aS'+'
asS'GGTLC4P'
p252
(lp253
I24248074
aI24249466
aS'-'
asS'IL2RB'
p254
(lp255
I37136365
aI37175054
aS'-'
asS'ACTR3BP2'
p256
(lp257
I16486985
aI16488322
aS'+'
asS'APOBEC3H'
p258
(lp259
I39097224
aI39104067
aS'+'
asS'TRIOBP'
p260
(lp261
I37697004
aI37776556
aS'+'
asS'AL022318.2'
p262
(lp263
I39070414
aI39070671
aS'+'
asS'MICALL1'
p264
(lp265
I37906297
aI37942822
aS'+'
asS'APOBEC3D'
p266
(lp267
I39021113
aI39033276
aS'+'
asS'APOBEC3G'
p268
(lp269
I39077005
aI39087743
aS'+'
asS'APOBEC3F'
p270
(lp271
I39040604
aI39053910
aS'+'
asS'ATP6V1E1'
p272
(lp273
I17592136
aI17628818
aS'-'
asS'APOBEC3C'
p274
(lp275
I39014083
aI39020352
aS'+'
asS'APOBEC3B'
p276
(lp277
I38982399
aI38992804
aS'+'
asS'AC004832.3'
p278
(lp279
I30409255
aI30428990
aS'+'
asS'AC004832.2'
p280
(lp281
I30439837
aI30440318
aS'+'
asS'SSTR3'
p282
(lp283
I37204238
aI37212322
aS'-'
asS'BPIFC'
p284
(lp285
I32413847
aI32464484
aS'-'
asS'CDC45'
p286
(lp287
I19479459
aI19520612
aS'+'
asS'TUBGCP6'
p288
(lp289
I50217689
aI50244992
aS'-'
asS'CES5AP1'
p290
(lp291
I23370095
aI23387731
aS'-'
asS'MORC2'
p292
(lp293
I30925130
aI30968298
aS'-'
asS'TOM1'
p294
(lp295
I35299275
aI35347992
aS'+'
asS'VPREB3'
p296
(lp297
I23752743
aI23754468
aS'-'
asS'EMID1'
p298
(lp299
I29205851
aI29259597
aS'+'
asS'FAM109B'
p300
(lp301
I42074251
aI42079441
aS'+'
asS'AL022318.4'
p302
(lp303
I39014363
aI39033276
aS'+'
asS'AC253536.4'
p304
(lp305
I24006305
aI24008258
aS'-'
asS'AC253536.5'
p306
(lp307
I23976904
aI23977585
aS'-'
asS'PRODH'
p308
(lp309
I18912777
aI18936553
aS'-'
asS'TOB2'
p310
(lp311
I41433492
aI41447023
aS'-'
asS'CNN2P1'
p312
(lp313
I30046276
aI30047193
aS'-'
asS'AC007064.1'
p314
(lp315
I16876552
aI16876902
aS'-'
asS'Z83839.1'
p316
(lp317
I32129689
aI32130612
aS'+'
asS'EFCAB6'
p318
(lp319
I43528744
aI43812277
aS'-'
asS'SELENOO'
p320
(lp321
I50200979
aI50217616
aS'+'
asS'SELENOM'
p322
(lp323
I31104772
aI31120069
aS'-'
asS'POTEH'
p324
(lp325
I15690078
aI15721631
aS'+'
asS'APOL6'
p326
(lp327
I35648395
aI35668409
aS'+'
asS'APOL5'
p328
(lp329
I35717872
aI35729483
aS'+'
asS'APOL4'
p330
(lp331
I36189129
aI36204840
aS'-'
asS'APOL3'
p332
(lp333
I36140330
aI36166177
aS'-'
asS'APOL2'
p334
(lp335
I36226210
aI36239954
aS'-'
asS'APOL1'
p336
(lp337
I36253010
aI36267525
aS'+'
asS'TTLL1'
p338
(lp339
I43039644
aI43089428
aS'-'
asS'IGLV5-37'
p340
(lp341
I22427540
aI22428035
aS'+'
asS'DDX17'
p342
(lp343
I38483440
aI38506337
aS'-'
asS'AP000350.4'
p344
(lp345
I23862188
aI23895223
aS'+'
asS'TTLL8'
p346
(lp347
I50015127
aI50056935
aS'-'
asS'CRYBB2'
p348
(lp349
I25219522
aI25231869
aS'+'
asS'CRYBB3'
p350
(lp351
I25199850
aI25207363
aS'+'
asS'CRYBB1'
p352
(lp353
I26599278
aI26618088
aS'-'
asS'AC006548.2'
p354
(lp355
I17012404
aI17012932
aS'+'
asS'AC006548.1'
p356
(lp357
I16897445
aI16897546
aS'+'
asS'AIFM3'
p358
(lp359
I20965108
aI20981360
aS'+'
asS'KLHDC7B'
p360
(lp361
I50548033
aI50551023
aS'+'
asS'ABHD17AP4'
p362
(lp363
I20667836
aI20670984
aS'-'
asS'ARSA'
p364
(lp365
I50625018
aI50628172
aS'-'
asS'THAP7'
p366
(lp367
I20999104
aI21001742
aS'-'
asS'CERK'
p368
(lp369
I46684411
aI46738261
aS'-'
asS'PPP1R26P4'
p370
(lp371
I18715815
aI18719341
aS'+'
asS'PPP1R26P5'
p372
(lp373
I21341595
aI21345258
aS'+'
asS'PPP1R26P2'
p374
(lp375
I18650023
aI18653617
aS'-'
asS'PPP1R26P3'
p376
(lp377
I18400407
aI18404206
aS'-'
asS'DNAL4'
p378
(lp379
I38778508
aI38794173
aS'-'
asS'EWSR1'
p380
(lp381
I29268009
aI29300524
aS'+'
asS'LIF'
p382
(lp383
I30240447
aI30246851
aS'-'
asS'AP000357.1'
p384
(lp385
I24686923
aI24688087
aS'+'
asS'RIBC2'
p386
(lp387
I45413691
aI45432496
aS'+'
asS'MIF'
p388
(lp389
I23894004
aI23895226
aS'+'
asS'HPS4'
p390
(lp391
I26451480
aI26483812
aS'-'
asS'AL096701.2'
p392
(lp393
I31538352
aI31538589
aS'-'
asS'TNRC6B'
p394
(lp395
I40044817
aI40335807
aS'+'
asS'CA15P2'
p396
(lp397
I18636445
aI18638405
aS'-'
asS'SLC25A18'
p398
(lp399
I17563439
aI17590994
aS'+'
asS'SLC25A17'
p400
(lp401
I40769630
aI40819399
aS'-'
asS'PIWIL3'
p402
(lp403
I24719034
aI24774716
aS'-'
asS'FBLN1'
p404
(lp405
I45502891
aI45601135
aS'+'
asS'AP000350.3'
p406
(lp407
I23949918
aI23954042
aS'+'
asS'ENTHD1'
p408
(lp409
I39743044
aI39893790
aS'-'
asS'IGLVVI-25-1'
p410
(lp411
I22679097
aI22679345
aS'+'
asS'BCRP1'
p412
(lp413
I24259929
aI24263764
aS'-'
asS'BCRP2'
p414
(lp415
I21103016
aI21121784
aS'+'
asS'EIF3L'
p416
(lp417
I37848868
aI37889407
aS'+'
asS'BCRP5'
p418
(lp419
I20697962
aI20698934
aS'-'
asS'BCRP6'
p420
(lp421
I21290760
aI21294586
aS'-'
asS'BCRP7'
p422
(lp423
I18855621
aI18858640
aS'-'
asS'BCRP8'
p424
(lp425
I23179918
aI23180172
aS'-'
asS'EIF3D'
p426
(lp427
I36510850
aI36529436
aS'-'
asS'GSTTP1'
p428
(lp429
I23998401
aI24005409
aS'-'
asS'UFD1'
p430
(lp431
I19449910
aI19479215
aS'-'
asS'IGLV11-55'
p432
(lp433
I22201663
aI22202161
aS'+'
asS'AP000350.2'
p434
(lp435
I23926900
aI23929574
aS'+'
asS'MTMR3'
p436
(lp437
I29883169
aI30030866
aS'+'
asS'IGLVIV-65'
p438
(lp439
I22070225
aI22070707
aS'+'
asS'NOL12'
p440
(lp441
I37681673
aI37693475
aS'+'
asS'CENPM'
p442
(lp443
I41938721
aI41947164
aS'-'
asS'RIMBP3B'
p444
(lp445
I21383374
aI21389478
aS'+'
asS'RIMBP3C'
p446
(lp447
I21545678
aI21551461
aS'-'
asS'MTCYBP34'
p448
(lp449
I36175857
aI36176526
aS'+'
asS'RPL35P8'
p450
(lp451
I49213911
aI49214247
aS'-'
asS'UQCRFS1P1'
p452
(lp453
I39875289
aI39876108
aS'+'
asS'MCHR1'
p454
(lp455
I40678750
aI40682814
aS'+'
asS'IGLV10-54'
p456
(lp457
I22038643
aI22215269
aS'+'
asS'MTFP1'
p458
(lp459
I30425530
aI30429053
aS'+'
asS'CCDC157'
p460
(lp461
I30357114
aI30378658
aS'+'
asS'GOLGA2P4'
p462
(lp463
I42784462
aI42787100
aS'+'
asS'AC007731.2'
p464
(lp465
I20450122
aI20451824
aS'+'
asS'IGLVI-38'
p466
(lp467
I22425821
aI22426314
aS'+'
asS'THOC5'
p468
(lp469
I29505879
aI29553782
aS'-'
asS'SMDT1'
p470
(lp471
I42079695
aI42084284
aS'+'
asS'IGLC4'
p472
(lp473
I22910828
aI22911075
aS'+'
asS'COX5BP7'
p474
(lp475
I39120293
aI39120566
aS'-'
asS'ANKRD62P1'
p476
(lp477
I16671090
aI16679493
aS'-'
asS'KIAA0930'
p478
(lp479
I45190338
aI45240769
aS'-'
asS'POM121L9P'
p480
(lp481
I24251828
aI24265525
aS'+'
asS'ZNF280B'
p482
(lp483
I22484421
aI22509154
aS'-'
asS'ZNF280A'
p484
(lp485
I22513736
aI22520270
aS'-'
asS'RNF185'
p486
(lp487
I31160193
aI31207019
aS'+'
asS'YDJC'
p488
(lp489
I21628089
aI21630064
aS'-'
asS'RFPL2'
p490
(lp491
I32190438
aI32203477
aS'-'
asS'SFI1'
p492
(lp493
I31496139
aI31618551
aS'+'
asS'IGKV1OR22-1'
p494
(lp495
I16933521
aI16934003
aS'-'
asS'INPP5J'
p496
(lp497
I31122923
aI31134696
aS'+'
asS'IGKV1OR22-5'
p498
(lp499
I16904219
aI16904696
aS'-'
asS'WNT7B'
p500
(lp501
I45920362
aI45977129
aS'-'
asS'PARP4P3'
p502
(lp503
I16653892
aI16659628
aS'-'
asS'IGLL3P'
p504
(lp505
I25318256
aI25320080
aS'+'
asS'CYB5R3'
p506
(lp507
I42618808
aI42649568
aS'-'
asS'AC244250.2'
p508
(lp509
I22689831
aI22689978
aS'+'
asS'CRELD2'
p510
(lp511
I49918635
aI49927540
aS'+'
asS'IGLV3-24'
p512
(lp513
I22694439
aI22694952
aS'+'
asS'AL031846.1'
p514
(lp515
I39091634
aI39092855
aS'+'
asS'ARFGAP3'
p516
(lp517
I42796502
aI42857402
aS'-'
asS'AP000347.1'
p518
(lp519
I23659869
aI23717295
aS'-'
asS'LRRC75B'
p520
(lp521
I24585620
aI24593066
aS'-'
asS'IGLV9-49'
p522
(lp523
I22343187
aI22343732
aS'+'
asS'IGLV3-27'
p524
(lp525
I22668288
aI22668806
aS'+'
asS'ADSL'
p526
(lp527
I40346524
aI40387489
aS'+'
asS'ADORA2A'
p528
(lp529
I24423597
aI24442356
aS'+'
asS'IGLVI-42'
p530
(lp531
I22397032
aI22397524
aS'+'
asS'YPEL1'
p532
(lp533
I21697544
aI21735834
aS'-'
asS'CYP2D6'
p534
(lp535
I42126499
aI42130906
aS'-'
asS'CYP2D7'
p536
(lp537
I42140203
aI42144577
aS'-'
asS'PKDREJ'
p538
(lp539
I46255663
aI46263355
aS'-'
asS'FBXW4P1'
p540
(lp541
I23262767
aI23265005
aS'+'
asS'MKL1'
p542
(lp543
I40410281
aI40636685
aS'-'
asS'RPS15AP38'
p544
(lp545
I36421273
aI36421644
aS'-'
asS'AP000343.1'
p546
(lp547
I23322543
aI23322927
aS'-'
asS'DERL3'
p548
(lp549
I23834503
aI23839128
aS'-'
asS'SF3A1'
p550
(lp551
I30331988
aI30356947
aS'-'
asS'SDF2L1'
p552
(lp553
I21642261
aI21644298
aS'+'
asS'AC003072.1'
p554
(lp555
I30653877
aI30654814
aS'-'
asS'TXNRD2'
p556
(lp557
I19875522
aI19941992
aS'-'
asS'CLDN5'
p558
(lp559
I19523024
aI19527545
aS'-'
asS'ADA2'
p560
(lp561
I17178790
aI17221854
aS'-'
asS'AP000547.1'
p562
(lp563
I16572027
aI16574637
aS'+'
asS'KRT18P23'
p564
(lp565
I44566965
aI44568247
aS'+'
asS'FO681548.1'
p566
(lp567
I17418697
aI17419828
aS'+'
asS'RBX1'
p568
(lp569
I40951359
aI40973309
aS'+'
asS'IGLV3-15'
p570
(lp571
I22755554
aI22755797
aS'+'
asS'AC000095.1'
p572
(lp573
I19018043
aI19018916
aS'-'
asS'SERPIND1'
p574
(lp575
I20773879
aI20787720
aS'+'
asS'Z82190.1'
p576
(lp577
I31890344
aI31891434
aS'-'
asS'WBP2NL'
p578
(lp579
I41998772
aI42058456
aS'+'
asS'ARHGAP42P3'
p580
(lp581
I15550904
aI15553838
aS'-'
asS'Z97353.1'
p582
(lp583
I26886909
aI26887548
aS'-'
asS'ARL2BPP10'
p584
(lp585
I18102457
aI18103649
aS'-'
asS'CLCP1'
p586
(lp587
I17424388
aI17424775
aS'-'
asS'TMEM211'
p588
(lp589
I24934954
aI24946694
aS'-'
asS'DEPDC5'
p590
(lp591
I31753951
aI31907034
aS'+'
asS'SRRD'
p592
(lp593
I26483877
aI26494658
aS'+'
asS'SHISA8'
p594
(lp595
I41909554
aI41914667
aS'-'
asS'SEZ6L'
p596
(lp597
I26169474
aI26383597
aS'+'
asS'H2AFZP6'
p598
(lp599
I31521199
aI31521592
aS'-'
asS'ISX'
p600
(lp601
I35066136
aI35087387
aS'+'
asS'MFNG'
p602
(lp603
I37469065
aI37486401
aS'-'
asS'PI4KA'
p604
(lp605
I20707691
aI20858812
aS'-'
asS'KRT18P5'
p606
(lp607
I20482815
aI20484105
aS'-'
asS'AC007326.4'
p608
(lp609
I18906238
aI18947732
aS'+'
asS'IGKV2OR22-3'
p610
(lp611
I16921443
aI16922173
aS'-'
asS'IGKV2OR22-4'
p612
(lp613
I16914235
aI16914981
aS'-'
asS'AC007326.3'
p614
(lp615
I18980695
aI18981325
aS'-'
asS'AC007326.1'
p616
(lp617
I18997138
aI18997595
aS'-'
asS'RFPL1'
p618
(lp619
I29438583
aI29442455
aS'+'
asS'IGLC5'
p620
(lp621
I22915635
aI22915927
aS'+'
asS'RFPL3'
p622
(lp623
I32354885
aI32361161
aS'+'
asS'IGLC7'
p624
(lp625
I22922594
aI22923034
aS'+'
asS'IGLC1'
p626
(lp627
I22895375
aI22895834
aS'+'
asS'IGLC2'
p628
(lp629
I22900976
aI22901437
aS'+'
asS'IGLC3'
p630
(lp631
I22906342
aI22906803
aS'+'
asS'CBX7'
p632
(lp633
I39120167
aI39149832
aS'-'
asS'CBX6'
p634
(lp635
I38861450
aI38872314
aS'-'
asS'PANX2'
p636
(lp637
I50170731
aI50180294
aS'+'
asS'AC002056.1'
p638
(lp639
I50754675
aI50755434
aS'-'
asS'AL021877.1'
p640
(lp641
I34589085
aI34591278
aS'-'
asS'MMP11'
p642
(lp643
I23768226
aI23784316
aS'+'
asS'IGLV3-10'
p644
(lp645
I22811747
aI22812285
aS'+'
asS'IGLV3-13'
p646
(lp647
I22762294
aI22762516
aS'+'
asS'IGLV3-12'
p648
(lp649
I22771824
aI22772586
aS'+'
asS'GAS2L1'
p650
(lp651
I29306582
aI29312785
aS'+'
asS'IGLV3-17'
p652
(lp653
I22738944
aI22739187
aS'+'
asS'IGLV3-16'
p654
(lp655
I22747383
aI22747911
aS'+'
asS'IGLV3-19'
p656
(lp657
I22720623
aI22721145
aS'+'
asS'MYH9'
p658
(lp659
I36281281
aI36388018
aS'-'
asS'DNAJB7'
p660
(lp661
I40859549
aI40862126
aS'-'
asS'C22orf39'
p662
(lp663
I19351368
aI19447691
aS'-'
asS'AC000077.1'
p664
(lp665
I19630750
aI19633574
aS'-'
asS'TTC28'
p666
(lp667
I27978014
aI28679865
aS'-'
asS'IGLVVI-22-1'
p668
(lp669
I22700760
aI22700970
aS'+'
asS'PVALB'
p670
(lp671
I36800684
aI36819479
aS'-'
asS'C22orf31'
p672
(lp673
I29058672
aI29061844
aS'-'
asS'IGLV8-61'
p674
(lp675
I22098700
aI22099212
aS'+'
asS'H1F0'
p676
(lp677
I37805093
aI37807436
aS'+'
asS'PRR5-ARHGAP8'
p678
(lp679
I44702233
aI44862671
aS'+'
asS'Z99714.1'
p680
(lp681
I26422071
aI26423193
aS'-'
asS'CELSR1'
p682
(lp683
I46360834
aI46537170
aS'-'
asS'RABL2B'
p684
(lp685
I50767501
aI50783662
aS'-'
asS'TXN2'
p686
(lp687
I36467036
aI36482030
aS'-'
asS'SH3BP1'
p688
(lp689
I37639693
aI37666932
aS'+'
asS'JOSD1'
p690
(lp691
I38685543
aI38700667
aS'-'
asS'EP300'
p692
(lp693
I41091786
aI41180079
aS'+'
asS'TSPO'
p694
(lp695
I43151514
aI43163242
aS'+'
asS'FUNDC2P4'
p696
(lp697
I39155525
aI39155945
aS'+'
asS'RTCB'
p698
(lp699
I32387582
aI32412255
aS'-'
asS'AC023490.2'
p700
(lp701
I18527157
aI18527626
aS'+'
asS'TFIP11'
p702
(lp703
I26491225
aI26512505
aS'-'
asS'RPEP4'
p704
(lp705
I29608900
aI29609501
aS'+'
asS'ISCA2P1'
p706
(lp707
I26644889
aI26645336
aS'-'
asS'IGLL1'
p708
(lp709
I23573125
aI23580308
aS'-'
asS'IGLL5'
p710
(lp711
I22887780
aI22896107
aS'+'
asS'RPL5P35'
p712
(lp713
I49757627
aI49758980
aS'-'
asS'RPL5P34'
p714
(lp715
I42776406
aI42777296
aS'-'
asS'MRPS16P3'
p716
(lp717
I35703803
aI35704176
aS'+'
asS'AC007064.4'
p718
(lp719
I16844399
aI16846357
aS'+'
asS'UQCR10'
p720
(lp721
I29767369
aI29770413
aS'+'
asS'CHEK2P4'
p722
(lp723
I16503304
aI16509475
aS'+'
asS'GNB1L'
p724
(lp725
I19783224
aI19854939
aS'-'
asS'IGLV2-11'
p726
(lp727
I22792491
aI22793007
aS'+'
asS'SLC5A4'
p728
(lp729
I32218476
aI32255341
aS'-'
asS'IGLV2-14'
p730
(lp731
I22758700
aI22759218
aS'+'
asS'GAL3ST1'
p732
(lp733
I30554635
aI30574578
aS'-'
asS'IGLV2-18'
p734
(lp735
I22734607
aI22735096
aS'+'
asS'AC007064.3'
p736
(lp737
I16855804
aI16856162
aS'+'
asS'Z99755.1'
p738
(lp739
I35164304
aI35165347
aS'+'
asS'Z98885.1'
p740
(lp741
I49817248
aI49817712
aS'+'
asS'MED15P7'
p742
(lp743
I15635180
aI15644330
aS'-'
asS'DRG1'
p744
(lp745
I31426741
aI31528740
aS'+'
asS'BIK'
p746
(lp747
I43110748
aI43129712
aS'+'
asS'SUN2'
p748
(lp749
I38735909
aI38794143
aS'-'
asS'BID'
p750
(lp751
I17734142
aI17774495
aS'-'
asS'PRR5'
p752
(lp753
I44668547
aI44737681
aS'+'
asS'BNIP3P2'
p754
(lp755
I15349467
aI15350043
aS'+'
asS'YWHAH'
p756
(lp757
I31944461
aI31957603
aS'+'
asS'AP000529.1'
p758
(lp759
I15721486
aI15722608
aS'+'
asS'MED15'
p760
(lp761
I20507585
aI20587619
aS'+'
asS'AP1B1'
p762
(lp763
I29328821
aI29423179
aS'-'
asS'XRCC6'
p764
(lp765
I41621119
aI41664039
aS'+'
asS'IL17REL'
p766
(lp767
I49994513
aI50012659
aS'-'
asS'SPECC1L-ADORA2A'
p768
(lp769
I24270898
aI24442356
aS'+'
asS'AP000533.2'
p770
(lp771
I15562017
aI15564276
aS'-'
asS'AP000533.3'
p772
(lp773
I15588361
aI15588478
aS'+'
asS'RAC2'
p774
(lp775
I37225261
aI37244270
aS'-'
asS'ZC3H7B'
p776
(lp777
I41301522
aI41360147
aS'+'
asS'MTATP6P20'
p778
(lp779
I36174261
aI36174822
aS'+'
asS'CDC42EP1'
p780
(lp781
I37560447
aI37569405
aS'+'
asS'CARD10'
p782
(lp783
I37490362
aI37519542
aS'-'
asS'IGLCOR22-1'
p784
(lp785
I32199919
aI32200234
aS'+'
asS'MGAT3'
p786
(lp787
I39457344
aI39492194
aS'+'
asS'SGSM3'
p788
(lp789
I40370611
aI40410289
aS'+'
asS'SGSM1'
p790
(lp791
I24806269
aI24927578
aS'+'
asS'AC245452.4'
p792
(lp793
I22038643
aI22039126
aS'+'
asS'FAM227A'
p794
(lp795
I38578120
aI38656629
aS'-'
asS'CYTH4'
p796
(lp797
I37282383
aI37315345
aS'+'
asS'AC245452.2'
p798
(lp799
I21885282
aI21885673
aS'-'
asS'AC245452.3'
p800
(lp801
I22046430
aI22046591
aS'+'
asS'SLC16A8'
p802
(lp803
I38078134
aI38084093
aS'-'
asS'BMS1P22'
p804
(lp805
I15805812
aI15820884
aS'-'
asS'TBC1D22A'
p806
(lp807
I46762617
aI47175699
aS'+'
asS'VN1R9P'
p808
(lp809
I17021398
aI17022570
aS'-'
asS'AC000089.1'
p810
(lp811
I19792294
aI19793094
aS'+'
asS'TYMP'
p812
(lp813
I50525752
aI50530056
aS'-'
asS'AC245291.1'
p814
(lp815
I22465659
aI22465986
aS'+'
asS'AC245291.3'
p816
(lp817
I22370829
aI22371120
aS'+'
asS'AC245291.2'
p818
(lp819
I22446686
aI22448336
aS'+'
asS'CACNG2'
p820
(lp821
I36563921
aI36703558
aS'-'
asS'IGLV2-8'
p822
(lp823
I22822658
aI22823289
aS'+'
asS'IGLV5-45'
p824
(lp825
I22375986
aI22376505
aS'+'
asS'Z84478.1'
p826
(lp827
I45792418
aI45793636
aS'-'
asS'IGLV5-48'
p828
(lp829
I22352940
aI22353433
aS'+'
asS'RRP7A'
p830
(lp831
I42509968
aI42519802
aS'-'
asS'CASTOR1'
p832
(lp833
I30285117
aI30289627
aS'-'
asS'PPIL2'
p834
(lp835
I21666009
aI21700015
aS'+'
asS'POM121L1P'
p836
(lp837
I22639177
aI22644473
aS'-'
asS'DUXAP8'
p838
(lp839
I15826566
aI15827187
aS'+'
asS'AC245517.1'
p840
(lp841
I22103219
aI22104857
aS'+'
asS'AC245517.2'
p842
(lp843
I22168289
aI22168634
aS'+'
asS'IGLV1-36'
p844
(lp845
I22431958
aI22432465
aS'+'
asS'AC245517.4'
p846
(lp847
I22155582
aI22155942
aS'+'
asS'AC245517.5'
p848
(lp849
I22087924
aI22088085
aS'+'
asS'POLR3H'
p850
(lp851
I41525804
aI41544489
aS'-'
asS'CACNA1I'
p852
(lp853
I39570753
aI39689737
aS'+'
asS'SLC9A3P2'
p854
(lp855
I20652730
aI20654750
aS'+'
asS'TMEM191B'
p856
(lp857
I18527802
aI18530571
aS'+'
asS'TMEM191C'
p858
(lp859
I21467391
aI21471269
aS'+'
asS'TMEM191A'
p860
(lp861
I20701114
aI20704606
aS'+'
asS'SMARCB1'
p862
(lp863
I23786963
aI23834516
aS'+'
asS'PLA2G6'
p864
(lp865
I38111500
aI38181829
aS'-'
asS'PLA2G3'
p866
(lp867
I31134809
aI31140607
aS'-'
asS'EIF4ENIF1'
p868
(lp869
I31439359
aI31489824
aS'-'
asS'TUBA3GP'
p870
(lp871
I21065462
aI21070097
aS'+'
asS'AL022313.1'
p872
(lp873
I36536656
aI36537604
aS'-'
asS'ADM2'
p874
(lp875
I50481556
aI50486440
aS'+'
asS'AC253536.1'
p876
(lp877
I23987320
aI23991421
aS'-'
asS'AC253536.2'
p878
(lp879
I23963780
aI23964374
aS'+'
asS'LRRC37A14P'
p880
(lp881
I41189727
aI41190188
aS'-'
asS'TRMU'
p882
(lp883
I46335401
aI46357335
aS'+'
asS'PNPLA5'
p884
(lp885
I43879679
aI43892013
aS'-'
asS'PEX26'
p886
(lp887
I18078015
aI18131138
aS'+'
asS'OLA1P1'
p888
(lp889
I42107765
aI42108953
aS'-'
asS'SLC25A1'
p890
(lp891
I19175575
aI19178830
aS'-'
asS'KCNMB3P1'
p892
(lp893
I16575363
aI16582707
aS'-'
asS'SLC25A15P5'
p894
(lp895
I16645695
aI16646581
aS'-'
asS'PRR14L'
p896
(lp897
I31681347
aI31750131
aS'-'
asS'EIF4HP2'
p898
(lp899
I30902219
aI30902781
aS'+'
asS'PRDX3P1'
p900
(lp901
I38722743
aI38723505
aS'-'
asS'PATZ1'
p902
(lp903
I31325804
aI31346232
aS'-'
asS'BRD1'
p904
(lp905
I49773283
aI49827512
aS'-'
asS'AL022324.1'
p906
(lp907
I25327252
aI25339975
aS'+'
asS'IGLV3-29'
p908
(lp909
I22661299
aI22661542
aS'+'
asS'AC007731.5'
p910
(lp911
I20429241
aI20446620
aS'-'
asS'SNRPD3'
p912
(lp913
I24556009
aI24609980
aS'+'
asS'HIRA'
p914
(lp915
I19330698
aI19431733
aS'-'
asS'PES1'
p916
(lp917
I30576628
aI30607083
aS'-'
asS'IGLV1-40'
p918
(lp919
I22409766
aI22410282
aS'+'
asS'IGLV3-21'
p920
(lp921
I22711689
aI22713203
aS'+'
asS'IGLV3-22'
p922
(lp923
I22704265
aI22704822
aS'+'
asS'IGLV1-44'
p924
(lp925
I22380766
aI22381347
aS'+'
asS'IGLV3-25'
p926
(lp927
I22686726
aI22687271
aS'+'
asS'IGLV3-26'
p928
(lp929
I22673152
aI22673602
aS'+'
asS'IGLV1-47'
p930
(lp931
I22357739
aI22358260
aS'+'
asS'GALR3'
p932
(lp933
I37823382
aI37825495
aS'+'
asS'RNF215'
p934
(lp935
I30385907
aI30421771
aS'-'
asS'HDAC10'
p936
(lp937
I50245186
aI50251405
aS'-'
asS'AC244157.1'
p938
(lp939
I22774529
aI22774691
aS'+'
asS'LZTR1'
p940
(lp941
I20979462
aI20998121
aS'+'
asS'CSF2RB'
p942
(lp943
I36913628
aI36940449
aS'+'
asS'Z97055.1'
p944
(lp945
I43759199
aI43759910
aS'-'
asS'ABCD1P4'
p946
(lp947
I16387694
aI16390887
aS'+'
asS'GAB4'
p948
(lp949
I16961936
aI17008222
aS'-'
asS'KIAA1671'
p950
(lp951
I24952730
aI25194457
aS'+'
asS'AC000078.1'
p952
(lp953
I19887289
aI19887970
aS'+'
asS'ARHGAP8'
p954
(lp955
I44752558
aI44862784
aS'+'
asS'AL035398.1'
p956
(lp957
I43957027
aI43957348
aS'+'
asS'SEPT5'
p958
(lp959
I19714464
aI19723319
aS'+'
asS'SLC25A5P1'
p960
(lp961
I42001069
aI42001966
aS'-'
asS'SEPT3'
p962
(lp963
I41976810
aI41998221
aS'+'
asS'PITPNB'
p964
(lp965
I27851670
aI27919306
aS'-'
asS'PPM1F'
p966
(lp967
I21919420
aI21952837
aS'-'
asS'ARL5AP4'
p968
(lp969
I24686168
aI24686679
aS'+'
asS'MRPS18CP6'
p970
(lp971
I44483495
aI44483717
aS'-'
asS'KRT18P62'
p972
(lp973
I19257520
aI19258806
aS'+'
asS'USP41'
p974
(lp975
I20363621
aI20390758
aS'-'
asS'FABP5P11'
p976
(lp977
I16595089
aI16595485
aS'-'
asS'PNPLA3'
p978
(lp979
I43923792
aI43964488
aS'+'
asS'ZNF74'
p980
(lp981
I20394115
aI20408461
aS'+'
asS'PIK3IP1'
p982
(lp983
I31281593
aI31292528
aS'-'
asS'RRP7BP'
p984
(lp985
I42555223
aI42582038
aS'-'
asS'AC006946.1'
p986
(lp987
I17093612
aI17093939
aS'-'
asS'CHEK2'
p988
(lp989
I28687743
aI28742422
aS'-'
asS'Z93930.1'
p990
(lp991
I28835893
aI28836137
aS'-'
asS'Z85994.2'
p992
(lp993
I44413485
aI44414814
aS'-'
asS'LARGE1'
p994
(lp995
I33272861
aI33920421
aS'-'
asS'DDT'
p996
(lp997
I23971378
aI23980469
aS'-'
asS'AC244157.2'
p998
(lp999
I22785643
aI22787268
aS'-'
asS'BCRP4'
p1000
(lp1001
I22630065
aI22636153
aS'+'
asS'POM121L4P'
p1002
(lp1003
I20689929
aI20698938
aS'+'
asS'RPL4P6'
p1004
(lp1005
I40586700
aI40588003
aS'-'
asS'CCDC134'
p1006
(lp1007
I41800679
aI41826299
aS'+'
asS'SCUBE1'
p1008
(lp1009
I43197283
aI43343388
aS'-'
asS'GSTT2'
p1010
(lp1011
I23980058
aI23983915
aS'+'
asS'YES1P1'
p1012
(lp1013
I25647261
aI25649232
aS'+'
asS'GNAZ'
p1014
(lp1015
I23070361
aI23125037
aS'+'
asS'GRAMD4P2'
p1016
(lp1017
I15749156
aI15750825
aS'-'
asS'NPTXR'
p1018
(lp1019
I38818452
aI38843982
aS'-'
asS'AC008132.2'
p1020
(lp1021
I18794414
aI18794804
aS'-'
asS'PHF5A'
p1022
(lp1023
I41459717
aI41468725
aS'-'
asS'AC008132.1'
p1024
(lp1025
I18850118
aI18861049
aS'+'
asS'PRR34'
p1026
(lp1027
I46049478
aI46054144
aS'-'
asS'SYN3'
p1028
(lp1029
I32512552
aI33058372
aS'-'
asS'TOP3B'
p1030
(lp1031
I21957025
aI21982816
aS'-'
asS'AP000344.2'
p1032
(lp1033
I23392771
aI23393839
aS'+'
asS'SEC14L3'
p1034
(lp1035
I30447959
aI30472017
aS'-'
asS'SEC14L2'
p1036
(lp1037
I30396857
aI30425317
aS'+'
asS'ODF3B'
p1038
(lp1039
I50530409
aI50532579
aS'-'
asS'SEC14L6'
p1040
(lp1041
I30522799
aI30546682
aS'-'
asS'SEC14L4'
p1042
(lp1043
I30488913
aI30505711
aS'-'
asS'TBX1'
p1044
(lp1045
I19756703
aI19783593
aS'+'
asS'FBXO7'
p1046
(lp1047
I32474676
aI32498829
aS'+'
asS'CHCHD10'
p1048
(lp1049
I23765834
aI23768443
aS'-'
asS'DENND6B'
p1050
(lp1051
I50309030
aI50327060
aS'-'
asS'BCR'
p1052
(lp1053
I23180210
aI23318037
aS'+'
asS'CSDC2'
p1054
(lp1055
I41560763
aI41576666
aS'+'
asS'IGLVI-68'
p1056
(lp1057
I22032745
aI22033194
aS'+'
asS'COX7BP1'
p1058
(lp1059
I35194699
aI35194942
aS'-'
asS'SYCE3'
p1060
(lp1061
I50551112
aI50562905
aS'-'
asS'RPS29P31'
p1062
(lp1063
I38574931
aI38575431
aS'-'
asS'MICAL3'
p1064
(lp1065
I17787649
aI18024559
aS'-'
asS'Z83838.1'
p1066
(lp1067
I44901547
aI44902471
aS'+'
asS'IGLC6'
p1068
(lp1069
I22919535
aI22919851
aS'+'
asS'GAPDHP37'
p1070
(lp1071
I40673484
aI40674451
aS'-'
asS'NDUFA6'
p1072
(lp1073
I42085525
aI42090955
aS'-'
asS'ZBED4'
p1074
(lp1075
I49853842
aI49890078
aS'+'
asS'RPL7P52'
p1076
(lp1077
I40106325
aI40107066
aS'-'
asS'RIMBP3'
p1078
(lp1079
I18605815
aI18611919
aS'-'
asS'CDPF1'
p1080
(lp1081
I46244013
aI46250679
aS'-'
asS'HSCB'
p1082
(lp1083
I28742031
aI28757510
aS'+'
asS'Z99916.2'
p1084
(lp1085
I25179309
aI25179554
aS'-'
asS'COMT'
p1086
(lp1087
I19941607
aI19969975
aS'+'
asS'RFPL3S'
p1088
(lp1089
I32362974
aI32382052
aS'-'
asS'SMTN'
p1090
(lp1091
I31064105
aI31088025
aS'+'
asS'GUCD1'
p1092
(lp1093
I24540423
aI24555935
aS'-'
asS'AP000550.3'
p1094
(lp1095
I21228760
aI21229138
aS'-'
asS'ATXN10'
p1096
(lp1097
I45671799
aI45845307
aS'+'
asS'LGALS2'
p1098
(lp1099
I37571849
aI37582616
aS'-'
asS'LGALS1'
p1100
(lp1101
I37675608
aI37679806
aS'+'
asS'RBFOX2'
p1102
(lp1103
I35744205
aI36028425
aS'-'
asS'AC005005.2'
p1104
(lp1105
I31113017
aI31113396
aS'+'
asS'NUP50'
p1106
(lp1107
I45163841
aI45188015
aS'+'
asS'KCNJ4'
p1108
(lp1109
I38426327
aI38455199
aS'-'
asS'PISD'
p1110
(lp1111
I31618491
aI31662215
aS'-'
asS'IGLV3-7'
p1112
(lp1113
I22838602
aI22838872
aS'+'
asS'IGLV3-6'
p1114
(lp1115
I22850375
aI22850624
aS'+'
asS'IGLV3-1'
p1116
(lp1117
I22880706
aI22881396
aS'+'
asS'IGLV3-2'
p1118
(lp1119
I22873212
aI22873440
aS'+'
asS'ZNF402P'
p1120
(lp1121
I16857619
aI16860718
aS'-'
asS'ZMAT5'
p1122
(lp1123
I29730956
aI29766961
aS'-'
asS'IGLVIV-64'
p1124
(lp1125
I22075366
aI22075666
aS'+'
asS'IGLV3-9'
p1126
(lp1127
I22819010
aI22819756
aS'+'
asS'ACTR3BP6'
p1128
(lp1129
I11124337
aI11125705
aS'+'
asS'AL022238.4'
p1130
(lp1131
I40346529
aI40410054
aS'+'
asS'LMF2'
p1132
(lp1133
I50502949
aI50507691
aS'-'
asS'ATP5L2'
p1134
(lp1135
I42639803
aI42640601
aS'-'
asS'POM121L10P'
p1136
(lp1137
I24657481
aI24658765
aS'-'
asS'HMGXB4'
p1138
(lp1139
I35257487
aI35295807
aS'+'
asS'AL022331.1'
p1140
(lp1141
I31816379
aI31817491
aS'-'
asS'AC245054.1'
p1142
(lp1143
I22990690
aI23008356
aS'+'
asS'LIMK2'
p1144
(lp1145
I31212295
aI31280080
aS'+'
asS'AL049758.1'
p1146
(lp1147
I42853403
aI42853799
aS'-'
asS'PRAMENP'
p1148
(lp1149
I21991100
aI22043934
aS'-'
asS'ASLP1'
p1150
(lp1151
I23649213
aI23653334
aS'-'
asS'DNAJA1P6'
p1152
(lp1153
I17518676
aI17519029
aS'-'
asS'NDUFA9P1'
p1154
(lp1155
I35897270
aI35898404
aS'-'
asS'AL096701.1'
p1156
(lp1157
I31559483
aI31559939
aS'+'
asS'IGLV10-67'
p1158
(lp1159
I22043618
aI22043942
aS'+'
asS'IGLV4-60'
p1160
(lp1161
I22162199
aI22162681
aS'+'
asS'NEFH'
p1162
(lp1163
I29480230
aI29491390
aS'+'
asS'DMC1'
p1164
(lp1165
I38518949
aI38570286
aS'-'
asS'P2RX6'
p1166
(lp1167
I21015027
aI21028830
aS'+'
asS'CPT1B'
p1168
(lp1169
I50568862
aI50578417
aS'-'
asS'TPST2'
p1170
(lp1171
I26525746
aI26596717
aS'-'
asS'IGLV3-30'
p1172
(lp1173
I22618572
aI22619163
aS'+'
asS'AL022238.1'
p1174
(lp1175
I40433136
aI40433641
aS'+'
asS'CHADL'
p1176
(lp1177
I41229513
aI41240934
aS'-'
asS'MCM5'
p1178
(lp1179
I35400063
aI35425430
aS'+'
asS'PPP6R2'
p1180
(lp1181
I50343304
aI50445090
aS'+'
asS'DUSP18'
p1182
(lp1183
I30652051
aI30667860
aS'-'
asS'AC245060.3'
p1184
(lp1185
I22228719
aI22230469
aS'-'
asS'AC245060.1'
p1186
(lp1187
I22347807
aI22348164
aS'+'
asS'AC245060.4'
p1188
(lp1189
I22303224
aI22310401
aS'+'
asS'NCAPH2'
p1190
(lp1191
I50508216
aI50523472
aS'+'
asS'C22orf23'
p1192
(lp1193
I37943050
aI37953669
aS'-'
asS'AC005300.1'
p1194
(lp1195
I17192936
aI17193308
aS'+'
asS'AC004461.1'
p1196
(lp1197
I19055801
aI19056512
aS'+'
asS'MPPED1'
p1198
(lp1199
I43411196
aI43507848
aS'+'
asS'AP000523.1'
p1200
(lp1201
I15854195
aI15855243
aS'-'
asS'NF1P6'
p1202
(lp1203
I15622601
aI15632051
aS'-'
asS'NFAM1'
p1204
(lp1205
I42380410
aI42432395
aS'-'
asS'KIAA1644'
p1206
(lp1207
I44243667
aI44312851
aS'-'
asS'A4GALT'
p1208
(lp1209
I42695171
aI42721298
aS'-'
asS'AC254562.1'
p1210
(lp1211
I42132543
aI42132998
aS'+'
asS'AC002472.2'
p1212
(lp1213
I21002895
aI21009453
aS'-'
asS'SNU13'
p1214
(lp1215
I41674925
aI41690504
aS'-'
asS'IGLV4-3'
p1216
(lp1217
I22871507
aI22872035
aS'+'
asS'TIMP3'
p1218
(lp1219
I32801701
aI32863043
aS'+'
asS'AC007663.1'
p1220
(lp1221
I20299760
aI20313216
aS'+'
asS'RGL4'
p1222
(lp1223
I23688136
aI23699176
aS'+'
asS'SCO2'
p1224
(lp1225
I50523568
aI50526439
aS'-'
asS'UPB1'
p1226
(lp1227
I24494107
aI24526668
aS'+'
asS'ZNF70'
p1228
(lp1229
I23738678
aI23751092
aS'-'
asS'AP000552.2'
p1230
(lp1231
I21370064
aI21371945
aS'+'
asS'MAFF'
p1232
(lp1233
I38201882
aI38216511
aS'+'
asS'DGCR8'
p1234
(lp1235
I20080232
aI20111875
aS'+'
asS'DGCR2'
p1236
(lp1237
I19036282
aI19122454
aS'-'
asS'DGCR5'
p1238
(lp1239
I18970514
aI18994628
aS'+'
asS'GRK3'
p1240
(lp1241
I25564849
aI25729294
aS'+'
asS'DGCR6'
p1242
(lp1243
I18906325
aI18914238
aS'+'
asS'MPST'
p1244
(lp1245
I37019635
aI37029801
aS'+'
asS'CSNK1E'
p1246
(lp1247
I38290691
aI38318084
aS'-'
asS'SUSD2'
p1248
(lp1249
I24181259
aI24189110
aS'+'
asS'AL021937.2'
p1250
(lp1251
I32386668
aI32386868
aS'+'
asS'HMGN2P10'
p1252
(lp1253
I41709225
aI41709489
aS'-'
asS'SLC9B1P4'
p1254
(lp1255
I16428947
aI16476870
aS'-'
asS'FAM19A5'
p1256
(lp1257
I48489592
aI48850912
aS'+'
asS'IGLV5-52'
p1258
(lp1259
I22318727
aI22319226
aS'+'
asS'RTL6'
p1260
(lp1261
I44492572
aI44498298
aS'-'
asS'RANGAP1'
p1262
(lp1263
I41245611
aI41286251
aS'-'
asS'AC002472.3'
p1264
(lp1265
I21011384
aI21014217
aS'-'
asS'CRYBB2P1'
p1266
(lp1267
I25455796
aI25520854
aS'+'
asS'NBEAP3'
p1268
(lp1269
I15852990
aI15893942
aS'+'
asS'Z83844.1'
p1270
(lp1271
I37686414
aI37726503
aS'+'
asS'SLC2A11'
p1272
(lp1273
I23856703
aI23886309
aS'+'
asS'ELFN2'
p1274
(lp1275
I37367960
aI37427470
aS'-'
asS'KCTD17'
p1276
(lp1277
I37051736
aI37063389
aS'+'
asS'C22orf42'
p1278
(lp1279
I32149006
aI32159322
aS'-'
asS'C22orf46'
p1280
(lp1281
I41690543
aI41698136
aS'+'
asS'SMPD4P1'
p1282
(lp1283
I20616230
aI20656914
aS'-'
asS'L3MBTL2'
p1284
(lp1285
I41205205
aI41231271
aS'+'
asS'IGLV1-41'
p1286
(lp1287
I22404207
aI22404721
aS'+'
asS'KDELR3'
p1288
(lp1289
I38468062
aI38483447
aS'+'
asS'PACSIN2'
p1290
(lp1291
I42869771
aI43015145
aS'-'
asS'CSF2RBP1'
p1292
(lp1293
I36950529
aI36953723
aS'-'
asS'ASPHD2'
p1294
(lp1295
I26429273
aI26445015
aS'+'
asS'IGLVI-56'
p1296
(lp1297
I22198560
aI22199011
aS'+'
asS'RASD2'
p1298
(lp1299
I35540868
aI35554001
aS'+'
asS'ANKRD54'
p1300
(lp1301
I37831860
aI37849327
aS'-'
asS'AP000533.1'
p1302
(lp1303
I15572089
aI15573265
aS'-'
asS'SLC7A4'
p1304
(lp1305
I21028718
aI21032558
aS'-'
asS'AL022319.1'
p1306
(lp1307
I39750127
aI39751293
aS'+'
asS'RPL3'
p1308
(lp1309
I39312884
aI39320389
aS'-'
asS'PHF21B'
p1310
(lp1311
I44881162
aI45009700
aS'-'
asS'SPECC1L'
p1312
(lp1313
I24270817
aI24417739
aS'+'
asS'MTCO1P20'
p1314
(lp1315
I36172422
aI36172779
aS'+'
asS'Z74021.1'
p1316
(lp1317
I32039490
aI32039896
aS'+'
asS'IGLV6-57'
p1318
(lp1319
I22195799
aI22196276
aS'+'
asS'TOMM22'
p1320
(lp1321
I38681948
aI38685421
aS'+'
asS'AP000344.1'
p1322
(lp1323
I23446598
aI23460788
aS'+'
asS'KREMEN1'
p1324
(lp1325
I29073118
aI29168333
aS'+'
asS'COX6B1P3'
p1326
(lp1327
I40569286
aI40569895
aS'+'
asS'PLXNB2'
p1328
(lp1329
I50274979
aI50307627
aS'-'
asS'RANBP1'
p1330
(lp1331
I20115938
aI20127357
aS'+'
asS'TRABD'
p1332
(lp1333
I50185917
aI50199598
aS'+'
asS'IGLV3-32'
p1334
(lp1335
I22594528
aI22595056
aS'+'
asS'IGLV1-51'
p1336
(lp1337
I22322472
aI22322969
aS'+'
asS'IGLV1-50'
p1338
(lp1339
I22327300
aI22327814
aS'+'
asS'AC116618.1'
p1340
(lp1341
I12602466
aI12626642
aS'+'
asS'AP000346.4'
p1342
(lp1343
I23607041
aI23608407
aS'+'
asS'E2F6P3'
p1344
(lp1345
I21268161
aI21268903
aS'+'
asS'MRPL40'
p1346
(lp1347
I19431902
aI19436075
aS'+'
asS'OSM'
p1348
(lp1349
I30262829
aI30266840
aS'-'
asS'GRAMD4'
p1350
(lp1351
I46576012
aI46637936
aS'+'
asS'SMC1B'
p1352
(lp1353
I45344063
aI45413567
aS'-'
asS'FAM118A'
p1354
(lp1355
I45308982
aI45341955
aS'+'
asS'MN1'
p1356
(lp1357
I27748277
aI27801498
aS'-'
asS'POLR2F'
p1358
(lp1359
I37953697
aI38041106
aS'+'
asS'AP000354.1'
p1360
(lp1361
I24269346
aI24270134
aS'-'
asS'IGLVV-66'
p1362
(lp1363
I22061077
aI22061538
aS'+'
asS'Z98749.3'
p1364
(lp1365
I38291918
aI38398522
aS'-'
asS'Z98749.2'
p1366
(lp1367
I38335762
aI38398916
aS'-'
asS'TPTEP1'
p1368
(lp1369
I16601887
aI16698742
aS'+'
asS'ACO2'
p1370
(lp1371
I41469125
aI41528989
aS'+'
asS'AL049757.1'
p1372
(lp1373
I42791814
aI42794313
aS'-'
asS'POM121L7P'
p1374
(lp1375
I21125660
aI21128063
aS'-'
asS'GSTT2B'
p1376
(lp1377
I23957414
aI23961186
aS'-'
asS'Z83846.1'
p1378
(lp1379
I33014980
aI33015461
aS'+'
asS'GGT3P'
p1380
(lp1381
I18794531
aI18843399
aS'-'
asS'HMOX1'
p1382
(lp1383
I35380835
aI35394214
aS'+'
asS'SDC4P'
p1384
(lp1385
I30481311
aI30481911
aS'-'
asS'IGLJ3'
p1386
(lp1387
I22904850
aI22905025
aS'+'
asS'IGLJ2'
p1388
(lp1389
I22899481
aI22899655
aS'+'
asS'IGLJ1'
p1390
(lp1391
I22893692
aI22893818
aS'+'
asS'IGLCOR22-2'
p1392
(lp1393
I32356676
aI32356988
aS'-'
asS'IGLJ7'
p1394
(lp1395
I22921390
aI22921435
aS'+'
asS'IGLJ6'
p1396
(lp1397
I22918132
aI22918201
aS'+'
asS'IGLJ5'
p1398
(lp1399
I22914237
aI22914308
aS'+'
asS'IGLJ4'
p1400
(lp1401
I22910574
aI22910606
aS'+'
asS'ASCC2'
p1402
(lp1403
I29788609
aI29838304
aS'-'
asS'ABHD17AP5'
p1404
(lp1405
I22114844
aI22118005
aS'-'
asS'XPNPEP3'
p1406
(lp1407
I40857098
aI40932815
aS'+'
asS'IL17RA'
p1408
(lp1409
I17084959
aI17115694
aS'+'
asS'CRIP1P4'
p1410
(lp1411
I24712292
aI24712520
aS'+'
asS'TUBA8'
p1412
(lp1413
I18110793
aI18131731
aS'+'
asS'VWFP1'
p1414
(lp1415
I16690103
aI16704477
aS'-'
asS'RFPL4AP6'
p1416
(lp1417
I29432944
aI29435005
aS'+'
asS'NCF4'
p1418
(lp1419
I36860988
aI36878015
aS'+'
asS'GGT5'
p1420
(lp1421
I24219654
aI24245142
aS'-'
asS'TOP3BP1'
p1422
(lp1423
I22223187
aI22224566
aS'-'
asS'Z98949.2'
p1424
(lp1425
I26006389
aI26006532
aS'-'
asS'AC245517.3'
p1426
(lp1427
I22157382
aI22157631
aS'+'
asS'ACR'
p1428
(lp1429
I50738196
aI50745334
aS'+'
asS'MAPK11'
p1430
(lp1431
I50263713
aI50270393
aS'-'
asS'MAPK12'
p1432
(lp1433
I50245450
aI50261143
aS'-'
asS'AP000534.2'
p1434
(lp1435
I15541436
aI15578006
aS'+'
asS'IGLV2-34'
p1436
(lp1437
I22580014
aI22580296
aS'+'
asS'AC244250.3'
p1438
(lp1439
I22730725
aI22731090
aS'-'
asS'IGLV2-33'
p1440
(lp1441
I22588155
aI22588688
aS'+'
asS'IGLVI-63'
p1442
(lp1443
I22079770
aI22080263
aS'+'
asS'Z82188.1'
p1444
(lp1445
I37215738
aI37215891
aS'-'
asS'POLDIP3'
p1446
(lp1447
I42583721
aI42614962
aS'-'
asS'BAIAP2L2'
p1448
(lp1449
I38084889
aI38110670
aS'-'
asS'TEF'
p1450
(lp1451
I41367333
aI41399324
aS'+'
asS'GP1BB'
p1452
(lp1453
I19722945
aI19724771
aS'+'
asS'MAPK1'
p1454
(lp1455
I21754500
aI21867629
aS'-'
asS'AP000356.3'
p1456
(lp1457
I24644791
aI24650832
aS'+'
asS'AC003071.1'
p1458
(lp1459
I30136673
aI30137681
aS'-'
asS'TCF20'
p1460
(lp1461
I42214847
aI42343616
aS'-'
asS'PI4KAP1'
p1462
(lp1463
I18538056
aI18577968
aS'-'
asS'PI4KAP2'
p1464
(lp1465
I21473035
aI21517533
aS'-'
asS'Z82198.3'
p1466
(lp1467
I33137140
aI33137338
aS'+'
asS'CECR2'
p1468
(lp1469
I17359949
aI17553332
aS'+'
asS'CECR6'
p1470
(lp1471
I17116299
aI17121367
aS'-'
asS'CECR7'
p1472
(lp1473
I17037239
aI17060825
aS'+'
asS'AP000358.1'
p1474
(lp1475
I24703348
aI24703503
aS'+'
asS'ASH2LP2'
p1476
(lp1477
I22366210
aI22367770
aS'+'
asS'GGA1'
p1478
(lp1479
I37608475
aI37633564
aS'+'
asS'RSPH14'
p1480
(lp1481
I23059415
aI23142093
aS'-'
asS'OR11H1'
p1482
(lp1483
I15528158
aI15529139
aS'+'
asS'GCAT'
p1484
(lp1485
I37807905
aI37817176
aS'+'
asS'IGLV7-35'
p1486
(lp1487
I22450202
aI22450652
aS'+'
asS'TNFRSF13C'
p1488
(lp1489
I41922023
aI41926818
aS'-'
asS'MAPK8IP2'
p1490
(lp1491
I50600685
aI50611551
aS'+'
asS'AP000356.4'
p1492
(lp1493
I24633272
aI24633443
aS'+'
asS'XKR3'
p1494
(lp1495
I16783412
aI16821699
aS'-'
asS'GGTLC5P'
p1496
(lp1497
I18340145
aI18345899
aS'+'
asS'SYNGR1'
p1498
(lp1499
I39349996
aI39385588
aS'+'
asS'PICK1'
p1500
(lp1501
I38057200
aI38075701
aS'+'
asS'SREBF2'
p1502
(lp1503
I41833079
aI41907307
aS'+'
asS'AP1B1P1'
p1504
(lp1505
I32121977
aI32133469
aS'+'
asS'AP1B1P2'
p1506
(lp1507
I32134028
aI32134133
aS'+'
asS'UBE2L3'
p1508
(lp1509
I21549447
aI21624034
aS'+'
asS'HDHD5'
p1510
(lp1511
I17137511
aI17165287
aS'-'
asS'IGLVIV-53'
p1512
(lp1513
I22219647
aI22220133
aS'+'
asS'DESI1'
p1514
(lp1515
I41598028
aI41621096
aS'-'
asS'TEX33'
p1516
(lp1517
I36991125
aI37007841
aS'-'
asS'IGLVVII-41-1'
p1518
(lp1519
I22398849
aI22398999
aS'+'
asS'GTPBP1'
p1520
(lp1521
I38705723
aI38733587
aS'+'
asS'IGLVIV-59'
p1522
(lp1523
I22179228
aI22179477
aS'+'
asS'PDXP'
p1524
(lp1525
I37658727
aI37666934
aS'+'
asS'AP000522.1'
p1526
(lp1527
I15901791
aI15901911
aS'+'
asS'NEK2P2'
p1528
(lp1529
I15611759
aI15613096
aS'-'
asS'TSSK2'
p1530
(lp1531
I19130808
aI19132623
aS'+'
asS'FAM83F'
p1532
(lp1533
I39994949
aI40043529
aS'+'
asS'XBP1'
p1534
(lp1535
I28794555
aI28800597
aS'-'
asS'RAB36'
p1536
(lp1537
I23145326
aI23164350
aS'+'
asS'BCL2L13'
p1538
(lp1539
I17638584
aI17730855
aS'+'
asS'UPK3A'
p1540
(lp1541
I45284982
aI45295874
aS'+'
asS'POM121L8P'
p1542
(lp1543
I21282881
aI21284161
aS'+'
asS'RPS19BP1'
p1544
(lp1545
I39529093
aI39532855
aS'-'
asS'FOXRED2'
p1546
(lp1547
I36487190
aI36507101
aS'-'
asS'C22orf15'
p1548
(lp1549
I23763021
aI23765861
aS'+'
asS'CPSF1P1'
p1550
(lp1551
I32269381
aI32273110
aS'+'
asS'TTLL12'
p1552
(lp1553
I43166622
aI43187133
aS'-'
asS'SLC35E4'
p1554
(lp1555
I30636523
aI30669016
aS'+'
asS'DGCR14'
p1556
(lp1557
I19130279
aI19144684
aS'-'
asS'AL080243.2'
p1558
(lp1559
I41064052
aI41064633
aS'+'
asS'LRP5L'
p1560
(lp1561
I25351457
aI25405377
aS'-'
asS'PDGFB'
p1562
(lp1563
I39223359
aI39244751
aS'-'
asS'AL080243.1'
p1564
(lp1565
I41074180
aI41075239
aS'-'
asS'CCDC74BP1'
p1566
(lp1567
I20587496
aI20592218
aS'-'
asS'PIM3'
p1568
(lp1569
I49960513
aI49964080
aS'+'
asS'AC004997.1'
p1570
(lp1571
I30285238
aI30299476
aS'-'
asS'E2F6P2'
p1572
(lp1573
I21141624
aI21142371
aS'-'
asS'E2F6P1'
p1574
(lp1575
I18833694
aI18834438
aS'+'
asS'TMPRSS6'
p1576
(lp1577
I37065439
aI37109563
aS'-'
asS'GGT2'
p1578
(lp1579
I21207974
aI21227637
aS'-'
asS'AP000542.1'
p1580
(lp1581
I15290718
aI15297196
aS'+'
asS'GGT1'
p1582
(lp1583
I24583750
aI24628968
aS'+'
asS'AC245028.1'
p1584
(lp1585
I22814671
aI22814926
aS'+'
asS'NAGA'
p1586
(lp1587
I42058354
aI42070830
aS'-'
asS'HORMAD2'
p1588
(lp1589
I30080174
aI30177075
aS'+'
asS'CLTCL1'
p1590
(lp1591
I19179473
aI19291714
aS'-'
asS'USP18'
p1592
(lp1593
I18149899
aI18177397
aS'+'
asS'MOV10L1'
p1594
(lp1595
I50089879
aI50161618
aS'+'
asS'SHANK3'
p1596
(lp1597
I50674415
aI50733298
aS'+'
asS'CYP2D8P'
p1598
(lp1599
I42149886
aI42155001
aS'-'
asS'CABIN1'
p1600
(lp1601
I24011315
aI24178628
aS'+'
asS'AL008718.1'
p1602
(lp1603
I45275599
aI45276085
aS'+'
asS'TAB1'
p1604
(lp1605
I39399784
aI39436823
aS'+'
asS'C1QTNF6'
p1606
(lp1607
I37180167
aI37198301
aS'-'
asS'ZDHHC8P1'
p1608
(lp1609
I23390606
aI23402726
aS'-'
asS'SIRPAP1'
p1610
(lp1611
I30542536
aI30544305
aS'+'
asS'AP000346.2'
p1612
(lp1613
I23638492
aI23640762
aS'-'
asS'MLC1'
p1614
(lp1615
I50059391
aI50085902
aS'-'
asS'MIEF1'
p1616
(lp1617
I39502353
aI39518132
aS'+'
asS'AP000346.3'
p1618
(lp1619
I23610329
aI23610538
aS'+'
asS'ATF4'
p1620
(lp1621
I39519695
aI39522683
aS'+'
asS'TRMT2A'
p1622
(lp1623
I20111875
aI20117392
aS'-'
asS'IGLV3-31'
p1624
(lp1625
I22604445
aI22605165
aS'+'
asS'TBC1D10A'
p1626
(lp1627
I30291990
aI30327046
aS'-'
as.