(dp1
S'RFKP2'
p2
(lp3
I112030931
aI112031649
aS'-'
asS'C3orf80'
p4
(lp5
I160225496
aI160228213
aS'+'
asS'FHIT'
p6
(lp7
I59749310
aI61251450
aS'-'
asS'C3orf84'
p8
(lp9
I49177632
aI49191858
aS'-'
asS'RNF13'
p10
(lp11
I149812708
aI149962139
aS'+'
asS'UQCRHP4'
p12
(lp13
I70140217
aI70140488
aS'+'
asS'RUBCN'
p14
(lp15
I197671393
aI197749699
aS'-'
asS'COX6CP6'
p16
(lp17
I70751123
aI70751350
aS'+'
asS'PDCD10'
p18
(lp19
I167683298
aI167734826
aS'-'
asS'ADIPOQ'
p20
(lp21
I186842690
aI186858463
aS'+'
asS'NCBP2'
p22
(lp23
I196935407
aI196942597
aS'-'
asS'TM4SF19-TCTEX1D2'
p24
(lp25
I196316082
aI196338373
aS'-'
asS'AC026316.1'
p26
(lp27
I170653846
aI170654259
aS'-'
asS'CAMK1'
p28
(lp29
I9757342
aI9769977
aS'-'
asS'PIK3CA'
p30
(lp31
I179148523
aI179240093
aS'+'
asS'PIK3CB'
p32
(lp33
I138654068
aI138834917
aS'-'
asS'CPHL1P'
p34
(lp35
I149229431
aI149276664
aS'-'
asS'CRBN'
p36
(lp37
I3144628
aI3179727
aS'-'
asS'CBLB'
p38
(lp39
I105655461
aI105869043
aS'-'
asS'XPC'
p40
(lp41
I14145147
aI14178783
aS'-'
asS'AC123900.1'
p42
(lp43
I33190233
aI33190328
aS'-'
asS'MUC4'
p44
(lp45
I195746765
aI195812277
aS'-'
asS'GOLIM4'
p46
(lp47
I168008677
aI168095975
aS'-'
asS'OPA1'
p48
(lp49
I193593144
aI193697823
aS'+'
asS'AC092916.2'
p50
(lp51
I111570638
aI111571054
aS'-'
asS'COL7A1'
p52
(lp53
I48564073
aI48595267
aS'-'
asS'AC092910.1'
p54
(lp55
I120028740
aI120029868
aS'+'
asS'PARP14'
p56
(lp57
I122680618
aI122730840
aS'+'
asS'PARP15'
p58
(lp59
I122577628
aI122639047
aS'+'
asS'HSPE1P19'
p60
(lp61
I90261414
aI90261708
aS'-'
asS'AC021660.1'
p62
(lp63
I98620065
aI98620618
aS'+'
asS'AC079944.2'
p64
(lp65
I113885298
aI113886031
aS'+'
asS'MTND4LP3'
p66
(lp67
I106895729
aI106896408
aS'-'
asS'ITGA9'
p68
(lp69
I37452119
aI37823514
aS'+'
asS'HACL1'
p70
(lp71
I15560704
aI15601852
aS'-'
asS'IQSEC1'
p72
(lp73
I12900849
aI13073117
aS'-'
asS'GAP43'
p74
(lp75
I115623324
aI115721490
aS'+'
asS'AC096919.1'
p76
(lp77
I61742455
aI61743106
aS'-'
asS'HRH1'
p78
(lp79
I11137093
aI11260775
aS'+'
asS'PRSS50'
p80
(lp81
I46712115
aI46812574
aS'-'
asS'ACTG1P1'
p82
(lp83
I139493809
aI139494937
aS'+'
asS'DNASE1L3'
p84
(lp85
I58192627
aI58214697
aS'-'
asS'FAM212A'
p86
(lp87
I49803254
aI49805030
aS'+'
asS'CHST2'
p88
(lp89
I143119331
aI143124014
aS'+'
asS'TUBBP11'
p90
(lp91
I103630661
aI103630912
aS'+'
asS'AC090505.1'
p92
(lp93
I194755589
aI194757422
aS'+'
asS'KCNH8'
p94
(lp95
I19148454
aI19535646
aS'+'
asS'NDUFA4P2'
p96
(lp97
I103240987
aI103241230
aS'+'
asS'EI24P3'
p98
(lp99
I44524744
aI44525805
aS'-'
asS'EI24P1'
p100
(lp101
I176068042
aI176068908
aS'-'
asS'MINOS1P3'
p102
(lp103
I27214816
aI27215018
aS'-'
asS'AC099777.1'
p104
(lp105
I57800056
aI57801448
aS'-'
asS'GHRL'
p106
(lp107
I10285675
aI10292947
aS'-'
asS'TOPAZ1'
p108
(lp109
I44241886
aI44332098
aS'+'
asS'GSTM5P1'
p110
(lp111
I12257801
aI12258460
aS'-'
asS'NPHP3'
p112
(lp113
I132681628
aI132722442
aS'-'
asS'SETP14'
p114
(lp115
I155987304
aI155988176
aS'+'
asS'SETP11'
p116
(lp117
I151269440
aI151270129
aS'+'
asS'NDUFAF3'
p118
(lp119
I49020459
aI49023287
aS'+'
asS'AC130509.1'
p120
(lp121
I146342996
aI146348480
aS'-'
asS'AC117394.1'
p122
(lp123
I153129074
aI153129640
aS'-'
asS'ARF4'
p124
(lp125
I57571363
aI57597408
aS'-'
asS'ERICH6'
p126
(lp127
I150659885
aI150703958
aS'-'
asS'MOBP'
p128
(lp129
I39467704
aI39529479
aS'+'
asS'DLEC1P1'
p130
(lp131
I38325237
aI38329070
aS'-'
asS'SCN11A'
p132
(lp133
I38845769
aI38950561
aS'-'
asS'ILDR1'
p134
(lp135
I121987323
aI122022183
aS'-'
asS'AC144530.1'
p136
(lp137
I197850400
aI197850954
aS'-'
asS'SUGT1P2'
p138
(lp139
I32752910
aI32753901
aS'+'
asS'AC083798.1'
p140
(lp141
I122416882
aI122417012
aS'-'
asS'TMEM212'
p142
(lp143
I171843401
aI171938715
aS'+'
asS'AC073135.1'
p144
(lp145
I198121479
aI198123232
aS'-'
asS'AC135506.1'
p146
(lp147
I49140086
aI49160851
aS'-'
asS'CRTAP'
p148
(lp149
I33113979
aI33147773
aS'+'
asS'AC117434.1'
p150
(lp151
I176113702
aI176114537
aS'-'
asS'AC110994.1'
p152
(lp153
I101414228
aI101414633
aS'+'
asS'AC110994.2'
p154
(lp155
I101457241
aI101457732
aS'-'
asS'AC107304.1'
p156
(lp157
I96244732
aI96245335
aS'-'
asS'FYCO1'
p158
(lp159
I45917899
aI45995824
aS'-'
asS'AC092910.2'
p160
(lp161
I120041190
aI120041537
aS'+'
asS'RPS3AP14'
p162
(lp163
I125795106
aI125795885
aS'+'
asS'ARL14'
p164
(lp165
I160677159
aI160678452
aS'+'
asS'IFT80'
p166
(lp167
I160256986
aI160399532
aS'-'
asS'KIF3AP1'
p168
(lp169
I195843986
aI195844596
aS'+'
asS'AC024937.1'
p170
(lp171
I196044695
aI196045254
aS'+'
asS'AC024937.2'
p172
(lp173
I195996738
aI195998233
aS'+'
asS'CD47'
p174
(lp175
I108043299
aI108091025
aS'-'
asS'PP2D1'
p176
(lp177
I19979961
aI20012267
aS'-'
asS'AC131160.1'
p178
(lp179
I183815568
aI183884889
aS'-'
asS'KLF7P1'
p180
(lp181
I170952850
aI170953897
aS'-'
asS'OR7E122P'
p182
(lp183
I8688143
aI8689159
aS'+'
asS'CAMKV'
p184
(lp185
I49857989
aI49870222
aS'-'
asS'KRT18P15'
p186
(lp187
I32258940
aI32260230
aS'+'
asS'UBE2V1P2'
p188
(lp189
I175718231
aI175718670
aS'-'
asS'KRT18P17'
p190
(lp191
I12787393
aI12788671
aS'-'
asS'EIF4E3'
p192
(lp193
I71679289
aI71754383
aS'-'
asS'ARL4AP4'
p194
(lp195
I23878981
aI23879498
aS'-'
asS'DZIP1L'
p196
(lp197
I138061990
aI138115609
aS'-'
asS'EIF4BP4'
p198
(lp199
I42340588
aI42342367
aS'+'
asS'DPPA2P3'
p200
(lp201
I193993331
aI193993985
aS'-'
asS'AC026877.1'
p202
(lp203
I76434018
aI76435428
aS'+'
asS'AC107302.1'
p204
(lp205
I81366990
aI81368021
aS'-'
asS'RPN1'
p206
(lp207
I128620159
aI128681075
aS'-'
asS'AC020633.1'
p208
(lp209
I132386522
aI132389074
aS'+'
asS'ZNF652P1'
p210
(lp211
I50786674
aI50788285
aS'-'
asS'PPP2R3A'
p212
(lp213
I135965673
aI136147891
aS'+'
asS'SIDT1'
p214
(lp215
I113532296
aI113629578
aS'+'
asS'AC133473.1'
p216
(lp217
I185606575
aI185606873
aS'+'
asS'CCRL2'
p218
(lp219
I46409514
aI46412997
aS'+'
asS'BRK1'
p220
(lp221
I10115592
aI10127190
aS'+'
asS'SFMBT1'
p222
(lp223
I52903572
aI53046068
aS'-'
asS'AC126182.1'
p224
(lp225
I120484171
aI120484527
aS'-'
asS'AC126182.2'
p226
(lp227
I120512850
aI120513188
aS'+'
asS'AC023162.1'
p228
(lp229
I129632019
aI129632492
aS'-'
asS'FKBP1AP4'
p230
(lp231
I149463779
aI149464114
aS'-'
asS'AC068760.1'
p232
(lp233
I180323107
aI180325059
aS'+'
asS'RPL7AP25'
p234
(lp235
I181505075
aI181505879
aS'-'
asS'GLT8D1'
p236
(lp237
I52694489
aI52705791
aS'-'
asS'RPL7AP23'
p238
(lp239
I82319172
aI82320279
aS'-'
asS'NIFKP7'
p240
(lp241
I32063974
aI32066611
aS'-'
asS'C3orf70'
p242
(lp243
I185078050
aI185153014
aS'-'
asS'SHOX2'
p244
(lp245
I158096011
aI158106050
aS'-'
asS'THOC7'
p246
(lp247
I63833870
aI63863903
aS'-'
asS'SH3BP5'
p248
(lp249
I15255650
aI15341368
aS'-'
asS'AC104849.1'
p250
(lp251
I62124204
aI62124608
aS'-'
asS'LSAMP'
p252
(lp253
I116019515
aI117139389
aS'-'
asS'TMEM44'
p254
(lp255
I194587673
aI194633421
aS'-'
asS'TMEM40'
p256
(lp257
I12734707
aI12769457
aS'-'
asS'TMEM43'
p258
(lp259
I14124940
aI14143679
aS'+'
asS'UQCRC1'
p260
(lp261
I48599003
aI48610037
aS'-'
asS'FOXP1'
p262
(lp263
I70954693
aI71583989
aS'-'
asS'OXSR1'
p264
(lp265
I38165505
aI38255488
aS'+'
asS'MSL2'
p266
(lp267
I136148922
aI136195846
aS'-'
asS'AC096861.1'
p268
(lp269
I122482990
aI122483229
aS'+'
asS'ASTE1'
p270
(lp271
I131013875
aI131026802
aS'-'
asS'AC106707.2'
p272
(lp273
I158496561
aI158496934
aS'+'
asS'CEP97'
p274
(lp275
I101723925
aI101770562
aS'+'
asS'MTND4LP9'
p276
(lp277
I29797652
aI29797825
aS'-'
asS'TREX1'
p278
(lp279
I48465811
aI48467645
aS'+'
asS'TKT'
p280
(lp281
I53224707
aI53256031
aS'-'
asS'MKRN2OS'
p282
(lp283
I12514934
aI12561059
aS'-'
asS'AC139700.1'
p284
(lp285
I70125070
aI70126609
aS'-'
asS'TUBB8P8'
p286
(lp287
I198119721
aI198120778
aS'+'
asS'IGBP1P3'
p288
(lp289
I32620903
aI32621902
aS'-'
asS'TMEM45A'
p290
(lp291
I100492619
aI100577444
aS'+'
asS'NCBP2-AS2'
p292
(lp293
I196942623
aI196943540
aS'+'
asS'NPHP3-ACAD11'
p294
(lp295
I132558142
aI132722459
aS'-'
asS'RPL38P4'
p296
(lp297
I98525061
aI98525274
aS'-'
asS'PHLDB2'
p298
(lp299
I111732497
aI111976267
aS'+'
asS'RPL38P1'
p300
(lp301
I148695994
aI148696204
aS'-'
asS'ABTB1'
p302
(lp303
I127672940
aI127680917
aS'+'
asS'RPL21P43'
p304
(lp305
I168858659
aI168859130
aS'-'
asS'RPL21P42'
p306
(lp307
I154023835
aI154024298
aS'+'
asS'RPL21P41'
p308
(lp309
I66637149
aI66637412
aS'+'
asS'RPL21P40'
p310
(lp311
I32030196
aI32030678
aS'+'
asS'SST'
p312
(lp313
I187668906
aI187670399
aS'-'
asS'GLYCTK'
p314
(lp315
I52287089
aI52293166
aS'+'
asS'SHISA5'
p316
(lp317
I48467870
aI48504826
aS'-'
asS'AC108725.1'
p318
(lp319
I73648399
aI73648807
aS'-'
asS'FETUB'
p320
(lp321
I186635969
aI186652631
aS'+'
asS'FCF1P2'
p322
(lp323
I48290793
aI48291375
aS'-'
asS'FCF1P3'
p324
(lp325
I106848671
aI106849260
aS'+'
asS'ARPP21'
p326
(lp327
I35640964
aI35794457
aS'+'
asS'AC107027.2'
p328
(lp329
I131537571
aI131537685
aS'-'
asS'COX17'
p330
(lp331
I119654513
aI119676922
aS'-'
asS'RPL30P4'
p332
(lp333
I32635222
aI32635554
aS'-'
asS'EIF2B5'
p334
(lp335
I184135038
aI184145311
aS'+'
asS'AC108729.3'
p336
(lp337
I155375683
aI155375790
aS'-'
asS'AC108729.2'
p338
(lp339
I155401329
aI155403399
aS'-'
asS'SCN10A'
p340
(lp341
I38696802
aI38794010
aS'-'
asS'PRKAR2A'
p342
(lp343
I48746579
aI48847846
aS'-'
asS'AC092952.1'
p344
(lp345
I190830965
aI190832173
aS'+'
asS'LRRC3B'
p346
(lp347
I26622806
aI26710776
aS'+'
asS'EMC3-AS1'
p348
(lp349
I9986911
aI10005244
aS'+'
asS'MLF1'
p350
(lp351
I158571194
aI158607252
aS'+'
asS'UBL5P3'
p352
(lp353
I63203218
aI63203448
aS'-'
asS'FAM157A'
p354
(lp355
I198167739
aI198222513
aS'+'
asS'MECOM'
p356
(lp357
I169084761
aI169663470
aS'-'
asS'ALCAM'
p358
(lp359
I105366909
aI105576900
aS'+'
asS'AC063923.1'
p360
(lp361
I109241507
aI109243125
aS'+'
asS'OSBPL9P1'
p362
(lp363
I80163327
aI80164795
aS'+'
asS'HINT2P1'
p364
(lp365
I2362258
aI2362738
aS'+'
asS'CDCP1'
p366
(lp367
I45082278
aI45146422
aS'-'
asS'TGFBR2'
p368
(lp369
I30606502
aI30694134
aS'+'
asS'AC092042.3'
p370
(lp371
I42809446
aI43032335
aS'+'
asS'MTMR14'
p372
(lp373
I9649433
aI9702393
aS'+'
asS'NLGN1'
p374
(lp375
I173398448
aI174286644
aS'+'
asS'CELSR3'
p376
(lp377
I48636469
aI48662915
aS'-'
asS'PPIAP16'
p378
(lp379
I57941818
aI57942304
aS'+'
asS'PPIAP15'
p380
(lp381
I109471329
aI109471812
aS'-'
asS'FOXL2'
p382
(lp383
I138944224
aI138947140
aS'-'
asS'BBX'
p384
(lp385
I107522936
aI107811324
aS'+'
asS'AC121247.2'
p386
(lp387
I49252129
aI49252264
aS'-'
asS'LRRC31'
p388
(lp389
I169839241
aI169869930
aS'-'
asS'TMED10P2'
p390
(lp391
I128538020
aI128538631
aS'+'
asS'LRRC34'
p392
(lp393
I169793473
aI169812986
aS'-'
asS'SAP18P3'
p394
(lp395
I20007852
aI20008247
aS'-'
asS'MFN1'
p396
(lp397
I179347692
aI179394931
aS'+'
asS'ISY1'
p398
(lp399
I129127415
aI129161293
aS'-'
asS'NAA50'
p400
(lp401
I113716460
aI113746274
aS'-'
asS'ST6GAL1'
p402
(lp403
I186930485
aI187078553
aS'+'
asS'AC084198.1'
p404
(lp405
I101599243
aI101599644
aS'-'
asS'ZMAT3'
p406
(lp407
I179017223
aI179072279
aS'-'
asS'MTND2P14'
p408
(lp409
I106902173
aI106902523
aS'+'
asS'TOMM22P6'
p410
(lp411
I162486541
aI162486949
aS'-'
asS'NR1D2'
p412
(lp413
I23945260
aI23980618
aS'+'
asS'RABL3'
p414
(lp415
I120686681
aI120742537
aS'-'
asS'MED28P2'
p416
(lp417
I149099499
aI149099815
aS'-'
asS'SNRPFP4'
p418
(lp419
I48161176
aI48161417
aS'+'
asS'CAMP'
p420
(lp421
I48223347
aI48225491
aS'+'
asS'AC074043.1'
p422
(lp423
I107104911
aI107107000
aS'-'
asS'ATP6V0E1P2'
p424
(lp425
I41859350
aI41859594
aS'-'
asS'SATB1'
p426
(lp427
I18347940
aI18438773
aS'-'
asS'TXNRD3NB'
p428
(lp429
I126571779
aI126608555
aS'-'
asS'OSTN'
p430
(lp431
I191199241
aI191265615
aS'+'
asS'ST3GAL6'
p432
(lp433
I98732236
aI98795845
aS'+'
asS'AC107015.1'
p434
(lp435
I96566357
aI96567103
aS'+'
asS'BOLA2P2'
p436
(lp437
I47499841
aI47500407
aS'+'
asS'SKIL'
p438
(lp439
I170359623
aI170396835
aS'+'
asS'CADPS'
p440
(lp441
I62398346
aI62875389
aS'-'
asS'AC083906.4'
p442
(lp443
I130034553
aI130035539
aS'-'
asS'DPH3'
p444
(lp445
I16257978
aI16264972
aS'-'
asS'AC083906.2'
p446
(lp447
I130013182
aI130013541
aS'-'
asS'AC083906.1'
p448
(lp449
I129998531
aI129998936
aS'+'
asS'NSUN3'
p450
(lp451
I94062916
aI94128545
aS'+'
asS'ARHGAP31'
p452
(lp453
I119294373
aI119420714
aS'+'
asS'DCAF1'
p454
(lp455
I51395867
aI51500002
aS'-'
asS'TRMT112P5'
p456
(lp457
I139845078
aI139845411
aS'-'
asS'MON1A'
p458
(lp459
I49908873
aI49930173
aS'-'
asS'OR5BM1P'
p460
(lp461
I98053374
aI98053739
aS'+'
asS'OR7E100P'
p462
(lp463
I112524187
aI112525201
aS'-'
asS'PDCL3P4'
p464
(lp465
I101712472
aI101713191
aS'+'
asS'AC084017.1'
p466
(lp467
I164001606
aI164002465
aS'-'
asS'CNN2P6'
p468
(lp469
I31181751
aI31182650
aS'-'
asS'THRB'
p470
(lp471
I24117160
aI24494822
aS'-'
asS'UPK1B'
p472
(lp473
I119173518
aI119205153
aS'+'
asS'NRBF2P2'
p474
(lp475
I46023296
aI46024156
aS'+'
asS'MBNL1'
p476
(lp477
I152268040
aI152465779
aS'+'
asS'GM2AP1'
p478
(lp479
I145684572
aI145685092
aS'+'
asS'AC104162.1'
p480
(lp481
I63741827
aI63805093
aS'-'
asS'CLCN2'
p482
(lp483
I184346185
aI184361651
aS'-'
asS'NDUFS6P1'
p484
(lp485
I135959275
aI135959590
aS'-'
asS'SLC15A2'
p486
(lp487
I121894089
aI121944102
aS'+'
asS'PXYLP1'
p488
(lp489
I141260123
aI141367753
aS'+'
asS'MASP1'
p490
(lp491
I187217285
aI187292022
aS'-'
asS'RPEP2'
p492
(lp493
I26015669
aI26016369
aS'+'
asS'MYLKP1'
p494
(lp495
I75328549
aI75339071
aS'-'
asS'RPS6P4'
p496
(lp497
I163115429
aI163116186
aS'+'
asS'C3orf67'
p498
(lp499
I58742006
aI59050084
aS'-'
asS'KAT2B'
p500
(lp501
I20040023
aI20154404
aS'+'
asS'C3orf62'
p502
(lp503
I49268786
aI49277909
aS'-'
asS'ZNF852'
p504
(lp505
I44498970
aI44510636
aS'-'
asS'HTD2'
p506
(lp507
I58306272
aI58318484
aS'+'
asS'CD200'
p508
(lp509
I112333156
aI112362812
aS'+'
asS'ABCF3'
p510
(lp511
I184186023
aI184194007
aS'+'
asS'AC072046.2'
p512
(lp513
I166605188
aI166605455
aS'+'
asS'AC072046.1'
p514
(lp515
I166721458
aI166721610
aS'+'
asS'PPM1L'
p516
(lp517
I160756208
aI161078907
aS'+'
asS'AC083801.1'
p518
(lp519
I182691928
aI182692285
aS'+'
asS'DNAJB11'
p520
(lp521
I186567403
aI186585800
aS'+'
asS'AC069213.3'
p522
(lp523
I195554610
aI195555083
aS'+'
asS'AC069213.2'
p524
(lp525
I195561215
aI195561580
aS'-'
asS'DALRD3'
p526
(lp527
I49015493
aI49021251
aS'-'
asS'UMPS'
p528
(lp529
I124730366
aI124749273
aS'+'
asS'CCT6P4'
p530
(lp531
I190714811
aI190716399
aS'+'
asS'RPSAP29'
p532
(lp533
I110682286
aI110683154
aS'-'
asS'VILL'
p534
(lp535
I37988059
aI38007188
aS'+'
asS'BRD7P2'
p536
(lp537
I160100850
aI160102793
aS'+'
asS'TIPARP'
p538
(lp539
I156674342
aI156706770
aS'+'
asS'MRPL3'
p540
(lp541
I131462212
aI131502969
aS'-'
asS'RPUSD3'
p542
(lp543
I9837849
aI9844016
aS'-'
asS'ZNF589'
p544
(lp545
I48241101
aI48299253
aS'+'
asS'AC072026.1'
p546
(lp547
I120924612
aI120925158
aS'-'
asS'KY'
p548
(lp549
I134603138
aI134651018
aS'-'
asS'CYCSP12'
p550
(lp551
I11878830
aI11879129
aS'-'
asS'SUMO2P10'
p552
(lp553
I33077204
aI33077491
aS'+'
asS'CYCSP10'
p554
(lp555
I10000647
aI10000940
aS'-'
asS'PROK2'
p556
(lp557
I71771656
aI71785206
aS'-'
asS'ZNF619'
p558
(lp559
I40477113
aI40490236
aS'+'
asS'ACAD9'
p560
(lp561
I128879611
aI128913114
aS'+'
asS'AC092989.1'
p562
(lp563
I135925891
aI135926167
aS'+'
asS'GRK7'
p564
(lp565
I141778148
aI141818490
aS'+'
asS'AC072022.1'
p566
(lp567
I187743686
aI187746028
aS'+'
asS'ADPRH'
p568
(lp569
I119579268
aI119589945
aS'+'
asS'RPL21P71'
p570
(lp571
I147276768
aI147277252
aS'+'
asS'DENND6A'
p572
(lp573
I57625457
aI57693089
aS'-'
asS'B3GAT3P1'
p574
(lp575
I160452598
aI160453403
aS'+'
asS'ZNF385D'
p576
(lp577
I21437012
aI22372632
aS'-'
asS'TMEM207'
p578
(lp579
I190428655
aI190449876
aS'-'
asS'SLC6A11'
p580
(lp581
I10816200
aI10940733
aS'+'
asS'FBXO45'
p582
(lp583
I196568688
aI196589059
aS'+'
asS'OXTR'
p584
(lp585
I8750408
aI8769617
aS'-'
asS'FBXO40'
p586
(lp587
I121593119
aI121630295
aS'+'
asS'AC069271.1'
p588
(lp589
I13052967
aI13053122
aS'-'
asS'FLYWCH1P1'
p590
(lp591
I180827977
aI180829850
aS'-'
asS'AC069277.2'
p592
(lp593
I6692319
aI6693088
aS'+'
asS'CP'
p594
(lp595
I149162410
aI149221827
aS'-'
asS'RPSA'
p596
(lp597
I39406689
aI39412542
aS'+'
asS'JAGN1'
p598
(lp599
I9890554
aI9894349
aS'+'
asS'AC112487.2'
p600
(lp601
I112321140
aI112321443
aS'+'
asS'LSP1P2'
p602
(lp603
I75395188
aI75395320
aS'+'
asS'TRNT1'
p604
(lp605
I3126965
aI3150879
aS'+'
asS'MARK2P17'
p606
(lp607
I128843564
aI128844404
aS'-'
asS'MARK2P14'
p608
(lp609
I11906527
aI11912313
aS'+'
asS'AC092991.1'
p610
(lp611
I136205540
aI136205915
aS'-'
asS'SLC31A1P1'
p612
(lp613
I172603440
aI172604006
aS'-'
asS'KIAA1524'
p614
(lp615
I108549869
aI108589452
aS'-'
asS'TMEM158'
p616
(lp617
I45224466
aI45226278
aS'-'
asS'VN1R21P'
p618
(lp619
I14089107
aI14089871
aS'-'
asS'EIF1B'
p620
(lp621
I40309684
aI40312424
aS'+'
asS'PRICKLE2'
p622
(lp623
I64093871
aI64445407
aS'-'
asS'AC024560.2'
p624
(lp625
I197634315
aI197635811
aS'+'
asS'RPL29'
p626
(lp627
I51993600
aI51995942
aS'-'
asS'EIF4BP8'
p628
(lp629
I122660613
aI122662438
aS'+'
asS'LARP7P4'
p630
(lp631
I145523538
aI145524415
aS'+'
asS'RPL24'
p632
(lp633
I101681092
aI101686782
aS'-'
asS'AC079841.1'
p634
(lp635
I121356991
aI121357940
aS'+'
asS'AC092035.1'
p636
(lp637
I53474700
aI53475089
aS'-'
asS'ATG3'
p638
(lp639
I112532509
aI112561963
aS'-'
asS'ATG7'
p640
(lp641
I11272416
aI11557665
aS'+'
asS'SPINK8'
p642
(lp643
I48306842
aI48328341
aS'-'
asS'AC093010.1'
p644
(lp645
I114231398
aI114233021
aS'-'
asS'HSP90AA5P'
p646
(lp647
I184115352
aI184117898
aS'+'
asS'CABYRP1'
p648
(lp649
I54047749
aI54048793
aS'-'
asS'MTHFD2P1'
p650
(lp651
I95654423
aI95683193
aS'-'
asS'AADAC'
p652
(lp653
I151814037
aI151828488
aS'+'
asS'MTHFD2P7'
p654
(lp655
I179464346
aI179465328
aS'+'
asS'IL1RAP'
p656
(lp657
I190514102
aI190659750
aS'+'
asS'PIGX'
p658
(lp659
I196639775
aI196731093
aS'+'
asS'PIGZ'
p660
(lp661
I196946343
aI196968833
aS'-'
asS'KIAA1143'
p662
(lp663
I44737661
aI44761511
aS'-'
asS'RPS18P6'
p664
(lp665
I95171920
aI95172377
aS'+'
asS'DLEC1'
p666
(lp667
I38039205
aI38123549
aS'+'
asS'CCDC174'
p668
(lp669
I14651746
aI14672653
aS'+'
asS'AC104452.1'
p670
(lp671
I49416777
aI49429314
aS'-'
asS'AC090004.1'
p672
(lp673
I14135217
aI14148005
aS'+'
asS'AP006193.1'
p674
(lp675
I38270283
aI38270767
aS'-'
asS'COL6A5'
p676
(lp677
I130345516
aI130484844
aS'+'
asS'SEC61A1'
p678
(lp679
I128052369
aI128071682
aS'+'
asS'COL6A6'
p680
(lp681
I130560334
aI130678155
aS'+'
asS'AC108706.1'
p682
(lp683
I86816740
aI86817036
aS'+'
asS'PDCL3P3'
p684
(lp685
I17877455
aI17878169
aS'-'
asS'NDUFAF4P3'
p686
(lp687
I37789921
aI37790445
aS'-'
asS'WDR5B'
p688
(lp689
I122412332
aI122416051
aS'-'
asS'OGG1'
p690
(lp691
I9751079
aI9788219
aS'+'
asS'AC006254.2'
p692
(lp693
I52734735
aI52735013
aS'+'
asS'EOMES'
p694
(lp695
I27715949
aI27722498
aS'-'
asS'DDX50P2'
p696
(lp697
I154352136
aI154354799
aS'-'
asS'ENPP7P3'
p698
(lp699
I130167790
aI130168030
aS'-'
asS'AC104446.1'
p700
(lp701
I52732547
aI52733867
aS'+'
asS'RPL17P17'
p702
(lp703
I65843890
aI65844446
aS'+'
asS'ENPP7P4'
p704
(lp705
I125848223
aI125909372
aS'+'
asS'HMGN2P13'
p706
(lp707
I153067278
aI153067551
aS'+'
asS'C3orf36'
p708
(lp709
I133928145
aI133929812
aS'-'
asS'RPL7P16'
p710
(lp711
I132243528
aI132244265
aS'-'
asS'RPL7P15'
p712
(lp713
I124151960
aI124153063
aS'-'
asS'RBP1'
p714
(lp715
I139517434
aI139539829
aS'-'
asS'RBP2'
p716
(lp717
I139454772
aI139480723
aS'-'
asS'LRRFIP1P1'
p718
(lp719
I179259028
aI179261273
aS'-'
asS'ABHD6'
p720
(lp721
I58237506
aI58294732
aS'+'
asS'ABHD5'
p722
(lp723
I43690870
aI43719049
aS'+'
asS'NKIRAS1'
p724
(lp725
I23892064
aI23946591
aS'-'
asS'TWF2'
p726
(lp727
I52228610
aI52239260
aS'-'
asS'WDR53'
p728
(lp729
I196554194
aI196568674
aS'-'
asS'MARK3P3'
p730
(lp731
I128848673
aI128849399
aS'-'
asS'CBX1P5'
p732
(lp733
I166811009
aI166811567
aS'+'
asS'SGO1'
p734
(lp735
I20160593
aI20186191
aS'-'
asS'FECHP1'
p736
(lp737
I34872641
aI34873854
aS'+'
asS'NR1I2'
p738
(lp739
I119780484
aI119818485
aS'+'
asS'CFAP100'
p740
(lp741
I126394939
aI126436555
aS'+'
asS'EIF4G1'
p742
(lp743
I184314495
aI184335357
aS'+'
asS'AC007849.2'
p744
(lp745
I169709295
aI169709765
aS'+'
asS'IL20RB'
p746
(lp747
I136957865
aI137011085
aS'+'
asS'RASSF1'
p748
(lp749
I50329786
aI50340936
aS'-'
asS'AC109992.1'
p750
(lp751
I142450102
aI142452149
aS'+'
asS'AC092965.1'
p752
(lp753
I167065831
aI167066320
aS'+'
asS'NEK10'
p754
(lp755
I27110904
aI27369392
aS'-'
asS'NEK11'
p756
(lp757
I131026879
aI131350465
aS'+'
asS'UROC1'
p758
(lp759
I126481281
aI126517773
aS'-'
asS'AC063952.3'
p760
(lp761
I120388029
aI120389315
aS'+'
asS'AC063952.2'
p762
(lp763
I120306726
aI120307952
aS'+'
asS'AC063952.1'
p764
(lp765
I120349716
aI120419686
aS'+'
asS'AC139453.3'
p766
(lp767
I75384059
aI75391810
aS'-'
asS'AC139453.2'
p768
(lp769
I75395404
aI75395536
aS'-'
asS'AC139453.1'
p770
(lp771
I75370448
aI75371342
aS'-'
asS'AC117409.1'
p772
(lp773
I132175402
aI132176711
aS'+'
asS'C3orf58'
p774
(lp775
I143972637
aI144048719
aS'+'
asS'IMPDH1P8'
p776
(lp777
I15878047
aI15879571
aS'+'
asS'AC108750.1'
p778
(lp779
I88338413
aI88467562
aS'+'
asS'AC104850.1'
p780
(lp781
I39338129
aI39338879
aS'-'
asS'CDC25A'
p782
(lp783
I48157146
aI48188356
aS'-'
asS'C3orf52'
p784
(lp785
I112086335
aI112128749
aS'+'
asS'PLA1A'
p786
(lp787
I119597842
aI119629811
aS'+'
asS'ARPC4'
p788
(lp789
I9792558
aI9807726
aS'+'
asS'RPL39P5'
p790
(lp791
I134351852
aI134356561
aS'-'
asS'DCUN1D1'
p792
(lp793
I182938074
aI182980643
aS'-'
asS'DYNC1LI1'
p794
(lp795
I32525971
aI32570874
aS'-'
asS'TRPC1'
p796
(lp797
I142724169
aI142807888
aS'+'
asS'CHDH'
p798
(lp799
I53812335
aI53846390
aS'-'
asS'RHOA'
p800
(lp801
I49359145
aI49412202
aS'-'
asS'ITPR1'
p802
(lp803
I4493348
aI4847840
aS'+'
asS'POLR2H'
p804
(lp805
I184361718
aI184368594
aS'+'
asS'ANKRD28'
p806
(lp807
I15667236
aI15859771
aS'-'
asS'PLSCR4'
p808
(lp809
I146192339
aI146251179
aS'-'
asS'PLSCR5'
p810
(lp811
I146576555
aI146605239
aS'-'
asS'PLSCR2'
p812
(lp813
I146391421
aI146460074
aS'-'
asS'LRIG1'
p814
(lp815
I66378797
aI66501011
aS'-'
asS'PLSCR1'
p816
(lp817
I146515180
aI146544864
aS'-'
asS'KLHL40'
p818
(lp819
I42685519
aI42692544
aS'+'
asS'IL17RE'
p820
(lp821
I9902828
aI9916402
aS'+'
asS'IL17RD'
p822
(lp823
I57094250
aI57170306
aS'-'
asS'IL17RC'
p824
(lp825
I9917074
aI9933620
aS'+'
asS'IL17RB'
p826
(lp827
I53846580
aI53865800
aS'+'
asS'IQCF6'
p828
(lp829
I51778561
aI51779187
aS'-'
asS'IQCF4'
p830
(lp831
I51817603
aI51819345
aS'+'
asS'IQCF5'
p832
(lp833
I51873721
aI51875584
aS'-'
asS'IQCF2'
p834
(lp835
I51861629
aI51863423
aS'+'
asS'IQCF3'
p836
(lp837
I51817604
aI51830856
aS'+'
asS'RPSAP32'
p838
(lp839
I617789
aI618314
aS'-'
asS'IQCF1'
p840
(lp841
I51894876
aI51903335
aS'-'
asS'AC092896.1'
p842
(lp843
I114103249
aI114103628
aS'-'
asS'TMEM110-MUSTN1'
p844
(lp845
I52833150
aI52897562
aS'-'
asS'GADL1'
p846
(lp847
I30726200
aI30894765
aS'-'
asS'FAM86JP'
p848
(lp849
I125916630
aI125930024
aS'+'
asS'ZNF620'
p850
(lp851
I40506039
aI40518736
aS'+'
asS'ZNF621'
p852
(lp853
I40524983
aI40574685
aS'+'
asS'NECTIN3'
p854
(lp855
I111072168
aI111193539
aS'+'
asS'AC090958.1'
p856
(lp857
I11909634
aI11910765
aS'-'
asS'RAD23BP1'
p858
(lp859
I18538673
aI18539899
aS'+'
asS'RAP2B'
p860
(lp861
I153162270
aI153170620
aS'+'
asS'SIAH2'
p862
(lp863
I150741127
aI150763377
aS'-'
asS'AC090954.1'
p864
(lp865
I15131848
aI15132208
aS'-'
asS'LYZL4'
p866
(lp867
I42397078
aI42410600
aS'-'
asS'EIF3KP2'
p868
(lp869
I24555834
aI24556459
aS'+'
asS'PLCD1'
p870
(lp871
I38007498
aI38029762
aS'-'
asS'NDUFB4P1'
p872
(lp873
I67513940
aI67514320
aS'+'
asS'PDZRN3'
p874
(lp875
I73382433
aI73624940
aS'-'
asS'B3GALNT1'
p876
(lp877
I161083883
aI161105370
aS'-'
asS'CD200R1L'
p878
(lp879
I112815709
aI112846856
aS'-'
asS'TMA7'
p880
(lp881
I48440257
aI48444208
aS'+'
asS'ENO1P3'
p882
(lp883
I124862094
aI124863317
aS'-'
asS'KALRN'
p884
(lp885
I124094711
aI124721188
aS'+'
asS'TDGF1'
p886
(lp887
I46574534
aI46581860
aS'+'
asS'GNAT1'
p888
(lp889
I50191612
aI50196516
aS'+'
asS'SETP6'
p890
(lp891
I81612238
aI81612805
aS'-'
asS'AC133141.1'
p892
(lp893
I25441164
aI25441502
aS'-'
asS'TRAT1'
p894
(lp895
I108822698
aI108855005
aS'+'
asS'HIGD1A'
p896
(lp897
I42784298
aI42804531
aS'-'
asS'MLH1'
p898
(lp899
I36993332
aI37050918
aS'+'
asS'CICP6'
p900
(lp901
I198223497
aI198226310
aS'-'
asS'ANKRD18DP'
p902
(lp903
I198053522
aI198080512
aS'-'
asS'AC093004.1'
p904
(lp905
I130293337
aI130293760
aS'+'
asS'EIF4E2P2'
p906
(lp907
I115279125
aI115279860
aS'+'
asS'RAD51AP1P1'
p908
(lp909
I136899076
aI136900076
aS'-'
asS'TMPRSS7'
p910
(lp911
I112034843
aI112081165
aS'+'
asS'ZNF654'
p912
(lp913
I88059274
aI88144665
aS'+'
asS'LRRC58'
p914
(lp915
I120324509
aI120349339
aS'-'
asS'AC078867.1'
p916
(lp917
I126672106
aI126673223
aS'-'
asS'NICN1'
p918
(lp919
I49422946
aI49429326
aS'-'
asS'AC112907.2'
p920
(lp921
I186826549
aI186827337
aS'+'
asS'RPL32'
p922
(lp923
I12834485
aI12841588
aS'-'
asS'AC069257.2'
p924
(lp925
I196298061
aI196298215
aS'-'
asS'KLHDC8B'
p926
(lp927
I49171611
aI49176486
aS'+'
asS'MEMO1P3'
p928
(lp929
I167888414
aI167888715
aS'+'
asS'BAP1'
p930
(lp931
I52401013
aI52410350
aS'-'
asS'AC092691.2'
p932
(lp933
I117674342
aI117675144
aS'-'
asS'SMARCC1'
p934
(lp935
I47585272
aI47781917
aS'-'
asS'RYK'
p936
(lp937
I134065303
aI134183033
aS'-'
asS'ABHD10'
p938
(lp939
I111979035
aI111993363
aS'+'
asS'AC117454.1'
p940
(lp941
I151499639
aI151499806
aS'+'
asS'MTND1P16'
p942
(lp943
I106901068
aI106901965
aS'+'
asS'AC114876.1'
p944
(lp945
I72876737
aI72878102
aS'-'
asS'DLG1'
p946
(lp947
I197042560
aI197298576
aS'-'
asS'RHBDF1P1'
p948
(lp949
I14572852
aI14574792
aS'-'
asS'COMMD2'
p950
(lp951
I149738470
aI149752499
aS'-'
asS'AC068647.2'
p952
(lp953
I151797484
aI151808249
aS'+'
asS'AC068647.1'
p954
(lp955
I151759747
aI151762011
aS'-'
asS'DAZL'
p956
(lp957
I16596750
aI16670306
aS'-'
asS'SLC38A3'
p958
(lp959
I50205246
aI50221486
aS'+'
asS'FAM3D'
p960
(lp961
I58633946
aI58666848
aS'-'
asS'KRT8P35'
p962
(lp963
I63096374
aI63097711
aS'-'
asS'IFRD2'
p964
(lp965
I50287743
aI50292918
aS'-'
asS'VN1R20P'
p966
(lp967
I13926813
aI13927778
aS'+'
asS'ALS2CL'
p968
(lp969
I46669189
aI46693701
aS'-'
asS'MTCO1P5'
p970
(lp971
I12165299
aI12165642
aS'-'
asS'MTCO1P6'
p972
(lp973
I89588714
aI89590097
aS'-'
asS'EIF2A'
p974
(lp975
I150546694
aI150584242
aS'+'
asS'HMGN2P26'
p976
(lp977
I167958744
aI167959082
aS'+'
asS'HMGN2P24'
p978
(lp979
I40699066
aI40699338
aS'-'
asS'HMGN2P25'
p980
(lp981
I141865012
aI141865279
aS'-'
asS'COX6CP14'
p982
(lp983
I49758483
aI49758656
aS'+'
asS'COX6CP10'
p984
(lp985
I33554636
aI33554859
aS'+'
asS'KRT18P43'
p986
(lp987
I169902980
aI169904260
aS'-'
asS'AC074276.2'
p988
(lp989
I158336430
aI158336777
aS'-'
asS'AC096920.1'
p990
(lp991
I50685551
aI50685791
aS'-'
asS'AC134025.1'
p992
(lp993
I70196894
aI70312726
aS'-'
asS'AC074276.1'
p994
(lp995
I158275809
aI158276421
aS'-'
asS'WDR48'
p996
(lp997
I39052020
aI39096671
aS'+'
asS'WDR49'
p998
(lp999
I167478687
aI167653983
aS'-'
asS'AC096922.1'
p1000
(lp1001
I68633706
aI68634356
aS'-'
asS'TBC1D23'
p1002
(lp1003
I100261001
aI100325251
aS'+'
asS'ZIC4'
p1004
(lp1005
I147386046
aI147406860
aS'-'
asS'HMGN1P8'
p1006
(lp1007
I167694355
aI167694642
aS'-'
asS'HMGN1P9'
p1008
(lp1009
I134385197
aI134385494
aS'+'
asS'ZIC1'
p1010
(lp1011
I147393422
aI147507986
aS'+'
asS'GRM7'
p1012
(lp1013
I6861115
aI7741533
aS'+'
asS'GRM2'
p1014
(lp1015
I51707090
aI51718613
aS'+'
asS'AC026320.2'
p1016
(lp1017
I191952349
aI191952826
aS'-'
asS'EEF1GP4'
p1018
(lp1019
I161324913
aI161326219
aS'-'
asS'SENP7'
p1020
(lp1021
I101324205
aI101513184
aS'-'
asS'SENP5'
p1022
(lp1023
I196867856
aI196934714
aS'+'
asS'SENP2'
p1024
(lp1025
I185586174
aI185633551
aS'+'
asS'PPARG'
p1026
(lp1027
I12287368
aI12434344
aS'+'
asS'AC091607.1'
p1028
(lp1029
I156175852
aI156176911
aS'-'
asS'RPL18AP7'
p1030
(lp1031
I38526802
aI38527325
aS'-'
asS'RPL18AP8'
p1032
(lp1033
I96619304
aI96619831
aS'+'
asS'DAG1'
p1034
(lp1035
I49468703
aI49535618
aS'+'
asS'MKRN2'
p1036
(lp1037
I12557014
aI12583713
aS'+'
asS'LHFPL4'
p1038
(lp1039
I9498361
aI9553802
aS'-'
asS'AC097638.1'
p1040
(lp1041
I43484972
aI43485880
aS'-'
asS'BZW1P2'
p1042
(lp1043
I116645902
aI116646727
aS'-'
asS'BZW1P1'
p1044
(lp1045
I172425850
aI172427089
aS'-'
asS'PTX3'
p1046
(lp1047
I157436789
aI157443628
aS'+'
asS'AC096915.1'
p1048
(lp1049
I62926371
aI62926882
aS'+'
asS'RFC3P1'
p1050
(lp1051
I36169767
aI36170448
aS'-'
asS'BSN'
p1052
(lp1053
I49554489
aI49671545
aS'+'
asS'AC099560.2'
p1054
(lp1055
I40761545
aI40761799
aS'+'
asS'CISH'
p1056
(lp1057
I50606522
aI50611831
aS'-'
asS'CD200R1'
p1058
(lp1059
I112921209
aI112975090
aS'-'
asS'LIMD1'
p1060
(lp1061
I45555394
aI45673506
aS'+'
asS'P4HTM'
p1062
(lp1063
I48989886
aI49007154
aS'+'
asS'TMPPE'
p1064
(lp1065
I33090421
aI33096801
aS'-'
asS'CLUHP10'
p1066
(lp1067
I75629993
aI75634057
aS'+'
asS'AADACL2'
p1068
(lp1069
I151733916
aI151761339
aS'+'
asS'ZNF639'
p1070
(lp1071
I179323763
aI179338583
aS'+'
asS'ACPP'
p1072
(lp1073
I132317407
aI132368298
aS'+'
asS'AC124916.1'
p1074
(lp1075
I48120669
aI48121215
aS'-'
asS'PBRM1'
p1076
(lp1077
I52547841
aI52685836
aS'-'
asS'MME'
p1078
(lp1079
I155024124
aI155180849
aS'+'
asS'PFN2'
p1080
(lp1081
I149966161
aI150050788
aS'-'
asS'RPL7AP11'
p1082
(lp1083
I121494110
aI121494908
aS'+'
asS'C3orf49'
p1084
(lp1085
I63819362
aI63848636
aS'+'
asS'ERC2'
p1086
(lp1087
I55508308
aI56468363
aS'-'
asS'NMNAT1P3'
p1088
(lp1089
I190166764
aI190167651
aS'+'
asS'ALG1L15P'
p1090
(lp1091
I156044155
aI156044948
aS'-'
asS'AC091804.1'
p1092
(lp1093
I104502700
aI104503266
aS'+'
asS'LARS2'
p1094
(lp1095
I45388561
aI45549421
aS'+'
asS'AC128688.1'
p1096
(lp1097
I112185480
aI112185998
aS'-'
asS'AC080128.1'
p1098
(lp1099
I133760300
aI133762363
aS'+'
asS'SELENOT'
p1100
(lp1101
I150603279
aI150630445
aS'+'
asS'SELENOK'
p1102
(lp1103
I53884410
aI53891988
aS'-'
asS'AC131235.1'
p1104
(lp1105
I184149704
aI184150435
aS'+'
asS'AC131235.2'
p1106
(lp1107
I184076779
aI184084219
aS'+'
asS'TRA2B'
p1108
(lp1109
I185915906
aI185938136
aS'-'
asS'AC119744.1'
p1110
(lp1111
I175675087
aI175676801
aS'-'
asS'BFSP2'
p1112
(lp1113
I133399995
aI133475193
aS'+'
asS'AC116036.1'
p1114
(lp1115
I58511310
aI58511676
aS'+'
asS'AC016930.1'
p1116
(lp1117
I74101349
aI74103553
aS'+'
asS'P2RY1'
p1118
(lp1119
I152834693
aI152841439
aS'+'
asS'HNRNPA1P17'
p1120
(lp1121
I108325520
aI108326814
aS'-'
asS'AC112771.1'
p1122
(lp1123
I141724425
aI141724526
aS'+'
asS'POU1F1'
p1124
(lp1125
I87259404
aI87276587
aS'-'
asS'RNF123'
p1126
(lp1127
I49689499
aI49721527
aS'+'
asS'TFG'
p1128
(lp1129
I100709361
aI100748942
aS'+'
asS'RAP1BP2'
p1130
(lp1131
I104063039
aI104063582
aS'+'
asS'MAP3K13'
p1132
(lp1133
I185282953
aI185482749
aS'+'
asS'STXBP5L'
p1134
(lp1135
I120908072
aI121424761
aS'+'
asS'AC117470.1'
p1136
(lp1137
I97481177
aI97481506
aS'-'
asS'TGM4'
p1138
(lp1139
I44874611
aI44914990
aS'+'
asS'ATP13A5'
p1140
(lp1141
I193274790
aI193378843
aS'-'
asS'RARRES2P1'
p1142
(lp1143
I75658534
aI75659014
aS'+'
asS'AC007620.1'
p1144
(lp1145
I179452395
aI179452419
aS'-'
asS'ZXDC'
p1146
(lp1147
I126437601
aI126475919
aS'-'
asS'AC108751.2'
p1148
(lp1149
I149433044
aI149433274
aS'-'
asS'CRIP1P2'
p1150
(lp1151
I25686896
aI25687123
aS'+'
asS'AC108751.1'
p1152
(lp1153
I149464839
aI149465201
aS'-'
asS'CLSTN2'
p1154
(lp1155
I139935185
aI140577397
aS'+'
asS'AC108751.5'
p1156
(lp1157
I149494660
aI149495995
aS'+'
asS'GNL3'
p1158
(lp1159
I52685920
aI52694492
aS'+'
asS'B3GNT5'
p1160
(lp1161
I183253353
aI183296311
aS'+'
asS'RARB'
p1162
(lp1163
I25174332
aI25596455
aS'+'
asS'AC233280.19'
p1164
(lp1165
I195635188
aI195636301
aS'+'
asS'EHHADH'
p1166
(lp1167
I185190624
aI185254098
aS'-'
asS'RPSAP33'
p1168
(lp1169
I168666559
aI168667423
aS'+'
asS'OR5AC2'
p1170
(lp1171
I98087173
aI98088102
aS'+'
asS'OR5AC1'
p1172
(lp1173
I98064472
aI98065396
aS'+'
asS'CCNL1'
p1174
(lp1175
I157146508
aI157160760
aS'-'
asS'PQLC2L'
p1176
(lp1177
I157543390
aI157677749
aS'+'
asS'TBCCD1'
p1178
(lp1179
I186546073
aI186570543
aS'-'
asS'TSC22D2'
p1180
(lp1181
I150408335
aI150466431
aS'+'
asS'AC104304.1'
p1182
(lp1183
I46581150
aI46617226
aS'+'
asS'EDEM1'
p1184
(lp1185
I5187673
aI5219957
aS'+'
asS'HRG'
p1186
(lp1187
I186665952
aI186678240
aS'+'
asS'TRANK1'
p1188
(lp1189
I36826820
aI36945057
aS'-'
asS'OSBPL10'
p1190
(lp1191
I31657890
aI31981302
aS'-'
asS'OSBPL11'
p1192
(lp1193
I125528858
aI125595090
aS'-'
asS'AC104306.1'
p1194
(lp1195
I32507955
aI32508325
aS'+'
asS'SLC2A2'
p1196
(lp1197
I170996348
aI171026750
aS'-'
asS'FAM172BP'
p1198
(lp1199
I101521891
aI101522979
aS'+'
asS'RHO'
p1200
(lp1201
I129528640
aI129535169
aS'+'
asS'SEC13P1'
p1202
(lp1203
I33033863
aI33034810
aS'+'
asS'THRAP3P1'
p1204
(lp1205
I31452832
aI31455894
aS'+'
asS'COLQ'
p1206
(lp1207
I15450133
aI15521751
aS'-'
asS'SCHIP1'
p1208
(lp1209
I159839861
aI159897360
aS'+'
asS'EXOSC7'
p1210
(lp1211
I44976276
aI45036066
aS'+'
asS'GTF2E1'
p1212
(lp1213
I120742732
aI120783069
aS'+'
asS'AC092421.1'
p1214
(lp1215
I22670201
aI22670711
aS'-'
asS'PPATP1'
p1216
(lp1217
I87051192
aI87052738
aS'-'
asS'ATRIP'
p1218
(lp1219
I48446710
aI48465655
aS'+'
asS'UBP1'
p1220
(lp1221
I33388336
aI33440378
aS'-'
asS'AC073861.1'
p1222
(lp1223
I101576489
aI101576947
aS'-'
asS'CYP2AB1P'
p1224
(lp1225
I183895900
aI183910936
aS'-'
asS'AC099535.1'
p1226
(lp1227
I27486247
aI27486617
aS'+'
asS'EXOG'
p1228
(lp1229
I38496738
aI38542161
aS'+'
asS'AC108676.2'
p1230
(lp1231
I194471923
aI194472085
aS'+'
asS'AC104629.2'
p1232
(lp1233
I166293756
aI166294353
aS'+'
asS'AC092185.1'
p1234
(lp1235
I108725440
aI108725536
aS'-'
asS'AC104629.1'
p1236
(lp1237
I166181313
aI166181820
aS'-'
asS'AC134503.1'
p1238
(lp1239
I180201159
aI180201212
aS'+'
asS'LINC00694'
p1240
(lp1241
I44421142
aI44439946
aS'-'
asS'GUCA1C'
p1242
(lp1243
I108907803
aI108953895
aS'-'
asS'UBE2Q2P9'
p1244
(lp1245
I72006774
aI72006975
aS'+'
asS'TBC1D5'
p1246
(lp1247
I17160372
aI18444817
aS'-'
asS'AC108688.1'
p1248
(lp1249
I125344085
aI125344797
aS'-'
asS'ATR'
p1250
(lp1251
I142449237
aI142578826
aS'-'
asS'LSM3'
p1252
(lp1253
I14178358
aI14201119
aS'+'
asS'GPR79'
p1254
(lp1255
I158841093
aI158841960
aS'-'
asS'DNAJB8'
p1256
(lp1257
I128462442
aI128467248
aS'-'
asS'MTCO3P35'
p1258
(lp1259
I106896891
aI106897671
aS'-'
asS'MTCO3P38'
p1260
(lp1261
I166161203
aI166161968
aS'-'
asS'H1FX'
p1262
(lp1263
I129314771
aI129316277
aS'-'
asS'OXSM'
p1264
(lp1265
I25783073
aI25791680
aS'+'
asS'CRYBG3'
p1266
(lp1267
I97822040
aI97944963
aS'+'
asS'AC104308.1'
p1268
(lp1269
I35871866
aI35872198
aS'+'
asS'PODXL2'
p1270
(lp1271
I127629181
aI127672809
aS'+'
asS'U2SURP'
p1272
(lp1273
I143001539
aI143060546
aS'+'
asS'AC099778.2'
p1274
(lp1275
I47469777
aI47469987
aS'+'
asS'RPL6P9'
p1276
(lp1277
I142580910
aI142582399
aS'+'
asS'AC079382.1'
p1278
(lp1279
I106325737
aI106326293
aS'-'
asS'LRRFIP2'
p1280
(lp1281
I37052656
aI37176360
aS'-'
asS'ACOX2'
p1282
(lp1283
I58505136
aI58537319
aS'-'
asS'SLC22A14'
p1284
(lp1285
I38282298
aI38318249
aS'+'
asS'KNG1'
p1286
(lp1287
I186717276
aI186743954
aS'+'
asS'SLC22A13'
p1288
(lp1289
I38265812
aI38278315
aS'+'
asS'AMOTL2'
p1290
(lp1291
I134355877
aI134375479
aS'-'
asS'FAM86HP'
p1292
(lp1293
I130099258
aI130111472
aS'-'
asS'MGLL'
p1294
(lp1295
I127689062
aI127823250
aS'-'
asS'RPSAP11'
p1296
(lp1297
I32190747
aI32191627
aS'+'
asS'AC021074.1'
p1298
(lp1299
I142827096
aI142827728
aS'-'
asS'AC021074.2'
p1300
(lp1301
I142960372
aI142960543
aS'+'
asS'XCR1'
p1302
(lp1303
I46017024
aI46027742
aS'-'
asS'C3orf33'
p1304
(lp1305
I155762617
aI155806351
aS'-'
asS'C3orf30'
p1306
(lp1307
I119146151
aI119160025
aS'+'
asS'AC055731.1'
p1308
(lp1309
I78758974
aI78759374
aS'+'
asS'DNAJC13'
p1310
(lp1311
I132417526
aI132539032
aS'+'
asS'C3orf35'
p1312
(lp1313
I37399162
aI37435497
aS'+'
asS'C3orf38'
p1314
(lp1315
I88156889
aI88168729
aS'+'
asS'DNAJC19'
p1316
(lp1317
I180983709
aI180989773
aS'-'
asS'PRKCI'
p1318
(lp1319
I170222365
aI170305981
aS'+'
asS'NUDT16P1'
p1320
(lp1321
I131361898
aI131365122
aS'+'
asS'PRKCD'
p1322
(lp1323
I53161120
aI53192717
aS'+'
asS'KBTBD12'
p1324
(lp1325
I127915232
aI127987666
aS'+'
asS'AC094019.1'
p1326
(lp1327
I32151083
aI32151895
aS'-'
asS'BDH1'
p1328
(lp1329
I197509783
aI197573323
aS'-'
asS'SLC6A20'
p1330
(lp1331
I45755450
aI45796535
aS'-'
asS'ZPLD1'
p1332
(lp1333
I102099244
aI102477677
aS'+'
asS'AC046134.1'
p1334
(lp1335
I139582928
aI139583593
aS'-'
asS'ACKR4'
p1336
(lp1337
I132601388
aI132618967
aS'+'
asS'PFKFB4'
p1338
(lp1339
I48517684
aI48556890
aS'-'
asS'ACKR2'
p1340
(lp1341
I42809462
aI42887974
aS'+'
asS'KLF3P2'
p1342
(lp1343
I156977558
aI156977825
aS'+'
asS'RPL32P3'
p1344
(lp1345
I129382922
aI129399405
aS'-'
asS'RPL32P9'
p1346
(lp1347
I150150538
aI150150944
aS'+'
asS'FBXL2'
p1348
(lp1349
I33277466
aI33403662
aS'+'
asS'AC092903.1'
p1350
(lp1351
I125958556
aI125958817
aS'+'
asS'KRT8P36'
p1352
(lp1353
I138101478
aI138102917
aS'-'
asS'PPP4R2'
p1354
(lp1355
I72996785
aI73069199
aS'+'
asS'AC020890.1'
p1356
(lp1357
I138643874
aI138644694
aS'-'
asS'AC098614.1'
p1358
(lp1359
I27633598
aI27635427
aS'+'
asS'AC098614.2'
p1360
(lp1361
I27624202
aI27624456
aS'-'
asS'AC098614.3'
p1362
(lp1363
I27703129
aI27703568
aS'-'
asS'PPP1R2'
p1364
(lp1365
I195514425
aI195543386
aS'-'
asS'AC133681.1'
p1366
(lp1367
I127284081
aI127284681
aS'-'
asS'NUP210'
p1368
(lp1369
I13316235
aI13420309
aS'-'
asS'FAM131A'
p1370
(lp1371
I184337205
aI184348421
aS'+'
asS'SMCO1'
p1372
(lp1373
I196506877
aI196515366
aS'-'
asS'AC055753.1'
p1374
(lp1375
I133409955
aI133410843
aS'+'
asS'CCDC71'
p1376
(lp1377
I49162535
aI49166321
aS'-'
asS'KCNAB1'
p1378
(lp1379
I156037701
aI156514424
aS'+'
asS'RPL14'
p1380
(lp1381
I40457292
aI40468587
aS'+'
asS'RPL15'
p1382
(lp1383
I23916804
aI23923692
aS'+'
asS'TMEM108'
p1384
(lp1385
I133038391
aI133397792
aS'+'
asS'IQCJ-SCHIP1'
p1386
(lp1387
I159069264
aI159897358
aS'+'
asS'SETD2'
p1388
(lp1389
I47016689
aI47163967
aS'-'
asS'SETD5'
p1390
(lp1391
I9397719
aI9478154
aS'+'
asS'PCYT1A'
p1392
(lp1393
I196214222
aI196287690
aS'-'
asS'AC233280.20'
p1394
(lp1395
I195701618
aI195711643
aS'+'
asS'NME6'
p1396
(lp1397
I48293264
aI48301358
aS'-'
asS'DZIP3'
p1398
(lp1399
I108589682
aI108694846
aS'+'
asS'NME9'
p1400
(lp1401
I138261437
aI138329886
aS'-'
asS'ZCWPW2'
p1402
(lp1403
I28349149
aI28525145
aS'+'
asS'HMGB1P36'
p1404
(lp1405
I70753854
aI70754573
aS'+'
asS'HMGB1P30'
p1406
(lp1407
I148824782
aI148825387
aS'-'
asS'PDLIM1P4'
p1408
(lp1409
I98782188
aI98783193
aS'+'
asS'LXN'
p1410
(lp1411
I158645822
aI158669593
aS'-'
asS'HMGB1P38'
p1412
(lp1413
I79957566
aI79958142
aS'-'
asS'ZMYND10'
p1414
(lp1415
I50341110
aI50346852
aS'-'
asS'MTND5P15'
p1416
(lp1417
I177010719
aI177011067
aS'-'
asS'MTND5P16'
p1418
(lp1419
I106898889
aI106900591
aS'+'
asS'VENTXP4'
p1420
(lp1421
I26346681
aI26347638
aS'-'
asS'VENTXP7'
p1422
(lp1423
I21405737
aI21406508
aS'+'
asS'RCC2P4'
p1424
(lp1425
I126766434
aI126767475
aS'-'
asS'RCC2P5'
p1426
(lp1427
I96753185
aI96754671
aS'+'
asS'AC117383.2'
p1428
(lp1429
I141307612
aI141307933
aS'-'
asS'MTATP6P22'
p1430
(lp1431
I106897671
aI106898268
aS'-'
asS'AC117395.2'
p1432
(lp1433
I149982181
aI149983308
aS'-'
asS'AC117395.1'
p1434
(lp1435
I149984395
aI149984797
aS'+'
asS'AC124945.1'
p1436
(lp1437
I109364047
aI109364234
aS'-'
asS'AC099328.1'
p1438
(lp1439
I69535664
aI69536693
aS'-'
asS'HMCES'
p1440
(lp1441
I129278840
aI129306186
aS'+'
asS'UBA7'
p1442
(lp1443
I49805207
aI49813946
aS'-'
asS'UBA5'
p1444
(lp1445
I132654446
aI132678097
aS'+'
asS'UBA3'
p1446
(lp1447
I69054730
aI69080408
aS'-'
asS'SPICE1'
p1448
(lp1449
I113442718
aI113515156
aS'-'
asS'RPL4P4'
p1450
(lp1451
I185417495
aI185418778
aS'-'
asS'NDUFB1P1'
p1452
(lp1453
I48181547
aI48181726
aS'+'
asS'FAM162A'
p1454
(lp1455
I122384182
aI122412334
aS'+'
asS'UBE2D3P2'
p1456
(lp1457
I37134658
aI37135102
aS'+'
asS'AC011816.1'
p1458
(lp1459
I36880184
aI36880729
aS'-'
asS'EIF2S2P2'
p1460
(lp1461
I185245460
aI185246441
aS'-'
asS'CDHR4'
p1462
(lp1463
I49790732
aI49799821
aS'-'
asS'HSPA8P18'
p1464
(lp1465
I19940269
aI19943310
aS'-'
asS'SHQ1'
p1466
(lp1467
I72749279
aI72848480
aS'-'
asS'NRROS'
p1468
(lp1469
I196639686
aI196662004
aS'+'
asS'VEZF1P1'
p1470
(lp1471
I193155456
aI193157208
aS'-'
asS'HLTF'
p1472
(lp1473
I149030127
aI149086530
aS'-'
asS'TPMTP2'
p1474
(lp1475
I42145646
aI42146371
aS'-'
asS'ACTR3P3'
p1476
(lp1477
I101163094
aI101163986
aS'+'
asS'OXNAD1'
p1478
(lp1479
I16265466
aI16350299
aS'+'
asS'CRYGS'
p1480
(lp1481
I186538441
aI186546702
aS'-'
asS'AC098650.1'
p1482
(lp1483
I28349178
aI29767537
aS'+'
asS'VDAC1P7'
p1484
(lp1485
I77316752
aI77317598
aS'-'
asS'MTND6P6'
p1486
(lp1487
I106900593
aI106900855
aS'-'
asS'EOGT'
p1488
(lp1489
I68975214
aI69013961
aS'-'
asS'SRPRB'
p1490
(lp1491
I133784033
aI133821492
aS'+'
asS'ABCF2P1'
p1492
(lp1493
I88317156
aI88319022
aS'+'
asS'TMCC1'
p1494
(lp1495
I129647794
aI129893576
aS'-'
asS'FLT1P1'
p1496
(lp1497
I46142358
aI46143677
aS'-'
asS'TSEN2'
p1498
(lp1499
I12484511
aI12539623
aS'+'
asS'CASR'
p1500
(lp1501
I122183683
aI122291629
aS'+'
asS'NMNAT3'
p1502
(lp1503
I139560180
aI139678017
aS'-'
asS'GPR87'
p1504
(lp1505
I151294103
aI151316952
aS'-'
asS'AC139451.1'
p1506
(lp1507
I49775285
aI49775614
aS'+'
asS'TPRXL'
p1508
(lp1509
I13937379
aI14082811
aS'+'
asS'GPR62'
p1510
(lp1511
I51955314
aI51957504
aS'+'
asS'PLXND1'
p1512
(lp1513
I129555175
aI129606818
aS'-'
asS'FAIM'
p1514
(lp1515
I138608609
aI138633376
aS'+'
asS'QARS'
p1516
(lp1517
I49095932
aI49105135
aS'-'
asS'TBL1XR1'
p1518
(lp1519
I177019355
aI177196478
aS'-'
asS'RBSN'
p1520
(lp1521
I15070073
aI15099148
aS'-'
asS'SNRK'
p1522
(lp1523
I43343351
aI43424764
aS'+'
asS'LRRN1'
p1524
(lp1525
I3799437
aI3847703
aS'+'
asS'DHFR2'
p1526
(lp1527
I94047836
aI94062841
aS'-'
asS'STX19'
p1528
(lp1529
I94014369
aI94028610
aS'-'
asS'MELTF'
p1530
(lp1531
I197001740
aI197029816
aS'-'
asS'ARMC10P1'
p1532
(lp1533
I94506766
aI94507620
aS'-'
asS'HSPA8P19'
p1534
(lp1535
I132645831
aI132650383
aS'+'
asS'AC233280.2'
p1536
(lp1537
I195650146
aI195651472
aS'-'
asS'ATP11B'
p1538
(lp1539
I182793500
aI182921635
aS'+'
asS'RBMS3'
p1540
(lp1541
I28576466
aI30004034
aS'+'
asS'VEPH1'
p1542
(lp1543
I157259742
aI157503427
aS'-'
asS'KLF15'
p1544
(lp1545
I126342635
aI126357442
aS'-'
asS'MTRNR2L12'
p1546
(lp1547
I96617188
aI96618236
aS'-'
asS'OR5H15'
p1548
(lp1549
I98168700
aI98169733
aS'+'
asS'OR5H14'
p1550
(lp1551
I98149326
aI98150405
aS'+'
asS'ABBA01000935.2'
p1552
(lp1553
I91374236
aI91513775
aS'-'
asS'GBE1'
p1554
(lp1555
I81489699
aI81762161
aS'-'
asS'RPL23AP38'
p1556
(lp1557
I1595777
aI1596245
aS'-'
asS'RPL23AP39'
p1558
(lp1559
I1730070
aI1730474
aS'+'
asS'DSTNP4'
p1560
(lp1561
I39214199
aI39214672
aS'+'
asS'RPSAP69'
p1562
(lp1563
I196983890
aI196986942
aS'-'
asS'CEP63'
p1564
(lp1565
I134485791
aI134575011
aS'+'
asS'PCNP'
p1566
(lp1567
I101574095
aI101594437
aS'+'
asS'MCM2'
p1568
(lp1569
I127598223
aI127622436
aS'+'
asS'ZDHHC23'
p1570
(lp1571
I113947901
aI113962982
aS'+'
asS'AC092418.1'
p1572
(lp1573
I57530345
aI57530967
aS'-'
asS'ANO10'
p1574
(lp1575
I43365848
aI43622068
aS'-'
asS'C3orf20'
p1576
(lp1577
I14675099
aI14773034
aS'+'
asS'ALG1L6P'
p1578
(lp1579
I75415070
aI75422143
aS'+'
asS'C3orf22'
p1580
(lp1581
I126526999
aI126558965
aS'-'
asS'ISY1-RAB43'
p1582
(lp1583
I129087575
aI129161036
aS'-'
asS'UBTFL8'
p1584
(lp1585
I5080212
aI5084429
aS'-'
asS'DNAJC19P4'
p1586
(lp1587
I2985231
aI2985575
aS'-'
asS'FAM198A'
p1588
(lp1589
I42979267
aI43060211
aS'+'
asS'TIMP4'
p1590
(lp1591
I12153051
aI12159351
aS'-'
asS'PARL'
p1592
(lp1593
I183829271
aI183884933
aS'-'
asS'MCF2L2'
p1594
(lp1595
I183178043
aI183428275
aS'-'
asS'CHMP2B'
p1596
(lp1597
I87227271
aI87255548
aS'+'
asS'MUC20'
p1598
(lp1599
I195726370
aI195741123
aS'+'
asS'PSMC1P1'
p1600
(lp1601
I68635705
aI68637024
aS'+'
asS'BOC'
p1602
(lp1603
I113211482
aI113287459
aS'+'
asS'PSMC1P7'
p1604
(lp1605
I161328924
aI161330238
aS'-'
asS'PSMC1P6'
p1606
(lp1607
I87630301
aI87631619
aS'-'
asS'ZNF148'
p1608
(lp1609
I125225561
aI125375354
aS'-'
asS'FTH1P23'
p1610
(lp1611
I72929044
aI72929593
aS'+'
asS'SUSD5'
p1612
(lp1613
I33150042
aI33219215
aS'-'
asS'PHC3'
p1614
(lp1615
I170087584
aI170181747
aS'-'
asS'AC069421.1'
p1616
(lp1617
I193765681
aI193766003
aS'+'
asS'PROS2P'
p1618
(lp1619
I90202316
aI90257415
aS'-'
asS'TMF1'
p1620
(lp1621
I69019827
aI69052303
aS'-'
asS'KRT8P25'
p1622
(lp1623
I87323268
aI87324723
aS'+'
asS'NIP7P2'
p1624
(lp1625
I132401253
aI132401796
aS'+'
asS'LSG1'
p1626
(lp1627
I194640788
aI194672477
aS'-'
asS'QTRT2'
p1628
(lp1629
I114005833
aI114070751
aS'+'
asS'ZNF587P1'
p1630
(lp1631
I31794470
aI31796175
aS'+'
asS'IP6K2'
p1632
(lp1633
I48693456
aI48740353
aS'-'
asS'IP6K1'
p1634
(lp1635
I49724295
aI49786540
aS'-'
asS'ROBO1'
p1636
(lp1637
I78597241
aI79767815
aS'-'
asS'ROBO2'
p1638
(lp1639
I75906695
aI77647510
aS'+'
asS'MST1R'
p1640
(lp1641
I49887007
aI49903873
aS'-'
asS'CCR2'
p1642
(lp1643
I46353744
aI46360921
aS'+'
asS'AC068298.1'
p1644
(lp1645
I180589887
aI180590047
aS'-'
asS'AC108724.2'
p1646
(lp1647
I75624899
aI75625188
aS'+'
asS'AC108724.1'
p1648
(lp1649
I75590298
aI75590649
aS'-'
asS'RNF7'
p1650
(lp1651
I141738204
aI141747560
aS'+'
asS'AC104472.2'
p1652
(lp1653
I155760617
aI155761217
aS'+'
asS'GRIP2'
p1654
(lp1655
I14493206
aI14556075
aS'-'
asS'AL449212.1'
p1656
(lp1657
I129381298
aI129394149
aS'+'
asS'NIT2'
p1658
(lp1659
I100334701
aI100361635
aS'+'
asS'AC137675.1'
p1660
(lp1661
I27525353
aI27525394
aS'+'
asS'CCDC66'
p1662
(lp1663
I56557173
aI56621797
aS'+'
asS'TRAK1'
p1664
(lp1665
I42013802
aI42225889
aS'+'
asS'DCLK3'
p1666
(lp1667
I36712422
aI36764349
aS'-'
asS'NFKBIZ'
p1668
(lp1669
I101827993
aI101861022
aS'+'
asS'NMRAL2P'
p1670
(lp1671
I185959943
aI185980872
aS'+'
asS'OTOL1'
p1672
(lp1673
I161496808
aI161503942
aS'+'
asS'TMEM110'
p1674
(lp1675
I52836756
aI52897596
aS'-'
asS'NGLY1'
p1676
(lp1677
I25719411
aI25790039
aS'-'
asS'TMEM115'
p1678
(lp1679
I50354749
aI50359610
aS'-'
asS'NMD3'
p1680
(lp1681
I161104822
aI161234836
aS'+'
asS'AC104440.1'
p1682
(lp1683
I66622760
aI66623102
aS'-'
asS'MED12L'
p1684
(lp1685
I151086889
aI151437072
aS'+'
asS'SLC35A5'
p1686
(lp1687
I112562010
aI112585577
aS'+'
asS'EEF1A1P24'
p1688
(lp1689
I39358545
aI39359922
aS'+'
asS'EEF1A1P25'
p1690
(lp1691
I138825063
aI138826329
aS'+'
asS'UBXN7'
p1692
(lp1693
I196347662
aI196432474
aS'-'
asS'TOP2B'
p1694
(lp1695
I25597986
aI25664499
aS'-'
asS'TRH'
p1696
(lp1697
I129974305
aI129977938
aS'+'
asS'AC079594.2'
p1698
(lp1699
I160227454
aI160449829
aS'-'
asS'AC092967.1'
p1700
(lp1701
I173644231
aI173644711
aS'+'
asS'AC079594.1'
p1702
(lp1703
I160342685
aI160343015
aS'+'
asS'RPL31P20'
p1704
(lp1705
I24430748
aI24431107
aS'+'
asS'AC069218.1'
p1706
(lp1707
I174377244
aI174378005
aS'+'
asS'AC069218.2'
p1708
(lp1709
I174302944
aI174303287
aS'-'
asS'SLC26A6'
p1710
(lp1711
I48625725
aI48635493
aS'-'
asS'COL6A4P2'
p1712
(lp1713
I130212823
aI130273327
aS'+'
asS'COL6A4P1'
p1714
(lp1715
I15165275
aI15205959
aS'-'
asS'CMSS1'
p1716
(lp1717
I99817834
aI100181732
aS'+'
asS'MINDY4B'
p1718
(lp1719
I150871045
aI150905439
aS'-'
asS'PAK2'
p1720
(lp1721
I196739857
aI196832647
aS'+'
asS'AKR1B1P2'
p1722
(lp1723
I74135959
aI74136892
aS'+'
asS'ACTR8'
p1724
(lp1725
I53867066
aI53882202
aS'-'
asS'AC092042.2'
p1726
(lp1727
I43037121
aI43037451
aS'+'
asS'TMEM42'
p1728
(lp1729
I44861869
aI44865670
aS'+'
asS'DTX3L'
p1730
(lp1731
I122564238
aI122575203
aS'+'
asS'RPL35A'
p1732
(lp1733
I197949987
aI197956610
aS'+'
asS'AC092053.1'
p1734
(lp1735
I39285985
aI39287920
aS'+'
asS'AC092943.1'
p1736
(lp1737
I159721524
aI159722401
aS'-'
asS'AC074033.1'
p1738
(lp1739
I169483671
aI169484080
aS'-'
asS'TP63'
p1740
(lp1741
I189631427
aI189897279
aS'+'
asS'MYRIP'
p1742
(lp1743
I39809605
aI40260321
aS'+'
asS'CDV3P1'
p1744
(lp1745
I96776945
aI96777683
aS'+'
asS'AC017015.1'
p1746
(lp1747
I81612790
aI81613075
aS'+'
asS'DUSP7'
p1748
(lp1749
I52048919
aI52056550
aS'-'
asS'PAQR9'
p1750
(lp1751
I142949164
aI142962557
aS'-'
asS'ATP5G1P3'
p1752
(lp1753
I138889255
aI138889957
aS'-'
asS'ATP5G1P4'
p1754
(lp1755
I172828736
aI172829176
aS'-'
asS'AC137695.1'
p1756
(lp1757
I129334586
aI129335074
aS'+'
asS'AC137695.2'
p1758
(lp1759
I129345411
aI129346164
aS'+'
asS'ABI3BP'
p1760
(lp1761
I100749156
aI100993515
aS'-'
asS'RIOX2'
p1762
(lp1763
I97941818
aI97972457
aS'-'
asS'ALDOAP1'
p1764
(lp1765
I52193170
aI52194785
aS'+'
asS'WWTR1'
p1766
(lp1767
I149517235
aI149703273
aS'-'
asS'AC090960.1'
p1768
(lp1769
I17333126
aI17333431
aS'+'
asS'METTL6'
p1770
(lp1771
I15381275
aI15427518
aS'-'
asS'ACTRT3'
p1772
(lp1773
I169766921
aI169769895
aS'-'
asS'XYLB'
p1774
(lp1775
I38346779
aI38414976
aS'+'
asS'AC022215.1'
p1776
(lp1777
I141258418
aI141258779
aS'+'
asS'KCTD6'
p1778
(lp1779
I58492114
aI58502352
aS'+'
asS'AC090950.1'
p1780
(lp1781
I15732252
aI15733404
aS'+'
asS'ZBED2'
p1782
(lp1783
I111592900
aI111595443
aS'-'
asS'EEF1B2P8'
p1784
(lp1785
I175059361
aI175060031
aS'-'
asS'ACAD11'
p1786
(lp1787
I132558144
aI132660723
aS'-'
asS'RPL36P20'
p1788
(lp1789
I41955445
aI41955763
aS'+'
asS'CPNE9'
p1790
(lp1791
I9703807
aI9729908
aS'+'
asS'PLOD2'
p1792
(lp1793
I146069440
aI146161167
aS'-'
asS'CPNE4'
p1794
(lp1795
I131533565
aI132285410
aS'-'
asS'PXK'
p1796
(lp1797
I58332890
aI58426126
aS'+'
asS'RFTN1'
p1798
(lp1799
I16315856
aI16513706
aS'-'
asS'AC078918.1'
p1800
(lp1801
I109977540
aI109977767
aS'-'
asS'DHX36'
p1802
(lp1803
I154272546
aI154324497
aS'-'
asS'DGKG'
p1804
(lp1805
I186147201
aI186362237
aS'-'
asS'AC134772.2'
p1806
(lp1807
I48446846
aI48467645
aS'+'
asS'NEPRO'
p1808
(lp1809
I113002440
aI113019839
aS'-'
asS'ROPN1'
p1810
(lp1811
I123969015
aI123992137
aS'-'
asS'USP13'
p1812
(lp1813
I179652755
aI179789401
aS'+'
asS'RPS27AP8'
p1814
(lp1815
I172225428
aI172225872
aS'-'
asS'USP19'
p1816
(lp1817
I49108131
aI49120938
aS'-'
asS'RNF168'
p1818
(lp1819
I196468783
aI196503768
aS'-'
asS'RPL23AP41'
p1820
(lp1821
I140902194
aI140902651
aS'+'
asS'RPL23AP40'
p1822
(lp1823
I138796851
aI138797240
aS'+'
asS'RPL23AP43'
p1824
(lp1825
I32785646
aI32786116
aS'+'
asS'ZBTB47'
p1826
(lp1827
I42653684
aI42665854
aS'+'
asS'RPL23AP49'
p1828
(lp1829
I75624275
aI75670156
aS'-'
asS'IQCB1'
p1830
(lp1831
I121769763
aI121835079
aS'-'
asS'ZDHHC19'
p1832
(lp1833
I196197452
aI196211437
aS'-'
asS'AC079944.1'
p1834
(lp1835
I113850237
aI113850731
aS'-'
asS'POGLUT1'
p1836
(lp1837
I119468938
aI119494708
aS'+'
asS'VPS8'
p1838
(lp1839
I184812143
aI185052614
aS'+'
asS'SYNPR'
p1840
(lp1841
I63278123
aI63616921
aS'+'
asS'AC117382.1'
p1842
(lp1843
I136736500
aI136737229
aS'-'
asS'PRR23A'
p1844
(lp1845
I139005468
aI139006268
aS'-'
asS'PRR23C'
p1846
(lp1847
I139042102
aI139044892
aS'-'
asS'PRR23B'
p1848
(lp1849
I139019031
aI139020926
aS'-'
asS'PLCH1'
p1850
(lp1851
I155375580
aI155676416
aS'-'
asS'C3orf18'
p1852
(lp1853
I50558032
aI50570991
aS'-'
asS'C3orf14'
p1854
(lp1855
I62319043
aI62336213
aS'+'
asS'SLC9C1'
p1856
(lp1857
I112140887
aI112294258
aS'-'
asS'SLITRK3'
p1858
(lp1859
I165186722
aI165196852
aS'-'
asS'SOCS5P3'
p1860
(lp1861
I44709311
aI44710886
aS'-'
asS'OR7E121P'
p1862
(lp1863
I75598652
aI75599673
aS'-'
asS'FXR1'
p1864
(lp1865
I180868141
aI180949326
aS'+'
asS'SERP1'
p1866
(lp1867
I150541998
aI150603174
aS'-'
asS'IQCG'
p1868
(lp1869
I197889075
aI197960019
aS'-'
asS'IQCJ'
p1870
(lp1871
I158962928
aI159262677
aS'+'
asS'MUC13'
p1872
(lp1873
I124905442
aI124934751
aS'-'
asS'LMLN'
p1874
(lp1875
I197960200
aI198043720
aS'+'
asS'AC092798.1'
p1876
(lp1877
I25749488
aI25749896
aS'+'
asS'CEP70'
p1878
(lp1879
I138494344
aI138594356
aS'-'
asS'AC008040.4'
p1880
(lp1881
I169945987
aI169946754
aS'-'
asS'EIF5A2'
p1882
(lp1883
I170888415
aI170908693
aS'-'
asS'AC008040.2'
p1884
(lp1885
I170062244
aI170062951
aS'+'
asS'AC008040.3'
p1886
(lp1887
I169931998
aI169933229
aS'+'
asS'FBXW12'
p1888
(lp1889
I48372219
aI48394725
aS'+'
asS'ZNF197'
p1890
(lp1891
I44584888
aI44629390
aS'+'
asS'APOD'
p1892
(lp1893
I195568702
aI195584205
aS'-'
asS'CHCHD6'
p1894
(lp1895
I126704220
aI126960406
aS'+'
asS'CHCHD4'
p1896
(lp1897
I14112077
aI14124870
aS'-'
asS'DDTP1'
p1898
(lp1899
I38515448
aI38515830
aS'-'
asS'AC073522.1'
p1900
(lp1901
I149357169
aI149357545
aS'-'
asS'MST1'
p1902
(lp1903
I49683976
aI49689493
aS'-'
asS'AC026348.1'
p1904
(lp1905
I113360267
aI113361319
aS'+'
asS'VWA5B2'
p1906
(lp1907
I184230429
aI184242329
aS'+'
asS'AC080013.2'
p1908
(lp1909
I158763431
aI158763753
aS'+'
asS'CCDC50'
p1910
(lp1911
I191329077
aI191398670
aS'+'
asS'CCDC51'
p1912
(lp1913
I48432170
aI48440119
aS'-'
asS'IL5RA'
p1914
(lp1915
I3066326
aI3110374
aS'-'
asS'CCDC54'
p1916
(lp1917
I107377194
aI107378637
aS'+'
asS'KIF9'
p1918
(lp1919
I47228395
aI47283451
aS'-'
asS'CCDC58'
p1920
(lp1921
I122359591
aI122383231
aS'-'
asS'RNF10P1'
p1922
(lp1923
I5068676
aI5069044
aS'-'
asS'RPL10P7'
p1924
(lp1925
I119635526
aI119636150
aS'-'
asS'XIRP1'
p1926
(lp1927
I39183210
aI39192596
aS'-'
asS'AC117482.1'
p1928
(lp1929
I84691681
aI84692591
aS'-'
asS'KRT8P13'
p1930
(lp1931
I170495627
aI170496636
aS'+'
asS'KRT8P12'
p1932
(lp1933
I160565447
aI160568199
aS'+'
asS'EMC3'
p1934
(lp1935
I9977029
aI10011116
aS'-'
asS'ATXN7'
p1936
(lp1937
I63864560
aI64003462
aS'+'
asS'KRT8P18'
p1938
(lp1939
I35215705
aI35217149
aS'-'
asS'MTCO2P29'
p1940
(lp1941
I120722458
aI120722646
aS'+'
asS'AC006254.3'
p1942
(lp1943
I52753526
aI52754690
aS'+'
asS'MYH15'
p1944
(lp1945
I108380369
aI108529322
aS'-'
asS'AC006254.1'
p1946
(lp1947
I52813282
aI52835729
aS'-'
asS'AC096887.1'
p1948
(lp1949
I52969119
aI53099453
aS'-'
asS'SRGAP3'
p1950
(lp1951
I8980591
aI9249379
aS'-'
asS'MTCO1P29'
p1952
(lp1953
I120722024
aI120722311
aS'+'
asS'AC083822.1'
p1954
(lp1955
I196423322
aI196423522
aS'+'
asS'CRIP1P1'
p1956
(lp1957
I12673699
aI12673883
aS'+'
asS'SPSB4'
p1958
(lp1959
I141051402
aI141148611
aS'+'
asS'ALG1L'
p1960
(lp1961
I125929275
aI125937039
aS'-'
asS'P2RY14'
p1962
(lp1963
I151212117
aI151278467
aS'-'
asS'NAP1L1P3'
p1964
(lp1965
I120805866
aI120806745
aS'+'
asS'SMC4'
p1966
(lp1967
I160399304
aI160434962
aS'+'
asS'P2RY12'
p1968
(lp1969
I151337380
aI151384812
aS'-'
asS'P2RY13'
p1970
(lp1971
I151326312
aI151329548
aS'-'
asS'ALAS1'
p1972
(lp1973
I52198094
aI52214327
aS'+'
asS'SALL4P6'
p1974
(lp1975
I42321005
aI42322695
aS'+'
asS'SALL4P5'
p1976
(lp1977
I22989823
aI22991582
aS'+'
asS'AC117440.1'
p1978
(lp1979
I137535572
aI137536142
aS'-'
asS'LNP1'
p1980
(lp1981
I100401193
aI100456319
aS'+'
asS'HMGN2P7'
p1982
(lp1983
I15375373
aI15375645
aS'-'
asS'RETNLB'
p1984
(lp1985
I108743424
aI108757015
aS'-'
asS'CPOX'
p1986
(lp1987
I98521132
aI98585498
aS'-'
asS'GPS2P2'
p1988
(lp1989
I186772589
aI186773476
aS'+'
asS'HACD2'
p1990
(lp1991
I123491554
aI123585185
aS'-'
asS'LTF'
p1992
(lp1993
I46436201
aI46485234
aS'-'
asS'PTMAP8'
p1994
(lp1995
I117026698
aI117027039
aS'+'
asS'SI'
p1996
(lp1997
I164978898
aI165078495
aS'-'
asS'CYP8B1'
p1998
(lp1999
I42856005
aI42875898
aS'-'
asS'AC022494.1'
p2000
(lp2001
I150050729
aI150051456
aS'+'
asS'LMOD3'
p2002
(lp2003
I69106872
aI69122566
aS'-'
asS'EFHB'
p2004
(lp2005
I19879476
aI19947009
aS'-'
asS'AC072039.1'
p2006
(lp2007
I136055184
aI136055764
aS'+'
asS'RBM6'
p2008
(lp2009
I49940186
aI50100045
aS'+'
asS'RBM5'
p2010
(lp2011
I50088908
aI50119021
aS'+'
asS'MORC1'
p2012
(lp2013
I108958239
aI109118142
aS'-'
asS'SPCS1'
p2014
(lp2015
I52705636
aI52711146
aS'+'
asS'ARL8B'
p2016
(lp2017
I5122220
aI5180911
aS'+'
asS'PSMD10P2'
p2018
(lp2019
I186760693
aI186762050
aS'+'
asS'AHSG'
p2020
(lp2021
I186612923
aI186621318
aS'+'
asS'WDR82'
p2022
(lp2023
I52260445
aI52288020
aS'-'
asS'GYG1'
p2024
(lp2025
I148991341
aI149027632
aS'+'
asS'RPS29P3'
p2026
(lp2027
I196536532
aI196536702
aS'+'
asS'MRPL42P6'
p2028
(lp2029
I151475804
aI151476174
aS'-'
asS'BTD'
p2030
(lp2031
I15601742
aI15645822
aS'+'
asS'DUSP12P1'
p2032
(lp2033
I100221268
aI100223858
aS'-'
asS'ATP13A3'
p2034
(lp2035
I194402672
aI194498364
aS'-'
asS'SSUH2'
p2036
(lp2037
I8619601
aI8745036
aS'-'
asS'ATP13A4'
p2038
(lp2039
I193402358
aI193555122
aS'-'
asS'IMPDH2'
p2040
(lp2041
I49024325
aI49029390
aS'-'
asS'ESYT3'
p2042
(lp2043
I138434613
aI138478414
aS'+'
asS'RPS26P21'
p2044
(lp2045
I119298665
aI119299012
aS'+'
asS'CXCR6'
p2046
(lp2047
I45940933
aI45948337
aS'+'
asS'LRRIQ4'
p2048
(lp2049
I169821922
aI169837775
aS'+'
asS'ATP6V0CP2'
p2050
(lp2051
I111478737
aI111478943
aS'+'
asS'CLRN1'
p2052
(lp2053
I150926567
aI150972999
aS'-'
asS'NUP210P2'
p2054
(lp2055
I11900011
aI11901245
aS'+'
asS'NUP210P3'
p2056
(lp2057
I129323046
aI129325426
aS'-'
asS'NUP210P1'
p2058
(lp2059
I126662081
aI126671939
aS'+'
asS'ARPC4-TTLL3'
p2060
(lp2061
I9793114
aI9835401
aS'+'
asS'QRICH1'
p2062
(lp2063
I49029707
aI49094363
aS'-'
asS'PDE12'
p2064
(lp2065
I57556277
aI57566844
aS'+'
asS'AC099782.1'
p2066
(lp2067
I45883640
aI45884113
aS'-'
asS'RPL6P8'
p2068
(lp2069
I160584945
aI160585787
aS'+'
asS'ZNF502'
p2070
(lp2071
I44712643
aI44723829
aS'+'
asS'RPL6P7'
p2072
(lp2073
I155657760
aI155658612
aS'+'
asS'MAGEF1'
p2074
(lp2075
I184710367
aI184712002
aS'-'
asS'CLEC3B'
p2076
(lp2077
I45001548
aI45036071
aS'+'
asS'CAMK2N2'
p2078
(lp2079
I184259213
aI184261463
aS'-'
asS'AC114477.1'
p2080
(lp2081
I22811390
aI22812047
aS'-'
asS'AC097359.1'
p2082
(lp2083
I37196204
aI37196666
aS'+'
asS'TUSC2'
p2084
(lp2085
I50320027
aI50328157
aS'-'
asS'RAD18'
p2086
(lp2087
I8775402
aI8902456
aS'-'
asS'TIGIT'
p2088
(lp2089
I114276913
aI114307967
aS'+'
asS'TNNC1'
p2090
(lp2091
I52451102
aI52454070
aS'-'
asS'FBLN2'
p2092
(lp2093
I13549131
aI13638422
aS'+'
asS'FTH1P4'
p2094
(lp2095
I128764466
aI128765018
aS'-'
asS'AC007547.1'
p2096
(lp2097
I181866351
aI181867154
aS'-'
asS'AC024220.1'
p2098
(lp2099
I178493327
aI178493810
aS'-'
asS'ADAMTS9'
p2100
(lp2101
I64515654
aI64688000
aS'-'
asS'ARHGEF3'
p2102
(lp2103
I56727418
aI57079308
aS'-'
asS'AC104451.1'
p2104
(lp2105
I17706058
aI17706233
aS'-'
asS'EEFSEC'
p2106
(lp2107
I128153454
aI128408646
aS'+'
asS'PA2G4P4'
p2108
(lp2109
I156809551
aI156810732
aS'-'
asS'AC063955.1'
p2110
(lp2111
I159386756
aI159387440
aS'-'
asS'AADACP1'
p2112
(lp2113
I151770460
aI151784894
aS'+'
asS'RAB5A'
p2114
(lp2115
I19947079
aI19985175
aS'+'
asS'LIPH'
p2116
(lp2117
I185506262
aI185552613
aS'-'
asS'LAPTM4BP2'
p2118
(lp2119
I72884234
aI72884679
aS'+'
asS'HSPA8P9'
p2120
(lp2121
I137880295
aI137882237
aS'+'
asS'AC108729.1'
p2122
(lp2123
I155431229
aI155433398
aS'-'
asS'DIMT1P1'
p2124
(lp2125
I109701456
aI109702218
aS'-'
asS'OR5H3P'
p2126
(lp2127
I98207423
aI98208341
aS'+'
asS'SLC41A3'
p2128
(lp2129
I126006856
aI126101557
aS'-'
asS'MARK2P8'
p2130
(lp2131
I128748538
aI128749489
aS'-'
asS'MARK2P6'
p2132
(lp2133
I128852112
aI128853008
aS'-'
asS'ADGRG7'
p2134
(lp2135
I100609589
aI100695479
aS'+'
asS'AC092960.1'
p2136
(lp2137
I183462851
aI183463201
aS'-'
asS'AC009319.1'
p2138
(lp2139
I188989382
aI188990135
aS'-'
asS'MRPL47'
p2140
(lp2141
I179588285
aI179604654
aS'-'
asS'TM4SF18'
p2142
(lp2143
I149318498
aI149333761
aS'-'
asS'TM4SF19'
p2144
(lp2145
I196319342
aI196338388
aS'-'
asS'RPL7L1P7'
p2146
(lp2147
I139081654
aI139082377
aS'-'
asS'WNT7A'
p2148
(lp2149
I13816258
aI13880121
aS'-'
asS'SDAD1P3'
p2150
(lp2151
I33771963
aI33772295
aS'+'
asS'AC128716.1'
p2152
(lp2153
I162601627
aI162601792
aS'+'
asS'PROS1'
p2154
(lp2155
I93873033
aI93974066
aS'-'
asS'SEC62'
p2156
(lp2157
I169966765
aI169998373
aS'+'
asS'CNTN3'
p2158
(lp2159
I74262568
aI74521140
aS'-'
asS'CNTN6'
p2160
(lp2161
I1092576
aI1404217
aS'+'
asS'CNTN4'
p2162
(lp2163
I2098926
aI3057953
aS'+'
asS'DHX30'
p2164
(lp2165
I47802928
aI47850193
aS'+'
asS'UNC93B3'
p2166
(lp2167
I75619506
aI75623849
aS'-'
asS'LAMB2'
p2168
(lp2169
I49121114
aI49133118
aS'-'
asS'FLJ22763'
p2170
(lp2171
I109118252
aI109150113
aS'+'
asS'NEK4'
p2172
(lp2173
I52708449
aI52770949
aS'-'
asS'RUVBL1'
p2174
(lp2175
I128064785
aI128153914
aS'-'
asS'AC104435.1'
p2176
(lp2177
I72583370
aI72583535
aS'+'
asS'CSRNP1'
p2178
(lp2179
I39142338
aI39154562
aS'-'
asS'GPR160'
p2180
(lp2181
I170037929
aI170085403
aS'+'
asS'TXNRD3'
p2182
(lp2183
I126607052
aI126655155
aS'-'
asS'AC090955.1'
p2184
(lp2185
I5099627
aI5099861
aS'+'
asS'UBE2E1'
p2186
(lp2187
I23805903
aI23891316
aS'+'
asS'UBE2E2'
p2188
(lp2189
I23203293
aI23591793
aS'+'
asS'METTL15P1'
p2190
(lp2191
I156713884
aI156714928
aS'-'
asS'AC027124.1'
p2192
(lp2193
I13460424
aI13460889
aS'-'
asS'HHATL'
p2194
(lp2195
I42692663
aI42702827
aS'-'
asS'AC090953.1'
p2196
(lp2197
I16275060
aI16276632
aS'-'
asS'AC007690.1'
p2198
(lp2199
I186922286
aI186922753
aS'-'
asS'DNAH1'
p2200
(lp2201
I52316319
aI52400491
aS'+'
asS'SEMA5B'
p2202
(lp2203
I122909194
aI123028605
aS'-'
asS'AC128714.1'
p2204
(lp2205
I184499484
aI184500370
aS'-'
asS'ZNF501'
p2206
(lp2207
I44729596
aI44737083
aS'+'
asS'SCN5A'
p2208
(lp2209
I38548062
aI38649673
aS'-'
asS'PGAM1P4'
p2210
(lp2211
I9348443
aI9349192
aS'+'
asS'AC007547.2'
p2212
(lp2213
I181847526
aI181847885
aS'-'
asS'PGAM1P3'
p2214
(lp2215
I40322715
aI40323279
aS'-'
asS'CNBP'
p2216
(lp2217
I129169484
aI129183922
aS'-'
asS'UQCRC2P1'
p2218
(lp2219
I46310591
aI46311922
aS'-'
asS'GMNC'
p2220
(lp2221
I190855644
aI190892429
aS'-'
asS'PPP2R2DP1'
p2222
(lp2223
I38051759
aI38052395
aS'+'
asS'AC069439.1'
p2224
(lp2225
I166861944
aI166862110
aS'+'
asS'TIMMDC1'
p2226
(lp2227
I119498532
aI119525090
aS'+'
asS'AZI2'
p2228
(lp2229
I28321047
aI28349127
aS'-'
asS'USF3'
p2230
(lp2231
I113648385
aI113696646
aS'-'
asS'VGLL3'
p2232
(lp2233
I86876388
aI86968631
aS'-'
asS'CADM2'
p2234
(lp2235
I84958981
aI86074429
aS'+'
asS'VGLL4'
p2236
(lp2237
I11601910
aI11771350
aS'-'
asS'YWHAQP6'
p2238
(lp2239
I141600276
aI141600579
aS'-'
asS'FGD5'
p2240
(lp2241
I14818962
aI14934565
aS'+'
asS'RANP7'
p2242
(lp2243
I22904135
aI22905151
aS'+'
asS'CCDC191'
p2244
(lp2245
I113964137
aI114056613
aS'-'
asS'GNB4'
p2246
(lp2247
I179396089
aI179451590
aS'-'
asS'NUDT16'
p2248
(lp2249
I131381671
aI131388830
aS'+'
asS'GXYLT2'
p2250
(lp2251
I72888073
aI72976926
aS'+'
asS'MTCO1P35'
p2252
(lp2253
I106900854
aI106901081
aS'-'
asS'TDGF1P6'
p2254
(lp2255
I136155549
aI136155996
aS'+'
asS'HHLA2'
p2256
(lp2257
I108296490
aI108378280
aS'+'
asS'AC115283.1'
p2258
(lp2259
I31269007
aI31269406
aS'+'
asS'FAM107A'
p2260
(lp2261
I58565461
aI58627610
aS'-'
asS'CPN2'
p2262
(lp2263
I194339765
aI194351328
aS'-'
asS'STAB1'
p2264
(lp2265
I52495338
aI52524495
aS'+'
asS'AC046144.1'
p2266
(lp2267
I103538635
aI103540487
aS'-'
asS'AC117485.1'
p2268
(lp2269
I154651656
aI154652423
aS'-'
asS'ECE2'
p2270
(lp2271
I184249695
aI184293031
aS'+'
asS'YBX1P3'
p2272
(lp2273
I114930541
aI114931449
aS'+'
asS'XXYLT1'
p2274
(lp2275
I195068279
aI195271167
aS'-'
asS'AC126121.1'
p2276
(lp2277
I59535863
aI59536415
aS'+'
asS'HCLS1'
p2278
(lp2279
I121631399
aI121660911
aS'-'
asS'AC140076.1'
p2280
(lp2281
I17465150
aI17465510
aS'+'
asS'MRPS36P1'
p2282
(lp2283
I6773037
aI6773343
aS'-'
asS'OR5H6'
p2284
(lp2285
I98264244
aI98265356
aS'+'
asS'OR5H1'
p2286
(lp2287
I98132698
aI98133639
aS'+'
asS'HEG1'
p2288
(lp2289
I124965710
aI125055958
aS'-'
asS'OR5H2'
p2290
(lp2291
I98282888
aI98283832
aS'+'
asS'OR5H8'
p2292
(lp2293
I98311913
aI98312843
aS'+'
asS'DUTP1'
p2294
(lp2295
I125310881
aI125311350
aS'+'
asS'HSPD1P6'
p2296
(lp2297
I36768725
aI36784167
aS'-'
asS'AC104831.1'
p2298
(lp2299
I155290229
aI155293775
aS'-'
asS'AC097358.1'
p2300
(lp2301
I57134142
aI57134723
aS'+'
asS'CHST13'
p2302
(lp2303
I126524283
aI126543291
aS'+'
asS'AC055733.3'
p2304
(lp2305
I130927754
aI130928276
aS'-'
asS'AC055733.1'
p2306
(lp2307
I130918226
aI130919120
aS'-'
asS'NBPF21P'
p2308
(lp2309
I36616006
aI36637457
aS'-'
asS'NKTR'
p2310
(lp2311
I42600614
aI42648741
aS'+'
asS'BCL2L12P1'
p2312
(lp2313
I131526447
aI131527179
aS'+'
asS'SLC6A1'
p2314
(lp2315
I10992724
aI11039247
aS'+'
asS'SLC6A6'
p2316
(lp2317
I14402576
aI14489349
aS'+'
asS'PCCB'
p2318
(lp2319
I136250358
aI136337895
aS'+'
asS'NDUFB5'
p2320
(lp2321
I179604791
aI179627647
aS'+'
asS'NDUFB4'
p2322
(lp2323
I120596309
aI120602500
aS'+'
asS'AC022384.1'
p2324
(lp2325
I10249372
aI10285796
aS'+'
asS'OR5H4P'
p2326
(lp2327
I98222044
aI98222966
aS'+'
asS'NAALADL2'
p2328
(lp2329
I174859280
aI175810552
aS'+'
asS'AC128687.1'
p2330
(lp2331
I113984037
aI113984655
aS'+'
asS'CBX5P1'
p2332
(lp2333
I88095408
aI88095968
aS'-'
asS'DYNLL1P5'
p2334
(lp2335
I154657294
aI154657563
aS'+'
asS'LRRC2'
p2336
(lp2337
I46518349
aI46580099
aS'-'
asS'NR2C2'
p2338
(lp2339
I14947584
aI15043349
aS'+'
asS'PRDX3P4'
p2340
(lp2341
I64174401
aI64175147
aS'+'
asS'AC025033.1'
p2342
(lp2343
I158626656
aI158626849
aS'-'
asS'ADCY5'
p2344
(lp2345
I123282296
aI123449758
aS'-'
asS'HMGN1P7'
p2346
(lp2347
I93988634
aI93988946
aS'-'
asS'PLD1'
p2348
(lp2349
I171600405
aI171810438
aS'-'
asS'MAATS1'
p2350
(lp2351
I119703022
aI119767102
aS'+'
asS'RPL39L'
p2352
(lp2353
I187120948
aI187180908
aS'-'
asS'RSRC1'
p2354
(lp2355
I158105855
aI158544522
aS'+'
asS'RAB43'
p2356
(lp2357
I129087569
aI129122150
aS'-'
asS'AC068781.1'
p2358
(lp2359
I109915976
aI109916940
aS'-'
asS'ZBTB20'
p2360
(lp2361
I114314501
aI115147271
aS'-'
asS'FAM208A'
p2362
(lp2363
I56622859
aI56683237
aS'-'
asS'DOCK3'
p2364
(lp2365
I50675241
aI51384198
aS'+'
asS'MRPS17P3'
p2366
(lp2367
I78525101
aI78525485
aS'+'
asS'ACTBP13'
p2368
(lp2369
I49873347
aI49877980
aS'-'
asS'AC097639.2'
p2370
(lp2371
I32243847
aI32244018
aS'-'
asS'CRB3P1'
p2372
(lp2373
I1394173
aI1394448
aS'-'
asS'AC097637.1'
p2374
(lp2375
I52221081
aI52231190
aS'-'
asS'CLDND1'
p2376
(lp2377
I98497912
aI98522887
aS'-'
asS'SLC9A9'
p2378
(lp2379
I143265222
aI143848531
aS'-'
asS'TFRC'
p2380
(lp2381
I196049284
aI196082189
aS'-'
asS'ACTG1P13'
p2382
(lp2383
I99215224
aI99216266
aS'-'
asS'ACTG1P12'
p2384
(lp2385
I12070195
aI12071360
aS'+'
asS'AC097635.1'
p2386
(lp2387
I20012452
aI20012606
aS'+'
asS'EPHB3'
p2388
(lp2389
I184561784
aI184582409
aS'+'
asS'EPHB1'
p2390
(lp2391
I134795262
aI135260467
aS'+'
asS'PARP9'
p2392
(lp2393
I122527924
aI122564577
aS'-'
asS'SEC13'
p2394
(lp2395
I10300931
aI10321178
aS'-'
asS'PARP3'
p2396
(lp2397
I51942345
aI51948867
aS'+'
asS'FAM240A'
p2398
(lp2399
I46612435
aI46626543
aS'+'
asS'MRPS25'
p2400
(lp2401
I15048518
aI15065335
aS'-'
asS'MRPS22'
p2402
(lp2403
I139005806
aI139357046
aS'+'
asS'GPR171'
p2404
(lp2405
I151197832
aI151203192
aS'-'
asS'PHF7'
p2406
(lp2407
I52410657
aI52423641
aS'+'
asS'CEP19'
p2408
(lp2409
I196706277
aI196712293
aS'-'
asS'AC069431.2'
p2410
(lp2411
I182843521
aI182844619
aS'-'
asS'RBM43P1'
p2412
(lp2413
I69471452
aI69472532
aS'-'
asS'RPL12P44'
p2414
(lp2415
I44937673
aI44938482
aS'+'
asS'ZNF35'
p2416
(lp2417
I44648727
aI44660789
aS'+'
asS'GCNT1P3'
p2418
(lp2419
I190624595
aI190625169
aS'+'
asS'GAPDHP39'
p2420
(lp2421
I138777832
aI138778810
aS'+'
asS'AC008134.1'
p2422
(lp2423
I171534423
aI171534615
aS'+'
asS'GAPDHP36'
p2424
(lp2425
I180212191
aI180213108
aS'+'
asS'CCDC39'
p2426
(lp2427
I180661872
aI180870933
aS'-'
asS'CCDC36'
p2428
(lp2429
I49198428
aI49257723
aS'+'
asS'AC107626.1'
p2430
(lp2431
I68192398
aI68192580
aS'+'
asS'GMFBP1'
p2432
(lp2433
I100665050
aI100665476
aS'-'
asS'APEH'
p2434
(lp2435
I49674002
aI49683963
aS'+'
asS'AC027119.1'
p2436
(lp2437
I6208269
aI6208571
aS'+'
asS'TOMM70'
p2438
(lp2439
I100363431
aI100401398
aS'-'
asS'NT5DC2'
p2440
(lp2441
I52524387
aI52535054
aS'-'
asS'DBR1'
p2442
(lp2443
I138161012
aI138174949
aS'-'
asS'AC091492.1'
p2444
(lp2445
I12328003
aI12328274
aS'+'
asS'PRRT3'
p2446
(lp2447
I9945542
aI9952394
aS'-'
asS'RARRES1'
p2448
(lp2449
I158696892
aI158732696
aS'-'
asS'AC083855.1'
p2450
(lp2451
I11290406
aI11290663
aS'-'
asS'SNRPCP8'
p2452
(lp2453
I130199708
aI130199918
aS'+'
asS'GEMIN2P2'
p2454
(lp2455
I41977008
aI41978034
aS'+'
asS'SNRPCP3'
p2456
(lp2457
I150719997
aI150720836
aS'-'
asS'AC099669.2'
p2458
(lp2459
I44528955
aI44529391
aS'-'
asS'FAM96AP1'
p2460
(lp2461
I28427963
aI28428444
aS'-'
asS'RPL21P135'
p2462
(lp2463
I37748110
aI37748900
aS'+'
asS'AC092905.1'
p2464
(lp2465
I109396616
aI109397870
aS'+'
asS'PSAT1P4'
p2466
(lp2467
I166691187
aI166691712
aS'+'
asS'MESTP4'
p2468
(lp2469
I29087396
aI29088599
aS'+'
asS'THUMPD3'
p2470
(lp2471
I9363052
aI9386791
aS'+'
asS'ECT2'
p2472
(lp2473
I172750682
aI172821474
aS'+'
asS'AC068769.1'
p2474
(lp2475
I183613620
aI183616742
aS'+'
asS'CFAP44'
p2476
(lp2477
I113290120
aI113441514
aS'-'
asS'AC069499.2'
p2478
(lp2479
I108574683
aI108575064
aS'+'
asS'AC069499.1'
p2480
(lp2481
I108543367
aI108543875
aS'-'
asS'COPG1'
p2482
(lp2483
I129249606
aI129277773
aS'+'
asS'PNPT1P1'
p2484
(lp2485
I3981981
aI3984295
aS'-'
asS'AC108740.1'
p2486
(lp2487
I80442081
aI80442305
aS'+'
asS'AC092045.1'
p2488
(lp2489
I52373652
aI52374882
aS'+'
asS'SLCO2A1'
p2490
(lp2491
I133932696
aI134030076
aS'-'
asS'AC034198.1'
p2492
(lp2493
I12850659
aI12850860
aS'+'
asS'GTPBP8'
p2494
(lp2495
I112990991
aI113015060
aS'+'
asS'AC132008.2'
p2496
(lp2497
I197578213
aI197615660
aS'-'
asS'AC132008.1'
p2498
(lp2499
I197580344
aI197580629
aS'-'
asS'ABHD14A-ACY1'
p2500
(lp2501
I51975050
aI51989183
aS'+'
asS'AC108693.1'
p2502
(lp2503
I113740823
aI113741254
aS'-'
asS'DRD3'
p2504
(lp2505
I114128652
aI114199407
aS'-'
asS'AC135507.2'
p2506
(lp2507
I58379217
aI58379525
aS'-'
asS'EPM2AIP1'
p2508
(lp2509
I36985043
aI36993168
aS'-'
asS'AC117457.1'
p2510
(lp2511
I178419123
aI178843300
aS'+'
asS'BCL6'
p2512
(lp2513
I187721377
aI187745727
aS'-'
asS'SEPT14P3'
p2514
(lp2515
I198228194
aI198228376
aS'+'
asS'LRRC77P'
p2516
(lp2517
I167864856
aI167920746
aS'+'
asS'OR7E22P'
p2518
(lp2519
I75356516
aI75357503
aS'-'
asS'LZTFL1'
p2520
(lp2521
I45823320
aI45915724
aS'-'
asS'HNRNPA3P6'
p2522
(lp2523
I75214631
aI75215636
aS'+'
asS'ARGFX'
p2524
(lp2525
I121570704
aI121586634
aS'+'
asS'CCK'
p2526
(lp2527
I42257825
aI42266207
aS'-'
asS'HNRNPA3P8'
p2528
(lp2529
I80216261
aI80217234
aS'+'
asS'A4GNT'
p2530
(lp2531
I138123718
aI138132387
aS'-'
asS'ANAPC13'
p2532
(lp2533
I134478076
aI134486716
aS'-'
asS'FSTL1'
p2534
(lp2535
I120392293
aI120451253
aS'-'
asS'CAPN7'
p2536
(lp2537
I15206243
aI15252918
aS'+'
asS'AC092047.1'
p2538
(lp2539
I42469640
aI42469879
aS'+'
asS'AC128713.1'
p2540
(lp2541
I167956311
aI167956616
aS'-'
asS'NRADDP'
p2542
(lp2543
I47011542
aI47013146
aS'+'
asS'RNF7P1'
p2544
(lp2545
I57519669
aI57520010
aS'-'
asS'ENTPD3'
p2546
(lp2547
I40387156
aI40428619
aS'+'
asS'KLHL6'
p2548
(lp2549
I183487531
aI183555689
aS'-'
asS'GPR27'
p2550
(lp2551
I71754050
aI71756496
aS'+'
asS'KCNMB3'
p2552
(lp2553
I179239806
aI179267002
aS'-'
asS'KCNMB2'
p2554
(lp2555
I178272932
aI178828362
aS'+'
asS'CX3CR1'
p2556
(lp2557
I39263495
aI39281735
aS'-'
asS'HYAL3'
p2558
(lp2559
I50292831
aI50299468
aS'-'
asS'HYAL2'
p2560
(lp2561
I50317796
aI50322906
aS'-'
asS'HYAL1'
p2562
(lp2563
I50299894
aI50312381
aS'-'
asS'GSK3B'
p2564
(lp2565
I119821323
aI120094417
aS'-'
asS'ELP6'
p2566
(lp2567
I47495640
aI47513761
aS'-'
asS'CCDC80'
p2568
(lp2569
I112596794
aI112641269
aS'-'
asS'HESX1'
p2570
(lp2571
I57198789
aI57226521
aS'-'
asS'DPPA2'
p2572
(lp2573
I109293788
aI109316517
aS'-'
asS'DPPA4'
p2574
(lp2575
I109326141
aI109337572
aS'-'
asS'RPL9P15'
p2576
(lp2577
I154676588
aI154677119
aS'-'
asS'NPRL2'
p2578
(lp2579
I50347488
aI50351091
aS'-'
asS'PLXNB1'
p2580
(lp2581
I48403854
aI48430051
aS'-'
asS'CDV3'
p2582
(lp2583
I133573730
aI133590261
aS'+'
asS'KBTBD8'
p2584
(lp2585
I66998307
aI67011210
aS'+'
asS'AC048346.1'
p2586
(lp2587
I140619694
aI140619837
aS'-'
asS'ZBTB38'
p2588
(lp2589
I141324213
aI141442840
aS'+'
asS'PCBP4'
p2590
(lp2591
I51960301
aI51974016
aS'-'
asS'AMT'
p2592
(lp2593
I49416775
aI49422753
aS'-'
asS'SPATA12'
p2594
(lp2595
I57060441
aI57075432
aS'+'
asS'RAB7A'
p2596
(lp2597
I128726122
aI128814796
aS'+'
asS'SPATA16'
p2598
(lp2599
I172889358
aI173141268
aS'-'
asS'ILF2P1'
p2600
(lp2601
I65687301
aI65688468
aS'+'
asS'OR5H5P'
p2602
(lp2603
I98197211
aI98198138
aS'+'
asS'TRIM42'
p2604
(lp2605
I140678039
aI140701150
aS'+'
asS'FGD5P1'
p2606
(lp2607
I13933056
aI13936944
aS'+'
asS'CCDC75P1'
p2608
(lp2609
I73182501
aI73183291
aS'-'
asS'AC020636.2'
p2610
(lp2611
I150882997
aI150941743
aS'-'
asS'POMGNT2'
p2612
(lp2613
I43079234
aI43106076
aS'-'
asS'WNT5A'
p2614
(lp2615
I55465715
aI55489945
aS'-'
asS'ACTG1P23'
p2616
(lp2617
I175977497
aI175978570
aS'-'
asS'AC083904.1'
p2618
(lp2619
I181146233
aI181146463
aS'+'
asS'CLDN11'
p2620
(lp2621
I170418868
aI170860380
aS'+'
asS'CLDN16'
p2622
(lp2623
I190322541
aI190404930
aS'+'
asS'EPHA6'
p2624
(lp2625
I96814586
aI97749241
aS'+'
asS'CLDN18'
p2626
(lp2627
I137998735
aI138033655
aS'+'
asS'EPHA3'
p2628
(lp2629
I89107524
aI89482134
aS'+'
asS'LSMEM2'
p2630
(lp2631
I50279027
aI50288114
aS'+'
asS'GNAI2'
p2632
(lp2633
I50226292
aI50258898
aS'+'
asS'AC092933.1'
p2634
(lp2635
I196527339
aI196528791
aS'-'
asS'HNRNPA1P21'
p2636
(lp2637
I39334979
aI39335939
aS'+'
asS'AC092953.1'
p2638
(lp2639
I182950783
aI182956307
aS'-'
asS'GPR149'
p2640
(lp2641
I154337672
aI154429715
aS'-'
asS'RPS8P6'
p2642
(lp2643
I308714
aI309322
aS'-'
asS'FGF12'
p2644
(lp2645
I192143978
aI192767764
aS'-'
asS'SUCNR1'
p2646
(lp2647
I151873643
aI151884619
aS'+'
asS'AC083906.5'
p2648
(lp2649
I130055724
aI130055920
aS'-'
asS'AC108738.1'
p2650
(lp2651
I161222911
aI161223147
aS'-'
asS'NPM1P17'
p2652
(lp2653
I137723774
aI137724543
aS'+'
asS'AC140059.1'
p2654
(lp2655
I94935760
aI94936120
aS'-'
asS'SEMA3B'
p2656
(lp2657
I50267608
aI50277139
aS'+'
asS'SEMA3G'
p2658
(lp2659
I52433053
aI52445027
aS'-'
asS'SEMA3F'
p2660
(lp2661
I50155091
aI50189074
aS'+'
asS'NIPA2P2'
p2662
(lp2663
I75084155
aI75085237
aS'+'
asS'GAPDHP47'
p2664
(lp2665
I143503275
aI143504273
aS'-'
asS'ARHGEF26'
p2666
(lp2667
I154121003
aI154257827
aS'+'
asS'AC092902.1'
p2668
(lp2669
I125787888
aI125788146
aS'-'
asS'AC112484.3'
p2670
(lp2671
I128869624
aI128870026
aS'+'
asS'LEKR1'
p2672
(lp2673
I156826307
aI157046129
aS'+'
asS'AC112484.1'
p2674
(lp2675
I128909874
aI128971330
aS'-'
asS'ARL6'
p2676
(lp2677
I97764528
aI97801242
aS'+'
asS'VHL'
p2678
(lp2679
I10141008
aI10152220
aS'+'
asS'MRPS18AP1'
p2680
(lp2681
I48256350
aI48256938
aS'-'
asS'FRMD4B'
p2682
(lp2683
I69287751
aI69542583
aS'-'
asS'FEZF2'
p2684
(lp2685
I62369681
aI62374324
aS'-'
asS'PLCXD2'
p2686
(lp2687
I111674676
aI111846447
aS'+'
asS'RPL21P17'
p2688
(lp2689
I1905651
aI1906125
aS'+'
asS'TRMT10C'
p2690
(lp2691
I101561862
aI101566446
aS'+'
asS'TF'
p2692
(lp2693
I133745956
aI133779006
aS'+'
asS'MTAPP2'
p2694
(lp2695
I189969030
aI189969861
aS'-'
asS'MTAPP1'
p2696
(lp2697
I158609610
aI158610857
aS'-'
asS'ZNF80'
p2698
(lp2699
I114234636
aI114237578
aS'-'
asS'ULK4'
p2700
(lp2701
I41246607
aI41962430
aS'-'
asS'AC130472.1'
p2702
(lp2703
I47663626
aI47663934
aS'+'
asS'AC106827.1'
p2704
(lp2705
I66008770
aI66009200
aS'-'
asS'RPSAP31'
p2706
(lp2707
I183884924
aI183887994
aS'+'
asS'MYNN'
p2708
(lp2709
I169772831
aI169789181
aS'+'
asS'RASA2'
p2710
(lp2711
I141487049
aI141615342
aS'+'
asS'RPL5P10'
p2712
(lp2713
I40586535
aI40587428
aS'-'
asS'AC107297.1'
p2714
(lp2715
I99326377
aI99326552
aS'-'
asS'TMEM39A'
p2716
(lp2717
I119429500
aI119463682
aS'-'
asS'PTPRG'
p2718
(lp2719
I61561911
aI62297613
aS'+'
asS'AC112482.1'
p2720
(lp2721
I127221194
aI127221881
aS'-'
asS'ICE2P2'
p2722
(lp2723
I88948142
aI88950928
aS'+'
asS'UBE2FP1'
p2724
(lp2725
I37143512
aI37143958
aS'-'
asS'MRE11P1'
p2726
(lp2727
I156111432
aI156114198
aS'-'
asS'FANCD2P2'
p2728
(lp2729
I11859674
aI11891172
aS'+'
asS'TMEM30CP'
p2730
(lp2731
I100185687
aI100211766
aS'+'
asS'Z84492.1'
p2732
(lp2733
I50350892
aI50367923
aS'+'
asS'AC124944.2'
p2734
(lp2735
I195937243
aI195938739
aS'+'
asS'MTND3P7'
p2736
(lp2737
I166160777
aI166161119
aS'-'
asS'MTND3P6'
p2738
(lp2739
I106896483
aI106896821
aS'-'
asS'PIK3R4'
p2740
(lp2741
I130678935
aI130746829
aS'-'
asS'MANF'
p2742
(lp2743
I51385047
aI51389397
aS'+'
asS'IRAK2'
p2744
(lp2745
I10164865
aI10243743
aS'+'
asS'WWP1P1'
p2746
(lp2747
I98657802
aI98660570
aS'+'
asS'WDR6'
p2748
(lp2749
I49007062
aI49015953
aS'+'
asS'AC099329.3'
p2750
(lp2751
I42757177
aI42804518
aS'-'
asS'AC078809.1'
p2752
(lp2753
I189645327
aI189645466
aS'-'
asS'MRPL57P3'
p2754
(lp2755
I47028855
aI47029030
aS'+'
asS'GATA2'
p2756
(lp2757
I128479427
aI128493185
aS'-'
asS'IFT122'
p2758
(lp2759
I129440036
aI129520507
aS'+'
asS'MYD88'
p2760
(lp2761
I38138478
aI38143022
aS'+'
asS'ASS1P7'
p2762
(lp2763
I177297161
aI177298386
aS'-'
asS'AC027124.2'
p2764
(lp2765
I13460294
aI13460398
aS'-'
asS'AC109583.2'
p2766
(lp2767
I46918807
aI46918935
aS'-'
asS'AC109583.1'
p2768
(lp2769
I46798123
aI46798390
aS'+'
asS'GPR15'
p2770
(lp2771
I98531899
aI98533150
aS'+'
asS'TNFSF10'
p2772
(lp2773
I172505508
aI172523507
aS'-'
asS'ATP6V1A'
p2774
(lp2775
I113747019
aI113812056
aS'+'
asS'AC096992.1'
p2776
(lp2777
I136808551
aI136809623
aS'-'
asS'RPS3AP15'
p2778
(lp2779
I75542149
aI75542929
aS'-'
asS'RAB6B'
p2780
(lp2781
I133824239
aI133895816
aS'-'
asS'MRPS10P2'
p2782
(lp2783
I4414580
aI4414960
aS'-'
asS'CHL1'
p2784
(lp2785
I196596
aI409417
aS'+'
asS'SPTSSB'
p2786
(lp2787
I161344792
aI161372880
aS'-'
asS'AGGF1P3'
p2788
(lp2789
I75653561
aI75654773
aS'-'
asS'SOX14'
p2790
(lp2791
I137764284
aI137766338
aS'+'
asS'CAV3'
p2792
(lp2793
I8733836
aI8841808
aS'+'
asS'AC055748.1'
p2794
(lp2795
I111633672
aI111635089
aS'+'
asS'ARIH2OS'
p2796
(lp2797
I48917788
aI48919385
aS'-'
asS'ARL13B'
p2798
(lp2799
I93980139
aI94055668
aS'+'
asS'AC124916.2'
p2800
(lp2801
I48039267
aI48039490
aS'+'
asS'OR5AC4P'
p2802
(lp2803
I98104754
aI98105672
aS'+'
asS'MTCO2P6'
p2804
(lp2805
I89587886
aI89588570
aS'-'
asS'AC117392.1'
p2806
(lp2807
I156988117
aI156988712
aS'-'
asS'MCCC1'
p2808
(lp2809
I183015218
aI183116075
aS'-'
asS'TNK2'
p2810
(lp2811
I195863364
aI195909084
aS'-'
asS'ZDHHC3'
p2812
(lp2813
I44924846
aI44976182
aS'-'
asS'GFM1'
p2814
(lp2815
I158644278
aI158692575
aS'+'
asS'GPX1'
p2816
(lp2817
I49357176
aI49358600
aS'-'
asS'HES1'
p2818
(lp2819
I194136145
aI194138732
aS'+'
asS'FLNB'
p2820
(lp2821
I58008400
aI58172251
aS'+'
asS'ST13P14'
p2822
(lp2823
I50876712
aI50877657
aS'-'
asS'EIF4A2'
p2824
(lp2825
I186783547
aI186789900
aS'+'
asS'TMEM89'
p2826
(lp2827
I48620759
aI48621855
aS'-'
asS'KLHL24'
p2828
(lp2829
I183635623
aI183684477
aS'+'
asS'POLQ'
p2830
(lp2831
I121431427
aI121546641
aS'-'
asS'CACNA1D'
p2832
(lp2833
I53328963
aI53811406
aS'+'
asS'GABRR3'
p2834
(lp2835
I97986683
aI98035304
aS'-'
asS'SLC4A7'
p2836
(lp2837
I27372721
aI27484420
aS'-'
asS'TRIM59'
p2838
(lp2839
I160439001
aI160485773
aS'-'
asS'AC026117.1'
p2840
(lp2841
I134510531
aI134511413
aS'-'
asS'CHCHD4P4'
p2842
(lp2843
I11234256
aI11234582
aS'-'
asS'HNRNPA1P20'
p2844
(lp2845
I148166344
aI148167298
aS'-'
asS'APOOP2'
p2846
(lp2847
I87594838
aI87595376
aS'+'
asS'HNRNPA1P22'
p2848
(lp2849
I42889361
aI42890306
aS'+'
asS'HNRNPA1P23'
p2850
(lp2851
I122317609
aI122318741
aS'+'
asS'HNRNPA1P24'
p2852
(lp2853
I149999645
aI150000690
aS'+'
asS'AC083800.1'
p2854
(lp2855
I119147375
aI119187807
aS'+'
asS'TPRA1'
p2856
(lp2857
I127576616
aI127598251
aS'-'
asS'RPL29P11'
p2858
(lp2859
I37016523
aI37017014
aS'-'
asS'PLCL2'
p2860
(lp2861
I16802651
aI17011084
aS'+'
asS'NAT6'
p2862
(lp2863
I50296402
aI50299416
aS'-'
asS'TFP1'
p2864
(lp2865
I133661998
aI133754576
aS'+'
asS'RPS20P14'
p2866
(lp2867
I186900198
aI186900557
aS'+'
asS'RPS20P15'
p2868
(lp2869
I27462506
aI27462816
aS'+'
asS'GRAMD1C'
p2870
(lp2871
I113828182
aI113945560
aS'+'
asS'TMIE'
p2872
(lp2873
I46701333
aI46710886
aS'+'
asS'AC023598.1'
p2874
(lp2875
I128798841
aI128799201
aS'-'
asS'CTNNB1'
p2876
(lp2877
I41194910
aI41239353
aS'+'
asS'GPR156'
p2878
(lp2879
I120165481
aI120285094
aS'-'
asS'HTR3D'
p2880
(lp2881
I184031544
aI184039369
aS'+'
asS'HTR3E'
p2882
(lp2883
I184097064
aI184106995
aS'+'
asS'HTR3C'
p2884
(lp2885
I184053047
aI184060671
aS'+'
asS'RFT1'
p2886
(lp2887
I53088483
aI53130462
aS'-'
asS'NBEAL2'
p2888
(lp2889
I46979683
aI47009703
aS'+'
asS'PSMD6'
p2890
(lp2891
I64010550
aI64024010
aS'-'
asS'WDR82P1'
p2892
(lp2893
I94937086
aI94938024
aS'-'
asS'SNRPCP11'
p2894
(lp2895
I125816082
aI125816286
aS'-'
asS'PSMD2'
p2896
(lp2897
I184298709
aI184309054
aS'+'
asS'NPM1P29'
p2898
(lp2899
I149938997
aI149939799
aS'-'
asS'NPM1P28'
p2900
(lp2901
I147590996
aI147591835
aS'-'
asS'RTP4'
p2902
(lp2903
I187368332
aI187372076
aS'+'
asS'RTP2'
p2904
(lp2905
I187698259
aI187702557
aS'-'
asS'RTP3'
p2906
(lp2907
I46497491
aI46500949
aS'+'
asS'RTP1'
p2908
(lp2909
I187197486
aI187201465
aS'+'
asS'MITF'
p2910
(lp2911
I69739435
aI69968336
aS'+'
asS'NPM1P23'
p2912
(lp2913
I24096512
aI24097360
aS'-'
asS'AC022001.1'
p2914
(lp2915
I11529488
aI11529755
aS'-'
asS'VTI1BP1'
p2916
(lp2917
I100225374
aI100226073
aS'+'
asS'AC022296.2'
p2918
(lp2919
I133546071
aI133546272
aS'-'
asS'TMEM41A'
p2920
(lp2921
I185476496
aI185499035
aS'-'
asS'TM4SF1'
p2922
(lp2923
I149369022
aI149377865
aS'-'
asS'TM4SF4'
p2924
(lp2925
I149473974
aI149503281
aS'+'
asS'LMCD1'
p2926
(lp2927
I8501707
aI8574673
aS'+'
asS'ACAA1'
p2928
(lp2929
I38103129
aI38123083
aS'-'
asS'MTND4P16'
p2930
(lp2931
I106894352
aI106895718
aS'-'
asS'MTND4P17'
p2932
(lp2933
I166160021
aI166160370
aS'-'
asS'RYBP'
p2934
(lp2935
I72371825
aI72446621
aS'-'
asS'GAPDHP50'
p2936
(lp2937
I89047442
aI89048434
aS'-'
asS'ITGB5'
p2938
(lp2939
I124761948
aI124887297
aS'-'
asS'ARIH2'
p2940
(lp2941
I48918821
aI48986382
aS'+'
asS'TTLL3'
p2942
(lp2943
I9819303
aI9855138
aS'+'
asS'RPL24P7'
p2944
(lp2945
I23134372
aI23134824
aS'+'
asS'FRG2FP'
p2946
(lp2947
I198110206
aI198111878
aS'+'
asS'HGD'
p2948
(lp2949
I120628173
aI120682571
aS'-'
asS'AC007919.2'
p2950
(lp2951
I172680714
aI172681224
aS'+'
asS'CIDECP'
p2952
(lp2953
I10014238
aI10026357
aS'-'
asS'AC007919.1'
p2954
(lp2955
I172522228
aI172522444
aS'+'
asS'NCK1'
p2956
(lp2957
I136862208
aI136949126
aS'+'
asS'H3F3AP3'
p2958
(lp2959
I109409678
aI109410084
aS'-'
asS'SRRM1P2'
p2960
(lp2961
I83937045
aI83938236
aS'+'
asS'MBD4'
p2962
(lp2963
I129430952
aI129440179
aS'-'
asS'CMTM8'
p2964
(lp2965
I32238679
aI32370325
aS'+'
asS'RPP14'
p2966
(lp2967
I58306262
aI58324695
aS'+'
asS'CYB561D2'
p2968
(lp2969
I50351197
aI50358460
aS'+'
asS'CMTM6'
p2970
(lp2971
I32481312
aI32503408
aS'-'
asS'CMTM7'
p2972
(lp2973
I32391671
aI32455528
aS'+'
asS'ATP5LP5'
p2974
(lp2975
I152800434
aI152800732
aS'-'
asS'MUC20P1'
p2976
(lp2977
I195614947
aI195620233
aS'+'
asS'AC131233.1'
p2978
(lp2979
I75347833
aI75348787
aS'-'
asS'HPS3'
p2980
(lp2981
I149129584
aI149173732
aS'+'
asS'EBLN2'
p2982
(lp2983
I73061659
aI73063337
aS'+'
asS'ROPN1B'
p2984
(lp2985
I125969144
aI125983454
aS'+'
asS'POPDC2'
p2986
(lp2987
I119642059
aI119665324
aS'-'
asS'CCDC14'
p2988
(lp2989
I123897305
aI123961208
aS'-'
asS'EAF1'
p2990
(lp2991
I15427355
aI15442613
aS'+'
asS'EAF2'
p2992
(lp2993
I121835215
aI121886526
aS'+'
asS'AC108673.1'
p2994
(lp2995
I129045763
aI129046921
aS'+'
asS'P3H2'
p2996
(lp2997
I189956831
aI190122437
aS'-'
asS'CCDC12'
p2998
(lp2999
I46921731
aI46982010
aS'-'
asS'CCDC13'
p3000
(lp3001
I42708269
aI42773253
aS'-'
asS'AC073358.1'
p3002
(lp3003
I143620528
aI143627690
aS'+'
asS'SLC12A8'
p3004
(lp3005
I125083157
aI125212765
aS'-'
asS'NCKIPSD'
p3006
(lp3007
I48673844
aI48685927
aS'-'
asS'IFT57'
p3008
(lp3009
I108160812
aI108222570
aS'-'
asS'EIF4EP3'
p3010
(lp3011
I182460417
aI182461072
aS'-'
asS'POU5F1P6'
p3012
(lp3013
I128674735
aI128677005
aS'-'
asS'ATP1B3'
p3014
(lp3015
I141876616
aI141926514
aS'+'
asS'LPP'
p3016
(lp3017
I188212933
aI188890671
aS'+'
asS'TEX264'
p3018
(lp3019
I51671175
aI51704322
aS'+'
asS'VPS26AP1'
p3020
(lp3021
I113919222
aI113920200
aS'+'
asS'AC026185.1'
p3022
(lp3023
I11488300
aI11488473
aS'-'
asS'AC024558.1'
p3024
(lp3025
I126624792
aI126626061
aS'+'
asS'ALDH1L1'
p3026
(lp3027
I126103569
aI126181186
aS'-'
asS'YEATS2'
p3028
(lp3029
I183697818
aI183812625
aS'+'
asS'CYP51A1P1'
p3030
(lp3031
I82806515
aI82808021
aS'-'
asS'TCTA'
p3032
(lp3033
I49412206
aI49416475
aS'+'
asS'AC108667.1'
p3034
(lp3035
I172830981
aI172831229
aS'-'
asS'AC092944.2'
p3036
(lp3037
I157230320
aI157231208
aS'-'
asS'SNX4'
p3038
(lp3039
I125446644
aI125520197
aS'-'
asS'OR5K4'
p3040
(lp3041
I98353854
aI98354819
aS'+'
asS'ALG3'
p3042
(lp3043
I184242425
aI184249548
aS'-'
asS'CRELD1'
p3044
(lp3045
I9933840
aI9945413
aS'+'
asS'OR5K1'
p3046
(lp3047
I98469480
aI98470576
aS'+'
asS'OR5K2'
p3048
(lp3049
I98497604
aI98498663
aS'+'
asS'OR5K3'
p3050
(lp3051
I98390666
aI98391631
aS'+'
asS'FYTTD1'
p3052
(lp3053
I197737179
aI197777001
aS'+'
asS'STAC'
p3054
(lp3055
I36380344
aI36548007
aS'+'
asS'AC092978.1'
p3056
(lp3057
I141660536
aI141729405
aS'+'
asS'AC022336.1'
p3058
(lp3059
I124733418
aI124733754
aS'-'
asS'TTC14'
p3060
(lp3061
I180602211
aI180617828
aS'+'
asS'RPS24P8'
p3062
(lp3063
I45159774
aI45160175
aS'-'
asS'SERBP1P3'
p3064
(lp3065
I53064283
aI53065091
aS'-'
asS'AC105265.1'
p3066
(lp3067
I72085109
aI72085287
aS'+'
asS'AC105265.2'
p3068
(lp3069
I72086888
aI72087725
aS'+'
asS'CLDN1'
p3070
(lp3071
I190305701
aI190322475
aS'-'
asS'RAD54L2'
p3072
(lp3073
I51541580
aI51668667
aS'+'
asS'FAUP2'
p3074
(lp3075
I181242345
aI181242901
aS'-'
asS'CNOT10'
p3076
(lp3077
I32685145
aI32773875
aS'+'
asS'MRAS'
p3078
(lp3079
I138347648
aI138405534
aS'+'
asS'AC121251.1'
p3080
(lp3081
I23389661
aI23389909
aS'-'
asS'HSPBAP1'
p3082
(lp3083
I122740003
aI122793824
aS'-'
asS'CD96'
p3084
(lp3085
I111292719
aI111542302
aS'+'
asS'FOXL2NB'
p3086
(lp3087
I138947234
aI138953451
aS'+'
asS'FILIP1L'
p3088
(lp3089
I99833144
aI100114513
aS'-'
asS'RFC4'
p3090
(lp3091
I186789895
aI186806695
aS'-'
asS'TPT1P3'
p3092
(lp3093
I141709016
aI141709832
aS'-'
asS'KIF15'
p3094
(lp3095
I44761717
aI44853261
aS'+'
asS'FANCD2'
p3096
(lp3097
I10026429
aI10101930
aS'+'
asS'ITIH1'
p3098
(lp3099
I52777592
aI52792062
aS'+'
asS'ITIH3'
p3100
(lp3101
I52794768
aI52809009
aS'+'
asS'ITIH4'
p3102
(lp3103
I52812975
aI52830739
aS'-'
asS'RPL23AP93'
p3104
(lp3105
I194562978
aI194564001
aS'-'
asS'ZBTB11'
p3106
(lp3107
I101648889
aI101677495
aS'-'
asS'BTLA'
p3108
(lp3109
I112463968
aI112499561
aS'-'
asS'RRP9'
p3110
(lp3111
I51933430
aI51941941
aS'-'
asS'AC125604.1'
p3112
(lp3113
I179649494
aI179650200
aS'-'
asS'ACVR2B'
p3114
(lp3115
I38453851
aI38493142
aS'+'
asS'OR5H7P'
p3116
(lp3117
I98238352
aI98239281
aS'+'
asS'KLHL18'
p3118
(lp3119
I47282946
aI47346816
aS'+'
asS'CSTA'
p3120
(lp3121
I122325244
aI122341972
aS'+'
asS'GMPPB'
p3122
(lp3123
I49716844
aI49723951
aS'-'
asS'LAMP3'
p3124
(lp3125
I183122213
aI183162911
aS'-'
asS'VN2R1P'
p3126
(lp3127
I156019646
aI156037647
aS'+'
asS'CMC1'
p3128
(lp3129
I28241595
aI28325142
aS'+'
asS'IGF2BP2'
p3130
(lp3131
I185643739
aI185825056
aS'-'
asS'VPS26BP1'
p3132
(lp3133
I47960327
aI47961081
aS'-'
asS'AC133435.1'
p3134
(lp3135
I142043623
aI142044198
aS'-'
asS'AC104297.1'
p3136
(lp3137
I17871729
aI17872598
aS'-'
asS'PHBP8'
p3138
(lp3139
I119791829
aI119792553
aS'+'
asS'AMIGO3'
p3140
(lp3141
I49716834
aI49719695
aS'-'
asS'MUSTN1'
p3142
(lp3143
I52833123
aI52835219
aS'-'
asS'RBBP4P2'
p3144
(lp3145
I94075912
aI94077175
aS'-'
asS'DUSP5P2'
p3146
(lp3147
I9600748
aI9602728
aS'+'
asS'USP4'
p3148
(lp3149
I49277831
aI49340033
aS'-'
asS'SNRPCP10'
p3150
(lp3151
I75521803
aI75522012
aS'+'
asS'SOX2'
p3152
(lp3153
I181711924
aI181714436
aS'+'
asS'THAP12P2'
p3154
(lp3155
I86012561
aI86015120
aS'+'
asS'SETMAR'
p3156
(lp3157
I4303304
aI4317567
aS'+'
asS'AC112220.1'
p3158
(lp3159
I33727250
aI33727604
aS'-'
asS'DVL3'
p3160
(lp3161
I184155388
aI184173610
aS'+'
asS'VIPR1'
p3162
(lp3163
I42489299
aI42537567
aS'+'
asS'HEMK1'
p3164
(lp3165
I50569152
aI50596168
aS'+'
asS'PBX2P1'
p3166
(lp3167
I143176327
aI143177617
aS'+'
asS'UBQLN4P1'
p3168
(lp3169
I148985868
aI148987668
aS'-'
asS'HMGB1P5'
p3170
(lp3171
I22381945
aI22382929
aS'+'
asS'EEF1A1P8'
p3172
(lp3173
I184026369
aI184027756
aS'-'
asS'MFSD1'
p3174
(lp3175
I158732198
aI158807421
aS'+'
asS'DIRC2'
p3176
(lp3177
I122794795
aI122881139
aS'+'
asS'ABHD14A'
p3178
(lp3179
I51971426
aI51980474
aS'+'
asS'PYDC2'
p3180
(lp3181
I191461163
aI191461456
aS'+'
asS'ABHD14B'
p3182
(lp3183
I51968510
aI51983409
aS'-'
asS'COPS8P2'
p3184
(lp3185
I68145004
aI68145630
aS'+'
asS'CIDEC'
p3186
(lp3187
I9866711
aI9880254
aS'-'
asS'TAMM41'
p3188
(lp3189
I11790442
aI11846919
aS'-'
asS'DCBLD2'
p3190
(lp3191
I98795941
aI98901689
aS'-'
asS'TOPBP1'
p3192
(lp3193
I133600573
aI133661893
aS'-'
asS'MAP6D1'
p3194
(lp3195
I183815876
aI183825578
aS'-'
asS'AC078857.1'
p3196
(lp3197
I121099108
aI121099774
aS'+'
asS'SSR3'
p3198
(lp3199
I156540140
aI156555184
aS'-'
asS'GOLGB1'
p3200
(lp3201
I121663203
aI121749767
aS'-'
asS'TCTEX1D2'
p3202
(lp3203
I196291221
aI196318299
aS'-'
asS'GSTO3P'
p3204
(lp3205
I130827659
aI130828376
aS'+'
asS'TCAIM'
p3206
(lp3207
I44338452
aI44409451
aS'+'
asS'AC069257.3'
p3208
(lp3209
I196248230
aI196318222
aS'-'
asS'PPM1M'
p3210
(lp3211
I52245793
aI52250595
aS'+'
asS'KIAA1257'
p3212
(lp3213
I128909866
aI128994076
aS'-'
asS'GK5'
p3214
(lp3215
I142157527
aI142225607
aS'-'
asS'NISCH'
p3216
(lp3217
I52455118
aI52493068
aS'+'
asS'MYL3'
p3218
(lp3219
I46860979
aI46882169
aS'-'
asS'AC109780.2'
p3220
(lp3221
I186698520
aI186708574
aS'+'
asS'AC109780.1'
p3222
(lp3223
I186687329
aI186692506
aS'+'
asS'ATP2C1'
p3224
(lp3225
I130850595
aI131016684
aS'+'
asS'SLC35G2'
p3226
(lp3227
I136819019
aI136855892
aS'+'
asS'NCEH1'
p3228
(lp3229
I172630249
aI172711218
aS'-'
asS'POC1A'
p3230
(lp3231
I52075286
aI52154690
aS'-'
asS'RPL21P39'
p3232
(lp3233
I145824257
aI145824739
aS'-'
asS'BHLHE40'
p3234
(lp3235
I4979116
aI4985323
aS'+'
asS'NXPE3'
p3236
(lp3237
I101779442
aI101827392
aS'+'
asS'GP9'
p3238
(lp3239
I129060767
aI129062406
aS'+'
asS'MAGI1'
p3240
(lp3241
I65353525
aI66038308
aS'-'
asS'GP5'
p3242
(lp3243
I194394821
aI194398354
aS'-'
asS'TAGLN3'
p3244
(lp3245
I111998739
aI112013887
aS'+'
asS'CFL1P7'
p3246
(lp3247
I25324174
aI25324659
aS'+'
asS'SLC25A20'
p3248
(lp3249
I48856936
aI48898993
aS'-'
asS'SLC25A26'
p3250
(lp3251
I66133610
aI66378927
aS'+'
asS'TAF9BP1'
p3252
(lp3253
I25754925
aI25755670
aS'+'
asS'GMPS'
p3254
(lp3255
I155870536
aI155944026
aS'+'
asS'AC104164.1'
p3256
(lp3257
I60730055
aI60730644
aS'-'
asS'AC104164.2'
p3258
(lp3259
I60690225
aI60690719
aS'-'
asS'AC104164.3'
p3260
(lp3261
I60616822
aI60618079
aS'+'
asS'AC104164.4'
p3262
(lp3263
I60732144
aI60732636
aS'-'
asS'MYLK'
p3264
(lp3265
I123610049
aI123884331
aS'-'
asS'CPB1'
p3266
(lp3267
I148791102
aI148860187
aS'+'
asS'KPNA4'
p3268
(lp3269
I160494995
aI160565588
aS'-'
asS'KPNA1'
p3270
(lp3271
I122421949
aI122514928
aS'-'
asS'HDAC11'
p3272
(lp3273
I13480165
aI13506416
aS'+'
asS'LRTM1'
p3274
(lp3275
I54918333
aI54967088
aS'-'
asS'COPB2'
p3276
(lp3277
I139357406
aI139389732
aS'-'
asS'GORASP1'
p3278
(lp3279
I39096659
aI39108363
aS'-'
asS'GLB1'
p3280
(lp3281
I32996608
aI33097230
aS'-'
asS'HMGN1P10'
p3282
(lp3283
I136609050
aI136609602
aS'+'
asS'AC108751.3'
p3284
(lp3285
I149462182
aI149464830
aS'-'
asS'SUMF1'
p3286
(lp3287
I3781352
aI4467261
aS'-'
asS'AC104640.2'
p3288
(lp3289
I176069107
aI176069252
aS'+'
asS'ZBBX'
p3290
(lp3291
I167240287
aI167380301
aS'-'
asS'AC069528.1'
p3292
(lp3293
I146391363
aI146416603
aS'-'
asS'NFU1P1'
p3294
(lp3295
I39643638
aI39644705
aS'+'
asS'FNDC3B'
p3296
(lp3297
I172040554
aI172401665
aS'+'
asS'B4GALT4'
p3298
(lp3299
I119211742
aI119241103
aS'-'
asS'AC090018.1'
p3300
(lp3301
I195349664
aI195350030
aS'+'
asS'MB21D2'
p3302
(lp3303
I192796815
aI192918161
aS'-'
asS'SDHAP2'
p3304
(lp3305
I195658096
aI195685904
aS'+'
asS'SDHAP1'
p3306
(lp3307
I195959921
aI195990279
aS'-'
asS'IMPG2'
p3308
(lp3309
I101222546
aI101320560
aS'-'
asS'PEX5L'
p3310
(lp3311
I179794958
aI180036930
aS'-'
asS'MPRIPP1'
p3312
(lp3313
I44579938
aI44581026
aS'-'
asS'FRG2C'
p3314
(lp3315
I75664330
aI75667220
aS'+'
asS'TMEM14EP'
p3316
(lp3317
I152339695
aI152340990
aS'-'
asS'GPD1L'
p3318
(lp3319
I32106511
aI32168713
aS'+'
asS'AGTR1'
p3320
(lp3321
I148697784
aI148743003
aS'+'
asS'SYN2'
p3322
(lp3323
I12004402
aI12191400
aS'+'
asS'TFDP2'
p3324
(lp3325
I141944428
aI142149521
aS'-'
asS'AC026355.3'
p3326
(lp3327
I177700346
aI177701072
aS'-'
asS'AF186996.1'
p3328
(lp3329
I125747084
aI125748098
aS'+'
asS'AF186996.2'
p3330
(lp3331
I125724539
aI125725445
aS'+'
asS'AF186996.3'
p3332
(lp3333
I125703349
aI125704312
aS'+'
asS'AF186996.4'
p3334
(lp3335
I125756086
aI125756462
aS'+'
asS'AF186996.5'
p3336
(lp3337
I125734295
aI125735198
aS'+'
asS'AF186996.6'
p3338
(lp3339
I125681305
aI125681453
aS'+'
asS'AF186996.7'
p3340
(lp3341
I125679573
aI125679781
aS'+'
asS'AF186996.8'
p3342
(lp3343
I125712139
aI125713045
aS'+'
asS'CCR1'
p3344
(lp3345
I46201709
aI46208396
aS'-'
asS'TNIK'
p3346
(lp3347
I171061339
aI171460408
aS'-'
asS'CCR3'
p3348
(lp3349
I46163604
aI46266615
aS'+'
asS'CCR4'
p3350
(lp3351
I32951574
aI32956349
aS'+'
asS'CCR5'
p3352
(lp3353
I46370854
aI46376206
aS'+'
asS'CCR8'
p3354
(lp3355
I39329706
aI39333446
aS'+'
asS'CCR9'
p3356
(lp3357
I45886504
aI45903177
aS'+'
asS'RAF1'
p3358
(lp3359
I12583601
aI12664226
aS'-'
asS'GCSAM'
p3360
(lp3361
I112120841
aI112133305
aS'-'
asS'AC096921.1'
p3362
(lp3363
I30626423
aI30626797
aS'-'
asS'CD80'
p3364
(lp3365
I119524293
aI119559602
aS'-'
asS'CD86'
p3366
(lp3367
I122055374
aI122121136
aS'+'
asS'AC048351.1'
p3368
(lp3369
I193579001
aI193593090
aS'-'
asS'OR7E129P'
p3370
(lp3371
I130021553
aI130022520
aS'-'
asS'CTDSPL'
p3372
(lp3373
I37861960
aI37984469
aS'+'
asS'AC078785.3'
p3374
(lp3375
I113041390
aI113041814
aS'-'
asS'AC093414.1'
p3376
(lp3377
I42051181
aI42051694
aS'-'
asS'EFCAB12'
p3378
(lp3379
I129401321
aI129428651
aS'-'
asS'AC012519.1'
p3380
(lp3381
I62779176
aI62779785
aS'-'
asS'GALNT15'
p3382
(lp3383
I16174709
aI16231992
aS'+'
asS'KRT18P35'
p3384
(lp3385
I141470634
aI141471902
aS'-'
asS'KRT18P34'
p3386
(lp3387
I157162663
aI157163932
aS'-'
asS'MTND4LP10'
p3388
(lp3389
I166160414
aI166160704
aS'-'
asS'PLXNA1'
p3390
(lp3391
I126988594
aI127037392
aS'+'
asS'CYCSP11'
p3392
(lp3393
I10057973
aI10058287
aS'-'
asS'CHRD'
p3394
(lp3395
I184380321
aI184390736
aS'+'
asS'PRADC1P1'
p3396
(lp3397
I36976316
aI36976840
aS'+'
asS'PCOLCE2'
p3398
(lp3399
I142817869
aI142889203
aS'-'
asS'TRIM71'
p3400
(lp3401
I32818018
aI32897826
aS'+'
asS'MAP4'
p3402
(lp3403
I47850696
aI48088839
aS'-'
asS'ALG1L2'
p3404
(lp3405
I130093906
aI130113227
aS'+'
asS'UCN2'
p3406
(lp3407
I48561727
aI48563773
aS'-'
asS'SCAP'
p3408
(lp3409
I47413713
aI47476113
aS'-'
asS'TCEA1P2'
p3410
(lp3411
I37275693
aI37276598
aS'+'
asS'PTPN23'
p3412
(lp3413
I47381011
aI47413435
aS'+'
asS'DUX4L26'
p3414
(lp3415
I75668931
aI75670185
aS'+'
asS'CGGBP1'
p3416
(lp3417
I88055426
aI88149885
aS'-'
asS'RPL7L1P8'
p3418
(lp3419
I182610674
aI182611414
aS'+'
asS'FAM86DP'
p3420
(lp3421
I75421552
aI75435048
aS'-'
asS'SERPINI1'
p3422
(lp3423
I167735430
aI167825568
aS'+'
asS'SERPINI2'
p3424
(lp3425
I167441789
aI167479004
aS'-'
asS'TPRG1'
p3426
(lp3427
I188947214
aI189321061
aS'+'
asS'ACY1'
p3428
(lp3429
I51983278
aI51989202
aS'+'
asS'ZNF90P1'
p3430
(lp3431
I101357292
aI101359242
aS'+'
asS'LRCH3'
p3432
(lp3433
I197791235
aI197888436
aS'+'
asS'POU5F1P7'
p3434
(lp3435
I98119191
aI98119731
aS'+'
asS'SUCLG2'
p3436
(lp3437
I67360460
aI67654610
aS'-'
asS'AC080014.1'
p3438
(lp3439
I100910975
aI100912175
aS'-'
asS'RPS27P12'
p3440
(lp3441
I129218093
aI129218350
aS'-'
asS'FAM43A'
p3442
(lp3443
I194686544
aI194689037
aS'+'
asS'HRASLS'
p3444
(lp3445
I193241125
aI193270855
aS'+'
asS'ZNF717'
p3446
(lp3447
I75709643
aI75785519
aS'-'
asS'ZNF860'
p3448
(lp3449
I31981774
aI31991628
aS'+'
asS'ABCC5'
p3450
(lp3451
I183919934
aI184018015
aS'-'
asS'HTR1F'
p3452
(lp3453
I87990696
aI87993835
aS'+'
asS'ASB14'
p3454
(lp3455
I57268347
aI57292682
aS'-'
asS'DNAH12'
p3456
(lp3457
I57293699
aI57544344
aS'-'
asS'UTS2B'
p3458
(lp3459
I191267168
aI191330536
aS'-'
asS'UBFD1P1'
p3460
(lp3461
I98434034
aI98434847
aS'+'
asS'ST13P15'
p3462
(lp3463
I143517123
aI143518229
aS'-'
asS'TATDN2'
p3464
(lp3465
I10248023
aI10281216
aS'+'
asS'RBM15B'
p3466
(lp3467
I51391268
aI51397908
aS'+'
asS'RPL22L1'
p3468
(lp3469
I170864875
aI170870483
aS'-'
asS'GOLGA4'
p3470
(lp3471
I37243177
aI37366751
aS'+'
asS'ZNF660'
p3472
(lp3473
I44578223
aI44594311
aS'+'
asS'ZNF662'
p3474
(lp3475
I42905731
aI42917641
aS'+'
asS'AC104306.2'
p3476
(lp3477
I32592972
aI32593312
aS'-'
asS'FAM19A4'
p3478
(lp3479
I68731766
aI68932610
aS'-'
asS'FAM19A1'
p3480
(lp3481
I68004216
aI68545625
aS'+'
asS'AC069236.1'
p3482
(lp3483
I150611262
aI150611877
aS'-'
asS'CACNA2D2'
p3484
(lp3485
I50362802
aI50504244
aS'-'
asS'CACNA2D3'
p3486
(lp3487
I54122547
aI55074473
aS'+'
asS'ATP2B2'
p3488
(lp3489
I10324023
aI10708031
aS'-'
asS'ZNF445'
p3490
(lp3491
I44431720
aI44477670
aS'-'
asS'AC093142.1'
p3492
(lp3493
I28447725
aI28448073
aS'+'
asS'ANKUB1'
p3494
(lp3495
I149780276
aI149968385
aS'-'
asS'FANCD2OS'
p3496
(lp3497
I10081320
aI10108231
aS'-'
asS'CSPG5'
p3498
(lp3499
I47562239
aI47580792
aS'-'
asS'AC137936.2'
p3500
(lp3501
I58180009
aI58183978
aS'+'
asS'XRN1'
p3502
(lp3503
I142306607
aI142448062
aS'-'
asS'ZKSCAN7'
p3504
(lp3505
I44565559
aI44594173
aS'+'
asS'PRSS46'
p3506
(lp3507
I46719583
aI46736429
aS'-'
asS'PRSS44'
p3508
(lp3509
I46809359
aI46812558
aS'-'
asS'PRSS45'
p3510
(lp3511
I46742092
aI46744755
aS'-'
asS'PRSS42'
p3512
(lp3513
I46829542
aI46833823
aS'-'
asS'TRAIP'
p3514
(lp3515
I49828599
aI49856567
aS'-'
asS'SLC25A36'
p3516
(lp3517
I140941830
aI140979933
aS'+'
asS'BCHE'
p3518
(lp3519
I165772904
aI165837472
aS'-'
asS'DCP1A'
p3520
(lp3521
I53283428
aI53347610
aS'-'
asS'MAPKAPK3'
p3522
(lp3523
I50611908
aI50649289
aS'+'
asS'SLC25A38'
p3524
(lp3525
I39383348
aI39397351
aS'+'
asS'RPS12P5'
p3526
(lp3527
I29390848
aI29391218
aS'+'
asS'CPA3'
p3528
(lp3529
I148865256
aI148897196
aS'+'
asS'IGSF10'
p3530
(lp3531
I151433494
aI151458709
aS'-'
asS'IGSF11'
p3532
(lp3533
I118900557
aI119146068
aS'-'
asS'SLMAP'
p3534
(lp3535
I57756230
aI57929168
aS'+'
asS'SAMD7'
p3536
(lp3537
I169911572
aI169939175
aS'+'
asS'AC063944.2'
p3538
(lp3539
I107327830
aI107329197
aS'-'
asS'PDHB'
p3540
(lp3541
I58427630
aI58433857
aS'-'
asS'STAG1'
p3542
(lp3543
I136336236
aI136752378
aS'-'
asS'ACAP2'
p3544
(lp3545
I195274736
aI195443078
aS'-'
asS'STT3B'
p3546
(lp3547
I31532790
aI31637622
aS'+'
asS'ETV5'
p3548
(lp3549
I186046308
aI186109112
aS'-'
asS'LRRC15'
p3550
(lp3551
I194355247
aI194369743
aS'-'
asS'AC104307.1'
p3552
(lp3553
I41189041
aI41189236
aS'+'
asS'SLC51A'
p3554
(lp3555
I196216504
aI196233430
aS'+'
asS'AC022296.1'
p3556
(lp3557
I133490824
aI133491505
aS'+'
asS'AC107421.1'
p3558
(lp3559
I143855739
aI143856142
aS'-'
asS'ENPP7P2'
p3560
(lp3561
I75446769
aI75491202
aS'-'
asS'EEF1GP3'
p3562
(lp3563
I40596207
aI40597494
aS'-'
asS'SS18L2'
p3564
(lp3565
I42581840
aI42595114
aS'+'
asS'EFCC1'
p3566
(lp3567
I129001629
aI129040742
aS'+'
asS'SMIM4'
p3568
(lp3569
I52536605
aI52579237
aS'+'
asS'AC126120.1'
p3570
(lp3571
I50719482
aI50719951
aS'-'
asS'AP2M1'
p3572
(lp3573
I184174689
aI184184091
aS'+'
asS'SACM1L'
p3574
(lp3575
I45689186
aI45745407
aS'+'
asS'HMGB3P14'
p3576
(lp3577
I134170487
aI134171085
aS'+'
asS'SEC22C'
p3578
(lp3579
I42548004
aI42601080
aS'-'
asS'HMGB3P12'
p3580
(lp3581
I26216322
aI26216877
aS'+'
asS'HMGB3P13'
p3582
(lp3583
I134437605
aI134438211
aS'+'
asS'ARL6IP5'
p3584
(lp3585
I69084944
aI69106066
aS'+'
asS'SEC22A'
p3586
(lp3587
I123201969
aI123271909
aS'+'
asS'HNRNPKP4'
p3588
(lp3589
I96349554
aI96350939
aS'+'
asS'EGFEM1P'
p3590
(lp3591
I168249941
aI168821335
aS'+'
asS'AC048334.1'
p3592
(lp3593
I112696908
aI112697706
aS'-'
asS'GHSR'
p3594
(lp3595
I172445133
aI172448456
aS'-'
asS'RPS3AP53'
p3596
(lp3597
I15141380
aI15142157
aS'+'
asS'CDYLP1'
p3598
(lp3599
I16692745
aI16694202
aS'-'
asS'AC068631.2'
p3600
(lp3601
I186581995
aI186597103
aS'+'
asS'AC068631.3'
p3602
(lp3603
I186596976
aI186597200
aS'+'
asS'AC117490.1'
p3604
(lp3605
I196452996
aI196453055
aS'-'
asS'TADA3'
p3606
(lp3607
I9779860
aI9792747
aS'-'
asS'PTH1R'
p3608
(lp3609
I46877746
aI46903794
aS'+'
asS'IL12A'
p3610
(lp3611
I159988750
aI159996012
aS'+'
asS'SLC33A1'
p3612
(lp3613
I155821024
aI155854378
aS'-'
asS'AC108734.1'
p3614
(lp3615
I180887677
aI180888075
aS'-'
asS'CAND2'
p3616
(lp3617
I12827446
aI12871916
aS'+'
asS'AC108734.3'
p3618
(lp3619
I180772750
aI180773914
aS'-'
asS'AC108734.2'
p3620
(lp3621
I180820544
aI180821612
aS'+'
asS'THPO'
p3622
(lp3623
I184371935
aI184378144
aS'-'
asS'KRBOX1'
p3624
(lp3625
I42809483
aI42942792
aS'+'
asS'BRPF1'
p3626
(lp3627
I9731745
aI9748018
aS'+'
asS'RPS15P5'
p3628
(lp3629
I54626215
aI54626646
aS'+'
asS'PLS1'
p3630
(lp3631
I142596387
aI142713664
aS'+'
asS'COL8A1'
p3632
(lp3633
I99638475
aI99799226
aS'+'
asS'CLASP2'
p3634
(lp3635
I33496245
aI33718356
aS'-'
asS'LINC00888'
p3636
(lp3637
I183447608
aI183456013
aS'+'
asS'PDIA5'
p3638
(lp3639
I123067062
aI123162104
aS'+'
asS'RPL23AP42'
p3640
(lp3641
I161429127
aI161429597
aS'-'
asS'AC134050.1'
p3642
(lp3643
I72772539
aI72773471
aS'+'
asS'ARMC8'
p3644
(lp3645
I138187248
aI138298384
aS'+'
asS'SNTN'
p3646
(lp3647
I63652698
aI63679020
aS'+'
asS'NDUFA5P5'
p3648
(lp3649
I88601061
aI88601402
aS'+'
asS'H1FOO'
p3650
(lp3651
I129543214
aI129551361
aS'+'
asS'TLR9'
p3652
(lp3653
I52221080
aI52226163
aS'-'
asS'APPL1'
p3654
(lp3655
I57227737
aI57273468
aS'+'
asS'SLC7A14'
p3656
(lp3657
I170459584
aI170586074
aS'-'
asS'PABPC1P10'
p3658
(lp3659
I155309427
aI155309807
aS'-'
asS'PDCD6IP'
p3660
(lp3661
I33798352
aI33869702
aS'+'
asS'TTC21A'
p3662
(lp3663
I39107704
aI39138900
aS'+'
asS'ACTL6A'
p3664
(lp3665
I179562880
aI179588408
aS'+'
as.