(dp1
S'AC115621.1'
p2
(lp3
I147916529
aI147917386
aS'-'
asS'MTCYBP43'
p4
(lp5
I30884443
aI30885182
aS'-'
asS'NELFA'
p6
(lp7
I1986115
aI2041903
aS'-'
asS'MTCYBP44'
p8
(lp9
I81733385
aI81734207
aS'-'
asS'AGA'
p10
(lp11
I177430770
aI177442503
aS'-'
asS'TRAM1L1'
p12
(lp13
I117083554
aI117085576
aS'-'
asS'FAM86MP'
p14
(lp15
I9692495
aI9702954
aS'+'
asS'NACAP5'
p16
(lp17
I17552117
aI17552752
aS'-'
asS'FAM90A26'
p18
(lp19
I9170409
aI9176730
aS'+'
asS'PPP2R2C'
p20
(lp21
I6322944
aI6563600
aS'-'
asS'NMU'
p22
(lp23
I55595317
aI55636698
aS'-'
asS'GC'
p24
(lp25
I71741696
aI71804041
aS'-'
asS'AC093768.1'
p26
(lp27
I87891843
aI87894015
aS'+'
asS'HNRNPDL'
p28
(lp29
I82422565
aI82430225
aS'-'
asS'CSN2'
p30
(lp31
I69955256
aI69961007
aS'-'
asS'CSN3'
p32
(lp33
I70242588
aI70251428
aS'+'
asS'CTBP1'
p34
(lp35
I1211448
aI1249137
aS'-'
asS'EVC'
p36
(lp37
I5711197
aI5814305
aS'+'
asS'MGST2'
p38
(lp39
I139665768
aI139740745
aS'+'
asS'MFSD10'
p40
(lp41
I2930565
aI2934859
aS'-'
asS'AC098799.3'
p42
(lp43
I68282461
aI68285959
aS'-'
asS'CYP2U1'
p44
(lp45
I107931369
aI107953457
aS'+'
asS'UFSP2'
p46
(lp47
I185399540
aI185425979
aS'-'
asS'RPL21P50'
p48
(lp49
I123745750
aI123746226
aS'-'
asS'RPS7P15'
p50
(lp51
I4507078
aI4507777
aS'+'
asS'KCNIP4'
p52
(lp53
I20729236
aI21948799
aS'-'
asS'GAR1'
p54
(lp55
I109815510
aI109824740
aS'+'
asS'TNRC18P1'
p56
(lp57
I140641840
aI140645489
aS'-'
asS'PABPC1P7'
p58
(lp59
I102896725
aI102898237
aS'+'
asS'PABPC1P1'
p60
(lp61
I39973444
aI39974338
aS'+'
asS'EXOC5P1'
p62
(lp63
I62816826
aI62818794
aS'+'
asS'TACR3'
p64
(lp65
I103586031
aI103719816
aS'-'
asS'ANAPC4'
p66
(lp67
I25377213
aI25418498
aS'+'
asS'SH3D19'
p68
(lp69
I151120287
aI151325632
aS'-'
asS'TMEM192'
p70
(lp71
I165078420
aI165208549
aS'-'
asS'MINOS1P4'
p72
(lp73
I78379197
aI78379514
aS'+'
asS'LRPAP1'
p74
(lp75
I3506376
aI3532559
aS'-'
asS'SMAD1'
p76
(lp77
I145481792
aI145558079
aS'+'
asS'SHROOM3'
p78
(lp79
I76435100
aI76783253
aS'+'
asS'SETP12'
p80
(lp81
I120895494
aI120897083
aS'-'
asS'TMPRSS11A'
p82
(lp83
I67909385
aI67963426
aS'-'
asS'TMPRSS11B'
p84
(lp85
I68226653
aI68245720
aS'-'
asS'TMPRSS11D'
p86
(lp87
I67820876
aI67884032
aS'-'
asS'TMPRSS11E'
p88
(lp89
I68447449
aI68497604
aS'+'
asS'TMPRSS11F'
p90
(lp91
I68053198
aI68129880
aS'-'
asS'PLRG1'
p92
(lp93
I154535006
aI154550435
aS'-'
asS'AC058822.1'
p94
(lp95
I53377839
aI54295272
aS'+'
asS'TUBB7P'
p96
(lp97
I189982523
aI189984871
aS'-'
asS'OR7E85P'
p98
(lp99
I9483718
aI9484702
aS'+'
asS'ART3'
p100
(lp101
I76011200
aI76112802
aS'+'
asS'AC079768.1'
p102
(lp103
I169832653
aI169833363
aS'+'
asS'AC121161.1'
p104
(lp105
I158469586
aI158470702
aS'+'
asS'ENOPH1'
p106
(lp107
I82430562
aI82461091
aS'+'
asS'TRMT44'
p108
(lp109
I8440823
aI8476526
aS'+'
asS'MTND1P22'
p110
(lp111
I155462873
aI155463823
aS'-'
asS'TMEM154'
p112
(lp113
I152618632
aI152680165
aS'-'
asS'AC104806.1'
p114
(lp115
I67446267
aI67446574
aS'+'
asS'SLED1'
p116
(lp117
I184798296
aI184799046
aS'-'
asS'USP17L30'
p118
(lp119
I9363129
aI9364721
aS'+'
asS'CCDC110'
p120
(lp121
I185445182
aI185471759
aS'-'
asS'SPP1'
p122
(lp123
I87975650
aI87983410
aS'+'
asS'CXXC4'
p124
(lp125
I104468312
aI104494894
aS'-'
asS'HMGB2'
p126
(lp127
I173331695
aI173335125
aS'-'
asS'PYURF'
p128
(lp129
I88520985
aI88523813
aS'-'
asS'CPEB2'
p130
(lp131
I15002674
aI15070153
aS'+'
asS'RPS3AP17'
p132
(lp133
I29962644
aI29963758
aS'-'
asS'CCNHP1'
p134
(lp135
I181905790
aI181906467
aS'-'
asS'FRG1'
p136
(lp137
I189940788
aI189963204
aS'+'
asS'FRG2'
p138
(lp139
I190024351
aI190027254
aS'-'
asS'RTN3P1'
p140
(lp141
I145375543
aI145376253
aS'+'
asS'TRIM60P14'
p142
(lp143
I164915565
aI164916983
aS'+'
asS'SLIT2'
p144
(lp145
I20253564
aI20620559
aS'+'
asS'FIP1L1'
p146
(lp147
I53377645
aI53459668
aS'+'
asS'AC108078.2'
p148
(lp149
I69450014
aI69451613
aS'+'
asS'AC108078.3'
p150
(lp151
I69437357
aI69441050
aS'+'
asS'AC108078.1'
p152
(lp153
I69406931
aI69407655
aS'+'
asS'RPL3P13'
p154
(lp155
I84544304
aI84544519
aS'-'
asS'AC114728.1'
p156
(lp157
I19813749
aI19814231
aS'+'
asS'MND1'
p158
(lp159
I153344649
aI153415118
aS'+'
asS'MUC7'
p160
(lp161
I70430492
aI70482996
aS'+'
asS'GTF2IP12'
p162
(lp163
I119407967
aI119454638
aS'-'
asS'CHCHD2P7'
p164
(lp165
I87785920
aI87786371
aS'-'
asS'PHOX2B'
p166
(lp167
I41744082
aI41748970
aS'-'
asS'CETN4P'
p168
(lp169
I122730548
aI122732193
aS'-'
asS'NIPAL1'
p170
(lp171
I47914142
aI48025194
aS'+'
asS'THAP6'
p172
(lp173
I75514479
aI75550473
aS'+'
asS'CFI'
p174
(lp175
I109740694
aI109802179
aS'-'
asS'GLRA3'
p176
(lp177
I174636914
aI174829314
aS'-'
asS'THAP9'
p178
(lp179
I82900752
aI82919969
aS'+'
asS'MTND4LP31'
p180
(lp181
I64610616
aI64610909
aS'-'
asS'ARL4AP2'
p182
(lp183
I40786110
aI40786710
aS'+'
asS'AC092670.1'
p184
(lp185
I118460224
aI118460301
aS'-'
asS'ASB5'
p186
(lp187
I176213673
aI176269222
aS'-'
asS'AC111000.1'
p188
(lp189
I69181660
aI69182372
aS'+'
asS'AC111000.3'
p190
(lp191
I69131351
aI69134814
aS'+'
asS'AC111000.2'
p192
(lp193
I69066395
aI69069888
aS'+'
asS'AC111000.5'
p194
(lp195
I69125274
aI69126451
aS'+'
asS'AC111000.6'
p196
(lp197
I69144734
aI69147671
aS'+'
asS'BTF3P13'
p198
(lp199
I98740742
aI98741231
aS'+'
asS'AC021146.11'
p200
(lp201
I68877626
aI68880131
aS'-'
asS'RPL7AP26'
p202
(lp203
I82490823
aI82491635
aS'-'
asS'C4orf19'
p204
(lp205
I37453988
aI37623495
aS'+'
asS'LDHAP1'
p206
(lp207
I4894182
aI4895173
aS'-'
asS'C4orf17'
p208
(lp209
I99511004
aI99542303
aS'+'
asS'RPL7AP28'
p210
(lp211
I131857343
aI131857913
aS'-'
asS'AC096571.1'
p212
(lp213
I170581470
aI170604984
aS'-'
asS'AC116562.1'
p214
(lp215
I4076711
aI4077491
aS'-'
asS'AC116562.3'
p216
(lp217
I4086638
aI4086814
aS'+'
asS'AC116562.2'
p218
(lp219
I4117925
aI4118284
aS'-'
asS'MANBA'
p220
(lp221
I102631488
aI102760941
aS'-'
asS'AC096577.2'
p222
(lp223
I104996900
aI104997052
aS'-'
asS'LRRC34P2'
p224
(lp225
I55313011
aI55313924
aS'-'
asS'AC018710.1'
p226
(lp227
I179069437
aI179069594
aS'+'
asS'AC093591.3'
p228
(lp229
I127809170
aI127809477
aS'+'
asS'ABCE1'
p230
(lp231
I145097932
aI145129179
aS'+'
asS'ERVMER34-1'
p232
(lp233
I52722618
aI52751586
aS'-'
asS'HSPE1P23'
p234
(lp235
I74917822
aI74918138
aS'+'
asS'SH3BP2'
p236
(lp237
I2793023
aI2834293
aS'+'
asS'COPS4'
p238
(lp239
I83034447
aI83075789
aS'+'
asS'ZNF595'
p240
(lp241
I53285
aI88211
aS'+'
asS'ATP1B1P1'
p242
(lp243
I42029209
aI42030123
aS'+'
asS'PRKG2'
p244
(lp245
I81087370
aI81215117
aS'-'
asS'IGBP1P4'
p246
(lp247
I82401578
aI82402456
aS'-'
asS'IGBP1P5'
p248
(lp249
I27585145
aI27586144
aS'+'
asS'AFM'
p250
(lp251
I73481683
aI73504001
aS'+'
asS'NPFFR2'
p252
(lp253
I72031804
aI72148067
aS'+'
asS'NUDT6'
p254
(lp255
I122892644
aI122922968
aS'-'
asS'IGFBP7'
p256
(lp257
I57030773
aI57110385
aS'-'
asS'AFP'
p258
(lp259
I73436163
aI73456174
aS'+'
asS'RPL38P3'
p260
(lp261
I54976159
aI54976371
aS'-'
asS'RPL21P47'
p262
(lp263
I62248294
aI62248770
aS'+'
asS'STK32B'
p264
(lp265
I5051442
aI5500998
aS'+'
asS'COX18'
p266
(lp267
I73052362
aI73069741
aS'-'
asS'BTC'
p268
(lp269
I74744759
aI74794686
aS'-'
asS'SHISA3'
p270
(lp271
I42397839
aI42402487
aS'+'
asS'TRIM2'
p272
(lp273
I153153118
aI153336362
aS'+'
asS'LCORL'
p274
(lp275
I17841199
aI18021876
aS'-'
asS'PDGFRA'
p276
(lp277
I54229097
aI54298247
aS'+'
asS'HSP90AA4P'
p278
(lp279
I189472965
aI189475192
aS'+'
asS'ZNF330'
p280
(lp281
I141220887
aI141234697
aS'+'
asS'UGT2A3'
p282
(lp283
I68928463
aI68951791
aS'-'
asS'UGT2A2'
p284
(lp285
I69589309
aI69639642
aS'-'
asS'UGT2A1'
p286
(lp287
I69589194
aI69653249
aS'-'
asS'PPA2'
p288
(lp289
I105369077
aI105474081
aS'-'
asS'AC004057.1'
p290
(lp291
I113214260
aI113217170
aS'-'
asS'AC092612.1'
p292
(lp293
I150422645
aI150423642
aS'-'
asS'AC104619.1'
p294
(lp295
I134952259
aI134952889
aS'-'
asS'RFPL4AP3'
p296
(lp297
I23514940
aI23515284
aS'-'
asS'AC097467.2'
p298
(lp299
I155383107
aI155384102
aS'-'
asS'AC097467.4'
p300
(lp301
I155385352
aI155385492
aS'+'
asS'FBXW7'
p302
(lp303
I152321259
aI152536101
aS'-'
asS'SH3RF1'
p304
(lp305
I169094256
aI169271105
aS'-'
asS'UGDH'
p306
(lp307
I39498755
aI39527618
aS'-'
asS'TET2'
p308
(lp309
I105146293
aI105279816
aS'+'
asS'SETP20'
p310
(lp311
I109553243
aI109554094
aS'-'
asS'TMEM144'
p312
(lp313
I158210249
aI158255411
aS'+'
asS'SOWAHB'
p314
(lp315
I76894928
aI76898147
aS'-'
asS'PPAT'
p316
(lp317
I56393362
aI56435615
aS'-'
asS'AC104596.2'
p318
(lp319
I143045086
aI143045878
aS'+'
asS'MAD2L1'
p320
(lp321
I120055608
aI120067074
aS'-'
asS'AC093763.4'
p322
(lp323
I187441677
aI187444298
aS'-'
asS'CLGN'
p324
(lp325
I140388455
aI140427968
aS'-'
asS'TOMM22P4'
p326
(lp327
I162521682
aI162522041
aS'+'
asS'PITX2'
p328
(lp329
I110617428
aI110642123
aS'-'
asS'LRP2BP'
p330
(lp331
I185367064
aI185395899
aS'-'
asS'AC093765.1'
p332
(lp333
I116858093
aI116858973
aS'+'
asS'ZACNP1'
p334
(lp335
I108415220
aI108416639
aS'+'
asS'PACRGL'
p336
(lp337
I20696282
aI20752907
aS'+'
asS'MMRN1'
p338
(lp339
I89879532
aI89954629
aS'+'
asS'LINC01207'
p340
(lp341
I164754131
aI164803795
aS'+'
asS'RPS14P7'
p342
(lp343
I160818422
aI160818869
aS'+'
asS'RUFY3'
p344
(lp345
I70721995
aI70807315
aS'+'
asS'OSTC'
p346
(lp347
I108650584
aI108667820
aS'+'
asS'CPLX1'
p348
(lp349
I784957
aI826198
aS'-'
asS'PSAPL1'
p350
(lp351
I7430294
aI7434973
aS'-'
asS'NSUN7'
p352
(lp353
I40749897
aI40809985
aS'+'
asS'CEP135'
p354
(lp355
I55948981
aI56033363
aS'+'
asS'AC093870.1'
p356
(lp357
I75194867
aI75195079
aS'+'
asS'AC083829.1'
p358
(lp359
I88527160
aI88528170
aS'+'
asS'TRMT112P1'
p360
(lp361
I116378919
aI116379269
aS'+'
asS'CD38'
p362
(lp363
I15778278
aI15853230
aS'+'
asS'KRT18P63'
p364
(lp365
I17911674
aI17912976
aS'+'
asS'MTND4LP22'
p366
(lp367
I25719755
aI25720030
aS'-'
asS'DCK'
p368
(lp369
I70993439
aI71030914
aS'+'
asS'GLDCP1'
p370
(lp371
I56593004
aI56595681
aS'+'
asS'AC022483.2'
p372
(lp373
I56710060
aI56710614
aS'+'
asS'AC022483.1'
p374
(lp375
I56760919
aI56761485
aS'-'
asS'AC104819.1'
p376
(lp377
I151259503
aI151262849
aS'+'
asS'PRMT9'
p378
(lp379
I147637785
aI147684230
aS'-'
asS'AC110814.1'
p380
(lp381
I4348140
aI4419058
aS'+'
asS'CLCN3'
p382
(lp383
I169620521
aI169723673
aS'+'
asS'RPL22P13'
p384
(lp385
I54221126
aI54221472
aS'+'
asS'SLC25A4'
p386
(lp387
I185143241
aI185150382
aS'+'
asS'AC093755.1'
p388
(lp389
I44840380
aI44841402
aS'-'
asS'ZBTB8OSP1'
p390
(lp391
I150720981
aI150721478
aS'+'
asS'RBM46'
p392
(lp393
I154781213
aI154828813
aS'+'
asS'RBM47'
p394
(lp395
I40423681
aI40629864
aS'-'
asS'PTPN13'
p396
(lp397
I86594315
aI86815171
aS'+'
asS'NPY5R'
p398
(lp399
I163343939
aI163351934
aS'+'
asS'MCUB'
p400
(lp401
I109560205
aI109688726
aS'+'
asS'LYAR'
p402
(lp403
I4267701
aI4290169
aS'-'
asS'AC105384.2'
p404
(lp405
I53927499
aI53928138
aS'-'
asS'SLBP'
p406
(lp407
I1692800
aI1712555
aS'-'
asS'EPGN'
p408
(lp409
I74308473
aI74315307
aS'+'
asS'RPL7AP30'
p410
(lp411
I112788083
aI112788878
aS'-'
asS'C4orf22'
p412
(lp413
I80335720
aI80963756
aS'+'
asS'GAB1'
p414
(lp415
I143336762
aI143474568
aS'+'
asS'AC068620.4'
p416
(lp417
I56410516
aI56431548
aS'+'
asS'AC068620.1'
p418
(lp419
I56356135
aI56356932
aS'+'
asS'KIAA0922'
p420
(lp421
I153466346
aI153636711
aS'+'
asS'AC106868.1'
p422
(lp423
I30006951
aI30008316
aS'-'
asS'HPRT1P1'
p424
(lp425
I15864938
aI15865940
aS'-'
asS'TMPRSS11BNL'
p426
(lp427
I68184081
aI68217913
aS'-'
asS'AC093664.1'
p428
(lp429
I10143367
aI10143655
aS'-'
asS'USP46'
p430
(lp431
I52590972
aI52659335
aS'-'
asS'PPM1K'
p432
(lp433
I88257620
aI88284736
aS'-'
asS'PPARGC1A'
p434
(lp435
I23755041
aI23882111
aS'-'
asS'AC006160.2'
p436
(lp437
I17557892
aI17558045
aS'-'
asS'DNAJB14'
p438
(lp439
I99896248
aI99946726
aS'-'
asS'ANXA10'
p440
(lp441
I168092515
aI168187690
aS'+'
asS'CISD2'
p442
(lp443
I102868978
aI102889242
aS'+'
asS'HSPA4L'
p444
(lp445
I127782140
aI127840733
aS'+'
asS'AC098827.1'
p446
(lp447
I36065060
aI36065726
aS'-'
asS'MRPL1'
p448
(lp449
I77862520
aI77952790
aS'+'
asS'AC118282.2'
p450
(lp451
I49212251
aI49212624
aS'-'
asS'AC108019.1'
p452
(lp453
I140600401
aI140600575
aS'-'
asS'HPF1'
p454
(lp455
I169729465
aI169757953
aS'-'
asS'PPBP'
p456
(lp457
I73987038
aI73988197
aS'-'
asS'PDHA2'
p458
(lp459
I95840019
aI95841474
aS'+'
asS'GALNTL6'
p460
(lp461
I171813503
aI173041559
aS'+'
asS'DDIT4L'
p462
(lp463
I100185870
aI100190468
aS'-'
asS'ECM1P2'
p464
(lp465
I12639086
aI12641009
aS'+'
asS'SFRP2'
p466
(lp467
I153780592
aI153789120
aS'-'
asS'PCNAP1'
p468
(lp469
I99160514
aI99161265
aS'-'
asS'NUP54'
p470
(lp471
I76114664
aI76148515
aS'-'
asS'EREG'
p472
(lp473
I74365143
aI74388751
aS'+'
asS'AC006390.1'
p474
(lp475
I24768049
aI24768331
aS'+'
asS'KIAA1211'
p476
(lp477
I56049847
aI56314663
aS'+'
asS'ELL2P2'
p478
(lp479
I132367786
aI132368479
aS'-'
asS'ZNF876P'
p480
(lp481
I212610
aI255985
aS'+'
asS'TMEM155'
p482
(lp483
I121758933
aI121765185
aS'-'
asS'TMEM156'
p484
(lp485
I38966744
aI39032421
aS'-'
asS'AC093844.1'
p486
(lp487
I183380345
aI183381705
aS'+'
asS'AF146191.1'
p488
(lp489
I189979902
aI189982379
aS'+'
asS'SEL1L3'
p490
(lp491
I25747433
aI25863595
aS'-'
asS'NAP1L5'
p492
(lp493
I88695915
aI88698235
aS'-'
asS'SPINK2'
p494
(lp495
I56809861
aI56821742
aS'-'
asS'AADAT'
p496
(lp497
I170060222
aI170090387
aS'-'
asS'AC107222.1'
p498
(lp499
I184072403
aI184073039
aS'+'
asS'PIGG'
p500
(lp501
I499221
aI539529
aS'+'
asS'MTHFD2P4'
p502
(lp503
I162322188
aI162323907
aS'+'
asS'PIGY'
p504
(lp505
I88521573
aI88521789
aS'-'
asS'TMSB4XP8'
p506
(lp507
I90838903
aI90839037
aS'-'
asS'JCHAIN'
p508
(lp509
I70657269
aI70681817
aS'-'
asS'EXOC7P1'
p510
(lp511
I108417705
aI108419763
aS'-'
asS'ALG1L7P'
p512
(lp513
I3935447
aI3942519
aS'+'
asS'SYT14P1'
p514
(lp515
I68061822
aI68063269
aS'-'
asS'SLC25A14P1'
p516
(lp517
I83477524
aI83478424
aS'+'
asS'MGARP'
p518
(lp519
I139266163
aI139280338
aS'-'
asS'AC096661.1'
p520
(lp521
I96212279
aI96213100
aS'+'
asS'AL645924.2'
p522
(lp523
I2505081
aI2506279
aS'-'
asS'ABT1P1'
p524
(lp525
I99022311
aI99023131
aS'-'
asS'AC006445.2'
p526
(lp527
I13631820
aI13632599
aS'-'
asS'AC006445.1'
p528
(lp529
I13647697
aI13648400
aS'-'
asS'ENPP7P9'
p530
(lp531
I3967034
aI3967660
aS'-'
asS'RPL17P19'
p532
(lp533
I61211652
aI61212203
aS'+'
asS'AC004069.2'
p534
(lp535
I105102891
aI105104004
aS'-'
asS'RBPJ'
p536
(lp537
I26163455
aI26415605
aS'+'
asS'SLC34A2'
p538
(lp539
I25655844
aI25678748
aS'+'
asS'USP17L6P'
p540
(lp541
I9367874
aI9369070
aS'+'
asS'ARHGAP24'
p542
(lp543
I85475114
aI86002670
aS'+'
asS'OR7E43P'
p544
(lp545
I4174319
aI4175238
aS'-'
asS'CXCL1P1'
p546
(lp547
I73944011
aI73944324
aS'-'
asS'RPL7P17'
p548
(lp549
I77082403
aI77083126
aS'-'
asS'AC110760.3'
p550
(lp551
I75101477
aI75101943
aS'+'
asS'MORF4'
p552
(lp553
I173615936
aI173616906
aS'-'
asS'BMP3'
p554
(lp555
I81030965
aI81057531
aS'+'
asS'TMA16'
p556
(lp557
I163494461
aI163520539
aS'+'
asS'MTND6P16'
p558
(lp559
I64608905
aI64609424
aS'+'
asS'ACSL1'
p560
(lp561
I184755600
aI184826818
aS'-'
asS'NKX1-1'
p562
(lp563
I1402932
aI1406331
aS'-'
asS'FAT1'
p564
(lp565
I186587783
aI186723855
aS'-'
asS'OR7E94P'
p566
(lp567
I79587302
aI79588091
aS'-'
asS'FAT4'
p568
(lp569
I125316399
aI125492932
aS'+'
asS'CCNI'
p570
(lp571
I77047158
aI77076005
aS'-'
asS'MTND6P17'
p572
(lp573
I155452526
aI155453044
aS'+'
asS'RPL9'
p574
(lp575
I39454124
aI39458948
aS'-'
asS'AC110768.2'
p576
(lp577
I10410996
aI10411644
aS'+'
asS'AC110768.1'
p578
(lp579
I10478524
aI10478923
aS'-'
asS'RASSF6'
p580
(lp581
I73571550
aI73620548
aS'-'
asS'FAM200B'
p582
(lp583
I15681756
aI15705565
aS'+'
asS'TERF1P3'
p584
(lp585
I136355110
aI136356336
aS'-'
asS'ABHD18'
p586
(lp587
I127965411
aI128039711
aS'+'
asS'KLKB1'
p588
(lp589
I186208979
aI186258469
aS'+'
asS'SRIP1'
p590
(lp591
I58103147
aI58103434
aS'+'
asS'CRMP1'
p592
(lp593
I5748084
aI5888471
aS'-'
asS'MTCYBP16'
p594
(lp595
I64607703
aI64608831
aS'-'
asS'MTCYBP17'
p596
(lp597
I155451617
aI155452405
aS'-'
asS'AC017007.4'
p598
(lp599
I112797050
aI112798691
aS'-'
asS'AC017007.3'
p600
(lp601
I112738672
aI112739106
aS'+'
asS'AC017007.2'
p602
(lp603
I112826307
aI112827607
aS'+'
asS'AC017007.1'
p604
(lp605
I112881718
aI112882132
aS'-'
asS'POLR2B'
p606
(lp607
I56977742
aI57031158
aS'+'
asS'AC114786.4'
p608
(lp609
I69387580
aI69388307
aS'+'
asS'ABCG2'
p610
(lp611
I88090264
aI88231322
aS'-'
asS'CR545473.1'
p612
(lp613
I2607870
aI2608146
aS'-'
asS'USP53'
p614
(lp615
I119212636
aI119294746
aS'+'
asS'FAM47E'
p616
(lp617
I76214040
aI76283780
aS'+'
asS'MTTP'
p618
(lp619
I99564083
aI99623999
aS'+'
asS'GMPSP1'
p620
(lp621
I8174421
aI8174999
aS'+'
asS'SNCA'
p622
(lp623
I89724099
aI89838315
aS'-'
asS'ELOCP33'
p624
(lp625
I39932454
aI39933561
aS'+'
asS'RPSAP34'
p626
(lp627
I108407843
aI108408578
aS'-'
asS'RPSAP35'
p628
(lp629
I117413462
aI117414279
aS'+'
asS'RPSAP36'
p630
(lp631
I143424753
aI143426013
aS'+'
asS'PHBP14'
p632
(lp633
I167648430
aI167648796
aS'+'
asS'UGT8'
p634
(lp635
I114598455
aI114678224
aS'+'
asS'LAP3'
p636
(lp637
I17577192
aI17607968
aS'+'
asS'RPSAP39'
p638
(lp639
I80161129
aI80162011
aS'+'
asS'MAPK10'
p640
(lp641
I86101942
aI86594110
aS'-'
asS'HPGD'
p642
(lp643
I174490177
aI174522898
aS'-'
asS'NAT8L'
p644
(lp645
I2059512
aI2069088
aS'+'
asS'TEC'
p646
(lp647
I48135783
aI48269864
aS'-'
asS'C4orf36'
p648
(lp649
I86886472
aI86934732
aS'-'
asS'UGT2B15'
p650
(lp651
I68646630
aI68670628
aS'-'
asS'UGT2B17'
p652
(lp653
I68537184
aI68568527
aS'-'
asS'C4orf32'
p654
(lp655
I112145397
aI112195256
aS'+'
asS'C4orf33'
p656
(lp657
I129093317
aI129116640
aS'+'
asS'HADHAP1'
p658
(lp659
I165404067
aI165406350
aS'-'
asS'AC113155.1'
p660
(lp661
I152796063
aI152796831
aS'-'
asS'EIF3KP3'
p662
(lp663
I116043407
aI116044045
aS'-'
asS'AC107058.1'
p664
(lp665
I65034634
aI65036017
aS'-'
asS'ZNF518B'
p666
(lp667
I10439874
aI10457360
aS'-'
asS'AC108471.1'
p668
(lp669
I39713842
aI39714451
aS'-'
asS'FHDC1'
p670
(lp671
I152936352
aI152979686
aS'+'
asS'ADH7'
p672
(lp673
I99412261
aI99435737
aS'-'
asS'AC093853.1'
p674
(lp675
I160521829
aI160522311
aS'-'
asS'ADH5'
p676
(lp677
I99070978
aI99088751
aS'-'
asS'ADH4'
p678
(lp679
I99123657
aI99144297
aS'-'
asS'PKD2'
p680
(lp681
I88007668
aI88077777
aS'+'
asS'DAPP1'
p682
(lp683
I99816833
aI99870154
aS'+'
asS'C4orf3'
p684
(lp685
I119296419
aI119304445
aS'-'
asS'USP17L16P'
p686
(lp687
I9239130
aI9240722
aS'+'
asS'TMEM248P1'
p688
(lp689
I125723267
aI125724217
aS'-'
asS'AC104066.1'
p690
(lp691
I52720081
aI52720831
aS'-'
asS'AC093752.1'
p692
(lp693
I119488643
aI119552024
aS'+'
asS'RPL12P20'
p694
(lp695
I41389115
aI41389593
aS'+'
asS'TBCAP3'
p696
(lp697
I98909537
aI98909848
aS'-'
asS'STPG2'
p698
(lp699
I97184093
aI97972354
aS'-'
asS'TRIML2'
p700
(lp701
I188091273
aI188105593
aS'-'
asS'TRIML1'
p702
(lp703
I188139419
aI188147622
aS'+'
asS'AC092639.1'
p704
(lp705
I171169209
aI171169942
aS'-'
asS'AC098590.2'
p706
(lp707
I43388157
aI43388437
aS'+'
asS'AC098590.1'
p708
(lp709
I43410041
aI43410937
aS'-'
asS'PGRMC2'
p710
(lp711
I128269242
aI128288829
aS'-'
asS'KLB'
p712
(lp713
I39406853
aI39451536
aS'+'
asS'AC093663.2'
p714
(lp715
I112171215
aI112171527
aS'+'
asS'AC093663.1'
p716
(lp717
I112116510
aI112116903
aS'-'
asS'TMEM165'
p718
(lp719
I55417129
aI55453397
aS'+'
asS'LARP1BP1'
p720
(lp721
I63350114
aI63351472
aS'+'
asS'BIN2P1'
p722
(lp723
I82275071
aI82276600
aS'+'
asS'ALG1L14P'
p724
(lp725
I9166297
aI9170270
aS'-'
asS'AC017013.1'
p726
(lp727
I33010948
aI33011746
aS'-'
asS'AC104662.2'
p728
(lp729
I25160663
aI25277306
aS'+'
asS'RPL34'
p730
(lp731
I108620656
aI108630412
aS'+'
asS'MTATP6P9'
p732
(lp733
I155457961
aI155458640
aS'-'
asS'PCDH7'
p734
(lp735
I30722354
aI31146805
aS'+'
asS'DSPP'
p736
(lp737
I87608529
aI87616873
aS'+'
asS'OR4D12P'
p738
(lp739
I4126659
aI4127569
aS'-'
asS'FGFRL1'
p740
(lp741
I1009979
aI1026891
aS'+'
asS'MTND2P33'
p742
(lp743
I155461633
aI155462663
aS'-'
asS'MTND2P31'
p744
(lp745
I14505865
aI14506480
aS'-'
asS'MTND1P19'
p746
(lp747
I92702345
aI92702659
aS'+'
asS'CCDC149'
p748
(lp749
I24807996
aI24980148
aS'-'
asS'COMMD8'
p750
(lp751
I47450796
aI47463719
aS'-'
asS'BLOC1S4'
p752
(lp753
I6716055
aI6717671
aS'+'
asS'HNRNPA3P13'
p754
(lp755
I82128535
aI82129656
aS'+'
asS'AC109811.2'
p756
(lp757
I144920713
aI144921164
aS'-'
asS'TKTL2'
p758
(lp759
I163471093
aI163473746
aS'-'
asS'AC079880.1'
p760
(lp761
I67718996
aI67724262
aS'-'
asS'AC079880.2'
p762
(lp763
I67725183
aI67726395
aS'-'
asS'FAM114A1'
p764
(lp765
I38867816
aI38945739
aS'+'
asS'METTL14'
p766
(lp767
I118685368
aI118715433
aS'+'
asS'AC105758.1'
p768
(lp769
I126106139
aI126106923
aS'-'
asS'CAMK2D'
p770
(lp771
I113451032
aI113761927
aS'-'
asS'AC226119.2'
p772
(lp773
I3915187
aI3924274
aS'-'
asS'CXCL11'
p774
(lp775
I76034690
aI76041415
aS'-'
asS'CXCL10'
p776
(lp777
I76021117
aI76023497
aS'-'
asS'CXCL13'
p778
(lp779
I77511753
aI77611834
aS'+'
asS'TMEM184C'
p780
(lp781
I147617386
aI147672044
aS'+'
asS'MTCO1P9'
p782
(lp783
I155459704
aI155461237
aS'-'
asS'MYL5'
p784
(lp785
I673580
aI682027
aS'+'
asS'RPS7P6'
p786
(lp787
I17427696
aI17428274
aS'-'
asS'RPS7P7'
p788
(lp789
I42471810
aI42472380
aS'+'
asS'ARHGAP10'
p790
(lp791
I147732063
aI148072780
aS'+'
asS'ZBTB12BP'
p792
(lp793
I39770081
aI39771371
aS'-'
asS'AC147055.1'
p794
(lp795
I68704600
aI68712498
aS'-'
asS'AC147055.2'
p796
(lp797
I68614419
aI68615013
aS'+'
asS'AC147055.3'
p798
(lp799
I68626847
aI68628899
aS'-'
asS'AC147055.4'
p800
(lp801
I68615393
aI68616137
aS'-'
asS'LRIT3'
p802
(lp803
I109848202
aI109872315
aS'+'
asS'GABRG1'
p804
(lp805
I46035769
aI46124081
aS'-'
asS'CHIC2'
p806
(lp807
I54009789
aI54064690
aS'-'
asS'ALPK1'
p808
(lp809
I112297343
aI112442606
aS'+'
asS'AC096713.1'
p810
(lp811
I71300258
aI71301235
aS'-'
asS'AC093700.1'
p812
(lp813
I159007119
aI159007835
aS'+'
asS'ING2'
p814
(lp815
I183504994
aI183511096
aS'+'
asS'AC093720.1'
p816
(lp817
I68784618
aI68787474
aS'+'
asS'MTCO3P28'
p818
(lp819
I64611374
aI64611888
aS'-'
asS'MTCO3P27'
p820
(lp821
I64606418
aI64606613
aS'+'
asS'AC112249.1'
p822
(lp823
I76509284
aI76509719
aS'-'
asS'DUX4L7'
p824
(lp825
I190071232
aI190072506
aS'+'
asS'DUX4L6'
p826
(lp827
I190074525
aI190075799
aS'+'
asS'DUX4L5'
p828
(lp829
I190077818
aI190079092
aS'+'
asS'RHOH'
p830
(lp831
I40191053
aI40243995
aS'+'
asS'WDFY3'
p832
(lp833
I84669610
aI84966391
aS'-'
asS'DUX4L2'
p834
(lp835
I190091005
aI190092279
aS'+'
asS'U85056.1'
p836
(lp837
I190065233
aI190065914
aS'+'
asS'DCUN1D4'
p838
(lp839
I51843063
aI51916837
aS'+'
asS'AC009567.2'
p840
(lp841
I154770568
aI154770916
aS'+'
asS'DUX4L9'
p842
(lp843
I190021407
aI190022665
aS'-'
asS'ZNF827'
p844
(lp845
I145757627
aI145938635
aS'-'
asS'TPI1P4'
p846
(lp847
I49016682
aI49017154
aS'-'
asS'AC097658.1'
p848
(lp849
I143349275
aI143350117
aS'-'
asS'AC080079.1'
p850
(lp851
I165664350
aI165665671
aS'+'
asS'ANKRD37'
p852
(lp853
I185396811
aI185400628
aS'+'
asS'TLL1'
p854
(lp855
I165873258
aI166103895
aS'+'
asS'ATOH1'
p856
(lp857
I93828753
aI93830964
aS'+'
asS'RNF150'
p858
(lp859
I140865571
aI141212877
aS'-'
asS'GRID2'
p860
(lp861
I92303622
aI93774556
aS'+'
asS'CEP44'
p862
(lp863
I174283904
aI174333380
aS'+'
asS'TBCK'
p864
(lp865
I106041599
aI106321495
aS'-'
asS'RAB33B'
p866
(lp867
I139453807
aI139476609
aS'+'
asS'ZFYVE28'
p868
(lp869
I2269598
aI2418663
aS'-'
asS'DPP3P1'
p870
(lp871
I64430909
aI64433215
aS'+'
asS'C4orf47'
p872
(lp873
I185426301
aI185449668
aS'+'
asS'C4orf46'
p874
(lp875
I158666679
aI158672046
aS'-'
asS'C4orf45'
p876
(lp877
I158893544
aI159038760
aS'-'
asS'MTCO2P9'
p878
(lp879
I155458870
aI155459563
aS'-'
asS'UGT2B28'
p880
(lp881
I69280499
aI69295050
aS'+'
asS'PES1P1'
p882
(lp883
I134327063
aI134328798
aS'+'
asS'C4orf48'
p884
(lp885
I2041993
aI2043970
aS'+'
asS'LARP1B'
p886
(lp887
I128061268
aI128211988
aS'+'
asS'NMNAT1P4'
p888
(lp889
I145456005
aI145456844
aS'+'
asS'HAND2'
p890
(lp891
I173526091
aI173530229
aS'-'
asS'AFAP1'
p892
(lp893
I7758715
aI7939926
aS'-'
asS'PARM1'
p894
(lp895
I74933095
aI75050115
aS'+'
asS'KLF3'
p896
(lp897
I38664196
aI38701042
aS'+'
asS'AASDH'
p898
(lp899
I56338287
aI56387508
aS'-'
asS'N4BP2'
p900
(lp901
I40056826
aI40158252
aS'+'
asS'AC112247.1'
p902
(lp903
I163932526
aI163933182
aS'+'
asS'ARFIP1'
p904
(lp905
I152779937
aI152912357
aS'+'
asS'KRT8P46'
p906
(lp907
I102728746
aI102730171
aS'-'
asS'PRSS12'
p908
(lp909
I118280038
aI118353003
aS'-'
asS'REST'
p910
(lp911
I56907876
aI56966678
aS'+'
asS'FAM86KP'
p912
(lp913
I9153296
aI9165451
aS'+'
asS'CCNA2'
p914
(lp915
I121816444
aI121823932
aS'-'
asS'MTND5P9'
p916
(lp917
I155453049
aI155454803
aS'-'
asS'PPP3CA'
p918
(lp919
I101023409
aI101347477
aS'-'
asS'FRYL'
p920
(lp921
I48497363
aI48780299
aS'-'
asS'AC005798.1'
p922
(lp923
I15743196
aI15743582
aS'+'
asS'GRPEL1'
p924
(lp925
I7058906
aI7068197
aS'-'
asS'AC105917.1'
p926
(lp927
I80386178
aI80388716
aS'-'
asS'RARRES2P4'
p928
(lp929
I190037916
aI190038399
aS'-'
asS'MARCH1'
p930
(lp931
I163524718
aI164384050
aS'-'
asS'TMEM175'
p932
(lp933
I932387
aI958656
aS'+'
asS'AC079140.5'
p934
(lp935
I269866
aI270175
aS'-'
asS'AC079140.4'
p936
(lp937
I336258
aI336786
aS'-'
asS'AC079140.1'
p938
(lp939
I338097
aI338583
aS'-'
asS'AC079140.3'
p940
(lp941
I268982
aI269531
aS'-'
asS'ADRA2C'
p942
(lp943
I3766348
aI3768491
aS'+'
asS'FGFBP2'
p944
(lp945
I15960248
aI15969309
aS'-'
asS'FGFBP1'
p946
(lp947
I15935569
aI15938740
aS'-'
asS'AC114774.1'
p948
(lp949
I43586328
aI43588097
aS'+'
asS'CXCL1'
p950
(lp951
I73869404
aI73871242
aS'+'
asS'JAKMIP1'
p952
(lp953
I6026199
aI6200555
aS'-'
asS'NAAA'
p954
(lp955
I75913657
aI75941051
aS'-'
asS'CCDC158'
p956
(lp957
I76313002
aI76407305
aS'-'
asS'TLR10'
p958
(lp959
I38772239
aI38782990
aS'-'
asS'ST3GAL1P1'
p960
(lp961
I67716375
aI67717388
aS'-'
asS'SLC2A9'
p962
(lp963
I9826224
aI10054875
aS'-'
asS'AC019235.1'
p964
(lp965
I181237358
aI181237564
aS'-'
asS'AC133963.1'
p966
(lp967
I25504997
aI25506675
aS'+'
asS'AC133963.2'
p968
(lp969
I25472517
aI25473815
aS'+'
asS'RBMXP4'
p970
(lp971
I109346326
aI109347459
aS'-'
asS'AC092656.1'
p972
(lp973
I119192773
aI119212512
aS'-'
asS'EXOSC9'
p974
(lp975
I121801323
aI121817021
aS'+'
asS'AC110079.1'
p976
(lp977
I118591773
aI118633729
aS'+'
asS'IBSP'
p978
(lp979
I87799581
aI87812435
aS'+'
asS'SAP30'
p980
(lp981
I173370943
aI173377532
aS'+'
asS'NDUFS5P5'
p982
(lp983
I118400514
aI118400834
aS'-'
asS'NDUFS5P4'
p984
(lp985
I98976800
aI98977117
aS'-'
asS'AC021205.2'
p986
(lp987
I122815771
aI122816117
aS'-'
asS'AC021205.1'
p988
(lp989
I122840343
aI122840690
aS'+'
asS'BNIP3P41'
p990
(lp991
I49096
aI49956
aS'-'
asS'TECRP1'
p992
(lp993
I86949669
aI86950113
aS'-'
asS'TECRP2'
p994
(lp995
I124462863
aI124463790
aS'-'
asS'AC098799.1'
p996
(lp997
I68293127
aI68294364
aS'+'
asS'AC098799.2'
p998
(lp999
I68300325
aI68302459
aS'+'
asS'AC093824.1'
p1000
(lp1001
I185064981
aI185065323
aS'+'
asS'TUBB4BP5'
p1002
(lp1003
I121451541
aI121451967
aS'+'
asS'KRT18P54'
p1004
(lp1005
I135371177
aI135371924
aS'-'
asS'KRT18P51'
p1006
(lp1007
I144572238
aI144572983
aS'+'
asS'F11'
p1008
(lp1009
I186265945
aI186288780
aS'+'
asS'PPP1R14BP3'
p1010
(lp1011
I139114930
aI139115374
aS'-'
asS'KLHL2P1'
p1012
(lp1013
I119334329
aI119378233
aS'+'
asS'FDCSP'
p1014
(lp1015
I70226071
aI70235252
aS'+'
asS'PCDH10'
p1016
(lp1017
I133154893
aI133208606
aS'+'
asS'PCDH18'
p1018
(lp1019
I137518918
aI137532475
aS'-'
asS'AC114811.1'
p1020
(lp1021
I98713804
aI98713971
aS'-'
asS'TIGD2'
p1022
(lp1023
I89111500
aI89114899
aS'+'
asS'TIGD4'
p1024
(lp1025
I152769354
aI152779764
aS'-'
asS'AC093816.1'
p1026
(lp1027
I121369433
aI121370345
aS'-'
asS'GPR78'
p1028
(lp1029
I8578325
aI8619749
aS'+'
asS'AC097510.1'
p1030
(lp1031
I29907659
aI29907791
aS'-'
asS'TRIM75P'
p1032
(lp1033
I165059148
aI165060554
aS'+'
asS'MTCO3P39'
p1034
(lp1035
I49246021
aI49246538
aS'+'
asS'AC097473.1'
p1036
(lp1037
I108773613
aI108774020
aS'+'
asS'AC104619.3'
p1038
(lp1039
I135045464
aI135046850
aS'+'
asS'AC093826.1'
p1040
(lp1041
I129133106
aI129134098
aS'+'
asS'AC093826.2'
p1042
(lp1043
I129041766
aI129041877
aS'+'
asS'TTC29'
p1044
(lp1045
I146706638
aI146945832
aS'-'
asS'AC104619.4'
p1046
(lp1047
I134944275
aI134944523
aS'+'
asS'UGT2B10'
p1048
(lp1049
I68815993
aI68831196
aS'+'
asS'UGT2B11'
p1050
(lp1051
I69199951
aI69214731
aS'-'
asS'COL25A1'
p1052
(lp1053
I108810721
aI109302367
aS'-'
asS'MRPS18C'
p1054
(lp1055
I83456083
aI83467504
aS'+'
asS'SRD5A3'
p1056
(lp1057
I55346109
aI55373096
aS'+'
asS'NPY2R'
p1058
(lp1059
I155208629
aI155217076
aS'+'
asS'ELMOD2'
p1060
(lp1061
I140524158
aI140553770
aS'+'
asS'AC021193.1'
p1062
(lp1063
I179856853
aI179857581
aS'+'
asS'RPL14P3'
p1064
(lp1065
I140366240
aI140366861
aS'-'
asS'AC112698.1'
p1066
(lp1067
I183418890
aI183419805
aS'-'
asS'CNOT6L'
p1068
(lp1069
I77713387
aI77819368
aS'-'
asS'AC104819.2'
p1070
(lp1071
I151279030
aI151279192
aS'-'
asS'NDUFB5P1'
p1072
(lp1073
I180573464
aI180574027
aS'-'
asS'AC021220.1'
p1074
(lp1075
I55219344
aI55219973
aS'+'
asS'ACOX3'
p1076
(lp1077
I8366282
aI8440711
aS'-'
asS'QRFPR'
p1078
(lp1079
I121329314
aI121381059
aS'-'
asS'RAB28'
p1080
(lp1081
I13367724
aI13484365
aS'-'
asS'AC116655.2'
p1082
(lp1083
I9384017
aI9388983
aS'-'
asS'AC116655.3'
p1084
(lp1085
I9422313
aI9429702
aS'+'
asS'TSEN2P1'
p1086
(lp1087
I175494614
aI175496000
aS'+'
asS'AC125336.1'
p1088
(lp1089
I36506043
aI36508869
aS'+'
asS'AC093783.1'
p1090
(lp1091
I128944628
aI128944956
aS'+'
asS'GRSF1'
p1092
(lp1093
I70815782
aI70839945
aS'-'
asS'AC098862.1'
p1094
(lp1095
I20037560
aI20037972
aS'-'
asS'AC092658.1'
p1096
(lp1097
I87166844
aI87167734
aS'+'
asS'SORBS2'
p1098
(lp1099
I185585444
aI185956368
aS'-'
asS'HMGA1P2'
p1100
(lp1101
I73098822
aI73099145
aS'+'
asS'C4orf50'
p1102
(lp1103
I5897373
aI5990064
aS'-'
asS'C4orf51'
p1104
(lp1105
I145680115
aI145732794
aS'+'
asS'AC007016.1'
p1106
(lp1107
I15492729
aI15492972
aS'-'
asS'TECRL'
p1108
(lp1109
I64275257
aI64409468
aS'-'
asS'NFXL1'
p1110
(lp1111
I47847233
aI47914667
aS'-'
asS'LIAS'
p1112
(lp1113
I39462218
aI39485109
aS'+'
asS'AC114786.3'
p1114
(lp1115
I69306469
aI69307173
aS'-'
asS'AC114786.2'
p1116
(lp1117
I69346609
aI69358177
aS'+'
asS'AC114786.1'
p1118
(lp1119
I69242628
aI69250815
aS'+'
asS'ATP10D'
p1120
(lp1121
I47485288
aI47593486
aS'+'
asS'AC093767.1'
p1122
(lp1123
I123861860
aI123862015
aS'-'
asS'INTU'
p1124
(lp1125
I127632932
aI127726737
aS'+'
asS'UCP1'
p1126
(lp1127
I140559434
aI140568805
aS'-'
asS'BDH2'
p1128
(lp1129
I103079435
aI103099883
aS'-'
asS'AC215524.1'
p1130
(lp1131
I190195738
aI190195978
aS'-'
asS'ZSWIM5P3'
p1132
(lp1133
I129135926
aI129139740
aS'-'
asS'USP17L14P'
p1134
(lp1135
I9229641
aI9231233
aS'+'
asS'TMPRSS11CP'
p1136
(lp1137
I67766480
aI67773854
aS'-'
asS'NDUFB4P9'
p1138
(lp1139
I140314163
aI140314550
aS'-'
asS'ADD1'
p1140
(lp1141
I2843857
aI2930073
aS'+'
asS'CDKN2AIP'
p1142
(lp1143
I183444591
aI183448198
aS'+'
asS'AC093913.1'
p1144
(lp1145
I34714270
aI34714598
aS'+'
asS'OCIAD2'
p1146
(lp1147
I48885019
aI48906828
aS'-'
asS'OCIAD1'
p1148
(lp1149
I48805212
aI48850036
aS'+'
asS'CCDC96'
p1150
(lp1151
I7040849
aI7042939
aS'-'
asS'AC079230.1'
p1152
(lp1153
I71434405
aI71437924
aS'-'
asS'AC025538.1'
p1154
(lp1155
I84244003
aI84245488
aS'+'
asS'AC093909.1'
p1156
(lp1157
I188738373
aI188739494
aS'+'
asS'AC093909.3'
p1158
(lp1159
I188630924
aI188631747
aS'+'
asS'AC093909.6'
p1160
(lp1161
I188713644
aI188715442
aS'+'
asS'NKX3-2'
p1162
(lp1163
I13540830
aI13545050
aS'-'
asS'AC253576.1'
p1164
(lp1165
I105959
aI107114
aS'-'
asS'CTSO'
p1166
(lp1167
I155924118
aI155953917
aS'-'
asS'AC074087.1'
p1168
(lp1169
I62489495
aI62490218
aS'-'
asS'MYL12BP2'
p1170
(lp1171
I184299129
aI184299640
aS'-'
asS'FGFR3'
p1172
(lp1173
I1793312
aI1808872
aS'+'
asS'SETD7'
p1174
(lp1175
I139533231
aI139606699
aS'-'
asS'ADH6'
p1176
(lp1177
I99202639
aI99219246
aS'-'
asS'GTF2F2P1'
p1178
(lp1179
I147506091
aI147506765
aS'+'
asS'CXCL3'
p1180
(lp1181
I74036589
aI74038689
aS'-'
asS'CXCL2'
p1182
(lp1183
I74097035
aI74099293
aS'-'
asS'CXCL5'
p1184
(lp1185
I73995642
aI73998779
aS'-'
asS'CXCL6'
p1186
(lp1187
I73837187
aI73849064
aS'+'
asS'CXCL9'
p1188
(lp1189
I76001275
aI76007488
aS'-'
asS'CXCL8'
p1190
(lp1191
I73740506
aI73743716
aS'+'
asS'NDUFB2P1'
p1192
(lp1193
I154724586
aI154724880
aS'+'
asS'FREM3'
p1194
(lp1195
I143577302
aI143700675
aS'-'
asS'RBM48P1'
p1196
(lp1197
I126563509
aI126564776
aS'+'
asS'AC109925.1'
p1198
(lp1199
I94369833
aI94370163
aS'+'
asS'MSANTD1'
p1200
(lp1201
I3249040
aI3271738
aS'+'
asS'HELT'
p1202
(lp1203
I185018841
aI185020804
aS'+'
asS'TACC3'
p1204
(lp1205
I1721490
aI1745176
aS'+'
asS'HELQ'
p1206
(lp1207
I83407343
aI83455856
aS'-'
asS'DUX4'
p1208
(lp1209
I190175193
aI190185942
aS'+'
asS'MTND5P13'
p1210
(lp1211
I64609454
aI64610532
aS'-'
asS'AC092597.1'
p1212
(lp1213
I47706372
aI47706987
aS'+'
asS'RCC2P8'
p1214
(lp1215
I108788745
aI108789779
aS'-'
asS'JADE1'
p1216
(lp1217
I128809623
aI128875224
aS'+'
asS'AC112719.1'
p1218
(lp1219
I76036750
aI76037064
aS'-'
asS'DCTD'
p1220
(lp1221
I182890255
aI182917594
aS'-'
asS'AFF1'
p1222
(lp1223
I86935002
aI87141054
aS'+'
asS'AC058823.1'
p1224
(lp1225
I98409290
aI98409763
aS'+'
asS'AC097173.1'
p1226
(lp1227
I119937557
aI119963898
aS'+'
asS'AC107399.1'
p1228
(lp1229
I117249924
aI117250188
aS'+'
asS'PDCL2'
p1230
(lp1231
I55556525
aI55592212
aS'-'
asS'UNC5C'
p1232
(lp1233
I95162504
aI95549206
aS'-'
asS'UBA6'
p1234
(lp1235
I67612652
aI67701179
aS'-'
asS'GIMD1'
p1236
(lp1237
I106357485
aI106368825
aS'-'
asS'UBE2K'
p1238
(lp1239
I39698044
aI39782792
aS'+'
asS'NAA15'
p1240
(lp1241
I139301455
aI139391382
aS'+'
asS'NAA11'
p1242
(lp1243
I79225694
aI79325523
aS'-'
asS'AC107385.1'
p1244
(lp1245
I154555208
aI154555985
aS'+'
asS'PF4V1'
p1246
(lp1247
I73853189
aI73854155
aS'+'
asS'AC074255.1'
p1248
(lp1249
I170481695
aI170482195
aS'-'
asS'OR7E99P'
p1250
(lp1251
I4156522
aI4157443
aS'-'
asS'FAM192BP'
p1252
(lp1253
I152927446
aI152928207
aS'+'
asS'BMP2K'
p1254
(lp1255
I78776378
aI78912185
aS'+'
asS'AC020699.1'
p1256
(lp1257
I92884663
aI92885107
aS'+'
asS'ADAM29'
p1258
(lp1259
I174829689
aI174931174
aS'+'
asS'MAEA'
p1260
(lp1261
I1289851
aI1340137
aS'+'
asS'MTCO3P42'
p1262
(lp1263
I49548918
aI49549435
aS'-'
asS'AC107393.1'
p1264
(lp1265
I131768233
aI131768578
aS'+'
asS'IL15'
p1266
(lp1267
I141636602
aI141733987
aS'+'
asS'PALLD'
p1268
(lp1269
I168497066
aI168928457
aS'+'
asS'IL2'
p1270
(lp1271
I122451470
aI122456725
aS'-'
asS'AC079238.1'
p1272
(lp1273
I163265575
aI163266583
aS'-'
asS'STX18'
p1274
(lp1275
I4415742
aI4542010
aS'-'
asS'ACTR3BP4'
p1276
(lp1277
I102961956
aI102963327
aS'+'
asS'MTCO3P9'
p1278
(lp1279
I155457180
aI155457960
aS'-'
asS'ZNF969P'
p1280
(lp1281
I110415898
aI110418504
aS'+'
asS'HNRNPA1P55'
p1282
(lp1283
I73938604
aI73939558
aS'-'
asS'HNRNPA1P56'
p1284
(lp1285
I77987860
aI77988813
aS'-'
asS'GPRIN3'
p1286
(lp1287
I89236386
aI89308010
aS'-'
asS'ANKRD17'
p1288
(lp1289
I73073376
aI73258785
aS'-'
asS'AC108043.1'
p1290
(lp1291
I45414337
aI45414910
aS'-'
asS'AC116655.1'
p1292
(lp1293
I9399204
aI9403565
aS'+'
asS'RCHY1'
p1294
(lp1295
I75479037
aI75514685
aS'-'
asS'RNF175'
p1296
(lp1297
I153710125
aI153760235
aS'-'
asS'AC092535.2'
p1298
(lp1299
I1100016
aI1101558
aS'-'
asS'CBR4'
p1300
(lp1301
I168863770
aI169010258
aS'-'
asS'MTRNR2L13'
p1302
(lp1303
I116298876
aI116300320
aS'+'
asS'TMEM33'
p1304
(lp1305
I41935120
aI41960572
aS'+'
asS'OTOP1'
p1306
(lp1307
I4188803
aI4226889
aS'-'
asS'ANXA3'
p1308
(lp1309
I78551519
aI78610421
aS'+'
asS'ANXA5'
p1310
(lp1311
I121667955
aI121697113
aS'-'
asS'HPGDS'
p1312
(lp1313
I94298535
aI94342876
aS'-'
asS'NOL8P1'
p1314
(lp1315
I165547532
aI165551060
aS'-'
asS'FAM53A'
p1316
(lp1317
I1639881
aI1684261
aS'-'
asS'AF213884.2'
p1318
(lp1319
I102461250
aI102462152
aS'+'
asS'AF213884.1'
p1320
(lp1321
I102662611
aI102663073
aS'+'
asS'COQ2'
p1322
(lp1323
I83261536
aI83284795
aS'-'
asS'FAM198B'
p1324
(lp1325
I158124474
aI158173050
aS'-'
asS'PI4K2B'
p1326
(lp1327
I25233975
aI25279092
aS'+'
asS'DHX15'
p1328
(lp1329
I24527475
aI24584550
aS'-'
asS'ZNF141'
p1330
(lp1331
I337834
aI384864
aS'+'
asS'ABCA11P'
p1332
(lp1333
I425435
aI474129
aS'-'
asS'AC096754.1'
p1334
(lp1335
I65216616
aI65217433
aS'+'
asS'RXFP1'
p1336
(lp1337
I158315311
aI158652212
aS'+'
asS'FTH1P21'
p1338
(lp1339
I156006478
aI156006988
aS'+'
asS'FTH1P24'
p1340
(lp1341
I139546266
aI139546727
aS'+'
asS'INPP4B'
p1342
(lp1343
I142023160
aI142846290
aS'-'
asS'MFAP3L'
p1344
(lp1345
I169986598
aI170026408
aS'-'
asS'SOD3'
p1346
(lp1347
I24789912
aI24799683
aS'+'
asS'GRXCR1'
p1348
(lp1349
I42893267
aI43030658
aS'+'
asS'MSX1'
p1350
(lp1351
I4859666
aI4863936
aS'+'
asS'SMIM20'
p1352
(lp1353
I25861830
aI25929545
aS'+'
asS'FAM218A'
p1354
(lp1355
I164956948
aI164959122
aS'+'
asS'FBXL5'
p1356
(lp1357
I15604539
aI15655412
aS'-'
asS'AC008638.2'
p1358
(lp1359
I77311397
aI77312111
aS'-'
asS'H2AFZ'
p1360
(lp1361
I99948088
aI99950388
aS'-'
asS'TLR2'
p1362
(lp1363
I153701500
aI153705699
aS'+'
asS'TLR3'
p1364
(lp1365
I186069152
aI186088069
aS'+'
asS'TLR1'
p1366
(lp1367
I38798686
aI38856817
aS'-'
asS'TLR6'
p1368
(lp1369
I38823715
aI38856817
aS'-'
asS'RNF4'
p1370
(lp1371
I2512477
aI2625320
aS'+'
asS'DCLK2'
p1372
(lp1373
I150078274
aI150257457
aS'+'
asS'AC097462.1'
p1374
(lp1375
I127493505
aI127493828
aS'+'
asS'AC097462.2'
p1376
(lp1377
I127498327
aI127498807
aS'+'
asS'COX6B1P5'
p1378
(lp1379
I2234251
aI2234499
aS'+'
asS'AC105918.1'
p1380
(lp1381
I104886118
aI104886955
aS'-'
asS'AC108161.1'
p1382
(lp1383
I61775449
aI61775850
aS'-'
asS'LRRC66'
p1384
(lp1385
I51993702
aI52017620
aS'-'
asS'AC097460.2'
p1386
(lp1387
I99990737
aI99991477
aS'-'
asS'CABS1'
p1388
(lp1389
I70334966
aI70337116
aS'+'
asS'PLAC8'
p1390
(lp1391
I83090806
aI83137075
aS'-'
asS'HAUS3'
p1392
(lp1393
I2227464
aI2242121
aS'-'
asS'EEF1A1P21'
p1394
(lp1395
I29748757
aI29750100
aS'+'
asS'HMGB1P28'
p1396
(lp1397
I41842154
aI41843950
aS'-'
asS'SDAD1'
p1398
(lp1399
I75949916
aI75990960
aS'-'
asS'ASIC5'
p1400
(lp1401
I155829729
aI155866273
aS'-'
asS'PGM2'
p1402
(lp1403
I37826633
aI37862937
aS'+'
asS'AC095057.1'
p1404
(lp1405
I40142198
aI40142365
aS'-'
asS'SLC26A1'
p1406
(lp1407
I979073
aI993376
aS'-'
asS'UGT2A3P7'
p1408
(lp1409
I69517667
aI69518400
aS'-'
asS'FGF5'
p1410
(lp1411
I80266942
aI80336680
aS'+'
asS'KIAA1109'
p1412
(lp1413
I122152333
aI122362752
aS'+'
asS'AC023424.1'
p1414
(lp1415
I152613875
aI152614333
aS'-'
asS'AC023424.2'
p1416
(lp1417
I152551277
aI152552364
aS'-'
asS'ELOVL6'
p1418
(lp1419
I110045846
aI110198653
aS'-'
asS'HTT'
p1420
(lp1421
I3074681
aI3243959
aS'+'
asS'LIN54'
p1422
(lp1423
I82924603
aI83010829
aS'-'
asS'CFAP97'
p1424
(lp1425
I185159665
aI185204001
aS'-'
asS'AC105914.1'
p1426
(lp1427
I174923813
aI174924038
aS'-'
asS'ATP5LP4'
p1428
(lp1429
I148703526
aI148703832
aS'-'
asS'ATP5LP3'
p1430
(lp1431
I24658072
aI24658375
aS'-'
asS'SORCS2'
p1432
(lp1433
I7192538
aI7742827
aS'+'
asS'GNRHR'
p1434
(lp1435
I67739328
aI67754360
aS'-'
asS'RRH'
p1436
(lp1437
I109827994
aI109844604
aS'+'
asS'SGCB'
p1438
(lp1439
I52020706
aI52038482
aS'-'
asS'DDX3P3'
p1440
(lp1441
I103572089
aI103574082
aS'+'
asS'CLUHP4'
p1442
(lp1443
I190057902
aI190063005
aS'-'
asS'AC098869.1'
p1444
(lp1445
I40491733
aI40492024
aS'+'
asS'AC105313.1'
p1446
(lp1447
I62291562
aI62292337
aS'+'
asS'QDPR'
p1448
(lp1449
I17460261
aI17512089
aS'-'
asS'PAQR3'
p1450
(lp1451
I78887127
aI78939394
aS'-'
asS'ATP8A1'
p1452
(lp1453
I42408373
aI42657105
aS'-'
asS'AC112518.2'
p1454
(lp1455
I73777636
aI73778060
aS'-'
asS'APOBEC3AP1'
p1456
(lp1457
I170099818
aI170100104
aS'+'
asS'IDUA'
p1458
(lp1459
I986997
aI1004506
aS'+'
asS'AC114781.1'
p1460
(lp1461
I83247179
aI83248206
aS'+'
asS'AC114781.3'
p1462
(lp1463
I83237303
aI83237444
aS'+'
asS'ZEB2P1'
p1464
(lp1465
I16360884
aI16397323
aS'-'
asS'AC114781.5'
p1466
(lp1467
I83369416
aI83369523
aS'-'
asS'CSN1S1'
p1468
(lp1469
I69931081
aI69946574
aS'+'
asS'RAC1P5'
p1470
(lp1471
I107203349
aI107203924
aS'-'
asS'FKBP4P1'
p1472
(lp1473
I118193405
aI118194751
aS'-'
asS'TBC1D14'
p1474
(lp1475
I6909444
aI7033118
aS'+'
asS'RAC1P2'
p1476
(lp1477
I46723830
aI46724408
aS'-'
asS'AC106865.1'
p1478
(lp1479
I153640168
aI153681180
aS'+'
asS'CDC42P4'
p1480
(lp1481
I109555170
aI109555732
aS'+'
asS'CDC42P6'
p1482
(lp1483
I22727375
aI22727950
aS'-'
asS'PF4'
p1484
(lp1485
I73981077
aI73982124
aS'-'
asS'NCOA4P2'
p1486
(lp1487
I88508591
aI88510403
aS'-'
asS'NCOA4P3'
p1488
(lp1489
I145624159
aI145626035
aS'-'
asS'MEPE'
p1490
(lp1491
I87821411
aI87846817
aS'+'
asS'DGKQ'
p1492
(lp1493
I968291
aI986895
aS'-'
asS'AC018797.3'
p1494
(lp1495
I102751401
aI102752641
aS'+'
asS'AC018797.1'
p1496
(lp1497
I102734358
aI102734612
aS'+'
asS'HNRNPA1P65'
p1498
(lp1499
I24771467
aI24772420
aS'+'
asS'HNRNPA1P67'
p1500
(lp1501
I72807267
aI72808192
aS'+'
asS'AC105391.1'
p1502
(lp1503
I105679050
aI105680094
aS'-'
asS'SULT1D1P'
p1504
(lp1505
I69791872
aI69813888
aS'-'
asS'AC095041.1'
p1506
(lp1507
I178286695
aI178287285
aS'+'
asS'AMTN'
p1508
(lp1509
I70518540
aI70532742
aS'+'
asS'ZBTB49'
p1510
(lp1511
I4290251
aI4321786
aS'+'
asS'AC104685.1'
p1512
(lp1513
I143497412
aI143498126
aS'-'
asS'SCFD2'
p1514
(lp1515
I52872982
aI53366075
aS'-'
asS'AC093325.1'
p1516
(lp1517
I156972631
aI156972956
aS'+'
asS'RPSAP70'
p1518
(lp1519
I186157896
aI186158843
aS'+'
asS'GCOM2'
p1520
(lp1521
I68038544
aI68039647
aS'+'
asS'AC114797.1'
p1522
(lp1523
I69215908
aI69216635
aS'-'
asS'ANP32C'
p1524
(lp1525
I164197007
aI164197711
aS'-'
asS'MTCO3P44'
p1526
(lp1527
I25720516
aI25721056
aS'-'
asS'AC074250.1'
p1528
(lp1529
I73543822
aI73544013
aS'+'
asS'LARP7'
p1530
(lp1531
I112636964
aI112657586
aS'+'
asS'AC099343.1'
p1532
(lp1533
I184559175
aI184559783
aS'-'
asS'AKIRIN2P1'
p1534
(lp1535
I149789952
aI149790303
aS'+'
asS'ODAM'
p1536
(lp1537
I70196496
aI70204576
aS'+'
asS'RTEL1P1'
p1538
(lp1539
I112356135
aI112359819
aS'+'
asS'AC093878.1'
p1540
(lp1541
I33238239
aI33238670
aS'-'
asS'OSTCP4'
p1542
(lp1543
I112685055
aI112685503
aS'+'
asS'COX7A2P2'
p1544
(lp1545
I96902801
aI96903050
aS'+'
asS'CDS1'
p1546
(lp1547
I84582979
aI84651338
aS'+'
asS'SNX18P24'
p1548
(lp1549
I49561479
aI49562149
aS'+'
asS'TUBB8P3'
p1550
(lp1551
I112077598
aI112078400
aS'+'
asS'RPL30P5'
p1552
(lp1553
I83502699
aI83503034
aS'+'
asS'RPL30P6'
p1554
(lp1555
I95644952
aI95645293
aS'-'
asS'EMCN'
p1556
(lp1557
I100479972
aI100880126
aS'-'
asS'USP17L5'
p1558
(lp1559
I9339403
aI9340995
aS'+'
asS'NUDT9'
p1560
(lp1561
I87422597
aI87459454
aS'+'
asS'OR7E162P'
p1562
(lp1563
I3901566
aI3902594
aS'-'
asS'PDS5A'
p1564
(lp1565
I39822863
aI39977956
aS'-'
asS'UBE2D3'
p1566
(lp1567
I102797252
aI102868875
aS'-'
asS'EDNRA'
p1568
(lp1569
I147480917
aI147544954
aS'+'
asS'COX7B2'
p1570
(lp1571
I46734827
aI46909231
aS'-'
asS'MTND4P8'
p1572
(lp1573
I155455050
aI155456411
aS'-'
asS'MTND4P9'
p1574
(lp1575
I25718082
aI25719745
aS'-'
asS'GSX2'
p1576
(lp1577
I54100031
aI54102505
aS'+'
asS'TADA2B'
p1578
(lp1579
I7043391
aI7057952
aS'+'
asS'MT2P1'
p1580
(lp1581
I68376323
aI68376505
aS'+'
asS'PAICS'
p1582
(lp1583
I56436152
aI56464579
aS'+'
asS'FRAS1'
p1584
(lp1585
I78057570
aI78544269
aS'+'
asS'TTC39CP1'
p1586
(lp1587
I116193997
aI116194751
aS'-'
asS'TMEM129'
p1588
(lp1589
I1715952
aI1721358
aS'-'
asS'TMEM128'
p1590
(lp1591
I4235542
aI4248212
aS'-'
asS'SLC39A8'
p1592
(lp1593
I102307557
aI102431258
aS'-'
asS'AC118282.3'
p1594
(lp1595
I49203171
aI49203726
aS'-'
asS'AC118282.1'
p1596
(lp1597
I49238032
aI49245419
aS'-'
asS'VEGFC'
p1598
(lp1599
I176683538
aI176792727
aS'-'
asS'ZBED1P1'
p1600
(lp1601
I110291644
aI110293573
aS'+'
asS'NUDT19P5'
p1602
(lp1603
I158182825
aI158183393
aS'+'
asS'AC034159.1'
p1604
(lp1605
I171113789
aI171114581
aS'+'
asS'OTUD4'
p1606
(lp1607
I145110838
aI145179641
aS'-'
asS'USO1'
p1608
(lp1609
I75724598
aI75814286
aS'+'
asS'AP1AR'
p1610
(lp1611
I112231737
aI112270047
aS'+'
asS'HTRA3'
p1612
(lp1613
I8269765
aI8307111
aS'+'
asS'SCLT1'
p1614
(lp1615
I128883993
aI129093607
aS'-'
asS'WDR45P1'
p1616
(lp1617
I153658572
aI153659653
aS'+'
asS'MTND3P5'
p1618
(lp1619
I25720099
aI25720431
aS'-'
asS'PTTG2'
p1620
(lp1621
I37960435
aI37961125
aS'+'
asS'AC073648.1'
p1622
(lp1623
I8949630
aI8950559
aS'+'
asS'AC073648.2'
p1624
(lp1625
I8990455
aI8990806
aS'+'
asS'AC073648.3'
p1626
(lp1627
I8981436
aI8982360
aS'+'
asS'AC073648.4'
p1628
(lp1629
I9030286
aI9031066
aS'+'
asS'AC073648.5'
p1630
(lp1631
I9020857
aI9021161
aS'-'
asS'AC006427.1'
p1632
(lp1633
I16307456
aI16308167
aS'+'
asS'PPEF2'
p1634
(lp1635
I75859872
aI75902528
aS'-'
asS'LEF1'
p1636
(lp1637
I108047545
aI108168956
aS'-'
asS'NUP58P1'
p1638
(lp1639
I125681177
aI125683668
aS'-'
asS'SPCS3'
p1640
(lp1641
I176319964
aI176332245
aS'+'
asS'AC104090.2'
p1642
(lp1643
I143760399
aI143762093
aS'-'
asS'AC113615.1'
p1644
(lp1645
I6200733
aI6239937
aS'+'
asS'AC096725.1'
p1646
(lp1647
I58117758
aI58118070
aS'-'
asS'FCF1P8'
p1648
(lp1649
I55351812
aI55352408
aS'-'
asS'MTND5P5'
p1650
(lp1651
I101972423
aI101972798
aS'+'
asS'MTND5P4'
p1652
(lp1653
I17061878
aI17062165
aS'+'
asS'RPS29P11'
p1654
(lp1655
I25678850
aI25679020
aS'+'
asS'RPS26P24'
p1656
(lp1657
I57352999
aI57353329
aS'-'
asS'AC096745.1'
p1658
(lp1659
I119006032
aI119006401
aS'+'
asS'CLRN2'
p1660
(lp1661
I17515165
aI17527104
aS'+'
asS'COX5BP1'
p1662
(lp1663
I81919995
aI81920387
aS'-'
asS'NDUFC1'
p1664
(lp1665
I139266880
aI139295815
aS'-'
asS'AC119751.1'
p1666
(lp1667
I49550032
aI49557400
aS'+'
asS'DMP1'
p1668
(lp1669
I87650307
aI87664361
aS'+'
asS'SEPSECS'
p1670
(lp1671
I25120014
aI25160442
aS'-'
asS'PRDX4P1'
p1672
(lp1673
I44944015
aI44944961
aS'-'
asS'EXOC1'
p1674
(lp1675
I55853616
aI55905013
aS'+'
asS'AC016687.1'
p1676
(lp1677
I33968174
aI33968526
aS'+'
asS'ARSJ'
p1678
(lp1679
I113900284
aI113979701
aS'-'
asS'HSBP1P2'
p1680
(lp1681
I110251871
aI110252099
aS'-'
asS'MGAT4D'
p1682
(lp1683
I140442262
aI140498353
aS'-'
asS'ANK2'
p1684
(lp1685
I112818109
aI113383735
aS'+'
asS'AC110775.1'
p1686
(lp1687
I154373886
aI154374347
aS'+'
asS'ADAMTS3'
p1688
(lp1689
I72280969
aI72569386
aS'-'
asS'TOX4P1'
p1690
(lp1691
I112455924
aI112457785
aS'+'
asS'CCSER1'
p1692
(lp1693
I90127585
aI91601913
aS'+'
asS'CENPE'
p1694
(lp1695
I103105806
aI103198409
aS'-'
asS'CENPC'
p1696
(lp1697
I67468748
aI67545606
aS'-'
asS'SCD5'
p1698
(lp1699
I82629539
aI82798857
aS'-'
asS'LDB2'
p1700
(lp1701
I16501541
aI16898809
aS'-'
asS'SEC24D'
p1702
(lp1703
I118722823
aI118836138
aS'-'
asS'PABPC4L'
p1704
(lp1705
I134196333
aI134201748
aS'-'
asS'PROM1'
p1706
(lp1707
I15968228
aI16084378
aS'-'
asS'SEC24B'
p1708
(lp1709
I109433815
aI109540896
aS'+'
asS'CENPU'
p1710
(lp1711
I184694618
aI184734133
aS'-'
asS'TXNP6'
p1712
(lp1713
I76958860
aI76959169
aS'-'
asS'MARK2P4'
p1714
(lp1715
I176012038
aI176014417
aS'-'
asS'SCARB2'
p1716
(lp1717
I76158760
aI76234536
aS'-'
asS'THEGL'
p1718
(lp1719
I56530609
aI56603507
aS'+'
asS'HGFAC'
p1720
(lp1721
I3441887
aI3449495
aS'+'
asS'SYNPO2'
p1722
(lp1723
I118850688
aI119057934
aS'+'
asS'SLC9B1'
p1724
(lp1725
I102885048
aI103019719
aS'-'
asS'SLC9B2'
p1726
(lp1727
I103019868
aI103076303
aS'-'
asS'SERF1AP1'
p1728
(lp1729
I137301001
aI137301187
aS'-'
asS'RPS23P4'
p1730
(lp1731
I145269810
aI145270558
aS'-'
asS'RPS23P3'
p1732
(lp1733
I66431092
aI66431521
aS'+'
asS'RPS23P2'
p1734
(lp1735
I137448087
aI137448501
aS'+'
asS'UNC93B8'
p1736
(lp1737
I8959628
aI8963981
aS'+'
asS'UNC93B4'
p1738
(lp1739
I4143458
aI4150421
aS'-'
asS'UNC93B7'
p1740
(lp1741
I9493736
aI9498066
aS'+'
asS'NEK1'
p1742
(lp1743
I169393281
aI169612627
aS'-'
asS'PLA2G12A'
p1744
(lp1745
I109709989
aI109730077
aS'-'
asS'GATB'
p1746
(lp1747
I151670504
aI151761023
aS'-'
asS'NDUFB4P12'
p1748
(lp1749
I43898962
aI43899351
aS'+'
asS'TIFA'
p1750
(lp1751
I112274542
aI112285903
aS'-'
asS'CNGA1'
p1752
(lp1753
I47935977
aI48016592
aS'-'
asS'AC108064.1'
p1754
(lp1755
I172380028
aI172380487
aS'-'
asS'SH3TC1'
p1756
(lp1757
I8199367
aI8241103
aS'+'
asS'AC093789.1'
p1758
(lp1759
I188349376
aI188350024
aS'-'
asS'BBS12'
p1760
(lp1761
I122732702
aI122744943
aS'+'
asS'NSD2'
p1762
(lp1763
I1871424
aI1978914
aS'+'
asS'TRPC3'
p1764
(lp1765
I121879028
aI121951754
aS'-'
asS'SPRY1'
p1766
(lp1767
I123396795
aI123403760
aS'+'
asS'FAM218BP'
p1768
(lp1769
I164929494
aI164929951
aS'-'
asS'STBD1'
p1770
(lp1771
I76306026
aI76311599
aS'+'
asS'INTS12'
p1772
(lp1773
I105699873
aI105895986
aS'-'
asS'AC093840.1'
p1774
(lp1775
I181522666
aI181523001
aS'+'
asS'CDKL2'
p1776
(lp1777
I75578005
aI75630716
aS'-'
asS'KPNA2P1'
p1778
(lp1779
I80079532
aI80081122
aS'+'
asS'AC098591.2'
p1780
(lp1781
I39973128
aI39973442
aS'-'
asS'AC098591.1'
p1782
(lp1783
I40042917
aI40057199
aS'-'
asS'RANP6'
p1784
(lp1785
I173633728
aI173634371
aS'-'
asS'OR7E163P'
p1786
(lp1787
I3889356
aI3890249
aS'-'
asS'STMN1P2'
p1788
(lp1789
I137425426
aI137425864
aS'-'
asS'TAPT1'
p1790
(lp1791
I16160505
aI16226541
aS'-'
asS'AC106872.8'
p1792
(lp1793
I165026261
aI165026944
aS'-'
asS'AC106872.9'
p1794
(lp1795
I165010459
aI165011851
aS'+'
asS'RPS3A'
p1796
(lp1797
I151099573
aI151104652
aS'+'
asS'AC106872.2'
p1798
(lp1799
I165012366
aI165012845
aS'-'
asS'AC106872.3'
p1800
(lp1801
I164920618
aI164921063
aS'-'
asS'AC098583.1'
p1802
(lp1803
I22594196
aI22594450
aS'+'
asS'AC106872.1'
p1804
(lp1805
I164948079
aI164949438
aS'+'
asS'AC106872.6'
p1806
(lp1807
I164938322
aI164939990
aS'-'
asS'AC106872.7'
p1808
(lp1809
I165045969
aI165046280
aS'+'
asS'AC106872.4'
p1810
(lp1811
I164987265
aI164987787
aS'+'
asS'AC106872.5'
p1812
(lp1813
I164968587
aI164970002
aS'-'
asS'AC092593.2'
p1814
(lp1815
I29407100
aI29408012
aS'+'
asS'KIAA0232'
p1816
(lp1817
I6782732
aI6884170
aS'+'
asS'OR7E83P'
p1818
(lp1819
I9512905
aI9513874
aS'+'
asS'AC111193.1'
p1820
(lp1821
I113840050
aI113840236
aS'+'
asS'LGI2'
p1822
(lp1823
I24998847
aI25030879
aS'-'
asS'LSM3P4'
p1824
(lp1825
I142317238
aI142317546
aS'+'
asS'RPS21P4'
p1826
(lp1827
I16256308
aI16256555
aS'-'
asS'GSTCD'
p1828
(lp1829
I105708784
aI105847725
aS'+'
asS'EVC2'
p1830
(lp1831
I5542772
aI5709548
aS'-'
asS'AC097493.1'
p1832
(lp1833
I9553614
aI9553985
aS'-'
asS'RPF2P2'
p1834
(lp1835
I115628812
aI115629707
aS'+'
asS'AC097493.3'
p1836
(lp1837
I9521910
aI9522276
aS'+'
asS'MRPS36P2'
p1838
(lp1839
I186900540
aI186900838
aS'+'
asS'AC105424.1'
p1840
(lp1841
I131540281
aI131540489
aS'+'
asS'AC097522.1'
p1842
(lp1843
I52440494
aI52441535
aS'-'
asS'GLRB'
p1844
(lp1845
I157076057
aI157172090
aS'+'
asS'DUTP7'
p1846
(lp1847
I51865050
aI51865535
aS'-'
asS'HSPD1P5'
p1848
(lp1849
I144845625
aI144847344
aS'+'
asS'DUTP8'
p1850
(lp1851
I98048555
aI98049043
aS'+'
asS'UBE2CP3'
p1852
(lp1853
I57072683
aI57073132
aS'+'
asS'AC074198.1'
p1854
(lp1855
I164725310
aI164726706
aS'+'
asS'AC074198.2'
p1856
(lp1857
I164597719
aI164597976
aS'+'
asS'AC114801.3'
p1858
(lp1859
I78008512
aI78008688
aS'-'
asS'AC114801.2'
p1860
(lp1861
I77958000
aI77958780
aS'-'
asS'AC114801.1'
p1862
(lp1863
I78003143
aI78003439
aS'+'
asS'IL21'
p1864
(lp1865
I122612628
aI122621069
aS'-'
asS'AC105416.1'
p1866
(lp1867
I138481255
aI138482096
aS'-'
asS'PMPCAP1'
p1868
(lp1869
I92182477
aI92184052
aS'-'
asS'STAP1'
p1870
(lp1871
I67558728
aI67607337
aS'+'
asS'DYNLL1P6'
p1872
(lp1873
I100041841
aI100042104
aS'-'
asS'CLNK'
p1874
(lp1875
I10486395
aI10684865
aS'-'
asS'LYPLA1P2'
p1876
(lp1877
I110945109
aI110945799
aS'-'
asS'TNIP2'
p1878
(lp1879
I2741660
aI2756376
aS'-'
asS'TNIP3'
p1880
(lp1881
I121132283
aI121227466
aS'-'
asS'AL645949.2'
p1882
(lp1883
I3323977
aI3324762
aS'-'
asS'AL645949.1'
p1884
(lp1885
I3312512
aI3312835
aS'+'
asS'ETNPPL'
p1886
(lp1887
I108742040
aI108763053
aS'-'
asS'AC097655.1'
p1888
(lp1889
I60038269
aI60038586
aS'+'
asS'CRYZP2'
p1890
(lp1891
I97916353
aI97917401
aS'-'
asS'GUCY1B3'
p1892
(lp1893
I155759059
aI155807591
aS'+'
asS'RNF212'
p1894
(lp1895
I1056913
aI1113540
aS'-'
asS'MED28'
p1896
(lp1897
I17614631
aI17634105
aS'+'
asS'GRIA2'
p1898
(lp1899
I157220668
aI157366069
aS'+'
asS'ENAM'
p1900
(lp1901
I70637745
aI70686816
aS'+'
asS'TMPRSS11GP'
p1902
(lp1903
I67991684
aI68015768
aS'-'
asS'AC093729.1'
p1904
(lp1905
I90682996
aI90683123
aS'+'
asS'FAM184B'
p1906
(lp1907
I17629306
aI17781512
aS'-'
asS'AC096720.1'
p1908
(lp1909
I67638177
aI67638359
aS'+'
asS'LIMCH1'
p1910
(lp1911
I41359607
aI41699003
aS'+'
asS'GK2'
p1912
(lp1913
I79406352
aI79408293
aS'-'
asS'AC147876.1'
p1914
(lp1915
I3910283
aI3910604
aS'+'
asS'NT5C3AP1'
p1916
(lp1917
I117574512
aI117576174
aS'-'
asS'ADAM20P3'
p1918
(lp1919
I187746094
aI187748199
aS'-'
asS'ADAM20P2'
p1920
(lp1921
I175574868
aI175576140
aS'+'
asS'ARHGEF38'
p1922
(lp1923
I105552622
aI105680913
aS'+'
asS'DDX60'
p1924
(lp1925
I168216293
aI168318807
aS'-'
asS'RWDD4'
p1926
(lp1927
I183639635
aI183659225
aS'-'
asS'LRBA'
p1928
(lp1929
I150264659
aI151015497
aS'-'
asS'WWC2'
p1930
(lp1931
I183099293
aI183320777
aS'+'
asS'AREG'
p1932
(lp1933
I74445134
aI74455009
aS'+'
asS'LAMTOR3'
p1934
(lp1935
I99878336
aI99894490
aS'-'
asS'MSMO1'
p1936
(lp1937
I165327623
aI165343160
aS'+'
asS'SMIM14'
p1938
(lp1939
I39546330
aI39639090
aS'-'
asS'NDST4'
p1940
(lp1941
I114827763
aI115113876
aS'-'
asS'FBXO8'
p1942
(lp1943
I174236658
aI174284264
aS'-'
asS'SLC10A7'
p1944
(lp1945
I146253975
aI146521964
aS'-'
asS'SLC10A6'
p1946
(lp1947
I86823468
aI86849263
aS'-'
asS'SLC10A4'
p1948
(lp1949
I48483343
aI48489196
aS'+'
asS'ORAOV1P1'
p1950
(lp1951
I186170863
aI186171257
aS'-'
asS'TARS2P1'
p1952
(lp1953
I135565117
aI135567157
aS'-'
asS'KDR'
p1954
(lp1955
I55078477
aI55125589
aS'-'
asS'AC092593.1'
p1956
(lp1957
I29465701
aI29467850
aS'-'
asS'YWHAEP4'
p1958
(lp1959
I155381042
aI155381239
aS'-'
asS'AC106047.2'
p1960
(lp1961
I26873561
aI26874349
aS'-'
asS'UCHL1'
p1962
(lp1963
I41256833
aI41268429
aS'+'
asS'AC093890.2'
p1964
(lp1965
I143911514
aI143912053
aS'-'
asS'DEFB131'
p1966
(lp1967
I9444534
aI9450514
aS'+'
asS'AC022325.1'
p1968
(lp1969
I175017016
aI175019214
aS'+'
asS'PPID'
p1970
(lp1971
I158709134
aI158723396
aS'-'
asS'HS3ST1'
p1972
(lp1973
I11393150
aI11429765
aS'-'
asS'AIMP1'
p1974
(lp1975
I106315610
aI106349220
aS'+'
asS'GUSBP5'
p1976
(lp1977
I143560127
aI143649305
aS'+'
asS'NOCT'
p1978
(lp1979
I139015789
aI139045937
aS'+'
asS'AC107401.1'
p1980
(lp1981
I69021656
aI69022340
aS'-'
asS'MESTP3'
p1982
(lp1983
I28823244
aI28824211
aS'-'
asS'SMARCA5'
p1984
(lp1985
I143513463
aI143557486
aS'+'
asS'AC110792.1'
p1986
(lp1987
I53986587
aI53987058
aS'-'
asS'AC110792.2'
p1988
(lp1989
I54076625
aI54076848
aS'+'
asS'DUX4L4'
p1990
(lp1991
I190081118
aI190082386
aS'+'
asS'DUX4L3'
p1992
(lp1993
I190087705
aI190088979
aS'+'
asS'WRBP1'
p1994
(lp1995
I112693459
aI112693792
aS'-'
asS'ZCCHC4'
p1996
(lp1997
I25312786
aI25370383
aS'+'
asS'RPS15AP17'
p1998
(lp1999
I62105660
aI62106049
aS'-'
asS'FAM47E-STBD1'
p2000
(lp2001
I76251721
aI76311120
aS'+'
asS'AC098583.2'
p2002
(lp2003
I22607501
aI22611063
aS'+'
asS'AC068944.2'
p2004
(lp2005
I29010619
aI29011021
aS'-'
asS'CASP6'
p2006
(lp2007
I109688622
aI109703419
aS'-'
asS'CASP3'
p2008
(lp2009
I184627696
aI184649509
aS'-'
asS'DRD5'
p2010
(lp2011
I9781680
aI9784009
aS'+'
asS'SEPT14P4'
p2012
(lp2013
I118640673
aI118640858
aS'+'
asS'AC018709.1'
p2014
(lp2015
I186426546
aI186555328
aS'-'
asS'MAN2B2'
p2016
(lp2017
I6575175
aI6623362
aS'+'
asS'AC021146.10'
p2018
(lp2019
I68972999
aI68975993
aS'-'
asS'PLK4'
p2020
(lp2021
I127880861
aI127899195
aS'+'
asS'AC105148.1'
p2022
(lp2023
I167741879
aI167742287
aS'-'
asS'ADAD1'
p2024
(lp2025
I122379013
aI122429784
aS'+'
asS'GRK4'
p2026
(lp2027
I2963608
aI3040727
aS'+'
asS'FSTL5'
p2028
(lp2029
I161383897
aI162164035
aS'-'
asS'ANAPC10'
p2030
(lp2031
I144967112
aI145098213
aS'-'
asS'AC108075.1'
p2032
(lp2033
I124062462
aI124062990
aS'+'
asS'SEPT11'
p2034
(lp2035
I76949809
aI77040384
aS'+'
asS'KLHL5'
p2036
(lp2037
I39045039
aI39122209
aS'+'
asS'KLHL2'
p2038
(lp2039
I165207618
aI165323153
aS'+'
asS'AC097493.2'
p2040
(lp2041
I9563171
aI9563950
aS'+'
asS'KLHL8'
p2042
(lp2043
I87160103
aI87220608
aS'-'
asS'PCGF3'
p2044
(lp2045
I705765
aI770640
aS'+'
asS'AC092436.1'
p2046
(lp2047
I25622777
aI25623601
aS'+'
asS'AC092436.3'
p2048
(lp2049
I25686202
aI25686458
aS'-'
asS'DTHD1'
p2050
(lp2051
I36281622
aI36344785
aS'+'
asS'ANKRD50'
p2052
(lp2053
I124664052
aI124712732
aS'-'
asS'METAP1'
p2054
(lp2055
I98995620
aI99062813
aS'+'
asS'AC008638.3'
p2056
(lp2057
I77216416
aI77216878
aS'-'
asS'AC008638.1'
p2058
(lp2059
I77350370
aI77351235
aS'-'
asS'AC098859.1'
p2060
(lp2061
I138560704
aI138561941
aS'+'
asS'AC105254.2'
p2062
(lp2063
I121118299
aI121118734
aS'+'
asS'CCDC34P1'
p2064
(lp2065
I112068010
aI112068526
aS'+'
asS'AC010683.1'
p2066
(lp2067
I147425974
aI147426351
aS'-'
asS'PGAM4P2'
p2068
(lp2069
I115764099
aI115764819
aS'-'
asS'GUCY1A3'
p2070
(lp2071
I155667104
aI155732347
aS'+'
asS'AC105250.1'
p2072
(lp2073
I164188311
aI164190367
aS'+'
asS'NEUROG2'
p2074
(lp2075
I112513516
aI112516172
aS'-'
asS'GBA3'
p2076
(lp2077
I22692914
aI22819575
aS'+'
asS'DDX60L'
p2078
(lp2079
I168356735
aI168480514
aS'-'
asS'DCHS2'
p2080
(lp2081
I154322645
aI154491716
aS'-'
asS'RASL11B'
p2082
(lp2083
I52862290
aI52866835
aS'+'
asS'ENPEP'
p2084
(lp2085
I110365733
aI110506258
aS'+'
asS'SPATA18'
p2086
(lp2087
I52051331
aI52097292
aS'+'
asS'ACTN4P1'
p2088
(lp2089
I116598161
aI116599611
aS'+'
asS'MTNR1A'
p2090
(lp2091
I186533655
aI186555567
aS'-'
asS'HADH'
p2092
(lp2093
I107989714
aI108035174
aS'+'
asS'HOPX'
p2094
(lp2095
I56647988
aI56681899
aS'-'
asS'AC096576.1'
p2096
(lp2097
I21656511
aI21656869
aS'-'
asS'CEP170P1'
p2098
(lp2099
I118467590
aI118554100
aS'+'
asS'NWD2'
p2100
(lp2101
I37244220
aI37449465
aS'+'
asS'ADGRA3'
p2102
(lp2103
I22387375
aI22516054
aS'-'
asS'AC139713.1'
p2104
(lp2105
I143555124
aI143555583
aS'-'
asS'SPOCK3'
p2106
(lp2107
I166733388
aI167234796
aS'-'
asS'AC073413.2'
p2108
(lp2109
I82775461
aI82776101
aS'+'
asS'AC073413.1'
p2110
(lp2111
I82691737
aI82692468
aS'+'
asS'EPHA5'
p2112
(lp2113
I65319563
aI65670495
aS'-'
asS'TENM3'
p2114
(lp2115
I182243429
aI182803024
aS'+'
asS'AC097488.1'
p2116
(lp2117
I85246157
aI85246912
aS'+'
asS'ATP5I'
p2118
(lp2119
I672436
aI674338
aS'-'
asS'TBC1D9'
p2120
(lp2121
I140620765
aI140756120
aS'-'
asS'MTHFD2L'
p2122
(lp2123
I74158112
aI74303092
aS'+'
asS'HSP90AB2P'
p2124
(lp2125
I13333414
aI13338302
aS'+'
asS'TBC1D1'
p2126
(lp2127
I37891087
aI38139173
aS'+'
asS'AC108145.1'
p2128
(lp2129
I110264865
aI110265017
aS'-'
asS'FAM177A1P1'
p2130
(lp2131
I98955982
aI98956767
aS'+'
asS'AC093801.2'
p2132
(lp2133
I176631392
aI176633231
aS'-'
asS'MRPS33P2'
p2134
(lp2135
I38006784
aI38007105
aS'-'
asS'MRPS33P3'
p2136
(lp2137
I115142982
aI115143303
aS'+'
asS'CC2D2A'
p2138
(lp2139
I15469865
aI15601557
aS'+'
asS'AC097474.1'
p2140
(lp2141
I124435750
aI124437120
aS'-'
asS'AC004062.1'
p2142
(lp2143
I111063583
aI111064227
aS'+'
asS'YTHDC1'
p2144
(lp2145
I68310387
aI68350089
aS'-'
asS'AC110373.1'
p2146
(lp2147
I119391831
aI119395335
aS'-'
asS'FAM86EP'
p2148
(lp2149
I3941760
aI3955415
aS'-'
asS'FOSL1P1'
p2150
(lp2151
I128155389
aI128156204
aS'+'
asS'ARL9'
p2152
(lp2153
I56505209
aI56524448
aS'+'
asS'RPL7L1P13'
p2154
(lp2155
I110399773
aI110400511
aS'-'
asS'DCAF16'
p2156
(lp2157
I17800655
aI17810758
aS'-'
asS'PAPSS1'
p2158
(lp2159
I107613666
aI107720452
aS'-'
asS'TXK'
p2160
(lp2161
I48066393
aI48134256
aS'-'
asS'FAM149A'
p2162
(lp2163
I186104419
aI186172140
aS'+'
asS'AC004066.1'
p2164
(lp2165
I105526596
aI105527397
aS'-'
asS'TRMT10A'
p2166
(lp2167
I99546709
aI99564017
aS'-'
asS'NR3C2'
p2168
(lp2169
I148078762
aI148444698
aS'-'
asS'TDO2'
p2170
(lp2171
I155854762
aI155910110
aS'+'
asS'POU4F2'
p2172
(lp2173
I146638893
aI146642474
aS'+'
asS'AC108157.1'
p2174
(lp2175
I73337233
aI73337771
aS'-'
asS'RPL5P11'
p2176
(lp2177
I173419245
aI173420137
aS'-'
asS'RPL5P13'
p2178
(lp2179
I142286917
aI142287625
aS'-'
asS'RPL5P12'
p2180
(lp2181
I98025390
aI98026240
aS'+'
asS'C1QTNF7'
p2182
(lp2183
I15339936
aI15446165
aS'+'
asS'G3BP2'
p2184
(lp2185
I75657609
aI75724525
aS'-'
asS'MYOZ2'
p2186
(lp2187
I119135784
aI119187789
aS'+'
asS'ICE2P1'
p2188
(lp2189
I188387471
aI188389666
aS'-'
asS'ENPP7P11'
p2190
(lp2191
I9677308
aI9677934
aS'+'
asS'ENPP7P10'
p2192
(lp2193
I9079023
aI9141608
aS'+'
asS'AC097484.1'
p2194
(lp2195
I88163579
aI88163967
aS'+'
asS'AC097484.2'
p2196
(lp2197
I88220569
aI88223837
aS'-'
asS'UGT2B26P'
p2198
(lp2199
I69027831
aI69044578
aS'+'
asS'GPAT3'
p2200
(lp2201
I83535914
aI83605872
aS'+'
asS'CPE'
p2202
(lp2203
I165361194
aI165482322
aS'+'
asS'CPZ'
p2204
(lp2205
I8592660
aI8619759
aS'+'
asS'SNX18P23'
p2206
(lp2207
I49233289
aI49233965
aS'-'
asS'GPM6A'
p2208
(lp2209
I175632934
aI176002332
aS'-'
asS'SNX18P25'
p2210
(lp2211
I49588772
aI49589529
aS'+'
asS'AC097486.1'
p2212
(lp2213
I170814339
aI170814548
aS'-'
asS'AC104687.2'
p2214
(lp2215
I76886029
aI76886370
aS'-'
asS'APBB2'
p2216
(lp2217
I40810027
aI41214618
aS'-'
asS'AC104687.1'
p2218
(lp2219
I76891034
aI76891445
aS'+'
asS'ANXA2P1'
p2220
(lp2221
I153307792
aI153308717
aS'-'
asS'AC108941.1'
p2222
(lp2223
I69888877
aI69889406
aS'+'
asS'MTND3P3'
p2224
(lp2225
I155456638
aI155456981
aS'-'
asS'AC104689.1'
p2226
(lp2227
I64767130
aI64767897
aS'-'
asS'BANK1'
p2228
(lp2229
I101419961
aI102074812
aS'+'
asS'AC108475.1'
p2230
(lp2231
I201409
aI205009
aS'-'
asS'WDR1'
p2232
(lp2233
I10074340
aI10116949
aS'-'
asS'AC107398.1'
p2234
(lp2235
I47490967
aI47491471
aS'-'
asS'SMR3B'
p2236
(lp2237
I70370093
aI70389906
aS'+'
asS'SMR3A'
p2238
(lp2239
I70360761
aI70367158
aS'+'
asS'ABLIM2'
p2240
(lp2241
I7965312
aI8158811
aS'-'
asS'SULT1E1'
p2242
(lp2243
I69810780
aI69847786
aS'-'
asS'GYPA'
p2244
(lp2245
I144109304
aI144140751
aS'-'
asS'GYPB'
p2246
(lp2247
I143996104
aI144019339
aS'-'
asS'LTV1P1'
p2248
(lp2249
I120091046
aI120092282
aS'-'
asS'GYPE'
p2250
(lp2251
I143870867
aI143905559
aS'-'
asS'AC093770.1'
p2252
(lp2253
I110146374
aI110147248
aS'+'
asS'AC112225.1'
p2254
(lp2255
I77864508
aI77864804
aS'-'
asS'ASS1P8'
p2256
(lp2257
I148526493
aI148527139
aS'-'
asS'USP17L9P'
p2258
(lp2259
I9358383
aI9359975
aS'+'
asS'HHIP'
p2260
(lp2261
I144646021
aI144745271
aS'+'
asS'HSD17B13'
p2262
(lp2263
I87303789
aI87322906
aS'-'
asS'HSD17B11'
p2264
(lp2265
I87336610
aI87391386
aS'-'
asS'NDNF'
p2266
(lp2267
I121035613
aI121072518
aS'-'
asS'PRMT5P1'
p2268
(lp2269
I147458724
aI147459321
aS'-'
asS'NPNT'
p2270
(lp2271
I105895437
aI105971674
aS'+'
asS'AGGF1P1'
p2272
(lp2273
I190041342
aI190043414
aS'+'
asS'AC106872.11'
p2274
(lp2275
I164933086
aI164933506
aS'-'
asS'AC106872.12'
p2276
(lp2277
I165016887
aI165017433
aS'+'
asS'MRFAP1L1'
p2278
(lp2279
I6707701
aI6709880
aS'-'
asS'CCNL2P1'
p2280
(lp2281
I42561457
aI42562425
aS'-'
asS'BTF3L4P4'
p2282
(lp2283
I168598240
aI168598757
aS'-'
asS'PDLIM5'
p2284
(lp2285
I94451857
aI94668227
aS'+'
asS'PDLIM3'
p2286
(lp2287
I185500660
aI185535558
aS'-'
asS'AC023886.2'
p2288
(lp2289
I112564988
aI112565398
aS'+'
asS'MTND2P41'
p2290
(lp2291
I68049706
aI68050478
aS'-'
asS'RAP1GDS1'
p2292
(lp2293
I98261453
aI98443861
aS'+'
asS'AC108467.2'
p2294
(lp2295
I44994426
aI44996022
aS'+'
asS'RPL23AP84'
p2296
(lp2297
I190195727
aI190196190
aS'+'
asS'AC098679.3'
p2298
(lp2299
I158270378
aI158278601
aS'+'
asS'APELA'
p2300
(lp2301
I164877242
aI164898965
aS'+'
asS'PDE6B'
p2302
(lp2303
I625584
aI670782
aS'+'
asS'PRDM5'
p2304
(lp2305
I120691915
aI120922849
aS'-'
asS'CIR1P2'
p2306
(lp2307
I114713579
aI114714920
aS'-'
asS'PRDM8'
p2308
(lp2309
I80184285
aI80204329
aS'+'
asS'LETM1'
p2310
(lp2311
I1811479
aI1856247
aS'-'
asS'OR5M14P'
p2312
(lp2313
I41722538
aI41723512
aS'-'
asS'SLC4A4'
p2314
(lp2315
I71187286
aI71572087
aS'+'
asS'POLN'
p2316
(lp2317
I2071918
aI2242121
aS'-'
asS'AC095059.2'
p2318
(lp2319
I92821986
aI92822918
aS'-'
asS'LRRC37A15P'
p2320
(lp2321
I102727274
aI102730721
aS'-'
asS'ANKRD20A17P'
p2322
(lp2323
I49502145
aI49506022
aS'-'
asS'MTND3P24'
p2324
(lp2325
I64610980
aI64611308
aS'-'
asS'MTND3P22'
p2326
(lp2327
I49246601
aI49246915
aS'+'
asS'FGF2'
p2328
(lp2329
I122826708
aI122898236
aS'+'
asS'ATP5EP1'
p2330
(lp2331
I105532475
aI105532630
aS'+'
asS'APOOP4'
p2332
(lp2333
I68304343
aI68304939
aS'-'
asS'MRPL22P1'
p2334
(lp2335
I56320719
aI56321334
aS'-'
asS'BEND4'
p2336
(lp2337
I42110938
aI42152878
aS'-'
asS'MLLT10P2'
p2338
(lp2339
I189973599
aI189973847
aS'-'
asS'AC096751.2'
p2340
(lp2341
I174539189
aI174540255
aS'-'
asS'AC084871.2'
p2342
(lp2343
I184910889
aI184911352
aS'-'
asS'AC080188.1'
p2344
(lp2345
I168755816
aI168756382
aS'+'
asS'ADGRL3'
p2346
(lp2347
I61201258
aI62078335
aS'+'
asS'PGBD4P4'
p2348
(lp2349
I130494673
aI130495285
aS'+'
asS'ZNF732'
p2350
(lp2351
I270675
aI305321
aS'-'
asS'AC020593.1'
p2352
(lp2353
I48936582
aI48936880
aS'+'
asS'ALB'
p2354
(lp2355
I73404239
aI73421412
aS'+'
asS'RELL1'
p2356
(lp2357
I37590800
aI37686376
aS'-'
asS'AC096743.1'
p2358
(lp2359
I76401251
aI76401569
aS'+'
asS'SNRPCP16'
p2360
(lp2361
I9051842
aI9052051
aS'-'
asS'SNRPCP13'
p2362
(lp2363
I9583942
aI9584131
aS'-'
asS'SPARCL1'
p2364
(lp2365
I87473335
aI87529504
aS'-'
asS'AC108022.1'
p2366
(lp2367
I37821361
aI37821838
aS'+'
asS'SGMS2'
p2368
(lp2369
I107824563
aI107915047
aS'+'
asS'MOB1B'
p2370
(lp2371
I70902384
aI71022449
aS'+'
asS'CICP16'
p2372
(lp2373
I118635970
aI118638782
aS'-'
asS'CFAP99'
p2374
(lp2375
I2418974
aI2462942
aS'+'
asS'NACA3P'
p2376
(lp2377
I164943290
aI164943937
aS'+'
asS'VTI1BP2'
p2378
(lp2379
I183483490
aI183484185
aS'+'
asS'MAB21L2'
p2380
(lp2381
I150581922
aI150584693
aS'+'
asS'AC116631.1'
p2382
(lp2383
I82285053
aI82340013
aS'+'
asS'GAPDHP56'
p2384
(lp2385
I130503357
aI130504344
aS'-'
asS'AC069306.1'
p2386
(lp2387
I170141292
aI170142532
aS'-'
asS'SPON2'
p2388
(lp2389
I1166937
aI1208962
aS'-'
asS'KRT19P6'
p2390
(lp2391
I91885046
aI91885254
aS'-'
asS'KRT19P3'
p2392
(lp2393
I109879070
aI109879897
aS'-'
asS'AC110611.1'
p2394
(lp2395
I55819819
aI55837487
aS'+'
asS'NAF1'
p2396
(lp2397
I163126708
aI163166890
aS'-'
asS'USP38'
p2398
(lp2399
I143184945
aI143223830
aS'+'
asS'H3F3AP6'
p2400
(lp2401
I139698144
aI139698554
aS'-'
asS'DKK2'
p2402
(lp2403
I106923743
aI107283689
aS'-'
asS'AC096741.1'
p2404
(lp2405
I169166272
aI169167117
aS'+'
asS'GNPDA2'
p2406
(lp2407
I44682208
aI44711023
aS'-'
asS'AK4P6'
p2408
(lp2409
I151027090
aI151027617
aS'+'
asS'EGF'
p2410
(lp2411
I109912891
aI110012266
aS'+'
asS'TMED11P'
p2412
(lp2413
I1115263
aI1153726
aS'-'
asS'FGG'
p2414
(lp2415
I154604134
aI154612849
aS'-'
asS'FGA'
p2416
(lp2417
I154583126
aI154590766
aS'-'
asS'FGB'
p2418
(lp2419
I154562956
aI154571086
aS'+'
asS'HIGD1AP13'
p2420
(lp2421
I78648954
aI78649242
aS'-'
asS'HIGD1AP14'
p2422
(lp2423
I109673843
aI109674124
aS'+'
asS'CORIN'
p2424
(lp2425
I47593999
aI47838106
aS'-'
asS'SEC63P2'
p2426
(lp2427
I35487812
aI35489750
aS'+'
asS'HPSE'
p2428
(lp2429
I83292461
aI83335153
aS'-'
asS'UGT2B29P'
p2430
(lp2431
I68509441
aI68517647
aS'-'
asS'AC098818.1'
p2432
(lp2433
I78768499
aI78768750
aS'+'
asS'GK3P'
p2434
(lp2435
I165277812
aI165279679
aS'-'
asS'MMAA'
p2436
(lp2437
I145618263
aI145660035
aS'+'
asS'WFS1'
p2438
(lp2439
I6269850
aI6303265
aS'+'
asS'YIPF7'
p2440
(lp2441
I44622065
aI44651628
aS'-'
asS'NOA1'
p2442
(lp2443
I56963370
aI56978823
aS'-'
asS'NPY1R'
p2444
(lp2445
I163326481
aI163344832
aS'-'
asS'RPL35AP12'
p2446
(lp2447
I163382179
aI163382516
aS'+'
asS'AC110753.1'
p2448
(lp2449
I154523487
aI154524807
aS'+'
asS'AC114744.1'
p2450
(lp2451
I15730962
aI15731627
aS'-'
asS'SERBP1P5'
p2452
(lp2453
I78180866
aI78182046
aS'-'
asS'OPRPN'
p2454
(lp2455
I70397882
aI70410194
aS'+'
asS'PRR27'
p2456
(lp2457
I70133616
aI70158777
aS'+'
asS'AP001960.1'
p2458
(lp2459
I99469598
aI99498698
aS'-'
asS'PDE5A'
p2460
(lp2461
I119494395
aI119628991
aS'-'
asS'RASGEF1B'
p2462
(lp2463
I81427065
aI82044069
aS'-'
asS'MORF4L2P1'
p2464
(lp2465
I54086926
aI54087783
aS'+'
asS'UGT2B27P'
p2466
(lp2467
I69004862
aI69020414
aS'-'
asS'FNIP2'
p2468
(lp2469
I158769138
aI158908049
aS'+'
asS'CYTL1'
p2470
(lp2471
I5014586
aI5019472
aS'-'
asS'EIF4E'
p2472
(lp2473
I98871684
aI98930637
aS'-'
asS'GALNT7'
p2474
(lp2475
I173168753
aI173323967
aS'+'
asS'MRFAP1'
p2476
(lp2477
I6640091
aI6642745
aS'+'
asS'IRF2'
p2478
(lp2479
I184387713
aI184474580
aS'-'
asS'NFKB1'
p2480
(lp2481
I102501329
aI102617302
aS'+'
asS'NEIL3'
p2482
(lp2483
I177309836
aI177362943
aS'+'
asS'SNX25'
p2484
(lp2485
I185204237
aI185363971
aS'+'
asS'CLOCK'
p2486
(lp2487
I55435022
aI55547138
aS'-'
asS'ZAR1'
p2488
(lp2489
I48490252
aI48494389
aS'+'
asS'HTN3'
p2490
(lp2491
I70028413
aI70036538
aS'+'
asS'HTN1'
p2492
(lp2493
I70050402
aI70058845
aS'+'
asS'RFC1'
p2494
(lp2495
I39287456
aI39366375
aS'-'
asS'AC095052.1'
p2496
(lp2497
I13977166
aI13978028
aS'+'
asS'FABP2'
p2498
(lp2499
I119317250
aI119322390
aS'-'
asS'AC093591.1'
p2500
(lp2501
I127812720
aI127813200
aS'-'
asS'GABRA4'
p2502
(lp2503
I46918900
aI46994407
aS'-'
asS'MXD4'
p2504
(lp2505
I2247432
aI2262294
aS'-'
asS'GABRA2'
p2506
(lp2507
I46248427
aI46475230
aS'-'
asS'KRT18P21'
p2508
(lp2509
I115920707
aI115921978
aS'+'
asS'KRT18P25'
p2510
(lp2511
I40020240
aI40021517
aS'+'
asS'RPL23AP94'
p2512
(lp2513
I112530371
aI112530672
aS'-'
asS'TMEM150C'
p2514
(lp2515
I82483170
aI82562357
aS'-'
asS'TRAPPC11'
p2516
(lp2517
I183659267
aI183713594
aS'+'
asS'LRAT'
p2518
(lp2519
I154627072
aI154748320
aS'+'
asS'SRP72'
p2520
(lp2521
I56466915
aI56503107
aS'+'
asS'FAM92A1P2'
p2522
(lp2523
I183037665
aI183040119
aS'+'
asS'AC017037.2'
p2524
(lp2525
I157968412
aI157969615
aS'-'
asS'AC017037.1'
p2526
(lp2527
I157815010
aI157815480
aS'+'
asS'TRIM60'
p2528
(lp2529
I165031953
aI165041744
aS'+'
asS'TRIM61'
p2530
(lp2531
I164954446
aI164977668
aS'-'
asS'C4orf26'
p2532
(lp2533
I75556048
aI75565885
aS'+'
asS'AC095040.1'
p2534
(lp2535
I53575713
aI53576387
aS'+'
asS'AC104771.1'
p2536
(lp2537
I77112495
aI77113458
aS'-'
asS'AC095050.2'
p2538
(lp2539
I175286605
aI175290767
aS'+'
asS'UVSSA'
p2540
(lp2541
I1347316
aI1387944
aS'+'
asS'UGT2B25P'
p2542
(lp2543
I69389492
aI69402081
aS'+'
asS'AC083902.2'
p2544
(lp2545
I99636529
aI99654648
aS'-'
asS'SCGB1D5P'
p2546
(lp2547
I165517255
aI165517501
aS'-'
asS'CUL4AP1'
p2548
(lp2549
I116425983
aI116430892
aS'-'
asS'ZNF721'
p2550
(lp2551
I439988
aI499102
aS'-'
asS'ARAP2'
p2552
(lp2553
I36065998
aI36244509
aS'-'
asS'THAP12P9'
p2554
(lp2555
I45323253
aI45326028
aS'-'
asS'PRIMPOL'
p2556
(lp2557
I184649613
aI184694952
aS'+'
asS'MFSD8'
p2558
(lp2559
I127917805
aI127965949
aS'-'
asS'EEF1A1P9'
p2560
(lp2561
I105484698
aI105486080
aS'+'
asS'AC074344.1'
p2562
(lp2563
I159375099
aI159375322
aS'-'
asS'LSM6'
p2564
(lp2565
I146175703
aI146200000
aS'+'
asS'MFSD7'
p2566
(lp2567
I681829
aI689441
aS'-'
asS'ACTR6P1'
p2568
(lp2569
I106836498
aI106837601
aS'-'
asS'AC093852.1'
p2570
(lp2571
I44533615
aI44533880
aS'+'
asS'ZGRF1'
p2572
(lp2573
I112539336
aI112636910
aS'-'
asS'GAPDHP60'
p2574
(lp2575
I87207092
aI87208086
aS'+'
asS'ADH1C'
p2576
(lp2577
I99336492
aI99353027
aS'-'
asS'ADH1B'
p2578
(lp2579
I99307843
aI99352760
aS'-'
asS'ADH1A'
p2580
(lp2581
I99276367
aI99291028
aS'-'
asS'AC067942.1'
p2582
(lp2583
I82494786
aI82496278
aS'-'
asS'AC067942.2'
p2584
(lp2585
I82580117
aI82581384
aS'-'
asS'AC067942.3'
p2586
(lp2587
I82571137
aI82571814
aS'+'
asS'RNPS1P1'
p2588
(lp2589
I11371975
aI11372892
aS'+'
asS'AC105420.1'
p2590
(lp2591
I60784115
aI60784696
aS'+'
asS'AC021106.2'
p2592
(lp2593
I37995494
aI37996203
aS'-'
asS'AC021106.1'
p2594
(lp2595
I37868292
aI37869978
aS'+'
asS'SLC30A9'
p2596
(lp2597
I41990472
aI42090457
aS'+'
asS'RAPGEF2'
p2598
(lp2599
I159104178
aI159314768
aS'+'
asS'AC093893.1'
p2600
(lp2601
I149351903
aI149815859
aS'-'
asS'AC097504.1'
p2602
(lp2603
I141405172
aI141407586
aS'+'
asS'AC084752.1'
p2604
(lp2605
I162984795
aI162985416
aS'+'
asS'UGT2B7'
p2606
(lp2607
I69051476
aI69112572
aS'+'
asS'UGT2B4'
p2608
(lp2609
I69485208
aI69526014
aS'-'
asS'AC112240.1'
p2610
(lp2611
I157204462
aI157204855
aS'-'
asS'ETFDH'
p2612
(lp2613
I158672125
aI158709623
aS'+'
asS'KIT'
p2614
(lp2615
I54657918
aI54740715
aS'+'
asS'BST1'
p2616
(lp2617
I15703096
aI15732787
aS'+'
asS'NCAPG'
p2618
(lp2619
I17810902
aI17844862
aS'+'
asS'UGT2B24P'
p2620
(lp2621
I69408828
aI69423164
aS'+'
asS'NOP14'
p2622
(lp2623
I2937933
aI2963385
aS'-'
asS'HMGN1P11'
p2624
(lp2625
I62510469
aI62510771
aS'+'
asS'FAM13A'
p2626
(lp2627
I88767983
aI89111398
aS'-'
asS'SLC25A5P6'
p2628
(lp2629
I186328716
aI186329601
aS'-'
asS'MAML3'
p2630
(lp2631
I139716753
aI140154184
aS'-'
asS'AC104136.1'
p2632
(lp2633
I136004509
aI136004902
aS'-'
asS'TBC1D19'
p2634
(lp2635
I26583916
aI26755351
aS'+'
asS'AC079080.1'
p2636
(lp2637
I184254509
aI184255330
aS'+'
asS'SMARCAD1'
p2638
(lp2639
I94207611
aI94291290
aS'+'
asS'AC114781.4'
p2640
(lp2641
I83377363
aI83378076
aS'-'
asS'AC104784.1'
p2642
(lp2643
I51978079
aI51978372
aS'-'
asS'AC099340.1'
p2644
(lp2645
I128069014
aI128069612
aS'-'
asS'ZNF519P4'
p2646
(lp2647
I393534
aI393658
aS'+'
asS'HERC3'
p2648
(lp2649
I88523810
aI88649847
aS'+'
asS'HERC5'
p2650
(lp2651
I88457117
aI88506163
aS'+'
asS'HERC6'
p2652
(lp2653
I88378739
aI88443097
aS'+'
asS'PPBPP1'
p2654
(lp2655
I73847866
aI73848829
aS'+'
asS'PPBPP2'
p2656
(lp2657
I74054038
aI74055399
aS'-'
asS'ALG1L3P'
p2658
(lp2659
I9703754
aI9710812
aS'-'
asS'USP17L17'
p2660
(lp2661
I9243879
aI9245830
aS'+'
asS'USP17L15'
p2662
(lp2663
I9234385
aI9236334
aS'+'
asS'USP17L13'
p2664
(lp2665
I9224896
aI9226847
aS'+'
asS'USP17L12'
p2666
(lp2667
I9220152
aI9221744
aS'+'
asS'USP17L11'
p2668
(lp2669
I9215405
aI9217356
aS'+'
asS'USP17L10'
p2670
(lp2671
I9210657
aI9212608
aS'+'
asS'USP17L19'
p2672
(lp2673
I9253378
aI9255329
aS'+'
asS'USP17L18'
p2674
(lp2675
I9248630
aI9250581
aS'+'
asS'EFTUD1P2'
p2676
(lp2677
I65142703
aI65145763
aS'-'
asS'AC026402.1'
p2678
(lp2679
I123259949
aI123260118
aS'-'
asS'AC079140.2'
p2680
(lp2681
I342821
aI342962
aS'-'
asS'DUX4L1'
p2682
(lp2683
I190084412
aI190085686
aS'+'
asS'AC027613.2'
p2684
(lp2685
I116095110
aI116097066
aS'-'
asS'KLF17P2'
p2686
(lp2687
I14126339
aI14126664
aS'+'
asS'STOX2'
p2688
(lp2689
I183797692
aI184017378
aS'+'
asS'AC116049.1'
p2690
(lp2691
I66094142
aI66094526
aS'+'
asS'HMGB1P44'
p2692
(lp2693
I77963940
aI77964511
aS'+'
asS'KCTD8'
p2694
(lp2695
I44173909
aI44448807
aS'-'
asS'GABRB1'
p2696
(lp2697
I47031360
aI47426444
aS'+'
asS'STATH'
p2698
(lp2699
I69995930
aI70002453
aS'+'
asS'AL136360.1'
p2700
(lp2701
I2088718
aI2090617
aS'-'
asS'BOD1L1'
p2702
(lp2703
I13568738
aI13627723
aS'-'
asS'WDR17'
p2704
(lp2705
I176065981
aI176180159
aS'+'
asS'WDR19'
p2706
(lp2707
I39182404
aI39285810
aS'+'
asS'RAF1P1'
p2708
(lp2709
I10254926
aI10256621
aS'-'
asS'STIM2'
p2710
(lp2711
I26860691
aI27025381
aS'+'
asS'ANTXR2'
p2712
(lp2713
I79901149
aI80073086
aS'-'
asS'S100P'
p2714
(lp2715
I6693069
aI6697169
aS'+'
asS'AC110794.1'
p2716
(lp2717
I175962061
aI175962485
aS'+'
asS'BMPR1B'
p2718
(lp2719
I94757968
aI95158448
aS'+'
asS'CRIPAK'
p2720
(lp2721
I1391552
aI1395989
aS'+'
asS'MAP9'
p2722
(lp2723
I155342658
aI155376970
aS'-'
asS'R3HDM2P1'
p2724
(lp2725
I133124104
aI133126063
aS'+'
asS'AC119751.2'
p2726
(lp2727
I49523648
aI49523857
aS'-'
asS'AC119751.3'
p2728
(lp2729
I49486926
aI49489554
aS'-'
asS'AC119751.4'
p2730
(lp2731
I49579833
aI49580189
aS'+'
asS'AC119751.5'
p2732
(lp2733
I49507764
aI49508806
aS'-'
asS'AC119751.6'
p2734
(lp2735
I49561285
aI49561470
aS'-'
asS'AC119751.7'
p2736
(lp2737
I49548564
aI49548855
aS'-'
asS'AC119751.8'
p2738
(lp2739
I49524030
aI49524185
aS'-'
asS'AMBN'
p2740
(lp2741
I70592256
aI70607288
aS'+'
asS'ZFP42'
p2742
(lp2743
I187995771
aI188005050
aS'+'
asS'GAK'
p2744
(lp2745
I849278
aI932373
aS'-'
asS'SEC31A'
p2746
(lp2747
I82819011
aI82900538
aS'-'
asS'AC019193.1'
p2748
(lp2749
I183028601
aI183029720
aS'-'
asS'CLDN22'
p2750
(lp2751
I183318194
aI183320774
aS'-'
asS'CYP4V2'
p2752
(lp2753
I186191520
aI186210801
aS'+'
asS'CLDN24'
p2754
(lp2755
I183321764
aI183322426
aS'-'
asS'ZNF718'
p2756
(lp2757
I124480
aI163989
aS'+'
asS'AC112250.1'
p2758
(lp2759
I87410644
aI87411388
aS'+'
asS'FAM160A1'
p2760
(lp2761
I151409246
aI151663632
aS'+'
asS'NPM1P41'
p2762
(lp2763
I82010665
aI82013095
aS'-'
asS'AL158068.1'
p2764
(lp2765
I2324467
aI2325082
aS'+'
asS'AC097376.1'
p2766
(lp2767
I139426843
aI139430884
aS'-'
asS'AC083795.1'
p2768
(lp2769
I111551854
aI111552173
aS'+'
asS'NDST3'
p2770
(lp2771
I118034345
aI118258648
aS'+'
asS'AC108210.2'
p2772
(lp2773
I41924180
aI41924380
aS'+'
asS'DUX4L8'
p2774
(lp2775
I190067935
aI190069209
aS'+'
asS'FTLP10'
p2776
(lp2777
I68182292
aI68212470
aS'+'
asS'AC097372.1'
p2778
(lp2779
I146214515
aI146230878
aS'+'
asS'AC097714.1'
p2780
(lp2781
I26111865
aI26113839
aS'+'
asS'ENPP6'
p2782
(lp2783
I184088706
aI184217961
aS'-'
asS'AC098976.2'
p2784
(lp2785
I9754898
aI9755778
aS'+'
asS'AC098976.1'
p2786
(lp2787
I9733370
aI9742361
aS'+'
asS'TSPAN5'
p2788
(lp2789
I98470367
aI98658629
aS'-'
asS'FAM193A'
p2790
(lp2791
I2536631
aI2731920
aS'+'
asS'NKX6-1'
p2792
(lp2793
I84491987
aI84498450
aS'-'
asS'SCOC'
p2794
(lp2795
I140257286
aI140382556
aS'+'
asS'AC006499.8'
p2796
(lp2797
I10238213
aI10238235
aS'-'
asS'PTGES3P3'
p2798
(lp2799
I169791221
aI169791702
aS'-'
asS'AC006499.1'
p2800
(lp2801
I10199823
aI10200672
aS'-'
asS'AC006499.2'
p2802
(lp2803
I10267895
aI10268231
aS'-'
asS'AC006499.3'
p2804
(lp2805
I10284961
aI10285708
aS'-'
asS'AC006499.4'
p2806
(lp2807
I10259445
aI10260138
aS'-'
asS'AC006499.5'
p2808
(lp2809
I10292195
aI10292708
aS'-'
asS'AC006499.6'
p2810
(lp2811
I10167159
aI10167765
aS'-'
asS'AC006499.7'
p2812
(lp2813
I10294463
aI10295579
aS'-'
asS'PRSS48'
p2814
(lp2815
I151277171
aI151291453
aS'+'
asS'SLAIN2'
p2816
(lp2817
I48341322
aI48426212
aS'+'
asS'SLC25A31'
p2818
(lp2819
I127730378
aI127774299
aS'+'
asS'AC108073.1'
p2820
(lp2821
I187970273
aI187971284
aS'+'
asS'AC108073.2'
p2822
(lp2823
I188106558
aI188106914
aS'+'
asS'FAM175A'
p2824
(lp2825
I83467454
aI83523348
aS'-'
asS'AC115223.1'
p2826
(lp2827
I65573459
aI65574328
aS'+'
asS'SNX5P1'
p2828
(lp2829
I76344550
aI76345590
aS'+'
asS'LNX1'
p2830
(lp2831
I53460456
aI53591616
aS'-'
asS'AC093815.1'
p2832
(lp2833
I114103938
aI114104225
aS'+'
asS'AARSP1'
p2834
(lp2835
I132592084
aI132592536
aS'+'
asS'AC105252.1'
p2836
(lp2837
I133574566
aI133575208
aS'-'
asS'AC021146.6'
p2838
(lp2839
I68907918
aI68908034
aS'-'
asS'AC021146.7'
p2840
(lp2841
I68996935
aI68997709
aS'-'
asS'AC021146.4'
p2842
(lp2843
I68861332
aI68861610
aS'-'
asS'AC021146.5'
p2844
(lp2845
I68985009
aI68988533
aS'-'
asS'AC021146.2'
p2846
(lp2847
I68883885
aI68884440
aS'-'
asS'AC021146.3'
p2848
(lp2849
I68900651
aI68900910
aS'-'
asS'AC021146.1'
p2850
(lp2851
I68914928
aI68924741
aS'-'
asS'DCAF4L1'
p2852
(lp2853
I41981696
aI41986467
aS'+'
asS'AC021146.8'
p2854
(lp2855
I68813995
aI68814727
aS'+'
asS'AC021146.9'
p2856
(lp2857
I68834213
aI68834368
aS'-'
asS'SULT1B1'
p2858
(lp2859
I69721162
aI69760712
aS'-'
asS'EEF1GP8'
p2860
(lp2861
I129903010
aI129904163
aS'+'
asS'SCRG1'
p2862
(lp2863
I173388162
aI173406380
aS'-'
asS'CCNG2'
p2864
(lp2865
I77157225
aI77433388
aS'+'
asS'USP17L28'
p2866
(lp2867
I9348893
aI9350485
aS'+'
asS'USP17L29'
p2868
(lp2869
I9353638
aI9355230
aS'+'
asS'AC093809.1'
p2870
(lp2871
I12640298
aI12640637
aS'-'
asS'GUF1'
p2872
(lp2873
I44678429
aI44700926
aS'+'
asS'USP17L22'
p2874
(lp2875
I9267619
aI9269570
aS'+'
asS'USP17L23'
p2876
(lp2877
I9272364
aI9272914
aS'+'
asS'USP17L20'
p2878
(lp2879
I9258124
aI9260075
aS'+'
asS'USP17L21'
p2880
(lp2881
I9262872
aI9264823
aS'+'
asS'USP17L26'
p2882
(lp2883
I9334658
aI9336609
aS'+'
asS'USP17L27'
p2884
(lp2885
I9344148
aI9345740
aS'+'
asS'USP17L24'
p2886
(lp2887
I9325165
aI9327116
aS'+'
asS'USP17L25'
p2888
(lp2889
I9329911
aI9331862
aS'+'
asS'AC093829.1'
p2890
(lp2891
I69572391
aI69585527
aS'-'
asS'HNRNPD'
p2892
(lp2893
I82352498
aI82373956
aS'-'
asS'HMGB3P15'
p2894
(lp2895
I94195940
aI94196513
aS'-'
asS'CHRNA9'
p2896
(lp2897
I40335329
aI40355217
aS'+'
asS'RGS12'
p2898
(lp2899
I3314147
aI3439905
aS'+'
asS'CCKAR'
p2900
(lp2901
I26481400
aI26490462
aS'-'
asS'OR7E86P'
p2902
(lp2903
I9459255
aI9460244
aS'+'
asS'AC021148.1'
p2904
(lp2905
I39480255
aI39481905
aS'+'
asS'AC073475.1'
p2906
(lp2907
I120342056
aI120342647
aS'+'
asS'HMX1'
p2908
(lp2909
I8846076
aI8871622
aS'-'
asS'UTP3'
p2910
(lp2911
I70688479
aI70690551
aS'+'
asS'ELF2'
p2912
(lp2913
I139057220
aI139177218
aS'-'
asS'AC105417.1'
p2914
(lp2915
I129177386
aI129179094
aS'+'
asS'AC097533.1'
p2916
(lp2917
I122077840
aI122078318
aS'-'
asS'AC025554.1'
p2918
(lp2919
I131112748
aI131113255
aS'+'
asS'AC097535.2'
p2920
(lp2921
I33400538
aI33400679
aS'+'
asS'AC093677.1'
p2922
(lp2923
I74085995
aI74086672
aS'-'
asS'DOK7'
p2924
(lp2925
I3463311
aI3494483
aS'+'
asS'AC093827.1'
p2926
(lp2927
I86870191
aI86871404
aS'+'
asS'AC093827.3'
p2928
(lp2929
I86913266
aI86914817
aS'-'
asS'AC093827.2'
p2930
(lp2931
I86876338
aI86876652
aS'+'
asS'PDGFC'
p2932
(lp2933
I156760454
aI156971394
aS'-'
asS'CSN1S2AP'
p2934
(lp2935
I70067386
aI70085273
aS'+'
asS'SLC7A11'
p2936
(lp2937
I138164097
aI138242349
aS'-'
asS'BBS7'
p2938
(lp2939
I121824440
aI121870497
aS'-'
asS'FABP5P12'
p2940
(lp2941
I159026139
aI159026527
aS'+'
asS'CWH43'
p2942
(lp2943
I48986247
aI49062079
aS'+'
asS'SPATA5'
p2944
(lp2945
I122923074
aI123319450
aS'+'
asS'SPATA4'
p2946
(lp2947
I176184638
aI176195671
aS'-'
as.