(dp1
S'HIST1H4C'
p2
(lp3
I26103876
aI26104310
aS'+'
asS'HIST1H4B'
p4
(lp5
I26026815
aI26027252
aS'-'
asS'HIST1H4A'
p6
(lp7
I26021679
aI26021990
aS'+'
asS'AL583835.2'
p8
(lp9
I149934527
aI149936318
aS'+'
asS'HIST1H4G'
p10
(lp11
I26246681
aI26246977
aS'-'
asS'HIST1H4F'
p12
(lp13
I26240426
aI26240737
aS'+'
asS'HIST1H4E'
p14
(lp15
I26204552
aI26206038
aS'+'
asS'HIST1H4D'
p16
(lp17
I26188765
aI26189076
aS'-'
asS'HIST1H4K'
p18
(lp19
I27831216
aI27831527
aS'-'
asS'HIST1H4J'
p20
(lp21
I27824108
aI27824480
aS'+'
asS'HIST1H4I'
p22
(lp23
I27138588
aI27139881
aS'+'
asS'HIST1H4H'
p24
(lp25
I26277609
aI26285638
aS'-'
asS'UQCRHP1'
p26
(lp27
I31611083
aI31611356
aS'-'
asS'HIST1H4L'
p28
(lp29
I27873199
aI27873510
aS'-'
asS'KHDC3L'
p30
(lp31
I73362677
aI73364171
aS'+'
asS'AL136309.1'
p32
(lp33
I4189116
aI4189806
aS'+'
asS'HMGCLL1'
p34
(lp35
I55434369
aI55579214
aS'-'
asS'AL133264.1'
p36
(lp37
I24750671
aI24751625
aS'-'
asS'MEI4'
p38
(lp39
I77690658
aI77926974
aS'+'
asS'NACAP7'
p40
(lp41
I89422099
aI89423048
aS'-'
asS'TSPO2'
p42
(lp43
I41042554
aI41044337
aS'+'
asS'FOXQ1'
p44
(lp45
I1312440
aI1314748
aS'+'
asS'NPM1P51'
p46
(lp47
I41666906
aI41667649
aS'+'
asS'AL138878.2'
p48
(lp49
I7516600
aI7517840
aS'-'
asS'AL121834.1'
p50
(lp51
I138878899
aI138879407
aS'-'
asS'AL138878.1'
p52
(lp53
I7506203
aI7506549
aS'+'
asS'Z95118.1'
p54
(lp55
I108817680
aI108817926
aS'+'
asS'NELFE'
p56
(lp57
I31952087
aI31959110
aS'-'
asS'AL136968.2'
p58
(lp59
I5788346
aI5788699
aS'-'
asS'AL136968.1'
p60
(lp61
I5817421
aI5818366
aS'-'
asS'AL008627.1'
p62
(lp63
I20042455
aI20042940
aS'-'
asS'BAK1'
p64
(lp65
I33572547
aI33580293
aS'-'
asS'AL031003.1'
p66
(lp67
I138393373
aI138393544
aS'+'
asS'AL512378.1'
p68
(lp69
I53206598
aI53208697
aS'-'
asS'MAK'
p70
(lp71
I10762740
aI10838555
aS'-'
asS'COL11A2P1'
p72
(lp73
I33103794
aI33107330
aS'-'
asS'PNISR'
p74
(lp75
I99398051
aI99425308
aS'-'
asS'GTF3C6'
p76
(lp77
I110958560
aI110967890
aS'+'
asS'ZNF451'
p78
(lp79
I57090010
aI57170307
aS'+'
asS'XPO5'
p80
(lp81
I43522330
aI43576075
aS'-'
asS'BACH2'
p82
(lp83
I89926529
aI90296908
aS'-'
asS'TTK'
p84
(lp85
I80003887
aI80042527
aS'+'
asS'GMDS'
p86
(lp87
I1623806
aI2245692
aS'-'
asS'SOBP'
p88
(lp89
I107489958
aI107660167
aS'+'
asS'RBM22P4'
p90
(lp91
I45098021
aI45099260
aS'+'
asS'AL024509.1'
p92
(lp93
I25272200
aI25273751
aS'-'
asS'AL024509.2'
p94
(lp95
I25261239
aI25261731
aS'+'
asS'MTCO1P56'
p96
(lp97
I91727282
aI91727505
aS'-'
asS'LIN28B'
p98
(lp99
I104936616
aI105078602
aS'+'
asS'ACTG1P9'
p100
(lp101
I46204729
aI46207386
aS'+'
asS'PAICSP3'
p102
(lp103
I73327524
aI73329017
aS'+'
asS'SLC35D3'
p104
(lp105
I136922264
aI136925639
aS'+'
asS'AL355379.1'
p106
(lp107
I79326568
aI79327207
aS'-'
asS'RPS6KA2'
p108
(lp109
I166409388
aI166862511
aS'-'
asS'RPS4XP7'
p110
(lp111
I13521266
aI13522045
aS'+'
asS'AL391417.1'
p112
(lp113
I86432244
aI86432669
aS'+'
asS'SFT2D1'
p114
(lp115
I166319728
aI166342591
aS'-'
asS'RPS4XP9'
p116
(lp117
I126683036
aI126683847
aS'+'
asS'PREP'
p118
(lp119
I105277565
aI105403084
aS'-'
asS'KRASP1'
p120
(lp121
I54770583
aI54771134
aS'+'
asS'AL138827.1'
p122
(lp123
I87070156
aI87070461
aS'-'
asS'FOXC1'
p124
(lp125
I1609972
aI1613897
aS'+'
asS'ZNF292'
p126
(lp127
I87155549
aI87264196
aS'+'
asS'SESN1'
p128
(lp129
I108986437
aI109094819
aS'-'
asS'TRERF1'
p130
(lp131
I42224931
aI42452051
aS'-'
asS'NDUFAF4'
p132
(lp133
I96889313
aI96897881
aS'-'
asS'AL390955.1'
p134
(lp135
I157365990
aI157366923
aS'-'
asS'OR2H2'
p136
(lp137
I29587455
aI29589038
aS'+'
asS'IGF2R'
p138
(lp139
I159969099
aI160111504
aS'+'
asS'AL512430.1'
p140
(lp141
I110645699
aI110646558
aS'+'
asS'AL355365.1'
p142
(lp143
I147406531
aI147406824
aS'+'
asS'AIG1'
p144
(lp145
I143060876
aI143340304
aS'+'
asS'AL035467.1'
p146
(lp147
I71550958
aI71551643
aS'-'
asS'MYLK4'
p148
(lp149
I2663629
aI2750966
aS'-'
asS'GLP1R'
p150
(lp151
I39048798
aI39087743
aS'+'
asS'ZSCAN12P1'
p152
(lp153
I28091154
aI28093664
aS'+'
asS'NOL7'
p154
(lp155
I13615589
aI13632739
aS'+'
asS'SRPK1'
p156
(lp157
I35832966
aI35921342
aS'-'
asS'OLIG3'
p158
(lp159
I137492202
aI137494250
aS'-'
asS'AL591034.3'
p160
(lp161
I53381519
aI53382203
aS'+'
asS'AL591034.2'
p162
(lp163
I53378503
aI53378861
aS'+'
asS'AL591034.1'
p164
(lp165
I53368670
aI53369009
aS'+'
asS'METTL24'
p166
(lp167
I110245928
aI110358272
aS'-'
asS'CDC40'
p168
(lp169
I110180421
aI110254275
aS'+'
asS'AL355357.1'
p170
(lp171
I64728837
aI64733567
aS'-'
asS'EEF1A1'
p172
(lp173
I73515752
aI73521032
aS'-'
asS'AL139039.1'
p174
(lp175
I10514282
aI10514973
aS'+'
asS'AL139039.2'
p176
(lp177
I10574749
aI10575227
aS'-'
asS'AL158050.2'
p178
(lp179
I51385282
aI51385849
aS'-'
asS'AL009178.1'
p180
(lp181
I167767083
aI167768568
aS'-'
asS'AL158050.1'
p182
(lp183
I51410081
aI51410537
aS'-'
asS'MTHFD2P3'
p184
(lp185
I107985811
aI107986031
aS'-'
asS'DDX39BP2'
p186
(lp187
I29993209
aI29993605
aS'+'
asS'DDX39BP1'
p188
(lp189
I29906543
aI29906909
aS'+'
asS'AL033519.2'
p190
(lp191
I35555873
aI35556264
aS'+'
asS'AL033519.1'
p192
(lp193
I35607628
aI35607934
aS'+'
asS'Z99496.1'
p194
(lp195
I118501430
aI118502906
aS'+'
asS'ERMARD'
p196
(lp197
I169751622
aI169781584
aS'+'
asS'FGFR1OP'
p198
(lp199
I166999182
aI167052713
aS'+'
asS'CHCHD2P4'
p200
(lp201
I134393142
aI134393900
aS'-'
asS'SASH1'
p202
(lp203
I148342593
aI148552050
aS'+'
asS'RAB23'
p204
(lp205
I57186992
aI57222314
aS'-'
asS'AL365205.1'
p206
(lp207
I41780349
aI41790141
aS'+'
asS'ARL4AP5'
p208
(lp209
I150934968
aI150935566
aS'+'
asS'CFB'
p210
(lp211
I31945709
aI31952084
aS'+'
asS'HLA-DMB'
p212
(lp213
I32934629
aI32941070
aS'-'
asS'HLA-DMA'
p214
(lp215
I32948771
aI32968444
aS'-'
asS'AL662844.1'
p216
(lp217
I31222913
aI31223093
aS'+'
asS'TRIM10'
p218
(lp219
I30151945
aI30160934
aS'-'
asS'AL662844.2'
p220
(lp221
I31224342
aI31225058
aS'-'
asS'TRIM15'
p222
(lp223
I30163206
aI30172689
aS'+'
asS'SYTL3'
p224
(lp225
I158650014
aI158764876
aS'+'
asS'NQO2'
p226
(lp227
I2999997
aI3028869
aS'+'
asS'BTN2A3P'
p228
(lp229
I26422119
aI26432383
aS'+'
asS'ADCY10P1'
p230
(lp231
I41101034
aI41140835
aS'+'
asS'PRL'
p232
(lp233
I22287244
aI22297501
aS'-'
asS'CNPY3'
p234
(lp235
I42929200
aI42939287
aS'+'
asS'BTF3P10'
p236
(lp237
I149977922
aI149978416
aS'+'
asS'MTCYBP36'
p238
(lp239
I94446740
aI94447179
aS'-'
asS'AL353747.1'
p240
(lp241
I167208631
aI167208897
aS'-'
asS'EIF3EP1'
p242
(lp243
I73291962
aI73293277
aS'+'
asS'ADH5P4'
p244
(lp245
I65836930
aI65838039
aS'-'
asS'AL671883.3'
p246
(lp247
I31356647
aI31357637
aS'+'
asS'RFX6'
p248
(lp249
I116877260
aI116932163
aS'+'
asS'AL355297.1'
p250
(lp251
I156662050
aI156662437
aS'+'
asS'HSPE1P21'
p252
(lp253
I133510386
aI133510693
aS'-'
asS'HSPE1P26'
p254
(lp255
I157924402
aI157924676
aS'+'
asS'FOXP4'
p256
(lp257
I41546426
aI41602384
aS'+'
asS'SERINC1'
p258
(lp259
I122443354
aI122471822
aS'-'
asS'KHDRBS2'
p260
(lp261
I61679960
aI62286227
aS'-'
asS'MDGA1'
p262
(lp263
I37630679
aI37697990
aS'-'
asS'DEFB114'
p264
(lp265
I49960249
aI49964105
aS'-'
asS'USP8P1'
p266
(lp267
I31275572
aI31278754
aS'+'
asS'DEFB112'
p268
(lp269
I50043575
aI50048651
aS'-'
asS'DEFB113'
p270
(lp271
I49968677
aI49969625
aS'-'
asS'DEFB110'
p272
(lp273
I50009138
aI50021935
aS'-'
asS'SNRPEP6'
p274
(lp275
I148567378
aI148567654
aS'-'
asS'TRAF3IP2'
p276
(lp277
I111556454
aI111606246
aS'-'
asS'AL365217.1'
p278
(lp279
I65302522
aI65304957
aS'+'
asS'FAM135A'
p280
(lp281
I70413308
aI70561174
aS'+'
asS'AL031133.1'
p282
(lp283
I149491567
aI149492289
aS'-'
asS'BVES'
p284
(lp285
I105096822
aI105137174
aS'-'
asS'NUDT3'
p286
(lp287
I34279679
aI34392674
aS'-'
asS'AL049693.1'
p288
(lp289
I50897615
aI50898225
aS'-'
asS'AL139806.1'
p290
(lp291
I85155667
aI85167749
aS'+'
asS'AL589674.2'
p292
(lp293
I142062717
aI142063053
aS'+'
asS'GJA1'
p294
(lp295
I121435692
aI121449727
aS'+'
asS'HNRNPA3P4'
p296
(lp297
I48149203
aI48150005
aS'-'
asS'TMEM217'
p298
(lp299
I37212181
aI37257636
aS'-'
asS'FCF1P5'
p300
(lp301
I111353702
aI111354183
aS'+'
asS'MDN1'
p302
(lp303
I89642499
aI89819723
aS'-'
asS'AL133388.1'
p304
(lp305
I70098390
aI70098676
aS'-'
asS'STK19B'
p306
(lp307
I32013270
aI32013787
aS'+'
asS'CRYBG1'
p308
(lp309
I106360808
aI106571978
aS'+'
asS'AL591516.1'
p310
(lp311
I107192300
aI107192573
aS'+'
asS'KRT18P1'
p312
(lp313
I28969130
aI28970460
aS'-'
asS'OR2W2P'
p314
(lp315
I28033947
aI28034855
aS'+'
asS'AL356277.1'
p316
(lp317
I74610449
aI74610715
aS'-'
asS'RSPH9'
p318
(lp319
I43645046
aI43672599
aS'+'
asS'TMEM14C'
p320
(lp321
I10722915
aI10731119
aS'+'
asS'TMEM14B'
p322
(lp323
I10747759
aI10852753
aS'+'
asS'TMEM14A'
p324
(lp325
I52671109
aI52686588
aS'+'
asS'RSPH3'
p326
(lp327
I158972871
aI159000187
aS'-'
asS'AFG1L'
p328
(lp329
I108294894
aI108526001
aS'+'
asS'TATDN2P2'
p330
(lp331
I158609706
aI158621636
aS'-'
asS'CLIC5'
p332
(lp333
I45898451
aI46080395
aS'-'
asS'PHACTR1'
p334
(lp335
I12716805
aI13290484
aS'+'
asS'PHACTR2'
p336
(lp337
I143536845
aI143824164
aS'+'
asS'TPMT'
p338
(lp339
I18128311
aI18155074
aS'-'
asS'PTCHD4'
p340
(lp341
I47878028
aI48068689
aS'-'
asS'LY6G5C'
p342
(lp343
I31676684
aI31684040
aS'-'
asS'LY6G5B'
p344
(lp345
I31670167
aI31673546
aS'+'
asS'FAM103A2P'
p346
(lp347
I166586124
aI166586477
aS'-'
asS'TCP1'
p348
(lp349
I159778498
aI159789749
aS'-'
asS'HLA-DPA1'
p350
(lp351
I33064569
aI33080710
aS'-'
asS'HLA-DPA3'
p352
(lp353
I33131216
aI33143325
aS'-'
asS'HLA-DPA2'
p354
(lp355
I33091753
aI33097295
aS'-'
asS'PPIAP9'
p356
(lp357
I31519480
aI31520291
aS'-'
asS'CEP57L1'
p358
(lp359
I109095153
aI109163932
aS'+'
asS'NFYA'
p360
(lp361
I41072945
aI41099976
aS'+'
asS'SMOC2'
p362
(lp363
I168441151
aI168667994
aS'+'
asS'SSR1P1'
p364
(lp365
I150384307
aI150385120
aS'-'
asS'CCDC167'
p366
(lp367
I37482920
aI37499922
aS'-'
asS'BDH2P1'
p368
(lp369
I99174744
aI99175479
aS'+'
asS'CDC5L'
p370
(lp371
I44387525
aI44450426
aS'+'
asS'HNRNPA1P49'
p372
(lp373
I166334568
aI166335471
aS'+'
asS'BOLA2P3'
p374
(lp375
I21602128
aI21602383
aS'+'
asS'FO393412.1'
p376
(lp377
I48701491
aI48701872
aS'-'
asS'PBX2'
p378
(lp379
I32184741
aI32190186
aS'-'
asS'TJAP1'
p380
(lp381
I43477523
aI43506556
aS'+'
asS'HCG4P8'
p382
(lp383
I29827385
aI29828364
aS'-'
asS'AL136100.1'
p384
(lp385
I165117195
aI165117524
aS'-'
asS'BCKDHB'
p386
(lp387
I80106647
aI80346270
aS'+'
asS'ZSCAN31'
p388
(lp389
I28324740
aI28356271
aS'-'
asS'CFAP206'
p390
(lp391
I87407983
aI87464465
aS'+'
asS'KHDC1'
p392
(lp393
I73241314
aI73310215
aS'-'
asS'AL139100.1'
p394
(lp395
I34744176
aI34744673
aS'+'
asS'KRT18P64'
p396
(lp397
I85287789
aI85289007
aS'+'
asS'KRT18P65'
p398
(lp399
I112361437
aI112362722
aS'-'
asS'AL035690.1'
p400
(lp401
I39039603
aI39039985
aS'-'
asS'TXNDC5'
p402
(lp403
I7881517
aI7910814
aS'-'
asS'MTND4LP20'
p404
(lp405
I153668589
aI153668858
aS'+'
asS'POM121L6P'
p406
(lp407
I26896952
aI26898777
aS'+'
asS'FAM46A'
p408
(lp409
I81491439
aI81751812
aS'-'
asS'PERP'
p410
(lp411
I138088505
aI138107511
aS'-'
asS'CUL9'
p412
(lp413
I43182175
aI43224587
aS'+'
asS'CCT7P1'
p414
(lp415
I149879962
aI149881572
aS'+'
asS'GLO1'
p416
(lp417
I38675925
aI38703141
aS'-'
asS'CUL7'
p418
(lp419
I43037620
aI43053945
aS'-'
asS'TRIM26'
p420
(lp421
I30184455
aI30213427
aS'-'
asS'TRIM27'
p422
(lp423
I28903002
aI28923989
aS'-'
asS'AL391669.1'
p424
(lp425
I138464099
aI138464383
aS'+'
asS'NDUFAB1P1'
p426
(lp427
I70734503
aI70734962
aS'+'
asS'BRD2'
p428
(lp429
I32968660
aI32981505
aS'+'
asS'LRFN2'
p430
(lp431
I40391586
aI40587465
aS'-'
asS'SLC22A16'
p432
(lp433
I110424687
aI110476641
aS'-'
asS'UTRN'
p434
(lp435
I144291829
aI144853034
aS'+'
asS'PNRC1'
p436
(lp437
I89080778
aI89085160
aS'+'
asS'AL353588.1'
p438
(lp439
I44273194
aI44378957
aS'+'
asS'ZSCAN9'
p440
(lp441
I28225275
aI28233466
aS'+'
asS'IFNGR1'
p442
(lp443
I137197484
aI137219449
aS'-'
asS'USP49'
p444
(lp445
I41789896
aI41894160
aS'-'
asS'SRSF3'
p446
(lp447
I36594368
aI36605600
aS'+'
asS'USP45'
p448
(lp449
I99432379
aI99515425
aS'-'
asS'KHDC1L'
p450
(lp451
I73223544
aI73225452
aS'-'
asS'Z85996.1'
p452
(lp453
I36737050
aI36737986
aS'+'
asS'KIF6'
p454
(lp455
I39329990
aI39725405
aS'-'
asS'HLA-DQB1'
p456
(lp457
I32659467
aI32668383
aS'-'
asS'HLA-DQB3'
p458
(lp459
I32730758
aI32731695
aS'-'
asS'HLA-DQB2'
p460
(lp461
I32756098
aI32763534
aS'-'
asS'ZNF192P2'
p462
(lp463
I28188050
aI28189432
aS'+'
asS'ZNF192P1'
p464
(lp465
I28161781
aI28169594
aS'+'
asS'RCN1P1'
p466
(lp467
I87121693
aI87122688
aS'-'
asS'AL591419.1'
p468
(lp469
I154605616
aI154605954
aS'-'
asS'HSPE1P11'
p470
(lp471
I35023522
aI35023831
aS'+'
asS'AL672212.1'
p472
(lp473
I41308166
aI41308565
aS'-'
asS'AL049842.1'
p474
(lp475
I66093431
aI66094909
aS'-'
asS'MRPL2'
p476
(lp477
I43054029
aI43059806
aS'-'
asS'BRD7P4'
p478
(lp479
I111430260
aI111431781
aS'+'
asS'RBBP4P4'
p480
(lp481
I58119741
aI58121029
aS'-'
asS'Z86062.1'
p482
(lp483
I100530276
aI100531052
aS'+'
asS'ALDH8A1'
p484
(lp485
I134917390
aI134950122
aS'-'
asS'SUMO2P13'
p486
(lp487
I17582034
aI17582305
aS'+'
asS'SUMO2P12'
p488
(lp489
I12319453
aI12319592
aS'+'
asS'WBP1LP8'
p490
(lp491
I170651012
aI170651338
aS'-'
asS'DDR1'
p492
(lp493
I30880849
aI30900154
aS'+'
asS'RBBP4P3'
p494
(lp495
I60873360
aI60874642
aS'-'
asS'MOG'
p496
(lp497
I29656981
aI29672372
aS'+'
asS'BAG2'
p498
(lp499
I57172326
aI57189833
aS'+'
asS'BAG6'
p500
(lp501
I31639028
aI31652705
aS'-'
asS'MTRF1L'
p502
(lp503
I152987362
aI153002685
aS'-'
asS'AL035555.1'
p504
(lp505
I38762905
aI38764694
aS'+'
asS'MLIP'
p506
(lp507
I54018916
aI54266280
aS'+'
asS'AL139098.2'
p508
(lp509
I121389324
aI121390357
aS'+'
asS'AL139098.1'
p510
(lp511
I121381472
aI121381860
aS'+'
asS'DEF6'
p512
(lp513
I35297852
aI35321771
aS'+'
asS'PGBD1'
p514
(lp515
I28281572
aI28302549
aS'+'
asS'LY6G6C'
p516
(lp517
I31718648
aI31721845
aS'-'
asS'LY6G6D'
p518
(lp519
I31715356
aI31717804
aS'+'
asS'LY6G6E'
p520
(lp521
I31711771
aI31714065
aS'-'
asS'LY6G6F'
p522
(lp523
I31706885
aI31710595
aS'+'
asS'C2'
p524
(lp525
I31897785
aI31945521
aS'+'
asS'ATAT1'
p526
(lp527
I30626856
aI30646823
aS'+'
asS'AL365232.1'
p528
(lp529
I73209746
aI73263196
aS'-'
asS'SRF'
p530
(lp531
I43171299
aI43181507
aS'+'
asS'ZNF322'
p532
(lp533
I26634383
aI26659752
aS'-'
asS'PRKN'
p534
(lp535
I161347420
aI162727771
aS'-'
asS'AKIRIN2'
p536
(lp537
I87675072
aI87702209
aS'-'
asS'TAPBP'
p538
(lp539
I33299694
aI33314387
aS'-'
asS'AGPAT4'
p540
(lp541
I161129979
aI161274025
aS'-'
asS'RFPL4B'
p542
(lp543
I112347330
aI112351296
aS'+'
asS'AGPAT1'
p544
(lp545
I32168212
aI32178096
aS'-'
asS'AL138825.1'
p546
(lp547
I18304854
aI18305045
aS'-'
asS'KRT18P38'
p548
(lp549
I19612755
aI19614036
aS'+'
asS'CSNK2B'
p550
(lp551
I31665236
aI31670070
aS'+'
asS'OR2J1'
p552
(lp553
I29100609
aI29101881
aS'+'
asS'OR2J2'
p554
(lp555
I29173303
aI29174574
aS'+'
asS'OR2J3'
p556
(lp557
I29111891
aI29112826
aS'+'
asS'VARS'
p558
(lp559
I31777518
aI31795953
aS'-'
asS'RNF39'
p560
(lp561
I30070266
aI30075887
aS'-'
asS'HMGB1P17'
p562
(lp563
I135636086
aI135636713
aS'-'
asS'FOXO3'
p564
(lp565
I108559835
aI108684774
aS'+'
asS'AL391840.1'
p566
(lp567
I79552794
aI79553160
aS'+'
asS'HMGA1P7'
p568
(lp569
I134115235
aI134115736
aS'-'
asS'GCNT6'
p570
(lp571
I10633762
aI10634695
aS'+'
asS'PRICKLE4'
p572
(lp573
I41780762
aI41787372
aS'+'
asS'AL096800.1'
p574
(lp575
I7938430
aI7939322
aS'-'
asS'GCNT2'
p576
(lp577
I10492223
aI10627222
aS'+'
asS'AL590867.2'
p578
(lp579
I153282287
aI153282733
aS'-'
asS'SLC16A10'
p580
(lp581
I111087578
aI111223020
aS'+'
asS'ATG5'
p582
(lp583
I106045423
aI106325762
aS'-'
asS'EYA4'
p584
(lp585
I133241351
aI133532120
aS'+'
asS'AL121972.1'
p586
(lp587
I73618346
aI73618597
aS'+'
asS'TDRD6'
p588
(lp589
I46687875
aI46704319
aS'+'
asS'RPS18P9'
p590
(lp591
I149594084
aI149594543
aS'+'
asS'MTHFD2P2'
p592
(lp593
I87000045
aI87000291
aS'-'
asS'AL096711.1'
p594
(lp595
I127435636
aI127436189
aS'+'
asS'ZUFSP'
p596
(lp597
I116635618
aI116668794
aS'-'
asS'RMND1'
p598
(lp599
I151404763
aI151452181
aS'-'
asS'AL117344.1'
p600
(lp601
I157372556
aI157373171
aS'-'
asS'CCDC170'
p602
(lp603
I151494030
aI151621193
aS'+'
asS'AL117342.1'
p604
(lp605
I90116700
aI90117105
aS'-'
asS'FAM26F'
p606
(lp607
I116461370
aI116463768
aS'+'
asS'FAM26D'
p608
(lp609
I116529032
aI116558868
aS'+'
asS'FAM26E'
p610
(lp611
I116511646
aI116524792
aS'+'
asS'ANKRD18EP'
p612
(lp613
I39110321
aI39112952
aS'+'
asS'PDCL3P5'
p614
(lp615
I150827663
aI150828384
aS'+'
asS'AL121932.1'
p616
(lp617
I28633381
aI28633594
aS'-'
asS'MSH5-SAPCD1'
p618
(lp619
I31740020
aI31764850
aS'+'
asS'OGFRL1'
p620
(lp621
I71288803
aI71308950
aS'+'
asS'ZFAND3'
p622
(lp623
I37819499
aI38154624
aS'+'
asS'C6orf10'
p624
(lp625
I32288526
aI32371899
aS'-'
asS'AL590617.1'
p626
(lp627
I138650226
aI138650973
aS'-'
asS'C6orf15'
p628
(lp629
I31111223
aI31112559
aS'-'
asS'SMAP1'
p630
(lp631
I70667776
aI70862015
aS'+'
asS'HSP90AB1'
p632
(lp633
I44246166
aI44253888
aS'+'
asS'PTP4A1'
p634
(lp635
I63521761
aI63576582
aS'+'
asS'ZSCAN26'
p636
(lp637
I28267010
aI28278221
aS'+'
asS'ZSCAN23'
p638
(lp639
I28431930
aI28443480
aS'-'
asS'OR4F7P'
p640
(lp641
I170639606
aI170640536
aS'+'
asS'AL078604.3'
p642
(lp643
I159555964
aI159556174
aS'+'
asS'AL078604.1'
p644
(lp645
I159526062
aI159526527
aS'-'
asS'COL19A1'
p646
(lp647
I69866571
aI70209976
aS'+'
asS'CD24'
p648
(lp649
I106969831
aI106975465
aS'-'
asS'AL121956.5'
p650
(lp651
I166229334
aI166229554
aS'+'
asS'MYLIP'
p652
(lp653
I16129171
aI16148248
aS'+'
asS'UBR2'
p654
(lp655
I42564062
aI42693504
aS'+'
asS'BMP6'
p656
(lp657
I7726797
aI7881422
aS'+'
asS'BMP5'
p658
(lp659
I55753645
aI55875564
aS'-'
asS'GPR6'
p660
(lp661
I109978256
aI109980718
aS'+'
asS'AMD1P4'
p662
(lp663
I11861626
aI11862970
aS'-'
asS'ATP6V1G2-DDX39B'
p664
(lp665
I31530219
aI31546582
aS'-'
asS'ULBP2'
p666
(lp667
I149942000
aI149949235
aS'+'
asS'ULBP3'
p668
(lp669
I150063150
aI150069095
aS'-'
asS'AL139274.1'
p670
(lp671
I87173368
aI87174303
aS'-'
asS'CCNC'
p672
(lp673
I99542380
aI99568973
aS'-'
asS'AL583856.1'
p674
(lp675
I70608234
aI70609334
aS'-'
asS'EGFL8'
p676
(lp677
I32164583
aI32168281
aS'+'
asS'IL20RA'
p678
(lp679
I136999971
aI137045180
aS'-'
asS'TRIM39'
p680
(lp681
I30326844
aI30343729
aS'+'
asS'TRIM38'
p682
(lp683
I25962802
aI25991226
aS'+'
asS'FCF1P10'
p684
(lp685
I113010937
aI113011415
aS'+'
asS'SRP72P2'
p686
(lp687
I158237336
aI158242797
aS'-'
asS'OR2H1'
p688
(lp689
I29457181
aI29464328
aS'+'
asS'AL133270.1'
p690
(lp691
I23649496
aI23649774
aS'+'
asS'WISP3'
p692
(lp693
I112054072
aI112070969
aS'+'
asS'CAP2'
p694
(lp695
I17393216
aI17557792
aS'+'
asS'AL357515.1'
p696
(lp697
I110923566
aI110924107
aS'+'
asS'AL449363.1'
p698
(lp699
I134009033
aI134009218
aS'+'
asS'PTCHD3P3'
p700
(lp701
I109288571
aI109290503
aS'-'
asS'IL22RA2'
p702
(lp703
I137143820
aI137173648
aS'-'
asS'MRPL14'
p704
(lp705
I44113454
aI44127457
aS'-'
asS'MRPL18'
p706
(lp707
I159789812
aI159798313
aS'+'
asS'ULBP1'
p708
(lp709
I149964007
aI149973710
aS'+'
asS'NPM1P38'
p710
(lp711
I100050372
aI100051236
aS'-'
asS'CCRL1P1'
p712
(lp713
I138822747
aI138823799
aS'+'
asS'ITPR3'
p714
(lp715
I33620365
aI33696574
aS'+'
asS'EFHC1'
p716
(lp717
I52362138
aI52492399
aS'+'
asS'FO393415.2'
p718
(lp719
I113839279
aI113839621
aS'+'
asS'AL080285.1'
p720
(lp721
I100177209
aI100178192
aS'+'
asS'AL080285.2'
p722
(lp723
I100093311
aI100093768
aS'-'
asS'PRDM13'
p724
(lp725
I99606774
aI99615578
aS'+'
asS'ASCC3'
p726
(lp727
I100508194
aI100881364
aS'-'
asS'UQCC2'
p728
(lp729
I33695349
aI33711684
aS'-'
asS'KDM1B'
p730
(lp731
I18155452
aI18223853
aS'+'
asS'FAM120B'
p732
(lp733
I170290703
aI170405348
aS'+'
asS'OR11A1'
p734
(lp735
I29425504
aI29457071
aS'-'
asS'MAPK14'
p736
(lp737
I36027711
aI36111236
aS'+'
asS'FAM217A'
p738
(lp739
I4050461
aI4087332
aS'-'
asS'AL031229.1'
p740
(lp741
I27652602
aI27652825
aS'-'
asS'PKMP3'
p742
(lp743
I85659892
aI85660606
aS'-'
asS'PKMP5'
p744
(lp745
I5972412
aI5974012
aS'+'
asS'GJA10'
p746
(lp747
I89894469
aI89921163
aS'+'
asS'QRSL1'
p748
(lp749
I106629578
aI106668417
aS'+'
asS'REPS1'
p750
(lp751
I138903493
aI138988257
aS'-'
asS'RPS2P28'
p752
(lp753
I43363479
aI43364219
aS'+'
asS'TMEM30A'
p754
(lp755
I75252924
aI75284968
aS'-'
asS'AL671855.1'
p756
(lp757
I30186798
aI30188614
aS'-'
asS'UBE2V1P15'
p758
(lp759
I75465123
aI75465570
aS'+'
asS'HIST1H1T'
p760
(lp761
I26107419
aI26108136
aS'-'
asS'LARP1P1'
p762
(lp763
I26164072
aI26164363
aS'+'
asS'ETF1P1'
p764
(lp765
I30031713
aI30033003
aS'+'
asS'RPL21P65'
p766
(lp767
I106642463
aI106642928
aS'+'
asS'HIST1H1E'
p768
(lp769
I26156354
aI26157107
aS'+'
asS'RPL21P67'
p770
(lp771
I131469059
aI131469536
aS'+'
asS'RPL21P66'
p772
(lp773
I132518830
aI132519295
aS'-'
asS'HIST1H1A'
p774
(lp775
I26017085
aI26017732
aS'-'
asS'HIST1H1B'
p776
(lp777
I27866849
aI27867529
aS'-'
asS'HIST1H1C'
p778
(lp779
I26055787
aI26056428
aS'-'
asS'CTGF'
p780
(lp781
I131948176
aI131951373
aS'-'
asS'PSMB9'
p782
(lp783
I32844136
aI32859585
aS'+'
asS'PSMB8'
p784
(lp785
I32840717
aI32844703
aS'-'
asS'AL133475.1'
p786
(lp787
I79964215
aI79964519
aS'+'
asS'HIVEP1'
p788
(lp789
I12012338
aI12164999
aS'+'
asS'PSMB1'
p790
(lp791
I170535117
aI170553341
aS'-'
asS'ZNF311'
p792
(lp793
I28994785
aI29005316
aS'-'
asS'GNMT'
p794
(lp795
I42960758
aI42963880
aS'+'
asS'ZNF318'
p796
(lp797
I43311133
aI43369478
aS'-'
asS'MANEA'
p798
(lp799
I95577543
aI95609457
aS'+'
asS'HIST1H2AM'
p800
(lp801
I27892757
aI27893149
aS'-'
asS'HIST1H2AL'
p802
(lp803
I27865355
aI27865747
aS'+'
asS'HIST1H2AI'
p804
(lp805
I27808199
aI27808701
aS'+'
asS'HIST1H2AH'
p806
(lp807
I27147129
aI27147515
aS'+'
asS'HIST1H2AK'
p808
(lp809
I27837947
aI27838339
aS'-'
asS'HIST1H2AJ'
p810
(lp811
I27814354
aI27814740
aS'-'
asS'HIST1H2AE'
p812
(lp813
I26216975
aI26217483
aS'+'
asS'HIST1H2AD'
p814
(lp815
I26198851
aI26199243
aS'-'
asS'HIST1H2AG'
p816
(lp817
I27133042
aI27135291
aS'+'
asS'HIST1H2AA'
p818
(lp819
I25726132
aI25726527
aS'-'
asS'HIST1H2AC'
p820
(lp821
I26124145
aI26139116
aS'+'
asS'HIST1H2AB'
p822
(lp823
I26033176
aI26033568
aS'-'
asS'RPL12P23'
p824
(lp825
I170199769
aI170200258
aS'+'
asS'GAPDHP63'
p826
(lp827
I79953005
aI79954011
aS'-'
asS'KCNK5'
p828
(lp829
I39188973
aI39229450
aS'-'
asS'NUP43'
p830
(lp831
I149724315
aI149746572
aS'-'
asS'AL136087.1'
p832
(lp833
I39353747
aI39354172
aS'+'
asS'ACOT13'
p834
(lp835
I24667035
aI24705065
aS'+'
asS'SDCBP2P1'
p836
(lp837
I73322837
aI73323450
aS'+'
asS'AL356432.3'
p838
(lp839
I127659424
aI127660338
aS'+'
asS'GTF2H5'
p840
(lp841
I158168352
aI158199344
aS'+'
asS'GTF2H4'
p842
(lp843
I30908184
aI30914106
aS'+'
asS'AL353597.3'
p844
(lp845
I37543553
aI37546755
aS'-'
asS'BTF3P7'
p846
(lp847
I6794915
aI6795402
aS'-'
asS'AL627422.1'
p848
(lp849
I158921271
aI158922150
aS'-'
asS'ABCC10'
p850
(lp851
I43427554
aI43450430
aS'+'
asS'AL365503.1'
p852
(lp853
I67456346
aI67457250
aS'-'
asS'TAB2'
p854
(lp855
I149218641
aI149378529
aS'+'
asS'TUBB2BP1'
p856
(lp857
I3177044
aI3179764
aS'-'
asS'RPL35P3'
p858
(lp859
I105302453
aI105302823
aS'-'
asS'RPL35P2'
p860
(lp861
I34263311
aI34263673
aS'-'
asS'AL589935.2'
p862
(lp863
I71251758
aI71252988
aS'+'
asS'TAP1'
p864
(lp865
I32845209
aI32853978
aS'-'
asS'TAP2'
p866
(lp867
I32821833
aI32838727
aS'-'
asS'AL356432.2'
p868
(lp869
I127659690
aI127660579
aS'-'
asS'SUMO4'
p870
(lp871
I149400227
aI149401292
aS'+'
asS'AL356432.1'
p872
(lp873
I127654860
aI127655278
aS'-'
asS'SNAP91'
p874
(lp875
I83552880
aI83709691
aS'-'
asS'MOCS1'
p876
(lp877
I39899578
aI39932432
aS'-'
asS'KIAA0319'
p878
(lp879
I24544104
aI24646155
aS'-'
asS'BLOC1S5'
p880
(lp881
I8013567
aI8064414
aS'-'
asS'OARD1'
p882
(lp883
I41033627
aI41071217
aS'-'
asS'SMIM11P1'
p884
(lp885
I85735744
aI85735921
aS'-'
asS'RPL15P3'
p886
(lp887
I12514110
aI12514724
aS'+'
asS'HIST1H2BC'
p888
(lp889
I26114873
aI26123910
aS'-'
asS'SKIV2L'
p890
(lp891
I31959080
aI31969755
aS'+'
asS'AL136139.1'
p892
(lp893
I11154929
aI11155150
aS'-'
asS'LMBRD1'
p894
(lp895
I69675802
aI69797111
aS'-'
asS'FGFR3P1'
p896
(lp897
I31377419
aI31378019
aS'+'
asS'B3GALT4'
p898
(lp899
I33278688
aI33284832
aS'+'
asS'RPS16P5'
p900
(lp901
I53336943
aI53337346
aS'-'
asS'AL021997.3'
p902
(lp903
I28267121
aI28281580
aS'+'
asS'AL021997.2'
p904
(lp905
I28315613
aI28315883
aS'-'
asS'AL021997.1'
p906
(lp907
I28319660
aI28319852
aS'-'
asS'RPS3AP24'
p908
(lp909
I140761529
aI140762262
aS'+'
asS'TMEM63B'
p910
(lp911
I44126914
aI44155519
aS'+'
asS'AKAP7'
p912
(lp913
I131135666
aI131283535
aS'+'
asS'AL157823.1'
p914
(lp915
I35765908
aI35766927
aS'+'
asS'HNRNPLP1'
p916
(lp917
I7481094
aI7482594
aS'-'
asS'HMGN2P28'
p918
(lp919
I2341450
aI2341711
aS'+'
asS'RPS7P8'
p920
(lp921
I96648489
aI96649069
aS'-'
asS'ZSCAN12'
p922
(lp923
I28378955
aI28399734
aS'-'
asS'ARHGAP18'
p924
(lp925
I129576132
aI129710225
aS'-'
asS'ZSCAN16'
p926
(lp927
I28124560
aI28130082
aS'+'
asS'AL109918.1'
p928
(lp929
I52665148
aI52669155
aS'+'
asS'NRSN1'
p930
(lp931
I24128143
aI24154900
aS'+'
asS'POLR1C'
p932
(lp933
I43517089
aI43529585
aS'+'
asS'TREML5P'
p934
(lp935
I41247369
aI41249649
aS'+'
asS'WDR46'
p936
(lp937
I33279108
aI33289527
aS'-'
asS'AL356967.1'
p938
(lp939
I104687241
aI104687671
aS'+'
asS'GRM4'
p940
(lp941
I34021854
aI34155622
aS'-'
asS'CD83P1'
p942
(lp943
I27560822
aI27561744
aS'-'
asS'GRM1'
p944
(lp945
I146027782
aI146437598
aS'+'
asS'LINC00680'
p946
(lp947
I57946074
aI57961501
aS'-'
asS'PPP1R3G'
p948
(lp949
I5084581
aI5089487
aS'+'
asS'SENP6'
p950
(lp951
I75602047
aI75718278
aS'+'
asS'DST'
p952
(lp953
I56457989
aI56851916
aS'-'
asS'DSP'
p954
(lp955
I7541575
aI7586717
aS'+'
asS'BICRAL'
p956
(lp957
I42746958
aI42868390
aS'+'
asS'PPARD'
p958
(lp959
I35342558
aI35428191
aS'+'
asS'DSE'
p960
(lp961
I116254173
aI116426589
aS'+'
asS'DCDC2'
p962
(lp963
I24171756
aI24358052
aS'-'
asS'GLYATL3'
p964
(lp965
I49499958
aI49527047
aS'+'
asS'SPDEF'
p966
(lp967
I34537802
aI34556333
aS'-'
asS'RING1'
p968
(lp969
I33208495
aI33212722
aS'+'
asS'AL132671.2'
p970
(lp971
I117318211
aI117573571
aS'-'
asS'ECHDC1'
p972
(lp973
I127288710
aI127343609
aS'-'
asS'CYP21A1P'
p974
(lp975
I32005636
aI32008451
aS'+'
asS'CEP85L'
p976
(lp977
I118460781
aI118710075
aS'-'
asS'TPI1P3'
p978
(lp979
I116038756
aI116039495
aS'+'
asS'RHAG'
p980
(lp981
I49605158
aI49636839
aS'-'
asS'NRN1'
p982
(lp983
I5998002
aI6007605
aS'-'
asS'SLC2A12'
p984
(lp985
I133988697
aI134052636
aS'-'
asS'YWHAZP4'
p986
(lp987
I127355756
aI127356789
aS'+'
asS'BCLAF1'
p988
(lp989
I136256627
aI136289847
aS'-'
asS'LHFPL5'
p990
(lp991
I35811245
aI35833874
aS'+'
asS'AL590824.1'
p992
(lp993
I80555841
aI80557189
aS'-'
asS'AL603766.1'
p994
(lp995
I149112009
aI149112672
aS'-'
asS'OR4F1P'
p996
(lp997
I105919
aI106856
aS'-'
asS'NCOA7'
p998
(lp999
I125781161
aI125931111
aS'+'
asS'SLC22A23'
p1000
(lp1001
I3268962
aI3457022
aS'-'
asS'ACAT2'
p1002
(lp1003
I159760328
aI159779055
aS'+'
asS'RIMS1'
p1004
(lp1005
I71887024
aI72403143
aS'+'
asS'AL355375.2'
p1006
(lp1007
I62611153
aI62611327
aS'-'
asS'AL355375.1'
p1008
(lp1009
I62547427
aI62548272
aS'+'
asS'CARMIL1'
p1010
(lp1011
I25279428
aI25620530
aS'+'
asS'IFITM4P'
p1012
(lp1013
I29750729
aI29751148
aS'-'
asS'PDE10A'
p1014
(lp1015
I165543533
aI165986603
aS'-'
asS'AK9'
p1016
(lp1017
I109492856
aI109691212
aS'-'
asS'SLC17A4'
p1018
(lp1019
I25754699
aI25781191
aS'+'
asS'SLC17A5'
p1020
(lp1021
I73593379
aI73654155
aS'-'
asS'AL713998.2'
p1022
(lp1023
I67933485
aI67934682
aS'+'
asS'TBCC'
p1024
(lp1025
I42744481
aI42746096
aS'-'
asS'SLC17A1'
p1026
(lp1027
I25782897
aI25832059
aS'-'
asS'SLC17A2'
p1028
(lp1029
I25912763
aI25930726
aS'-'
asS'SLC17A3'
p1030
(lp1031
I25845100
aI25882286
aS'-'
asS'MRAP2'
p1032
(lp1033
I84033756
aI84090881
aS'+'
asS'CMTR1'
p1034
(lp1035
I37433220
aI37481506
aS'+'
asS'WRNIP1'
p1036
(lp1037
I2766052
aI2786952
aS'+'
asS'CDK19'
p1038
(lp1039
I110609978
aI110815637
aS'-'
asS'GJB7'
p1040
(lp1041
I87282978
aI87329278
aS'-'
asS'AL109933.4'
p1042
(lp1043
I160755398
aI160757518
aS'-'
asS'MTRNR2L9'
p1044
(lp1045
I61574328
aI61574402
aS'+'
asS'KRT8P44'
p1046
(lp1047
I162568379
aI162569728
aS'+'
asS'MDC1'
p1048
(lp1049
I30699807
aI30717889
aS'-'
asS'NCR3'
p1050
(lp1051
I31588895
aI31592985
aS'-'
asS'SIM1'
p1052
(lp1053
I100385015
aI100464929
aS'-'
asS'PRSS16'
p1054
(lp1055
I27247701
aI27256453
aS'+'
asS'HTATSF1P1'
p1056
(lp1057
I33237799
aI33239690
aS'+'
asS'AL645939.4'
p1058
(lp1059
I29763258
aI29763392
aS'-'
asS'AL590290.1'
p1060
(lp1061
I55680642
aI55681021
aS'-'
asS'MRPL42P2'
p1062
(lp1063
I16171606
aI16172031
aS'+'
asS'AL135903.1'
p1064
(lp1065
I85286076
aI85290849
aS'+'
asS'HIST1H1PS1'
p1066
(lp1067
I26195554
aI26196633
aS'+'
asS'RAP1BP3'
p1068
(lp1069
I117431591
aI117432442
aS'+'
asS'AL135905.1'
p1070
(lp1071
I63548708
aI63549508
aS'-'
asS'FUCA2'
p1072
(lp1073
I143494811
aI143511690
aS'-'
asS'SYCP2L'
p1074
(lp1075
I10886831
aI10974309
aS'+'
asS'SUCLA2P1'
p1076
(lp1077
I30468882
aI30470251
aS'+'
asS'RSPH4A'
p1078
(lp1079
I116616479
aI116632985
aS'+'
asS'MICG'
p1080
(lp1081
I29812565
aI29812696
aS'-'
asS'MICF'
p1082
(lp1083
I29852363
aI29852491
aS'-'
asS'MICE'
p1084
(lp1085
I29741731
aI29748969
aS'-'
asS'MICD'
p1086
(lp1087
I29970801
aI29972464
aS'-'
asS'MICC'
p1088
(lp1089
I30414715
aI30419319
aS'+'
asS'MICB'
p1090
(lp1091
I31494881
aI31511123
aS'+'
asS'MICA'
p1092
(lp1093
I31399784
aI31415313
aS'+'
asS'AL590286.1'
p1094
(lp1095
I162957258
aI162957548
aS'-'
asS'GNL1'
p1096
(lp1097
I30541377
aI30557174
aS'-'
asS'FNDC1'
p1098
(lp1099
I159169397
aI159272109
aS'+'
asS'EEF1A1P42'
p1100
(lp1101
I49358185
aI49360420
aS'-'
asS'ARMC12'
p1102
(lp1103
I35737087
aI35749079
aS'+'
asS'GINM1'
p1104
(lp1105
I149566294
aI149591748
aS'+'
asS'MAS1L'
p1106
(lp1107
I29486697
aI29487956
aS'-'
asS'AL450336.1'
p1108
(lp1109
I66710242
aI66710827
aS'-'
asS'DAAM2'
p1110
(lp1111
I39792366
aI39904868
aS'+'
asS'HLA-DRB1'
p1112
(lp1113
I32578769
aI32589848
aS'-'
asS'HLA-DRB6'
p1114
(lp1115
I32552713
aI32560002
aS'-'
asS'HLA-DRB5'
p1116
(lp1117
I32517343
aI32530287
aS'-'
asS'NDUFS5P1'
p1118
(lp1119
I136475862
aI136476150
aS'-'
asS'COPS5P1'
p1120
(lp1121
I93091976
aI93092760
aS'-'
asS'MTCH1'
p1122
(lp1123
I36968141
aI36986298
aS'-'
asS'AC244258.1'
p1124
(lp1125
I60281444
aI60544955
aS'+'
asS'Z97832.1'
p1126
(lp1127
I35279177
aI35279819
aS'-'
asS'PLAGL1'
p1128
(lp1129
I143940302
aI144064599
aS'-'
asS'MEP1A'
p1130
(lp1131
I46793390
aI46839778
aS'+'
asS'RBMXP1'
p1132
(lp1133
I48213604
aI48214794
aS'-'
asS'MAPK13'
p1134
(lp1135
I36130484
aI36144524
aS'+'
asS'KATNA1'
p1136
(lp1137
I149594877
aI149648804
aS'-'
asS'E2F4P1'
p1138
(lp1139
I39553811
aI39554943
aS'+'
asS'OPN5'
p1140
(lp1141
I47781982
aI47832780
aS'+'
asS'CTAGE13P'
p1142
(lp1143
I168286905
aI168289350
aS'-'
asS'AL583835.1'
p1144
(lp1145
I149951833
aI149952239
aS'+'
asS'TULP1'
p1146
(lp1147
I35497874
aI35512938
aS'-'
asS'NANOGP3'
p1148
(lp1149
I53418452
aI53418737
aS'-'
asS'TULP4'
p1150
(lp1151
I158312488
aI158511828
aS'+'
asS'C6orf141'
p1152
(lp1153
I49550675
aI49561907
aS'+'
asS'SSXP10'
p1154
(lp1155
I118589070
aI118589634
aS'+'
asS'PPP1R14C'
p1156
(lp1157
I150143076
aI150250357
aS'+'
asS'TCTE3'
p1158
(lp1159
I169740114
aI169751559
aS'-'
asS'TCTE1'
p1160
(lp1161
I44278743
aI44297688
aS'-'
asS'KRT18P50'
p1162
(lp1163
I95991107
aI95992349
aS'+'
asS'AL512430.2'
p1164
(lp1165
I110700562
aI110700900
aS'+'
asS'AL512430.3'
p1166
(lp1167
I110562175
aI110562615
aS'-'
asS'PPP1R14BP5'
p1168
(lp1169
I126257921
aI126258355
aS'-'
asS'AL512430.4'
p1170
(lp1171
I110598093
aI110598705
aS'+'
asS'HDGFL1'
p1172
(lp1173
I22569493
aI22571666
aS'+'
asS'TBC1D32'
p1174
(lp1175
I121080237
aI121334478
aS'-'
asS'VPS52'
p1176
(lp1177
I33250272
aI33272047
aS'-'
asS'GUCA1A'
p1178
(lp1179
I42155406
aI42180049
aS'+'
asS'EEF1E1'
p1180
(lp1181
I8073360
aI8102548
aS'-'
asS'CDKAL1'
p1182
(lp1183
I20534457
aI21232404
aS'+'
asS'GUCA1B'
p1184
(lp1185
I42184401
aI42194916
aS'-'
asS'HNRNPH1P1'
p1186
(lp1187
I159712801
aI159713985
aS'-'
asS'AL603755.1'
p1188
(lp1189
I58386799
aI58386961
aS'+'
asS'FAM136BP'
p1190
(lp1191
I3045384
aI3045800
aS'+'
asS'HLFP1'
p1192
(lp1193
I132674885
aI132675383
aS'+'
asS'STXBP5'
p1194
(lp1195
I147204425
aI147390476
aS'+'
asS'SMPD2'
p1196
(lp1197
I109440763
aI109443919
aS'+'
asS'AL669830.1'
p1198
(lp1199
I30961403
aI30962396
aS'-'
asS'UBDP1'
p1200
(lp1201
I29464596
aI29469806
aS'-'
asS'MTCO3P31'
p1202
(lp1203
I153667318
aI153668106
aS'+'
asS'OSTM1'
p1204
(lp1205
I108044831
aI108165840
aS'-'
asS'AL121955.1'
p1206
(lp1207
I11015586
aI11015888
aS'+'
asS'TMEM200A'
p1208
(lp1209
I130365734
aI130443063
aS'+'
asS'AL109918.3'
p1210
(lp1211
I52688661
aI52688998
aS'+'
asS'AL109918.2'
p1212
(lp1213
I52657373
aI52657651
aS'+'
asS'FANCE'
p1214
(lp1215
I35452361
aI35467103
aS'+'
asS'FUNDC2P3'
p1216
(lp1217
I146171315
aI146171847
aS'+'
asS'AL033523.1'
p1218
(lp1219
I3693923
aI3694075
aS'-'
asS'AL031119.1'
p1220
(lp1221
I145489630
aI145492092
aS'-'
asS'FRK'
p1222
(lp1223
I115931149
aI116060758
aS'-'
asS'AL589826.1'
p1224
(lp1225
I98780257
aI98780505
aS'-'
asS'PHIP'
p1226
(lp1227
I78935867
aI79078236
aS'-'
asS'MRPS18A'
p1228
(lp1229
I43671303
aI43687791
aS'-'
asS'MRPS18B'
p1230
(lp1231
I30617709
aI30626395
aS'+'
asS'FAXC'
p1232
(lp1233
I99271169
aI99349655
aS'-'
asS'TUBB4BP7'
p1234
(lp1235
I152898047
aI152899280
aS'+'
asS'GRIK2'
p1236
(lp1237
I101398788
aI102070083
aS'+'
asS'AL035698.1'
p1238
(lp1239
I146364931
aI146365494
aS'-'
asS'ARMT1'
p1240
(lp1241
I151452258
aI151470097
aS'+'
asS'CBX3P9'
p1242
(lp1243
I116453014
aI116453565
aS'-'
asS'AL079341.1'
p1244
(lp1245
I38587323
aI38588529
aS'+'
asS'RNF146'
p1246
(lp1247
I127266610
aI127288558
aS'+'
asS'AL080315.1'
p1248
(lp1249
I128639188
aI128639653
aS'-'
asS'PTK7'
p1250
(lp1251
I43076268
aI43161719
aS'+'
asS'SF3B5'
p1252
(lp1253
I144094881
aI144095573
aS'-'
asS'AL645937.5'
p1254
(lp1255
I29215236
aI29216179
aS'+'
asS'MSH5'
p1256
(lp1257
I31739948
aI31762834
aS'+'
asS'AL589666.1'
p1258
(lp1259
I85557978
aI85615234
aS'-'
asS'AL138721.1'
p1260
(lp1261
I35070871
aI35071049
aS'-'
asS'RGL2'
p1262
(lp1263
I33291654
aI33299324
aS'-'
asS'PSMC1P11'
p1264
(lp1265
I4702463
aI4703779
aS'+'
asS'SUPT3H'
p1266
(lp1267
I44809317
aI45377953
aS'-'
asS'NFKBIL1'
p1268
(lp1269
I31546870
aI31558829
aS'+'
asS'AL591135.1'
p1270
(lp1271
I80064286
aI80070199
aS'-'
asS'LY86'
p1272
(lp1273
I6588108
aI6654983
aS'+'
asS'PACSIN1'
p1274
(lp1275
I34466061
aI34535221
aS'+'
asS'ASF1A'
p1276
(lp1277
I118894220
aI118909167
aS'+'
asS'AMD1'
p1278
(lp1279
I110874770
aI110895713
aS'+'
asS'MLN'
p1280
(lp1281
I33794673
aI33804011
aS'-'
asS'RPL12P1'
p1282
(lp1283
I33400059
aI33400556
aS'-'
asS'RPL12P2'
p1284
(lp1285
I37091314
aI37091806
aS'+'
asS'HIST1H3B'
p1286
(lp1287
I26031650
aI26032060
aS'-'
asS'HIST1H3C'
p1288
(lp1289
I26045411
aI26045821
aS'+'
asS'HIST1H3A'
p1290
(lp1291
I26020490
aI26020900
aS'+'
asS'HIST1H3F'
p1292
(lp1293
I26250195
aI26250605
aS'-'
asS'HIST1H3G'
p1294
(lp1295
I26269405
aI26271815
aS'-'
asS'HIST1H3D'
p1296
(lp1297
I26195595
aI26199293
aS'-'
asS'HIST1H3E'
p1298
(lp1299
I26224199
aI26227473
aS'+'
asS'HIST1H3J'
p1300
(lp1301
I27890635
aI27893106
aS'-'
asS'SNAPC5P1'
p1302
(lp1303
I6347081
aI6347381
aS'-'
asS'HIST1H3H'
p1304
(lp1305
I27810064
aI27811300
aS'+'
asS'HIST1H3I'
p1306
(lp1307
I27871905
aI27872315
aS'-'
asS'SCML4'
p1308
(lp1309
I107704104
aI107824317
aS'-'
asS'PM20D2'
p1310
(lp1311
I89146050
aI89165565
aS'+'
asS'NRM'
p1312
(lp1313
I30688047
aI30691420
aS'-'
asS'CCDC28A'
p1314
(lp1315
I138773509
aI138793317
aS'+'
asS'YAP1P1'
p1316
(lp1317
I147406889
aI147408281
aS'+'
asS'AL645941.2'
p1318
(lp1319
I32937364
aI32953122
aS'-'
asS'RAET1E'
p1320
(lp1321
I149883375
aI149896059
aS'-'
asS'UBE2J1'
p1322
(lp1323
I89326625
aI89352848
aS'-'
asS'RAET1G'
p1324
(lp1325
I149916878
aI149923078
aS'-'
asS'RAET1K'
p1326
(lp1327
I149998019
aI150005144
aS'-'
asS'RAET1M'
p1328
(lp1329
I150032769
aI150033566
aS'+'
asS'RAET1L'
p1330
(lp1331
I150018334
aI150025471
aS'-'
asS'PPIL1'
p1332
(lp1333
I36854827
aI36875024
aS'-'
asS'PPIL4'
p1334
(lp1335
I149504733
aI149546038
aS'-'
asS'PPIL6'
p1336
(lp1337
I109390215
aI109441171
aS'-'
asS'OR2W4P'
p1338
(lp1339
I27977150
aI27978075
aS'+'
asS'SFTA2'
p1340
(lp1341
I30931362
aI30955636
aS'-'
asS'TOMM6'
p1342
(lp1343
I41787662
aI41789898
aS'+'
asS'MAP3K7'
p1344
(lp1345
I90513573
aI90587045
aS'-'
asS'MAP3K4'
p1346
(lp1347
I160991727
aI161117385
aS'+'
asS'MAP3K5'
p1348
(lp1349
I136557047
aI136792518
aS'-'
asS'PLA2G7'
p1350
(lp1351
I46704317
aI46735693
aS'-'
asS'MARCKS'
p1352
(lp1353
I113857362
aI113863471
aS'+'
asS'RPS27AP11'
p1354
(lp1355
I113581501
aI113581947
aS'+'
asS'AL356473.1'
p1356
(lp1357
I74849077
aI74850484
aS'-'
asS'AL358942.1'
p1358
(lp1359
I112616703
aI112617880
aS'-'
asS'AL035696.2'
p1360
(lp1361
I167607
aI170631
aS'-'
asS'LRRC73'
p1362
(lp1363
I43506969
aI43510686
aS'-'
asS'SMPDL3A'
p1364
(lp1365
I122789049
aI122809717
aS'+'
asS'EEF1A1P36'
p1366
(lp1367
I132271982
aI132273332
aS'+'
asS'FKBP1C'
p1368
(lp1369
I63211446
aI63213024
aS'+'
asS'HMGB1P39'
p1370
(lp1371
I75319101
aI75319980
aS'-'
asS'RCC2P7'
p1372
(lp1373
I56431950
aI56433213
aS'-'
asS'AL353133.1'
p1374
(lp1375
I86729708
aI86730108
aS'-'
asS'AL353133.2'
p1376
(lp1377
I86768522
aI86768932
aS'-'
asS'DAXX'
p1378
(lp1379
I33321386
aI33329286
aS'-'
asS'MTATP6P25'
p1380
(lp1381
I91726810
aI91727070
aS'+'
asS'NT5E'
p1382
(lp1383
I85449584
aI85495791
aS'+'
asS'PNPLA1'
p1384
(lp1385
I36243203
aI36308595
aS'+'
asS'AL132875.1'
p1386
(lp1387
I79854684
aI79855632
aS'+'
asS'NKAIN2'
p1388
(lp1389
I123804141
aI124825657
aS'+'
asS'GFOD1'
p1390
(lp1391
I13357830
aI13487555
aS'-'
asS'AL360272.1'
p1392
(lp1393
I44898711
aI44899295
aS'+'
asS'FRMD1'
p1394
(lp1395
I168055805
aI168081529
aS'-'
asS'HSPA8P15'
p1396
(lp1397
I151411259
aI151413945
aS'-'
asS'TAGAP'
p1398
(lp1399
I159034468
aI159045152
aS'-'
asS'DHFRP2'
p1400
(lp1401
I31366352
aI31366898
aS'-'
asS'RBM11P1'
p1402
(lp1403
I132764660
aI132765458
aS'+'
asS'DHFRP6'
p1404
(lp1405
I56276529
aI56276796
aS'-'
asS'DHFRP5'
p1406
(lp1407
I62460940
aI62461503
aS'-'
asS'FTH1P5'
p1408
(lp1409
I50912712
aI50913256
aS'-'
asS'HIVEP2'
p1410
(lp1411
I142751478
aI142946365
aS'-'
asS'COL12A1'
p1412
(lp1413
I75084326
aI75206051
aS'-'
asS'FARS2'
p1414
(lp1415
I5261044
aI5771429
aS'+'
asS'AL050335.1'
p1416
(lp1417
I15102946
aI15104130
aS'-'
asS'AL591499.1'
p1418
(lp1419
I154706643
aI154707795
aS'+'
asS'VDAC1P8'
p1420
(lp1421
I143490705
aI143506102
aS'+'
asS'DACT2'
p1422
(lp1423
I168292830
aI168319754
aS'-'
asS'ECT2L'
p1424
(lp1425
I138795926
aI138904070
aS'+'
asS'RPS29P32'
p1426
(lp1427
I134211450
aI134211527
aS'+'
asS'EPB41L2'
p1428
(lp1429
I130839347
aI131063322
aS'-'
asS'Z98742.2'
p1430
(lp1431
I108252214
aI108252400
aS'+'
asS'FEM1AP3'
p1432
(lp1433
I112365704
aI112367444
aS'-'
asS'GPR63'
p1434
(lp1435
I96794126
aI96837463
aS'-'
asS'AL035470.1'
p1436
(lp1437
I127909833
aI127910052
aS'+'
asS'AL133338.2'
p1438
(lp1439
I100889603
aI100890338
aS'+'
asS'FAM162B'
p1440
(lp1441
I116752197
aI116765723
aS'-'
asS'RRP36'
p1442
(lp1443
I43021645
aI43029597
aS'+'
asS'IMPG1'
p1444
(lp1445
I75921115
aI76072678
aS'-'
asS'AL050331.1'
p1446
(lp1447
I116258493
aI116259115
aS'-'
asS'STX11'
p1448
(lp1449
I144150526
aI144188370
aS'+'
asS'TREML1'
p1450
(lp1451
I41149342
aI41154337
aS'-'
asS'RPL7P26'
p1452
(lp1453
I17530899
aI17531652
aS'-'
asS'RPL7P27'
p1454
(lp1455
I86086415
aI86087134
aS'-'
asS'TREML4'
p1456
(lp1457
I41228324
aI41238382
aS'+'
asS'RPL7P25'
p1458
(lp1459
I34616538
aI34617258
aS'+'
asS'RPL7P28'
p1460
(lp1461
I109327175
aI109327914
aS'-'
asS'RPL7P29'
p1462
(lp1463
I86970466
aI86971193
aS'+'
asS'OR2I1P'
p1464
(lp1465
I29553219
aI29554166
aS'+'
asS'CUTA'
p1466
(lp1467
I33416442
aI33418317
aS'-'
asS'HNRNPA1P58'
p1468
(lp1469
I24001824
aI24002433
aS'+'
asS'JARID2'
p1470
(lp1471
I15246296
aI15522021
aS'+'
asS'HIST1H1D'
p1472
(lp1473
I26234268
aI26234933
aS'-'
asS'TFAP2A'
p1474
(lp1475
I10397872
aI10419638
aS'-'
asS'TFAP2B'
p1476
(lp1477
I50818723
aI50847613
aS'+'
asS'TFAP2D'
p1478
(lp1479
I50713828
aI50772988
aS'+'
asS'MCCD1'
p1480
(lp1481
I31528717
aI31530232
aS'+'
asS'AL357054.1'
p1482
(lp1483
I669081
aI670307
aS'-'
asS'OR2W6P'
p1484
(lp1485
I27937465
aI27938403
aS'+'
asS'RPL23AP1'
p1486
(lp1487
I29726669
aI29727139
aS'-'
asS'RSL24D1P1'
p1488
(lp1489
I27780619
aI27781111
aS'-'
asS'PI16'
p1490
(lp1491
I36948263
aI36964835
aS'+'
asS'MEA1'
p1492
(lp1493
I43012094
aI43013968
aS'-'
asS'AL365214.3'
p1494
(lp1495
I112236806
aI112350094
aS'+'
asS'AL365214.1'
p1496
(lp1497
I112325753
aI112326749
aS'-'
asS'SLC44A4'
p1498
(lp1499
I31863195
aI31879046
aS'-'
asS'POU5F1'
p1500
(lp1501
I31164337
aI31180731
aS'-'
asS'RPL7P4'
p1502
(lp1503
I30696806
aI30697535
aS'-'
asS'OR14J1'
p1504
(lp1505
I29306690
aI29307655
aS'+'
asS'AL353625.1'
p1506
(lp1507
I160093082
aI160096212
aS'+'
asS'MCM9'
p1508
(lp1509
I118813442
aI118935162
aS'-'
asS'AL121978.1'
p1510
(lp1511
I5291030
aI5291388
aS'-'
asS'PACRG'
p1512
(lp1513
I162727132
aI163315492
aS'+'
asS'DNPH1'
p1514
(lp1515
I43225629
aI43229484
aS'-'
asS'CYCSP55'
p1516
(lp1517
I34219439
aI34220066
aS'+'
asS'POM121L14P'
p1518
(lp1519
I57937458
aI57939015
aS'+'
asS'SOD1P1'
p1520
(lp1521
I53196720
aI53197159
aS'-'
asS'COQ3'
p1522
(lp1523
I99369400
aI99394204
aS'-'
asS'AL590635.1'
p1524
(lp1525
I91815843
aI91816428
aS'-'
asS'TMEM183AP1'
p1526
(lp1527
I29577459
aI29577748
aS'+'
asS'MUC22'
p1528
(lp1529
I31010474
aI31035402
aS'+'
asS'ZNF70P1'
p1530
(lp1531
I33215705
aI33216328
aS'+'
asS'MUC21'
p1532
(lp1533
I30983718
aI30989903
aS'+'
asS'DHX16'
p1534
(lp1535
I30653119
aI30673037
aS'-'
asS'AL021939.1'
p1536
(lp1537
I134897874
aI134898759
aS'+'
asS'RREB1'
p1538
(lp1539
I7107808
aI7251980
aS'+'
asS'NHLRC1'
p1540
(lp1541
I18120440
aI18122687
aS'-'
asS'AL109933.3'
p1542
(lp1543
I160773988
aI160783214
aS'+'
asS'LGSN'
p1544
(lp1545
I63275951
aI63319977
aS'-'
asS'PPT2'
p1546
(lp1547
I32153523
aI32163678
aS'+'
asS'FTH1P26'
p1548
(lp1549
I133676729
aI133677429
aS'-'
asS'ADGB'
p1550
(lp1551
I146598965
aI146815462
aS'+'
asS'MICAL1'
p1552
(lp1553
I109444065
aI109465968
aS'-'
asS'RPP40'
p1554
(lp1555
I4994732
aI5004047
aS'-'
asS'SOD2'
p1556
(lp1557
I159679119
aI159762529
aS'-'
asS'AL354868.1'
p1558
(lp1559
I10213881
aI10214362
aS'-'
asS'VWA7'
p1560
(lp1561
I31765590
aI31777294
aS'-'
asS'PSORS1C2'
p1562
(lp1563
I31137536
aI31139350
aS'-'
asS'SMIM28'
p1564
(lp1565
I138377905
aI138383075
aS'+'
asS'SMIM29'
p1566
(lp1567
I34246380
aI34249470
aS'-'
asS'AL096814.1'
p1568
(lp1569
I42155426
aI42163439
aS'+'
asS'KRT8P43'
p1570
(lp1571
I24598012
aI24599790
aS'+'
asS'IP6K3'
p1572
(lp1573
I33721670
aI33746905
aS'-'
asS'FBXL4'
p1574
(lp1575
I98868538
aI98947926
aS'-'
asS'PKIB'
p1576
(lp1577
I122471917
aI122726372
aS'+'
asS'DPCR1'
p1578
(lp1579
I30934523
aI30954221
aS'+'
asS'RNF8'
p1580
(lp1581
I37353972
aI37394738
aS'+'
asS'RNF5'
p1582
(lp1583
I32178354
aI32180793
aS'+'
asS'AL365222.1'
p1584
(lp1585
I77343557
aI77343654
aS'+'
asS'HLA-K'
p1586
(lp1587
I29926459
aI29929232
aS'+'
asS'HLA-J'
p1588
(lp1589
I30005971
aI30009956
aS'+'
asS'HLA-H'
p1590
(lp1591
I29887752
aI29890482
aS'+'
asS'CDSN'
p1592
(lp1593
I31115090
aI31120446
aS'-'
asS'HLA-L'
p1594
(lp1595
I30259584
aI30293014
aS'+'
asS'HLA-C'
p1596
(lp1597
I31268749
aI31272105
aS'-'
asS'SMARCE1P2'
p1598
(lp1599
I84429584
aI84430802
aS'-'
asS'HLA-A'
p1600
(lp1601
I29941260
aI29945884
aS'+'
asS'HLA-G'
p1602
(lp1603
I29826967
aI29831125
aS'+'
asS'HLA-F'
p1604
(lp1605
I29725054
aI29738528
aS'+'
asS'HLA-E'
p1606
(lp1607
I30489467
aI30494205
aS'+'
asS'NFKBIE'
p1608
(lp1609
I44258166
aI44265788
aS'-'
asS'AL121952.1'
p1610
(lp1611
I154845074
aI154845620
aS'-'
asS'HLA-Z'
p1612
(lp1613
I32896416
aI32896490
aS'+'
asS'NOX3'
p1614
(lp1615
I155395370
aI155455903
aS'-'
asS'HLA-S'
p1616
(lp1617
I31382074
aI31382288
aS'-'
asS'MYL8P'
p1618
(lp1619
I33338978
aI33339495
aS'+'
asS'HLA-W'
p1620
(lp1621
I29956596
aI29958570
aS'+'
asS'HLA-V'
p1622
(lp1623
I29791906
aI29797811
aS'+'
asS'AL357139.1'
p1624
(lp1625
I102453367
aI102453792
aS'-'
asS'HLA-T'
p1626
(lp1627
I29896654
aI29897786
aS'+'
asS'DDX6P1'
p1628
(lp1629
I29329626
aI29331061
aS'-'
asS'SPTLC1P3'
p1630
(lp1631
I63227485
aI63227743
aS'+'
asS'UBE3D'
p1632
(lp1633
I82892398
aI83065841
aS'-'
asS'SLC35A1'
p1634
(lp1635
I87470623
aI87511803
aS'+'
asS'PRSS35'
p1636
(lp1637
I83512538
aI83525704
aS'+'
asS'HMGB1P20'
p1638
(lp1639
I53235621
aI53236297
aS'-'
asS'EPM2A'
p1640
(lp1641
I145382535
aI145735281
aS'-'
asS'TFEB'
p1642
(lp1643
I41683978
aI41736259
aS'-'
asS'PGM3'
p1644
(lp1645
I83164873
aI83193293
aS'-'
asS'HIST1H2BD'
p1646
(lp1647
I26158146
aI26171349
aS'+'
asS'HIST1H2BE'
p1648
(lp1649
I26172059
aI26184655
aS'+'
asS'HIST1H2BF'
p1650
(lp1651
I26199520
aI26200715
aS'+'
asS'HIST1H2BG'
p1652
(lp1653
I26215159
aI26216692
aS'-'
asS'HIST1H2BA'
p1654
(lp1655
I25726777
aI25727292
aS'+'
asS'HIST1H2BB'
p1656
(lp1657
I26043277
aI26043657
aS'-'
asS'MTCO2P31'
p1658
(lp1659
I153665707
aI153666390
aS'+'
asS'SLC26A8'
p1660
(lp1661
I35943514
aI36024855
aS'-'
asS'HIST1H2BM'
p1662
(lp1663
I27815044
aI27815424
aS'+'
asS'MTFR2'
p1664
(lp1665
I136231024
aI136250324
aS'-'
asS'HIST1H2BO'
p1666
(lp1667
I27893463
aI27893843
aS'+'
asS'HIST1H2BH'
p1668
(lp1669
I26251651
aI26253710
aS'+'
asS'HIST1H2BI'
p1670
(lp1671
I26272976
aI26273356
aS'+'
asS'HIST1H2BJ'
p1672
(lp1673
I27125897
aI27132750
aS'-'
asS'HIST1H2BK'
p1674
(lp1675
I27146418
aI27146798
aS'-'
asS'HCRTR2'
p1676
(lp1677
I55106460
aI55282592
aS'+'
asS'Z98755.1'
p1678
(lp1679
I103002514
aI103003897
aS'+'
asS'TNFAIP3'
p1680
(lp1681
I137867188
aI137883311
aS'+'
asS'NUP153'
p1682
(lp1683
I17615035
aI17706834
aS'-'
asS'ECI2'
p1684
(lp1685
I4115689
aI4135597
aS'-'
asS'ELOVL4'
p1686
(lp1687
I79914812
aI79947580
aS'-'
asS'ELOVL5'
p1688
(lp1689
I53267398
aI53349179
aS'-'
asS'ELOVL2'
p1690
(lp1691
I10980759
aI11044314
aS'-'
asS'ZNRD1ASP'
p1692
(lp1693
I30001011
aI30061184
aS'-'
asS'GPANK1'
p1694
(lp1695
I31661229
aI31666283
aS'-'
asS'ATP5LP2'
p1696
(lp1697
I122859678
aI122859988
aS'-'
asS'PXDC1'
p1698
(lp1699
I3722620
aI3752026
aS'-'
asS'ATF1P1'
p1700
(lp1701
I92887251
aI92888581
aS'-'
asS'CNR1'
p1702
(lp1703
I88139864
aI88166359
aS'-'
asS'COX6A1P3'
p1704
(lp1705
I120781220
aI120781512
aS'+'
asS'Z98745.1'
p1706
(lp1707
I28455648
aI28456141
aS'-'
asS'IQCB2P'
p1708
(lp1709
I28010723
aI28012355
aS'+'
asS'C6orf163'
p1710
(lp1711
I87344849
aI87365463
aS'+'
asS'AL590383.1'
p1712
(lp1713
I43364220
aI43364294
aS'+'
asS'CNKSR3'
p1714
(lp1715
I154387504
aI154510659
aS'-'
asS'AL450338.1'
p1716
(lp1717
I85868953
aI85869464
aS'+'
asS'PAQR8'
p1718
(lp1719
I52362128
aI52407777
aS'+'
asS'WTAP'
p1720
(lp1721
I159725585
aI159756319
aS'+'
asS'AL357315.2'
p1722
(lp1723
I104860449
aI104862123
aS'+'
asS'AL590143.1'
p1724
(lp1725
I84689292
aI84689429
aS'-'
asS'RPL3P7'
p1726
(lp1727
I108004357
aI108005568
aS'-'
asS'FO393411.1'
p1728
(lp1729
I39958414
aI39958833
aS'-'
asS'RPL3P2'
p1730
(lp1731
I31280317
aI31281519
aS'+'
asS'ANKS1A'
p1732
(lp1733
I34889265
aI35091413
aS'+'
asS'HEY2'
p1734
(lp1735
I125747664
aI125761269
aS'+'
asS'OR5V1'
p1736
(lp1737
I29355230
aI29431967
aS'-'
asS'AL512422.1'
p1738
(lp1739
I56871191
aI56871743
aS'+'
asS'AL139093.1'
p1740
(lp1741
I23854444
aI23855457
aS'+'
asS'RPS10-NUDT3'
p1742
(lp1743
I34284887
aI34426071
aS'-'
asS'ADTRP'
p1744
(lp1745
I11735568
aI11807046
aS'-'
asS'AL596028.1'
p1746
(lp1747
I80499196
aI80499392
aS'-'
asS'BLOC1S5-TXNDC5'
p1748
(lp1749
I7881522
aI8064364
aS'-'
asS'TMPOP1'
p1750
(lp1751
I30466452
aI30467994
aS'+'
asS'AL355143.1'
p1752
(lp1753
I96672129
aI96672969
aS'-'
asS'MCFD2P1'
p1754
(lp1755
I27407697
aI27407996
aS'+'
asS'AL357080.1'
p1756
(lp1757
I141019788
aI141020026
aS'-'
asS'AL359643.1'
p1758
(lp1759
I4979072
aI4979494
aS'+'
asS'AL356057.1'
p1760
(lp1761
I75610958
aI75611788
aS'-'
asS'PRPH2'
p1762
(lp1763
I42696600
aI42722574
aS'-'
asS'AL356057.3'
p1764
(lp1765
I75586122
aI75586461
aS'+'
asS'AL356057.2'
p1766
(lp1767
I75499705
aI75500136
aS'+'
asS'AL355802.2'
p1768
(lp1769
I43538822
aI43539703
aS'-'
asS'HSPA1B'
p1770
(lp1771
I31827735
aI31830255
aS'+'
asS'HSPA1A'
p1772
(lp1773
I31815464
aI31817946
aS'+'
asS'UST'
p1774
(lp1775
I148747328
aI149076990
aS'+'
asS'AMZ2P2'
p1776
(lp1777
I158725747
aI158726803
aS'-'
asS'FAM83B'
p1778
(lp1779
I54846771
aI54942022
aS'+'
asS'EEF1B2P5'
p1780
(lp1781
I63480134
aI63481876
aS'+'
asS'HSPA1L'
p1782
(lp1783
I31809619
aI31815065
aS'-'
asS'PPP1R2P1'
p1784
(lp1785
I32879171
aI32879848
aS'-'
asS'SLC18B1'
p1786
(lp1787
I132769370
aI132798553
aS'-'
asS'AL589994.1'
p1788
(lp1789
I49077712
aI49078051
aS'-'
asS'AL133393.1'
p1790
(lp1791
I4529722
aI4530008
aS'+'
asS'AL589994.2'
p1792
(lp1793
I49115537
aI49116115
aS'+'
asS'CPNE5'
p1794
(lp1795
I36740778
aI36840002
aS'-'
asS'AC019205.1'
p1796
(lp1797
I73391038
aI73391767
aS'-'
asS'AC019205.3'
p1798
(lp1799
I73373108
aI73373263
aS'-'
asS'ICK'
p1800
(lp1801
I53001279
aI53061770
aS'-'
asS'B3GNTL1P2'
p1802
(lp1803
I47368943
aI47369230
aS'+'
asS'ADGRF1'
p1804
(lp1805
I46997703
aI47042363
aS'-'
asS'ADGRF2'
p1806
(lp1807
I47656590
aI47697797
aS'+'
asS'ADGRF4'
p1808
(lp1809
I47685864
aI47722021
aS'+'
asS'ADGRF5'
p1810
(lp1811
I46852599
aI46954943
aS'-'
asS'NR2E1'
p1812
(lp1813
I108166058
aI108188809
aS'+'
asS'SNRPC'
p1814
(lp1815
I34757406
aI34773794
aS'+'
asS'COX11P1'
p1816
(lp1817
I28446973
aI28447807
aS'+'
asS'ANKRD66'
p1818
(lp1819
I46746917
aI46759506
aS'+'
asS'DXO'
p1820
(lp1821
I31969810
aI31972292
aS'-'
asS'RPL23AP47'
p1822
(lp1823
I170745518
aI170745977
aS'+'
asS'RPL23AP46'
p1824
(lp1825
I132997551
aI132998040
aS'-'
asS'AL390205.1'
p1826
(lp1827
I139659928
aI139661513
aS'+'
asS'ZDHHC14'
p1828
(lp1829
I157381133
aI157678146
aS'+'
asS'AL445189.2'
p1830
(lp1831
I108907615
aI108907873
aS'-'
asS'RPSAP72'
p1832
(lp1833
I80470071
aI80470428
aS'-'
asS'DUSP22'
p1834
(lp1835
I292097
aI351355
aS'+'
asS'LEMD2'
p1836
(lp1837
I33771202
aI33789136
aS'-'
asS'AL645937.2'
p1838
(lp1839
I29229227
aI29230157
aS'-'
asS'CTAGE9'
p1840
(lp1841
I131708684
aI131711017
aS'-'
asS'BYSL'
p1842
(lp1843
I41921188
aI41933046
aS'+'
asS'OR12D1'
p1844
(lp1845
I29417280
aI29418226
aS'+'
asS'OR12D2'
p1846
(lp1847
I29396555
aI29397623
aS'+'
asS'OR12D3'
p1848
(lp1849
I29373423
aI29375291
aS'-'
asS'RPF2'
p1850
(lp1851
I110982050
aI111028263
aS'+'
asS'VGLL2'
p1852
(lp1853
I117265558
aI117273565
aS'+'
asS'AL024474.1'
p1854
(lp1855
I144257034
aI144257624
aS'-'
asS'PRIM2'
p1856
(lp1857
I57317624
aI57646849
aS'+'
asS'RPSAP41'
p1858
(lp1859
I73290403
aI73291262
aS'+'
asS'AL390237.1'
p1860
(lp1861
I58071720
aI58073134
aS'-'
asS'GAPDHP15'
p1862
(lp1863
I57967687
aI57968661
aS'-'
asS'AL589993.1'
p1864
(lp1865
I118452469
aI118454992
aS'-'
asS'SOCS5P5'
p1866
(lp1867
I113222166
aI113224072
aS'+'
asS'FTH1P15'
p1868
(lp1869
I57004520
aI57004799
aS'+'
asS'AL450346.2'
p1870
(lp1871
I63229087
aI63230110
aS'-'
asS'AL450346.1'
p1872
(lp1873
I63193072
aI63193630
aS'-'
asS'RPSAP2'
p1874
(lp1875
I28732017
aI28732904
aS'+'
asS'AL049545.1'
p1876
(lp1877
I86170447
aI86171018
aS'-'
asS'AL138880.2'
p1878
(lp1879
I45097496
aI45097976
aS'+'
asS'AL138880.1'
p1880
(lp1881
I45158870
aI45159511
aS'+'
asS'AL139094.1'
p1882
(lp1883
I5065795
aI5066982
aS'-'
asS'LST1'
p1884
(lp1885
I31586124
aI31588909
aS'+'
asS'OSTCP6'
p1886
(lp1887
I56975606
aI56976062
aS'-'
asS'DDX43'
p1888
(lp1889
I73394748
aI73417569
aS'+'
asS'SCGN'
p1890
(lp1891
I25652201
aI25701774
aS'+'
asS'KLC4'
p1892
(lp1893
I43040777
aI43075087
aS'+'
asS'TUBB8P2'
p1894
(lp1895
I143436216
aI143436710
aS'+'
asS'GSTA8P'
p1896
(lp1897
I52687930
aI52703825
aS'-'
asS'AL049844.1'
p1898
(lp1899
I143807092
aI143844617
aS'+'
asS'AL049844.2'
p1900
(lp1901
I143858062
aI143858689
aS'-'
asS'AL049844.3'
p1902
(lp1903
I143857318
aI143938471
aS'+'
asS'CDKN1A'
p1904
(lp1905
I36676460
aI36687337
aS'+'
asS'GPLD1'
p1906
(lp1907
I24428177
aI24489622
aS'-'
asS'OR2W1'
p1908
(lp1909
I29044213
aI29045240
aS'-'
asS'TSTD3'
p1910
(lp1911
I99520693
aI99531918
aS'+'
asS'TREML2'
p1912
(lp1913
I41190277
aI41201194
aS'-'
asS'APOM'
p1914
(lp1915
I31652417
aI31658210
aS'+'
asS'FABP12P1'
p1916
(lp1917
I149304107
aI149304428
aS'-'
asS'VNN2'
p1918
(lp1919
I132744196
aI132763447
aS'-'
asS'VIM2P'
p1920
(lp1921
I126602356
aI126603649
aS'-'
asS'AL139095.2'
p1922
(lp1923
I7338839
aI7339568
aS'-'
asS'AL139095.3'
p1924
(lp1925
I7340854
aI7342056
aS'-'
asS'AL139095.1'
p1926
(lp1927
I7331286
aI7331676
aS'-'
asS'VTA1'
p1928
(lp1929
I142147230
aI142224689
aS'+'
asS'TAAR3P'
p1930
(lp1931
I132608225
aI132609302
aS'-'
asS'TSPYL4'
p1932
(lp1933
I116249961
aI116254140
aS'-'
asS'TSPYL1'
p1934
(lp1935
I116276578
aI116279903
aS'-'
asS'KCNK16'
p1936
(lp1937
I39314948
aI39322968
aS'-'
asS'KCNK17'
p1938
(lp1939
I39299001
aI39314553
aS'-'
asS'KCNQ5'
p1940
(lp1941
I72621792
aI73198848
aS'+'
asS'ZC2HC1B'
p1942
(lp1943
I143864436
aI143938356
aS'+'
asS'PPP1R11'
p1944
(lp1945
I30066709
aI30070333
aS'+'
asS'PPP1R10'
p1946
(lp1947
I30600400
aI30617244
aS'-'
asS'VEGFA'
p1948
(lp1949
I43770213
aI43786487
aS'+'
asS'PPP1R18'
p1950
(lp1951
I30676389
aI30687895
aS'-'
asS'RPL10P2'
p1952
(lp1953
I27211244
aI27211913
aS'+'
asS'SLC39A7'
p1954
(lp1955
I33200826
aI33204439
aS'+'
asS'HMGB1P13'
p1956
(lp1957
I132868218
aI132868859
aS'-'
asS'MTHFD1L'
p1958
(lp1959
I150865549
aI151101887
aS'+'
asS'AL023775.1'
p1960
(lp1961
I166701094
aI166702839
aS'-'
asS'NUDT19P3'
p1962
(lp1963
I114019621
aI114020483
aS'-'
asS'SLC35B3'
p1964
(lp1965
I8413068
aI8435483
aS'-'
asS'SLC35B2'
p1966
(lp1967
I44254102
aI44257890
aS'-'
asS'FBXO30'
p1968
(lp1969
I145793502
aI145814753
aS'-'
asS'FLOT1'
p1970
(lp1971
I30727709
aI30742733
aS'-'
asS'ATXN1'
p1972
(lp1973
I16299112
aI16761490
aS'-'
asS'SNX14'
p1974
(lp1975
I85505496
aI85593913
aS'-'
asS'AL445220.1'
p1976
(lp1977
I154216931
aI154217489
aS'+'
asS'MBOAT1'
p1978
(lp1979
I20102145
aI20212399
aS'-'
asS'AKAP12'
p1980
(lp1981
I151239999
aI151358557
aS'+'
asS'DLK2'
p1982
(lp1983
I43450354
aI43456632
aS'-'
asS'HINT3'
p1984
(lp1985
I125956781
aI125980244
aS'+'
asS'NEDD9'
p1986
(lp1987
I11183306
aI11382314
aS'-'
asS'UNC5CL'
p1988
(lp1989
I41026911
aI41039217
aS'-'
asS'OR2A4'
p1990
(lp1991
I131700469
aI131701401
aS'-'
asS'PIP5K1P1'
p1992
(lp1993
I7986537
aI7988192
aS'+'
asS'LTB'
p1994
(lp1995
I31580525
aI31582522
aS'-'
asS'LTA'
p1996
(lp1997
I31572054
aI31574324
aS'+'
asS'TINAG'
p1998
(lp1999
I54308455
aI54390152
aS'+'
asS'PTMAP1'
p2000
(lp2001
I30633632
aI30633956
aS'+'
asS'LAP3P1'
p2002
(lp2003
I82924829
aI82925122
aS'-'
asS'LAP3P2'
p2004
(lp2005
I36673817
aI36675270
aS'+'
asS'AL096712.1'
p2006
(lp2007
I37295584
aI37295742
aS'-'
asS'SCAF8'
p2008
(lp2009
I154733378
aI154834244
aS'+'
asS'DBIP1'
p2010
(lp2011
I79436908
aI79437167
aS'-'
asS'RIOK1'
p2012
(lp2013
I7389496
aI7418037
aS'+'
asS'C6orf118'
p2014
(lp2015
I165279676
aI165309607
aS'-'
asS'LTV1'
p2016
(lp2017
I143843344
aI143863812
aS'+'
asS'AFDN'
p2018
(lp2019
I167826991
aI167972020
aS'+'
asS'ABT1'
p2020
(lp2021
I26596952
aI26600744
aS'+'
asS'AL645929.1'
p2022
(lp2023
I29887294
aI29888268
aS'-'
asS'DNAH8'
p2024
(lp2025
I38715341
aI39030519
aS'+'
asS'ZNF259P1'
p2026
(lp2027
I108782126
aI108787037
aS'-'
asS'COL10A1'
p2028
(lp2029
I116125339
aI116158747
aS'-'
asS'AL645927.2'
p2030
(lp2031
I29450210
aI29450558
aS'+'
asS'AL645927.1'
p2032
(lp2033
I29489271
aI29489676
aS'-'
asS'ARPC3P5'
p2034
(lp2035
I15934782
aI15935315
aS'+'
asS'HLA-DRA'
p2036
(lp2037
I32439842
aI32445046
aS'+'
asS'ZNF204P'
p2038
(lp2039
I27357825
aI27360221
aS'-'
asS'MRPL42P3'
p2040
(lp2041
I144136450
aI144136775
aS'+'
asS'PGC'
p2042
(lp2043
I41736711
aI41747397
aS'-'
asS'AL645939.1'
p2044
(lp2045
I29803195
aI29803991
aS'-'
asS'KNOP1P4'
p2046
(lp2047
I72986313
aI72987750
aS'+'
asS'RPS29P13'
p2048
(lp2049
I117048670
aI117048838
aS'-'
asS'CRISP1'
p2050
(lp2051
I49834860
aI49877096
aS'-'
asS'CRISP3'
p2052
(lp2053
I49727402
aI49744437
aS'-'
asS'CRISP2'
p2054
(lp2055
I49692358
aI49713590
aS'-'
asS'WASF5P'
p2056
(lp2057
I31287510
aI31288964
aS'-'
asS'ATP6V0CP3'
p2058
(lp2059
I42727234
aI42727700
aS'+'
asS'RPS3AP23'
p2060
(lp2061
I141635720
aI141636503
aS'-'
asS'COX5BP2'
p2062
(lp2063
I136034553
aI136034886
aS'-'
asS'AL645933.1'
p2064
(lp2065
I31462728
aI31463336
aS'-'
asS'ADAT2'
p2066
(lp2067
I143426989
aI143450673
aS'-'
asS'CYP2AC1P'
p2068
(lp2069
I49565924
aI49580166
aS'-'
asS'MRS2'
p2070
(lp2071
I24402908
aI24426194
aS'+'
asS'TTBK1'
p2072
(lp2073
I43243680
aI43288259
aS'+'
asS'AL359694.1'
p2074
(lp2075
I22213306
aI22214237
aS'-'
asS'AL645931.1'
p2076
(lp2077
I33079451
aI33079860
aS'+'
asS'EXOC2'
p2078
(lp2079
I485133
aI693111
aS'-'
asS'E2F3'
p2080
(lp2081
I20401906
aI20493714
aS'+'
asS'AL645937.1'
p2082
(lp2083
I29137880
aI29138816
aS'-'
asS'AL645937.3'
p2084
(lp2085
I29181510
aI29182445
aS'+'
asS'STMND1'
p2086
(lp2087
I17102258
aI17131372
aS'+'
asS'C6orf89'
p2088
(lp2089
I36871870
aI36924555
aS'+'
asS'AL445529.1'
p2090
(lp2091
I51537155
aI51537543
aS'-'
asS'FUT9'
p2092
(lp2093
I96015984
aI96215612
aS'+'
asS'AL133406.1'
p2094
(lp2095
I105298149
aI105298895
aS'+'
asS'GSTA4'
p2096
(lp2097
I52977953
aI52995378
aS'-'
asS'GSTA5'
p2098
(lp2099
I52831742
aI52846095
aS'-'
asS'GSTA1'
p2100
(lp2101
I52791664
aI52803910
aS'-'
asS'GSTA2'
p2102
(lp2103
I52750089
aI52763569
aS'-'
asS'GSTA3'
p2104
(lp2105
I52896639
aI52909685
aS'-'
asS'AL034372.1'
p2106
(lp2107
I17381367
aI17382120
aS'+'
asS'KRT18P9'
p2108
(lp2109
I34189780
aI34191079
aS'+'
asS'DDX39B'
p2110
(lp2111
I31530219
aI31542448
aS'-'
asS'DYNLT1'
p2112
(lp2113
I158636474
aI158644739
aS'-'
asS'GSTA10P'
p2114
(lp2115
I52873014
aI52879940
aS'-'
asS'PXT1'
p2116
(lp2117
I36390551
aI36442889
aS'-'
asS'LDHAL6FP'
p2118
(lp2119
I157299045
aI157300126
aS'-'
asS'RPL23AP50'
p2120
(lp2121
I107931800
aI107932254
aS'+'
asS'Z98742.3'
p2122
(lp2123
I108318079
aI108318404
aS'+'
asS'AL031121.1'
p2124
(lp2125
I163363210
aI163363463
aS'+'
asS'AL356776.1'
p2126
(lp2127
I79067692
aI79068138
aS'-'
asS'REV3L'
p2128
(lp2129
I111299031
aI111483715
aS'-'
asS'DNAJC19P6'
p2130
(lp2131
I89797598
aI89797877
aS'+'
asS'CENPW'
p2132
(lp2133
I126340174
aI126348875
aS'+'
asS'CENPQ'
p2134
(lp2135
I49463378
aI49493107
aS'+'
asS'KIFC1'
p2136
(lp2137
I33391536
aI33409924
aS'+'
asS'AL133267.1'
p2138
(lp2139
I27965175
aI27965514
aS'+'
asS'AL592291.1'
p2140
(lp2141
I127632958
aI127635321
aS'-'
asS'ADGRG6'
p2142
(lp2143
I142301854
aI142446266
aS'+'
asS'CCNG1P1'
p2144
(lp2145
I132698783
aI132699667
aS'+'
asS'SPTLC1P2'
p2146
(lp2147
I23856698
aI23856818
aS'-'
asS'SAYSD1'
p2148
(lp2149
I39104064
aI39115189
aS'-'
asS'POU3F2'
p2150
(lp2151
I98834592
aI98839470
aS'+'
asS'SEC63'
p2152
(lp2153
I107867756
aI107958189
aS'-'
asS'TRIM39-RPP21'
p2154
(lp2155
I30328907
aI30346854
aS'+'
asS'ZNF165'
p2156
(lp2157
I28080975
aI28089563
aS'+'
asS'RPSAP45'
p2158
(lp2159
I112355841
aI112356714
aS'-'
asS'RPSAP44'
p2160
(lp2161
I54624605
aI54625488
aS'+'
asS'AL603910.2'
p2162
(lp2163
I73526744
aI73526879
aS'-'
asS'RPSAP40'
p2164
(lp2165
I148647707
aI148648597
aS'-'
asS'RPSAP43'
p2166
(lp2167
I114084168
aI114084792
aS'-'
asS'RPSAP42'
p2168
(lp2169
I137995270
aI137996147
aS'+'
asS'AL356131.1'
p2170
(lp2171
I61240898
aI61241311
aS'+'
asS'ZNF184'
p2172
(lp2173
I27450743
aI27473118
aS'-'
asS'RPP21'
p2174
(lp2175
I30345153
aI30346884
aS'+'
asS'VNN3'
p2176
(lp2177
I132722787
aI132734765
aS'-'
asS'VNN1'
p2178
(lp2179
I132681590
aI132714049
aS'-'
asS'AL139392.1'
p2180
(lp2181
I44216939
aI44218236
aS'+'
asS'CCDC162P'
p2182
(lp2183
I109165833
aI109355046
aS'+'
asS'AL359547.2'
p2184
(lp2185
I146638844
aI146639261
aS'-'
asS'COX7A2'
p2186
(lp2187
I75237675
aI75250323
aS'-'
asS'PRR18'
p2188
(lp2189
I166305300
aI166308383
aS'-'
asS'HIST1H2BPS2'
p2190
(lp2191
I27864062
aI27864401
aS'-'
asS'HIST1H2BPS1'
p2192
(lp2193
I25731782
aI25732091
aS'-'
asS'AL365265.2'
p2194
(lp2195
I16041381
aI16041614
aS'-'
asS'TBP'
p2196
(lp2197
I170554333
aI170572869
aS'+'
asS'AL356121.1'
p2198
(lp2199
I108372772
aI108372927
aS'-'
asS'DOPEY1'
p2200
(lp2201
I83067666
aI83168719
aS'+'
asS'TUBE1'
p2202
(lp2203
I112070777
aI112087513
aS'-'
asS'RPL7L1'
p2204
(lp2205
I42879635
aI42889896
aS'+'
asS'MCM3'
p2206
(lp2207
I52264014
aI52284881
aS'-'
asS'AL359634.1'
p2208
(lp2209
I118757518
aI118783420
aS'+'
asS'AL355497.1'
p2210
(lp2211
I149977471
aI149979105
aS'+'
asS'AL021331.1'
p2212
(lp2213
I167347472
aI167348053
aS'+'
asS'TXNP7'
p2214
(lp2215
I74004520
aI74004812
aS'-'
asS'PFDN6'
p2216
(lp2217
I33289775
aI33298401
aS'+'
asS'TREM1'
p2218
(lp2219
I41267926
aI41286665
aS'-'
asS'TREM2'
p2220
(lp2221
I41158507
aI41163186
aS'-'
asS'GMNN'
p2222
(lp2223
I24774931
aI24786095
aS'+'
asS'SLC25A20P1'
p2224
(lp2225
I52246460
aI52247362
aS'+'
asS'AL662890.1'
p2226
(lp2227
I28861416
aI28862047
aS'+'
asS'RANBP9'
p2228
(lp2229
I13621498
aI13711564
aS'-'
asS'ABRACL'
p2230
(lp2231
I139028682
aI139043302
aS'+'
asS'TBX18'
p2232
(lp2233
I84687373
aI84763453
aS'-'
asS'KATNBL1P5'
p2234
(lp2235
I25248263
aI25248779
aS'+'
asS'AL662791.2'
p2236
(lp2237
I29076573
aI29077168
aS'-'
asS'FGD2'
p2238
(lp2239
I37005647
aI37029070
aS'+'
asS'DLL1'
p2240
(lp2241
I170289701
aI170306565
aS'-'
asS'TRIM31'
p2242
(lp2243
I30102897
aI30113106
aS'-'
asS'STX7'
p2244
(lp2245
I132445867
aI132513062
aS'-'
asS'TRAM2'
p2246
(lp2247
I52497402
aI52576915
aS'-'
asS'TAAR4P'
p2248
(lp2249
I132594398
aI132595436
aS'-'
asS'AL606845.1'
p2250
(lp2251
I115358498
aI115358752
aS'-'
asS'AL591473.1'
p2252
(lp2253
I42499710
aI42500022
aS'+'
asS'AL138729.1'
p2254
(lp2255
I121478273
aI121479908
aS'-'
asS'PHF10'
p2256
(lp2257
I169703908
aI169725566
aS'-'
asS'AL672167.1'
p2258
(lp2259
I29262703
aI29264079
aS'-'
asS'AL672167.3'
p2260
(lp2261
I29268462
aI29269421
aS'-'
asS'AL590426.1'
p2262
(lp2263
I76660486
aI76662770
aS'+'
asS'F13A1'
p2264
(lp2265
I6144085
aI6320834
aS'-'
asS'TYMSP1'
p2266
(lp2267
I96653274
aI96654142
aS'+'
asS'AL138885.1'
p2268
(lp2269
I10365593
aI10366582
aS'-'
asS'AL662791.1'
p2270
(lp2271
I29026680
aI29027607
aS'-'
asS'KATNBL1P6'
p2272
(lp2273
I146802359
aI146803824
aS'-'
asS'AL645733.1'
p2274
(lp2275
I160163539
aI160163755
aS'-'
asS'C6orf106'
p2276
(lp2277
I34587288
aI34696859
aS'-'
asS'CLIC1'
p2278
(lp2279
I31730581
aI31739763
aS'-'
asS'AL451046.2'
p2280
(lp2281
I129783769
aI129784045
aS'-'
asS'AL451046.1'
p2282
(lp2283
I129819637
aI129820170
aS'-'
asS'CDYL'
p2284
(lp2285
I4706159
aI4955547
aS'+'
asS'PPT2-EGFL8'
p2286
(lp2287
I32154222
aI32171978
aS'+'
asS'AL078603.1'
p2288
(lp2289
I99082449
aI99082761
aS'+'
asS'ZBTB2'
p2290
(lp2291
I151364117
aI151391548
aS'-'
asS'NKAPL'
p2292
(lp2293
I28259320
aI28260958
aS'+'
asS'CYP21A2'
p2294
(lp2295
I32038265
aI32041670
aS'+'
asS'ZBTB9'
p2296
(lp2297
I33454579
aI33457548
aS'+'
asS'TXLNB'
p2298
(lp2299
I139240061
aI139292139
aS'-'
asS'SYNGAP1'
p2300
(lp2301
I33420070
aI33457541
aS'+'
asS'AL078601.1'
p2302
(lp2303
I79354443
aI79354713
aS'-'
asS'TCP11'
p2304
(lp2305
I35118269
aI35148610
aS'-'
asS'DUTP5'
p2306
(lp2307
I85426657
aI85427125
aS'-'
asS'GPRC6A'
p2308
(lp2309
I116792085
aI116829035
aS'-'
asS'TBC1D22B'
p2310
(lp2311
I37257772
aI37332970
aS'+'
asS'HTR1B'
p2312
(lp2313
I77461753
aI77463773
aS'-'
asS'AL662781.1'
p2314
(lp2315
I29290711
aI29291653
aS'+'
asS'AL138889.2'
p2316
(lp2317
I33883170
aI33883411
aS'+'
asS'OR10C1'
p2318
(lp2319
I29439306
aI29440977
aS'+'
asS'AGER'
p2320
(lp2321
I32180968
aI32184324
aS'-'
asS'GPR31'
p2322
(lp2323
I167156271
aI167158329
aS'-'
asS'TOB2P1'
p2324
(lp2325
I28217643
aI28218634
aS'-'
asS'AL138725.1'
p2326
(lp2327
I18366736
aI18368644
aS'-'
asS'FAM50B'
p2328
(lp2329
I3849386
aI3851317
aS'+'
asS'AL133507.1'
p2330
(lp2331
I35989515
aI35990436
aS'-'
asS'HCG4'
p2332
(lp2333
I29791753
aI29792750
aS'-'
asS'AL671277.1'
p2334
(lp2335
I29942075
aI29943067
aS'-'
asS'AL671277.2'
p2336
(lp2337
I30006121
aI30007116
aS'-'
asS'AL023284.2'
p2338
(lp2339
I136419847
aI136420425
aS'-'
asS'AL023284.3'
p2340
(lp2341
I136364419
aI136365079
aS'+'
asS'AL022721.1'
p2342
(lp2343
I35443044
aI35449866
aS'+'
asS'AL023284.1'
p2344
(lp2345
I136317961
aI136318236
aS'+'
asS'LYPLA1P3'
p2346
(lp2347
I71165076
aI71165770
aS'+'
asS'LRRC1'
p2348
(lp2349
I53794980
aI53924121
aS'+'
asS'AL391422.1'
p2350
(lp2351
I3754099
aI3754840
aS'+'
asS'AL137784.1'
p2352
(lp2353
I99575712
aI99576456
aS'+'
asS'RNF182'
p2354
(lp2355
I13924446
aI13980008
aS'+'
asS'RUNX2'
p2356
(lp2357
I45328727
aI45664349
aS'+'
asS'APOBEC2'
p2358
(lp2359
I41053304
aI41064511
aS'+'
asS'RAB44'
p2360
(lp2361
I36697851
aI36733183
aS'+'
asS'ZBTB22'
p2362
(lp2363
I33314406
aI33317942
aS'-'
asS'RNF217'
p2364
(lp2365
I124962545
aI125092633
aS'+'
asS'ZBTB24'
p2366
(lp2367
I109462594
aI109483237
aS'-'
asS'CLVS2'
p2368
(lp2369
I122995971
aI123072927
aS'+'
asS'MED20'
p2370
(lp2371
I41905354
aI41921099
aS'-'
asS'MED23'
p2372
(lp2373
I131573966
aI131628205
aS'-'
asS'UHRF1BP1'
p2374
(lp2375
I34792015
aI34883138
aS'+'
asS'FAM184A'
p2376
(lp2377
I118959830
aI119149387
aS'-'
asS'EEF1E1-BLOC1S5'
p2378
(lp2379
I8015726
aI8102530
aS'-'
asS'AL445189.1'
p2380
(lp2381
I108856400
aI108856737
aS'-'
asS'ACTG1P18'
p2382
(lp2383
I101430411
aI101431553
aS'-'
asS'AL121835.1'
p2384
(lp2385
I88265158
aI88265511
aS'+'
asS'AL109933.2'
p2386
(lp2387
I160666228
aI160676523
aS'-'
asS'AL022099.1'
p2388
(lp2389
I48952070
aI48952781
aS'-'
asS'DDO'
p2390
(lp2391
I110391771
aI110415562
aS'-'
asS'DTNBP1'
p2392
(lp2393
I15522810
aI15663058
aS'-'
asS'POM121L2'
p2394
(lp2395
I27285903
aI27311312
aS'-'
asS'BTNL2'
p2396
(lp2397
I32393963
aI32407128
aS'-'
asS'SCUBE3'
p2398
(lp2399
I35214419
aI35253079
aS'+'
asS'ESR1'
p2400
(lp2401
I151690496
aI152103274
aS'+'
asS'GSTA11P'
p2402
(lp2403
I52847910
aI52870329
aS'-'
asS'AL136116.1'
p2404
(lp2405
I143327275
aI143327655
aS'+'
asS'AL136116.3'
p2406
(lp2407
I143342246
aI143343383
aS'+'
asS'AL136116.2'
p2408
(lp2409
I143298770
aI143299554
aS'-'
asS'ATP6V1G2'
p2410
(lp2411
I31545276
aI31548427
aS'-'
asS'PPP2R5D'
p2412
(lp2413
I42984499
aI43012342
aS'+'
asS'PHF3'
p2414
(lp2415
I63635836
aI63715481
aS'+'
asS'PHF1'
p2416
(lp2417
I33410961
aI33416453
aS'+'
asS'SMIM13'
p2418
(lp2419
I11094033
aI11138733
aS'+'
asS'BECN1P2'
p2420
(lp2421
I71075564
aI71076375
aS'+'
asS'RPL12P47'
p2422
(lp2423
I43310231
aI43310357
aS'+'
asS'FBXO5'
p2424
(lp2425
I152970529
aI152983579
aS'-'
asS'FBXO9'
p2426
(lp2427
I53065459
aI53099603
aS'+'
asS'MFSD4B'
p2428
(lp2429
I111259348
aI111271167
aS'+'
asS'HACE1'
p2430
(lp2431
I104728093
aI104859919
aS'-'
asS'GCNT1P4'
p2432
(lp2433
I63857441
aI63857769
aS'+'
asS'NOP56P1'
p2434
(lp2435
I28783633
aI28784004
aS'-'
asS'VARS2'
p2436
(lp2437
I30908242
aI30926459
aS'+'
asS'FHL5'
p2438
(lp2439
I96562548
aI96616636
aS'+'
asS'MTCO3P1'
p2440
(lp2441
I32706124
aI32706955
aS'-'
asS'NT5DC1'
p2442
(lp2443
I116100849
aI116249497
aS'+'
asS'HIST1H2APS4'
p2444
(lp2445
I26272021
aI26272701
aS'-'
asS'HIST1H2APS5'
p2446
(lp2447
I26043989
aI26044357
aS'+'
asS'HIST1H2APS2'
p2448
(lp2449
I25882026
aI25882395
aS'-'
asS'HIST1H2APS3'
p2450
(lp2451
I26233122
aI26233255
aS'+'
asS'PRRT1'
p2452
(lp2453
I32148359
aI32153083
aS'-'
asS'CAPN11'
p2454
(lp2455
I44158811
aI44184402
aS'+'
asS'AL391416.1'
p2456
(lp2457
I83392416
aI83393409
aS'+'
asS'COL21A1'
p2458
(lp2459
I56056590
aI56394094
aS'-'
asS'AL133268.1'
p2460
(lp2461
I25140003
aI25141403
aS'+'
asS'GPSM3'
p2462
(lp2463
I32190766
aI32195523
aS'-'
asS'HS3ST5'
p2464
(lp2465
I114055586
aI114343045
aS'-'
asS'AL031320.1'
p2466
(lp2467
I143386581
aI143387409
aS'+'
asS'KIAA0408'
p2468
(lp2469
I127443247
aI127459391
aS'-'
asS'AL357563.1'
p2470
(lp2471
I74282266
aI74282660
aS'+'
asS'ERHP2'
p2472
(lp2473
I54016479
aI54016777
aS'-'
asS'GUSBP4'
p2474
(lp2475
I57919784
aI57930291
aS'-'
asS'GUSBP2'
p2476
(lp2477
I26871484
aI26956554
aS'-'
asS'MOXD1'
p2478
(lp2479
I132296055
aI132401545
aS'-'
asS'MESTP1'
p2480
(lp2481
I128928995
aI128929988
aS'-'
asS'WASF1'
p2482
(lp2483
I110099819
aI110180004
aS'-'
asS'AL513043.2'
p2484
(lp2485
I63612761
aI63612903
aS'-'
asS'AL513043.1'
p2486
(lp2487
I63615827
aI63616361
aS'-'
asS'PSORS1C1'
p2488
(lp2489
I31114831
aI31140092
aS'+'
asS'SLC22A7'
p2490
(lp2491
I43298264
aI43305538
aS'+'
asS'SYNJ2'
p2492
(lp2493
I157981887
aI158099176
aS'+'
asS'RPL5P20'
p2494
(lp2495
I19348181
aI19349076
aS'+'
asS'RPL5P21'
p2496
(lp2497
I129756298
aI129757112
aS'-'
asS'PRDM1'
p2498
(lp2499
I106086320
aI106109938
aS'+'
asS'MYCT1'
p2500
(lp2501
I152697895
aI152724567
aS'+'
asS'GPX6'
p2502
(lp2503
I28506333
aI28528215
aS'-'
asS'Z99129.1'
p2504
(lp2505
I122454358
aI122454612
aS'+'
asS'Z99129.2'
p2506
(lp2507
I122531123
aI122531436
aS'-'
asS'GTPBP2'
p2508
(lp2509
I43605316
aI43622167
aS'-'
asS'AL391903.2'
p2510
(lp2511
I41250851
aI41251097
aS'+'
asS'AL391903.3'
p2512
(lp2513
I41252696
aI41252858
aS'+'
asS'AL391903.1'
p2514
(lp2515
I41269875
aI41270239
aS'-'
asS'C6orf132'
p2516
(lp2517
I42101118
aI42142444
aS'-'
asS'C6orf136'
p2518
(lp2519
I30647039
aI30653209
aS'+'
asS'SNRNP48'
p2520
(lp2521
I7590199
aI7611967
aS'+'
asS'AL662791.3'
p2522
(lp2523
I29071824
aI29072599
aS'-'
asS'ATF6B'
p2524
(lp2525
I32098176
aI32117610
aS'-'
asS'GSTA7P'
p2526
(lp2527
I52739590
aI52744656
aS'-'
asS'B3GALNT2P1'
p2528
(lp2529
I129800908
aI129802214
aS'+'
asS'FYN'
p2530
(lp2531
I111660332
aI111873452
aS'-'
asS'AL031777.2'
p2532
(lp2533
I26219045
aI26219240
aS'+'
asS'LYRM2'
p2534
(lp2535
I89568144
aI89638716
aS'-'
asS'AL031777.1'
p2536
(lp2537
I26202156
aI26202654
aS'+'
asS'LYRM4'
p2538
(lp2539
I5102593
aI5260939
aS'-'
asS'AL009179.1'
p2540
(lp2541
I27807075
aI27807339
aS'+'
asS'TRMT11'
p2542
(lp2543
I125986479
aI126039276
aS'+'
asS'AL583834.1'
p2544
(lp2545
I43328134
aI43328476
aS'+'
asS'PDE7B'
p2546
(lp2547
I135851696
aI136195574
aS'+'
asS'MYB'
p2548
(lp2549
I135181315
aI135219171
aS'+'
asS'AL121949.3'
p2550
(lp2551
I63392222
aI63392606
aS'+'
asS'ACTBP8'
p2552
(lp2553
I88275882
aI88276989
aS'-'
asS'AL121949.2'
p2554
(lp2555
I63395007
aI63397106
aS'-'
asS'PRRC2A'
p2556
(lp2557
I31620720
aI31637771
aS'+'
asS'WBP1LP12'
p2558
(lp2559
I95124
aI95454
aS'+'
asS'SERPINB9'
p2560
(lp2561
I2887266
aI2903280
aS'-'
asS'GSTA9P'
p2562
(lp2563
I52939906
aI52957521
aS'-'
asS'SERPINB1'
p2564
(lp2565
I2832332
aI2842006
aS'-'
asS'SERPINB6'
p2566
(lp2567
I2948160
aI2972165
aS'-'
asS'PNLDC1'
p2568
(lp2569
I159800249
aI159820703
aS'+'
asS'HCG4B'
p2570
(lp2571
I29925983
aI29926973
aS'-'
asS'C6orf62'
p2572
(lp2573
I24704861
aI24720836
aS'-'
asS'UBD'
p2574
(lp2575
I29555515
aI29559925
aS'-'
asS'AL357084.1'
p2576
(lp2577
I140922457
aI140922910
aS'-'
asS'MPIG6B'
p2578
(lp2579
I31718594
aI31725035
aS'+'
asS'AL035633.1'
p2580
(lp2581
I72316599
aI72317436
aS'-'
asS'DEK'
p2582
(lp2583
I18223868
aI18264823
aS'-'
asS'DPPA5'
p2584
(lp2585
I73353062
aI73354295
aS'-'
asS'KLHDC3'
p2586
(lp2587
I43014103
aI43021298
aS'+'
asS'GSTA12P'
p2588
(lp2589
I52765280
aI52778347
aS'-'
asS'PSMG4'
p2590
(lp2591
I3258984
aI3303373
aS'+'
asS'TNXB'
p2592
(lp2593
I32041154
aI32109374
aS'-'
asS'ZKSCAN3'
p2594
(lp2595
I28349914
aI28369177
aS'+'
asS'HDDC2'
p2596
(lp2597
I125221928
aI125301958
aS'-'
asS'TNXA'
p2598
(lp2599
I32008614
aI32012472
aS'-'
asS'CAGE1'
p2600
(lp2601
I7326659
aI7389743
aS'-'
asS'TMEM170B'
p2602
(lp2603
I11538278
aI11583524
aS'+'
asS'TRAPPC3L'
p2604
(lp2605
I116496483
aI116545610
aS'-'
asS'KLHL32'
p2606
(lp2607
I96924620
aI97140754
aS'+'
asS'SIRT5'
p2608
(lp2609
I13574529
aI13615158
aS'+'
asS'KLHL31'
p2610
(lp2611
I53647901
aI53665708
aS'-'
asS'NHSL1'
p2612
(lp2613
I138447065
aI138692571
aS'-'
asS'PAK1IP1'
p2614
(lp2615
I10694695
aI10709782
aS'+'
asS'AL109615.1'
p2616
(lp2617
I44089242
aI44089696
aS'-'
asS'ZKSCAN8'
p2618
(lp2619
I28141938
aI28159472
aS'+'
asS'TRIM40'
p2620
(lp2621
I30136108
aI30148735
aS'+'
asS'AL078601.3'
p2622
(lp2623
I79406240
aI79406774
aS'-'
asS'TBPL1'
p2624
(lp2625
I133953195
aI133990432
aS'+'
asS'PEX7'
p2626
(lp2627
I136822585
aI136913937
aS'+'
asS'PEX6'
p2628
(lp2629
I42963870
aI42979220
aS'-'
asS'AL157777.1'
p2630
(lp2631
I86897118
aI86897421
aS'+'
asS'MTCYBP4'
p2632
(lp2633
I133150568
aI133150816
aS'+'
asS'AL157777.2'
p2634
(lp2635
I86897547
aI86897683
aS'+'
asS'RBM24'
p2636
(lp2637
I17281346
aI17293875
aS'+'
asS'TUBBP9'
p2638
(lp2639
I39992815
aI40000233
aS'+'
asS'AL603865.2'
p2640
(lp2641
I121641009
aI121641221
aS'-'
asS'AL603865.1'
p2642
(lp2643
I121682925
aI121684272
aS'+'
asS'BTN3A2'
p2644
(lp2645
I26365159
aI26378320
aS'+'
asS'BTN3A3'
p2646
(lp2647
I26440472
aI26453415
aS'+'
asS'BTN3A1'
p2648
(lp2649
I26402237
aI26415216
aS'+'
asS'EPHA7'
p2650
(lp2651
I93240020
aI93419526
aS'-'
asS'TCP10'
p2652
(lp2653
I167357031
aI167384510
aS'-'
asS'ME1'
p2654
(lp2655
I83210389
aI83431071
aS'-'
asS'HFE'
p2656
(lp2657
I26087319
aI26098343
aS'+'
asS'HLA-N'
p2658
(lp2659
I30351416
aI30351550
aS'+'
asS'PBOV1'
p2660
(lp2661
I138215986
aI138218491
aS'-'
asS'TBC1D7'
p2662
(lp2663
I13266542
aI13326912
aS'-'
asS'HLA-B'
p2664
(lp2665
I31269491
aI31355404
aS'-'
asS'CITED2'
p2666
(lp2667
I139371807
aI139374620
aS'-'
asS'ABHD16A'
p2668
(lp2669
I31686949
aI31703444
aS'-'
asS'TIAM2'
p2670
(lp2671
I154832697
aI155257723
aS'+'
asS'PDSS2'
p2672
(lp2673
I107152557
aI107459563
aS'-'
asS'COL9A1'
p2674
(lp2675
I70215061
aI70303083
aS'-'
asS'AL139805.1'
p2676
(lp2677
I131819803
aI131820091
aS'-'
asS'AL139805.2'
p2678
(lp2679
I131825981
aI131828413
aS'-'
asS'SYNE1'
p2680
(lp2681
I152121684
aI152637399
aS'-'
asS'NPM1P10'
p2682
(lp2683
I104025540
aI104026763
aS'-'
asS'GOPC'
p2684
(lp2685
I117560272
aI117602542
aS'-'
asS'AL353706.1'
p2686
(lp2687
I108387512
aI108388080
aS'+'
asS'U91328.1'
p2688
(lp2689
I26016379
aI26016601
aS'+'
asS'AL669918.1'
p2690
(lp2691
I32813767
aI32838822
aS'-'
asS'RNF144B'
p2692
(lp2693
I18387350
aI18468874
aS'+'
asS'ADGRB3'
p2694
(lp2695
I68635367
aI69389511
aS'+'
asS'GAPDHP41'
p2696
(lp2697
I60719222
aI60720196
aS'-'
asS'GAPDHP42'
p2698
(lp2699
I69745871
aI69746851
aS'+'
asS'RPS12'
p2700
(lp2701
I132814441
aI132817564
aS'+'
asS'RPS10'
p2702
(lp2703
I34417454
aI34426125
aS'-'
asS'CLPS'
p2704
(lp2705
I35794982
aI35797344
aS'-'
asS'RPS18'
p2706
(lp2707
I33272010
aI33276510
aS'+'
asS'LAMA2'
p2708
(lp2709
I128883141
aI129516563
aS'+'
asS'RIPK1'
p2710
(lp2711
I3068424
aI3115185
aS'+'
asS'LATS1'
p2712
(lp2713
I149658153
aI149718256
aS'-'
asS'ZC3H12D'
p2714
(lp2715
I149446795
aI149485061
aS'-'
asS'AL022722.1'
p2716
(lp2717
I119269133
aI119269714
aS'-'
asS'AL022722.2'
p2718
(lp2719
I119159297
aI119159476
aS'+'
asS'BEND3'
p2720
(lp2721
I107065182
aI107115269
aS'-'
asS'HLA-P'
p2722
(lp2723
I29800415
aI29802425
aS'+'
asS'GCLC'
p2724
(lp2725
I53522465
aI53616970
aS'-'
asS'HLA-U'
p2726
(lp2727
I29934101
aI29934286
aS'+'
asS'NIP7P3'
p2728
(lp2729
I116137058
aI116137572
aS'-'
asS'KCTD20'
p2730
(lp2731
I36442767
aI36491143
aS'+'
asS'GSTA6P'
p2732
(lp2733
I52805613
aI52813460
aS'-'
asS'RRAGD'
p2734
(lp2735
I89364636
aI89412270
aS'-'
asS'PIM1'
p2736
(lp2737
I37170203
aI37175426
aS'+'
asS'TNF'
p2738
(lp2739
I31575567
aI31578336
aS'+'
asS'AL355796.1'
p2740
(lp2741
I79278105
aI79278427
aS'-'
asS'Z95152.1'
p2742
(lp2743
I36091991
aI36092646
aS'-'
asS'RPL5P19'
p2744
(lp2745
I92013842
aI92014734
aS'+'
asS'RPL5P18'
p2746
(lp2747
I127362513
aI127363403
aS'+'
asS'EZR'
p2748
(lp2749
I158765748
aI158819412
aS'-'
asS'OR2B2'
p2750
(lp2751
I27911185
aI27912396
aS'-'
asS'OR2B3'
p2752
(lp2753
I29086208
aI29087313
aS'-'
asS'PTPRK'
p2754
(lp2755
I127968779
aI128520674
aS'-'
asS'OR2B6'
p2756
(lp2757
I27957241
aI27958182
aS'+'
asS'STK19'
p2758
(lp2759
I31972381
aI31982821
aS'+'
asS'Z84480.1'
p2760
(lp2761
I110863860
aI110864451
aS'+'
asS'AP002530.1'
p2762
(lp2763
I102078872
aI102079555
aS'+'
asS'FKBP5'
p2764
(lp2765
I35573585
aI35728583
aS'-'
asS'RARS2'
p2766
(lp2767
I87514378
aI87590003
aS'-'
asS'OSTCP1'
p2768
(lp2769
I158841117
aI158857632
aS'-'
asS'SRSF12'
p2770
(lp2771
I89095959
aI89118081
aS'-'
asS'AL356535.1'
p2772
(lp2773
I151225550
aI151225947
aS'-'
asS'AL359711.1'
p2774
(lp2775
I109288440
aI109288562
aS'+'
asS'C6orf120'
p2776
(lp2777
I169702190
aI169704856
aS'+'
asS'AL390316.1'
p2778
(lp2779
I77496119
aI77496671
aS'+'
asS'AL359715.1'
p2780
(lp2781
I80374015
aI80374569
aS'-'
asS'HEBP2'
p2782
(lp2783
I138404219
aI138422197
aS'+'
asS'HBS1L'
p2784
(lp2785
I135002815
aI135103056
aS'-'
asS'UBQLN1P1'
p2786
(lp2787
I30363112
aI30364280
aS'-'
asS'AL391646.1'
p2788
(lp2789
I108551018
aI108551207
aS'-'
asS'GSTM2P1'
p2790
(lp2791
I111046868
aI111047521
aS'-'
asS'FKBPL'
p2792
(lp2793
I32128707
aI32130291
aS'-'
asS'CCND3'
p2794
(lp2795
I41934934
aI42050357
aS'-'
asS'PRDX2P4'
p2796
(lp2797
I100136064
aI100136663
aS'+'
asS'AL591416.1'
p2798
(lp2799
I23102680
aI23103546
aS'+'
asS'AL513475.1'
p2800
(lp2801
I144706733
aI144707047
aS'-'
asS'AL513475.2'
p2802
(lp2803
I144708106
aI144708497
aS'-'
asS'IPCEF1'
p2804
(lp2805
I154154609
aI154356766
aS'-'
asS'TCF19'
p2806
(lp2807
I31161449
aI31167159
aS'+'
asS'ASS1P1'
p2808
(lp2809
I25023247
aI25024483
aS'-'
asS'HMGN4'
p2810
(lp2811
I26538405
aI26546254
aS'+'
asS'HMGN3'
p2812
(lp2813
I79201249
aI79234738
aS'-'
asS'CLPSL1'
p2814
(lp2815
I35781017
aI35788152
aS'+'
asS'CLPSL2'
p2816
(lp2817
I35776594
aI35779552
aS'+'
asS'SLC25A6P6'
p2818
(lp2819
I70663502
aI70664279
aS'-'
asS'B3GAT2'
p2820
(lp2821
I70856679
aI70957038
aS'-'
asS'GABBR1'
p2822
(lp2823
I29555629
aI29628038
aS'-'
asS'RWDD2A'
p2824
(lp2825
I83193379
aI83198932
aS'+'
asS'AL590704.1'
p2826
(lp2827
I144397959
aI144398752
aS'+'
asS'RPL10P10'
p2828
(lp2829
I54602487
aI54603150
aS'-'
asS'C4A'
p2830
(lp2831
I31982024
aI32002681
aS'+'
asS'C4B'
p2832
(lp2833
I32014762
aI32035418
aS'+'
asS'BTF3L4P3'
p2834
(lp2835
I137543897
aI137544372
aS'-'
asS'VN1R12P'
p2836
(lp2837
I27033435
aI27034310
aS'-'
asS'RIPPLY2'
p2838
(lp2839
I83853266
aI83857515
aS'+'
asS'GPX5'
p2840
(lp2841
I28525925
aI28534952
aS'+'
asS'SLC22A1'
p2842
(lp2843
I160121789
aI160158718
aS'+'
asS'SLC22A2'
p2844
(lp2845
I160171061
aI160245541
aS'-'
asS'SLC22A3'
p2846
(lp2847
I160348268
aI160452581
aS'+'
asS'ST13P16'
p2848
(lp2849
I87444395
aI87445175
aS'-'
asS'CRIP3'
p2850
(lp2851
I43299710
aI43307876
aS'-'
asS'MTCO2P33'
p2852
(lp2853
I24947880
aI24948344
aS'+'
asS'AL121949.1'
p2854
(lp2855
I63440766
aI63443580
aS'+'
asS'GABRR1'
p2856
(lp2857
I89178599
aI89231278
aS'-'
asS'GABRR2'
p2858
(lp2859
I89257520
aI89315299
aS'-'
asS'RCAN2'
p2860
(lp2861
I46220738
aI46491972
aS'-'
asS'AL355615.1'
p2862
(lp2863
I85731371
aI85732011
aS'+'
asS'AL357075.2'
p2864
(lp2865
I154542552
aI154542740
aS'+'
asS'HIST1H2BL'
p2866
(lp2867
I27807444
aI27807931
aS'-'
asS'TAF11'
p2868
(lp2869
I34877778
aI34888089
aS'-'
asS'AL357075.1'
p2870
(lp2871
I154549517
aI154550242
aS'+'
asS'RNASET2'
p2872
(lp2873
I166929540
aI166957184
aS'-'
asS'HIST1H2BN'
p2874
(lp2875
I27838662
aI27865798
aS'+'
asS'POLH'
p2876
(lp2877
I43576150
aI43615660
aS'+'
asS'MTND3P20'
p2878
(lp2879
I153668177
aI153668362
aS'+'
asS'AL035090.1'
p2880
(lp2881
I20722328
aI20723655
aS'-'
asS'NUS1'
p2882
(lp2883
I117675502
aI117710640
aS'+'
asS'BEND6'
p2884
(lp2885
I56955292
aI57027342
aS'+'
asS'IL17F'
p2886
(lp2887
I52236681
aI52244537
aS'-'
asS'LAMA4'
p2888
(lp2889
I112108760
aI112254715
aS'-'
asS'IL17A'
p2890
(lp2891
I52186387
aI52190638
aS'+'
asS'RXRB'
p2892
(lp2893
I33193588
aI33200688
aS'-'
asS'OPRM1'
p2894
(lp2895
I154039479
aI154246860
aS'+'
asS'MTATP6P31'
p2896
(lp2897
I153666627
aI153667318
aS'+'
asS'BPHL'
p2898
(lp2899
I3118692
aI3153578
aS'+'
asS'AL512384.1'
p2900
(lp2901
I25732497
aI25732827
aS'+'
asS'EEF1DP5'
p2902
(lp2903
I128580113
aI128580884
aS'-'
asS'CLNS1AP1'
p2904
(lp2905
I54485169
aI54485850
aS'-'
asS'TMEM151B'
p2906
(lp2907
I44270743
aI44307506
aS'+'
asS'AL021918.1'
p2908
(lp2909
I27515039
aI27515274
aS'-'
asS'AL021918.2'
p2910
(lp2911
I27510501
aI27510694
aS'+'
asS'AL121977.1'
p2912
(lp2913
I82263996
aI82264974
aS'-'
asS'AL122016.1'
p2914
(lp2915
I85257328
aI85257694
aS'+'
asS'CICP18'
p2916
(lp2917
I142272
aI145083
aS'-'
asS'QKI'
p2918
(lp2919
I163414643
aI163578596
aS'+'
asS'TAAR7P'
p2920
(lp2921
I132559024
aI132559265
aS'+'
asS'GNG5P1'
p2922
(lp2923
I166240290
aI166240493
aS'-'
asS'HSD17B8'
p2924
(lp2925
I33204642
aI33206831
aS'+'
asS'MTND4P13'
p2926
(lp2927
I153668879
aI153669901
aS'+'
asS'AARS2'
p2928
(lp2929
I44299654
aI44313326
aS'-'
asS'RPS17P5'
p2930
(lp2931
I50857255
aI50857662
aS'-'
asS'TTLL2'
p2932
(lp2933
I167325098
aI167359503
aS'+'
asS'RPL24P4'
p2934
(lp2935
I42956345
aI42956765
aS'-'
asS'KRT19P1'
p2936
(lp2937
I71584721
aI71585906
aS'+'
asS'HIST1H3PS1'
p2938
(lp2939
I26321876
aI26322292
aS'-'
asS'GLRX3P2'
p2940
(lp2941
I3978062
aI3979099
aS'+'
asS'SLC35F1'
p2942
(lp2943
I117907526
aI118317676
aS'+'
asS'MYO6'
p2944
(lp2945
I75749192
aI75919537
aS'+'
asS'IER3'
p2946
(lp2947
I30743199
aI30744554
aS'-'
asS'KIF13A'
p2948
(lp2949
I17759183
aI17987463
aS'-'
asS'ZNF391'
p2950
(lp2951
I27374615
aI27399548
aS'+'
asS'GJE1'
p2952
(lp2953
I142133090
aI142135151
aS'+'
asS'COL11A2'
p2954
(lp2955
I33162681
aI33192499
aS'-'
asS'MPC1'
p2956
(lp2957
I166364919
aI166383013
aS'-'
asS'AK4P5'
p2958
(lp2959
I80077729
aI80078362
aS'-'
asS'GCM1'
p2960
(lp2961
I53126964
aI53148829
aS'-'
asS'AL450405.1'
p2962
(lp2963
I117998975
aI117999448
aS'+'
asS'GCM2'
p2964
(lp2965
I10873223
aI10881941
aS'-'
asS'ROS1'
p2966
(lp2967
I117288300
aI117425855
aS'-'
asS'POPDC3'
p2968
(lp2969
I105158360
aI105179995
aS'-'
asS'TUBB3P1'
p2970
(lp2971
I89301783
aI89303114
aS'+'
asS'FOXF2'
p2972
(lp2973
I1389834
aI1395597
aS'+'
asS'OR2B7P'
p2974
(lp2975
I28046434
aI28047367
aS'+'
asS'AL606923.1'
p2976
(lp2977
I68598204
aI68598393
aS'-'
asS'AL359535.1'
p2978
(lp2979
I126627484
aI126628570
aS'-'
asS'MRPL48P1'
p2980
(lp2981
I10459906
aI10460541
aS'-'
asS'MCHR2'
p2982
(lp2983
I99919910
aI99994223
aS'-'
asS'SUMO2P8'
p2984
(lp2985
I108618000
aI108618285
aS'-'
asS'TNFRSF21'
p2986
(lp2987
I47231532
aI47309905
aS'-'
asS'TFB1M'
p2988
(lp2989
I155257509
aI155314484
aS'-'
asS'SUMO2P1'
p2990
(lp2991
I29636060
aI29636343
aS'-'
asS'AL049697.2'
p2992
(lp2993
I87425795
aI87426088
aS'-'
asS'AL049697.3'
p2994
(lp2995
I87441165
aI87442146
aS'-'
asS'LPA'
p2996
(lp2997
I160531483
aI160664259
aS'-'
asS'AL049697.1'
p2998
(lp2999
I87408012
aI87496140
aS'+'
asS'SYNCRIP'
p3000
(lp3001
I85607785
aI85642922
aS'-'
asS'ARID1B'
p3002
(lp3003
I156777374
aI157210779
aS'+'
asS'AL034374.1'
p3004
(lp3005
I53354715
aI53355065
aS'+'
asS'KIF25'
p3006
(lp3007
I167999092
aI168045063
aS'+'
asS'VIP'
p3008
(lp3009
I152750798
aI152759765
aS'+'
asS'ALDH5A1'
p3010
(lp3011
I24494852
aI24537207
aS'+'
asS'CYP51A1P3'
p3012
(lp3013
I148478693
aI148480763
aS'+'
asS'DDAH2'
p3014
(lp3015
I31727038
aI31730617
aS'-'
asS'HUS1B'
p3016
(lp3017
I655939
aI656963
aS'-'
asS'HSPD1P16'
p3018
(lp3019
I152705735
aI152706128
aS'+'
asS'CYB5R4'
p3020
(lp3021
I83859643
aI83967424
aS'+'
asS'HSPD1P10'
p3022
(lp3023
I87298772
aI87300447
aS'+'
asS'AL512428.1'
p3024
(lp3025
I24797373
aI24809798
aS'-'
asS'SNX9'
p3026
(lp3027
I157700387
aI157875149
aS'+'
asS'SLC29A1'
p3028
(lp3029
I44219505
aI44234151
aS'+'
asS'RNGTT'
p3030
(lp3031
I88610272
aI88963721
aS'-'
asS'SHPRH'
p3032
(lp3033
I145884807
aI145964389
aS'-'
asS'AL133351.4'
p3034
(lp3035
I3023142
aI3023772
aS'-'
asS'VN1R13P'
p3036
(lp3037
I27060365
aI27061249
aS'-'
asS'TREML3P'
p3038
(lp3039
I41208713
aI41217947
aS'-'
asS'OR1F12'
p3040
(lp3041
I28073316
aI28074233
aS'+'
asS'FIG4'
p3042
(lp3043
I109691312
aI109825428
aS'+'
asS'SAPCD1'
p3044
(lp3045
I31762996
aI31764851
aS'+'
asS'AL662795.1'
p3046
(lp3047
I30359278
aI30359911
aS'-'
asS'UNC93A'
p3048
(lp3049
I167271169
aI167296196
aS'+'
asS'COX6A1P2'
p3050
(lp3051
I37044860
aI37045189
aS'+'
asS'C6orf201'
p3052
(lp3053
I4079209
aI4130951
aS'+'
asS'C6orf203'
p3054
(lp3055
I107028213
aI107051342
aS'+'
asS'KRT8P42'
p3056
(lp3057
I134296997
aI134298695
aS'-'
asS'AL645939.3'
p3058
(lp3059
I29748289
aI29748513
aS'+'
asS'MMS22L'
p3060
(lp3061
I97142161
aI97283176
aS'-'
asS'NCR2'
p3062
(lp3063
I41335655
aI41350858
aS'+'
asS'IBTK'
p3064
(lp3065
I82169983
aI82247754
aS'-'
asS'AL021407.1'
p3066
(lp3067
I16163377
aI16163762
aS'-'
asS'AL021407.3'
p3068
(lp3069
I16160926
aI16161411
aS'+'
asS'AL021407.2'
p3070
(lp3071
I16107622
aI16108593
aS'+'
asS'AL513548.2'
p3072
(lp3073
I26611903
aI26613109
aS'-'
asS'TUBB2A'
p3074
(lp3075
I3153669
aI3157526
aS'-'
asS'TUBB2B'
p3076
(lp3077
I3224283
aI3231730
aS'-'
asS'C6orf48'
p3078
(lp3079
I31834608
aI31839761
aS'+'
asS'IRF4'
p3080
(lp3081
I391739
aI411447
aS'+'
asS'AL645939.2'
p3082
(lp3083
I29722981
aI29723971
aS'-'
asS'AL451165.1'
p3084
(lp3085
I34715613
aI34715940
aS'+'
asS'TUBB'
p3086
(lp3087
I30720201
aI30725426
aS'+'
asS'C6orf47'
p3088
(lp3089
I31658298
aI31660772
aS'-'
asS'RANP1'
p3090
(lp3091
I30485940
aI30486590
aS'+'
asS'AL353692.1'
p3092
(lp3093
I89814709
aI89815463
aS'+'
asS'AL353692.3'
p3094
(lp3095
I89886156
aI89887848
aS'+'
asS'AL353692.2'
p3096
(lp3097
I89876544
aI89876878
aS'+'
asS'MUT'
p3098
(lp3099
I49430360
aI49463191
aS'-'
asS'AL136226.1'
p3100
(lp3101
I10118452
aI10119253
aS'+'
asS'HDAC2'
p3102
(lp3103
I113956629
aI114011308
aS'-'
asS'THEMIS'
p3104
(lp3105
I127708072
aI127918540
aS'-'
asS'TPT1P6'
p3106
(lp3107
I85427453
aI85427966
aS'-'
asS'TPT1P4'
p3108
(lp3109
I144200447
aI144200965
aS'-'
asS'AHI1'
p3110
(lp3111
I135283532
aI135497745
aS'-'
asS'FABP7'
p3112
(lp3113
I122779475
aI122784074
aS'+'
asS'AL671883.1'
p3114
(lp3115
I31307815
aI31308549
aS'-'
asS'KIAA1586'
p3116
(lp3117
I57046532
aI57055239
aS'+'
asS'ZBTB12'
p3118
(lp3119
I31899607
aI31901992
aS'-'
asS'KRT18P22'
p3120
(lp3121
I116457323
aI116458669
aS'-'
asS'HNRNPA1P1'
p3122
(lp3123
I27523076
aI27524339
aS'+'
asS'HNRNPA1P2'
p3124
(lp3125
I32325219
aI32326178
aS'+'
asS'FILIP1'
p3126
(lp3127
I75291859
aI75493629
aS'-'
asS'AL603914.1'
p3128
(lp3129
I110706362
aI110706882
aS'-'
asS'WDR27'
p3130
(lp3131
I169457212
aI169701653
aS'-'
asS'AL358178.1'
p3132
(lp3133
I47562622
aI47563018
aS'+'
asS'AL355312.1'
p3134
(lp3135
I149904243
aI149906418
aS'+'
asS'AL162578.1'
p3136
(lp3137
I156976294
aI156977072
aS'+'
asS'MTO1'
p3138
(lp3139
I73461578
aI73509236
aS'+'
asS'PEX3'
p3140
(lp3141
I143450980
aI143490010
aS'+'
asS'FAM8A6P'
p3142
(lp3143
I134603564
aI134604698
aS'-'
asS'CNN2P9'
p3144
(lp3145
I110858239
aI110859147
aS'+'
asS'MAS1'
p3146
(lp3147
I159906690
aI159916530
aS'+'
asS'FO393414.2'
p3148
(lp3149
I72522641
aI72523238
aS'+'
asS'FO393414.1'
p3150
(lp3151
I72598451
aI72599634
aS'-'
asS'POLR2LP1'
p3152
(lp3153
I31140727
aI31140913
aS'+'
asS'TAAR5'
p3154
(lp3155
I132588673
aI132589686
aS'-'
asS'TAAR6'
p3156
(lp3157
I132570322
aI132571359
aS'+'
asS'TAAR1'
p3158
(lp3159
I132644984
aI132646003
aS'-'
asS'TAAR2'
p3160
(lp3161
I132617150
aI132624275
aS'-'
asS'CD109'
p3162
(lp3163
I73695785
aI73828316
aS'+'
asS'TAAR9'
p3164
(lp3165
I132538290
aI132539336
aS'+'
asS'TAAR8'
p3166
(lp3167
I132552693
aI132553721
aS'+'
asS'HNRNPA1P37'
p3168
(lp3169
I5609227
aI5610195
aS'-'
asS'RPL10A'
p3170
(lp3171
I35468408
aI35470785
aS'+'
asS'RPS4XP8'
p3172
(lp3173
I154576309
aI154577079
aS'+'
asS'NEU1'
p3174
(lp3175
I31857659
aI31862796
aS'-'
asS'PHBP1'
p3176
(lp3177
I150042546
aI150043353
aS'+'
asS'RPS24P12'
p3178
(lp3179
I107229759
aI107230152
aS'+'
asS'FO393413.1'
p3180
(lp3181
I49273600
aI49273794
aS'+'
asS'AL136228.1'
p3182
(lp3183
I155004835
aI155005318
aS'-'
asS'MRPS10'
p3184
(lp3185
I42206801
aI42217865
aS'-'
asS'SOX4'
p3186
(lp3187
I21592768
aI21598619
aS'+'
asS'TRDN'
p3188
(lp3189
I123216339
aI123637093
aS'-'
asS'THAP12P5'
p3190
(lp3191
I11514192
aI11516466
aS'+'
asS'AL365223.1'
p3192
(lp3193
I136900233
aI136901529
aS'-'
asS'PRR3'
p3194
(lp3195
I30556886
aI30563723
aS'+'
asS'FAM229B'
p3196
(lp3197
I112087599
aI112102790
aS'+'
asS'OR2B8P'
p3198
(lp3199
I28053228
aI28054165
aS'-'
asS'NPM1P36'
p3200
(lp3201
I55939790
aI55940624
aS'-'
asS'NPM1P37'
p3202
(lp3203
I69705287
aI69706160
aS'-'
asS'CCHCR1'
p3204
(lp3205
I31142439
aI31158238
aS'-'
asS'TMEM244'
p3206
(lp3207
I129831322
aI129861547
aS'-'
asS'AL662899.3'
p3208
(lp3209
I31666102
aI31673546
aS'+'
asS'LSM2'
p3210
(lp3211
I31797396
aI31806984
aS'-'
asS'AL662899.2'
p3212
(lp3213
I31706904
aI31717918
aS'+'
asS'AL512329.1'
p3214
(lp3215
I1513698
aI1515289
aS'-'
asS'DCBLD1'
p3216
(lp3217
I117482657
aI117569858
aS'+'
asS'ABCF1'
p3218
(lp3219
I30571376
aI30591532
aS'+'
asS'NOTCH4'
p3220
(lp3221
I32194843
aI32224067
aS'-'
asS'LCA5'
p3222
(lp3223
I79484991
aI79537430
aS'-'
asS'SSR1'
p3224
(lp3225
I7301333
aI7347446
aS'-'
asS'AL021808.1'
p3226
(lp3227
I27268113
aI27269229
aS'+'
asS'AL391361.1'
p3228
(lp3229
I160905770
aI160913638
aS'+'
asS'Z97206.1'
p3230
(lp3231
I105666326
aI105667998
aS'+'
asS'HSF2'
p3232
(lp3233
I122399551
aI122433119
aS'+'
asS'CASP8AP2'
p3234
(lp3235
I89829939
aI89874436
aS'+'
asS'PRPF4B'
p3236
(lp3237
I4021267
aI4064982
aS'+'
asS'TPBG'
p3238
(lp3239
I82363631
aI82370828
aS'+'
asS'AL080276.1'
p3240
(lp3241
I152959359
aI152959605
aS'-'
asS'BTN1A1'
p3242
(lp3243
I26501221
aI26510422
aS'+'
asS'TRIM26BP'
p3244
(lp3245
I30238301
aI30242279
aS'+'
asS'EIF4EBP2P3'
p3246
(lp3247
I98179499
aI98179832
aS'-'
asS'HLA-DPB1'
p3248
(lp3249
I33075926
aI33087201
aS'+'
asS'HLA-DPB2'
p3250
(lp3251
I33112516
aI33129084
aS'+'
asS'AL356421.1'
p3252
(lp3253
I47752828
aI47753240
aS'-'
asS'SLC25A27'
p3254
(lp3255
I46652915
aI46678190
aS'+'
asS'KAAG1'
p3256
(lp3257
I24356903
aI24358284
aS'+'
asS'MAN1A1'
p3258
(lp3259
I119177209
aI119349761
aS'-'
asS'GMPR'
p3260
(lp3261
I16238580
aI16295549
aS'+'
asS'RSPO3'
p3262
(lp3263
I127119038
aI127197765
aS'+'
asS'KHDC1P1'
p3264
(lp3265
I73209083
aI73210080
aS'-'
asS'AL354943.1'
p3266
(lp3267
I70693839
aI70694619
aS'+'
asS'KPNA5'
p3268
(lp3269
I116681187
aI116741866
aS'+'
asS'NMBR'
p3270
(lp3271
I142058330
aI142075922
aS'-'
asS'AL023807.1'
p3272
(lp3273
I17953572
aI17953930
aS'+'
asS'AL590392.1'
p3274
(lp3275
I87891424
aI87891869
aS'+'
asS'GVQW2'
p3276
(lp3277
I138725211
aI138773652
aS'-'
asS'AL354719.1'
p3278
(lp3279
I63797189
aI63798031
aS'+'
asS'ERVFRD-1'
p3280
(lp3281
I11102489
aI11111732
aS'-'
asS'FRS3'
p3282
(lp3283
I41775563
aI41786542
aS'-'
asS'NEPNP'
p3284
(lp3285
I117633706
aI117645087
aS'+'
asS'SLC25A5P7'
p3286
(lp3287
I121653795
aI121654690
aS'+'
asS'SDHAF4'
p3288
(lp3289
I70566917
aI70589569
aS'+'
asS'CACYBPP3'
p3290
(lp3291
I158515605
aI158516229
aS'-'
asS'PPIAP29'
p3292
(lp3293
I24976419
aI24976982
aS'+'
asS'AL031577.1'
p3294
(lp3295
I34576258
aI34576656
aS'-'
asS'SLC25A51P1'
p3296
(lp3297
I65788417
aI65789287
aS'+'
asS'RTN4IP1'
p3298
(lp3299
I106571971
aI106629487
aS'-'
asS'AL031577.2'
p3300
(lp3301
I34686602
aI34687106
aS'+'
asS'HECA'
p3302
(lp3303
I139135112
aI139180802
aS'+'
asS'PGK2'
p3304
(lp3305
I49785651
aI49787307
aS'-'
asS'HNRNPDP2'
p3306
(lp3307
I64631205
aI64631682
aS'-'
asS'GPR89P'
p3308
(lp3309
I27737000
aI27738494
aS'-'
asS'MB21D1'
p3310
(lp3311
I73413515
aI73452259
aS'-'
asS'MRPL35P1'
p3312
(lp3313
I13949095
aI13949666
aS'+'
asS'SPACA1'
p3314
(lp3315
I88047789
aI88066832
aS'+'
asS'SH3BGRL2'
p3316
(lp3317
I79631283
aI79703659
aS'+'
asS'AL032822.1'
p3318
(lp3319
I23971879
aI23972941
aS'+'
asS'STK38'
p3320
(lp3321
I36493892
aI36547470
aS'-'
asS'SOGA3'
p3322
(lp3323
I127438406
aI127519001
aS'-'
asS'GGNBP1'
p3324
(lp3325
I33540046
aI33584752
aS'+'
asS'TMEM242'
p3326
(lp3327
I157289386
aI157323601
aS'-'
asS'C6orf52'
p3328
(lp3329
I10671422
aI10694797
aS'-'
asS'AL592429.1'
p3330
(lp3331
I139338018
aI139339580
aS'+'
asS'CCR6'
p3332
(lp3333
I167111807
aI167139141
aS'+'
asS'C6orf58'
p3334
(lp3335
I127519455
aI127578707
aS'+'
asS'EHMT2'
p3336
(lp3337
I31879759
aI31897684
aS'-'
asS'ZNF602P'
p3338
(lp3339
I28115628
aI28116551
aS'+'
asS'LPAL2'
p3340
(lp3341
I160453428
aI160511007
aS'-'
asS'CEP162'
p3342
(lp3343
I84124241
aI84227635
aS'-'
asS'CD83'
p3344
(lp3345
I14117256
aI14136918
aS'+'
asS'MCCD1P1'
p3346
(lp3347
I29907783
aI29908645
aS'-'
asS'MCCD1P2'
p3348
(lp3349
I29994437
aI29995314
aS'-'
asS'CYCSP17'
p3350
(lp3351
I95504182
aI95504496
aS'+'
asS'ZBED9'
p3352
(lp3353
I28576017
aI28616212
aS'-'
asS'TPD52L1'
p3354
(lp3355
I125119049
aI125248360
aS'+'
asS'MTND4LP19'
p3356
(lp3357
I91727159
aI91727324
aS'+'
asS'VN1R10P'
p3358
(lp3359
I27324894
aI27325768
aS'+'
asS'ZNRD1'
p3360
(lp3361
I30058899
aI30064909
aS'+'
asS'LYPLA2P1'
p3362
(lp3363
I33365548
aI33366243
aS'-'
asS'SGK1'
p3364
(lp3365
I134169246
aI134318058
aS'-'
asS'RWDD1'
p3366
(lp3367
I116571367
aI116597675
aS'+'
asS'AL645936.1'
p3368
(lp3369
I29582508
aI29583025
aS'+'
asS'AL645936.2'
p3370
(lp3371
I29573909
aI29574836
aS'+'
asS'PLG'
p3372
(lp3373
I160702242
aI160753306
aS'+'
asS'HLA-DOA'
p3374
(lp3375
I33004178
aI33009612
aS'-'
asS'HLA-DOB'
p3376
(lp3377
I32812763
aI32817048
aS'-'
asS'PLN'
p3378
(lp3379
I118548298
aI118560730
aS'+'
asS'PRELID1P2'
p3380
(lp3381
I25678769
aI25679164
aS'-'
asS'IYD'
p3382
(lp3383
I150368892
aI150405969
aS'+'
asS'PRELID1P1'
p3384
(lp3385
I126643488
aI126644390
aS'+'
asS'ATP5F1P6'
p3386
(lp3387
I139614438
aI139615204
aS'-'
asS'HLA-DRB9'
p3388
(lp3389
I32459821
aI32473500
aS'-'
asS'MAP7'
p3390
(lp3391
I136342281
aI136550819
aS'-'
asS'TEAD3'
p3392
(lp3393
I35473597
aI35497076
aS'-'
asS'AL645922.1'
p3394
(lp3395
I31927698
aI31952048
aS'+'
asS'TCP10L2'
p3396
(lp3397
I167170648
aI167196913
aS'+'
asS'MCUR1'
p3398
(lp3399
I13786557
aI13814568
aS'-'
asS'R3HDM2P2'
p3400
(lp3401
I104017633
aI104019748
aS'-'
asS'AL138826.1'
p3402
(lp3403
I50093616
aI50181007
aS'+'
asS'GPR53P'
p3404
(lp3405
I29537704
aI29538787
aS'-'
asS'ZNF90P2'
p3406
(lp3407
I28888832
aI28889906
aS'-'
asS'MAD2L1BP'
p3408
(lp3409
I43629540
aI43640919
aS'+'
asS'CLDN20'
p3410
(lp3411
I155264013
aI155276548
aS'+'
asS'AL078595.1'
p3412
(lp3413
I94344737
aI94344962
aS'+'
asS'AL133260.1'
p3414
(lp3415
I151099529
aI151099933
aS'+'
asS'UQCRFS1P3'
p3416
(lp3417
I19638040
aI19638808
aS'-'
asS'BMPR1APS1'
p3418
(lp3419
I129157523
aI129159120
aS'-'
asS'AL138828.2'
p3420
(lp3421
I136206478
aI136206860
aS'+'
asS'EYS'
p3422
(lp3423
I63719980
aI65707225
aS'-'
asS'AL159163.1'
p3424
(lp3425
I166858094
aI166956124
aS'-'
asS'AL607077.1'
p3426
(lp3427
I95630115
aI95632929
aS'-'
asS'HTR1E'
p3428
(lp3429
I86937306
aI87016683
aS'+'
asS'HLA-DQA1'
p3430
(lp3431
I32637431
aI32647062
aS'+'
asS'HLA-DQA2'
p3432
(lp3433
I32741342
aI32747215
aS'+'
asS'MDFI'
p3434
(lp3435
I41637068
aI41654239
aS'+'
asS'GFRAL'
p3436
(lp3437
I55327469
aI55402493
aS'+'
asS'AL359633.1'
p3438
(lp3439
I46438310
aI46438619
aS'+'
asS'ZNF76'
p3440
(lp3441
I35258982
aI35295983
aS'+'
asS'ZDHHC20P2'
p3442
(lp3443
I31380411
aI31380839
aS'+'
asS'SERPINB8P1'
p3444
(lp3445
I3048835
aI3049211
aS'+'
asS'CYP39A1'
p3446
(lp3447
I46549580
aI46652830
aS'-'
asS'GAPDHP73'
p3448
(lp3449
I135619165
aI135620171
aS'-'
asS'GAPDHP72'
p3450
(lp3451
I166058533
aI166066028
aS'+'
asS'EDN1'
p3452
(lp3453
I12290363
aI12297194
aS'+'
asS'ZDHHC20P1'
p3454
(lp3455
I29708125
aI29708547
aS'-'
asS'OOEP'
p3456
(lp3457
I73368555
aI73395093
aS'-'
asS'DEFB133'
p3458
(lp3459
I49946021
aI49950265
aS'-'
asS'DNAJA1P4'
p3460
(lp3461
I114349483
aI114350648
aS'-'
asS'AL390026.1'
p3462
(lp3463
I7620422
aI7620878
aS'+'
asS'ENPP4'
p3464
(lp3465
I46129993
aI46146699
aS'+'
asS'ENPP5'
p3466
(lp3467
I46159187
aI46170971
aS'-'
asS'ENPP3'
p3468
(lp3469
I131628461
aI131747418
aS'+'
asS'ENPP1'
p3470
(lp3471
I131808016
aI131895155
aS'+'
asS'RBPMS2P1'
p3472
(lp3473
I73157517
aI73158139
aS'-'
asS'T'
(lp3474
I166157656
aI166168700
aS'-'
asS'TDP2'
p3475
(lp3476
I24649977
aI24667033
aS'-'
asS'CD2AP'
p3477
(lp3478
I47477789
aI47627263
aS'+'
asS'L3MBTL3'
p3479
(lp3480
I130013699
aI130141449
aS'+'
asS'ZKSCAN4'
p3481
(lp3482
I28244623
aI28252224
aS'-'
asS'AL137222.1'
p3483
(lp3484
I131184325
aI131185486
aS'-'
asS'SERAC1'
p3485
(lp3486
I158109515
aI158168270
aS'-'
asS'OFCC1'
p3487
(lp3488
I9596290
aI9939328
aS'-'
asS'AL663061.1'
p3489
(lp3490
I31528114
aI31528693
aS'+'
asS'AL663061.2'
p3491
(lp3492
I31515979
aI31516211
aS'+'
asS'UFL1'
p3493
(lp3494
I96521808
aI96555276
aS'+'
asS'PCMT1'
p3495
(lp3496
I149749443
aI149811420
aS'+'
asS'AL109755.1'
p3497
(lp3498
I144036618
aI144037704
aS'+'
asS'AL356234.1'
p3499
(lp3500
I137705423
aI137707201
aS'-'
asS'MARCKSL1P2'
p3501
(lp3502
I138402585
aI138403560
aS'-'
asS'THBS2'
p3503
(lp3504
I169215780
aI169254044
aS'-'
asS'SAMD5'
p3505
(lp3506
I147509226
aI147737547
aS'+'
asS'TMEM181'
p3507
(lp3508
I158536436
aI158635428
aS'+'
asS'SAMD3'
p3509
(lp3510
I130144315
aI130365425
aS'-'
asS'AL034345.1'
p3511
(lp3512
I38928031
aI38928153
aS'+'
asS'AL078599.1'
p3513
(lp3514
I81764211
aI81764503
aS'+'
asS'DDX18P3'
p3515
(lp3516
I18363417
aI18365423
aS'-'
asS'AL589655.1'
p3517
(lp3518
I38002832
aI38003313
aS'-'
asS'PKHD1'
p3519
(lp3520
I51615300
aI52087625
aS'-'
asS'PTCRA'
p3521
(lp3522
I42915989
aI42925835
aS'+'
asS'YIPF3'
p3523
(lp3524
I43511827
aI43516990
aS'-'
asS'ETV7'
p3525
(lp3526
I36354091
aI36387566
aS'-'
asS'ARG1'
p3527
(lp3528
I131573144
aI131584332
aS'+'
asS'TAF8'
p3529
(lp3530
I42050522
aI42087461
aS'+'
asS'FAM8A1'
p3531
(lp3532
I17600355
aI17611719
aS'+'
asS'BTBD9'
p3533
(lp3534
I38168451
aI38639924
aS'-'
asS'AIF1'
p3535
(lp3536
I31615184
aI31617021
aS'+'
asS'AL590084.1'
p3537
(lp3538
I25181359
aI25181745
aS'+'
asS'SNX3'
p3539
(lp3540
I108211222
aI108261260
aS'-'
asS'AL590084.3'
p3541
(lp3542
I25152547
aI25152883
aS'+'
asS'AL590084.2'
p3543
(lp3544
I25218688
aI25219069
aS'+'
asS'RIPOR2'
p3545
(lp3546
I24839359
aI25042018
aS'-'
asS'EEF1GP6'
p3547
(lp3548
I96750824
aI96751728
aS'+'
asS'AL133351.5'
p3549
(lp3550
I3033183
aI3033288
aS'+'
asS'AL512427.1'
p3551
(lp3552
I60826185
aI60826533
aS'-'
asS'AL133351.3'
p3553
(lp3554
I2910613
aI2912113
aS'-'
asS'CGA'
p3555
(lp3556
I87085498
aI87095406
aS'-'
asS'SMIM8'
p3557
(lp3558
I87322605
aI87399741
aS'+'
asS'AL079342.2'
p3559
(lp3560
I89059628
aI89060109
aS'+'
asS'VN1R11P'
p3561
(lp3562
I27083280
aI27084147
aS'+'
asS'AL079342.1'
p3563
(lp3564
I89001548
aI89001814
aS'+'
asS'AL603908.1'
p3565
(lp3566
I153666466
aI153666666
aS'+'
asS'BTBD10P2'
p3567
(lp3568
I149794763
aI149795746
aS'+'
asS'PDCD2'
p3569
(lp3570
I170575295
aI170584660
aS'-'
asS'TCF21'
p3571
(lp3572
I133889138
aI133895553
aS'+'
asS'SPATS1'
p3573
(lp3574
I44342660
aI44377166
aS'+'
asS'AL451061.1'
p3575
(lp3576
I150504811
aI150510300
aS'-'
asS'HMGB3P18'
p3577
(lp3578
I121858179
aI121858768
aS'-'
asS'HMGB3P19'
p3579
(lp3580
I153938433
aI153938992
aS'-'
asS'AL662899.1'
p3581
(lp3582
I31686962
aI31714072
aS'-'
asS'HMGA1'
p3583
(lp3584
I34236873
aI34246231
aS'+'
asS'CNN3P1'
p3585
(lp3586
I6534697
aI6535631
aS'+'
asS'ARFGEF3'
p3587
(lp3588
I138161921
aI138344663
aS'+'
asS'VTA1P1'
p3589
(lp3590
I169296471
aI169297959
aS'-'
asS'RGS17'
p3591
(lp3592
I153010722
aI153131249
aS'-'
asS'RPL35AP3'
p3593
(lp3594
I136973930
aI136974217
aS'-'
asS'ID4'
p3595
(lp3596
I19837386
aI19840684
aS'+'
asS'SMLR1'
p3597
(lp3598
I130827406
aI130837135
aS'+'
asS'RPL35AP4'
p3599
(lp3600
I33389374
aI33389475
aS'-'
asS'AL589647.1'
p3601
(lp3602
I19143695
aI19144160
aS'+'
asS'AL024498.2'
p3603
(lp3604
I10747794
aI10930423
aS'+'
asS'AL360085.1'
p3605
(lp3606
I112825939
aI112826470
aS'+'
asS'AL138726.1'
p3607
(lp3608
I25885419
aI25885751
aS'+'
asS'TDGF1P4'
p3609
(lp3610
I3941282
aI3941801
aS'+'
asS'AL590002.1'
p3611
(lp3612
I127416535
aI127416952
aS'-'
asS'IRAK1BP1'
p3613
(lp3614
I78867607
aI78946440
aS'+'
asS'AL590004.1'
p3615
(lp3616
I3921847
aI3922146
aS'+'
asS'BTN2A2'
p3617
(lp3618
I26383096
aI26394874
aS'+'
asS'BTN2A1'
p3619
(lp3620
I26457968
aI26476621
aS'+'
asS'AL590004.2'
p3621
(lp3622
I3913922
aI3914292
aS'-'
asS'AL078595.2'
p3623
(lp3624
I94442030
aI94443809
aS'-'
asS'ANKRD6'
p3625
(lp3626
I89433170
aI89633834
aS'+'
asS'RAB32'
p3627
(lp3628
I146543693
aI146554965
aS'+'
asS'BRPF3'
p3629
(lp3630
I36196744
aI36232790
aS'+'
asS'C6orf229'
p3631
(lp3632
I24797321
aI24798889
aS'-'
asS'C6orf222'
p3633
(lp3634
I36315757
aI36336885
aS'-'
asS'C6orf223'
p3635
(lp3636
I44000600
aI44005958
aS'+'
asS'C6orf226'
p3637
(lp3638
I42890265
aI42890816
aS'-'
asS'AL136310.1'
p3639
(lp3640
I111494991
aI111495713
aS'-'
asS'LRP11'
p3641
(lp3642
I149818798
aI149864026
aS'-'
asS'MAS1LP1'
p3643
(lp3644
I29475025
aI29476071
aS'-'
asS'ORC3'
p3645
(lp3646
I87590067
aI87667453
aS'+'
asS'AL109941.1'
p3647
(lp3648
I84966397
aI84966625
aS'-'
asS'AL136131.1'
p3649
(lp3650
I43705949
aI43706751
aS'-'
asS'AC005587.1'
p3651
(lp3652
I131780721
aI131781312
aS'-'
asS'ARMC2'
p3653
(lp3654
I108848416
aI108974472
aS'+'
asS'ZNF603P'
p3655
(lp3656
I28176188
aI28176674
aS'+'
asS'PLEKHG1'
p3657
(lp3658
I150599883
aI150733821
aS'+'
asS'NDUFA5P9'
p3659
(lp3660
I86214237
aI86214576
aS'-'
asS'CD164'
p3661
(lp3662
I109366514
aI109382457
aS'-'
asS'AL024507.1'
p3663
(lp3664
I107985089
aI107985690
aS'-'
asS'RPL23AP48'
p3665
(lp3666
I121679972
aI121680459
aS'-'
asS'PGAM1P10'
p3667
(lp3668
I73055097
aI73055857
aS'+'
asS'ZFP57'
p3669
(lp3670
I29672483
aI29681110
aS'-'
asS'AL450489.1'
p3671
(lp3672
I57029521
aI57029988
aS'+'
as.