(dp1
S'AC022905.1'
p2
(lp3
I72202751
aI72251565
aS'-'
asS'PPP1R42'
p4
(lp5
I66964200
aI67021345
aS'-'
asS'WISP1'
p6
(lp7
I133191039
aI133230344
aS'+'
asS'AF228730.5'
p8
(lp9
I7238286
aI7238631
aS'-'
asS'AC091163.3'
p10
(lp11
I46870902
aI46872045
aS'-'
asS'GPAT4'
p12
(lp13
I41578200
aI41625001
aS'+'
asS'RPSAP74'
p14
(lp15
I89243401
aI89243793
aS'-'
asS'HMGB1P41'
p16
(lp17
I80812142
aI80812581
aS'-'
asS'AC103843.2'
p18
(lp19
I42725547
aI42726228
aS'-'
asS'PSMA2P2'
p20
(lp21
I93939364
aI93942877
aS'-'
asS'JPH1'
p22
(lp23
I74234700
aI74321328
aS'-'
asS'MTND2P32'
p24
(lp25
I33015261
aI33017043
aS'+'
asS'DEFB109P1'
p26
(lp27
I12393209
aI12400366
aS'-'
asS'AC130365.1'
p28
(lp29
I7990415
aI7997521
aS'-'
asS'SNX18P27'
p30
(lp31
I43513643
aI43514421
aS'+'
asS'CPQ'
p32
(lp33
I96645227
aI97143501
aS'+'
asS'AP006248.1'
p34
(lp35
I17596312
aI17596378
aS'-'
asS'COX6CP8'
p36
(lp37
I64331927
aI64332152
aS'+'
asS'SQLE'
p38
(lp39
I124998497
aI125022281
aS'+'
asS'DUSP26'
p40
(lp41
I33591332
aI33600106
aS'-'
asS'FAM90A9P'
p42
(lp43
I7761330
aI7764340
aS'+'
asS'AC007718.1'
p44
(lp45
I5363371
aI5363650
aS'+'
asS'AC026979.1'
p46
(lp47
I30117384
aI30117779
aS'-'
asS'AC044836.1'
p48
(lp49
I54247633
aI54247906
aS'+'
asS'SAMD12'
p50
(lp51
I118189459
aI118621945
aS'-'
asS'AC090820.1'
p52
(lp53
I30249502
aI30250092
aS'-'
asS'AC103833.1'
p54
(lp55
I129250967
aI129251138
aS'+'
asS'AC100868.1'
p56
(lp57
I132024238
aI132085655
aS'-'
asS'FAM90A2P'
p58
(lp59
I12172761
aI12175771
aS'-'
asS'AC131902.3'
p60
(lp61
I53394215
aI53394795
aS'+'
asS'ZNF707'
p62
(lp63
I143684484
aI143712737
aS'+'
asS'ZNF706'
p64
(lp65
I101177878
aI101205461
aS'-'
asS'AC087203.2'
p66
(lp67
I12378679
aI12380265
aS'-'
asS'ZNF704'
p68
(lp69
I80628451
aI80874781
aS'-'
asS'NACAP1'
p70
(lp71
I101361794
aI101372707
aS'+'
asS'HMGB1P23'
p72
(lp73
I29218905
aI29219472
aS'+'
asS'MTND5P41'
p74
(lp75
I36279491
aI36279696
aS'-'
asS'AC100858.1'
p76
(lp77
I124920428
aI124922076
aS'+'
asS'ARHGEF10'
p78
(lp79
I1823976
aI1958633
aS'+'
asS'REXO1L1P'
p80
(lp81
I85656442
aI85663039
aS'-'
asS'NPM1P52'
p82
(lp83
I103016744
aI103017589
aS'+'
asS'LEPROTL1'
p84
(lp85
I30095487
aI30177208
aS'+'
asS'FAM90A10P'
p86
(lp87
I7768977
aI7771988
aS'+'
asS'AP003789.1'
p88
(lp89
I106980967
aI106981571
aS'-'
asS'TRIQK'
p90
(lp91
I92885320
aI93017673
aS'-'
asS'AC019176.1'
p92
(lp93
I5072645
aI5072869
aS'-'
asS'WRN'
p94
(lp95
I31033801
aI31173769
aS'+'
asS'SLC45A4'
p96
(lp97
I141218774
aI141308305
aS'-'
asS'GRINA'
p98
(lp99
I143990058
aI143993415
aS'+'
asS'AC083841.4'
p100
(lp101
I142797624
aI142806142
aS'-'
asS'PPP2R2A'
p102
(lp103
I26291491
aI26372680
aS'+'
asS'AC022730.1'
p104
(lp105
I70506251
aI70506818
aS'-'
asS'AC009901.2'
p106
(lp107
I84864668
aI84864907
aS'-'
asS'MTUS1'
p108
(lp109
I17643795
aI17800917
aS'-'
asS'MRPL57P7'
p110
(lp111
I98906260
aI98906517
aS'-'
asS'STK3'
p112
(lp113
I98454695
aI98942571
aS'-'
asS'FTH1P11'
p114
(lp115
I81521682
aI81522232
aS'-'
asS'GYG1P1'
p116
(lp117
I73905357
aI73915010
aS'-'
asS'KRT18P37'
p118
(lp119
I41511240
aI41512521
aS'+'
asS'GATA4'
p120
(lp121
I11676959
aI11760000
aS'+'
asS'AC022559.1'
p122
(lp123
I20551201
aI20551405
aS'+'
asS'TRAPPC9'
p124
(lp125
I139730343
aI140458579
aS'-'
asS'MTCO1P4'
p126
(lp127
I103088796
aI103090671
aS'+'
asS'TTI2'
p128
(lp129
I33473386
aI33509785
aS'-'
asS'FAM90A17P'
p130
(lp131
I7746034
aI7749606
aS'+'
asS'AC139103.1'
p132
(lp133
I145047860
aI145048889
aS'+'
asS'OR7E10P'
p134
(lp135
I12703066
aI12704056
aS'-'
asS'PARP10'
p136
(lp137
I143985891
aI144012772
aS'-'
asS'ERI1'
p138
(lp139
I9016332
aI9116746
aS'+'
asS'POP1'
p140
(lp141
I98117312
aI98159834
aS'+'
asS'FAM135B'
p142
(lp143
I138130023
aI138496822
aS'-'
asS'COLEC10'
p144
(lp145
I118995452
aI119103867
aS'+'
asS'NTAN1P2'
p146
(lp147
I86481754
aI86483002
aS'-'
asS'DEFB109P1B'
p148
(lp149
I7312846
aI7319951
aS'+'
asS'AC090819.1'
p150
(lp151
I110555408
aI110556518
aS'+'
asS'LZTS1'
p152
(lp153
I20246165
aI20303963
aS'-'
asS'FAM90A11P'
p154
(lp155
I8011782
aI8017011
aS'-'
asS'AC079089.3'
p156
(lp157
I69794062
aI69794734
aS'+'
asS'AC124290.2'
p158
(lp159
I36121398
aI36121683
aS'-'
asS'AF238378.1'
p160
(lp161
I7082971
aI7083328
aS'+'
asS'USP17L3'
p162
(lp163
I7976393
aI7977985
aS'-'
asS'USP17L2'
p164
(lp165
I12137168
aI12139077
aS'-'
asS'MMP16'
p166
(lp167
I88032009
aI88327488
aS'-'
asS'SLC2A13P1'
p168
(lp169
I60141821
aI60142142
aS'+'
asS'USP17L7'
p170
(lp171
I12132417
aI12134438
aS'-'
asS'AC090142.3'
p172
(lp173
I104990308
aI104990692
aS'-'
asS'USP17L4'
p174
(lp175
I7337115
aI7338707
aS'+'
asS'USP17L8'
p176
(lp177
I7971661
aI7973253
aS'-'
asS'ATP6V1H'
p178
(lp179
I53715557
aI53843558
aS'-'
asS'AC044849.1'
p180
(lp181
I30027713
aI30028900
aS'+'
asS'TRHR'
p182
(lp183
I109086621
aI109119567
aS'+'
asS'SLCO5A1'
p184
(lp185
I69667047
aI69835064
aS'-'
asS'TDGF1P5'
p186
(lp187
I54073114
aI54073566
aS'+'
asS'AC022034.3'
p188
(lp189
I53532908
aI53533704
aS'+'
asS'IMPAD1'
p190
(lp191
I56957933
aI56993844
aS'-'
asS'AC018437.1'
p192
(lp193
I15943127
aI15943532
aS'+'
asS'FAM90A22P'
p194
(lp195
I7571995
aI7575006
aS'-'
asS'AC022360.1'
p196
(lp197
I111621458
aI111621797
aS'-'
asS'PKHD1L1'
p198
(lp199
I109362477
aI109530330
aS'+'
asS'SLC10A5P1'
p200
(lp201
I81634357
aI81635662
aS'-'
asS'RPS10P16'
p202
(lp203
I117523271
aI117524061
aS'-'
asS'CHCHD7'
p204
(lp205
I56211798
aI56218798
aS'+'
asS'XPO7'
p206
(lp207
I21919671
aI22006585
aS'+'
asS'AC025881.1'
p208
(lp209
I114318400
aI114318911
aS'-'
asS'DGAT1'
p210
(lp211
I144314584
aI144326910
aS'-'
asS'AC079097.1'
p212
(lp213
I26254883
aI26256628
aS'-'
asS'AC107953.1'
p214
(lp215
I118982579
aI118982875
aS'-'
asS'AF186190.1'
p216
(lp217
I133392211
aI133392690
aS'-'
asS'DEFB108P3'
p218
(lp219
I12095176
aI12099536
aS'-'
asS'AC120036.4'
p220
(lp221
I47189305
aI47189560
aS'+'
asS'AC068587.5'
p222
(lp223
I12638428
aI12638602
aS'+'
asS'SOX17'
p224
(lp225
I54457935
aI54460888
aS'+'
asS'EPPK1'
p226
(lp227
I143857324
aI143878464
aS'-'
asS'ADRB3'
p228
(lp229
I37962991
aI37966965
aS'-'
asS'UBXN2B'
p230
(lp231
I58411264
aI58451501
aS'+'
asS'SNX31'
p232
(lp233
I100572882
aI100649665
aS'-'
asS'RPL10P19'
p234
(lp235
I8961910
aI8979025
aS'+'
asS'AC105001.2'
p236
(lp237
I10725399
aI10839847
aS'-'
asS'AC013643.1'
p238
(lp239
I27697217
aI27697526
aS'-'
asS'ZNF517'
p240
(lp241
I144798894
aI144811113
aS'+'
asS'AC106038.2'
p242
(lp243
I90701082
aI90701876
aS'+'
asS'AC120036.3'
p244
(lp245
I47198032
aI47198323
aS'-'
asS'PRSS55'
p246
(lp247
I10525546
aI10554166
aS'+'
asS'TSPYL5'
p248
(lp249
I97273474
aI97277964
aS'-'
asS'POU5F1B'
p250
(lp251
I127414290
aI127420069
aS'+'
asS'HNRNPA1P38'
p252
(lp253
I141459075
aI141460031
aS'+'
asS'PRSS51'
p254
(lp255
I10482878
aI10547585
aS'-'
asS'PDLIM2'
p256
(lp257
I22580490
aI22598025
aS'+'
asS'C8orf48'
p258
(lp259
I13566843
aI13568287
aS'+'
asS'CHRAC1'
p260
(lp261
I140511298
aI140517137
aS'+'
asS'C8orf46'
p262
(lp263
I66460304
aI66515930
aS'+'
asS'AC134698.2'
p264
(lp265
I43542076
aI43544057
aS'+'
asS'C8orf44'
p266
(lp267
I66667615
aI66685564
aS'+'
asS'FAM90A25P'
p268
(lp269
I12415080
aI12418090
aS'-'
asS'KCNQ3'
p270
(lp271
I132120858
aI132481019
aS'-'
asS'AC090539.2'
p272
(lp273
I50490795
aI50491465
aS'+'
asS'ZC2HC1A'
p274
(lp275
I78666047
aI78719765
aS'+'
asS'AC083923.1'
p276
(lp277
I126582631
aI126583006
aS'-'
asS'RPL12P24'
p278
(lp279
I105737280
aI105737765
aS'-'
asS'BLK'
p280
(lp281
I11494001
aI11564604
aS'+'
asS'DEFB136'
p282
(lp283
I11973937
aI11974599
aS'-'
asS'RBM12B'
p284
(lp285
I93729356
aI93741017
aS'-'
asS'AC024451.1'
p286
(lp287
I47546804
aI47547926
aS'-'
asS'SLC39A4'
p288
(lp289
I144412414
aI144416895
aS'-'
asS'AC022634.1'
p290
(lp291
I108572643
aI108573174
aS'+'
asS'CSGALNACT1'
p292
(lp293
I19404161
aI19682761
aS'-'
asS'ZDHHC2'
p294
(lp295
I17156029
aI17224799
aS'+'
asS'ERLIN2'
p296
(lp297
I37736627
aI37759101
aS'+'
asS'ZC3H3'
p298
(lp299
I143437655
aI143541453
aS'-'
asS'BHLHE22'
p300
(lp301
I64580367
aI64583628
aS'+'
asS'ATAD2'
p302
(lp303
I123320502
aI123416350
aS'-'
asS'SERPINA15P'
p304
(lp305
I111380603
aI111380868
aS'+'
asS'ZNF703'
p306
(lp307
I37695751
aI37700021
aS'+'
asS'DEFB108P1'
p308
(lp309
I7934412
aI7938770
aS'-'
asS'UTP23'
p310
(lp311
I116766572
aI116849463
aS'+'
asS'FBXO32'
p312
(lp313
I123497889
aI123541206
aS'-'
asS'AC107934.2'
p314
(lp315
I59821124
aI59821433
aS'+'
asS'EMC2'
p316
(lp317
I108443624
aI108486912
aS'+'
asS'SLC18A1'
p318
(lp319
I20144855
aI20183206
aS'-'
asS'EFCAB1'
p320
(lp321
I48710789
aI48735234
aS'-'
asS'C8orf37'
p322
(lp323
I95244919
aI95269201
aS'-'
asS'C8orf34'
p324
(lp325
I68330722
aI68818561
aS'+'
asS'AF228730.3'
p326
(lp327
I7200756
aI7200857
aS'+'
asS'MROH4P'
p328
(lp329
I142567260
aI142577881
aS'-'
asS'AC022709.1'
p330
(lp331
I59893856
aI59893942
aS'-'
asS'AC040926.1'
p332
(lp333
I14690382
aI14690619
aS'+'
asS'AC009927.2'
p334
(lp335
I58503588
aI58504068
aS'+'
asS'AC009927.1'
p336
(lp337
I58424588
aI58426685
aS'-'
asS'ASH2L'
p338
(lp339
I38105242
aI38139965
aS'+'
asS'AC110998.1'
p340
(lp341
I66984135
aI66986187
aS'-'
asS'PAG1'
p342
(lp343
I80967810
aI81112068
aS'-'
asS'AF279873.2'
p344
(lp345
I33859480
aI33860223
aS'-'
asS'TOX'
p346
(lp347
I58805418
aI59119208
aS'-'
asS'AP3M2'
p348
(lp349
I42152946
aI42171183
aS'+'
asS'PRKDC'
p350
(lp351
I47773108
aI47960183
aS'-'
asS'TNFRSF10C'
p352
(lp353
I23084403
aI23115536
aS'+'
asS'TNFRSF10B'
p354
(lp355
I23020133
aI23069179
aS'-'
asS'TNFRSF10A'
p356
(lp357
I23190452
aI23225126
aS'-'
asS'NDUFAF6'
p358
(lp359
I94895813
aI95058710
aS'+'
asS'HGSNAT'
p360
(lp361
I43140455
aI43202855
aS'+'
asS'TNFRSF10D'
p362
(lp363
I23135588
aI23164030
aS'-'
asS'HTRA4'
p364
(lp365
I38974164
aI38988662
aS'+'
asS'COMMD5'
p366
(lp367
I144841042
aI144851174
aS'-'
asS'DCTN6'
p368
(lp369
I30156297
aI30183640
aS'+'
asS'NCOA2'
p370
(lp371
I70109762
aI70403805
aS'-'
asS'PSD3'
p372
(lp373
I18527301
aI19013686
aS'-'
asS'AC022616.5'
p374
(lp375
I43246755
aI43246935
aS'-'
asS'AC022616.4'
p376
(lp377
I43284626
aI43284806
aS'-'
asS'AC022616.3'
p378
(lp379
I43251711
aI43251858
aS'+'
asS'AC090132.2'
p380
(lp381
I83293925
aI83294271
aS'-'
asS'GDAP1'
p382
(lp383
I74362951
aI74488872
aS'+'
asS'FAM91A1'
p384
(lp385
I123768457
aI123815452
aS'+'
asS'AC009800.1'
p386
(lp387
I52975111
aI52976116
aS'-'
asS'AF228730.4'
p388
(lp389
I7112314
aI7113728
aS'-'
asS'ASPH'
p390
(lp391
I61500556
aI61714559
aS'-'
asS'AC105029.1'
p392
(lp393
I48294026
aI48294694
aS'-'
asS'AC022616.8'
p394
(lp395
I43313948
aI43314200
aS'+'
asS'AF279873.1'
p396
(lp397
I33969567
aI33969879
aS'-'
asS'SNRPCP17'
p398
(lp399
I8116745
aI8116949
aS'-'
asS'AC060788.1'
p400
(lp401
I131712512
aI131712980
aS'+'
asS'POLR2K'
p402
(lp403
I100150584
aI100154002
aS'+'
asS'AC068522.1'
p404
(lp405
I58588420
aI58588764
aS'-'
asS'AC124076.1'
p406
(lp407
I36795255
aI36795862
aS'-'
asS'AC100821.1'
p408
(lp409
I53971231
aI53974210
aS'+'
asS'AC009884.2'
p410
(lp411
I19001627
aI19001950
aS'+'
asS'ERICH5'
p412
(lp413
I98064311
aI98093610
aS'+'
asS'REXO1L8P'
p414
(lp415
I85642777
aI85646325
aS'-'
asS'NUGGC'
p416
(lp417
I28021964
aI28083871
aS'-'
asS'RIMS2'
p418
(lp419
I103500748
aI104251859
aS'+'
asS'AC107890.1'
p420
(lp421
I113376669
aI113377227
aS'+'
asS'AC012400.1'
p422
(lp423
I84163449
aI84164564
aS'-'
asS'AC007991.1'
p424
(lp425
I39997869
aI39998499
aS'-'
asS'LONRF1'
p426
(lp427
I12721894
aI12755490
aS'-'
asS'CKS1BP7'
p428
(lp429
I80644939
aI80645173
aS'-'
asS'NAT2'
p430
(lp431
I18391245
aI18401218
aS'+'
asS'NAT1'
p432
(lp433
I18170477
aI18222754
aS'+'
asS'PRDM14'
p434
(lp435
I70051651
aI70071327
aS'-'
asS'CALB1'
p436
(lp437
I90063299
aI90095475
aS'-'
asS'TCEA1'
p438
(lp439
I53966556
aI54022529
aS'-'
asS'ST13P6'
p440
(lp441
I133408006
aI133409107
aS'+'
asS'FAM86B2'
p442
(lp443
I12425614
aI12436343
aS'-'
asS'FAM86B1'
p444
(lp445
I12182110
aI12194105
aS'-'
asS'PEX2'
p446
(lp447
I76980258
aI77000226
aS'-'
asS'REXO1L6P'
p448
(lp449
I85826953
aI85828467
aS'-'
asS'AC067904.3'
p450
(lp451
I27010486
aI27010746
aS'+'
asS'COL22A1'
p452
(lp453
I138588235
aI138913993
aS'-'
asS'GOT1L1'
p454
(lp455
I37934281
aI37940129
aS'-'
asS'UBE2V2'
p456
(lp457
I48008400
aI48064708
aS'+'
asS'AC023632.1'
p458
(lp459
I94565036
aI94565715
aS'+'
asS'AC011978.1'
p460
(lp461
I63136223
aI63138084
aS'-'
asS'AC100854.1'
p462
(lp463
I78723796
aI78724136
aS'-'
asS'RAB11FIP1'
p464
(lp465
I37858618
aI37899467
aS'-'
asS'AC107934.1'
p466
(lp467
I59760047
aI59760263
aS'+'
asS'AC084024.2'
p468
(lp469
I38201699
aI38204238
aS'-'
asS'MTND2P38'
p470
(lp471
I46827228
aI46827894
aS'-'
asS'AC016885.3'
p472
(lp473
I93229659
aI93229916
aS'+'
asS'LRRC14'
p474
(lp475
I144518007
aI144525178
aS'+'
asS'IGJP1'
p476
(lp477
I84980073
aI84980547
aS'-'
asS'AC103783.1'
p478
(lp479
I68293446
aI68293818
aS'-'
asS'FGL1'
p480
(lp481
I17864380
aI17910365
aS'-'
asS'DDHD2'
p482
(lp483
I38231343
aI38262833
aS'+'
asS'AC024451.3'
p484
(lp485
I47592147
aI47592609
aS'-'
asS'AC087821.2'
p486
(lp487
I18849258
aI18849707
aS'+'
asS'SLC2A3P4'
p488
(lp489
I86503591
aI86505061
aS'+'
asS'MTCO2P4'
p490
(lp491
I103091263
aI103091509
aS'+'
asS'AC091175.1'
p492
(lp493
I85086615
aI85087186
aS'+'
asS'SDC2'
p494
(lp495
I96493351
aI96611780
aS'+'
asS'OR7E96P'
p496
(lp497
I8039978
aI8040953
aS'+'
asS'FABP12'
p498
(lp499
I81524981
aI81531378
aS'-'
asS'MYC'
p500
(lp501
I127736069
aI127741434
aS'+'
asS'AC090192.1'
p502
(lp503
I124301315
aI124301804
aS'+'
asS'LAPTM4B'
p504
(lp505
I97775057
aI97853013
aS'+'
asS'ALKAL1'
p506
(lp507
I52534037
aI52565507
aS'-'
asS'AC087854.1'
p508
(lp509
I22492631
aI22493044
aS'+'
asS'CHMP4C'
p510
(lp511
I81732434
aI81759515
aS'+'
asS'DEFB108P4'
p512
(lp513
I12341426
aI12345776
aS'-'
asS'SBSPON'
p514
(lp515
I73066532
aI73124088
aS'-'
asS'RAB2A'
p516
(lp517
I60516857
aI60623627
aS'+'
asS'TRAM1'
p518
(lp519
I70573442
aI70608369
aS'-'
asS'NCAPGP1'
p520
(lp521
I120635558
aI120638204
aS'-'
asS'AC110741.3'
p522
(lp523
I133946677
aI133947335
aS'+'
asS'AC018620.1'
p524
(lp525
I73511276
aI73511654
aS'-'
asS'BAALC'
p526
(lp527
I103140710
aI103230304
aS'+'
asS'NPM1P21'
p528
(lp529
I56101199
aI56102267
aS'-'
asS'ZNF16'
p530
(lp531
I144930358
aI144950888
aS'-'
asS'BRF2'
p532
(lp533
I37843268
aI37849904
aS'-'
asS'AC144568.1'
p534
(lp535
I64091
aI64320
aS'-'
asS'CPSF1'
p536
(lp537
I144393231
aI144409349
aS'-'
asS'RPS29P2'
p538
(lp539
I41271431
aI41271566
aS'+'
asS'RGS22'
p540
(lp541
I99960936
aI100106116
aS'-'
asS'RGS20'
p542
(lp543
I53851808
aI53959303
aS'+'
asS'DEFA9P'
p544
(lp545
I6959289
aI6960161
aS'-'
asS'AC009812.2'
p546
(lp547
I80568050
aI80568506
aS'-'
asS'KNOP1P5'
p548
(lp549
I126072587
aI126074231
aS'+'
asS'VPS28'
p550
(lp551
I144423601
aI144428563
aS'-'
asS'AP006245.2'
p552
(lp553
I36321039
aI36321404
aS'-'
asS'SULF1'
p554
(lp555
I69466624
aI69660915
aS'+'
asS'AP006245.1'
p556
(lp557
I36308245
aI36308364
aS'+'
asS'DPYS'
p558
(lp559
I104330324
aI104418912
aS'-'
asS'TMEM55A'
p560
(lp561
I90993796
aI91041064
aS'-'
asS'DEFA5'
p562
(lp563
I7055304
aI7056734
aS'-'
asS'DEFA4'
p564
(lp565
I6935822
aI6938338
aS'-'
asS'DEFA3'
p566
(lp567
I7015869
aI7018301
aS'-'
asS'BIN3'
p568
(lp569
I22620418
aI22669120
aS'-'
asS'DEFA1'
p570
(lp571
I6977650
aI6980080
aS'-'
asS'ATP6V1B2'
p572
(lp573
I20197367
aI20221701
aS'+'
asS'EFR3A'
p574
(lp575
I131904088
aI132013642
aS'+'
asS'CTSB'
p576
(lp577
I11842524
aI11868229
aS'-'
asS'POTEA'
p578
(lp579
I43292483
aI43363518
aS'+'
asS'ZNF705D'
p580
(lp581
I12104389
aI12115516
aS'+'
asS'AC104417.1'
p582
(lp583
I141968091
aI141968841
aS'-'
asS'EXTL3'
p584
(lp585
I28622729
aI28750903
aS'+'
asS'AC105031.1'
p586
(lp587
I82979411
aI82979886
aS'+'
asS'KCTD9P6'
p588
(lp589
I31219894
aI31220984
aS'-'
asS'REXO1L12P'
p590
(lp591
I85714922
aI85715833
aS'+'
asS'FAM84B'
p592
(lp593
I126552442
aI126558393
aS'-'
asS'MTRF1LP2'
p594
(lp595
I129728744
aI129730445
aS'+'
asS'TDH'
p596
(lp597
I11339637
aI11368452
aS'+'
asS'CA13'
p598
(lp599
I85220616
aI85268627
aS'+'
asS'DMTN'
p600
(lp601
I22053570
aI22082524
aS'+'
asS'KLF10'
p602
(lp603
I102648779
aI102655902
aS'-'
asS'IRF5P1'
p604
(lp605
I92972575
aI92974738
aS'+'
asS'AC021733.2'
p606
(lp607
I119480279
aI119480775
aS'-'
asS'RNF170'
p608
(lp609
I42849637
aI42896585
aS'-'
asS'AC130366.2'
p610
(lp611
I12043506
aI12043670
aS'-'
asS'CNOT7'
p612
(lp613
I17224964
aI17246878
aS'-'
asS'DEFB107B'
p614
(lp615
I7495846
aI7509311
aS'+'
asS'NIPAL2'
p616
(lp617
I98189833
aI98294393
aS'-'
asS'CA8'
p618
(lp619
I60187347
aI60281412
aS'-'
asS'HMBOX1'
p620
(lp621
I28890404
aI29053270
aS'+'
asS'CA3'
p622
(lp623
I85373436
aI85442130
aS'+'
asS'CA2'
p624
(lp625
I85463852
aI85481493
aS'+'
asS'CA1'
p626
(lp627
I85327608
aI85379014
aS'-'
asS'PXDNL'
p628
(lp629
I51319579
aI51809445
aS'-'
asS'AC091193.1'
p630
(lp631
I5455218
aI5455665
aS'-'
asS'NRBP2'
p632
(lp633
I143833594
aI143840951
aS'-'
asS'ANK1'
p634
(lp635
I41655324
aI41896762
aS'-'
asS'KIF13B'
p636
(lp637
I29067279
aI29263073
aS'-'
asS'SYBU'
p638
(lp639
I109574188
aI109691791
aS'-'
asS'TRMT10BP1'
p640
(lp641
I108652373
aI108653315
aS'+'
asS'CYP11B2'
p642
(lp643
I142910559
aI142917843
aS'-'
asS'CYP11B1'
p644
(lp645
I142872356
aI142879846
aS'-'
asS'PPP3CC'
p646
(lp647
I22441083
aI22541125
aS'+'
asS'AC084121.2'
p648
(lp649
I7696830
aI7697093
aS'-'
asS'ZNF395'
p650
(lp651
I28360983
aI28402701
aS'-'
asS'CYCSP23'
p652
(lp653
I119618162
aI119618474
aS'-'
asS'AC067904.2'
p654
(lp655
I27063996
aI27065278
aS'-'
asS'RPL34P18'
p656
(lp657
I93957338
aI93957691
aS'-'
asS'AC025674.1'
p658
(lp659
I57240057
aI57240541
aS'+'
asS'TUSC3'
p660
(lp661
I15417215
aI15673836
aS'+'
asS'ZFPM2'
p662
(lp663
I104703719
aI105419260
aS'+'
asS'AC022826.1'
p664
(lp665
I73831143
aI73831947
aS'+'
asS'RPL34P17'
p666
(lp667
I52313154
aI52313500
aS'-'
asS'AP002906.1'
p668
(lp669
I97853021
aI97853253
aS'-'
asS'IKBKB'
p670
(lp671
I42271302
aI42332653
aS'+'
asS'CARSP2'
p672
(lp673
I114791653
aI114791929
aS'-'
asS'PTK2B'
p674
(lp675
I27311482
aI27459390
aS'+'
asS'SCRT1'
p676
(lp677
I144330565
aI144336281
aS'-'
asS'NDUFB9P3'
p678
(lp679
I110809394
aI110809894
aS'-'
asS'AC011853.1'
p680
(lp681
I68176768
aI68177221
aS'+'
asS'PYCR3'
p682
(lp683
I143603913
aI143609614
aS'-'
asS'KIAA1429'
p684
(lp685
I94487693
aI94553523
aS'-'
asS'AC079089.2'
p686
(lp687
I69859264
aI69860540
aS'-'
asS'REXO1L5P'
p688
(lp689
I85814767
aI85818783
aS'-'
asS'AC100810.6'
p690
(lp691
I1726273
aI1726557
aS'+'
asS'C8orf59'
p692
(lp693
I85214076
aI85220374
aS'-'
asS'EIF3H'
p694
(lp695
I116644833
aI116766255
aS'-'
asS'CDCA2'
p696
(lp697
I25458997
aI25507920
aS'+'
asS'ADI1P2'
p698
(lp699
I102688317
aI102688906
aS'-'
asS'AC016877.2'
p700
(lp701
I98904603
aI98905671
aS'-'
asS'PEBP4'
p702
(lp703
I22713251
aI22927908
aS'-'
asS'SEC11B'
p704
(lp705
I54522799
aI54523297
aS'-'
asS'DEFA6'
p706
(lp707
I6924693
aI6926076
aS'-'
asS'EIF3E'
p708
(lp709
I108309022
aI108435333
aS'-'
asS'AC069113.1'
p710
(lp711
I27903229
aI27903495
aS'-'
asS'RPL23AP56'
p712
(lp713
I134978827
aI134979279
aS'-'
asS'AC110275.1'
p714
(lp715
I43018424
aI43077334
aS'+'
asS'ESRP1'
p716
(lp717
I94641074
aI94707466
aS'+'
asS'KCNU1'
p718
(lp719
I36784374
aI36936128
aS'+'
asS'RPL23AP53'
p720
(lp721
I213186
aI232211
aS'-'
asS'MTMR9'
p722
(lp723
I11284416
aI11328146
aS'+'
asS'HMGB1P46'
p724
(lp725
I107173200
aI107173809
aS'-'
asS'ZNF705G'
p726
(lp727
I7355517
aI7385558
aS'-'
asS'SOX5P1'
p728
(lp729
I87788562
aI87789688
aS'-'
asS'AP005660.1'
p730
(lp731
I94708952
aI94709244
aS'-'
asS'RP1L1'
p732
(lp733
I10621096
aI10712187
aS'-'
asS'ZNF705B'
p734
(lp735
I7926337
aI7952413
aS'+'
asS'PAICSP4'
p736
(lp737
I4787332
aI4788584
aS'+'
asS'HIGD1AP18'
p738
(lp739
I77013751
aI77014028
aS'-'
asS'ADRA1A'
p740
(lp741
I26748150
aI26865405
aS'-'
asS'CRISPLD1'
p742
(lp743
I74984515
aI75034558
aS'+'
asS'AC104966.1'
p744
(lp745
I91157285
aI91158748
aS'+'
asS'EXT1'
p746
(lp747
I117794490
aI118111853
aS'-'
asS'POU5F1P2'
p748
(lp749
I102621509
aI102622331
aS'-'
asS'DEFA10P'
p750
(lp751
I6968141
aI6969113
aS'-'
asS'AC084251.1'
p752
(lp753
I70103798
aI70104179
aS'-'
asS'FAM92A'
p754
(lp755
I93700507
aI93731527
aS'+'
asS'IMPA1'
p756
(lp757
I81657961
aI81686693
aS'-'
asS'LPL'
p758
(lp759
I19901717
aI19954151
aS'+'
asS'HSPA8P13'
p760
(lp761
I46549089
aI46550802
aS'+'
asS'SNAI2'
p762
(lp763
I48917768
aI48921429
aS'-'
asS'KIFC2'
p764
(lp765
I144466043
aI144474202
aS'+'
asS'GOLGA2P1'
p766
(lp767
I86657388
aI86660293
aS'-'
asS'RNF19A'
p768
(lp769
I100257342
aI100310327
aS'-'
asS'RPS20P22'
p770
(lp771
I38434347
aI38435664
aS'-'
asS'PLAG1'
p772
(lp773
I56160904
aI56211279
aS'-'
asS'EIF4EP5'
p774
(lp775
I14309033
aI14309672
aS'+'
asS'CSMD1'
p776
(lp777
I2938099
aI4994972
aS'-'
asS'PLEKHA2'
p778
(lp779
I38901291
aI38973909
aS'+'
asS'PRR23D2'
p780
(lp781
I7778591
aI7781413
aS'-'
asS'ADAM32'
p782
(lp783
I39107571
aI39284909
aS'+'
asS'AC024451.2'
p784
(lp785
I47511034
aI47512141
aS'-'
asS'PRR23D1'
p786
(lp787
I7539628
aI7542450
aS'+'
asS'SDAD1P1'
p788
(lp789
I26379259
aI26382953
aS'-'
asS'DEFT1P'
p790
(lp791
I6987178
aI6989721
aS'-'
asS'ADHFE1'
p792
(lp793
I66432486
aI66468907
aS'+'
asS'RECQL4'
p794
(lp795
I144511288
aI144517845
aS'-'
asS'AC103724.1'
p796
(lp797
I42101318
aI42101836
aS'+'
asS'STAR'
p798
(lp799
I38143649
aI38151265
aS'-'
asS'RPS23P1'
p800
(lp801
I97865054
aI97865485
aS'+'
asS'AC105233.1'
p802
(lp803
I8095946
aI8096726
aS'+'
asS'AC090142.1'
p804
(lp805
I105011107
aI105011568
aS'+'
asS'AC022034.1'
p806
(lp807
I53537060
aI53540300
aS'+'
asS'AC105233.2'
p808
(lp809
I8048919
aI8049267
aS'+'
asS'KHDRBS3'
p810
(lp811
I135457457
aI135647610
aS'+'
asS'COPS5'
p812
(lp813
I67060473
aI67083733
aS'-'
asS'YTHDF3'
p814
(lp815
I63168553
aI63212786
aS'+'
asS'AC115837.1'
p816
(lp817
I74603244
aI74604244
aS'-'
asS'AC105233.3'
p818
(lp819
I8086022
aI8086765
aS'-'
asS'ZNF596'
p820
(lp821
I232217
aI264703
aS'+'
asS'TRIB1'
p822
(lp823
I125430321
aI125438405
aS'+'
asS'RPL35AP19'
p824
(lp825
I121380137
aI121380465
aS'-'
asS'AC109329.1'
p826
(lp827
I30331961
aI30332277
aS'-'
asS'CCAR2'
p828
(lp829
I22604632
aI22621514
aS'+'
asS'MTDH'
p830
(lp831
I97644179
aI97728770
aS'+'
asS'EXOSC4'
p832
(lp833
I144078626
aI144080647
aS'+'
asS'AC008066.1'
p834
(lp835
I30983459
aI30984321
aS'-'
asS'AC104027.1'
p836
(lp837
I33226848
aI33227147
aS'-'
asS'GTF2E2'
p838
(lp839
I30578318
aI30658251
aS'-'
asS'NDUFS5P6'
p840
(lp841
I67849044
aI67849338
aS'+'
asS'AF131216.2'
p842
(lp843
I11281364
aI11282501
aS'-'
asS'CCNE2'
p844
(lp845
I94879770
aI94896678
aS'-'
asS'AC103706.2'
p846
(lp847
I133515506
aI133515745
aS'+'
asS'AP001207.2'
p848
(lp849
I101528723
aI101529569
aS'-'
asS'BTF3P12'
p850
(lp851
I70273369
aI70273837
aS'+'
asS'PKMP4'
p852
(lp853
I75376709
aI75377014
aS'+'
asS'AC018714.1'
p854
(lp855
I127292233
aI127292440
aS'+'
asS'DERL1'
p856
(lp857
I123013164
aI123042423
aS'-'
asS'RPSAP47'
p858
(lp859
I80558870
aI80559757
aS'+'
asS'ALG1L11P'
p860
(lp861
I12178697
aI12182719
aS'+'
asS'AP003467.2'
p862
(lp863
I98633547
aI98633865
aS'+'
asS'ANGPT2'
p864
(lp865
I6499651
aI6563409
aS'-'
asS'AC046176.1'
p866
(lp867
I56050038
aI56051207
aS'-'
asS'TDRP'
p868
(lp869
I489792
aI545781
aS'-'
asS'ANGPT1'
p870
(lp871
I107249493
aI107498055
aS'-'
asS'FDFT1'
p872
(lp873
I11795573
aI11839304
aS'+'
asS'RPSAP48'
p874
(lp875
I110105076
aI110105964
aS'-'
asS'COX6C'
p876
(lp877
I99873200
aI99893706
aS'-'
asS'AC025062.2'
p878
(lp879
I18387108
aI18387777
aS'-'
asS'BUD31P1'
p880
(lp881
I33641581
aI33641939
aS'-'
asS'DPYSL2'
p882
(lp883
I26514022
aI26658173
aS'+'
asS'AC087763.1'
p884
(lp885
I8933721
aI8934006
aS'-'
asS'ZYXP1'
p886
(lp887
I137424904
aI137425021
aS'-'
asS'AC011037.1'
p888
(lp889
I67406515
aI67407072
aS'+'
asS'VPS37A'
p890
(lp891
I17246571
aI17298024
aS'+'
asS'REXO1L9P'
p892
(lp893
I85762909
aI85766931
aS'-'
asS'FAM90A16P'
p894
(lp895
I7730739
aI7733749
aS'+'
asS'INTS10'
p896
(lp897
I19817140
aI19852078
aS'+'
asS'BOP1'
p898
(lp899
I144262102
aI144291370
aS'-'
asS'OR6R2P'
p900
(lp901
I21797460
aI21797759
aS'+'
asS'AC090093.1'
p902
(lp903
I139508701
aI139508971
aS'-'
asS'VN1R46P'
p904
(lp905
I43219960
aI43220809
aS'-'
asS'SDCBPP2'
p906
(lp907
I69942948
aI69944648
aS'+'
asS'AC022861.1'
p908
(lp909
I67569416
aI67570078
aS'+'
asS'AF235103.2'
p910
(lp911
I145005561
aI145005906
aS'-'
asS'LYNX1'
p912
(lp913
I142764338
aI142778224
aS'-'
asS'TBC1D31'
p914
(lp915
I123072680
aI123152150
aS'+'
asS'NAPRT'
p916
(lp917
I143574785
aI143578613
aS'-'
asS'DCSTAMP'
p918
(lp919
I104339796
aI104356688
aS'+'
asS'AC103778.1'
p920
(lp921
I53712697
aI53712896
aS'+'
asS'AC087664.3'
p922
(lp923
I59557528
aI59557855
aS'-'
asS'NEIL2'
p924
(lp925
I11769639
aI11787345
aS'+'
asS'AC092709.1'
p926
(lp927
I84678798
aI84679842
aS'+'
asS'NSD3'
p928
(lp929
I38269697
aI38382272
aS'-'
asS'WDYHV1'
p930
(lp931
I123416803
aI123467230
aS'+'
asS'AC090686.1'
p932
(lp933
I103768281
aI103769029
aS'+'
asS'DEFB103B'
p934
(lp935
I7428888
aI7430348
aS'-'
asS'DEFB103A'
p936
(lp937
I7881204
aI7882664
aS'+'
asS'NDUFA5P12'
p938
(lp939
I47164870
aI47165524
aS'+'
asS'TNKS'
p940
(lp941
I9555914
aI9782346
aS'+'
asS'EPHX2'
p942
(lp943
I27490779
aI27545564
aS'+'
asS'NUDCD1'
p944
(lp945
I109240919
aI109334385
aS'-'
asS'C8orf58'
p946
(lp947
I22599601
aI22604150
aS'+'
asS'PIWIL2'
p948
(lp949
I22275297
aI22357563
aS'+'
asS'TPT1P8'
p950
(lp951
I36888482
aI36889307
aS'+'
asS'TEX15'
p952
(lp953
I30831544
aI30888706
aS'-'
asS'ZFHX4'
p954
(lp955
I76681219
aI76867285
aS'+'
asS'USP17L1'
p956
(lp957
I7332387
aI7333979
aS'+'
asS'PDGFRL'
p958
(lp959
I17576433
aI17643133
aS'+'
asS'SMPD5'
p960
(lp961
I144049079
aI144051203
aS'+'
asS'CSMD3'
p962
(lp963
I112222928
aI113437099
aS'-'
asS'FABP4'
p964
(lp965
I81478419
aI81483263
aS'-'
asS'FABP5'
p966
(lp967
I81280363
aI81284777
aS'+'
asS'TIGD5'
p968
(lp969
I143597835
aI143603224
aS'+'
asS'ELOC'
p970
(lp971
I73939169
aI73972186
aS'-'
asS'SLC16A14P1'
p972
(lp973
I106215763
aI106217218
aS'+'
asS'AC068880.1'
p974
(lp975
I19237737
aI19241912
aS'+'
asS'AC090142.2'
p976
(lp977
I104981164
aI104981579
aS'-'
asS'AC110053.1'
p978
(lp979
I137696724
aI137698467
aS'+'
asS'FABP9'
p980
(lp981
I81458341
aI81461579
aS'-'
asS'MTND1P5'
p982
(lp983
I103085651
aI103086590
aS'+'
asS'HNRNPA1P4'
p984
(lp985
I82291624
aI82292379
aS'-'
asS'MTND1P7'
p986
(lp987
I46828117
aI46828413
aS'-'
asS'ZBTB10'
p988
(lp989
I80485667
aI80526265
aS'+'
asS'RPL23AP96'
p990
(lp991
I6898878
aI6899468
aS'-'
asS'AC100870.1'
p992
(lp993
I79520145
aI79520649
aS'+'
asS'ZNF705CP'
p994
(lp995
I12356136
aI12359391
aS'+'
asS'FAM167A'
p996
(lp997
I11423943
aI11474715
aS'-'
asS'AP004290.1'
p998
(lp999
I99233048
aI99234459
aS'-'
asS'OR7E8P'
p1000
(lp1001
I12684154
aI12685153
aS'-'
asS'DUXAP2'
p1002
(lp1003
I101366417
aI101367005
aS'-'
asS'AC022616.1'
p1004
(lp1005
I43276270
aI43276823
aS'-'
asS'RFPL4AP5'
p1006
(lp1007
I126174186
aI126175014
aS'-'
asS'DEFB104A'
p1008
(lp1009
I7836471
aI7841242
aS'+'
asS'FBXO25'
p1010
(lp1011
I406955
aI477967
aS'+'
asS'LSM12P1'
p1012
(lp1013
I35525176
aI35525763
aS'-'
asS'ENY2'
p1014
(lp1015
I109334324
aI109345952
aS'+'
asS'AC113191.1'
p1016
(lp1017
I43125995
aI43126397
aS'-'
asS'AC021242.1'
p1018
(lp1019
I9453698
aI9457418
aS'+'
asS'HAS2'
p1020
(lp1021
I121612116
aI121641390
aS'-'
asS'SGCZ'
p1022
(lp1023
I14089864
aI15238339
aS'-'
asS'AP001331.1'
p1024
(lp1025
I108131100
aI108132114
aS'-'
asS'AP001330.4'
p1026
(lp1027
I101337496
aI101337649
aS'+'
asS'PLPP5'
p1028
(lp1029
I38263130
aI38269220
aS'-'
asS'AP001330.3'
p1030
(lp1031
I101223941
aI101224573
aS'-'
asS'THAP1'
p1032
(lp1033
I42836674
aI42843325
aS'-'
asS'RRS1'
p1034
(lp1035
I66429028
aI66430733
aS'+'
asS'FAM90A14P'
p1036
(lp1037
I7715443
aI7718453
aS'+'
asS'DEFB107A'
p1038
(lp1039
I7811720
aI7815716
aS'-'
asS'RPL30P9'
p1040
(lp1041
I20113343
aI20113672
aS'-'
asS'RPL31P41'
p1042
(lp1043
I65155407
aI65155778
aS'+'
asS'TUBBP1'
p1044
(lp1045
I30351873
aI30353518
aS'+'
asS'FAM90A13P'
p1046
(lp1047
I7279770
aI7282780
aS'+'
asS'AC009901.1'
p1048
(lp1049
I84828573
aI84829479
aS'-'
asS'MRPL49P2'
p1050
(lp1051
I16374618
aI16375082
aS'+'
asS'PDE7A'
p1052
(lp1053
I65717510
aI65841952
aS'-'
asS'AC022690.1'
p1054
(lp1055
I13909231
aI13909780
aS'-'
asS'CLU'
p1056
(lp1057
I27596917
aI27615031
aS'-'
asS'NUDT18'
p1058
(lp1059
I22106874
aI22109419
aS'-'
asS'MTCYBP20'
p1060
(lp1061
I46837578
aI46838706
aS'-'
asS'AC009879.1'
p1062
(lp1063
I66480648
aI66481486
aS'+'
asS'AC134698.4'
p1064
(lp1065
I43493937
aI43494762
aS'+'
asS'AC009646.1'
p1066
(lp1067
I53162339
aI53162987
aS'+'
asS'AC100784.1'
p1068
(lp1069
I73590574
aI73590883
aS'+'
asS'AC104339.1'
p1070
(lp1071
I92144088
aI92144435
aS'-'
asS'ADAM3A'
p1072
(lp1073
I39451045
aI39522848
aS'-'
asS'TMED10P1'
p1074
(lp1075
I144994886
aI144995540
aS'+'
asS'DLC1'
p1076
(lp1077
I13083361
aI13514886
aS'-'
asS'CSPP1'
p1078
(lp1079
I67064368
aI67196263
aS'+'
asS'HHLA1'
p1080
(lp1081
I132061486
aI132105265
aS'-'
asS'MTND2P7'
p1082
(lp1083
I133754811
aI133755450
aS'+'
asS'C8orf44-SGK3'
p1084
(lp1085
I66667616
aI66860472
aS'+'
asS'SPATC1'
p1086
(lp1087
I144012414
aI144047085
aS'+'
asS'HNRNPA1P36'
p1088
(lp1089
I81807772
aI81808726
aS'+'
asS'AC027250.1'
p1090
(lp1091
I54354168
aI54355118
aS'+'
asS'NSMCE2'
p1092
(lp1093
I125091853
aI125367120
aS'+'
asS'CNBD1'
p1094
(lp1095
I86866445
aI87382859
aS'+'
asS'TRIM60P15'
p1096
(lp1097
I46792065
aI46793064
aS'+'
asS'AC060775.1'
p1098
(lp1099
I65377592
aI65378111
aS'+'
asS'AC009314.1'
p1100
(lp1101
I30754236
aI30754539
aS'-'
asS'DKK4'
p1102
(lp1103
I42374068
aI42377232
aS'-'
asS'DSCC1'
p1104
(lp1105
I119833976
aI119856010
aS'-'
asS'FER1L6'
p1106
(lp1107
I123851987
aI124120061
aS'+'
asS'BRIX1P1'
p1108
(lp1109
I51435602
aI51436509
aS'+'
asS'PTK2'
p1110
(lp1111
I140657900
aI141001233
aS'-'
asS'MRPS16P1'
p1112
(lp1113
I91917507
aI91917918
aS'+'
asS'MTERF3'
p1114
(lp1115
I96239398
aI96261610
aS'-'
asS'AC007751.2'
p1116
(lp1117
I103559099
aI103559389
aS'-'
asS'AP002088.1'
p1118
(lp1119
I108378831
aI108379545
aS'-'
asS'AP003357.1'
p1120
(lp1121
I97788210
aI97788357
aS'-'
asS'ADAM24P'
p1122
(lp1123
I17469518
aI17471618
aS'+'
asS'AC015743.1'
p1124
(lp1125
I26547669
aI26548463
aS'+'
asS'RPS4XP10'
p1126
(lp1127
I94352923
aI94353653
aS'+'
asS'ZMAT4'
p1128
(lp1129
I40530590
aI40897833
aS'-'
asS'LGI3'
p1130
(lp1131
I22146825
aI22156832
aS'-'
asS'MYBL1'
p1132
(lp1133
I66562175
aI66613249
aS'-'
asS'AP001328.1'
p1134
(lp1135
I102154550
aI102154725
aS'+'
asS'SORBS3'
p1136
(lp1137
I22551695
aI22575788
aS'+'
asS'FAM90A19P'
p1138
(lp1139
I7753682
aI7756692
aS'+'
asS'SOX7'
p1140
(lp1141
I10723768
aI10730512
aS'-'
asS'AC091675.1'
p1142
(lp1143
I26771790
aI26772140
aS'+'
asS'PLPBP'
p1144
(lp1145
I37762593
aI37779767
aS'+'
asS'YWHAZ'
p1146
(lp1147
I100916525
aI100952983
aS'-'
asS'SCARA3'
p1148
(lp1149
I27633868
aI27676776
aS'+'
asS'LOXL2'
p1150
(lp1151
I23297189
aI23404240
aS'-'
asS'DEFB104B'
p1152
(lp1153
I7470308
aI7475082
aS'-'
asS'ASAH1'
p1154
(lp1155
I18056455
aI18084998
aS'-'
asS'RAD54B'
p1156
(lp1157
I94371960
aI94475109
aS'-'
asS'CEBPD'
p1158
(lp1159
I47736909
aI47739086
aS'-'
asS'RPL3P10'
p1160
(lp1161
I39157538
aI39158701
aS'-'
asS'GML'
p1162
(lp1163
I142834247
aI142916506
aS'+'
asS'VENTXP5'
p1164
(lp1165
I33722305
aI33723079
aS'-'
asS'OC90'
p1166
(lp1167
I132024220
aI132059380
aS'-'
asS'ZNF252P'
p1168
(lp1169
I144973589
aI145002894
aS'-'
asS'AC087672.1'
p1170
(lp1171
I74055882
aI74056647
aS'+'
asS'AC131281.2'
p1172
(lp1173
I150584
aI150728
aS'-'
asS'AC036214.3'
p1174
(lp1175
I79918860
aI80080775
aS'-'
asS'AC087343.1'
p1176
(lp1177
I34874159
aI34874633
aS'+'
asS'AC068587.3'
p1178
(lp1179
I12676035
aI12676389
aS'-'
asS'RDH10'
p1180
(lp1181
I73294612
aI73325281
aS'+'
asS'TTPA'
p1182
(lp1183
I63048553
aI63086049
aS'-'
asS'MRPS36P3'
p1184
(lp1185
I122091480
aI122091609
aS'+'
asS'AC124242.2'
p1186
(lp1187
I18088569
aI18089687
aS'-'
asS'RP1'
p1188
(lp1189
I54616067
aI54871720
aS'+'
asS'ST3GAL1'
p1190
(lp1191
I133454848
aI133571940
aS'-'
asS'MATN2'
p1192
(lp1193
I97869083
aI98036716
aS'+'
asS'TMEM249'
p1194
(lp1195
I144352219
aI144354070
aS'-'
asS'MFSD3'
p1196
(lp1197
I144509074
aI144511213
aS'+'
asS'INTS8'
p1198
(lp1199
I94823299
aI94881746
aS'+'
asS'AC018992.1'
p1200
(lp1201
I123288355
aI123290503
aS'+'
asS'LSM1'
p1202
(lp1203
I38163321
aI38176716
aS'-'
asS'FAM90A12P'
p1204
(lp1205
I8027077
aI8032305
aS'-'
asS'TPM3P3'
p1206
(lp1207
I84162118
aI84162471
aS'+'
asS'DUTP2'
p1208
(lp1209
I123352181
aI123352643
aS'+'
asS'MTSS1'
p1210
(lp1211
I124550790
aI124728429
aS'-'
asS'AC130366.3'
p1212
(lp1213
I12128107
aI12129298
aS'-'
asS'EBF2'
p1214
(lp1215
I25841730
aI26045397
aS'-'
asS'TNFRSF11B'
p1216
(lp1217
I118923557
aI118952200
aS'-'
asS'C1GALT1P3'
p1218
(lp1219
I61909984
aI61910802
aS'-'
asS'AC104576.1'
p1220
(lp1221
I46671839
aI46671926
aS'+'
asS'NATP'
p1222
(lp1223
I18370607
aI18371484
aS'+'
asS'AC018861.1'
p1224
(lp1225
I62482198
aI62483811
aS'-'
asS'SLA'
p1226
(lp1227
I133036724
aI133103054
aS'-'
asS'AC041040.1'
p1228
(lp1229
I48384590
aI48385049
aS'+'
asS'SLC20A2'
p1230
(lp1231
I42416475
aI42541926
aS'-'
asS'CYP7B1'
p1232
(lp1233
I64596135
aI64798761
aS'-'
asS'AC130360.2'
p1234
(lp1235
I7418991
aI7420546
aS'+'
asS'AC024995.1'
p1236
(lp1237
I95403802
aI95403894
aS'+'
asS'AC023245.1'
p1238
(lp1239
I109899246
aI109899762
aS'-'
asS'AC023245.2'
p1240
(lp1241
I109777912
aI109782288
aS'+'
asS'BNIP3L'
p1242
(lp1243
I26383197
aI26505636
aS'+'
asS'XRCC6P4'
p1244
(lp1245
I62855068
aI62857134
aS'-'
asS'GPIHBP1'
p1246
(lp1247
I143213193
aI143217170
aS'+'
asS'AZIN1'
p1248
(lp1249
I102849999
aI102893864
aS'-'
asS'AC087359.1'
p1250
(lp1251
I67133554
aI67135911
aS'-'
asS'PSKH2'
p1252
(lp1253
I86064079
aI86088621
aS'-'
asS'SCRIB'
p1254
(lp1255
I143790920
aI143815379
aS'-'
asS'RPL23P10'
p1256
(lp1257
I36581180
aI36581591
aS'-'
asS'AP002981.1'
p1258
(lp1259
I102417979
aI102418953
aS'+'
asS'GGH'
p1260
(lp1261
I63015085
aI63039171
aS'-'
asS'ABRA'
p1262
(lp1263
I106759483
aI106770245
aS'-'
asS'EGR3'
p1264
(lp1265
I22687659
aI22693302
aS'-'
asS'AC040975.1'
p1266
(lp1267
I28810103
aI28810418
aS'+'
asS'ARHGAP39'
p1268
(lp1269
I144529179
aI144605816
aS'-'
asS'KAT6A'
p1270
(lp1271
I41929479
aI42051987
aS'-'
asS'AC084121.1'
p1272
(lp1273
I7793716
aI7795870
aS'-'
asS'UBE2HP1'
p1274
(lp1275
I81254870
aI81255229
aS'+'
asS'HSF1'
p1276
(lp1277
I144291598
aI144314722
aS'+'
asS'AP002852.1'
p1278
(lp1279
I102503753
aI102504137
aS'+'
asS'AC107918.2'
p1280
(lp1281
I12033646
aI12034612
aS'-'
asS'AC107918.3'
p1282
(lp1283
I12025244
aI12025598
aS'-'
asS'AC107918.4'
p1284
(lp1285
I11999087
aI11999468
aS'+'
asS'NDUFB9'
p1286
(lp1287
I124539140
aI124568510
aS'+'
asS'WWP1'
p1288
(lp1289
I86342738
aI86468503
aS'+'
asS'AC025857.1'
p1290
(lp1291
I11895850
aI11896870
aS'-'
asS'DEFA7P'
p1292
(lp1293
I7038571
aI7039439
aS'-'
asS'AC013562.2'
p1294
(lp1295
I72660584
aI72661470
aS'-'
asS'FBXO16'
p1296
(lp1297
I28348287
aI28490256
aS'-'
asS'DEFB108P2'
p1298
(lp1299
I7373114
aI7377500
aS'+'
asS'POLR3D'
p1300
(lp1301
I22245235
aI22254600
aS'+'
asS'GSR'
p1302
(lp1303
I30678061
aI30727926
aS'-'
asS'SLC30A8'
p1304
(lp1305
I116950951
aI117176714
aS'+'
asS'DEFT1P2'
p1306
(lp1307
I7006293
aI7007389
aS'-'
asS'DEFA11P'
p1308
(lp1309
I7028641
aI7029489
aS'-'
asS'MTND4P7'
p1310
(lp1311
I13353401
aI13353530
aS'-'
asS'UQCRB'
p1312
(lp1313
I96225920
aI96235634
aS'-'
asS'FAM90A23P'
p1314
(lp1315
I7579644
aI7582653
aS'-'
asS'SPIDR'
p1316
(lp1317
I47260575
aI47736306
aS'+'
asS'PPP1R3B'
p1318
(lp1319
I9136255
aI9150696
aS'-'
asS'MTND4LP26'
p1320
(lp1321
I18200924
aI18201205
aS'-'
asS'TSNARE1'
p1322
(lp1323
I142212080
aI142403240
aS'-'
asS'TPD52'
p1324
(lp1325
I80051544
aI80231232
aS'-'
asS'NRBF2P4'
p1326
(lp1327
I107983116
aI107983965
aS'+'
asS'CNGB3'
p1328
(lp1329
I86573935
aI86743675
aS'-'
asS'GSDMC'
p1330
(lp1331
I129748196
aI129786888
aS'-'
asS'GSDMD'
p1332
(lp1333
I143553207
aI143563062
aS'+'
asS'AC107952.1'
p1334
(lp1335
I56252960
aI56253372
aS'-'
asS'DLGAP2'
p1336
(lp1337
I737596
aI1701406
aS'+'
asS'ZNF572'
p1338
(lp1339
I124973298
aI124979389
aS'+'
asS'FAM110B'
p1340
(lp1341
I57994568
aI58204279
aS'+'
asS'AP003551.1'
p1342
(lp1343
I98782055
aI98782628
aS'+'
asS'ATP6V0D2'
p1344
(lp1345
I85987323
aI86099086
aS'+'
asS'HEY1'
p1346
(lp1347
I79764010
aI79767863
aS'-'
asS'NARSP2'
p1348
(lp1349
I62111052
aI62119898
aS'+'
asS'CLN8'
p1350
(lp1351
I1763800
aI1801711
aS'+'
asS'ZNF317P1'
p1352
(lp1353
I93646066
aI93647092
aS'+'
asS'ANKRD46'
p1354
(lp1355
I100509752
aI100559742
aS'-'
asS'RPS27AP13'
p1356
(lp1357
I53887008
aI53887244
aS'-'
asS'RPL30P16'
p1358
(lp1359
I112538889
aI112539317
aS'+'
asS'SNTG1'
p1360
(lp1361
I49909789
aI50792829
aS'+'
asS'LRRC6'
p1362
(lp1363
I132571953
aI132675617
aS'-'
asS'TONSL'
p1364
(lp1365
I144428808
aI144444444
aS'-'
asS'AC026616.1'
p1366
(lp1367
I74804287
aI74804811
aS'-'
asS'AC138647.1'
p1368
(lp1369
I141514638
aI141518737
aS'+'
asS'RPL10P18'
p1370
(lp1371
I33540185
aI33540493
aS'+'
asS'TRPS1'
p1372
(lp1373
I115408496
aI115669001
aS'-'
asS'ALG1L12P'
p1374
(lp1375
I12421032
aI12425000
aS'+'
asS'MTCYBP19'
p1376
(lp1377
I36277763
aI36278886
aS'-'
asS'MCMDC2'
p1378
(lp1379
I66870749
aI66922048
aS'+'
asS'RNF139'
p1380
(lp1381
I124474738
aI124487914
aS'+'
asS'GPT'
p1382
(lp1383
I144502973
aI144507174
aS'+'
asS'FOXH1'
p1384
(lp1385
I144473412
aI144476335
aS'-'
asS'FGFR1'
p1386
(lp1387
I38411139
aI38468834
aS'-'
asS'RSPO2'
p1388
(lp1389
I107899317
aI108083648
aS'-'
asS'KBTBD11-OT1'
p1390
(lp1391
I1763888
aI1958627
aS'+'
asS'AC104371.1'
p1392
(lp1393
I135625185
aI135625981
aS'-'
asS'TMEM74'
p1394
(lp1395
I108606850
aI108787594
aS'-'
asS'FAM90A7P'
p1396
(lp1397
I7556700
aI7559712
aS'-'
asS'ADCY8'
p1398
(lp1399
I130780301
aI131042426
aS'-'
asS'AC022616.6'
p1400
(lp1401
I43372559
aI43372677
aS'+'
asS'UBE2Q2P10'
p1402
(lp1403
I86660525
aI86661922
aS'-'
asS'IFITM8P'
p1404
(lp1405
I63409064
aI63409457
aS'+'
asS'AC009902.1'
p1406
(lp1407
I81244156
aI81244338
aS'+'
asS'EEF1A1P37'
p1408
(lp1409
I111225585
aI111227049
aS'+'
asS'AC100850.1'
p1410
(lp1411
I15688914
aI15689562
aS'-'
asS'AC100823.2'
p1412
(lp1413
I73215929
aI73216627
aS'-'
asS'AC090572.1'
p1414
(lp1415
I86776479
aI86776638
aS'-'
asS'FAM90A5P'
p1416
(lp1417
I7287392
aI7290402
aS'+'
asS'AC103724.2'
p1418
(lp1419
I42128774
aI42129249
aS'-'
asS'CLVS1'
p1420
(lp1421
I61057158
aI61300064
aS'+'
asS'KCNV1'
p1422
(lp1423
I109963645
aI109975847
aS'-'
asS'AC087369.1'
p1424
(lp1425
I5848697
aI5849692
aS'+'
asS'AC107918.1'
p1426
(lp1427
I12003400
aI12004082
aS'-'
asS'AC090136.2'
p1428
(lp1429
I64570913
aI64571332
aS'-'
asS'JRK'
p1430
(lp1431
I142666415
aI142681968
aS'-'
asS'HGH1'
p1432
(lp1433
I144137769
aI144140843
aS'+'
asS'AC090136.1'
p1434
(lp1435
I64554236
aI64554475
aS'-'
asS'VENTXP6'
p1436
(lp1437
I73651289
aI73651602
aS'+'
asS'DOCK5'
p1438
(lp1439
I25184865
aI25415716
aS'+'
asS'KC877373.1'
p1440
(lp1441
I133325997
aI133326404
aS'+'
asS'TAGLN2P1'
p1442
(lp1443
I106697427
aI106698013
aS'-'
asS'FAM90A15P'
p1444
(lp1445
I7256904
aI7259914
aS'+'
asS'NDRG1'
p1446
(lp1447
I133237176
aI133297586
aS'-'
asS'CRH'
p1448
(lp1449
I66176382
aI66178725
aS'-'
asS'XKR6'
p1450
(lp1451
I10896523
aI11201366
aS'-'
asS'AC100810.2'
p1452
(lp1453
I1730206
aI1731452
aS'+'
asS'THEM6'
p1454
(lp1455
I142727203
aI142736927
aS'+'
asS'ZHX1-C8orf76'
p1456
(lp1457
I123231599
aI123274284
aS'-'
asS'PPM1AP1'
p1458
(lp1459
I15806149
aI15807283
aS'-'
asS'NCALD'
p1460
(lp1461
I101686543
aI102124907
aS'-'
asS'NKX2-6'
p1462
(lp1463
I23702451
aI23706598
aS'-'
asS'AC069113.3'
p1464
(lp1465
I27903566
aI27903715
aS'+'
asS'AP003355.1'
p1466
(lp1467
I98412882
aI98413784
aS'-'
asS'RIDA'
p1468
(lp1469
I98102344
aI98117241
aS'-'
asS'AC090568.1'
p1470
(lp1471
I88485110
aI88486094
aS'+'
asS'AC034114.1'
p1472
(lp1473
I80351132
aI80351416
aS'+'
asS'AC136777.2'
p1474
(lp1475
I264315
aI264672
aS'+'
asS'SLC25A51P3'
p1476
(lp1477
I80594815
aI80595703
aS'-'
asS'RRM2B'
p1478
(lp1479
I102204502
aI102239118
aS'-'
asS'TMEM70'
p1480
(lp1481
I73972437
aI73979134
aS'+'
asS'TMEM71'
p1482
(lp1483
I132709948
aI132760582
aS'-'
asS'ANXA13'
p1484
(lp1485
I123680795
aI123737407
aS'-'
asS'ARF1P3'
p1486
(lp1487
I124151923
aI124152433
aS'+'
asS'NKAIN3'
p1488
(lp1489
I62248942
aI62999652
aS'+'
asS'GEM'
p1490
(lp1491
I94249253
aI94262350
aS'-'
asS'AC105185.1'
p1492
(lp1493
I39309909
aI39310443
aS'-'
asS'HSPE1P14'
p1494
(lp1495
I102451763
aI102452483
aS'+'
asS'NIPA2P4'
p1496
(lp1497
I81617220
aI81618560
aS'-'
asS'XKR9'
p1498
(lp1499
I70669408
aI70790371
aS'+'
asS'ATP6V1G1P2'
p1500
(lp1501
I47194002
aI47194347
aS'-'
asS'AC090151.1'
p1502
(lp1503
I54696398
aI54697127
aS'+'
asS'DNAJC5B'
p1504
(lp1505
I66021560
aI66100526
aS'+'
asS'MAL2'
p1506
(lp1507
I119165034
aI119243528
aS'+'
asS'OR7E158P'
p1508
(lp1509
I11919900
aI11920809
aS'-'
asS'UNC5D'
p1510
(lp1511
I35235765
aI35796550
aS'+'
asS'PDP1'
p1512
(lp1513
I93857807
aI93921348
aS'+'
asS'AC139365.1'
p1514
(lp1515
I43674270
aI43674591
aS'-'
asS'TP53INP1'
p1516
(lp1517
I94925972
aI94949411
aS'-'
asS'AC021451.1'
p1518
(lp1519
I46784800
aI46785928
aS'+'
asS'IGLV8OR8-1'
p1520
(lp1521
I47202444
aI47202897
aS'-'
asS'IARS2P1'
p1522
(lp1523
I87598462
aI87601634
aS'-'
asS'ZFAT'
p1524
(lp1525
I134477792
aI134713049
aS'-'
asS'DECR1'
p1526
(lp1527
I90001405
aI90052008
aS'+'
asS'REXO1L4P'
p1528
(lp1529
I85802574
aI85806435
aS'-'
asS'IQANK1'
p1530
(lp1531
I143734140
aI143790644
aS'+'
asS'WBP1LP3'
p1532
(lp1533
I155274
aI155481
aS'+'
asS'SUMO2P16'
p1534
(lp1535
I31131539
aI31131802
aS'-'
asS'HSPA8P11'
p1536
(lp1537
I30237382
aI30240997
aS'+'
asS'SLC39A14'
p1538
(lp1539
I22367287
aI22434129
aS'+'
asS'GINS4'
p1540
(lp1541
I41529206
aI41545046
aS'+'
asS'AC139365.2'
p1542
(lp1543
I43672823
aI43673075
aS'+'
asS'MOS'
p1544
(lp1545
I56112942
aI56113982
aS'-'
asS'AC023632.3'
p1546
(lp1547
I94590115
aI94590259
aS'+'
asS'SLURP1'
p1548
(lp1549
I142740944
aI142742411
aS'-'
asS'SUMO2P19'
p1550
(lp1551
I102242040
aI102242619
aS'-'
asS'SUMO2P18'
p1552
(lp1553
I97858049
aI97858947
aS'-'
asS'AC023632.4'
p1554
(lp1555
I94594411
aI94594601
aS'+'
asS'AC007751.1'
p1556
(lp1557
I103568603
aI103568978
aS'-'
asS'AC108860.1'
p1558
(lp1559
I94688228
aI94688610
aS'+'
asS'AC024681.1'
p1560
(lp1561
I126073046
aI126073532
aS'-'
asS'EIF4EBP1'
p1562
(lp1563
I38030341
aI38060365
aS'+'
asS'NPBWR1'
p1564
(lp1565
I52938431
aI52941117
aS'+'
asS'RPL30P10'
p1566
(lp1567
I57392546
aI57392882
aS'+'
asS'ENPP7P1'
p1568
(lp1569
I8154308
aI8216916
aS'+'
asS'UBE2W'
p1570
(lp1571
I73786220
aI73878910
aS'-'
asS'PTDSS1'
p1572
(lp1573
I96261715
aI96336995
aS'+'
asS'PMP2'
p1574
(lp1575
I81440326
aI81447523
aS'-'
asS'AC087045.1'
p1576
(lp1577
I134673131
aI134673512
aS'+'
asS'BAG4'
p1578
(lp1579
I38176599
aI38213301
aS'+'
asS'AP004217.1'
p1580
(lp1581
I118761856
aI118762201
aS'-'
asS'AF305872.1'
p1582
(lp1583
I133002605
aI133003075
aS'-'
asS'SMIM19'
p1584
(lp1585
I42541155
aI42555193
aS'+'
asS'SMIM18'
p1586
(lp1587
I30638600
aI30646064
aS'+'
asS'AC087203.1'
p1588
(lp1589
I12374366
aI12375546
aS'-'
asS'ENPP7P6'
p1590
(lp1591
I12448013
aI12511278
aS'-'
asS'AC022182.3'
p1592
(lp1593
I60937705
aI60939871
aS'-'
asS'E2F5'
p1594
(lp1595
I85177612
aI85217158
aS'+'
asS'ZNF34'
p1596
(lp1597
I144773114
aI144787325
aS'-'
asS'AF117829.2'
p1598
(lp1599
I89826593
aI89833564
aS'+'
asS'PRR13P7'
p1600
(lp1601
I91909738
aI91910167
aS'-'
asS'KRT8P4'
p1602
(lp1603
I89412621
aI89415071
aS'-'
asS'VDAC3'
p1604
(lp1605
I42391903
aI42405897
aS'+'
asS'AC068228.3'
p1606
(lp1607
I123192875
aI123192932
aS'+'
asS'NSMAF'
p1608
(lp1609
I58583504
aI58659844
aS'-'
asS'AC068228.1'
p1610
(lp1611
I123236852
aI123237062
aS'+'
asS'CHMP7'
p1612
(lp1613
I23243637
aI23261992
aS'+'
asS'AC037459.1'
p1614
(lp1615
I22589274
aI22602084
aS'+'
asS'FAM90A20P'
p1616
(lp1617
I7295014
aI7298024
aS'+'
asS'AC023194.1'
p1618
(lp1619
I86016819
aI86017126
aS'+'
asS'SNX16'
p1620
(lp1621
I81799587
aI81842286
aS'-'
asS'AC091144.1'
p1622
(lp1623
I33523154
aI33523291
aS'+'
asS'SLC52A2'
p1624
(lp1625
I144354135
aI144359700
aS'+'
asS'AC103706.3'
p1626
(lp1627
I133516184
aI133516268
aS'+'
asS'MTND6P20'
p1628
(lp1629
I46838788
aI46839205
aS'+'
asS'SLC10A5'
p1630
(lp1631
I81693607
aI81696174
aS'-'
asS'SDR16C5'
p1632
(lp1633
I56300010
aI56320175
aS'-'
asS'ZHX2'
p1634
(lp1635
I122781394
aI122974512
aS'+'
asS'AC022790.1'
p1636
(lp1637
I69446057
aI69446260
aS'+'
asS'CHRNB3'
p1638
(lp1639
I42697419
aI42737407
aS'+'
asS'ZHX1'
p1640
(lp1641
I123248456
aI123274495
aS'-'
asS'AC018442.3'
p1642
(lp1643
I99804159
aI99804341
aS'-'
asS'RPL23AP54'
p1644
(lp1645
I5476548
aI5476966
aS'+'
asS'AC018442.1'
p1646
(lp1647
I99695957
aI99698017
aS'+'
asS'FAM60DP'
p1648
(lp1649
I23634876
aI23635507
aS'-'
asS'RPL23AP55'
p1650
(lp1651
I23206918
aI23207369
aS'+'
asS'R3HCC1'
p1652
(lp1653
I23270120
aI23289034
aS'+'
asS'CYP4F44P'
p1654
(lp1655
I43539973
aI43540927
aS'+'
asS'VCPIP1'
p1656
(lp1657
I66628487
aI66667217
aS'-'
asS'AC022880.2'
p1658
(lp1659
I13695574
aI13705506
aS'+'
asS'CYP7A1'
p1660
(lp1661
I58490178
aI58500236
aS'-'
asS'PENK'
p1662
(lp1663
I56436674
aI56445944
aS'-'
asS'AC138356.2'
p1664
(lp1665
I37747338
aI37748004
aS'-'
asS'MBOAT4'
p1666
(lp1667
I30131824
aI30144686
aS'-'
asS'REXO1L10P'
p1668
(lp1669
I85744543
aI85748373
aS'-'
asS'LY6E'
p1670
(lp1671
I143018553
aI143023832
aS'+'
asS'LY6D'
p1672
(lp1673
I142784880
aI142786592
aS'-'
asS'KIAA1456'
p1674
(lp1675
I12945642
aI13031503
aS'+'
asS'AC022880.1'
p1676
(lp1677
I13741809
aI13742781
aS'+'
asS'RPS20'
p1678
(lp1679
I56067295
aI56074509
aS'-'
asS'AC027419.1'
p1680
(lp1681
I117055818
aI117056145
aS'+'
asS'LY6L'
p1682
(lp1683
I143080457
aI143083001
aS'+'
asS'LY6K'
p1684
(lp1685
I142700111
aI142705127
aS'+'
asS'AC021305.1'
p1686
(lp1687
I123400582
aI123402095
aS'+'
asS'LY6H'
p1688
(lp1689
I143157914
aI143160711
aS'-'
asS'AC068587.4'
p1690
(lp1691
I12580287
aI12581063
aS'+'
asS'MTMR7'
p1692
(lp1693
I17298030
aI17413327
aS'-'
asS'AC232308.1'
p1694
(lp1695
I12290071
aI12296180
aS'-'
asS'HMGB1P19'
p1696
(lp1697
I123123106
aI123123682
aS'+'
asS'AC068587.1'
p1698
(lp1699
I12570350
aI12571130
aS'-'
asS'AC068587.2'
p1700
(lp1701
I12628476
aI12629256
aS'-'
asS'DEFB135'
p1702
(lp1703
I11982321
aI11984590
aS'+'
asS'PNOC'
p1704
(lp1705
I28317132
aI28343355
aS'+'
asS'AC079193.1'
p1706
(lp1707
I17150301
aI17150888
aS'-'
asS'ADAM28'
p1708
(lp1709
I24294040
aI24359018
aS'+'
asS'RFPL4AP7'
p1710
(lp1711
I49352630
aI49352844
aS'-'
asS'SFRP1'
p1712
(lp1713
I41261958
aI41309497
aS'-'
asS'SGK3'
p1714
(lp1715
I66712418
aI66860859
aS'+'
asS'MRPS28'
p1716
(lp1717
I79918717
aI80030271
aS'-'
asS'AC232323.1'
p1718
(lp1719
I85790382
aI85794399
aS'-'
asS'AC013701.1'
p1720
(lp1721
I48913916
aI48914380
aS'+'
asS'TSTA3'
p1722
(lp1723
I143612618
aI143617566
aS'-'
asS'MYL12AP1'
p1724
(lp1725
I93849561
aI93850075
aS'+'
asS'AF131215.1'
p1726
(lp1727
I11175051
aI11175570
aS'+'
asS'ZNHIT1P1'
p1728
(lp1729
I142858354
aI142858797
aS'+'
asS'RALYL'
p1730
(lp1731
I84183267
aI84921836
aS'+'
asS'IL7'
p1732
(lp1733
I78732772
aI78805523
aS'-'
asS'AGPAT5'
p1734
(lp1735
I6708357
aI6759666
aS'+'
asS'FAM83H'
p1736
(lp1737
I143723933
aI143733801
aS'-'
asS'AFG3L2P1'
p1738
(lp1739
I43270198
aI43271960
aS'-'
asS'GPAA1'
p1740
(lp1741
I144082610
aI144086216
aS'+'
asS'ASNSP1'
p1742
(lp1743
I46579213
aI46614523
aS'-'
asS'AC120036.1'
p1744
(lp1745
I47157118
aI47157771
aS'+'
asS'TSSK5P'
p1746
(lp1747
I144141214
aI144143664
aS'-'
asS'PSCA'
p1748
(lp1749
I142670321
aI142682299
aS'+'
asS'ASAP1'
p1750
(lp1751
I130052107
aI130443660
aS'-'
asS'AC005066.1'
p1752
(lp1753
I87867601
aI87868607
aS'+'
asS'IDO2'
p1754
(lp1755
I39934614
aI40016391
aS'+'
asS'AF228730.2'
p1756
(lp1757
I7122857
aI7123704
aS'+'
asS'AF228730.1'
p1758
(lp1759
I7190901
aI7191563
aS'-'
asS'IDO1'
p1760
(lp1761
I39902375
aI39928426
aS'+'
asS'HAUS1P3'
p1762
(lp1763
I72618722
aI72619383
aS'-'
asS'CDH17'
p1764
(lp1765
I94128240
aI94217303
aS'-'
asS'SNTB1'
p1766
(lp1767
I120535745
aI120813273
aS'-'
asS'AC134684.1'
p1768
(lp1769
I7601004
aI7601267
aS'+'
asS'PINX1'
p1770
(lp1771
I10764963
aI10839876
aS'-'
asS'OXR1'
p1772
(lp1773
I106359476
aI106752682
aS'+'
asS'LRRC24'
p1774
(lp1775
I144522377
aI144527018
aS'-'
asS'RUNX1T1'
p1776
(lp1777
I91954967
aI92103226
aS'-'
asS'FAM90A4P'
p1778
(lp1779
I7272148
aI7275158
aS'+'
asS'AP003478.1'
p1780
(lp1781
I94201913
aI94203052
aS'-'
asS'AC104997.1'
p1782
(lp1783
I27838477
aI27840382
aS'+'
asS'OR7E15P'
p1784
(lp1785
I12696307
aI12697273
aS'-'
asS'RB1CC1'
p1786
(lp1787
I52622456
aI52714432
aS'-'
asS'PSAT1P1'
p1788
(lp1789
I49740216
aI49741321
aS'-'
asS'MICU3'
p1790
(lp1791
I17027238
aI17122644
aS'+'
asS'SEPT10P1'
p1792
(lp1793
I56476826
aI56477987
aS'-'
asS'EBAG9'
p1794
(lp1795
I109540177
aI109565996
aS'+'
asS'LYPD2'
p1796
(lp1797
I142750150
aI142752534
aS'-'
asS'DEFB4B'
p1798
(lp1799
I7414860
aI7416863
aS'-'
asS'DEFB4A'
p1800
(lp1801
I7894629
aI7896711
aS'+'
asS'PLEKHF2'
p1802
(lp1803
I95133804
aI95156684
aS'+'
asS'NEFM'
p1804
(lp1805
I24913012
aI24919093
aS'+'
asS'NEFL'
p1806
(lp1807
I24950955
aI24957110
aS'-'
asS'GDF6'
p1808
(lp1809
I96142330
aI96160792
aS'-'
asS'DEFA1B'
p1810
(lp1811
I6996766
aI6999195
aS'-'
asS'ZFP41'
p1812
(lp1813
I143246928
aI143262705
aS'+'
asS'ATP6V1C1'
p1814
(lp1815
I103021063
aI103073051
aS'+'
asS'AC134698.5'
p1816
(lp1817
I43539137
aI43539472
aS'+'
asS'KCNS2'
p1818
(lp1819
I98427022
aI98432848
aS'+'
asS'NRG1'
p1820
(lp1821
I31639386
aI32764405
aS'+'
asS'RPL5P22'
p1822
(lp1823
I28299683
aI28300566
aS'+'
asS'RPL5P23'
p1824
(lp1825
I42341767
aI42342634
aS'-'
asS'EYA1'
p1826
(lp1827
I71197433
aI71362232
aS'-'
asS'PI15'
p1828
(lp1829
I74824537
aI74855029
aS'+'
asS'THAP12P7'
p1830
(lp1831
I78760142
aI78762431
aS'-'
asS'AC138696.1'
p1832
(lp1833
I143247110
aI143276403
aS'+'
asS'AC022784.5'
p1834
(lp1835
I9233013
aI9233449
aS'+'
asS'ZNF7'
p1836
(lp1837
I144827559
aI144847509
aS'+'
asS'CLDN23'
p1838
(lp1839
I8701938
aI8704106
aS'+'
asS'OSR2'
p1840
(lp1841
I98944403
aI98952104
aS'+'
asS'AC090255.1'
p1842
(lp1843
I81627269
aI81627617
aS'+'
asS'LACTB2'
p1844
(lp1845
I70635318
aI70669174
aS'-'
asS'AC104989.1'
p1846
(lp1847
I48193850
aI48194627
aS'-'
asS'MCM4'
p1848
(lp1849
I47960898
aI47978160
aS'+'
asS'RHOBTB2'
p1850
(lp1851
I22987417
aI23018441
aS'+'
asS'ACTBP6'
p1852
(lp1853
I84948585
aI84949674
aS'+'
asS'C8orf33'
p1854
(lp1855
I145052378
aI145056030
aS'+'
asS'OPRK1'
p1856
(lp1857
I53225716
aI53251697
aS'-'
asS'AC233992.2'
p1858
(lp1859
I144353228
aI144355609
aS'-'
asS'AC090096.1'
p1860
(lp1861
I68525517
aI68525906
aS'-'
asS'NOV'
p1862
(lp1863
I119416306
aI119424353
aS'+'
asS'KCNK9'
p1864
(lp1865
I139600838
aI139703041
aS'-'
asS'AC134698.1'
p1866
(lp1867
I43442902
aI43452912
aS'+'
asS'AC134698.3'
p1868
(lp1869
I43511820
aI43512033
aS'-'
asS'FAM90A3P'
p1870
(lp1871
I7264526
aI7267536
aS'+'
asS'RHPN1'
p1872
(lp1873
I143368887
aI143384220
aS'+'
asS'AC100871.1'
p1874
(lp1875
I124141888
aI124143512
aS'+'
asS'REXO1L3P'
p1876
(lp1877
I85654684
aI85658514
aS'-'
asS'AC021001.1'
p1878
(lp1879
I109470131
aI109471117
aS'+'
asS'AC025062.1'
p1880
(lp1881
I18383274
aI18383917
aS'-'
asS'SCARA5'
p1882
(lp1883
I27869882
aI27992727
aS'-'
asS'CYC1'
p1884
(lp1885
I144095027
aI144097525
aS'+'
asS'AC011626.1'
p1886
(lp1887
I121113358
aI121113919
aS'-'
asS'RPL37P6'
p1888
(lp1889
I56588385
aI56588787
aS'+'
asS'CDK5P1'
p1890
(lp1891
I122769274
aI122770150
aS'+'
asS'ARC'
p1892
(lp1893
I142611044
aI142614472
aS'-'
asS'PURG'
p1894
(lp1895
I30995802
aI31033715
aS'-'
asS'FGF20'
p1896
(lp1897
I16992169
aI17002181
aS'-'
asS'SEPT14P8'
p1898
(lp1899
I200385
aI200562
aS'-'
asS'OR7E154P'
p1900
(lp1901
I7705182
aI7706113
aS'-'
asS'RPS26P6'
p1902
(lp1903
I100895771
aI100896118
aS'+'
asS'OR7E125P'
p1904
(lp1905
I7246726
aI7247571
aS'-'
asS'AC103705.1'
p1906
(lp1907
I128010188
aI128010428
aS'-'
asS'SOD1P3'
p1908
(lp1909
I125951861
aI125952314
aS'-'
asS'AC073581.1'
p1910
(lp1911
I25141394
aI25141968
aS'-'
asS'TM2D2'
p1912
(lp1913
I38988808
aI38996533
aS'-'
asS'ADCK5'
p1914
(lp1915
I144374046
aI144393242
aS'+'
asS'AK3P2'
p1916
(lp1917
I143057060
aI143057816
aS'-'
asS'MTBP'
p1918
(lp1919
I120445426
aI120523635
aS'+'
asS'PDCL3P1'
p1920
(lp1921
I60387262
aI60387995
aS'+'
asS'WASHC5'
p1922
(lp1923
I125024260
aI125091840
aS'-'
asS'LYPLA1'
p1924
(lp1925
I54046367
aI54102017
aS'-'
asS'FAM90A24P'
p1926
(lp1927
I8019429
aI8024652
aS'-'
asS'SNRPCP15'
p1928
(lp1929
I7170550
aI7170741
aS'+'
asS'MFHAS1'
p1930
(lp1931
I8783354
aI8893645
aS'-'
asS'CCDC166'
p1932
(lp1933
I143706694
aI143708109
aS'-'
asS'LY96'
p1934
(lp1935
I73991352
aI74029087
aS'+'
asS'PUF60'
p1936
(lp1937
I143816344
aI143829859
aS'-'
asS'AC091076.1'
p1938
(lp1939
I54467208
aI54470609
aS'+'
asS'ZFAND1'
p1940
(lp1941
I81703099
aI81732881
aS'-'
asS'ALG1L13P'
p1942
(lp1943
I8237674
aI8244667
aS'-'
asS'MROH5'
p1944
(lp1945
I141433829
aI141507230
aS'-'
asS'MAFA'
p1946
(lp1947
I143419182
aI143429898
aS'-'
asS'MROH6'
p1948
(lp1949
I143566187
aI143572971
aS'-'
asS'MROH1'
p1950
(lp1951
I144148645
aI144261809
aS'+'
asS'PHYHIP'
p1952
(lp1953
I22219721
aI22232341
aS'-'
asS'MSR1'
p1954
(lp1955
I16175263
aI16567362
aS'-'
asS'AP005902.1'
p1956
(lp1957
I39867436
aI39867812
aS'-'
asS'AF201337.1'
p1958
(lp1959
I69129598
aI69130345
aS'+'
asS'TRMT12'
p1960
(lp1961
I124450820
aI124462150
aS'+'
asS'AC060764.1'
p1962
(lp1963
I54191582
aI54192035
aS'-'
asS'AC022826.2'
p1964
(lp1965
I73688691
aI73878854
aS'-'
asS'AC131281.1'
p1966
(lp1967
I202660
aI202897
aS'-'
asS'SFTPC'
p1968
(lp1969
I22158724
aI22162732
aS'+'
asS'FAM90A18P'
p1970
(lp1971
I7723091
aI7726101
aS'+'
asS'AC026241.1'
p1972
(lp1973
I46972476
aI46974617
aS'-'
asS'TRAPPC2P2'
p1974
(lp1975
I71448811
aI71449219
aS'-'
asS'SUMO2P20'
p1976
(lp1977
I69987415
aI69987697
aS'-'
asS'AP001206.1'
p1978
(lp1979
I101871830
aI101872549
aS'-'
asS'AC105910.1'
p1980
(lp1981
I22389865
aI22390655
aS'-'
asS'DENND3'
p1982
(lp1983
I141128621
aI141195796
aS'+'
asS'MIOXP1'
p1984
(lp1985
I86593755
aI86594589
aS'-'
asS'IMPA1P1'
p1986
(lp1987
I81605569
aI81626949
aS'-'
asS'PTP4A3'
p1988
(lp1989
I141391995
aI141431520
aS'+'
asS'GOLGA7'
p1990
(lp1991
I41490482
aI41510980
aS'+'
asS'DEFB134'
p1992
(lp1993
I11993174
aI11996312
aS'-'
asS'PPP1R16A'
p1994
(lp1995
I144477969
aI144502120
aS'+'
asS'LYN'
p1996
(lp1997
I55879835
aI56014168
aS'+'
asS'DEFB130'
p1998
(lp1999
I12310962
aI12318316
aS'-'
asS'CYCSP22'
p2000
(lp2001
I50762460
aI50762798
aS'-'
asS'NECAB1'
p2002
(lp2003
I90791550
aI90959408
aS'+'
asS'ENTPD4'
p2004
(lp2005
I23385783
aI23457695
aS'-'
asS'FNTA'
p2006
(lp2007
I43034194
aI43069583
aS'+'
asS'SPAG11B'
p2008
(lp2009
I7442684
aI7463452
aS'-'
asS'AC120036.2'
p2010
(lp2011
I47089572
aI47198861
aS'-'
asS'SPAG11A'
p2012
(lp2013
I7848099
aI7868867
aS'+'
asS'ENPP2'
p2014
(lp2015
I119557086
aI119673453
aS'-'
asS'SARAF'
p2016
(lp2017
I30063012
aI30083208
aS'-'
asS'SPAG1'
p2018
(lp2019
I100158035
aI100241903
aS'+'
asS'AC011716.1'
p2020
(lp2021
I76603240
aI76603852
aS'-'
asS'ADAM5'
p2022
(lp2023
I39314591
aI39417378
aS'+'
asS'AC040978.1'
p2024
(lp2025
I140039756
aI140041037
aS'+'
asS'GPR20'
p2026
(lp2027
I141356500
aI141367267
aS'-'
asS'LETM2'
p2028
(lp2029
I38386502
aI38409527
aS'+'
asS'FAM90A8P'
p2030
(lp2031
I7738387
aI7741396
aS'+'
asS'NKX6-3'
p2032
(lp2033
I41646072
aI41650669
aS'-'
asS'UBR5'
p2034
(lp2035
I102253012
aI102412841
aS'-'
asS'OTUD6B'
p2036
(lp2037
I91070196
aI91087095
aS'+'
asS'ADAM7'
p2038
(lp2039
I24441026
aI24509565
aS'+'
asS'FUT10'
p2040
(lp2041
I33370824
aI33473422
aS'-'
asS'ADAM2'
p2042
(lp2043
I39743735
aI39838289
aS'-'
asS'MTND6P19'
p2044
(lp2045
I36278960
aI36279483
aS'+'
asS'BMP1'
p2046
(lp2047
I22164736
aI22212326
aS'+'
asS'MAF1'
p2048
(lp2049
I144104499
aI144107611
aS'+'
asS'EEF1D'
p2050
(lp2051
I143581079
aI143599541
aS'-'
asS'PPP2CB'
p2052
(lp2053
I30785610
aI30812872
aS'-'
asS'PKIA'
p2054
(lp2055
I78516139
aI78605267
aS'+'
asS'FBXL6'
p2056
(lp2057
I144355431
aI144359376
aS'-'
asS'ADAMDEC1'
p2058
(lp2059
I24384285
aI24406013
aS'+'
asS'SDR16C6P'
p2060
(lp2061
I56373064
aI56395365
aS'-'
asS'ASNSP4'
p2062
(lp2063
I46697630
aI46698688
aS'+'
asS'TERF1'
p2064
(lp2065
I73008864
aI73048122
aS'+'
asS'AC025647.1'
p2066
(lp2067
I100165226
aI100165478
aS'-'
asS'GFRA2'
p2068
(lp2069
I21692843
aI21812357
aS'-'
asS'DEFB105A'
p2070
(lp2071
I7821966
aI7823889
aS'-'
asS'STC1'
p2072
(lp2073
I23841915
aI23854807
aS'-'
asS'DEFB105B'
p2074
(lp2075
I7487669
aI7489593
aS'+'
asS'ELP3'
p2076
(lp2077
I28090231
aI28191156
aS'+'
asS'POLB'
p2078
(lp2079
I42338455
aI42371808
aS'+'
asS'AC090453.1'
p2080
(lp2081
I36987977
aI36988412
aS'-'
asS'STMN4'
p2082
(lp2083
I27235323
aI27258386
aS'-'
asS'AC110741.2'
p2084
(lp2085
I133962992
aI133963259
aS'-'
asS'MTCO1P49'
p2086
(lp2087
I133755845
aI133756646
aS'+'
asS'RPL8'
p2088
(lp2089
I144789770
aI144792587
aS'-'
asS'STMN2'
p2090
(lp2091
I79610814
aI79666175
aS'+'
asS'HR'
p2092
(lp2093
I22114415
aI22131868
aS'-'
asS'PCM1'
p2094
(lp2095
I17922857
aI18029944
aS'+'
asS'RPL26P26'
p2096
(lp2097
I58113189
aI58113622
aS'-'
asS'FSBP'
p2098
(lp2099
I94378377
aI94436952
aS'-'
asS'SLC7A2'
p2100
(lp2101
I17497088
aI17570573
aS'+'
asS'MTCO1P47'
p2102
(lp2103
I110933263
aI110934533
aS'-'
asS'TRIM35'
p2104
(lp2105
I27284887
aI27311319
aS'-'
asS'SMARCE1P4'
p2106
(lp2107
I37095150
aI37095390
aS'+'
asS'TRIM55'
p2108
(lp2109
I66126896
aI66175487
aS'+'
asS'SLC25A37'
p2110
(lp2111
I23528805
aI23575463
aS'+'
asS'PCMTD1'
p2112
(lp2113
I51817575
aI51899186
aS'-'
asS'SLC25A32'
p2114
(lp2115
I103398635
aI103415189
aS'-'
asS'COX6B1P6'
p2116
(lp2117
I89823548
aI89823802
aS'-'
asS'ADAM9'
p2118
(lp2119
I38997026
aI39105144
aS'+'
asS'ST18'
p2120
(lp2121
I52110839
aI52409743
aS'-'
asS'PREX2'
p2122
(lp2123
I67952118
aI68237030
aS'+'
asS'CHD7'
p2124
(lp2125
I60678778
aI60868028
aS'+'
asS'PTTG3P'
p2126
(lp2127
I66767400
aI66768005
aS'-'
asS'RPL19P13'
p2128
(lp2129
I11256020
aI11256602
aS'+'
asS'RMDN1'
p2130
(lp2131
I86472353
aI86514338
aS'-'
asS'CPA6'
p2132
(lp2133
I67422072
aI67746385
aS'-'
asS'RPL12P48'
p2134
(lp2135
I37983070
aI37983373
aS'+'
asS'AC022730.2'
p2136
(lp2137
I70424125
aI70424576
aS'-'
asS'UBXN8'
p2138
(lp2139
I30732247
aI30766470
aS'+'
asS'SCX'
p2140
(lp2141
I144266560
aI144268481
aS'+'
asS'AC011726.1'
p2142
(lp2143
I26433029
aI26434065
aS'-'
asS'INTS9'
p2144
(lp2145
I28767661
aI28890242
aS'-'
asS'C8orf22'
p2146
(lp2147
I49054311
aI49075603
aS'+'
asS'AC022616.7'
p2148
(lp2149
I43247191
aI43247410
aS'+'
asS'ODF1'
p2150
(lp2151
I102551572
aI102560988
aS'+'
asS'MRPL13'
p2152
(lp2153
I120395437
aI120445402
aS'-'
asS'SH2D4A'
p2154
(lp2155
I19313617
aI19396218
aS'+'
asS'MRPL15'
p2156
(lp2157
I54135210
aI54147901
aS'+'
asS'AC091144.2'
p2158
(lp2159
I33436268
aI33436700
aS'-'
asS'AC007992.1'
p2160
(lp2161
I96068729
aI96069681
aS'-'
asS'MED30'
p2162
(lp2163
I117520713
aI117540262
aS'+'
asS'AC007992.2'
p2164
(lp2165
I96126967
aI96127801
aS'-'
asS'KLHL38'
p2166
(lp2167
I123645527
aI123652950
aS'-'
asS'AC023194.2'
p2168
(lp2169
I86043102
aI86043507
aS'+'
asS'PLEC'
p2170
(lp2171
I143915153
aI143976734
aS'-'
asS'AC083982.1'
p2172
(lp2173
I143065915
aI143066587
aS'-'
asS'SLC26A7'
p2174
(lp2175
I91209500
aI91395756
aS'+'
asS'SRPK2P'
p2176
(lp2177
I62863082
aI62864181
aS'-'
asS'MTFR1'
p2178
(lp2179
I65644739
aI65710556
aS'+'
asS'CYHR1'
p2180
(lp2181
I144449582
aI144465035
aS'-'
asS'AC104852.1'
p2182
(lp2183
I62143311
aI62144769
aS'-'
asS'AC019176.2'
p2184
(lp2185
I5127919
aI5128233
aS'-'
asS'PBK'
p2186
(lp2187
I27809620
aI27838095
aS'-'
asS'AC022616.2'
p2188
(lp2189
I43253732
aI43254089
aS'+'
asS'TMEM67'
p2190
(lp2191
I93754927
aI93819234
aS'+'
asS'TMEM65'
p2192
(lp2193
I124306189
aI124372692
aS'-'
asS'TMEM64'
p2194
(lp2195
I90625671
aI90791631
aS'-'
asS'DEPTOR'
p2196
(lp2197
I119873717
aI120050913
aS'+'
asS'TAF2'
p2198
(lp2199
I119730775
aI119832863
aS'-'
asS'AP005902.2'
p2200
(lp2201
I39860219
aI39860525
aS'+'
asS'AC084768.2'
p2202
(lp2203
I5716584
aI5716804
aS'+'
asS'AC135352.1'
p2204
(lp2205
I12958387
aI12962200
aS'+'
asS'HNF4G'
p2206
(lp2207
I75408036
aI75564327
aS'+'
asS'AC123767.1'
p2208
(lp2209
I39522976
aI39580134
aS'+'
asS'RBPMS'
p2210
(lp2211
I30384479
aI30572261
aS'+'
asS'TMEM68'
p2212
(lp2213
I55696424
aI55751134
aS'-'
asS'AC022832.1'
p2214
(lp2215
I13583889
aI13584533
aS'-'
asS'ADGRA2'
p2216
(lp2217
I37796906
aI37844896
aS'+'
asS'SUB1P1'
p2218
(lp2219
I11790005
aI11790386
aS'+'
asS'RPL10AP3'
p2220
(lp2221
I34322992
aI34323642
aS'-'
asS'AC022868.1'
p2222
(lp2223
I73984493
aI73984883
aS'+'
asS'DCAF4L2'
p2224
(lp2225
I87870743
aI87874068
aS'-'
asS'RNF122'
p2226
(lp2227
I33547755
aI33567125
aS'-'
asS'AGO2'
p2228
(lp2229
I140520156
aI140635619
aS'-'
asS'MCPH1'
p2230
(lp2231
I6406592
aI6648504
aS'+'
asS'OR7E157P'
p2232
(lp2233
I7592006
aI7592916
aS'+'
asS'REXO1L11P'
p2234
(lp2235
I85733419
aI85737278
aS'+'
asS'AC067904.1'
p2236
(lp2237
I27011147
aI27012371
aS'-'
asS'AC130366.1'
p2238
(lp2239
I12064389
aI12071747
aS'-'
asS'AC022973.1'
p2240
(lp2241
I129864478
aI129865052
aS'+'
asS'AC113143.2'
p2242
(lp2243
I60906059
aI60906452
aS'+'
asS'TMEM97P2'
p2244
(lp2245
I20934435
aI20934837
aS'-'
asS'AC103834.1'
p2246
(lp2247
I9658295
aI9658438
aS'-'
asS'DEFB1'
p2248
(lp2249
I6870575
aI6878022
aS'-'
asS'AC023538.1'
p2250
(lp2251
I14022687
aI14023422
aS'-'
asS'SDCBP'
p2252
(lp2253
I58553169
aI58582860
aS'+'
asS'RPS20P23'
p2254
(lp2255
I100776512
aI100776865
aS'-'
asS'MAPK15'
p2256
(lp2257
I143716259
aI143722458
aS'+'
asS'RPS20P21'
p2258
(lp2259
I73982125
aI73982467
aS'+'
asS'RPS20P20'
p2260
(lp2261
I71895991
aI71896330
aS'+'
asS'AC112673.1'
p2262
(lp2263
I10336782
aI10337677
aS'-'
asS'OR4F21'
p2264
(lp2265
I166049
aI167043
aS'-'
asS'LRRCC1'
p2266
(lp2267
I85107147
aI85146076
aS'+'
asS'AC109329.2'
p2268
(lp2269
I30349866
aI30350347
aS'-'
asS'AC124293.1'
p2270
(lp2271
I72429620
aI72430112
aS'+'
asS'AP004289.1'
p2272
(lp2273
I99346052
aI99348256
aS'-'
asS'AP004289.2'
p2274
(lp2275
I99340305
aI99341761
aS'-'
asS'COX6B1P4'
p2276
(lp2277
I26835817
aI26836300
aS'-'
asS'DEFB106A'
p2278
(lp2279
I7825172
aI7829053
aS'+'
asS'DEFB106B'
p2280
(lp2281
I7482504
aI7486400
aS'-'
asS'FZD3'
p2282
(lp2283
I28494205
aI28574267
aS'+'
asS'AC087272.1'
p2284
(lp2285
I50859530
aI50860062
aS'+'
asS'FZD6'
p2286
(lp2287
I103298433
aI103332817
aS'+'
asS'AC069120.2'
p2288
(lp2289
I38600661
aI38601200
aS'-'
asS'AC087360.1'
p2290
(lp2291
I16275681
aI16276296
aS'+'
asS'ZNF623'
p2292
(lp2293
I143636013
aI143652376
aS'+'
asS'AC022695.1'
p2294
(lp2295
I92351912
aI92352148
aS'-'
asS'HIGD1AP6'
p2296
(lp2297
I75302296
aI75302574
aS'+'
asS'NBN'
p2298
(lp2299
I89933336
aI90003228
aS'-'
asS'AF186192.2'
p2300
(lp2301
I144700659
aI144707532
aS'+'
asS'PABPC1'
p2302
(lp2303
I100702916
aI100722712
aS'-'
asS'TCF24'
p2304
(lp2305
I66946501
aI66962590
aS'-'
asS'DUSP4'
p2306
(lp2307
I29333064
aI29350668
aS'-'
asS'ARMC1'
p2308
(lp2309
I65602459
aI65634217
aS'-'
asS'FGF17'
p2310
(lp2311
I22042398
aI22048806
aS'+'
asS'REEP4'
p2312
(lp2313
I22138020
aI22141951
aS'-'
asS'FAM90A6P'
p2314
(lp2315
I7549053
aI7552062
aS'-'
asS'AC130360.1'
p2316
(lp2317
I7341826
aI7342942
aS'+'
asS'AC090132.1'
p2318
(lp2319
I83200952
aI83202431
aS'-'
asS'AC009597.2'
p2320
(lp2321
I56776283
aI56776874
aS'+'
asS'AC041039.1'
p2322
(lp2323
I105287830
aI105288365
aS'-'
asS'FAM49B'
p2324
(lp2325
I129841470
aI130016697
aS'-'
asS'RPL7'
p2326
(lp2327
I73291040
aI73295789
aS'-'
asS'MTND1P6'
p2328
(lp2329
I33014081
aI33015026
aS'+'
asS'TOP1MT'
p2330
(lp2331
I143309360
aI143359977
aS'-'
asS'AC069181.1'
p2332
(lp2333
I29632091
aI29632644
aS'+'
asS'PRAG1'
p2334
(lp2335
I8317737
aI8386498
aS'-'
asS'AC087752.2'
p2336
(lp2337
I94974573
aI94974853
aS'-'
asS'DEFB109P3'
p2338
(lp2339
I12150895
aI12151134
aS'-'
asS'CHRNA6'
p2340
(lp2341
I42756629
aI42796392
aS'-'
asS'TGS1'
p2342
(lp2343
I55773142
aI55825446
aS'+'
asS'ARFGEF1'
p2344
(lp2345
I67197649
aI67343677
aS'-'
asS'CHRNA2'
p2346
(lp2347
I27459761
aI27479296
aS'-'
asS'SNRPCP6'
p2348
(lp2349
I7143632
aI7143841
aS'-'
asS'AC090821.2'
p2350
(lp2351
I133786093
aI133786268
aS'-'
asS'KCNB2'
p2352
(lp2353
I72537391
aI72938349
aS'+'
asS'ZNF696'
p2354
(lp2355
I143291389
aI143298061
aS'+'
asS'VTA1P2'
p2356
(lp2357
I87575598
aI87576508
aS'-'
asS'RPL3P9'
p2358
(lp2359
I79571153
aI79572335
aS'-'
asS'POMK'
p2360
(lp2361
I43093518
aI43123434
aS'+'
asS'XKR5'
p2362
(lp2363
I6808517
aI6835644
aS'-'
asS'XKR4'
p2364
(lp2365
I55102389
aI55542054
aS'+'
asS'STAU2'
p2366
(lp2367
I73420371
aI73746937
aS'-'
asS'FAM160B2'
p2368
(lp2369
I22089208
aI22104898
aS'+'
asS'OSGIN2'
p2370
(lp2371
I89901859
aI89927868
aS'+'
asS'TACC1'
p2372
(lp2373
I38728186
aI38850793
aS'+'
asS'WDR97'
p2374
(lp2375
I144107726
aI144118315
aS'+'
asS'LRRC69'
p2376
(lp2377
I91102619
aI91219236
aS'+'
asS'ADGRB1'
p2378
(lp2379
I142449430
aI142545009
aS'+'
asS'REXO1L2P'
p2380
(lp2381
I85775106
aI85779090
aS'-'
asS'AC090281.1'
p2382
(lp2383
I30921060
aI30921335
aS'+'
asS'ERICH1'
p2384
(lp2385
I614746
aI731197
aS'-'
asS'NKX3-1'
p2386
(lp2387
I23678693
aI23682927
aS'-'
asS'GNRH1'
p2388
(lp2389
I25419262
aI25424654
aS'-'
asS'KBTBD11'
p2390
(lp2391
I1973878
aI2006936
aS'+'
asS'SLC35G5'
p2392
(lp2393
I11330888
aI11332208
aS'+'
asS'PHF20L1'
p2394
(lp2395
I132775384
aI132848807
aS'+'
asS'AP002982.1'
p2396
(lp2397
I97624203
aI97625079
aS'-'
asS'MAK16'
p2398
(lp2399
I33484750
aI33501260
aS'+'
asS'AC021678.1'
p2400
(lp2401
I28225929
aI28227562
aS'+'
asS'AC012119.1'
p2402
(lp2403
I23805933
aI23806154
aS'-'
asS'AC104986.1'
p2404
(lp2405
I99003407
aI99003842
aS'-'
asS'ZNF251'
p2406
(lp2407
I144720907
aI144755486
aS'-'
asS'ZNF250'
p2408
(lp2409
I144876497
aI144901479
aS'-'
asS'KCTD9'
p2410
(lp2411
I25427847
aI25458467
aS'-'
asS'CCDC25'
p2412
(lp2413
I27733318
aI27772653
aS'-'
asS'AC020688.1'
p2414
(lp2415
I127086263
aI127087510
aS'-'
asS'CDC42P3'
p2416
(lp2417
I142995850
aI142996482
aS'+'
asS'DCAF13'
p2418
(lp2419
I103414714
aI103443453
aS'+'
asS'AC012339.2'
p2420
(lp2421
I95947781
aI95948233
aS'-'
asS'RIPK2'
p2422
(lp2423
I89757747
aI89791063
aS'+'
asS'ADAM18'
p2424
(lp2425
I39584578
aI39730063
aS'+'
asS'TRPA1'
p2426
(lp2427
I72021251
aI72075617
aS'-'
asS'FAM83A'
p2428
(lp2429
I123179047
aI123210079
aS'+'
asS'SBF1P1'
p2430
(lp2431
I55449509
aI55455139
aS'-'
asS'MSC'
p2432
(lp2433
I71841549
aI71844468
aS'-'
asS'OPLAH'
p2434
(lp2435
I144051266
aI144060703
aS'-'
asS'AC087752.1'
p2436
(lp2437
I94891239
aI94892107
aS'+'
asS'GAPDHP62'
p2438
(lp2439
I100550724
aI100551713
aS'-'
asS'PNMA2'
p2440
(lp2441
I26504686
aI26514092
aS'-'
asS'FBXO43'
p2442
(lp2443
I100133556
aI100145800
aS'-'
asS'GRHL2'
p2444
(lp2445
I101492432
aI101669726
aS'+'
asS'TRMT112P7'
p2446
(lp2447
I54479597
aI54479963
aS'-'
asS'CPNE3'
p2448
(lp2449
I86514427
aI86561498
aS'+'
asS'ESCO2'
p2450
(lp2451
I27774554
aI27812640
aS'+'
asS'AC093331.1'
p2452
(lp2453
I85617344
aI85617512
aS'-'
asS'TATDN1'
p2454
(lp2455
I124488485
aI124539078
aS'-'
asS'PGAM1P13'
p2456
(lp2457
I107647279
aI107648032
aS'+'
asS'C8orf4'
p2458
(lp2459
I40153455
aI40155308
aS'+'
asS'DOK2'
p2460
(lp2461
I21908873
aI21913860
aS'-'
asS'RANP9'
p2462
(lp2463
I33039523
aI33039793
aS'+'
asS'AC093367.1'
p2464
(lp2465
I42484600
aI42485019
aS'+'
asS'AC087808.1'
p2466
(lp2467
I64973488
aI64973848
aS'-'
asS'GLI4'
p2468
(lp2469
I143267437
aI143276929
aS'+'
asS'CTHRC1'
p2470
(lp2471
I103371515
aI103382997
aS'+'
asS'NPM1P6'
p2472
(lp2473
I61202350
aI61203220
aS'+'
asS'TG'
p2474
(lp2475
I132866961
aI133134897
aS'+'
asS'RPL5P24'
p2476
(lp2477
I102923371
aI102924255
aS'-'
asS'AC016065.2'
p2478
(lp2479
I6473845
aI6474288
aS'-'
asS'VPS13B'
p2480
(lp2481
I99013266
aI99877580
aS'+'
asS'OR7E161P'
p2482
(lp2483
I11928597
aI11929563
aS'-'
asS'LRP12'
p2484
(lp2485
I104489231
aI104589024
aS'-'
asS'DPY19L4'
p2486
(lp2487
I94719900
aI94793836
aS'+'
asS'AC090095.1'
p2488
(lp2489
I83099976
aI83100846
aS'-'
asS'RAD21'
p2490
(lp2491
I116845935
aI116874866
aS'-'
asS'HOOK3'
p2492
(lp2493
I42896932
aI43030539
aS'+'
asS'KRT8P3'
p2494
(lp2495
I61578220
aI61579668
aS'+'
asS'MYOM2'
p2496
(lp2497
I2045040
aI2145456
aS'+'
asS'PLAT'
p2498
(lp2499
I42175233
aI42207724
aS'-'
asS'FAM90A21P'
p2500
(lp2501
I7564350
aI7567360
aS'-'
asS'AC021678.3'
p2502
(lp2503
I28238430
aI28238905
aS'+'
asS'C8orf89'
p2504
(lp2505
I73241329
aI73259502
aS'-'
asS'C8orf88'
p2506
(lp2507
I90958637
aI90985257
aS'-'
asS'GULOP'
p2508
(lp2509
I27560274
aI27589073
aS'+'
asS'TMCC1P1'
p2510
(lp2511
I105194990
aI105196969
aS'-'
asS'C8orf82'
p2512
(lp2513
I144525733
aI144529132
aS'-'
asS'AC130365.2'
p2514
(lp2515
I7891003
aI7892555
aS'-'
asS'AC130365.3'
p2516
(lp2517
I7967344
aI7968544
aS'-'
asS'BTF3P1'
p2518
(lp2519
I51721670
aI51722164
aS'-'
asS'C8orf86'
p2520
(lp2521
I38510834
aI38528662
aS'-'
asS'NPM2'
p2522
(lp2523
I22024134
aI22036896
aS'+'
asS'AC105081.1'
p2524
(lp2525
I93974671
aI93974776
aS'-'
asS'NDUFA5P2'
p2526
(lp2527
I104566086
aI104566429
aS'+'
asS'FAM86B3P'
p2528
(lp2529
I8228595
aI8244865
aS'+'
asS'COL14A1'
p2530
(lp2531
I120125108
aI120372036
aS'+'
asS'AC103851.1'
p2532
(lp2533
I15325296
aI15325569
aS'+'
asS'RPL30'
p2534
(lp2535
I98024851
aI98045548
aS'-'
asS'SLC7A13'
p2536
(lp2537
I86217626
aI86321146
aS'-'
asS'C8orf76'
p2538
(lp2539
I123219957
aI123241398
aS'-'
asS'AP001207.1'
p2540
(lp2541
I101562008
aI101562488
aS'-'
asS'C8orf74'
p2542
(lp2543
I10672637
aI10700593
aS'+'
asS'FAM213AP2'
p2544
(lp2545
I73277364
aI73278046
aS'-'
asS'MSRA'
p2546
(lp2547
I10054268
aI10428891
aS'+'
asS'DEFA8P'
p2548
(lp2549
I6950726
aI6951599
aS'-'
asS'AC104212.1'
p2550
(lp2551
I80300869
aI80301481
aS'+'
asS'AC104212.2'
p2552
(lp2553
I80265528
aI80266155
aS'-'
asS'RPL35P6'
p2554
(lp2555
I18774547
aI18774918
aS'-'
asS'AARD'
p2556
(lp2557
I116938199
aI116944487
aS'+'
asS'ENPP7P12'
p2558
(lp2559
I12205759
aI12206389
aS'-'
asS'SHARPIN'
p2560
(lp2561
I144098637
aI144104237
aS'-'
asS'AC104561.2'
p2562
(lp2563
I23483016
aI23483534
aS'-'
as.