(dp1
S'CEL'
p2
(lp3
I133061978
aI133071861
aS'+'
asS'NCBP1'
p4
(lp5
I97633626
aI97673748
aS'+'
asS'HSPA5'
p6
(lp7
I125234853
aI125241330
aS'-'
asS'NELFB'
p8
(lp9
I137255173
aI137273546
aS'+'
asS'MVB12B'
p10
(lp11
I126326849
aI126507041
aS'+'
asS'JKAMPP1'
p12
(lp13
I12287320
aI12288238
aS'+'
asS'ASS1'
p14
(lp15
I130444929
aI130501274
aS'+'
asS'SLC28A3'
p16
(lp17
I84275457
aI84340683
aS'-'
asS'SPTLC1'
p18
(lp19
I92031999
aI92115376
aS'-'
asS'GRIN1'
p20
(lp21
I137138390
aI137168762
aS'+'
asS'XPA'
p22
(lp23
I97674909
aI97697357
aS'-'
asS'AL513328.1'
p24
(lp25
I110727456
aI110727679
aS'-'
asS'CRB2'
p26
(lp27
I123356260
aI123378753
aS'+'
asS'CR769767.1'
p28
(lp29
I39892550
aI39892895
aS'+'
asS'CR769767.2'
p30
(lp31
I39873931
aI39874390
aS'-'
asS'FAM205C'
p32
(lp33
I34889064
aI34895778
aS'-'
asS'FAM205A'
p34
(lp35
I34723055
aI34729467
aS'-'
asS'RIC1'
p36
(lp37
I5629119
aI5776557
aS'+'
asS'PTRH1'
p38
(lp39
I127692978
aI127715647
aS'-'
asS'ORM1'
p40
(lp41
I114323056
aI114326475
aS'+'
asS'ORM2'
p42
(lp43
I114329869
aI114333252
aS'+'
asS'MTND4LP7'
p44
(lp45
I92110575
aI92110868
aS'+'
asS'FP325317.1'
p46
(lp47
I43109866
aI43125905
aS'-'
asS'UGCG'
p48
(lp49
I111896766
aI111935369
aS'+'
asS'OR1B1'
p50
(lp51
I122628579
aI122629573
aS'-'
asS'AL161454.1'
p52
(lp53
I95918136
aI95918704
aS'+'
asS'GTF3C5'
p54
(lp55
I133030675
aI133058501
aS'+'
asS'DENND4C'
p56
(lp57
I19230435
aI19372858
aS'+'
asS'AL513423.1'
p58
(lp59
I15524576
aI15524707
aS'-'
asS'AL354893.1'
p60
(lp61
I95123521
aI95123868
aS'+'
asS'GXYLT1P4'
p62
(lp63
I66024256
aI66026675
aS'-'
asS'AL162726.3'
p64
(lp65
I81977614
aI82780194
aS'+'
asS'AL162726.2'
p66
(lp67
I82431889
aI82432905
aS'-'
asS'RASEF'
p68
(lp69
I82979585
aI83063128
aS'-'
asS'TMEM261'
p70
(lp71
I7798344
aI7888380
aS'-'
asS'RBM22P5'
p72
(lp73
I76286494
aI76288081
aS'-'
asS'TMEM268'
p74
(lp75
I114611206
aI114646422
aS'+'
asS'TPRN'
p76
(lp77
I137192652
aI137204193
aS'-'
asS'MTCO1P51'
p78
(lp79
I80563571
aI80564630
aS'-'
asS'PAICSP2'
p80
(lp81
I91611343
aI91612492
aS'+'
asS'PAICSP1'
p82
(lp83
I37878116
aI37879493
aS'+'
asS'CNTFR'
p84
(lp85
I34551434
aI34590140
aS'-'
asS'HMCN2'
p86
(lp87
I130265882
aI130434123
aS'+'
asS'ANAPC2'
p88
(lp89
I137174784
aI137188537
aS'-'
asS'OR13I1P'
p90
(lp91
I104629754
aI104631017
aS'+'
asS'MTATP6P30'
p92
(lp93
I31505280
aI31505943
aS'+'
asS'C9orf116'
p94
(lp95
I135495181
aI135501734
aS'-'
asS'FKTN'
p96
(lp97
I105558130
aI105641118
aS'+'
asS'AL355377.1'
p98
(lp99
I35001342
aI35002994
aS'-'
asS'BX005040.4'
p100
(lp101
I61063752
aI61113954
aS'-'
asS'SUGT1P1'
p102
(lp103
I33503655
aI33510711
aS'-'
asS'BARX1'
p104
(lp105
I93951622
aI93955372
aS'-'
asS'NOL8'
p106
(lp107
I92297359
aI92325594
aS'-'
asS'AL158077.1'
p108
(lp109
I19895800
aI19895973
aS'-'
asS'NOL6'
p110
(lp111
I33461441
aI33473930
aS'-'
asS'AL158071.1'
p112
(lp113
I91169585
aI91170045
aS'-'
asS'KLF4P1'
p114
(lp115
I4803788
aI4804972
aS'-'
asS'FTLP4'
p116
(lp117
I30935485
aI30935977
aS'+'
asS'AL158073.1'
p118
(lp119
I75401889
aI75402992
aS'-'
asS'ZNF322P1'
p120
(lp121
I97198303
aI97199511
aS'-'
asS'CTSLP8'
p122
(lp123
I87844152
aI87847314
aS'+'
asS'BAATP1'
p124
(lp125
I101334084
aI101339347
aS'-'
asS'C11orf98P1'
p126
(lp127
I19705338
aI19705655
aS'+'
asS'SKP1P3'
p128
(lp129
I39485379
aI39485865
aS'+'
asS'NFX1'
p130
(lp131
I33290511
aI33371157
aS'+'
asS'ACTL7B'
p132
(lp133
I108854589
aI108856967
aS'-'
asS'ACTL7A'
p134
(lp135
I108862266
aI108863759
aS'+'
asS'BX255925.2'
p136
(lp137
I137286112
aI137287236
aS'+'
asS'OR13F1'
p138
(lp139
I104504263
aI104505222
aS'+'
asS'RPL3P11'
p140
(lp141
I14040716
aI14041861
aS'-'
asS'IGFBPL1'
p142
(lp143
I38408994
aI38424447
aS'-'
asS'CTSL3P'
p144
(lp145
I87772915
aI87786884
aS'+'
asS'PSMD5-AS1'
p146
(lp147
I120824828
aI120851355
aS'+'
asS'FXN'
p148
(lp149
I69035563
aI69100178
aS'+'
asS'FPGS'
p150
(lp151
I127794682
aI127808301
aS'+'
asS'CHCHD2P9'
p152
(lp153
I79391304
aI79391759
aS'+'
asS'KRT18P13'
p154
(lp155
I97698922
aI97700734
aS'+'
asS'AL162730.1'
p156
(lp157
I69107926
aI69108217
aS'-'
asS'AL935212.3'
p158
(lp159
I61665579
aI61666386
aS'+'
asS'AL354692.1'
p160
(lp161
I84604111
aI84604425
aS'-'
asS'AL353626.2'
p162
(lp163
I40883634
aI40883763
aS'+'
asS'AL353626.3'
p164
(lp165
I40755407
aI40767875
aS'-'
asS'TRIM14'
p166
(lp167
I98069275
aI98119210
aS'-'
asS'AL935212.4'
p168
(lp169
I61581813
aI61582675
aS'+'
asS'PRPF4'
p170
(lp171
I113275343
aI113292905
aS'+'
asS'NUP188'
p172
(lp173
I128947699
aI129007096
aS'+'
asS'ASB6'
p174
(lp175
I129634604
aI129642169
aS'-'
asS'CD72'
p176
(lp177
I35616603
aI35646810
aS'-'
asS'NUTF2P3'
p178
(lp179
I77580245
aI77580628
aS'+'
asS'TYRP1'
p180
(lp181
I12693435
aI12710290
aS'+'
asS'LDHAP4'
p182
(lp183
I14921337
aI14922334
aS'-'
asS'UBE2R2'
p184
(lp185
I33817567
aI33920404
aS'+'
asS'FAM69B'
p186
(lp187
I136712570
aI136724050
aS'+'
asS'ARRDC1'
p188
(lp189
I137605654
aI137615358
aS'+'
asS'AL162395.1'
p190
(lp191
I100912320
aI100912741
aS'+'
asS'FAM120AOS'
p192
(lp193
I93446494
aI93453592
aS'-'
asS'DBH'
p194
(lp195
I133636360
aI133659344
aS'+'
asS'RFX3'
p196
(lp197
I3218302
aI3526001
aS'-'
asS'PIGFP2'
p198
(lp199
I123843036
aI123843686
aS'+'
asS'HSPE1P22'
p200
(lp201
I92027498
aI92027824
aS'+'
asS'HSPE1P28'
p202
(lp203
I112280978
aI112281335
aS'-'
asS'OR1Q1'
p204
(lp205
I122614738
aI122615682
aS'+'
asS'SNRPEP2'
p206
(lp207
I6748703
aI6748981
aS'-'
asS'LCN15'
p208
(lp209
I136759636
aI136766255
aS'-'
asS'LCN10'
p210
(lp211
I136738167
aI136743356
aS'-'
asS'LCN12'
p212
(lp213
I136949551
aI136953074
aS'+'
asS'AL353705.1'
p214
(lp215
I78180214
aI78180693
aS'-'
asS'AL353705.2'
p216
(lp217
I78150532
aI78151193
aS'-'
asS'AL353705.3'
p218
(lp219
I78178263
aI78179512
aS'+'
asS'AL353705.4'
p220
(lp221
I78219120
aI78219357
aS'+'
asS'CSNK1G2P1'
p222
(lp223
I5040945
aI5041940
aS'+'
asS'NUDT2'
p224
(lp225
I34329506
aI34343713
aS'+'
asS'TLK1P1'
p226
(lp227
I122685933
aI122688372
aS'+'
asS'TMEM210'
p228
(lp229
I137170928
aI137172409
aS'-'
asS'TMEM215'
p230
(lp231
I32783499
aI32787399
aS'+'
asS'GAS1'
p232
(lp233
I86944363
aI86947189
aS'-'
asS'ALOX15P2'
p234
(lp235
I92913156
aI92921560
aS'+'
asS'EIF4A1P3'
p236
(lp237
I131782570
aI131782813
aS'-'
asS'TMC1'
p238
(lp239
I72521801
aI72836351
aS'+'
asS'TEX10'
p240
(lp241
I100302084
aI100352939
aS'-'
asS'CYLC2'
p242
(lp243
I102995311
aI103018488
aS'+'
asS'SPOUT1'
p244
(lp245
I128819651
aI128829821
aS'-'
asS'FAM157B'
p246
(lp247
I138217068
aI138252994
aS'+'
asS'TPM2'
p248
(lp249
I35681992
aI35691020
aS'-'
asS'TRBV24OR9-2'
p250
(lp251
I33649047
aI33649614
aS'+'
asS'CYP4F60P'
p252
(lp253
I42950566
aI42951630
aS'+'
asS'BOLA3P4'
p254
(lp255
I32926051
aI32926450
aS'+'
asS'C9orf129'
p256
(lp257
I93318199
aI93346414
aS'-'
asS'FBXW2'
p258
(lp259
I120756974
aI120793412
aS'-'
asS'FBXW5'
p260
(lp261
I136940435
aI136944696
aS'-'
asS'TGFBR1'
p262
(lp263
I99105089
aI99154192
aS'+'
asS'OR2K2'
p264
(lp265
I111327483
aI111328520
aS'-'
asS'LRSAM1'
p266
(lp267
I127451486
aI127503501
aS'+'
asS'PLPP6'
p268
(lp269
I4662315
aI4665258
aS'+'
asS'IER5L'
p270
(lp271
I129175552
aI129178262
aS'-'
asS'AL512605.1'
p272
(lp273
I65219987
aI65230861
aS'-'
asS'AL512605.2'
p274
(lp275
I65222522
aI65222777
aS'-'
asS'TMEM141'
p276
(lp277
I136791355
aI136793257
aS'+'
asS'TJP2'
p278
(lp279
I69121264
aI69255208
aS'+'
asS'NDOR1'
p280
(lp281
I137205695
aI137217009
aS'+'
asS'GKAP1'
p282
(lp283
I83739421
aI83817742
aS'-'
asS'GTF3C4'
p284
(lp285
I132670035
aI132694955
aS'+'
asS'MTND2P11'
p286
(lp287
I109300186
aI109301172
aS'+'
asS'ATP5A1P7'
p288
(lp289
I62686912
aI62688190
aS'+'
asS'RABL6'
p290
(lp291
I136807961
aI136841187
aS'+'
asS'SMARCA2'
p292
(lp293
I2015186
aI2193620
aS'+'
asS'AL591438.1'
p294
(lp295
I63581254
aI63581834
aS'-'
asS'IGKV1OR9-1'
p296
(lp297
I65250543
aI65250826
aS'-'
asS'IGKV1OR9-2'
p298
(lp299
I40641841
aI40642117
aS'-'
asS'TOR1A'
p300
(lp301
I129812944
aI129824134
aS'-'
asS'TOR1B'
p302
(lp303
I129803153
aI129811281
aS'+'
asS'AL669818.1'
p304
(lp305
I124598707
aI124599580
aS'-'
asS'ANKRD20A7P'
p306
(lp307
I42852675
aI42894751
aS'+'
asS'OR13D3P'
p308
(lp309
I104722335
aI104723271
aS'+'
asS'ADGRD2'
p310
(lp311
I124452091
aI124478589
aS'+'
asS'VCP'
p312
(lp313
I35056064
aI35073249
aS'-'
asS'PBX3'
p314
(lp315
I125747345
aI125967377
aS'+'
asS'BX664615.1'
p316
(lp317
I39809562
aI39810019
aS'+'
asS'DPH7'
p318
(lp319
I137554909
aI137578935
aS'-'
asS'TRMT112P4'
p320
(lp321
I101356466
aI101356844
aS'-'
asS'PTCH1'
p322
(lp323
I95442984
aI95516965
aS'-'
asS'AL354676.1'
p324
(lp325
I29636486
aI29636853
aS'+'
asS'YWHABP1'
p326
(lp327
I38643042
aI38643768
aS'+'
asS'PTGS1'
p328
(lp329
I122370530
aI122395702
aS'+'
asS'TXNDC8'
p330
(lp331
I110303521
aI110337884
aS'-'
asS'KRT18P66'
p332
(lp333
I30773464
aI30774732
aS'+'
asS'KRT18P67'
p334
(lp335
I122837557
aI122838820
aS'+'
asS'TOPORS'
p336
(lp337
I32540544
aI32552553
aS'-'
asS'CACNA1B'
p338
(lp339
I137877789
aI138124624
aS'+'
asS'AL161912.3'
p340
(lp341
I79850871
aI79851498
aS'+'
asS'KCTD10P1'
p342
(lp343
I28598668
aI28599292
aS'-'
asS'AC125634.1'
p344
(lp345
I64878790
aI64889063
aS'-'
asS'INIP'
p346
(lp347
I112683926
aI112718236
aS'-'
asS'RPS6P12'
p348
(lp349
I82744067
aI82744792
aS'-'
asS'AL590233.1'
p350
(lp351
I89472237
aI89472692
aS'+'
asS'CREB3'
p352
(lp353
I35732335
aI35737004
aS'+'
asS'KYAT1'
p354
(lp355
I128832942
aI128882075
aS'-'
asS'AL603650.1'
p356
(lp357
I134868236
aI134868475
aS'+'
asS'SPAAR'
p358
(lp359
I35909492
aI35937153
aS'+'
asS'BRD3'
p360
(lp361
I134030305
aI134068017
aS'-'
asS'DNAJA1'
p362
(lp363
I33025211
aI33039907
aS'+'
asS'TTC16'
p364
(lp365
I127716066
aI127731600
aS'+'
asS'QRFP'
p366
(lp367
I130892702
aI130896812
aS'-'
asS'FBP1'
p368
(lp369
I94603141
aI94640249
aS'-'
asS'AL354707.3'
p370
(lp371
I6675284
aI6675614
aS'+'
asS'RNF152P1'
p372
(lp373
I5418373
aI5418976
aS'-'
asS'AL162388.1'
p374
(lp375
I29254075
aI29254426
aS'-'
asS'HABP4'
p376
(lp377
I96450201
aI96491336
aS'+'
asS'SLC31A1'
p378
(lp379
I113221562
aI113264492
aS'+'
asS'SLC31A2'
p380
(lp381
I113150942
aI113164137
aS'+'
asS'AL590705.4'
p382
(lp383
I97238645
aI97246184
aS'+'
asS'SEC16A'
p384
(lp385
I136440097
aI136483759
aS'-'
asS'AL162386.1'
p386
(lp387
I13322806
aI13323450
aS'-'
asS'MSMP'
p388
(lp389
I35752992
aI35756613
aS'-'
asS'PPP6C'
p390
(lp391
I125146574
aI125189939
aS'-'
asS'AL135790.2'
p392
(lp393
I10532145
aI10532411
aS'+'
asS'PAX5'
p394
(lp395
I36833275
aI37034185
aS'-'
asS'PTPN3'
p396
(lp397
I109375694
aI109498313
aS'-'
asS'GGTA1P'
p398
(lp399
I121444991
aI121499757
aS'-'
asS'AL353662.1'
p400
(lp401
I34191555
aI34191881
aS'+'
asS'AL353662.2'
p402
(lp403
I34223984
aI34224628
aS'-'
asS'AL353662.3'
p404
(lp405
I34201273
aI34201515
aS'-'
asS'ZNF618'
p406
(lp407
I113876282
aI114056591
aS'+'
asS'BX005214.3'
p408
(lp409
I39359890
aI39369105
aS'-'
asS'RPS2P35'
p410
(lp411
I100116755
aI100117651
aS'-'
asS'AL772155.2'
p412
(lp413
I63729702
aI63730173
aS'+'
asS'AL772155.3'
p414
(lp415
I63719864
aI63720441
aS'+'
asS'BAG1'
p416
(lp417
I33252471
aI33264674
aS'-'
asS'OR1L8'
p418
(lp419
I122567548
aI122568477
aS'-'
asS'OR1L4'
p420
(lp421
I122723990
aI122724925
aS'+'
asS'OR1L6'
p422
(lp423
I122749740
aI122750783
aS'+'
asS'OR1L1'
p424
(lp425
I122661566
aI122662648
aS'+'
asS'OR1L3'
p426
(lp427
I122675130
aI122676104
aS'+'
asS'RPS6'
p428
(lp429
I19375715
aI19380254
aS'-'
asS'ADAMTS13'
p430
(lp431
I133414358
aI133459386
aS'+'
asS'SAMM50P1'
p432
(lp433
I17447145
aI17448543
aS'-'
asS'CHMP5'
p434
(lp435
I33264879
aI33282069
aS'+'
asS'NCLP1'
p436
(lp437
I136812788
aI136815536
aS'-'
asS'ZER1'
p438
(lp439
I128729786
aI128771893
aS'-'
asS'TMEM203'
p440
(lp441
I137204082
aI137205638
aS'-'
asS'OR2S1P'
p442
(lp443
I36013184
aI36014133
aS'+'
asS'OR13C2'
p444
(lp445
I104604671
aI104605627
aS'-'
asS'C5'
p446
(lp447
I120952335
aI121050276
aS'-'
asS'GALT'
p448
(lp449
I34638133
aI34647146
aS'+'
asS'PRSS3P4'
p450
(lp451
I33613848
aI33614009
aS'-'
asS'FAM214B'
p452
(lp453
I35104121
aI35116341
aS'-'
asS'AL358232.1'
p454
(lp455
I94496275
aI94512879
aS'+'
asS'ECM1P1'
p456
(lp457
I4768617
aI4769895
aS'-'
asS'C9orf131'
p458
(lp459
I35041095
aI35045982
aS'+'
asS'C9orf135'
p460
(lp461
I69820793
aI69906232
aS'+'
asS'AGPAT2'
p462
(lp463
I136673143
aI136687423
aS'-'
asS'LRRC8A'
p464
(lp465
I128882112
aI128918039
aS'+'
asS'OR13D2P'
p466
(lp467
I104590044
aI104590950
aS'+'
asS'AC129778.1'
p468
(lp469
I65865190
aI65877274
aS'-'
asS'ECM2'
p470
(lp471
I92493554
aI92536092
aS'-'
asS'LRRC26'
p472
(lp473
I137168758
aI137170051
aS'-'
asS'MEP1AP4'
p474
(lp475
I42817105
aI42823213
aS'-'
asS'ALDH1A1'
p476
(lp477
I72924050
aI73080442
aS'-'
asS'MEP1AP1'
p478
(lp479
I40187792
aI40193921
aS'-'
asS'CDC37L1'
p480
(lp481
I4679566
aI4708398
aS'+'
asS'GCNT1'
p482
(lp483
I76419850
aI76502416
aS'+'
asS'TBC1D2'
p484
(lp485
I98198999
aI98255721
aS'-'
asS'EIF4BP3'
p486
(lp487
I96146007
aI96147856
aS'+'
asS'MAPKAP1'
p488
(lp489
I125437394
aI125707234
aS'-'
asS'RGS3'
p490
(lp491
I113444731
aI113597738
aS'+'
asS'SPINK4'
p492
(lp493
I33218365
aI33248552
aS'+'
asS'UBE2V1P4'
p494
(lp495
I129791196
aI129791837
aS'+'
asS'PIGO'
p496
(lp497
I35088689
aI35096601
aS'-'
asS'TMSB4XP4'
p498
(lp499
I128342153
aI128342770
aS'+'
asS'CCIN'
p500
(lp501
I36169394
aI36171334
aS'+'
asS'OSTF1'
p502
(lp503
I75088543
aI75147265
aS'+'
asS'FSD1L'
p504
(lp505
I105448034
aI105552433
aS'+'
asS'CCDC171'
p506
(lp507
I15553086
aI15974039
aS'+'
asS'AL451124.1'
p508
(lp509
I28148211
aI28149236
aS'+'
asS'KANK1'
p510
(lp511
I470291
aI746105
aS'+'
asS'AL590627.1'
p512
(lp513
I137776539
aI137789235
aS'-'
asS'AL157702.1'
p514
(lp515
I113758994
aI113759419
aS'-'
asS'DOLK'
p516
(lp517
I128945530
aI128947619
aS'-'
asS'AL513124.1'
p518
(lp519
I73870896
aI73873297
aS'-'
asS'ZFAND5'
p520
(lp521
I72351425
aI72364592
aS'-'
asS'AL139008.1'
p522
(lp523
I33574361
aI33574588
aS'-'
asS'FBP2'
p524
(lp525
I94558720
aI94593793
aS'-'
asS'PLIN2'
p526
(lp527
I19121100
aI19149278
aS'-'
asS'PALM2-AKAP2'
p528
(lp529
I109780309
aI110172512
aS'+'
asS'NTRK2'
p530
(lp531
I84669778
aI85027070
aS'+'
asS'SLC34A3'
p532
(lp533
I137230757
aI137236554
aS'+'
asS'AL353621.1'
p534
(lp535
I101501643
aI101501885
aS'-'
asS'TOPORSLP1'
p536
(lp537
I104270250
aI104286955
aS'+'
asS'AL353718.1'
p538
(lp539
I6568844
aI6569360
aS'+'
asS'HMGN2P16'
p540
(lp541
I15588355
aI15588615
aS'+'
asS'C9orf24'
p542
(lp543
I34379019
aI34397832
aS'-'
asS'TDRD7'
p544
(lp545
I97411950
aI97496125
aS'+'
asS'MRPS2'
p546
(lp547
I135499984
aI135504673
aS'+'
asS'SPATA31D5P'
p548
(lp549
I81913437
aI81919926
aS'+'
asS'HSDL2'
p550
(lp551
I112379937
aI112472410
aS'+'
asS'EGFL7'
p552
(lp553
I136658856
aI136672678
aS'+'
asS'HMGB3P24'
p554
(lp555
I36303499
aI36304924
aS'-'
asS'HMGB3P23'
p556
(lp557
I31644576
aI31645160
aS'-'
asS'TRIM32'
p558
(lp559
I116687302
aI116701298
aS'+'
asS'C2orf27AP2'
p560
(lp561
I30670964
aI30671966
aS'-'
asS'GTF3AP1'
p562
(lp563
I6195934
aI6197248
aS'+'
asS'AL513318.1'
p564
(lp565
I87084161
aI87085151
aS'-'
asS'MTCO3P11'
p566
(lp567
I5100236
aI5101009
aS'+'
asS'INVS'
p568
(lp569
I100099256
aI100301000
aS'+'
asS'COL27A1'
p570
(lp571
I114155560
aI114312511
aS'+'
asS'HINT2'
p572
(lp573
I35812960
aI35815354
aS'-'
asS'TMEM246'
p574
(lp575
I101473171
aI101533448
aS'-'
asS'ACO1'
p576
(lp577
I32384620
aI32454769
aS'+'
asS'PTGES'
p578
(lp579
I129738331
aI129753047
aS'-'
asS'PRDM12'
p580
(lp581
I130664594
aI130682981
aS'+'
asS'ANKRD20A2'
p582
(lp583
I40223285
aI40266392
aS'+'
asS'ANKRD20A3'
p584
(lp585
I66109394
aI66152966
aS'-'
asS'ANKRD20A1'
p586
(lp587
I67859147
aI67902094
aS'+'
asS'ANKRD20A4'
p588
(lp589
I64369394
aI64413142
aS'+'
asS'ERCC6L2'
p590
(lp591
I95875701
aI95968840
aS'+'
asS'AL807752.1'
p592
(lp593
I136935840
aI136937161
aS'+'
asS'AL596448.1'
p594
(lp595
I72470374
aI72471076
aS'+'
asS'AL807752.6'
p596
(lp597
I137031241
aI137040436
aS'-'
asS'AL807752.7'
p598
(lp599
I136977518
aI136985435
aS'+'
asS'AL163193.1'
p600
(lp601
I20532552
aI20533339
aS'+'
asS'FAM120A'
p602
(lp603
I93451722
aI93566107
aS'+'
asS'AL356498.1'
p604
(lp605
I1151807
aI1152140
aS'-'
asS'TEK'
p606
(lp607
I27109149
aI27230175
aS'+'
asS'UBE2V1P10'
p608
(lp609
I85159682
aI85159950
aS'+'
asS'AL162389.1'
p610
(lp611
I107853783
aI107854258
aS'-'
asS'AL353729.2'
p612
(lp613
I39159071
aI39160319
aS'+'
asS'AL691447.1'
p614
(lp615
I94338347
aI94338733
aS'-'
asS'AL691447.3'
p616
(lp617
I94347234
aI94347563
aS'-'
asS'HRCT1'
p618
(lp619
I35906192
aI35907141
aS'+'
asS'AL161781.1'
p620
(lp621
I37046835
aI37047237
aS'+'
asS'AL133477.1'
p622
(lp623
I96407284
aI96407797
aS'+'
asS'ZNF483'
p624
(lp625
I111525159
aI111577844
aS'+'
asS'ZNF484'
p626
(lp627
I92845031
aI92878038
aS'-'
asS'AL161787.1'
p628
(lp629
I87525302
aI87525475
aS'+'
asS'PRKACG'
p630
(lp631
I69012529
aI69014113
aS'-'
asS'TCF3P1'
p632
(lp633
I5110913
aI5112849
aS'+'
asS'PSMB7'
p634
(lp635
I124353466
aI124415439
aS'-'
asS'HDHD3'
p636
(lp637
I113373419
aI113376999
aS'-'
asS'NCS1'
p638
(lp639
I130172578
aI130237304
aS'+'
asS'RMI1'
p640
(lp641
I83980798
aI84004074
aS'+'
asS'SETP5'
p642
(lp643
I137640986
aI137641547
aS'-'
asS'FAM27E3'
p644
(lp645
I67717411
aI67719178
aS'-'
asS'FAM27E2'
p646
(lp647
I41648023
aI41648425
aS'+'
asS'FAM27E4'
p648
(lp649
I61861995
aI61862336
aS'+'
asS'RPL12P25'
p650
(lp651
I477750
aI478423
aS'+'
asS'NTMT1'
p652
(lp653
I129608884
aI129635930
aS'+'
asS'ADGRF5P2'
p654
(lp655
I42795392
aI42800672
aS'+'
asS'ADGRF5P1'
p656
(lp657
I62861382
aI62864957
aS'-'
asS'STPG3'
p658
(lp659
I137251261
aI137253483
aS'+'
asS'FAM27B'
p660
(lp661
I67725690
aI67725902
aS'-'
asS'CYP4F33P'
p662
(lp663
I38542314
aI38542569
aS'-'
asS'IDNK'
p664
(lp665
I83623049
aI83644130
aS'+'
asS'NACC2'
p666
(lp667
I136006537
aI136095285
aS'-'
asS'VPS13A'
p668
(lp669
I77177445
aI77421541
aS'+'
asS'TRAF1'
p670
(lp671
I120902393
aI120929173
aS'-'
asS'TRAF2'
p672
(lp673
I136886518
aI136926607
aS'+'
asS'ALDH1B1'
p674
(lp675
I38392664
aI38398661
aS'+'
asS'BTF3P4'
p676
(lp677
I72107818
aI72108312
aS'-'
asS'DENND1A'
p678
(lp679
I123379654
aI123930107
aS'-'
asS'RPS26P2'
p680
(lp681
I30831878
aI30832225
aS'-'
asS'AL591424.1'
p682
(lp683
I138137095
aI138143864
aS'+'
asS'AL591424.2'
p684
(lp685
I138129399
aI138129526
aS'+'
asS'AL591424.3'
p686
(lp687
I138177426
aI138179774
aS'-'
asS'AL162393.1'
p688
(lp689
I113850687
aI113851632
aS'-'
asS'OR2AM1P'
p690
(lp691
I36021692
aI36022113
aS'+'
asS'MUSK'
p692
(lp693
I110668779
aI110801620
aS'+'
asS'FRRS1L'
p694
(lp695
I109130293
aI109167291
aS'-'
asS'ATP5HP2'
p696
(lp697
I2900320
aI2900804
aS'-'
asS'AL137074.1'
p698
(lp699
I92676943
aI92677407
aS'-'
asS'IFNW1'
p700
(lp701
I21140214
aI21142145
aS'-'
asS'LHX2'
p702
(lp703
I124011610
aI124033301
aS'+'
asS'LHX3'
p704
(lp705
I136196251
aI136205109
aS'-'
asS'LHX6'
p706
(lp707
I122202579
aI122228941
aS'-'
asS'FYTTD1P1'
p708
(lp709
I101375344
aI101376603
aS'-'
asS'NPR2'
p710
(lp711
I35792154
aI35809732
aS'+'
asS'CTNNAL1'
p712
(lp713
I108942571
aI109013529
aS'-'
asS'IFNE'
p714
(lp715
I21480839
aI21482313
aS'-'
asS'PTGR1'
p716
(lp717
I111549722
aI111599835
aS'-'
asS'AAED1'
p718
(lp719
I96639577
aI96655303
aS'-'
asS'AL360221.1'
p720
(lp721
I6276640
aI6276974
aS'+'
asS'AL158156.1'
p722
(lp723
I37490421
aI37490893
aS'-'
asS'OR13C4'
p724
(lp725
I104526253
aI104527209
aS'-'
asS'OR13C5'
p726
(lp727
I104598457
aI104599413
aS'-'
asS'OR13C7'
p728
(lp729
I36002909
aI36003867
aS'-'
asS'AKAP2'
p730
(lp731
I110048696
aI110172512
aS'+'
asS'OR13C3'
p732
(lp733
I104535749
aI104536856
aS'-'
asS'TUBB4B'
p734
(lp735
I137241213
aI137243707
aS'+'
asS'OR13C8'
p736
(lp737
I104569168
aI104570130
aS'+'
asS'OR13C9'
p738
(lp739
I104617248
aI104618204
aS'-'
asS'AL136097.1'
p740
(lp741
I92339658
aI92341663
aS'-'
asS'AL136097.3'
p742
(lp743
I92177235
aI92188652
aS'-'
asS'RLN1'
p744
(lp745
I5334969
aI5339873
aS'-'
asS'PHPT1'
p746
(lp747
I136848724
aI136851022
aS'+'
asS'NPAP1P7'
p748
(lp749
I87825146
aI87825968
aS'+'
asS'C9orf50'
p750
(lp751
I129612225
aI129620776
aS'-'
asS'C9orf57'
p752
(lp753
I72051383
aI72072721
aS'-'
asS'POLR1E'
p754
(lp755
I37485935
aI37503697
aS'+'
asS'SPATA31A1'
p756
(lp757
I39355669
aI39361959
aS'+'
asS'PTGDS'
p758
(lp759
I136977505
aI136981738
aS'+'
asS'SPATA31A3'
p760
(lp761
I66986304
aI66992583
aS'-'
asS'SPATA31A5'
p762
(lp763
I60914374
aI60920650
aS'+'
asS'SPATA31A7'
p764
(lp765
I61190003
aI61196280
aS'+'
asS'SPATA31A6'
p766
(lp767
I42183659
aI42189882
aS'+'
asS'AL389915.2'
p768
(lp769
I107534390
aI107535162
aS'+'
asS'AL389915.1'
p770
(lp771
I107543151
aI107543616
aS'-'
asS'NAIF1'
p772
(lp773
I128061233
aI128067321
aS'-'
asS'JAK2'
p774
(lp775
I4985245
aI5128183
aS'+'
asS'SNX18P8'
p776
(lp777
I40293082
aI40293955
aS'+'
asS'ANKS6'
p778
(lp779
I98731996
aI98796965
aS'-'
asS'CCL21'
p780
(lp781
I34709005
aI34710124
aS'-'
asS'SNX18P4'
p782
(lp783
I66082350
aI66083187
aS'-'
asS'SNX18P7'
p784
(lp785
I33576380
aI33577014
aS'+'
asS'AL137849.1'
p786
(lp787
I86228815
aI86228983
aS'+'
asS'SNX18P2'
p788
(lp789
I92893698
aI92894505
aS'-'
asS'UCK1'
p790
(lp791
I131523801
aI131531268
aS'-'
asS'FIBCD1'
p792
(lp793
I130902438
aI130939068
aS'-'
asS'MTCO3P29'
p794
(lp795
I92109013
aI92110095
aS'+'
asS'CAMSAP1'
p796
(lp797
I135808487
aI135907224
aS'-'
asS'ERMP1'
p798
(lp799
I5765076
aI5833070
aS'-'
asS'TRBV22OR9-2'
p800
(lp801
I33634111
aI33634246
aS'+'
asS'YWHAZP6'
p802
(lp803
I34922184
aI34922921
aS'-'
asS'SDCCAG3'
p804
(lp805
I136401925
aI136410609
aS'-'
asS'FAM74A4'
p806
(lp807
I61205258
aI61212373
aS'+'
asS'FAM74A3'
p808
(lp809
I66976520
aI66976991
aS'-'
asS'SETX'
p810
(lp811
I132261356
aI132354985
aS'-'
asS'AUH'
p812
(lp813
I91213815
aI91361913
aS'-'
asS'FRMPD1'
p814
(lp815
I37651000
aI37746904
aS'+'
asS'AL157384.1'
p816
(lp817
I95292338
aI95294810
aS'+'
asS'SLC27A4'
p818
(lp819
I128340728
aI128361470
aS'+'
asS'AK8'
p820
(lp821
I132725578
aI132878777
aS'-'
asS'AL160279.1'
p822
(lp823
I87741233
aI87741953
aS'+'
asS'SKA2P1'
p824
(lp825
I122761844
aI122762233
aS'+'
asS'ENHO'
p826
(lp827
I34521040
aI34523041
aS'-'
asS'AL353770.1'
p828
(lp829
I66979460
aI66979862
aS'+'
asS'AL353770.2'
p830
(lp831
I66962271
aI66962348
aS'+'
asS'DPP3P2'
p832
(lp833
I73474378
aI73476073
aS'-'
asS'SWI5'
p834
(lp835
I128275439
aI128288978
aS'+'
asS'PES1P2'
p836
(lp837
I13986175
aI13987909
aS'+'
asS'OR1N2'
p838
(lp839
I122553224
aI122555173
aS'+'
asS'OR1N1'
p840
(lp841
I122526358
aI122527296
aS'-'
asS'SNX18P3'
p842
(lp843
I38566260
aI38568009
aS'-'
asS'AL137847.3'
p844
(lp845
I83201957
aI83202065
aS'+'
asS'SH2D3C'
p846
(lp847
I127738319
aI127778741
aS'-'
asS'RNF2P1'
p848
(lp849
I6668999
aI6670008
aS'-'
asS'GFI1B'
p850
(lp851
I132945551
aI132991687
aS'+'
asS'PMPCA'
p852
(lp853
I136410570
aI136423761
aS'+'
asS'CELP'
p854
(lp855
I133082539
aI133087355
aS'+'
asS'UBA52P6'
p856
(lp857
I22012155
aI22012536
aS'+'
asS'GRIN3A'
p858
(lp859
I101569353
aI101738580
aS'-'
asS'KLF4'
p860
(lp861
I107484854
aI107489766
aS'-'
asS'AL163540.1'
p862
(lp863
I63974762
aI64004155
aS'-'
asS'PIP5KL1'
p864
(lp865
I127920879
aI127930797
aS'-'
asS'KLF9'
p866
(lp867
I70384597
aI70414624
aS'-'
asS'SLC24A2'
p868
(lp869
I19507452
aI19786928
aS'-'
asS'SEC61B'
p870
(lp871
I99222064
aI99230615
aS'+'
asS'MAP1LC3BP1'
p872
(lp873
I19461160
aI19464524
aS'-'
asS'BAAT'
p874
(lp875
I101360417
aI101383519
aS'-'
asS'RAP1BP1'
p876
(lp877
I18717974
aI18718526
aS'-'
asS'FAM27D1'
p878
(lp879
I41644430
aI41644770
aS'-'
asS'AL160275.1'
p880
(lp881
I114656304
aI114662374
aS'-'
asS'AL160275.2'
p882
(lp883
I114695922
aI114696315
aS'-'
asS'AL160275.3'
p884
(lp885
I114572901
aI114573371
aS'+'
asS'C9orf153'
p886
(lp887
I86220265
aI86259657
aS'-'
asS'C9orf152'
p888
(lp889
I110190048
aI110207480
aS'-'
asS'AL157884.1'
p890
(lp891
I32727069
aI32727522
aS'-'
asS'AL157884.3'
p892
(lp893
I32836575
aI32869595
aS'-'
asS'CDC20P1'
p894
(lp895
I87011652
aI87013151
aS'+'
asS'SLC1A1'
p896
(lp897
I4490444
aI4587469
aS'+'
asS'GRHPR'
p898
(lp899
I37422666
aI37436990
aS'+'
asS'AL845321.1'
p900
(lp901
I63334598
aI63343660
aS'+'
asS'FAM163B'
p902
(lp903
I133578957
aI133586197
aS'-'
asS'CTSV'
p904
(lp905
I97029679
aI97039643
aS'-'
asS'CYP4F25P'
p906
(lp907
I64465463
aI64466498
aS'+'
asS'AL365338.1'
p908
(lp909
I123061845
aI123063312
aS'-'
asS'CDKN2B'
p910
(lp911
I22002903
aI22009363
aS'-'
asS'CDKN2A'
p912
(lp913
I21968105
aI21995301
aS'-'
asS'MTCO2P11'
p914
(lp915
I5098341
aI5099325
aS'+'
asS'AL158824.1'
p916
(lp917
I112173522
aI112173971
aS'-'
asS'IGHEP2'
p918
(lp919
I5113549
aI5114804
aS'+'
asS'AL161449.1'
p920
(lp921
I13021694
aI13022892
aS'-'
asS'SLC2A8'
p922
(lp923
I127397142
aI127407898
aS'+'
asS'PTGES2'
p924
(lp925
I128120693
aI128128462
aS'-'
asS'RFC5P1'
p926
(lp927
I77072100
aI77073295
aS'+'
asS'ME2P1'
p928
(lp929
I29824742
aI29826711
aS'-'
asS'RBMXP2'
p930
(lp931
I30689105
aI30690272
aS'+'
asS'RPS3AP54'
p932
(lp933
I6662424
aI6663792
aS'+'
asS'FUBP3'
p934
(lp935
I130579606
aI130638352
aS'+'
asS'EXOSC2'
p936
(lp937
I130693721
aI130704861
aS'+'
asS'EXOSC3'
p938
(lp939
I37780806
aI37801437
aS'-'
asS'GAS2L1P1'
p940
(lp941
I38486859
aI38488338
aS'-'
asS'FAM189A2'
p942
(lp943
I69324572
aI69392454
aS'+'
asS'ADAMTSL2'
p944
(lp945
I133532164
aI133575519
aS'+'
asS'TRBV20OR9-2'
p946
(lp947
I33617762
aI33618506
aS'+'
asS'ADAMTSL1'
p948
(lp949
I17906563
aI18533292
aS'+'
asS'RPS19P6'
p950
(lp951
I80782338
aI80782770
aS'-'
asS'NANOGP5'
p952
(lp953
I100175178
aI100176054
aS'+'
asS'FGF7P8'
p954
(lp955
I62888535
aI62889921
aS'+'
asS'ENG'
p956
(lp957
I127815012
aI127854756
aS'-'
asS'HMGN2P31'
p958
(lp959
I5311444
aI5311716
aS'+'
asS'HMGN2P32'
p960
(lp961
I107458038
aI107458306
aS'-'
asS'AL390726.5'
p962
(lp963
I38433698
aI38543880
aS'+'
asS'AL390726.6'
p964
(lp965
I38540569
aI38577207
aS'-'
asS'SLC46A2'
p966
(lp967
I112878920
aI112890913
aS'-'
asS'AL390726.1'
p968
(lp969
I38526831
aI38527032
aS'+'
asS'AL390726.2'
p970
(lp971
I38543104
aI38543446
aS'-'
asS'GXYLT1P3'
p972
(lp973
I40348599
aI40349791
aS'+'
asS'GXYLT1P6'
p974
(lp975
I64488600
aI64489786
aS'+'
asS'GXYLT1P5'
p976
(lp977
I42975896
aI42978320
aS'+'
asS'PALM2'
p978
(lp979
I109640788
aI109946703
aS'+'
asS'C9orf40'
p980
(lp981
I74946581
aI74952886
aS'-'
asS'C9orf43'
p982
(lp983
I113410686
aI113429684
aS'+'
asS'C9orf47'
p984
(lp985
I88990863
aI88996140
aS'+'
asS'LINC00094'
p986
(lp987
I134025439
aI134031585
aS'+'
asS'RFK'
p988
(lp989
I76385517
aI76394505
aS'-'
asS'FGF7P6'
p990
(lp991
I62376161
aI62435199
aS'+'
asS'CNTNAP3P5'
p992
(lp993
I62559839
aI62569907
aS'+'
asS'SARDH'
p994
(lp995
I133663560
aI133739920
aS'-'
asS'CNTNAP3P1'
p996
(lp997
I62924911
aI62934964
aS'+'
asS'CNTNAP3P2'
p998
(lp999
I67059560
aI67293468
aS'+'
asS'FGF7P5'
p1000
(lp1001
I42625436
aI42626813
aS'+'
asS'TOR2A'
p1002
(lp1003
I127731524
aI127735317
aS'-'
asS'STXBP1'
p1004
(lp1005
I127579370
aI127690886
aS'+'
asS'MTCO3P30'
p1006
(lp1007
I31505946
aI31506615
aS'+'
asS'SET'
p1008
(lp1009
I128683655
aI128696400
aS'+'
asS'AL353726.1'
p1010
(lp1011
I88144851
aI88145850
aS'-'
asS'PDSS1P1'
p1012
(lp1013
I5084999
aI5086112
aS'-'
asS'S1PR3'
p1014
(lp1015
I88991447
aI89005010
aS'+'
asS'KIAA1958'
p1016
(lp1017
I112486847
aI112669397
aS'+'
asS'DNAJB5'
p1018
(lp1019
I34989641
aI34998431
aS'+'
asS'FANCG'
p1020
(lp1021
I35073838
aI35080016
aS'-'
asS'FANCC'
p1022
(lp1023
I95150015
aI95426742
aS'-'
asS'RPL7P33'
p1024
(lp1025
I15361393
aI15362134
aS'+'
asS'AL591479.1'
p1026
(lp1027
I66253424
aI66254464
aS'-'
asS'DNAJB5P1'
p1028
(lp1029
I76931261
aI76932066
aS'-'
asS'HNRNPA1P41'
p1030
(lp1031
I4944670
aI4945902
aS'-'
asS'ATP5A1P1'
p1032
(lp1033
I42410830
aI42412150
aS'-'
asS'AL591222.2'
p1034
(lp1035
I19957394
aI19958147
aS'-'
asS'AL591222.3'
p1036
(lp1037
I19967239
aI19967994
aS'-'
asS'ATP5A1P8'
p1038
(lp1039
I39654241
aI39655531
aS'-'
asS'VN1R51P'
p1040
(lp1041
I97093694
aI97094638
aS'-'
asS'RAPGEF1'
p1042
(lp1043
I131576770
aI131740074
aS'-'
asS'TUBB4BP6'
p1044
(lp1045
I118763867
aI118764345
aS'+'
asS'TUBB4BP2'
p1046
(lp1047
I34109171
aI34109968
aS'-'
asS'NRARP'
p1048
(lp1049
I137300482
aI137302251
aS'-'
asS'AL390774.1'
p1050
(lp1051
I123759220
aI123759775
aS'+'
asS'CDK9'
p1052
(lp1053
I127786049
aI127790787
aS'+'
asS'LPAR1'
p1054
(lp1055
I110873263
aI111038043
aS'-'
asS'LCN6'
p1056
(lp1057
I136744011
aI136748528
aS'-'
asS'LCN1'
p1058
(lp1059
I135521438
aI135526532
aS'+'
asS'LCN2'
p1060
(lp1061
I128149071
aI128153133
aS'+'
asS'RABGAP1'
p1062
(lp1063
I122941009
aI123104866
aS'+'
asS'LCN9'
p1064
(lp1065
I135663322
aI135666103
aS'+'
asS'LCN8'
p1066
(lp1067
I136754388
aI136758543
aS'-'
asS'AL359092.1'
p1068
(lp1069
I130724786
aI130725050
aS'-'
asS'AL359092.2'
p1070
(lp1071
I130651799
aI130652383
aS'+'
asS'FAM219A'
p1072
(lp1073
I34398185
aI34458570
aS'-'
asS'AL359893.1'
p1074
(lp1075
I101358932
aI101361242
aS'+'
asS'BNIP3P4'
p1076
(lp1077
I64810865
aI64811429
aS'-'
asS'AL133547.1'
p1078
(lp1079
I5193339
aI5193558
aS'-'
asS'IFNWP9'
p1080
(lp1081
I21190654
aI21191244
aS'-'
asS'PTGER4P2'
p1082
(lp1083
I62843919
aI62844170
aS'+'
asS'PTGER4P3'
p1084
(lp1085
I63775892
aI63776143
aS'-'
asS'NANS'
p1086
(lp1087
I98056739
aI98083075
aS'+'
asS'EDF1'
p1088
(lp1089
I136862119
aI136866286
aS'-'
asS'ENDOG'
p1090
(lp1091
I128818474
aI128822677
aS'+'
asS'AL359922.1'
p1092
(lp1093
I21802636
aI22032986
aS'+'
asS'CDK20'
p1094
(lp1095
I87966446
aI87974753
aS'-'
asS'CYSRT1'
p1096
(lp1097
I137224635
aI137226311
aS'+'
asS'CR788268.1'
p1098
(lp1099
I41979352
aI41983753
aS'+'
asS'AGTPBP1'
p1100
(lp1101
I85546540
aI85742029
aS'-'
asS'AL445646.1'
p1102
(lp1103
I72445754
aI72445969
aS'-'
asS'MTATP6P29'
p1104
(lp1105
I92108858
aI92108989
aS'+'
asS'TRBV21OR9-2'
p1106
(lp1107
I33629121
aI33629586
aS'+'
asS'ATP5HP3'
p1108
(lp1109
I14068932
aI14069417
aS'+'
asS'FKBP15'
p1110
(lp1111
I113161006
aI113221318
aS'-'
asS'FBXO10'
p1112
(lp1113
I37510892
aI37576253
aS'-'
asS'TOMM5'
p1114
(lp1115
I37582646
aI37592469
aS'-'
asS'AL162725.1'
p1116
(lp1117
I17108304
aI17108604
aS'-'
asS'TRUB2'
p1118
(lp1119
I128305161
aI128322742
aS'-'
asS'NUP214'
p1120
(lp1121
I131125561
aI131234670
aS'+'
asS'MFSD14B'
p1122
(lp1123
I94374551
aI94461042
aS'+'
asS'MFSD14C'
p1124
(lp1125
I96942913
aI97013600
aS'-'
asS'RPS27AP15'
p1126
(lp1127
I72741152
aI72741617
aS'-'
asS'RPS27AP14'
p1128
(lp1129
I1164414
aI1164867
aS'-'
asS'IARS'
p1130
(lp1131
I92210211
aI92293756
aS'-'
asS'CTSL'
p1132
(lp1133
I87725519
aI87731392
aS'+'
asS'SHC3'
p1134
(lp1135
I89005771
aI89178767
aS'-'
asS'LRRC37A5P'
p1136
(lp1137
I111603289
aI111631289
aS'-'
asS'SH3GLB2'
p1138
(lp1139
I129007036
aI129028300
aS'-'
asS'AL593851.1'
p1140
(lp1141
I132962511
aI132962667
aS'+'
asS'SURF1'
p1142
(lp1143
I133351755
aI133356485
aS'-'
asS'RPL12'
p1144
(lp1145
I127447674
aI127451405
aS'-'
asS'TRMO'
p1146
(lp1147
I97904489
aI97922570
aS'-'
asS'AL591926.7'
p1148
(lp1149
I41647825
aI41648035
aS'-'
asS'AL591926.6'
p1150
(lp1151
I41700682
aI41701096
aS'+'
asS'AL591926.5'
p1152
(lp1153
I41652895
aI41652973
aS'-'
asS'AL591926.4'
p1154
(lp1155
I41573156
aI41573453
aS'-'
asS'AL591926.3'
p1156
(lp1157
I41651935
aI41652172
aS'-'
asS'INPP5E'
p1158
(lp1159
I136428619
aI136439822
aS'-'
asS'AL591926.1'
p1160
(lp1161
I41700480
aI41700696
aS'-'
asS'SYK'
p1162
(lp1163
I90801787
aI90898549
aS'+'
asS'AL591926.8'
p1164
(lp1165
I41644771
aI41644981
aS'+'
asS'FREM1'
p1166
(lp1167
I14734666
aI14910995
aS'-'
asS'HMGB1P37'
p1168
(lp1169
I121519816
aI121520424
aS'-'
asS'FGF7P3'
p1170
(lp1171
I39816542
aI40106661
aS'-'
asS'PRRX2'
p1172
(lp1173
I129665641
aI129722674
aS'+'
asS'RGP1'
p1174
(lp1175
I35749287
aI35758575
aS'+'
asS'FGF7P7'
p1176
(lp1177
I62474948
aI62476333
aS'-'
asS'FGF7P4'
p1178
(lp1179
I42667506
aI42668887
aS'-'
asS'MSANTD3'
p1180
(lp1181
I100427429
aI100451711
aS'+'
asS'AL161447.1'
p1182
(lp1183
I86132622
aI86132851
aS'+'
asS'AKNA'
p1184
(lp1185
I114334156
aI114394405
aS'-'
asS'MTND5P14'
p1186
(lp1187
I5109496
aI5110762
aS'+'
asS'SPATA31D2P'
p1188
(lp1189
I81966564
aI81972130
aS'+'
asS'AL627230.8'
p1190
(lp1191
I67718821
aI67719022
aS'+'
asS'AL627230.5'
p1192
(lp1193
I67713910
aI67713967
aS'+'
asS'AL627230.4'
p1194
(lp1195
I67723736
aI67724105
aS'+'
asS'AL627230.7'
p1196
(lp1197
I67722083
aI67722683
aS'+'
asS'AL627230.6'
p1198
(lp1199
I67797221
aI67797500
aS'+'
asS'AL627230.1'
p1200
(lp1201
I67721884
aI67722094
aS'-'
asS'AL627230.3'
p1202
(lp1203
I67714723
aI67714914
aS'+'
asS'AL627230.2'
p1204
(lp1205
I67725890
aI67726544
aS'+'
asS'CARD9'
p1206
(lp1207
I136361903
aI136373644
aS'-'
asS'PNPLA7'
p1208
(lp1209
I137459953
aI137550534
aS'-'
asS'ATP6V1G1P3'
p1210
(lp1211
I136779939
aI136780218
aS'+'
asS'EIF1P1'
p1212
(lp1213
I659986
aI660326
aS'+'
asS'AL133480.2'
p1214
(lp1215
I6278667
aI6279153
aS'+'
asS'PHF24'
p1216
(lp1217
I34958324
aI34982544
aS'+'
asS'RPL4P5'
p1218
(lp1219
I7477045
aI7478320
aS'-'
asS'FRMD3'
p1220
(lp1221
I83242990
aI83538546
aS'-'
asS'HSPA8P17'
p1222
(lp1223
I30988085
aI30990572
aS'+'
asS'OR5C1'
p1224
(lp1225
I122788933
aI122789895
aS'+'
asS'ANKRD19P'
p1226
(lp1227
I92809388
aI92888693
aS'+'
asS'BX005266.3'
p1228
(lp1229
I62609725
aI62610799
aS'-'
asS'BX005266.1'
p1230
(lp1231
I62532397
aI62532853
aS'-'
asS'AL513478.1'
p1232
(lp1233
I66084804
aI66085031
aS'+'
asS'SPATA31C2'
p1234
(lp1235
I88129458
aI88138446
aS'-'
asS'SPATA31C1'
p1236
(lp1237
I87914522
aI87923505
aS'+'
asS'CARNMT1'
p1238
(lp1239
I74981020
aI75028394
aS'-'
asS'RPS29P33'
p1240
(lp1241
I17096301
aI17096446
aS'-'
asS'AHCYP2'
p1242
(lp1243
I120720673
aI120721972
aS'+'
asS'RABEPK'
p1244
(lp1245
I125200542
aI125234158
aS'+'
asS'NDUFA8'
p1246
(lp1247
I122144058
aI122159819
aS'-'
asS'UAP1L1'
p1248
(lp1249
I137077501
aI137084538
aS'+'
asS'DNAJC25'
p1250
(lp1251
I111631352
aI111654351
aS'+'
asS'OR7E116P'
p1252
(lp1253
I90232185
aI90233141
aS'+'
asS'AL135786.1'
p1254
(lp1255
I5356312
aI5356525
aS'-'
asS'GNAQ'
p1256
(lp1257
I77716087
aI78031458
aS'-'
asS'AIF1L'
p1258
(lp1259
I131096476
aI131123152
aS'+'
asS'MTCO3P40'
p1260
(lp1261
I82427350
aI82428025
aS'-'
asS'CTAGE12P'
p1262
(lp1263
I27608382
aI27610745
aS'-'
asS'CDK2AP2P1'
p1264
(lp1265
I41280460
aI41280787
aS'+'
asS'CDK2AP2P2'
p1266
(lp1267
I62844818
aI62845184
aS'+'
asS'CDK2AP2P3'
p1268
(lp1269
I63774870
aI63775241
aS'-'
asS'CACFD1'
p1270
(lp1271
I133459967
aI133470848
aS'+'
asS'STX17'
p1272
(lp1273
I99906633
aI99970341
aS'+'
asS'C9orf72'
p1274
(lp1275
I27546545
aI27573866
aS'-'
asS'C9orf78'
p1276
(lp1277
I129827290
aI129835275
aS'-'
asS'RECK'
p1278
(lp1279
I36036433
aI36124451
aS'+'
asS'TTF1'
p1280
(lp1281
I132375548
aI132406851
aS'-'
asS'GNE'
p1282
(lp1283
I36214441
aI36277056
aS'-'
asS'NOXA1'
p1284
(lp1285
I137423350
aI137434406
aS'+'
asS'SERPINH1P1'
p1286
(lp1287
I34318407
aI34319655
aS'+'
asS'TLN1'
p1288
(lp1289
I35696948
aI35732395
aS'-'
asS'NUTM2F'
p1290
(lp1291
I94318196
aI94328644
aS'-'
asS'NUTM2G'
p1292
(lp1293
I96928310
aI96940253
aS'+'
asS'AL354989.2'
p1294
(lp1295
I34133157
aI34134696
aS'-'
asS'DPP7'
p1296
(lp1297
I137110542
aI137114718
aS'-'
asS'ANXA1'
p1298
(lp1299
I73151757
aI73170393
aS'+'
asS'SLC44A1'
p1300
(lp1301
I105244622
aI105439171
aS'+'
asS'AL136317.1'
p1302
(lp1303
I66017643
aI66017868
aS'-'
asS'ZDHHC21'
p1304
(lp1305
I14611071
aI14693471
aS'-'
asS'PRUNE2'
p1306
(lp1307
I76611377
aI76906087
aS'-'
asS'SECISBP2'
p1308
(lp1309
I89318506
aI89359650
aS'+'
asS'COQ4'
p1310
(lp1311
I128322536
aI128334072
aS'+'
asS'AL353678.1'
p1312
(lp1313
I86374966
aI86375706
aS'-'
asS'AL353743.3'
p1314
(lp1315
I85934588
aI85936599
aS'+'
asS'AL353743.1'
p1316
(lp1317
I85805359
aI85849542
aS'+'
asS'DDX31'
p1318
(lp1319
I132592997
aI132670401
aS'-'
asS'AL353743.4'
p1320
(lp1321
I85753306
aI85786575
aS'+'
asS'ZNF782'
p1322
(lp1323
I96817633
aI96875574
aS'-'
asS'SUSD3'
p1324
(lp1325
I93058688
aI93085132
aS'+'
asS'SUSD1'
p1326
(lp1327
I112040785
aI112175408
aS'-'
asS'C9orf142'
p1328
(lp1329
I136992418
aI136993976
aS'+'
asS'RCL1'
p1330
(lp1331
I4792869
aI4861064
aS'+'
asS'FAM221B'
p1332
(lp1333
I35816391
aI35828747
aS'-'
asS'RALGAPA1P1'
p1334
(lp1335
I105520128
aI105526359
aS'+'
asS'SMIM27'
p1336
(lp1337
I32552329
aI32567005
aS'+'
asS'BRINP1'
p1338
(lp1339
I119166630
aI119369467
aS'-'
asS'AL591644.1'
p1340
(lp1341
I1977784
aI1978547
aS'-'
asS'C9orf172'
p1342
(lp1343
I136844415
aI136848801
aS'+'
asS'NIPSNAP3A'
p1344
(lp1345
I104747688
aI104760122
aS'+'
asS'NIPSNAP3B'
p1346
(lp1347
I104764157
aI104777457
aS'+'
asS'OR13C1P'
p1348
(lp1349
I104656754
aI104657716
aS'-'
asS'TLR4'
p1350
(lp1351
I117704372
aI117716871
aS'+'
asS'AL450263.2'
p1352
(lp1353
I127300093
aI127300982
aS'-'
asS'AL589823.1'
p1354
(lp1355
I103065416
aI103065598
aS'+'
asS'PPP1R26'
p1356
(lp1357
I135479079
aI135488893
aS'+'
asS'CLTA'
p1358
(lp1359
I36190931
aI36304781
aS'+'
asS'GLIPR2'
p1360
(lp1361
I36136536
aI36163913
aS'+'
asS'HAUS6'
p1362
(lp1363
I19053143
aI19103119
aS'-'
asS'MSANTD3-TMEFF1'
p1364
(lp1365
I100442271
aI100577636
aS'+'
asS'NR5A1'
p1366
(lp1367
I124481237
aI124507430
aS'-'
asS'ANKRD18B'
p1368
(lp1369
I33524394
aI33573001
aS'+'
asS'TEX48'
p1370
(lp1371
I114666434
aI114682066
aS'-'
asS'MTND6P5'
p1372
(lp1373
I5091093
aI5091604
aS'+'
asS'MPDZ'
p1374
(lp1375
I13105704
aI13279590
aS'-'
asS'ISCA1'
p1376
(lp1377
I86264546
aI86282529
aS'-'
asS'MIGA2'
p1378
(lp1379
I129036644
aI129072071
aS'+'
asS'KIAA0368'
p1380
(lp1381
I111360693
aI111484745
aS'-'
asS'PGM5'
p1382
(lp1383
I68356899
aI68531061
aS'+'
asS'LMX1B'
p1384
(lp1385
I126614443
aI126701032
aS'+'
asS'AC007066.1'
p1386
(lp1387
I123029373
aI123029753
aS'-'
asS'OLFML2A'
p1388
(lp1389
I124777271
aI124814878
aS'+'
asS'CDC26'
p1390
(lp1391
I113255835
aI113275549
aS'-'
asS'VAV2'
p1392
(lp1393
I133761894
aI133992604
aS'-'
asS'IFNWP15'
p1394
(lp1395
I21178589
aI21179188
aS'-'
asS'FAM122A'
p1396
(lp1397
I68780034
aI68784608
aS'+'
asS'IFNWP18'
p1398
(lp1399
I21209189
aI21209779
aS'-'
asS'IFNWP19'
p1400
(lp1401
I21455484
aI21456049
aS'+'
asS'BX005195.1'
p1402
(lp1403
I67328207
aI67329404
aS'-'
asS'AL161626.1'
p1404
(lp1405
I76549282
aI76549771
aS'-'
asS'ATP5A1P10'
p1406
(lp1407
I66721158
aI66722760
aS'+'
asS'NR6A1'
p1408
(lp1409
I124517275
aI124771277
aS'-'
asS'AL365396.1'
p1410
(lp1411
I102922574
aI102923244
aS'+'
asS'GBGT1'
p1412
(lp1413
I133152948
aI133163945
aS'-'
asS'OR13E1P'
p1414
(lp1415
I35859062
aI35859983
aS'-'
asS'AL161911.1'
p1416
(lp1417
I120793551
aI120798632
aS'+'
asS'PHYHD1'
p1418
(lp1419
I128920895
aI128942037
aS'+'
asS'CCL19'
p1420
(lp1421
I34689567
aI34691277
aS'-'
asS'FKBP4P8'
p1422
(lp1423
I66744561
aI66745929
aS'-'
asS'RPS26P3'
p1424
(lp1425
I9090898
aI9091245
aS'+'
asS'FKBP4P2'
p1426
(lp1427
I39631046
aI39632416
aS'+'
asS'TBC1D13'
p1428
(lp1429
I128787204
aI128810432
aS'+'
asS'TOR4A'
p1430
(lp1431
I137277749
aI137282641
aS'+'
asS'FKBP4P6'
p1432
(lp1433
I42384805
aI42386136
aS'+'
asS'FKBP4P7'
p1434
(lp1435
I62710036
aI62711398
aS'-'
asS'AL512646.1'
p1436
(lp1437
I104328320
aI104329396
aS'-'
asS'RPL35'
p1438
(lp1439
I124857884
aI124861961
aS'-'
asS'GLULP4'
p1440
(lp1441
I34917175
aI34918296
aS'+'
asS'AL445187.1'
p1442
(lp1443
I112581779
aI112582590
aS'-'
asS'IKBKAP'
p1444
(lp1445
I108867517
aI108934116
aS'-'
asS'SLC4A1APP1'
p1446
(lp1447
I30558880
aI30559481
aS'-'
asS'AL157938.1'
p1448
(lp1449
I131240687
aI131241724
aS'+'
asS'BX664608.1'
p1450
(lp1451
I66879454
aI66879940
aS'-'
asS'GNA14'
p1452
(lp1453
I77423079
aI77648307
aS'-'
asS'AL671309.1'
p1454
(lp1455
I71804283
aI71804826
aS'+'
asS'C9orf66'
p1456
(lp1457
I212824
aI215741
aS'-'
asS'C9orf64'
p1458
(lp1459
I83938314
aI83956986
aS'-'
asS'AL162231.3'
p1460
(lp1461
I34646645
aI34657113
aS'+'
asS'AL162231.1'
p1462
(lp1463
I34664163
aI34666049
aS'-'
asS'AL669942.2'
p1464
(lp1465
I66042646
aI66043342
aS'+'
asS'DDX58'
p1466
(lp1467
I32455705
aI32526324
aS'-'
asS'AL590399.4'
p1468
(lp1469
I62266319
aI62266919
aS'+'
asS'FOXD4L5'
p1470
(lp1471
I65282101
aI65285209
aS'-'
asS'AL590399.6'
p1472
(lp1473
I62357834
aI62358140
aS'-'
asS'AL590399.2'
p1474
(lp1475
I62395370
aI62395678
aS'-'
asS'FOXD4L3'
p1476
(lp1477
I68302867
aI68304905
aS'+'
asS'IFNA11P'
p1478
(lp1479
I21398614
aI21399139
aS'-'
asS'ZBTB43'
p1480
(lp1481
I126805006
aI126838210
aS'+'
asS'SDR42E1P1'
p1482
(lp1483
I39651901
aI39652377
aS'-'
asS'PPP3R2'
p1484
(lp1485
I101591615
aI101595001
aS'-'
asS'ZDHHC12'
p1486
(lp1487
I128720870
aI128724123
aS'-'
asS'RPSAP75'
p1488
(lp1489
I74804473
aI74804773
aS'+'
asS'RPSAP76'
p1490
(lp1491
I125194649
aI125195821
aS'-'
asS'PCSK5'
p1492
(lp1493
I75890644
aI76362339
aS'+'
asS'ANP32B'
p1494
(lp1495
I97983361
aI98015943
aS'+'
asS'LSM1P1'
p1496
(lp1497
I16775573
aI16775845
aS'-'
asS'UBAC1'
p1498
(lp1499
I135932969
aI135961380
aS'-'
asS'SEMA4D'
p1500
(lp1501
I89360787
aI89498038
aS'-'
asS'AL441963.1'
p1502
(lp1503
I14204248
aI14205039
aS'+'
asS'NTNG2'
p1504
(lp1505
I132161947
aI132244534
aS'+'
asS'AL161909.1'
p1506
(lp1507
I19200335
aI19201046
aS'-'
asS'TRBV26OR9-2'
p1508
(lp1509
I33695767
aI33696059
aS'+'
asS'MRPL50'
p1510
(lp1511
I101387633
aI101398614
aS'-'
asS'SOCS5P2'
p1512
(lp1513
I135447446
aI135450154
aS'+'
asS'PAPPA'
p1514
(lp1515
I116153804
aI116402322
aS'+'
asS'FTH1P12'
p1516
(lp1517
I15527133
aI15527683
aS'-'
asS'GALNT12'
p1518
(lp1519
I98807699
aI98850081
aS'+'
asS'RPSAP9'
p1520
(lp1521
I76398699
aI76399586
aS'+'
asS'AC068050.1'
p1522
(lp1523
I108040213
aI108040592
aS'+'
asS'COL15A1'
p1524
(lp1525
I98943639
aI99070792
aS'+'
asS'STRBP'
p1526
(lp1527
I123124709
aI123268564
aS'-'
asS'AL445584.1'
p1528
(lp1529
I42196333
aI42196662
aS'-'
asS'AL445584.3'
p1530
(lp1531
I42213841
aI42213918
aS'-'
asS'LYPLA2P3'
p1532
(lp1533
I76970322
aI76971028
aS'+'
asS'ANGPTL2'
p1534
(lp1535
I127087332
aI127122883
aS'-'
asS'AKAP8P1'
p1536
(lp1537
I11011748
aI11013096
aS'+'
asS'KIAA1161'
p1538
(lp1539
I34366670
aI34376853
aS'-'
asS'CEP78'
p1540
(lp1541
I78236062
aI78279690
aS'+'
asS'TUBB8P1'
p1542
(lp1543
I21811621
aI21812347
aS'-'
asS'ARPC5L'
p1544
(lp1545
I124862130
aI124877733
aS'+'
asS'ELAVL2'
p1546
(lp1547
I23690107
aI23826065
aS'-'
asS'QSOX2'
p1548
(lp1549
I136206333
aI136245841
aS'-'
asS'ZYG11AP1'
p1550
(lp1551
I102611162
aI102612155
aS'-'
asS'AL592221.1'
p1552
(lp1553
I78589158
aI78589539
aS'+'
asS'AL591438.2'
p1554
(lp1555
I63703065
aI63703755
aS'+'
asS'TSTD2'
p1556
(lp1557
I97600083
aI97633575
aS'-'
asS'BX664725.1'
p1558
(lp1559
I62444256
aI62444634
aS'-'
asS'DNAI1'
p1560
(lp1561
I34458752
aI34520988
aS'+'
asS'RPL7A'
p1562
(lp1563
I133348214
aI133351426
aS'+'
asS'AL592227.1'
p1564
(lp1565
I11618496
aI11618621
aS'-'
asS'AL138752.1'
p1566
(lp1567
I37836044
aI37836394
aS'+'
asS'AL138752.2'
p1568
(lp1569
I37588413
aI38068687
aS'-'
asS'NFIL3'
p1570
(lp1571
I91409045
aI91423862
aS'-'
asS'AL358976.1'
p1572
(lp1573
I1011085
aI1011799
aS'+'
asS'ZNF510'
p1574
(lp1575
I96755865
aI96778056
aS'-'
asS'AL137072.1'
p1576
(lp1577
I100120435
aI100120900
aS'-'
asS'AL669983.1'
p1578
(lp1579
I108626833
aI108627150
aS'+'
asS'RPL10P3'
p1580
(lp1581
I117180628
aI117181095
aS'-'
asS'PSIP1'
p1582
(lp1583
I15464066
aI15511019
aS'-'
asS'KRT8P11'
p1584
(lp1585
I99305176
aI99306611
aS'+'
asS'AL354718.3'
p1586
(lp1587
I41341000
aI41342041
aS'-'
asS'AL354718.1'
p1588
(lp1589
I41479960
aI41480548
aS'+'
asS'FO082796.1'
p1590
(lp1591
I138286248
aI138286430
aS'+'
asS'CCDC180'
p1592
(lp1593
I97307659
aI97376933
aS'+'
asS'CCDC183'
p1594
(lp1595
I136796350
aI136807741
aS'+'
asS'CCDC187'
p1596
(lp1597
I136249971
aI136304099
aS'-'
asS'TSC1'
p1598
(lp1599
I132891348
aI132944621
aS'-'
asS'STK33P1'
p1600
(lp1601
I85492579
aI85494094
aS'+'
asS'SLC25A51'
p1602
(lp1603
I37879400
aI37904353
aS'-'
asS'SMC2'
p1604
(lp1605
I104094260
aI104141409
aS'+'
asS'SMC5'
p1606
(lp1607
I70258962
aI70354888
aS'+'
asS'MTND3P4'
p1608
(lp1609
I101793454
aI101793756
aS'-'
asS'GARNL3'
p1610
(lp1611
I127263662
aI127393547
aS'+'
asS'GPS2P1'
p1612
(lp1613
I2875442
aI2876427
aS'-'
asS'APBA1'
p1614
(lp1615
I69427530
aI69672306
aS'-'
asS'NAA35'
p1616
(lp1617
I85941146
aI86022298
aS'+'
asS'RPS10P3'
p1618
(lp1619
I88016300
aI88016793
aS'+'
asS'IFNA21'
p1620
(lp1621
I21165637
aI21166660
aS'-'
asS'AL353813.1'
p1622
(lp1623
I79726069
aI79726321
aS'+'
asS'SPATA31E1'
p1624
(lp1625
I87882826
aI87888899
aS'+'
asS'IFNK'
p1626
(lp1627
I27524314
aI27526498
aS'+'
asS'AL353752.1'
p1628
(lp1629
I87423634
aI87423893
aS'+'
asS'ACER2'
p1630
(lp1631
I19409059
aI19452020
aS'+'
asS'RPS29P17'
p1632
(lp1633
I35592786
aI35592951
aS'+'
asS'FRG1HP'
p1634
(lp1635
I40992426
aI41218410
aS'+'
asS'AL627223.1'
p1636
(lp1637
I125372325
aI125372766
aS'-'
asS'CBWD6'
p1638
(lp1639
I41131679
aI41199261
aS'-'
asS'CBWD5'
p1640
(lp1641
I65675799
aI65734041
aS'+'
asS'CBWD3'
p1642
(lp1643
I68232003
aI68299644
aS'+'
asS'CBWD1'
p1644
(lp1645
I121041
aI179147
aS'-'
asS'BX005040.2'
p1646
(lp1647
I61202718
aI61203087
aS'-'
asS'MT1P1'
p1648
(lp1649
I95413267
aI95413449
aS'-'
asS'IL33'
p1650
(lp1651
I6215786
aI6257982
aS'+'
asS'CA9'
p1652
(lp1653
I35673856
aI35681159
aS'+'
asS'BNC2'
p1654
(lp1655
I16409503
aI16870706
aS'-'
asS'AL590664.1'
p1656
(lp1657
I76419934
aI76420631
aS'+'
asS'FUT7'
p1658
(lp1659
I137030174
aI137033010
aS'-'
asS'OGN'
p1660
(lp1661
I92383967
aI92404613
aS'-'
asS'IFNWP2'
p1662
(lp1663
I21420234
aI21420813
aS'+'
asS'YRDCP1'
p1664
(lp1665
I94432631
aI94433273
aS'-'
asS'YRDCP2'
p1666
(lp1667
I96954820
aI96955461
aS'+'
asS'C9orf92'
p1668
(lp1669
I16203935
aI16276313
aS'-'
asS'IFNWP4'
p1670
(lp1671
I21106543
aI21106836
aS'+'
asS'IFNWP5'
p1672
(lp1673
I21231266
aI21231853
aS'-'
asS'TUSC1'
p1674
(lp1675
I25676389
aI25678440
aS'-'
asS'ZFAND6P1'
p1676
(lp1677
I35449748
aI35450352
aS'+'
asS'AL353684.1'
p1678
(lp1679
I29317833
aI29318952
aS'+'
asS'IZUMO3'
p1680
(lp1681
I24542952
aI24545881
aS'-'
asS'USP20'
p1682
(lp1683
I129835446
aI129881838
aS'+'
asS'GNG10'
p1684
(lp1685
I111661335
aI111670246
aS'+'
asS'RPL23AP57'
p1686
(lp1687
I6639139
aI6639604
aS'+'
asS'TRBV23OR9-2'
p1688
(lp1689
I33638035
aI33638494
aS'+'
asS'RNF208'
p1690
(lp1691
I137220247
aI137221581
aS'-'
asS'KHSRPP1'
p1692
(lp1693
I21695176
aI21696943
aS'+'
asS'PA2G4P6'
p1694
(lp1695
I89449558
aI89450754
aS'+'
asS'ARF4P1'
p1696
(lp1697
I134078904
aI134079444
aS'+'
asS'AL136317.3'
p1698
(lp1699
I66029264
aI66030169
aS'+'
asS'AL356133.1'
p1700
(lp1701
I26880178
aI26880549
aS'-'
asS'CENPP'
p1702
(lp1703
I92325484
aI92620533
aS'+'
asS'RPL36AP35'
p1704
(lp1705
I108821697
aI108822004
aS'+'
asS'RPL36AP33'
p1706
(lp1707
I35507564
aI35507873
aS'+'
asS'AL354751.2'
p1708
(lp1709
I92150382
aI92157445
aS'-'
asS'AL354751.3'
p1710
(lp1711
I92104425
aI92105451
aS'+'
asS'MRPL41'
p1712
(lp1713
I137551199
aI137552555
aS'+'
asS'AL354751.1'
p1714
(lp1715
I92132398
aI92138629
aS'+'
asS'AL355987.5'
p1716
(lp1717
I136728953
aI136729855
aS'-'
asS'AL355987.3'
p1718
(lp1719
I136791379
aI136800595
aS'+'
asS'AL355987.1'
p1720
(lp1721
I136738167
aI136748453
aS'-'
asS'GAPDHP26'
p1722
(lp1723
I100975668
aI100976682
aS'+'
asS'DMRT1'
p1724
(lp1725
I841690
aI969090
aS'+'
asS'DMRT2'
p1726
(lp1727
I1049858
aI1057064
aS'+'
asS'DMRT3'
p1728
(lp1729
I976964
aI991731
aS'+'
asS'CBWD4P'
p1730
(lp1731
I65287914
aI65323015
aS'-'
asS'NMRK1'
p1732
(lp1733
I75060573
aI75088190
aS'-'
asS'NEK6'
p1734
(lp1735
I124257606
aI124353307
aS'+'
asS'ZNF169'
p1736
(lp1737
I94259311
aI94301454
aS'+'
asS'AL773524.1'
p1738
(lp1739
I64498517
aI64498745
aS'+'
asS'AL807761.2'
p1740
(lp1741
I107116829
aI107117557
aS'+'
asS'AL807761.1'
p1742
(lp1743
I107115784
aI107115954
aS'+'
asS'AL583805.1'
p1744
(lp1745
I8713311
aI8713841
aS'+'
asS'FOCAD'
p1746
(lp1747
I20658309
aI20995955
aS'+'
asS'FAM129B'
p1748
(lp1749
I127505339
aI127578989
aS'-'
asS'RPSAP49'
p1750
(lp1751
I88324454
aI88325339
aS'+'
asS'OR1H1P'
p1752
(lp1753
I122607864
aI122608800
aS'+'
asS'ZNF189'
p1754
(lp1755
I101398873
aI101410660
aS'+'
asS'ASTN2'
p1756
(lp1757
I116425228
aI117415070
aS'-'
asS'SHB'
p1758
(lp1759
I37919134
aI38069211
aS'-'
asS'AL591379.1'
p1760
(lp1761
I63111255
aI63127100
aS'-'
asS'AL591379.2'
p1762
(lp1763
I63025597
aI63025993
aS'+'
asS'HACD4'
p1764
(lp1765
I20999515
aI21031636
aS'-'
asS'IFNNP1'
p1766
(lp1767
I21058771
aI21059323
aS'-'
asS'OR1J4'
p1768
(lp1769
I122519141
aI122520082
aS'+'
asS'OR1J2'
p1770
(lp1771
I122510802
aI122511743
aS'+'
asS'OR1J1'
p1772
(lp1773
I122476958
aI122477926
aS'-'
asS'AL592293.1'
p1774
(lp1775
I14993312
aI15019729
aS'+'
asS'AL592293.2'
p1776
(lp1777
I15055057
aI15056052
aS'+'
asS'PGAM1P2'
p1778
(lp1779
I35943210
aI35943934
aS'-'
asS'FOXE1'
p1780
(lp1781
I97853254
aI97856715
aS'+'
asS'AL161788.1'
p1782
(lp1783
I10777357
aI10777525
aS'+'
asS'CERCAM'
p1784
(lp1785
I128411766
aI128437351
aS'+'
asS'NOP56P2'
p1786
(lp1787
I23681894
aI23682662
aS'+'
asS'YBX1P10'
p1788
(lp1789
I35971344
aI35972318
aS'-'
asS'SYF2P2'
p1790
(lp1791
I35010703
aI35011285
aS'+'
asS'RALGDS'
p1792
(lp1793
I133097720
aI133149334
aS'-'
asS'FGD3'
p1794
(lp1795
I92947451
aI93036236
aS'+'
asS'TMX2P1'
p1796
(lp1797
I37885683
aI37886390
aS'+'
asS'FXNP2'
p1798
(lp1799
I124968294
aI124968840
aS'-'
asS'MTATP6P11'
p1800
(lp1801
I5099560
aI5100229
aS'+'
asS'TMEM2'
p1802
(lp1803
I71683366
aI71768884
aS'-'
asS'FOXB2'
p1804
(lp1805
I77019655
aI77020953
aS'+'
asS'UHRF2'
p1806
(lp1807
I6413151
aI6507054
aS'+'
asS'RANBP6'
p1808
(lp1809
I6011043
aI6015618
aS'-'
asS'SLC25A6P2'
p1810
(lp1811
I31253901
aI31254777
aS'+'
asS'PIP5K1B'
p1812
(lp1813
I68705414
aI69009174
aS'+'
asS'RBM17P2'
p1814
(lp1815
I67211663
aI67213067
aS'-'
asS'RBM17P3'
p1816
(lp1817
I41974362
aI41975768
aS'+'
asS'RBM17P1'
p1818
(lp1819
I39154075
aI39155479
aS'+'
asS'AL356000.1'
p1820
(lp1821
I19026892
aI19028129
aS'+'
asS'PHF19'
p1822
(lp1823
I120855652
aI120894896
aS'-'
asS'PRSS3'
p1824
(lp1825
I33750466
aI33799230
aS'+'
asS'MEGF9'
p1826
(lp1827
I120600813
aI120714470
aS'-'
asS'YBX1P6'
p1828
(lp1829
I109532830
aI109534332
aS'-'
asS'CLIC3'
p1830
(lp1831
I136994635
aI136996803
aS'-'
asS'PLPP7'
p1832
(lp1833
I131289694
aI131309262
aS'+'
asS'AL772337.4'
p1834
(lp1835
I87799501
aI87821803
aS'-'
asS'RPL36AP6'
p1836
(lp1837
I107834509
aI107834829
aS'-'
asS'CARD19'
p1838
(lp1839
I93096218
aI93113282
aS'+'
asS'ZBTB6'
p1840
(lp1841
I122908056
aI122913330
aS'-'
asS'ZBTB5'
p1842
(lp1843
I37438114
aI37465399
aS'-'
asS'SSNA1'
p1844
(lp1845
I137188647
aI137190370
aS'+'
asS'NR4A3'
p1846
(lp1847
I99821855
aI99866891
aS'+'
asS'SPATA31D4'
p1848
(lp1849
I81928514
aI81934948
aS'+'
asS'SPATA31D3'
p1850
(lp1851
I81943586
aI81950038
aS'+'
asS'AL138895.2'
p1852
(lp1853
I114491564
aI114491741
aS'+'
asS'PDCD1LG2'
p1854
(lp1855
I5510570
aI5571254
aS'+'
asS'AL354941.1'
p1856
(lp1857
I3364329
aI3364792
aS'-'
asS'NDUFB6'
p1858
(lp1859
I32552999
aI32573162
aS'-'
asS'DDX10P2'
p1860
(lp1861
I82086155
aI82088768
aS'-'
asS'EQTN'
p1862
(lp1863
I27284659
aI27297139
aS'-'
asS'MTND1P11'
p1864
(lp1865
I5094139
aI5095014
aS'+'
asS'C9orf84'
p1866
(lp1867
I111686573
aI111783493
aS'-'
asS'C9orf85'
p1868
(lp1869
I71911661
aI71986054
aS'+'
asS'AL354761.1'
p1870
(lp1871
I135588002
aI135591975
aS'+'
asS'AQP7'
p1872
(lp1873
I33384767
aI33402514
aS'-'
asS'AQP3'
p1874
(lp1875
I33441154
aI33447611
aS'-'
asS'WNK2'
p1876
(lp1877
I93184930
aI93320572
aS'+'
asS'SNX18P5'
p1878
(lp1879
I42923277
aI42924144
aS'+'
asS'SPATA31B1P'
p1880
(lp1881
I82057647
aI82063682
aS'-'
asS'ATP5J2P3'
p1882
(lp1883
I77040416
aI77040673
aS'+'
asS'CLIC4P1'
p1884
(lp1885
I22747700
aI22748234
aS'+'
asS'MORN5'
p1886
(lp1887
I122159908
aI122200088
aS'+'
asS'MRRF'
p1888
(lp1889
I122264656
aI122331343
aS'+'
asS'KIF24'
p1890
(lp1891
I34252381
aI34311371
aS'-'
asS'KIF27'
p1892
(lp1893
I83836698
aI83921465
aS'-'
asS'RNF183'
p1894
(lp1895
I113297454
aI113303271
aS'-'
asS'AL512590.1'
p1896
(lp1897
I97386240
aI97396112
aS'-'
asS'CCL27'
p1898
(lp1899
I34661880
aI34664048
aS'-'
asS'AL512590.2'
p1900
(lp1901
I97276566
aI97295759
aS'+'
asS'ZBTB26'
p1902
(lp1903
I122915566
aI122931500
aS'-'
asS'DOCK8'
p1904
(lp1905
I214865
aI465259
aS'+'
asS'CR769776.2'
p1906
(lp1907
I64462819
aI64463196
aS'+'
asS'CR769776.1'
p1908
(lp1909
I64473040
aI64473826
aS'-'
asS'AL445670.1'
p1910
(lp1911
I97151894
aI97152694
aS'-'
asS'MED22'
p1912
(lp1913
I133338323
aI133347703
aS'-'
asS'MED27'
p1914
(lp1915
I131860107
aI132079908
aS'-'
asS'ACTG1P19'
p1916
(lp1917
I100731240
aI100732355
aS'+'
asS'PCNPP2'
p1918
(lp1919
I88970887
aI88971341
aS'-'
asS'ACTG1P14'
p1920
(lp1921
I6834456
aI6835577
aS'+'
asS'DNAJC25-GNG10'
p1922
(lp1923
I111631386
aI111670229
aS'+'
asS'RALGPS1'
p1924
(lp1925
I126914774
aI127223164
aS'+'
asS'PTPDC1'
p1926
(lp1927
I94030794
aI94109856
aS'+'
asS'ARHGEF39'
p1928
(lp1929
I35658875
aI35675866
aS'-'
asS'PRELID3BP11'
p1930
(lp1931
I6734598
aI6735076
aS'-'
asS'LAMC3'
p1932
(lp1933
I131009082
aI131093059
aS'+'
asS'FAM240B'
p1934
(lp1935
I38694263
aI38720428
aS'-'
asS'AL353151.1'
p1936
(lp1937
I4781475
aI4782078
aS'-'
asS'AL590491.5'
p1938
(lp1939
I60944555
aI60944636
aS'-'
asS'AL590491.2'
p1940
(lp1941
I60927098
aI60927491
aS'-'
asS'AL590491.1'
p1942
(lp1943
I60929927
aI60930407
aS'+'
asS'CD274'
p1944
(lp1945
I5450503
aI5470566
aS'+'
asS'IMP3P1'
p1946
(lp1947
I10829752
aI10830308
aS'-'
asS'CDC14B'
p1948
(lp1949
I96490241
aI96619830
aS'-'
asS'MELK'
p1950
(lp1951
I36572862
aI36677683
aS'+'
asS'ATP6V1G1'
p1952
(lp1953
I114587746
aI114598373
aS'+'
asS'SPATA6L'
p1954
(lp1955
I4553386
aI4666508
aS'-'
asS'PHF2'
p1956
(lp1957
I93576407
aI93679587
aS'+'
asS'AL359073.1'
p1958
(lp1959
I112362714
aI112363116
aS'+'
asS'MOB3B'
p1960
(lp1961
I27325209
aI27529781
aS'-'
asS'SH3GL2'
p1962
(lp1963
I17579123
aI17797129
aS'+'
asS'TMEM38B'
p1964
(lp1965
I105694544
aI105776612
aS'+'
asS'OR1K1'
p1966
(lp1967
I122800123
aI122801073
aS'+'
asS'BSPRY'
p1968
(lp1969
I113349541
aI113371233
aS'+'
asS'TAL2'
p1970
(lp1971
I105662457
aI105663112
aS'+'
asS'FOXD4'
p1972
(lp1973
I116231
aI118204
aS'-'
asS'GPR107'
p1974
(lp1975
I130053426
aI130140164
aS'+'
asS'FRG1KP'
p1976
(lp1977
I65646982
aI65652679
aS'-'
asS'MYO5BP3'
p1978
(lp1979
I63761546
aI63762824
aS'-'
asS'MYO5BP2'
p1980
(lp1981
I62857208
aI62858484
aS'+'
asS'MYO5BP1'
p1982
(lp1983
I41292887
aI41294125
aS'+'
asS'RUSC2'
p1984
(lp1985
I35490127
aI35561892
aS'+'
asS'AL591471.1'
p1986
(lp1987
I40358454
aI40358682
aS'+'
asS'SLC35D2'
p1988
(lp1989
I96320707
aI96383710
aS'-'
asS'SNRPCP1'
p1990
(lp1991
I32676063
aI32676520
aS'-'
asS'SIGMAR1'
p1992
(lp1993
I34634722
aI34637771
aS'-'
asS'GPSM1'
p1994
(lp1995
I136327476
aI136359605
aS'+'
asS'MLLT3'
p1996
(lp1997
I20341665
aI20622543
aS'-'
asS'AL773545.4'
p1998
(lp1999
I40167392
aI40171329
aS'+'
asS'CNTNAP3B'
p2000
(lp2001
I41890314
aI42129250
aS'-'
asS'AL773545.2'
p2002
(lp2003
I40131747
aI40132218
aS'+'
asS'AL773545.3'
p2004
(lp2005
I40105822
aI40106527
aS'+'
asS'ZCCHC7'
p2006
(lp2007
I37120539
aI37358149
aS'+'
asS'ZCCHC6'
p2008
(lp2009
I86287733
aI86354454
aS'-'
asS'AL158827.1'
p2010
(lp2011
I96918928
aI96919318
aS'+'
asS'AL158827.2'
p2012
(lp2013
I96910076
aI96910405
aS'+'
asS'AL355433.1'
p2014
(lp2015
I27210327
aI27210626
aS'+'
asS'AL158047.1'
p2016
(lp2017
I82130752
aI82131632
aS'+'
asS'ZNF367'
p2018
(lp2019
I96385941
aI96418329
aS'-'
asS'AL158825.1'
p2020
(lp2021
I74935176
aI74935696
aS'+'
asS'IPPK'
p2022
(lp2023
I92613184
aI92670265
aS'-'
asS'ARID3C'
p2024
(lp2025
I34621379
aI34628107
aS'-'
asS'FAM166A'
p2026
(lp2027
I137243584
aI137247770
aS'-'
asS'FAM166B'
p2028
(lp2029
I35561832
aI35563899
aS'-'
asS'RAB28P2'
p2030
(lp2031
I62606797
aI62607748
aS'-'
asS'RAB28P3'
p2032
(lp2033
I42492663
aI42493570
aS'+'
asS'RAB28P1'
p2034
(lp2035
I39734670
aI39735628
aS'+'
asS'RAB28P4'
p2036
(lp2037
I66641314
aI66642277
aS'-'
asS'FBP2P1'
p2038
(lp2039
I87810642
aI87837225
aS'-'
asS'FAM71BP1'
p2040
(lp2041
I25937912
aI25938434
aS'+'
asS'DOLPP1'
p2042
(lp2043
I129081100
aI129090435
aS'+'
asS'AL353637.1'
p2044
(lp2045
I76992099
aI76993108
aS'+'
asS'BX088651.3'
p2046
(lp2047
I42636788
aI42637139
aS'-'
asS'BX088651.1'
p2048
(lp2049
I42568865
aI42569315
aS'+'
asS'FRG1JP'
p2050
(lp2051
I63832127
aI63859641
aS'-'
asS'IFNA12P'
p2052
(lp2053
I21403081
aI21403651
aS'+'
asS'AL390240.1'
p2054
(lp2055
I114774737
aI114775120
aS'-'
asS'ENTPD2'
p2056
(lp2057
I137048098
aI137054045
aS'-'
asS'SPAG8'
p2058
(lp2059
I35808045
aI35812272
aS'-'
asS'PRRC2B'
p2060
(lp2061
I131394093
aI131500197
aS'+'
asS'SURF6'
p2062
(lp2063
I133328774
aI133336398
aS'-'
asS'ENTPD8'
p2064
(lp2065
I137434364
aI137441816
aS'-'
asS'SNAPC3'
p2066
(lp2067
I15422734
aI15465953
aS'+'
asS'CR848007.1'
p2068
(lp2069
I42901238
aI42920095
aS'+'
asS'CR848007.2'
p2070
(lp2071
I42959280
aI42960066
aS'-'
asS'CR848007.3'
p2072
(lp2073
I42921443
aI42921670
aS'-'
asS'SNAPC4'
p2074
(lp2075
I136375577
aI136398797
aS'-'
asS'GPR21'
p2076
(lp2077
I123034527
aI123035696
aS'+'
asS'AL353621.2'
p2078
(lp2079
I101449801
aI101449933
aS'+'
asS'PIGUP1'
p2080
(lp2081
I70916997
aI70917501
aS'-'
asS'KLHL9'
p2082
(lp2083
I21329671
aI21335380
aS'-'
asS'AL365204.3'
p2084
(lp2085
I23955760
aI23956444
aS'+'
asS'EXD3'
p2086
(lp2087
I137306905
aI137423262
aS'-'
asS'SAXO1'
p2088
(lp2089
I18927662
aI19049354
aS'-'
asS'BEND3P2'
p2090
(lp2091
I92171241
aI92173494
aS'+'
asS'AL159169.1'
p2092
(lp2093
I14531916
aI14532042
aS'-'
asS'MAMDC4'
p2094
(lp2095
I136850943
aI136860799
aS'+'
asS'MAMDC2'
p2096
(lp2097
I70043581
aI70226970
aS'+'
asS'AL353729.1'
p2098
(lp2099
I39173794
aI39174513
aS'-'
asS'DFFBP1'
p2100
(lp2101
I32566148
aI32567126
aS'-'
asS'UBAP2'
p2102
(lp2103
I33921693
aI34048949
aS'-'
asS'UBAP1'
p2104
(lp2105
I34179013
aI34252523
aS'+'
asS'SOHLH1'
p2106
(lp2107
I135693407
aI135699528
aS'-'
asS'NINJ1'
p2108
(lp2109
I93121489
aI93134288
aS'-'
asS'GBA2'
p2110
(lp2111
I35736866
aI35749228
aS'-'
asS'RNF224'
p2112
(lp2113
I137227271
aI137229638
aS'+'
asS'ZBTB34'
p2114
(lp2115
I126860665
aI126885878
aS'+'
asS'ODF2'
p2116
(lp2117
I128456006
aI128501292
aS'+'
asS'OR7E31P'
p2118
(lp2119
I90216039
aI90216924
aS'+'
asS'ZNF658B'
p2120
(lp2121
I39444304
aI39508885
aS'-'
asS'TMEFF1'
p2122
(lp2123
I100473113
aI100577636
aS'+'
asS'CYP1D1P'
p2124
(lp2125
I73042745
aI73056528
aS'+'
asS'TUBBP5'
p2126
(lp2127
I138150113
aI138176508
aS'+'
asS'HNRNPA1P15'
p2128
(lp2129
I125595669
aI125596628
aS'+'
asS'HNRNPA1P14'
p2130
(lp2131
I88410529
aI88411463
aS'-'
asS'CHCHD4P2'
p2132
(lp2133
I108097432
aI108097851
aS'-'
asS'FNBP1'
p2134
(lp2135
I129887187
aI130043194
aS'-'
asS'SNX18P9'
p2136
(lp2137
I64439346
aI64440180
aS'+'
asS'SPATA31D1'
p2138
(lp2139
I81988772
aI81995256
aS'+'
asS'MTND3P23'
p2140
(lp2141
I92110168
aI92110514
aS'+'
asS'AL137022.1'
p2142
(lp2143
I21638285
aI21638676
aS'+'
asS'RPS20P25'
p2144
(lp2145
I81410279
aI81410630
aS'+'
asS'RPS20P24'
p2146
(lp2147
I72655832
aI72656192
aS'-'
asS'AL589843.2'
p2148
(lp2149
I96725890
aI96727243
aS'+'
asS'ARL2BPP7'
p2150
(lp2151
I102055252
aI102055741
aS'-'
asS'AL161631.1'
p2152
(lp2153
I101125436
aI101125921
aS'-'
asS'MTND2P8'
p2154
(lp2155
I78741720
aI78742744
aS'-'
asS'MTND2P9'
p2156
(lp2157
I80565032
aI80565962
aS'-'
asS'UNC13B'
p2158
(lp2159
I35161992
aI35405334
aS'+'
asS'BX088702.1'
p2160
(lp2161
I60546920
aI60547154
aS'-'
asS'CNTLN'
p2162
(lp2163
I17134982
aI17503923
aS'+'
asS'STOML2'
p2164
(lp2165
I35099776
aI35103195
aS'-'
asS'GDA'
p2166
(lp2167
I72114595
aI72252223
aS'+'
asS'GLT6D1'
p2168
(lp2169
I135623656
aI135639540
aS'-'
asS'DNM1'
p2170
(lp2171
I128203352
aI128255244
aS'+'
asS'AL391219.1'
p2172
(lp2173
I92006062
aI92006544
aS'+'
asS'DCAF12'
p2174
(lp2175
I34086387
aI34126773
aS'-'
asS'CNTNAP3'
p2176
(lp2177
I39072767
aI39288303
aS'-'
asS'DCAF10'
p2178
(lp2179
I37800554
aI37867666
aS'+'
asS'PDCL'
p2180
(lp2181
I122798389
aI122826686
aS'-'
asS'TXN'
p2182
(lp2183
I110243811
aI110256640
aS'-'
asS'UBQLN1'
p2184
(lp2185
I83659963
aI83708203
aS'-'
asS'SVEP1'
p2186
(lp2187
I110365251
aI110579880
aS'-'
asS'AL158207.1'
p2188
(lp2189
I129883693
aI129884170
aS'-'
asS'TRMT10B'
p2190
(lp2191
I37753803
aI37778965
aS'+'
asS'DAPK1'
p2192
(lp2193
I87497228
aI87708631
aS'+'
asS'RRAGA'
p2194
(lp2195
I19049395
aI19050983
aS'+'
asS'CR769775.3'
p2196
(lp2197
I61944232
aI61945136
aS'-'
asS'MTCO1P11'
p2198
(lp2199
I5096666
aI5098193
aS'+'
asS'TNC'
p2200
(lp2201
I115019578
aI115118257
aS'-'
asS'AL512604.1'
p2202
(lp2203
I37205112
aI37205368
aS'-'
asS'PRDX1P1'
p2204
(lp2205
I12972843
aI12973438
aS'-'
asS'KCNT1'
p2206
(lp2207
I135702185
aI135795508
aS'+'
asS'PTPRD'
p2208
(lp2209
I8528152
aI10612723
aS'-'
asS'RPS15AP27'
p2210
(lp2211
I107963703
aI107964045
aS'-'
asS'AL672142.1'
p2212
(lp2213
I128941478
aI128957021
aS'+'
asS'OSTCP8'
p2214
(lp2215
I33968071
aI33968518
aS'-'
asS'GAPVD1'
p2216
(lp2217
I125261832
aI125367207
aS'+'
asS'ANXA2P2'
p2218
(lp2219
I33624274
aI33625293
aS'+'
asS'IFNA13'
p2220
(lp2221
I21367424
aI21368962
aS'-'
asS'IFNA10'
p2222
(lp2223
I21206181
aI21207143
aS'-'
asS'IFNA17'
p2224
(lp2225
I21227243
aI21228222
aS'-'
asS'IFNA16'
p2226
(lp2227
I21216373
aI21217311
aS'-'
asS'IFNA14'
p2228
(lp2229
I21239002
aI21239991
aS'-'
asS'TRBV25OR9-2'
p2230
(lp2231
I33662166
aI33662663
aS'+'
asS'WDR5'
p2232
(lp2233
I134136088
aI134159968
aS'+'
asS'ANKRD18CP'
p2234
(lp2235
I97156570
aI97221235
aS'-'
asS'RPL35AP22'
p2236
(lp2237
I117685254
aI117685588
aS'-'
asS'RPL35AP21'
p2238
(lp2239
I71589601
aI71589933
aS'+'
asS'ANKRD18A'
p2240
(lp2241
I38571358
aI38620660
aS'-'
asS'AK3'
p2242
(lp2243
I4709559
aI4741799
aS'-'
asS'AL445665.1'
p2244
(lp2245
I64637845
aI64652556
aS'+'
asS'AK1'
p2246
(lp2247
I127866480
aI127877743
aS'-'
asS'TNFSF15'
p2248
(lp2249
I114784635
aI114806126
aS'-'
asS'DIRAS2'
p2250
(lp2251
I90609832
aI90643105
aS'-'
asS'PUM3'
p2252
(lp2253
I2720469
aI2807830
aS'-'
asS'RC3H2'
p2254
(lp2255
I122847555
aI122905222
aS'-'
asS'SLC25A6P5'
p2256
(lp2257
I105850025
aI105851425
aS'+'
asS'SEPT7P7'
p2258
(lp2259
I98606833
aI98608133
aS'+'
asS'GABBR2'
p2260
(lp2261
I98288082
aI98709197
aS'-'
asS'LINC00032'
p2262
(lp2263
I27245684
aI27282793
aS'-'
asS'SNX30'
p2264
(lp2265
I112750838
aI112874987
aS'+'
asS'BMS1P9'
p2266
(lp2267
I63055641
aI63059217
aS'+'
asS'CDK5RAP2'
p2268
(lp2269
I120388869
aI120580170
aS'-'
asS'AL354710.1'
p2270
(lp2271
I125263845
aI125264090
aS'-'
asS'CIZ1'
p2272
(lp2273
I128166071
aI128204383
aS'-'
asS'AL390882.1'
p2274
(lp2275
I21135598
aI21136350
aS'-'
asS'MLANA'
p2276
(lp2277
I5890802
aI5910606
aS'+'
asS'WDR34'
p2278
(lp2279
I128633661
aI128656787
aS'-'
asS'WDR31'
p2280
(lp2281
I113313222
aI113340282
aS'-'
asS'AL353572.1'
p2282
(lp2283
I88066915
aI88068037
aS'+'
asS'AL353572.2'
p2284
(lp2285
I87944276
aI87945023
aS'-'
asS'AL353572.3'
p2286
(lp2287
I87956214
aI87956883
aS'+'
asS'IL11RA'
p2288
(lp2289
I34650702
aI34661881
aS'+'
asS'TTC39B'
p2290
(lp2291
I15163622
aI15307360
aS'-'
asS'VDAC1P11'
p2292
(lp2293
I94287699
aI94288550
aS'-'
asS'WDR38'
p2294
(lp2295
I124853417
aI124857890
aS'+'
asS'ABHD17B'
p2296
(lp2297
I71862452
aI71910931
aS'-'
asS'NPDC1'
p2298
(lp2299
I137039470
aI137046203
aS'-'
asS'TLE1'
p2300
(lp2301
I81583683
aI81689305
aS'-'
asS'IFNA20P'
p2302
(lp2303
I21321300
aI21321827
aS'+'
asS'FAM206A'
p2304
(lp2305
I108934487
aI108950744
aS'+'
asS'TLE4'
p2306
(lp2307
I79571773
aI79726882
aS'+'
asS'DCTN3'
p2308
(lp2309
I34613545
aI34620523
aS'-'
asS'ASPN'
p2310
(lp2311
I92456205
aI92482506
aS'-'
asS'CHCHD4P3'
p2312
(lp2313
I37434177
aI37434586
aS'+'
asS'BX664727.1'
p2314
(lp2315
I40332995
aI40333460
aS'-'
asS'BX664727.2'
p2316
(lp2317
I40291275
aI40291502
aS'-'
asS'SIT1'
p2318
(lp2319
I35649303
aI35650950
aS'-'
asS'RBM18'
p2320
(lp2321
I122237624
aI122264839
aS'-'
asS'FAM220BP'
p2322
(lp2323
I38527097
aI38527912
aS'+'
asS'RXRA'
p2324
(lp2325
I134326580
aI134437019
aS'+'
asS'TMEM252'
p2326
(lp2327
I68536580
aI68540867
aS'-'
asS'AL354761.2'
p2328
(lp2329
I135604345
aI135616997
aS'+'
asS'RNF20'
p2330
(lp2331
I101533851
aI101563344
aS'+'
asS'EEF1DP2'
p2332
(lp2333
I92836826
aI92837668
aS'-'
asS'ZNF883'
p2334
(lp2335
I112997120
aI113050043
aS'-'
asS'CARM1P1'
p2336
(lp2337
I2907073
aI3053408
aS'-'
asS'TAF1L'
p2338
(lp2339
I32629454
aI32635669
aS'-'
asS'ABCA2'
p2340
(lp2341
I137007234
aI137028922
aS'-'
asS'ABCA1'
p2342
(lp2343
I104781002
aI104928237
aS'-'
asS'TMEM8C'
p2344
(lp2345
I133515531
aI133528612
aS'-'
asS'TMEM8B'
p2346
(lp2347
I35814451
aI35847234
aS'+'
asS'PSMD5'
p2348
(lp2349
I120816053
aI120842984
aS'-'
asS'CER1'
p2350
(lp2351
I14719724
aI14722717
aS'-'
asS'OR2S2'
p2352
(lp2353
I35957108
aI35958154
aS'-'
asS'TMEM250'
p2354
(lp2355
I136114581
aI136118863
aS'-'
asS'PGM5P2'
p2356
(lp2357
I41006999
aI41074617
aS'-'
asS'KIAA2026'
p2358
(lp2359
I5919008
aI6007787
aS'-'
asS'PPIAP33'
p2360
(lp2361
I7597823
aI7598377
aS'+'
asS'ASS1P12'
p2362
(lp2363
I32945996
aI32947222
aS'+'
asS'VTI1BP4'
p2364
(lp2365
I128650998
aI128652145
aS'+'
asS'MTND4P14'
p2366
(lp2367
I5107937
aI5109290
aS'+'
asS'MTND4P15'
p2368
(lp2369
I92110865
aI92111897
aS'+'
asS'RBPJP2'
p2370
(lp2371
I66635754
aI66637197
aS'+'
asS'HSD17B3'
p2372
(lp2373
I96235306
aI96302152
aS'-'
asS'RBPJP5'
p2374
(lp2375
I39739747
aI39741193
aS'-'
asS'RBPJP6'
p2376
(lp2377
I42497704
aI42499134
aS'-'
asS'RBPJP7'
p2378
(lp2379
I62601226
aI62602672
aS'+'
asS'KCTD9P3'
p2380
(lp2381
I37477149
aI37478317
aS'+'
asS'DDX11L5'
p2382
(lp2383
I12134
aI13783
aS'+'
asS'ABO'
p2384
(lp2385
I133250401
aI133275201
aS'-'
asS'ST6GALNAC6'
p2386
(lp2387
I127885321
aI127905348
aS'-'
asS'ST6GALNAC4'
p2388
(lp2389
I127907886
aI127917026
aS'-'
asS'CRAT'
p2390
(lp2391
I129094810
aI129110804
aS'-'
asS'ZNF462'
p2392
(lp2393
I106863097
aI107013634
aS'+'
asS'DEC1'
p2394
(lp2395
I115141818
aI115402644
aS'+'
asS'AL161727.1'
p2396
(lp2397
I81488308
aI81488837
aS'+'
asS'AK4P4'
p2398
(lp2399
I5855781
aI5856426
aS'-'
asS'MAN1B1'
p2400
(lp2401
I137086927
aI137109187
aS'+'
asS'REXO4'
p2402
(lp2403
I133406059
aI133418096
aS'-'
asS'RAD23B'
p2404
(lp2405
I107283279
aI107332194
aS'+'
asS'AL359692.1'
p2406
(lp2407
I108836333
aI108836597
aS'+'
asS'SPIN1'
p2408
(lp2409
I88388419
aI88478694
aS'+'
asS'PTAR1'
p2410
(lp2411
I69709522
aI69759941
aS'-'
asS'SUMO2P2'
p2412
(lp2413
I23632106
aI23632360
aS'+'
asS'TESK1'
p2414
(lp2415
I35605305
aI35610032
aS'+'
asS'HSPB1P1'
p2416
(lp2417
I72007881
aI72008136
aS'-'
asS'OR13C6P'
p2418
(lp2419
I35991336
aI35992285
aS'-'
asS'VLDLR'
p2420
(lp2421
I2621834
aI2660053
aS'+'
asS'ALG2'
p2422
(lp2423
I99216426
aI99221942
aS'-'
asS'SPTAN1'
p2424
(lp2425
I128552558
aI128633662
aS'+'
asS'ABL1'
p2426
(lp2427
I130713946
aI130885683
aS'+'
asS'RPL24P8'
p2428
(lp2429
I70217195
aI70217668
aS'+'
asS'WHRN'
p2430
(lp2431
I114402081
aI114504970
aS'-'
asS'AL391987.6'
p2432
(lp2433
I61858710
aI61858908
aS'+'
asS'AL391987.5'
p2434
(lp2435
I61912704
aI61913115
aS'+'
asS'GLE1'
p2436
(lp2437
I128504700
aI128542288
aS'+'
asS'LAGE3P1'
p2438
(lp2439
I33019682
aI33020165
aS'-'
asS'INSL4'
p2440
(lp2441
I5231419
aI5235304
aS'+'
asS'AL161629.2'
p2442
(lp2443
I90108244
aI90108518
aS'+'
asS'INSL6'
p2444
(lp2445
I5131979
aI5164251
aS'-'
asS'VN1R48P'
p2446
(lp2447
I38504447
aI38505482
aS'-'
asS'SAPCD2'
p2448
(lp2449
I137062124
aI137070588
aS'-'
asS'AL353748.1'
p2450
(lp2451
I88484852
aI88485325
aS'-'
asS'AL353748.2'
p2452
(lp2453
I88391362
aI88391832
aS'-'
asS'CFAP157'
p2454
(lp2455
I127706989
aI127714021
aS'+'
asS'AL390838.2'
p2456
(lp2457
I84078584
aI84078857
aS'+'
asS'IFNA5'
p2458
(lp2459
I21304326
aI21305312
aS'-'
asS'FAM78A'
p2460
(lp2461
I131258076
aI131276547
aS'-'
asS'CDCA4P1'
p2462
(lp2463
I14593577
aI14594200
aS'+'
asS'OBP2A'
p2464
(lp2465
I135546139
aI135549969
aS'+'
asS'TPT1P9'
p2466
(lp2467
I118082869
aI118083382
aS'-'
asS'AL929554.1'
p2468
(lp2469
I137168854
aI137171984
aS'-'
asS'CLCN3P1'
p2470
(lp2471
I14987302
aI15146401
aS'-'
asS'AL354861.1'
p2472
(lp2473
I95652912
aI95653266
aS'+'
asS'KIF12'
p2474
(lp2475
I114086126
aI114093917
aS'-'
asS'PRPS1P2'
p2476
(lp2477
I125150653
aI125151589
aS'+'
asS'KRT18P24'
p2478
(lp2479
I79036413
aI79037568
aS'-'
asS'UPF3AP3'
p2480
(lp2481
I99998301
aI99999069
aS'-'
asS'TNFSF8'
p2482
(lp2483
I114893343
aI114930595
aS'-'
asS'FAM220CP'
p2484
(lp2485
I97121659
aI97122489
aS'+'
asS'RAB14'
p2486
(lp2487
I121181499
aI121223014
aS'-'
asS'AL513165.2'
p2488
(lp2489
I37512547
aI37588874
aS'-'
asS'CKS2'
p2490
(lp2491
I89311198
aI89316703
aS'+'
asS'RAB1C'
p2492
(lp2493
I37636688
aI37637293
aS'-'
asS'DAB2IP'
p2494
(lp2495
I121567102
aI121785528
aS'+'
asS'ARMC8P1'
p2496
(lp2497
I38452782
aI38454070
aS'-'
asS'AL354877.1'
p2498
(lp2499
I111802980
aI111803435
aS'+'
asS'COL5A1'
p2500
(lp2501
I134641774
aI134844843
aS'+'
asS'CNN2P4'
p2502
(lp2503
I42972386
aI42973289
aS'-'
asS'CNN2P3'
p2504
(lp2505
I64486164
aI64487069
aS'-'
asS'CNN2P2'
p2506
(lp2507
I40346144
aI40347052
aS'-'
asS'OMD'
p2508
(lp2509
I92414245
aI92424461
aS'-'
asS'PTPA'
p2510
(lp2511
I129110950
aI129148944
aS'+'
asS'ZFP37'
p2512
(lp2513
I113038380
aI113056716
aS'-'
asS'PHBP7'
p2514
(lp2515
I85898903
aI85899716
aS'+'
asS'AL512649.1'
p2516
(lp2517
I106722350
aI106722930
aS'+'
asS'ELF2P3'
p2518
(lp2519
I87816465
aI87817970
aS'+'
asS'RNF38'
p2520
(lp2521
I36376008
aI36487548
aS'-'
asS'AL161911.2'
p2522
(lp2523
I120812475
aI120812845
aS'-'
asS'AL133412.1'
p2524
(lp2525
I114845594
aI114848585
aS'+'
asS'KDM4C'
p2526
(lp2527
I6757656
aI7175648
aS'+'
asS'AL512625.2'
p2528
(lp2529
I62837748
aI62838372
aS'-'
asS'OTX2P1'
p2530
(lp2531
I75724222
aI75724575
aS'-'
asS'C2orf27AP3'
p2532
(lp2533
I40121962
aI40122540
aS'+'
asS'TMEM245'
p2534
(lp2535
I109015152
aI109119945
aS'-'
asS'EEF1A1P5'
p2536
(lp2537
I133019486
aI133020874
aS'+'
asS'FAM205BP'
p2538
(lp2539
I34832295
aI34838493
aS'-'
asS'NOTCH1'
p2540
(lp2541
I136494444
aI136545862
aS'-'
asS'AL512635.1'
p2542
(lp2543
I20331446
aI20332277
aS'+'
asS'ZNF658'
p2544
(lp2545
I66856426
aI66932141
aS'+'
asS'CNTRL'
p2546
(lp2547
I121075012
aI121177608
aS'+'
asS'DNLZ'
p2548
(lp2549
I136359480
aI136363719
aS'-'
asS'AL592437.1'
p2550
(lp2551
I105710290
aI105710781
aS'-'
asS'AL592437.2'
p2552
(lp2553
I105758164
aI105760755
aS'+'
asS'EPB41L4B'
p2554
(lp2555
I109171975
aI109320964
aS'-'
asS'LURAP1L'
p2556
(lp2557
I12775021
aI12822131
aS'+'
asS'NPAP1P4'
p2558
(lp2559
I80357029
aI80360338
aS'-'
asS'RLN2'
p2560
(lp2561
I5299868
aI5304969
aS'-'
asS'NPAP1P6'
p2562
(lp2563
I79863019
aI79866875
aS'+'
asS'PTENP1'
p2564
(lp2565
I33673504
aI33677499
aS'-'
asS'AL136084.1'
p2566
(lp2567
I98890590
aI98891937
aS'+'
asS'LINGO2'
p2568
(lp2569
I27948078
aI28670285
aS'-'
asS'RORB'
p2570
(lp2571
I74497365
aI74693177
aS'+'
asS'GADD45G'
p2572
(lp2573
I89605013
aI89606555
aS'+'
asS'LCN1P2'
p2574
(lp2575
I133317794
aI133318469
aS'+'
asS'LCN1P1'
p2576
(lp2577
I133224905
aI133228591
aS'-'
asS'CFAP77'
p2578
(lp2579
I132410224
aI132573317
aS'+'
asS'SLC25A25'
p2580
(lp2581
I128068201
aI128109244
aS'+'
asS'AL358934.1'
p2582
(lp2583
I1328664
aI1328987
aS'+'
asS'ROR2'
p2584
(lp2585
I91563091
aI91948880
aS'-'
asS'IFNA2'
p2586
(lp2587
I21384254
aI21385388
aS'-'
asS'KCNV2'
p2588
(lp2589
I2717502
aI2730037
aS'+'
asS'AMYH02020865.1'
p2590
(lp2591
I40500683
aI40566779
aS'+'
asS'ERVFRD-3'
p2592
(lp2593
I21929457
aI21931073
aS'+'
asS'IFNA7'
p2594
(lp2595
I21201469
aI21202205
aS'-'
asS'SLC25A5P8'
p2596
(lp2597
I32333457
aI32334354
aS'-'
asS'SMU1'
p2598
(lp2599
I33041764
aI33076659
aS'-'
asS'OR13J1'
p2600
(lp2601
I35869263
aI35870601
aS'-'
asS'GLDC'
p2602
(lp2603
I6532464
aI6645783
aS'-'
asS'AL512594.1'
p2604
(lp2605
I73648828
aI73649839
aS'+'
asS'B4GALT1'
p2606
(lp2607
I33104082
aI33167356
aS'-'
asS'TRPM6'
p2608
(lp2609
I74722495
aI74888094
aS'-'
asS'SURF2'
p2610
(lp2611
I133356552
aI133361169
aS'+'
asS'SURF4'
p2612
(lp2613
I133361450
aI133376166
aS'-'
asS'TRPM3'
p2614
(lp2615
I70535944
aI71446835
aS'-'
asS'FCN2'
p2616
(lp2617
I134880812
aI134887520
aS'+'
asS'FCN1'
p2618
(lp2619
I134905890
aI134917877
aS'-'
asS'RPP25L'
p2620
(lp2621
I34610486
aI34612104
aS'-'
asS'AL353795.1'
p2622
(lp2623
I35147410
aI35149184
aS'-'
asS'CORO2A'
p2624
(lp2625
I98120975
aI98192640
aS'-'
asS'APTX'
p2626
(lp2627
I32973407
aI33025112
aS'-'
asS'HEMGN'
p2628
(lp2629
I97926791
aI97944856
aS'-'
asS'SPACA9'
p2630
(lp2631
I132878027
aI132890031
aS'+'
asS'POLE3'
p2632
(lp2633
I113407235
aI113410672
aS'-'
asS'NXNL2'
p2634
(lp2635
I88535186
aI88584274
aS'+'
asS'LCNL1'
p2636
(lp2637
I136981904
aI136985758
aS'+'
asS'OLFM1'
p2638
(lp2639
I135075520
aI135121178
aS'+'
asS'EHMT1'
p2640
(lp2641
I137618963
aI137836127
aS'+'
asS'IFNB1'
p2642
(lp2643
I21077105
aI21077963
aS'-'
asS'OR13D1'
p2644
(lp2645
I104694422
aI104695462
aS'+'
asS'AL158823.1'
p2646
(lp2647
I110024881
aI110025358
aS'-'
asS'DPM2'
p2648
(lp2649
I127935099
aI127938484
aS'-'
asS'OR7E108P'
p2650
(lp2651
I90751240
aI90752230
aS'-'
asS'SDR42E1P4'
p2652
(lp2653
I66724584
aI66725064
aS'+'
asS'TPD52L3'
p2654
(lp2655
I6328404
aI6331900
aS'+'
asS'SDR42E1P2'
p2656
(lp2657
I42408526
aI42409006
aS'-'
asS'SDR42E1P3'
p2658
(lp2659
I62690033
aI62690534
aS'+'
asS'CAAP1'
p2660
(lp2661
I26840685
aI26892804
aS'-'
asS'AL354854.1'
p2662
(lp2663
I31165618
aI31166980
aS'-'
asS'AL356218.2'
p2664
(lp2665
I33449755
aI33449941
aS'+'
asS'AL136981.1'
p2666
(lp2667
I92882583
aI92898605
aS'+'
asS'KRT18P36'
p2668
(lp2669
I30799471
aI30800746
aS'-'
asS'AL136981.2'
p2670
(lp2671
I92840955
aI92841688
aS'-'
asS'URM1'
p2672
(lp2673
I128371319
aI128392016
aS'+'
asS'AL772161.1'
p2674
(lp2675
I133338990
aI133339465
aS'+'
asS'SCAI'
p2676
(lp2677
I124942608
aI125143496
aS'-'
asS'STKLD1'
p2678
(lp2679
I133376367
aI133406096
aS'+'
asS'PAEP'
p2680
(lp2681
I135561758
aI135566955
aS'+'
asS'C8G'
p2682
(lp2683
I136945261
aI136946967
aS'+'
asS'TCEA1P4'
p2684
(lp2685
I32979560
aI32980403
aS'-'
asS'TCEA1P1'
p2686
(lp2687
I97067749
aI97068628
aS'+'
asS'TCEA1P3'
p2688
(lp2689
I38478471
aI38479350
aS'+'
asS'ZMYND19'
p2690
(lp2691
I137582079
aI137590490
aS'-'
asS'AMBP'
p2692
(lp2693
I114060127
aI114078472
aS'-'
asS'IFNA22P'
p2694
(lp2695
I21278050
aI21278619
aS'-'
asS'RPL7AP49'
p2696
(lp2697
I39983821
aI39984401
aS'-'
asS'PKN3'
p2698
(lp2699
I128702523
aI128720918
aS'+'
asS'ALDOB'
p2700
(lp2701
I101420578
aI101435823
aS'-'
asS'AL354794.2'
p2702
(lp2703
I68788307
aI68789670
aS'-'
asS'DMRTA1'
p2704
(lp2705
I22446841
aI22455740
aS'+'
asS'PSAT1'
p2706
(lp2707
I78297143
aI78330093
aS'+'
asS'AL162233.1'
p2708
(lp2709
I67203635
aI67208072
aS'-'
asS'WASHC1'
p2710
(lp2711
I14521
aI29739
aS'-'
asS'TMOD1'
p2712
(lp2713
I97501180
aI97601741
aS'+'
asS'AL160276.1'
p2714
(lp2715
I131545514
aI131558620
aS'+'
asS'ZNF79'
p2716
(lp2717
I127424374
aI127445371
aS'+'
asS'AL160270.2'
p2718
(lp2719
I34546524
aI34546996
aS'-'
asS'GSN'
p2720
(lp2721
I121207800
aI121332843
aS'+'
asS'AL359955.2'
p2722
(lp2723
I64737403
aI64737755
aS'-'
asS'AL359955.1'
p2724
(lp2725
I64817870
aI64836341
aS'+'
asS'BMS1P11'
p2726
(lp2727
I64705734
aI64709311
aS'-'
asS'BMS1P10'
p2728
(lp2729
I63372803
aI63380011
aS'-'
asS'BMS1P13'
p2730
(lp2731
I65828120
aI65831696
aS'+'
asS'BMS1P12'
p2732
(lp2733
I65189995
aI65193610
aS'-'
asS'NSMF'
p2734
(lp2735
I137447573
aI137459334
aS'-'
asS'GOLGA1'
p2736
(lp2737
I124878357
aI124941099
aS'-'
asS'GOLGA2'
p2738
(lp2739
I128255829
aI128275989
aS'-'
asS'AL513122.1'
p2740
(lp2741
I121238117
aI121240089
aS'-'
asS'PTBP3'
p2742
(lp2743
I112217716
aI112333664
aS'-'
asS'CYCSP24'
p2744
(lp2745
I94038030
aI94038345
aS'+'
asS'AL451142.2'
p2746
(lp2747
I88187735
aI88190202
aS'-'
asS'AL451142.1'
p2748
(lp2749
I88180673
aI88181447
aS'+'
asS'AL353616.1'
p2750
(lp2751
I68609125
aI68611984
aS'+'
asS'BARHL1'
p2752
(lp2753
I132582185
aI132590266
aS'+'
asS'SLC2A6'
p2754
(lp2755
I133471095
aI133479137
aS'-'
asS'AL135924.1'
p2756
(lp2757
I72275453
aI72275973
aS'+'
asS'FP885919.1'
p2758
(lp2759
I40481559
aI40497591
aS'-'
asS'BX284632.1'
p2760
(lp2761
I65816932
aI65817472
aS'-'
asS'GLIS3'
p2762
(lp2763
I3827698
aI4299916
aS'-'
asS'BX284632.2'
p2764
(lp2765
I65798726
aI65799124
aS'+'
asS'AL445487.1'
p2766
(lp2767
I107169569
aI107171148
aS'-'
asS'C9orf3'
p2768
(lp2769
I94726712
aI95087159
aS'+'
asS'TRBV29OR9-2'
p2770
(lp2771
I33786221
aI33786828
aS'+'
asS'FAM102A'
p2772
(lp2773
I127940579
aI127980513
aS'-'
asS'PLPPR1'
p2774
(lp2775
I101028709
aI101325135
aS'+'
asS'MUPP'
p2776
(lp2777
I112959134
aI112962261
aS'-'
asS'IFT74'
p2778
(lp2779
I26947039
aI27062925
aS'+'
asS'BX088645.1'
p2780
(lp2781
I61330717
aI61453030
aS'+'
asS'AL136231.1'
p2782
(lp2783
I4633027
aI4633756
aS'+'
asS'FOXD4L4'
p2784
(lp2785
I65736555
aI65738784
aS'+'
asS'LRRC19'
p2786
(lp2787
I26993136
aI27005693
aS'-'
asS'AQP7P3'
p2788
(lp2789
I65878766
aI65894790
aS'+'
asS'AQP7P2'
p2790
(lp2791
I64621560
aI64637586
aS'-'
asS'AQP7P1'
p2792
(lp2793
I63317067
aI63333091
aS'-'
asS'FOXD4L6'
p2794
(lp2795
I41126430
aI41128463
aS'-'
asS'AQP7P5'
p2796
(lp2797
I40481558
aI40497592
aS'-'
asS'AQP7P4'
p2798
(lp2799
I63127359
aI63143401
aS'+'
asS'POMT1'
p2800
(lp2801
I131502902
aI131523806
aS'+'
asS'OR7E109P'
p2802
(lp2803
I90742526
aI90743380
aS'-'
asS'ALAD'
p2804
(lp2805
I113386317
aI113401333
aS'-'
asS'ATP8B5P'
p2806
(lp2807
I35406755
aI35483035
aS'+'
asS'STOM'
p2808
(lp2809
I121338988
aI121370304
aS'-'
asS'AL360081.1'
p2810
(lp2811
I98234709
aI98235567
aS'+'
asS'IGKV1OR-3'
p2812
(lp2813
I65770955
aI65771434
aS'+'
asS'IGKV1OR-2'
p2814
(lp2815
I64765054
aI64765535
aS'-'
asS'IL6RP1'
p2816
(lp2817
I90081297
aI90082569
aS'-'
asS'CCDC107'
p2818
(lp2819
I35658290
aI35661499
aS'+'
asS'OBP2B'
p2820
(lp2821
I133205280
aI133209250
aS'-'
asS'CAVIN4'
p2822
(lp2823
I100578079
aI100587906
aS'+'
asS'HNRNPK'
p2824
(lp2825
I83968083
aI83980604
aS'-'
asS'NFIB'
p2826
(lp2827
I14087860
aI14398983
aS'-'
asS'AL359091.1'
p2828
(lp2829
I128444587
aI128446628
aS'+'
asS'ERP44'
p2830
(lp2831
I99979179
aI100099040
aS'-'
asS'GOLM1'
p2832
(lp2833
I86026147
aI86100149
aS'-'
asS'IFNA8'
p2834
(lp2835
I21409147
aI21410185
aS'+'
asS'GVQW1'
p2836
(lp2837
I32566789
aI32568621
aS'+'
asS'IFNA1'
p2838
(lp2839
I21440454
aI21441316
aS'+'
asS'PLGRKT'
p2840
(lp2841
I5357973
aI5437878
aS'-'
asS'IFNA6'
p2842
(lp2843
I21349835
aI21351378
aS'-'
asS'AL353803.3'
p2844
(lp2845
I129380136
aI129380470
aS'-'
asS'IFNA4'
p2846
(lp2847
I21186694
aI21187671
aS'-'
asS'C9orf16'
p2848
(lp2849
I128160260
aI128163928
aS'+'
asS'GAS2L1P2'
p2850
(lp2851
I97075671
aI97081945
aS'-'
asS'TTLL11'
p2852
(lp2853
I121821928
aI122093606
aS'-'
asS'AL391987.1'
p2854
(lp2855
I61861853
aI61862567
aS'-'
asS'AL442644.1'
p2856
(lp2857
I102515204
aI102518308
aS'+'
asS'PLAA'
p2858
(lp2859
I26904083
aI26947463
aS'-'
asS'MTAP'
p2860
(lp2861
I21802649
aI21937651
aS'+'
asS'BICD2'
p2862
(lp2863
I92711363
aI92764812
aS'-'
asS'VN2R3P'
p2864
(lp2865
I39016969
aI39039594
aS'+'
asS'AL157827.1'
p2866
(lp2867
I92539053
aI92539184
aS'-'
asS'NDUFA5P4'
p2868
(lp2869
I35874810
aI35875194
aS'-'
asS'NDUFA5P3'
p2870
(lp2871
I19383217
aI19383887
aS'-'
asS'PABPC1P11'
p2872
(lp2873
I17589161
aI17591318
aS'-'
asS'DUX4L50'
p2874
(lp2875
I63817748
aI63818462
aS'-'
asS'AL512593.1'
p2876
(lp2877
I106978776
aI106979554
aS'-'
as.