(dp1
S'MT-ND1'
p2
(lp3
I3307
aI4262
aS'+'
aI76
aI76
aI76
aI76
aI338
aI338
aI338
aI338
aI338
asS'MT-ND2'
p4
(lp5
I4470
aI5511
aS'+'
aI97
aI97
aI97
aI97
aI383
aI457
aI457
aI457
aI457
asS'MT-CO3'
p6
(lp7
I9207
aI9990
aS'+'
aI56
aI485
aI56
aI56
aI341
aI763
aI817
aI817
aI817
asS'MT-ND4'
p8
(lp9
I10760
aI12137
aS'+'
aI119
aI555
aI977
aI119
aI432
aI840
aI1031
aI1031
aI1031
asS'MT-ND5'
p10
(lp11
I12337
aI14148
aS'+'
aI142
aI589
aI996
aI142
aI457
aI880
aI1188
aI1188
aI1188
asS'MT-ND6'
p12
(lp13
I14149
aI14673
aS'-'
aI45
aI185
aI185
aI185
aI185
aI185
aI185
aI185
aI185
asS'MT-CO1'
p14
(lp15
I5904
aI7445
aS'+'
aI128
aI546
aI128
aI128
aI409
aI610
aI610
aI610
aI610
asS'MT-CYB'
p16
(lp17
I14747
aI15887
aS'+'
aI81
aI515
aI936
aI81
aI357
aI805
aI1223
aI1319
aI1319
asS'MT-CO2'
p18
(lp19
I7586
aI8269
aS'+'
aI52
aI464
aI52
aI52
aI346
aI673
aI673
aI673
aI673
asS'MT-ND4L'
p20
(lp21
I10470
aI10766
aS'+'
aI39
aI465
aI880
aI39
aI337
aI747
aI913
aI913
aI913
asS'MT-ND3'
p22
(lp23
I10059
aI10404
aS'+'
aI39
aI455
aI861
aI39
aI329
aI742
aI865
aI865
aI865
asS'MT-ATP8'
p24
(lp25
I8366
aI8572
aS'+'
aI19
aI435
aI19
aI19
aI304
aI702
aI702
aI702
aI702
asS'MT-ATP6'
p26
(lp27
I8527
aI9207
aS'+'
aI60
aI480
aI60
aI60
aI343
aI755
aI761
aI761
aI761
as.