(dp1
S'MT-ND1'
p2
(lp3
I3307
aI4262
aS'+'
asS'MT-ND2'
p4
(lp5
I4470
aI5511
aS'+'
asS'MT-CO3'
p6
(lp7
I9207
aI9990
aS'+'
asS'MT-ND4'
p8
(lp9
I10760
aI12137
aS'+'
asS'MT-ND5'
p10
(lp11
I12337
aI14148
aS'+'
asS'MT-ND6'
p12
(lp13
I14149
aI14673
aS'-'
asS'MT-CO1'
p14
(lp15
I5904
aI7445
aS'+'
asS'MT-CYB'
p16
(lp17
I14747
aI15887
aS'+'
asS'MT-CO2'
p18
(lp19
I7586
aI8269
aS'+'
asS'MT-ND4L'
p20
(lp21
I10470
aI10766
aS'+'
asS'MT-ND3'
p22
(lp23
I10059
aI10404
aS'+'
asS'MT-ATP8'
p24
(lp25
I8366
aI8572
aS'+'
asS'MT-ATP6'
p26
(lp27
I8527
aI9207
aS'+'
as.