(dp1
S'AC006987.4'
p2
(lp3
I10070131
aI10070409
aS'+'
asS'AC007274.3'
p4
(lp5
I7656968
aI7657352
aS'+'
asS'AC007274.1'
p6
(lp7
I7678899
aI7681028
aS'+'
asS'GPM6BP1'
p8
(lp9
I18578417
aI18578560
aS'+'
asS'AC006987.1'
p10
(lp11
I10169788
aI10170314
aS'-'
asS'AC024067.1'
p12
(lp13
I26244351
aI26244573
aS'-'
asS'GPM6BP2'
p14
(lp15
I18741843
aI18741986
aS'-'
asS'CDY23P'
p16
(lp17
I25994684
aI25995697
aS'-'
asS'MTND1P12'
p18
(lp19
I11445418
aI11445564
aS'-'
asS'AC134882.1'
p20
(lp21
I11335627
aI11337693
aS'+'
asS'HSFY8P'
p22
(lp23
I26011435
aI26012237
aS'+'
asS'AC006987.2'
p24
(lp25
I10088026
aI10089586
aS'+'
asS'AC006987.3'
p26
(lp27
I10090802
aI10091207
aS'+'
asS'ZNF92P1Y'
p28
(lp29
I7853686
aI7854876
aS'-'
asS'RBMY2EP'
p30
(lp31
I21394991
aI21401585
aS'-'
asS'VCY1B'
p32
(lp33
I14056217
aI14056958
aS'+'
asS'RBMY1A3P'
p34
(lp35
I9311130
aI9322869
aS'-'
asS'DAZ3'
p36
(lp37
I24763069
aI24813492
aS'-'
asS'PCDH11Y'
p38
(lp39
I5056090
aI5742224
aS'+'
asS'DAZ1'
p40
(lp41
I23129355
aI23199094
aS'-'
asS'GAPDHP17'
p42
(lp43
I20861337
aI20862337
aS'+'
asS'DAZ4'
p44
(lp45
I24833843
aI24907040
aS'+'
asS'GAPDHP19'
p46
(lp47
I19327569
aI19328573
aS'+'
asS'OFD1P8Y'
p48
(lp49
I21972313
aI22005349
aS'+'
asS'RBMY2KP'
p50
(lp51
I8264449
aI8277188
aS'-'
asS'TRAPPC2P10'
p52
(lp53
I23967564
aI23970694
aS'-'
asS'TSPY17P'
p54
(lp55
I6520463
aI6520929
aS'+'
asS'CDY11P'
p56
(lp57
I21696570
aI21698220
aS'+'
asS'AC009494.1'
p58
(lp59
I20843256
aI20843710
aS'-'
asS'HSFY1'
p60
(lp61
I18546691
aI18588963
aS'+'
asS'SNX3P1Y'
p62
(lp63
I5634480
aI5634655
aS'-'
asS'HSFY2'
p64
(lp65
I18772708
aI18828662
aS'-'
asS'ANKRD36P1'
p66
(lp67
I26409815
aI26420535
aS'+'
asS'ASS1P6'
p68
(lp69
I11922536
aI11923769
aS'-'
asS'LINC00266-2P'
p70
(lp71
I24278681
aI24291346
aS'+'
asS'ZNF736P5Y'
p72
(lp73
I25018499
aI25019303
aS'-'
asS'ZNF736P2Y'
p74
(lp75
I24683657
aI24684935
aS'+'
asS'RBMY3AP'
p76
(lp77
I9610571
aI9621276
aS'-'
asS'CASKP1'
p78
(lp79
I12930165
aI12948182
aS'-'
asS'ACTG1P2'
p80
(lp81
I17757001
aI17758125
aS'-'
asS'AC010970.1'
p82
(lp83
I10197256
aI10199103
aS'-'
asS'OFD1P13Y'
p84
(lp85
I25675060
aI25697346
aS'-'
asS'AC013734.1'
p86
(lp87
I26453982
aI26454092
aS'+'
asS'TRIM60P5Y'
p88
(lp89
I24494709
aI24495583
aS'-'
asS'GOLGA2P2Y'
p90
(lp91
I24209567
aI24215581
aS'-'
asS'TSPY22P'
p92
(lp93
I22305925
aI22307951
aS'-'
asS'TTTY25P'
p94
(lp95
I22330452
aI22332500
aS'+'
asS'TSPY10'
p96
(lp97
I9527880
aI9530676
aS'+'
asS'XGY1'
p98
(lp99
I12440046
aI12507369
aS'-'
asS'CDY7P'
p100
(lp101
I17951589
aI17953500
aS'+'
asS'TXLNGY'
p102
(lp103
I19567382
aI19604120
aS'+'
asS'TRAPPC2P5'
p104
(lp105
I25699451
aI25702562
aS'+'
asS'TRAPPC2P4'
p106
(lp107
I25904518
aI25907250
aS'+'
asS'TRAPPC2P7'
p108
(lp109
I18655520
aI18656190
aS'-'
asS'TRAPPC2P3'
p110
(lp111
I17797983
aI17800696
aS'-'
asS'TRAPPC2P9'
p112
(lp113
I23762838
aI23765583
aS'-'
asS'TRAPPC2P8'
p114
(lp115
I18105314
aI18108102
aS'+'
asS'REREP1Y'
p116
(lp117
I23462465
aI23472280
aS'+'
asS'RBMY2HP'
p118
(lp119
I7671743
aI7676024
aS'-'
asS'PRRC2CP1'
p120
(lp121
I3549652
aI3549810
aS'-'
asS'ELOCP26'
p122
(lp123
I18178932
aI18179260
aS'-'
asS'RPS4Y1'
p124
(lp125
I2854730
aI2932000
aS'+'
asS'AC134878.1'
p126
(lp127
I11144250
aI11144492
aS'+'
asS'AC134878.2'
p128
(lp129
I11153858
aI11159013
aS'-'
asS'NAP1L1P2'
p130
(lp131
I2929001
aI2931120
aS'-'
asS'RBMY2AP'
p132
(lp133
I21927521
aI21937150
aS'-'
asS'TSPY12P'
p134
(lp135
I7687739
aI7689548
aS'-'
asS'OFD1P4Y'
p136
(lp137
I18453150
aI18472137
aS'-'
asS'SFPQP1'
p138
(lp139
I13083790
aI13095805
aS'+'
asS'RNF19BPY'
p140
(lp141
I3777997
aI3779546
aS'-'
asS'RBMY2WP'
p142
(lp143
I22762851
aI22769787
aS'-'
asS'AC010133.1'
p144
(lp145
I19253960
aI19260875
aS'-'
asS'TSPY8'
p146
(lp147
I9357797
aI9360593
aS'+'
asS'TSPY4'
p148
(lp149
I9337464
aI9340278
aS'+'
asS'TSPY3'
p150
(lp151
I9398421
aI9401217
aS'+'
asS'TSPY2'
p152
(lp153
I6246223
aI6249013
aS'+'
asS'TSPY1'
p154
(lp155
I9466955
aI9469748
aS'+'
asS'CDY15P'
p156
(lp157
I23855522
aI23857091
aS'-'
asS'AC006366.1'
p158
(lp159
I23017063
aI23017821
aS'+'
asS'HSFY6P'
p160
(lp161
I23657839
aI23659058
aS'-'
asS'ZNF736P9Y'
p162
(lp163
I8068896
aI8070723
aS'-'
asS'DAZ2'
p164
(lp165
I23219434
aI23291356
aS'+'
asS'TSPY5P'
p166
(lp167
I10066587
aI10069151
aS'-'
asS'DUX4L18'
p168
(lp169
I11321557
aI11322823
aS'+'
asS'AC008175.2'
p170
(lp171
I22646031
aI22646327
aS'-'
asS'PNPLA4P1'
p172
(lp173
I14081075
aI14086600
aS'+'
asS'ZNF736P6Y'
p174
(lp175
I8350931
aI8352143
aS'+'
asS'STSP1'
p176
(lp177
I15547216
aI15593331
aS'+'
asS'FAM197Y2'
p178
(lp179
I9517599
aI9525487
aS'-'
asS'FAM197Y3'
p180
(lp181
I9497287
aI9505159
aS'-'
asS'FAM197Y1'
p182
(lp183
I9544917
aI9547147
aS'-'
asS'FAM197Y6'
p184
(lp185
I9388122
aI9396027
aS'-'
asS'FAM197Y7'
p186
(lp187
I9367803
aI9375681
aS'-'
asS'FAM197Y4'
p188
(lp189
I9479053
aI9484654
aS'-'
asS'AC010086.2'
p190
(lp191
I21405770
aI21405995
aS'+'
asS'FAM197Y8'
p192
(lp193
I9347511
aI9355401
aS'-'
asS'FAM197Y9'
p194
(lp195
I6256267
aI6263953
aS'-'
asS'AC010086.1'
p196
(lp197
I21311268
aI21318895
aS'+'
asS'AC006386.2'
p198
(lp199
I25307729
aI25307803
aS'+'
asS'AC006386.1'
p200
(lp201
I25174520
aI25175237
aS'+'
asS'UBE2V1P3'
p202
(lp203
I3866306
aI3866722
aS'-'
asS'PUDPP1'
p204
(lp205
I15348662
aI15456074
aS'-'
asS'TBL1Y'
p206
(lp207
I6910686
aI7091683
aS'+'
asS'UBE2Q2P4Y'
p208
(lp209
I24232826
aI24238984
aS'-'
asS'AC010153.1'
p210
(lp211
I24650808
aI24651534
aS'+'
asS'PRYP2'
p212
(lp213
I18161366
aI18176484
aS'+'
asS'PRYP3'
p214
(lp215
I23681440
aI23694579
aS'-'
asS'PRYP1'
p216
(lp217
I17729528
aI17744596
aS'-'
asS'PRYP6'
p218
(lp219
I18790709
aI18791051
aS'-'
asS'PRYP4'
p220
(lp221
I25975549
aI25988069
aS'+'
asS'PRYP5'
p222
(lp223
I18529358
aI18529623
aS'+'
asS'AGKP1'
p224
(lp225
I14639096
aI14640358
aS'+'
asS'TAF9P1'
p226
(lp227
I17628513
aI17629402
aS'+'
asS'TAF9P2'
p228
(lp229
I18276607
aI18277495
aS'-'
asS'MED14P1'
p230
(lp231
I12618983
aI12634402
aS'-'
asS'RBMY2TP'
p232
(lp233
I21430697
aI21437245
aS'-'
asS'AC007967.4'
p234
(lp235
I8931069
aI8931454
aS'-'
asS'OFD1P9Y'
p236
(lp237
I22580989
aI22614081
aS'-'
asS'AC007967.1'
p238
(lp239
I8906224
aI8916073
aS'+'
asS'AC007967.3'
p240
(lp241
I8971751
aI8974095
aS'-'
asS'AC007967.2'
p242
(lp243
I8901203
aI8903276
aS'-'
asS'AGPAT5P1'
p244
(lp245
I3293808
aI3294826
aS'+'
asS'CDY19P'
p246
(lp247
I25564122
aI25566033
aS'-'
asS'CD24P4'
p248
(lp249
I18992467
aI18992709
aS'-'
asS'TSPY16P'
p250
(lp251
I9640249
aI9640716
aS'-'
asS'CDY10P'
p252
(lp253
I21637475
aI21639041
aS'-'
asS'ZNF839P1'
p254
(lp255
I18985175
aI18986398
aS'+'
asS'AC010141.1'
p256
(lp257
I21555852
aI21558070
aS'-'
asS'AC010141.3'
p258
(lp259
I21508299
aI21510470
aS'-'
asS'AC010141.2'
p260
(lp261
I21531839
aI21534011
aS'-'
asS'EEF1A1P41'
p262
(lp263
I2995067
aI2995273
aS'-'
asS'PRY'
p264
(lp265
I22490397
aI22514637
aS'+'
asS'CDY9P'
p266
(lp267
I18182835
aI18184414
aS'-'
asS'PCMTD1P1'
p268
(lp269
I10173853
aI10174207
aS'+'
asS'MXRA5Y'
p270
(lp271
I11957208
aI11987386
aS'+'
asS'CDY20P'
p272
(lp273
I25618644
aI25620253
aS'+'
asS'AC140113.2'
p274
(lp275
I11107389
aI11107596
aS'-'
asS'AC140113.3'
p276
(lp277
I11107065
aI11107263
aS'-'
asS'ATP5JP1'
p278
(lp279
I6900753
aI6901372
aS'+'
asS'AC140113.1'
p280
(lp281
I11107719
aI11107887
aS'-'
asS'AC140113.4'
p282
(lp283
I11042722
aI11042943
aS'-'
asS'ELOCP17'
p284
(lp285
I25860943
aI25861268
aS'+'
asS'ELOCP16'
p286
(lp287
I23678504
aI23678835
aS'+'
asS'ELOCP15'
p288
(lp289
I22068820
aI22069151
aS'+'
asS'ELOCP14'
p290
(lp291
I18787750
aI18788080
aS'+'
asS'ELOCP13'
p292
(lp293
I18440797
aI18441125
aS'+'
asS'ELOCP12'
p294
(lp295
I18068483
aI18068810
aS'+'
asS'ELOCP11'
p296
(lp297
I25991241
aI25991572
aS'-'
asS'ELOCP10'
p298
(lp299
I24006911
aI24007237
aS'-'
asS'PPP1R12BP1'
p300
(lp301
I26277923
aI26354418
aS'-'
asS'PPP1R12BP2'
p302
(lp303
I23379484
aI23392697
aS'+'
asS'ZNF736P10Y'
p304
(lp305
I8418791
aI8419900
aS'-'
asS'OFD1P12Y'
p306
(lp307
I23972780
aI23995081
aS'+'
asS'GOLGA2P3Y'
p308
(lp309
I25454561
aI25460572
aS'+'
asS'AMELY'
p310
(lp311
I6865918
aI6874027
aS'-'
asS'SERBP1P2'
p312
(lp313
I4801685
aI4802848
aS'-'
asS'RPS24P1'
p314
(lp315
I12244752
aI12245457
aS'+'
asS'CDY8P'
p316
(lp317
I18022299
aI18023908
aS'+'
asS'NLGN4Y'
p318
(lp319
I14522752
aI14845650
aS'+'
asS'ARSDP1'
p320
(lp321
I12354096
aI12387328
aS'+'
asS'CDY4P'
p322
(lp323
I12801973
aI12803830
aS'-'
asS'AC007322.2'
p324
(lp325
I21871331
aI21873550
aS'+'
asS'AC007322.3'
p326
(lp327
I21940012
aI21941593
aS'+'
asS'AC007322.1'
p328
(lp329
I21918935
aI21921106
aS'+'
asS'AC007322.4'
p330
(lp331
I21895394
aI21897559
aS'+'
asS'GOLGA6L16P'
p332
(lp333
I25495651
aI25501958
aS'-'
asS'AC013412.1'
p334
(lp335
I6789153
aI6789344
aS'+'
asS'CDC27P2'
p336
(lp337
I10190377
aI10192298
aS'-'
asS'RBMY2FP'
p338
(lp339
I22310864
aI22321825
aS'+'
asS'RNASEH2CP1'
p340
(lp341
I2789827
aI2790328
aS'+'
asS'TSPY11P'
p342
(lp343
I6266593
aI6269275
aS'+'
asS'EIF4A1P2'
p344
(lp345
I5337745
aI5338964
aS'-'
asS'KRT18P10'
p346
(lp347
I5573145
aI5574431
aS'+'
asS'MTND1P1'
p348
(lp349
I8371663
aI8372030
aS'+'
asS'TSPY23P'
p350
(lp351
I22183850
aI22186021
aS'+'
asS'LINC00265-2P'
p352
(lp353
I24276245
aI24277026
aS'+'
asS'CDY14P'
p354
(lp355
I23674379
aI23675392
aS'+'
asS'ZNF736P12Y'
p356
(lp357
I24500263
aI24501505
aS'-'
asS'OFD1P5Y'
p358
(lp359
I18582063
aI18629077
aS'-'
asS'TSPY6P'
p360
(lp361
I9507596
aI9510175
aS'+'
asS'OFD1P15Y'
p362
(lp363
I26055779
aI26088493
aS'-'
asS'DUX4L31'
p364
(lp365
I10171590
aI10172725
aS'-'
asS'ZNF736P3Y'
p366
(lp367
I23049247
aI23051195
aS'+'
asS'USP9YP19'
p368
(lp369
I25748596
aI25750206
aS'-'
asS'USP9YP18'
p370
(lp371
I23659466
aI23667822
aS'-'
asS'USP9YP15'
p372
(lp373
I18116527
aI18117695
aS'+'
asS'USP9YP14'
p374
(lp375
I18481087
aI18487400
aS'+'
asS'USP9YP17'
p376
(lp377
I22049755
aI22058113
aS'-'
asS'USP9YP16'
p378
(lp379
I18121195
aI18123799
aS'-'
asS'USP9YP11'
p380
(lp381
I23934953
aI23940101
aS'+'
asS'USP9YP10'
p382
(lp383
I18826107
aI18829487
aS'+'
asS'USP9YP13'
p384
(lp385
I23919905
aI23921510
aS'+'
asS'USP9YP12'
p386
(lp387
I23945927
aI23952293
aS'-'
asS'AC006158.1'
p388
(lp389
I9325799
aI9326047
aS'+'
asS'DNM1P48'
p390
(lp391
I25486640
aI25487322
aS'+'
asS'AC078938.1'
p392
(lp393
I21817579
aI21818218
aS'-'
asS'TOMM22P1'
p394
(lp395
I21130870
aI21131181
aS'+'
asS'TOMM22P2'
p396
(lp397
I2827982
aI2828218
aS'+'
asS'PRKY'
p398
(lp399
I7273972
aI7381548
aS'+'
asS'ZNF885P'
p400
(lp401
I20390051
aI20396796
aS'+'
asS'CYCSP49'
p402
(lp403
I26549425
aI26549743
aS'+'
asS'CYCSP48'
p404
(lp405
I26400611
aI26401230
aS'+'
asS'TMEM167AP1'
p406
(lp407
I20907344
aI20907562
aS'-'
asS'CYCSP46'
p408
(lp409
I14941547
aI14941750
aS'-'
asS'RAB9AP2'
p410
(lp411
I25709908
aI25713557
aS'-'
asS'AC006335.2'
p412
(lp413
I6307710
aI6309587
aS'+'
asS'C2orf27AP1'
p414
(lp415
I11085476
aI11086061
aS'-'
asS'AC006338.1'
p416
(lp417
I25009700
aI25010769
aS'-'
asS'AC006338.2'
p418
(lp419
I24977176
aI24978317
aS'-'
asS'REREP2Y'
p420
(lp421
I26198331
aI26208148
aS'-'
asS'CDY1'
p422
(lp423
I25622162
aI25624902
aS'+'
asS'VCY'
p424
(lp425
I13985772
aI13986513
aS'-'
asS'DPPA2P1'
p426
(lp427
I13230884
aI13231439
aS'+'
asS'RBMY2BP'
p428
(lp429
I22649245
aI22658878
aS'+'
asS'TSPY15P'
p430
(lp431
I9548108
aI9550681
aS'+'
asS'ZFY'
p432
(lp433
I2935281
aI2982506
aS'+'
asS'AC012078.1'
p434
(lp435
I3851224
aI3852869
aS'-'
asS'ELOCP9'
p436
(lp437
I23808821
aI23809059
aS'-'
asS'ELOCP8'
p438
(lp439
I22517242
aI22517573
aS'-'
asS'ELOCP7'
p440
(lp441
I18532326
aI18532656
aS'-'
asS'ELOCP6'
p442
(lp443
I17837201
aI17837528
aS'-'
asS'ELOCP5'
p444
(lp445
I21631683
aI21632015
aS'-'
asS'ELOCP4'
p446
(lp447
I9230915
aI9231247
aS'+'
asS'RBMY1A1'
p448
(lp449
I21511372
aI21549318
aS'+'
asS'OFD1P1Y'
p450
(lp451
I17809807
aI17825329
aS'+'
asS'SLC25A15P1'
p452
(lp453
I26586642
aI26591601
aS'-'
asS'AC016991.1'
p454
(lp455
I8517364
aI8517748
aS'-'
asS'OFD1P11Y'
p456
(lp457
I23771232
aI23798150
aS'+'
asS'PRY2'
p458
(lp459
I22071756
aI22096007
aS'-'
asS'HSFY7P'
p460
(lp461
I22537047
aI22537849
aS'+'
asS'CDY1B'
p462
(lp463
I24045229
aI24047969
aS'-'
asS'TRIM60P11Y'
p464
(lp465
I24691791
aI24692932
aS'+'
asS'OFD1P18Y'
p466
(lp467
I25871931
aI25898653
aS'-'
asS'ZNF736P7Y'
p468
(lp469
I7990987
aI7991806
aS'-'
asS'RBMY1HP'
p470
(lp471
I21493519
aI21501968
aS'+'
asS'AC006986.1'
p472
(lp473
I9868462
aI9868702
aS'-'
asS'TAB3P1'
p474
(lp475
I13153931
aI13162214
aS'-'
asS'AC007275.1'
p476
(lp477
I7845485
aI7846454
aS'-'
asS'RCC2P1'
p478
(lp479
I11781052
aI11782527
aS'-'
asS'RCC2P2'
p480
(lp481
I19986575
aI19987852
aS'-'
asS'AC134879.1'
p482
(lp483
I11445708
aI11446101
aS'-'
asS'AC134879.2'
p484
(lp485
I11473727
aI11474237
aS'-'
asS'AC134879.3'
p486
(lp487
I11412548
aI11418716
aS'+'
asS'OFD1P6Y'
p488
(lp489
I18674033
aI18738089
aS'+'
asS'PRORY'
p490
(lp491
I21382954
aI21386360
aS'-'
asS'USP9YP24'
p492
(lp493
I22528281
aI22536639
aS'+'
asS'USP9YP25'
p494
(lp495
I23734193
aI23736249
aS'+'
asS'USP9YP26'
p496
(lp497
I26002254
aI26008856
aS'+'
asS'USP9YP27'
p498
(lp499
I17788315
aI17789484
aS'-'
asS'USP9YP20'
p500
(lp501
I25923388
aI25929826
aS'+'
asS'USP9YP21'
p502
(lp503
I25933833
aI25935881
aS'-'
asS'USP9YP22'
p504
(lp505
I9183694
aI9185803
aS'+'
asS'USP9YP23'
p506
(lp507
I17782210
aI17784815
aS'+'
asS'ACTG1P11'
p508
(lp509
I18147884
aI18149008
aS'+'
asS'USP9YP28'
p510
(lp511
I18833002
aI18839313
aS'-'
asS'USP9YP29'
p512
(lp513
I23740258
aI23746693
aS'-'
asS'RBMY2GP'
p514
(lp515
I6328052
aI6343323
aS'+'
asS'ZNF736P11Y'
p516
(lp517
I22866544
aI22867756
aS'-'
asS'RBMY2UP'
p518
(lp519
I22198429
aI22203712
aS'+'
asS'AC006328.2'
p520
(lp521
I25464006
aI25473621
aS'+'
asS'AC006328.1'
p522
(lp523
I25487284
aI25487662
aS'-'
asS'FAM58CP'
p524
(lp525
I26626520
aI26627159
aS'-'
asS'CDY18P'
p526
(lp527
I24104107
aI24106018
aS'+'
asS'CDY13P'
p528
(lp529
I22520681
aI22521695
aS'-'
asS'RBMY2NP'
p530
(lp531
I9831418
aI9846696
aS'-'
asS'TSPY19P'
p532
(lp533
I6303957
aI6305074
aS'-'
asS'TSPY20P'
p534
(lp535
I10036195
aI10038375
aS'+'
asS'TSPY7P'
p536
(lp537
I9378122
aI9380871
aS'+'
asS'HSFY4P'
p538
(lp539
I20808776
aI20811809
aS'-'
asS'AC015978.1'
p540
(lp541
I17514502
aI17516715
aS'+'
asS'VDAC1P6'
p542
(lp543
I5207215
aI5208069
aS'-'
asS'MTND6P1'
p544
(lp545
I8363536
aI8363959
aS'-'
asS'TUBB1P1'
p546
(lp547
I18386974
aI18389151
aS'+'
asS'TUBB1P2'
p548
(lp549
I17516836
aI17519038
aS'-'
asS'RBMY2XP'
p550
(lp551
I24396604
aI24403526
aS'-'
asS'TRIM60P3Y'
p552
(lp553
I8413037
aI8414054
aS'-'
asS'SRY'
p554
(lp555
I2786855
aI2787699
aS'-'
asS'TRIM60P8Y'
p556
(lp557
I23025594
aI23026663
aS'+'
asS'HSFY3P'
p558
(lp559
I2881683
aI2883652
aS'-'
asS'ACTR3BP1'
p560
(lp561
I11395699
aI11397076
aS'+'
asS'ZNF886P'
p562
(lp563
I20001185
aI20012204
aS'-'
asS'GOLGA6L11P'
p564
(lp565
I24168187
aI24174494
aS'+'
asS'CSPG4P4Y'
p566
(lp567
I25478269
aI25483630
aS'+'
asS'ANOS2P'
p568
(lp569
I13751656
aI13915824
aS'+'
asS'USP9Y'
p570
(lp571
I12701231
aI12860839
aS'+'
asS'CDY17P'
p572
(lp573
I24049878
aI24051487
aS'-'
asS'RBMY2JP'
p574
(lp575
I8127130
aI8144203
aS'+'
asS'RBMY1J'
p576
(lp577
I22403461
aI22417881
aS'+'
asS'RBMY2CP'
p578
(lp579
I23537308
aI23546942
aS'-'
asS'RBMY1B'
p580
(lp581
I21511425
aI21549094
aS'+'
asS'RBMY1F'
p582
(lp583
I22168542
aI22182982
aS'-'
asS'RBMY1E'
p584
(lp585
I21903618
aI21918067
aS'-'
asS'RBMY1D'
p586
(lp587
I21880076
aI21894526
aS'-'
asS'TGIF2LY'
p588
(lp589
I3579041
aI3580041
aS'+'
asS'TSPY14P'
p590
(lp591
I21468158
aI21470683
aS'+'
asS'RBMY2QP'
p592
(lp593
I10022489
aI10034187
aS'-'
asS'UTY'
p594
(lp595
I13248379
aI13480673
aS'-'
asS'TSPY24P'
p596
(lp597
I8280198
aI8282209
aS'+'
asS'TBL1YP1'
p598
(lp599
I20727254
aI20742900
aS'+'
asS'LINC00265-3P'
p600
(lp601
I25393154
aI25394056
aS'-'
asS'BPY2B'
p602
(lp603
I24618004
aI24639207
aS'+'
asS'BPY2C'
p604
(lp605
I25030901
aI25052104
aS'-'
asS'OFD1P2Y'
p606
(lp607
I18080681
aI18096202
aS'-'
asS'OFD1P10Y'
p608
(lp609
I23581595
aI23614640
aS'+'
asS'SHROOM2P1'
p610
(lp611
I12537773
aI12544883
aS'+'
asS'FAM197Y10'
p612
(lp613
I21465384
aI21467163
aS'-'
asS'TRIM60P10Y'
p614
(lp615
I24659337
aI24660406
aS'+'
asS'RBMY1KP'
p616
(lp617
I22209331
aI22216580
aS'+'
asS'CTBP2P1'
p618
(lp619
I56855244
aI56855488
aS'+'
asS'EIF1AY'
p620
(lp621
I20575725
aI20593154
aS'+'
asS'CDY6P'
p622
(lp623
I17882099
aI17883708
aS'-'
asS'NEFLP1'
p624
(lp625
I21221106
aI21222089
aS'-'
asS'KDM5DP1'
p626
(lp627
I20570222
aI20570519
aS'-'
asS'DDX3Y'
p628
(lp629
I12904831
aI12920478
aS'+'
asS'SLC9B1P1'
p630
(lp631
I11340579
aI11385687
aS'-'
asS'SURF6P1'
p632
(lp633
I17192826
aI17193652
aS'+'
asS'AC007742.1'
p634
(lp635
I17726752
aI17727080
aS'+'
asS'AC007742.2'
p636
(lp637
I17705968
aI17708185
aS'-'
asS'CSPG4P3Y'
p638
(lp639
I24186509
aI24191870
aS'-'
asS'AC010154.1'
p640
(lp641
I6492976
aI6496757
aS'-'
asS'CICP2'
p642
(lp643
I24278337
aI24281140
aS'-'
asS'DLGAP5P1'
p644
(lp645
I6158802
aI6159265
aS'+'
asS'AC007562.1'
p646
(lp647
I25512301
aI25527786
aS'-'
asS'RBMY2DP'
p648
(lp649
I26123674
aI26133308
aS'+'
asS'KDM5D'
p650
(lp651
I19705417
aI19744939
aS'-'
asS'MTCYBP1'
p652
(lp653
I8364032
aI8365150
aS'+'
asS'MTCYBP2'
p654
(lp655
I18872102
aI18872272
aS'+'
asS'USP9YP1'
p656
(lp657
I18540980
aI18544128
aS'+'
asS'CDY5P'
p658
(lp659
I17721598
aI17723177
aS'+'
asS'USP9YP3'
p660
(lp661
I21661926
aI21674008
aS'+'
asS'USP9YP2'
p662
(lp663
I18776279
aI18779427
aS'-'
asS'USP9YP5'
p664
(lp665
I18490915
aI18494295
aS'-'
asS'OFD1P7Y'
p666
(lp667
I18848264
aI18867280
aS'+'
asS'USP9YP7'
p668
(lp669
I17908755
aI17910806
aS'+'
asS'USP9YP6'
p670
(lp671
I17912699
aI17921630
aS'-'
asS'USP9YP9'
p672
(lp673
I25730011
aI25735160
aS'-'
asS'USP9YP8'
p674
(lp675
I21677246
aI21681118
aS'-'
asS'AC009977.1'
p676
(lp677
I19598188
aI19598757
aS'+'
asS'ARSFP1'
p678
(lp679
I12252321
aI12258033
aS'-'
asS'AC007241.1'
p680
(lp681
I18389297
aI18391510
aS'-'
asS'HSFY5P'
p682
(lp683
I22048554
aI22049347
aS'-'
asS'SNX18P1Y'
p684
(lp685
I11178306
aI11178816
aS'+'
asS'CDY2A'
p686
(lp687
I18025789
aI18028597
aS'+'
asS'TSPY18P'
p688
(lp689
I9869664
aI9870781
aS'+'
asS'SRIP3'
p690
(lp691
I6718962
aI6719180
aS'-'
asS'CDY12P'
p692
(lp693
I22064698
aI22065712
aS'+'
asS'CDY2B'
p694
(lp695
I17877410
aI17880218
aS'-'
asS'TSPY21P'
p696
(lp697
I22400403
aI22402568
aS'-'
asS'RPS4Y2'
p698
(lp699
I20756164
aI20781032
aS'+'
asS'ZNF736P4Y'
p700
(lp701
I25168599
aI25169841
aS'+'
asS'USP12PY'
p702
(lp703
I3682805
aI3683868
aS'+'
asS'CDY3P'
p704
(lp705
I9166085
aI9167702
aS'-'
asS'DUX4L17'
p706
(lp707
I11314921
aI11316187
aS'+'
asS'DUX4L16'
p708
(lp709
I11306918
aI11308181
aS'+'
asS'CDY22P'
p710
(lp711
I25813013
aI25814566
aS'+'
asS'DUX4L19'
p712
(lp713
I11332329
aI11333595
aS'+'
asS'TSPY9P'
p714
(lp715
I9487313
aI9489893
aS'+'
asS'USP9YP36'
p716
(lp717
I25579790
aI25588444
aS'+'
asS'USP9YP35'
p718
(lp719
I24077799
aI24079812
aS'+'
asS'USP9YP34'
p720
(lp721
I17984349
aI17993260
aS'+'
asS'USP9YP33'
p722
(lp723
I25590323
aI25592345
aS'-'
asS'USP9YP32'
p724
(lp725
I17995201
aI17997252
aS'-'
asS'USP9YP31'
p726
(lp727
I24081704
aI24090346
aS'-'
asS'USP9YP30'
p728
(lp729
I25723016
aI25724186
aS'+'
asS'ELOCP35'
p730
(lp731
I17464879
aI17465214
aS'-'
asS'ELOCP34'
p732
(lp733
I25662900
aI25663226
aS'+'
asS'DNM1P24'
p734
(lp735
I24179316
aI24183505
aS'-'
asS'AC007274.2'
p736
(lp737
I7690511
aI7692678
aS'+'
asS'AC016911.1'
p738
(lp739
I22861112
aI22861834
aS'-'
asS'XKRY'
p740
(lp741
I17769116
aI17777400
aS'-'
asS'AC017019.1'
p742
(lp743
I9665229
aI9669010
aS'+'
asS'USP9YP4'
p744
(lp745
I9189629
aI9204611
aS'-'
asS'AC006989.1'
p746
(lp747
I14941746
aI14942715
aS'+'
asS'TRIM60P9Y'
p748
(lp749
I23058030
aI23059186
aS'+'
asS'UBE2Q2P5Y'
p750
(lp751
I25431156
aI25437315
aS'+'
asS'XKRY2'
p752
(lp753
I18128610
aI18136886
aS'+'
asS'CLUHP1'
p754
(lp755
I17621259
aI17625832
aS'-'
asS'CLUHP2'
p756
(lp757
I18280178
aI18284761
aS'+'
asS'MTND2P3'
p758
(lp759
I8372241
aI8372710
aS'+'
asS'AC006335.1'
p760
(lp761
I6306042
aI6307920
aS'+'
asS'RAB9AP3'
p762
(lp763
I25918323
aI25918895
aS'-'
asS'AC006335.3'
p764
(lp765
I6243295
aI6245283
aS'-'
asS'RAB9AP1'
p766
(lp767
I23751188
aI23751760
aS'+'
asS'AC006335.5'
p768
(lp769
I6273579
aI6274065
aS'-'
asS'AC006335.4'
p770
(lp771
I6241768
aI6243629
aS'-'
asS'RAB9AP4'
p772
(lp773
I18649671
aI18650279
aS'+'
asS'RAB9AP5'
p774
(lp775
I23956569
aI23960218
aS'+'
asS'BPY2DP'
p776
(lp777
I7932997
aI7937640
aS'-'
asS'RBMY2OP'
p778
(lp779
I9951553
aI9959423
aS'+'
asS'AC023274.1'
p780
(lp781
I24182477
aI24183071
aS'+'
asS'AC023274.2'
p782
(lp783
I24142358
aI24157843
aS'+'
asS'MED13P1'
p784
(lp785
I14907898
aI14908068
aS'+'
asS'RFTN1P1'
p786
(lp787
I7742595
aI7809261
aS'-'
asS'TSPY13P'
p788
(lp789
I9905595
aI9908139
aS'-'
asS'TPTE2P4'
p790
(lp791
I26508213
aI26579690
aS'+'
asS'PSMA6P1'
p792
(lp793
I13286638
aI13287378
aS'+'
asS'TMSB4Y'
p794
(lp795
I13703567
aI13706024
aS'+'
asS'PARP4P1'
p796
(lp797
I26594851
aI26634652
aS'-'
asS'AC010678.1'
p798
(lp799
I7905536
aI7907303
aS'-'
asS'TSPY25P'
p800
(lp801
I9624183
aI9626352
aS'+'
asS'BPY2'
p802
(lp803
I22984263
aI23005465
aS'+'
asS'AC009947.1'
p804
(lp805
I23523321
aI23525369
aS'+'
asS'AC009947.2'
p806
(lp807
I23549809
aI23551385
aS'+'
asS'GYG2P1'
p808
(lp809
I12354416
aI12420456
aS'-'
asS'ANKRD20A6P'
p810
(lp811
I11173618
aI11173821
aS'+'
asS'OFD1P3Y'
p812
(lp813
I9030594
aI9039988
aS'+'
asS'GOT2P5'
p814
(lp815
I6837707
aI6838252
aS'+'
asS'RPL26P37'
p816
(lp817
I5793300
aI5793737
aS'-'
asS'CICP1'
p818
(lp819
I25388992
aI25391811
aS'+'
asS'AC016694.1'
p820
(lp821
I22670616
aI22672859
aS'-'
asS'BCORP1'
p822
(lp823
I19455431
aI19503153
aS'-'
asS'ARSEP1'
p824
(lp825
I12339813
aI12347487
aS'+'
asS'FAM8A4P'
p826
(lp827
I12321623
aI12322835
aS'+'
asS'ZNF736P8Y'
p828
(lp829
I7913422
aI7914090
aS'-'
asS'RBMY2YP'
p830
(lp831
I25266584
aI25273531
aS'+'
asS'AC012005.2'
p832
(lp833
I24196518
aI24206132
aS'-'
asS'AC009233.1'
p834
(lp835
I19932130
aI19932500
aS'-'
asS'AC012005.1'
p836
(lp837
I24362335
aI24362409
aS'-'
asS'XKRYP6'
p838
(lp839
I25943268
aI25954152
aS'+'
asS'ZNF736P1Y'
p840
(lp841
I24985201
aI24986476
aS'-'
asS'XKRYP4'
p842
(lp843
I23917241
aI23917723
aS'-'
asS'XKRYP5'
p844
(lp845
I25752388
aI25752870
aS'+'
asS'XKRYP2'
p846
(lp847
I18811338
aI18811829
aS'-'
asS'XKRYP3'
p848
(lp849
I23715922
aI23726808
aS'-'
asS'XKRYP1'
p850
(lp851
I18508577
aI18509068
aS'+'
asS'GPR143P'
p852
(lp853
I7100733
aI7106502
aS'-'
as.